; Listing generated by Microsoft (R) Optimizing Compiler Version 19.44.35219.0 

	TITLE	c:\anka2project\anka2project\source\binary\vs_files\userinterface\release\pythoneventmanager.obj
	.686P
	.XMM
	include listing.inc
	.model	flat

INCLUDELIB OLDNAMES

PUBLIC	??_C@_01GLPGHMHM@z@				; `string'
PUBLIC	??_C@_02HNLLPFKA@up@				; `string'
PUBLIC	??_C@_04CHADEDPO@view@				; `string'
PUBLIC	??_C@_05HCKPILGO@cross@				; `string'
PUBLIC	??_C@_08LHFODBFO@distance@			; `string'
PUBLIC	??_C@_03BHFFHIBL@rot@				; `string'
PUBLIC	??_C@_05NCNFOFLM@pitch@				; `string'
PUBLIC	??_C@_05MFEJDJP@value@				; `string'
PUBLIC	??_C@_0EK@NAEFMGNK@CPythonEventManager?3?3SetRestric@ ; `string'
PUBLIC	??_C@_0EH@KHNDFHCA@CPythonEventManager?3?3SetEventHa@ ; `string'
PUBLIC	??_C@_01JEJKBAGA@g@				; `string'
PUBLIC	??_C@_09DIPEHMLE@DoneEvent@			; `string'
PUBLIC	??_C@_03LOJEKLML@src@				; `string'
PUBLIC	??_C@_0M@MHNDOIJH@OnLeftImage@			; `string'
PUBLIC	??_C@_0L@ELIGNPMG@OnTopImage@			; `string'
PUBLIC	??_C@_0BC@OIPDJOGL@OnBackgroundImage@		; `string'
PUBLIC	??_C@_05GFDPDNFA@?$CIiis?$CJ@			; `string'
PUBLIC	??_C@_07COJEPNBG@OnImage@			; `string'
PUBLIC	??_C@_0L@NDIFBCJA@image_name@			; `string'
PUBLIC	??_C@_05PHLGJONK@title@				; `string'
PUBLIC	??_C@_04EBPADADD@desc@				; `string'
PUBLIC	??_C@_05FKHKFDID@index@				; `string'
PUBLIC	??_C@_05KBOMEDGA@total@				; `string'
PUBLIC	??_C@_0L@HIIGNCOA@image_type@			; `string'
PUBLIC	??_C@_03DAKNAIGI@idx@				; `string'
PUBLIC	??_C@_08GKIEGGBC@?$CIsissii?$CJ@		; `string'
PUBLIC	??_C@_0BB@FCLBKNGH@OnInsertItemIcon@		; `string'
PUBLIC	??_C@_08KJCKKFJC@?$CIssssii?$CJ@		; `string'
PUBLIC	??_C@_0O@LBIBFC@OnInsertImage@			; `string'
PUBLIC	??_C@_0BC@HCOLHKJD@BINARY_ClearQuest@		; `string'
PUBLIC	??_C@_09CNONGEHE@icon_type@			; `string'
PUBLIC	??_C@_09IGOOKEAE@icon_name@			; `string'
PUBLIC	??_C@_04MEMAJGDJ@name@				; `string'
PUBLIC	??_C@_0BD@MDDAOGBD@?A?$LG?$LA?$KC?$LD?$KN?5?$LP?k?H?$KF?$LM?$KO?$DP?4?4?4?4@ ; `string'
PUBLIC	??_C@_09MIAHMBP@highlight@			; `string'
PUBLIC	??_C@_06GEDDNFGH@?$CIisss?$CJ@			; `string'
PUBLIC	??_C@_0BB@JCGLEGP@BINARY_RecvQuest@		; `string'
PUBLIC	??_C@_04JMLDJNEM@?$CIis?$CJ@			; `string'
PUBLIC	??_C@_09IBEAJOHJ@RecvQuest@			; `string'
PUBLIC	??_C@_09LBCONMEI@blendtime@			; `string'
PUBLIC	??_C@_05HJCMGBKF@speed@				; `string'
PUBLIC	??_C@_03LDCBIPEL@?$CIf?$CJ@			; `string'
PUBLIC	??_C@_07EAEHEHPO@FadeOut@			; `string'
PUBLIC	??_C@_06GCJPJKOH@FadeIn@			; `string'
PUBLIC	??_C@_08JJKJMBO@WhiteOut@			; `string'
PUBLIC	??_C@_07NGADDHAB@WhiteIn@			; `string'
PUBLIC	??_C@_0N@CCHILNPP@OnTitleImage@			; `string'
PUBLIC	??_C@_0BA@FCPOOKJM@killstone_count@		; `string'
PUBLIC	??_C@_0O@DDDIKPAP@killmob_count@		; `string'
PUBLIC	??_C@_0M@NAENPPOP@find_hidden@			; `string'
PUBLIC	??_C@_0N@MAFIFFGH@hidden_total@			; `string'
PUBLIC	??_C@_0L@HLMCPCKO@use_potion@			; `string'
PUBLIC	??_C@_0L@HAAPAAPF@is_revived@			; `string'
PUBLIC	??_C@_0L@CEFFAPEL@killallmob@			; `string'
PUBLIC	??_C@_0L@OIFGKHMH@total_time@			; `string'
PUBLIC	??_C@_09HPFMCAOO@bonus_exp@			; `string'
PUBLIC	??_C@_0M@EDIBAKKL@?$CIiiiiiiiii?$CJ@		; `string'
PUBLIC	??_C@_0BC@GLAGHMFL@ShowDungeonResult@		; `string'
PUBLIC	??_C@_05IGKADHGO@width@				; `string'
PUBLIC	??_C@_06LNLHEAAG@height@			; `string'
PUBLIC	??_C@_06JKFPDEMN@OnSize@			; `string'
PUBLIC	??_C@_07MNOKODDC@OnInput@			; `string'
PUBLIC	??_C@_07DDHNKDGP@timeout@			; `string'
PUBLIC	??_C@_09FOPMPDJN@CloseSelf@			; `string'
PUBLIC	??_C@_0BM@GFGEFDCO@BINARY_OpenSelectItemWindow@	; `string'
PUBLIC	??_C@_0P@FONAKFHL@MakeNextButton@		; `string'
PUBLIC	??_C@_0N@NKMOFENJ@MakeQuestion@			; `string'
PUBLIC	??_C@_04LCKGAMBB@?$CIsi?$CJ@			; `string'
PUBLIC	??_C@_0P@EGMAHDDO@AppendQuestion@		; `string'
PUBLIC	??_C@_0DL@PFMMJDKG@CPythonEventManager?3?3InsertLine@ ; `string'
PUBLIC	??_C@_0DD@ENOBDFJN@CPythonEventManager?3?3InsertLine@ ; `string'
PUBLIC	??_C@_0CK@JOIMEHF@?5?$CB?$CB?5PARSING?5ERROR?5?9?5Strange?5Com@ ; `string'
PUBLIC	??_C@_0BB@GNKEGEMJ@?$LD?$LC?$MA?$LK?5?$LN?C?$LA?$KD?5?3?5?$CFd?C?J@ ; `string'
PUBLIC	??_C@_06MJINCFFA@LETTER@			; `string'
PUBLIC	??_C@_05DPNLPLKI@COLOR@				; `string'
PUBLIC	??_C@_05IBAECHHA@DELAY@				; `string'
PUBLIC	??_C@_05EMNIMLKD@ENTER@				; `string'
PUBLIC	??_C@_04DBNKAKHO@WAIT@				; `string'
PUBLIC	??_C@_05PONODPI@CLEAR@				; `string'
PUBLIC	??_C@_08MDIDLFIL@QUESTION@			; `string'
PUBLIC	??_C@_04MOKMKBJN@NEXT@				; `string'
PUBLIC	??_C@_04KANDKFIK@DONE@				; `string'
PUBLIC	??_C@_09GHNJOICA@LEFTIMAGE@			; `string'
PUBLIC	??_C@_08LGGHBKNM@TOPIMAGE@			; `string'
PUBLIC	??_C@_07CDIOHGPA@BGIMAGE@			; `string'
PUBLIC	??_C@_05BNHKIGFN@IMAGE@				; `string'
PUBLIC	??_C@_0N@LEAJJLAE@ADDMAPSIGNAL@			; `string'
PUBLIC	??_C@_0P@MCDNLKLH@CLEARMAPSIGNAL@		; `string'
PUBLIC	??_C@_09GPHHDAMH@SETMSGPOS@			; `string'
PUBLIC	??_C@_09DCGGFGEI@ADJMSGPOS@			; `string'
PUBLIC	??_C@_0L@HNINCFNF@SETCMAPPOS@			; `string'
PUBLIC	??_C@_0M@NLCKLGGC@QUESTBUTTON@			; `string'
PUBLIC	??_C@_0BC@HFDJPBHI@QUESTBUTTON_CLOSE@		; `string'
PUBLIC	??_C@_05DJAECLDN@SLEEP@				; `string'
PUBLIC	??_C@_0L@JFBLMOIC@SET_CAMERA@			; `string'
PUBLIC	??_C@_0N@LDDFAHD@BLEND_CAMERA@			; `string'
PUBLIC	??_C@_0P@JLFCBANF@RESTORE_CAMERA@		; `string'
PUBLIC	??_C@_08HDAMPNGA@FADE_OUT@			; `string'
PUBLIC	??_C@_07BBFGMBEC@FADE_IN@			; `string'
PUBLIC	??_C@_09FBLOEAGA@WHITE_OUT@			; `string'
PUBLIC	??_C@_08KBPNHIPE@WHITE_IN@			; `string'
PUBLIC	??_C@_0L@LKNFDGAI@CLEAR_TEXT@			; `string'
PUBLIC	??_C@_0BN@MHHHIBEN@TEXT_HORIZONTAL_ALIGN_CENTER@ ; `string'
PUBLIC	??_C@_0M@HJKMCEHO@TITLE_IMAGE@			; `string'
PUBLIC	??_C@_0L@PGFMEELF@RUN_CINEMA@			; `string'
PUBLIC	??_C@_0P@FFIDJBND@DUNGEON_RESULT@		; `string'
PUBLIC	??_C@_04BLNHNEEM@ITEM@				; `string'
PUBLIC	??_C@_03OEMEHHJ@MOB@				; `string'
PUBLIC	??_C@_08MALMLJOJ@COLOR256@			; `string'
PUBLIC	??_C@_0M@PMFMMHLB@WINDOW_SIZE@			; `string'
PUBLIC	??_C@_05POAEJIHJ@INPUT@				; `string'
PUBLIC	??_C@_0N@BAJAMEHH@CONFIRM_WAIT@			; `string'
PUBLIC	??_C@_0BB@EAAHJLBE@END_CONFIRM_WAIT@		; `string'
PUBLIC	??_C@_0N@IBBMOEIC@INSERT_IMAGE@			; `string'
PUBLIC	??_C@_0M@NHAJMLIB@SELECT_ITEM@			; `string'
PUBLIC	??_R2?$CDynamicPool@USEventSet@CPythonEventManager@@@@8 ; CDynamicPool<CPythonEventManager::SEventSet>::`RTTI Base Class Array'
PUBLIC	??_R2SEventSet@CPythonEventManager@@8		; CPythonEventManager::SEventSet::`RTTI Base Class Array'
PUBLIC	??_R2CPythonEventManager@@8			; CPythonEventManager::`RTTI Base Class Array'
PUBLIC	??_R2?$CSingleton@VCPythonEventManager@@@@8	; CSingleton<CPythonEventManager>::`RTTI Base Class Array'
PUBLIC	??_R2?$CDynamicPool@VCGraphicTextInstance@@@@8	; CDynamicPool<CGraphicTextInstance>::`RTTI Base Class Array'
PUBLIC	??_R1A@?0A@EA@?$CDynamicPool@USEventSet@CPythonEventManager@@@@8 ; CDynamicPool<CPythonEventManager::SEventSet>::`RTTI Base Class Descriptor at (0,-1,0,64)'
PUBLIC	??_R1A@?0A@EA@SEventSet@CPythonEventManager@@8	; CPythonEventManager::SEventSet::`RTTI Base Class Descriptor at (0,-1,0,64)'
PUBLIC	??_R1A@?0A@EA@CPythonEventManager@@8		; CPythonEventManager::`RTTI Base Class Descriptor at (0,-1,0,64)'
PUBLIC	??_R1A@?0A@EA@?$CSingleton@VCPythonEventManager@@@@8 ; CSingleton<CPythonEventManager>::`RTTI Base Class Descriptor at (0,-1,0,64)'
PUBLIC	??_R1A@?0A@EA@?$CDynamicPool@VCGraphicTextInstance@@@@8 ; CDynamicPool<CGraphicTextInstance>::`RTTI Base Class Descriptor at (0,-1,0,64)'
PUBLIC	??_R3?$CDynamicPool@USEventSet@CPythonEventManager@@@@8 ; CDynamicPool<CPythonEventManager::SEventSet>::`RTTI Class Hierarchy Descriptor'
PUBLIC	??_R0?AV?$CDynamicPool@USEventSet@CPythonEventManager@@@@@8 ; CDynamicPool<CPythonEventManager::SEventSet> `RTTI Type Descriptor'
PUBLIC	??_R3SEventSet@CPythonEventManager@@8		; CPythonEventManager::SEventSet::`RTTI Class Hierarchy Descriptor'
PUBLIC	??_R0?AUSEventSet@CPythonEventManager@@@8	; CPythonEventManager::SEventSet `RTTI Type Descriptor'
PUBLIC	??_R3?$CSingleton@VCPythonEventManager@@@@8	; CSingleton<CPythonEventManager>::`RTTI Class Hierarchy Descriptor'
PUBLIC	??_R0?AV?$CSingleton@VCPythonEventManager@@@@@8	; CSingleton<CPythonEventManager> `RTTI Type Descriptor'
PUBLIC	??_R3CPythonEventManager@@8			; CPythonEventManager::`RTTI Class Hierarchy Descriptor'
PUBLIC	??_R0?AVCPythonEventManager@@@8			; CPythonEventManager `RTTI Type Descriptor'
PUBLIC	??_R3?$CDynamicPool@VCGraphicTextInstance@@@@8	; CDynamicPool<CGraphicTextInstance>::`RTTI Class Hierarchy Descriptor'
PUBLIC	??_R0?AV?$CDynamicPool@VCGraphicTextInstance@@@@@8 ; CDynamicPool<CGraphicTextInstance> `RTTI Type Descriptor'
PUBLIC	??_R4?$CDynamicPool@USEventSet@CPythonEventManager@@@@6B@ ; CDynamicPool<CPythonEventManager::SEventSet>::`RTTI Complete Object Locator'
PUBLIC	??_R4SEventSet@CPythonEventManager@@6B@		; CPythonEventManager::SEventSet::`RTTI Complete Object Locator'
PUBLIC	??_R4?$CSingleton@VCPythonEventManager@@@@6B@	; CSingleton<CPythonEventManager>::`RTTI Complete Object Locator'
PUBLIC	??_R4CPythonEventManager@@6B@			; CPythonEventManager::`RTTI Complete Object Locator'
PUBLIC	??_R4?$CDynamicPool@VCGraphicTextInstance@@@@6B@ ; CDynamicPool<CGraphicTextInstance>::`RTTI Complete Object Locator'
PUBLIC	??_7?$CDynamicPool@VCGraphicTextInstance@@@@6B@	; CDynamicPool<CGraphicTextInstance>::`vftable'
PUBLIC	?ms_singleton@?$CSingleton@VCPythonEventManager@@@@0PAVCPythonEventManager@@A ; CSingleton<CPythonEventManager>::ms_singleton
PUBLIC	??_7?$CSingleton@VCPythonEventManager@@@@6B@	; CSingleton<CPythonEventManager>::`vftable'
PUBLIC	??_7?$CDynamicPool@USEventSet@CPythonEventManager@@@@6B@ ; CDynamicPool<CPythonEventManager::SEventSet>::`vftable'
PUBLIC	??_7CPythonEventManager@@6B@			; CPythonEventManager::`vftable'
PUBLIC	??_7SEventSet@CPythonEventManager@@6B@		; CPythonEventManager::SEventSet::`vftable'
EXTRN	?GetLineHeight@CGraphicTextInstance@@QAEGXZ:PROC ; CGraphicTextInstance::GetLineHeight
EXTRN	?GetTextSize@CGraphicTextInstance@@QAEXPAH0@Z:PROC ; CGraphicTextInstance::GetTextSize
EXTRN	?GetHorizontalAlign@CGraphicTextInstance@@QAEHXZ:PROC ; CGraphicTextInstance::GetHorizontalAlign
EXTRN	?SetColor@CGraphicTextInstance@@QAEXMMMM@Z:PROC	; CGraphicTextInstance::SetColor
EXTRN	?SetValueString@CGraphicTextInstance@@QAEXABV?$basic_string@DU?$char_traits@D@std@@V?$allocator@D@2@@std@@@Z:PROC ; CGraphicTextInstance::SetValueString
EXTRN	?GetCmd@Group@script@@QAE_NAAUSCmd@2@@Z:PROC	; script::Group::GetCmd
EXTRN	?SetHorizonalAlign@CGraphicTextInstance@@QAEXH@Z:PROC ; CGraphicTextInstance::SetHorizonalAlign
EXTRN	__imp__timeGetTime@0:PROC
EXTRN	?ReadCmd@Group@script@@QAE_NAAUSCmd@2@@Z:PROC	; script::Group::ReadCmd
EXTRN	?Create@Group@script@@QAEHABV?$basic_string@DU?$char_traits@D@std@@V?$allocator@D@2@@std@@@Z:PROC ; script::Group::Create
EXTRN	?Read@CMappedFile@@QAEHPAXH@Z:PROC		; CMappedFile::Read
EXTRN	??0Group@script@@QAE@XZ:PROC			; script::Group::Group
EXTRN	??1Group@script@@QAE@XZ:PROC			; script::Group::~Group
;	COMDAT ?ms_singleton@?$CSingleton@VCPythonEventManager@@@@0PAVCPythonEventManager@@A
_BSS	SEGMENT
?ms_singleton@?$CSingleton@VCPythonEventManager@@@@0PAVCPythonEventManager@@A DD 01H DUP (?) ; CSingleton<CPythonEventManager>::ms_singleton
_BSS	ENDS
;	COMDAT ??_7SEventSet@CPythonEventManager@@6B@
CONST	SEGMENT
??_7SEventSet@CPythonEventManager@@6B@ DD FLAT:??_R4SEventSet@CPythonEventManager@@6B@ ; CPythonEventManager::SEventSet::`vftable'
	DD	FLAT:??_ESEventSet@CPythonEventManager@@UAEPAXI@Z
CONST	ENDS
;	COMDAT ?strEmptyValue@?1??GetArgumentString@@YAABV?$basic_string@DU?$char_traits@D@std@@V?$allocator@D@2@@std@@PBDAAV?$list@USArgumet@script@@V?$allocator@USArgumet@script@@@std@@@3@@Z@4V23@A
_DATA	SEGMENT
?strEmptyValue@?1??GetArgumentString@@YAABV?$basic_string@DU?$char_traits@D@std@@V?$allocator@D@2@@std@@PBDAAV?$list@USArgumet@script@@V?$allocator@USArgumet@script@@@std@@@3@@Z@4V23@A DB 00H ; `GetArgumentString'::`2'::strEmptyValue
	DB	00H
	DB	00H
	DB	00H
	DB	00H
	DB	00H
	DB	00H
	DB	00H
	DB	00H
	DB	00H
	DB	00H
	DB	00H
	DB	00H
	DB	00H
	DB	00H
	DB	00H
	DD	00H
	DD	0fH
_DATA	ENDS
;	COMDAT ??_7CPythonEventManager@@6B@
CONST	SEGMENT
??_7CPythonEventManager@@6B@ DD FLAT:??_R4CPythonEventManager@@6B@ ; CPythonEventManager::`vftable'
	DD	FLAT:??_ECPythonEventManager@@UAEPAXI@Z
CONST	ENDS
;	COMDAT ??_7?$CDynamicPool@USEventSet@CPythonEventManager@@@@6B@
CONST	SEGMENT
??_7?$CDynamicPool@USEventSet@CPythonEventManager@@@@6B@ DD FLAT:??_R4?$CDynamicPool@USEventSet@CPythonEventManager@@@@6B@ ; CDynamicPool<CPythonEventManager::SEventSet>::`vftable'
	DD	FLAT:??_E?$CDynamicPool@USEventSet@CPythonEventManager@@@@UAEPAXI@Z
CONST	ENDS
;	COMDAT ??_7?$CSingleton@VCPythonEventManager@@@@6B@
CONST	SEGMENT
??_7?$CSingleton@VCPythonEventManager@@@@6B@ DD FLAT:??_R4?$CSingleton@VCPythonEventManager@@@@6B@ ; CSingleton<CPythonEventManager>::`vftable'
	DD	FLAT:??_E?$CSingleton@VCPythonEventManager@@@@UAEPAXI@Z
CONST	ENDS
;	COMDAT ??_7?$CDynamicPool@VCGraphicTextInstance@@@@6B@
CONST	SEGMENT
??_7?$CDynamicPool@VCGraphicTextInstance@@@@6B@ DD FLAT:??_R4?$CDynamicPool@VCGraphicTextInstance@@@@6B@ ; CDynamicPool<CGraphicTextInstance>::`vftable'
	DD	FLAT:??_E?$CDynamicPool@VCGraphicTextInstance@@@@UAEPAXI@Z
CONST	ENDS
;	COMDAT ??_R4?$CDynamicPool@VCGraphicTextInstance@@@@6B@
rdata$r	SEGMENT
??_R4?$CDynamicPool@VCGraphicTextInstance@@@@6B@ DD 00H	; CDynamicPool<CGraphicTextInstance>::`RTTI Complete Object Locator'
	DD	00H
	DD	00H
	DD	FLAT:??_R0?AV?$CDynamicPool@VCGraphicTextInstance@@@@@8
	DD	FLAT:??_R3?$CDynamicPool@VCGraphicTextInstance@@@@8
rdata$r	ENDS
;	COMDAT ??_R4CPythonEventManager@@6B@
rdata$r	SEGMENT
??_R4CPythonEventManager@@6B@ DD 00H			; CPythonEventManager::`RTTI Complete Object Locator'
	DD	00H
	DD	00H
	DD	FLAT:??_R0?AVCPythonEventManager@@@8
	DD	FLAT:??_R3CPythonEventManager@@8
rdata$r	ENDS
;	COMDAT ??_R4?$CSingleton@VCPythonEventManager@@@@6B@
rdata$r	SEGMENT
??_R4?$CSingleton@VCPythonEventManager@@@@6B@ DD 00H	; CSingleton<CPythonEventManager>::`RTTI Complete Object Locator'
	DD	00H
	DD	00H
	DD	FLAT:??_R0?AV?$CSingleton@VCPythonEventManager@@@@@8
	DD	FLAT:??_R3?$CSingleton@VCPythonEventManager@@@@8
rdata$r	ENDS
;	COMDAT ??_R4SEventSet@CPythonEventManager@@6B@
rdata$r	SEGMENT
??_R4SEventSet@CPythonEventManager@@6B@ DD 00H		; CPythonEventManager::SEventSet::`RTTI Complete Object Locator'
	DD	00H
	DD	00H
	DD	FLAT:??_R0?AUSEventSet@CPythonEventManager@@@8
	DD	FLAT:??_R3SEventSet@CPythonEventManager@@8
rdata$r	ENDS
;	COMDAT ??_R4?$CDynamicPool@USEventSet@CPythonEventManager@@@@6B@
rdata$r	SEGMENT
??_R4?$CDynamicPool@USEventSet@CPythonEventManager@@@@6B@ DD 00H ; CDynamicPool<CPythonEventManager::SEventSet>::`RTTI Complete Object Locator'
	DD	00H
	DD	00H
	DD	FLAT:??_R0?AV?$CDynamicPool@USEventSet@CPythonEventManager@@@@@8
	DD	FLAT:??_R3?$CDynamicPool@USEventSet@CPythonEventManager@@@@8
rdata$r	ENDS
;	COMDAT ??_R0?AV?$CDynamicPool@VCGraphicTextInstance@@@@@8
data$rs	SEGMENT
??_R0?AV?$CDynamicPool@VCGraphicTextInstance@@@@@8 DD FLAT:??_7type_info@@6B@ ; CDynamicPool<CGraphicTextInstance> `RTTI Type Descriptor'
	DD	00H
	DB	'.?AV?$CDynamicPool@VCGraphicTextInstance@@@@', 00H
data$rs	ENDS
;	COMDAT ??_R3?$CDynamicPool@VCGraphicTextInstance@@@@8
rdata$r	SEGMENT
??_R3?$CDynamicPool@VCGraphicTextInstance@@@@8 DD 00H	; CDynamicPool<CGraphicTextInstance>::`RTTI Class Hierarchy Descriptor'
	DD	00H
	DD	01H
	DD	FLAT:??_R2?$CDynamicPool@VCGraphicTextInstance@@@@8
rdata$r	ENDS
;	COMDAT ??_R0?AVCPythonEventManager@@@8
data$rs	SEGMENT
??_R0?AVCPythonEventManager@@@8 DD FLAT:??_7type_info@@6B@ ; CPythonEventManager `RTTI Type Descriptor'
	DD	00H
	DB	'.?AVCPythonEventManager@@', 00H
data$rs	ENDS
;	COMDAT ??_R3CPythonEventManager@@8
rdata$r	SEGMENT
??_R3CPythonEventManager@@8 DD 00H			; CPythonEventManager::`RTTI Class Hierarchy Descriptor'
	DD	00H
	DD	02H
	DD	FLAT:??_R2CPythonEventManager@@8
rdata$r	ENDS
;	COMDAT ??_R0?AV?$CSingleton@VCPythonEventManager@@@@@8
data$rs	SEGMENT
??_R0?AV?$CSingleton@VCPythonEventManager@@@@@8 DD FLAT:??_7type_info@@6B@ ; CSingleton<CPythonEventManager> `RTTI Type Descriptor'
	DD	00H
	DB	'.?AV?$CSingleton@VCPythonEventManager@@@@', 00H
data$rs	ENDS
;	COMDAT ??_R3?$CSingleton@VCPythonEventManager@@@@8
rdata$r	SEGMENT
??_R3?$CSingleton@VCPythonEventManager@@@@8 DD 00H	; CSingleton<CPythonEventManager>::`RTTI Class Hierarchy Descriptor'
	DD	00H
	DD	01H
	DD	FLAT:??_R2?$CSingleton@VCPythonEventManager@@@@8
rdata$r	ENDS
;	COMDAT ??_R0?AUSEventSet@CPythonEventManager@@@8
data$rs	SEGMENT
??_R0?AUSEventSet@CPythonEventManager@@@8 DD FLAT:??_7type_info@@6B@ ; CPythonEventManager::SEventSet `RTTI Type Descriptor'
	DD	00H
	DB	'.?AUSEventSet@CPythonEventManager@@', 00H
data$rs	ENDS
;	COMDAT ??_R3SEventSet@CPythonEventManager@@8
rdata$r	SEGMENT
??_R3SEventSet@CPythonEventManager@@8 DD 00H		; CPythonEventManager::SEventSet::`RTTI Class Hierarchy Descriptor'
	DD	00H
	DD	01H
	DD	FLAT:??_R2SEventSet@CPythonEventManager@@8
rdata$r	ENDS
;	COMDAT ??_R0?AV?$CDynamicPool@USEventSet@CPythonEventManager@@@@@8
data$rs	SEGMENT
??_R0?AV?$CDynamicPool@USEventSet@CPythonEventManager@@@@@8 DD FLAT:??_7type_info@@6B@ ; CDynamicPool<CPythonEventManager::SEventSet> `RTTI Type Descriptor'
	DD	00H
	DB	'.?AV?$CDynamicPool@USEventSet@CPythonEventManager@@@@', 00H
data$rs	ENDS
;	COMDAT ??_R3?$CDynamicPool@USEventSet@CPythonEventManager@@@@8
rdata$r	SEGMENT
??_R3?$CDynamicPool@USEventSet@CPythonEventManager@@@@8 DD 00H ; CDynamicPool<CPythonEventManager::SEventSet>::`RTTI Class Hierarchy Descriptor'
	DD	00H
	DD	01H
	DD	FLAT:??_R2?$CDynamicPool@USEventSet@CPythonEventManager@@@@8
rdata$r	ENDS
;	COMDAT ??_R1A@?0A@EA@?$CDynamicPool@VCGraphicTextInstance@@@@8
rdata$r	SEGMENT
??_R1A@?0A@EA@?$CDynamicPool@VCGraphicTextInstance@@@@8 DD FLAT:??_R0?AV?$CDynamicPool@VCGraphicTextInstance@@@@@8 ; CDynamicPool<CGraphicTextInstance>::`RTTI Base Class Descriptor at (0,-1,0,64)'
	DD	00H
	DD	00H
	DD	0ffffffffH
	DD	00H
	DD	040H
	DD	FLAT:??_R3?$CDynamicPool@VCGraphicTextInstance@@@@8
rdata$r	ENDS
;	COMDAT ??_R1A@?0A@EA@?$CSingleton@VCPythonEventManager@@@@8
rdata$r	SEGMENT
??_R1A@?0A@EA@?$CSingleton@VCPythonEventManager@@@@8 DD FLAT:??_R0?AV?$CSingleton@VCPythonEventManager@@@@@8 ; CSingleton<CPythonEventManager>::`RTTI Base Class Descriptor at (0,-1,0,64)'
	DD	00H
	DD	00H
	DD	0ffffffffH
	DD	00H
	DD	040H
	DD	FLAT:??_R3?$CSingleton@VCPythonEventManager@@@@8
rdata$r	ENDS
;	COMDAT ??_R1A@?0A@EA@CPythonEventManager@@8
rdata$r	SEGMENT
??_R1A@?0A@EA@CPythonEventManager@@8 DD FLAT:??_R0?AVCPythonEventManager@@@8 ; CPythonEventManager::`RTTI Base Class Descriptor at (0,-1,0,64)'
	DD	01H
	DD	00H
	DD	0ffffffffH
	DD	00H
	DD	040H
	DD	FLAT:??_R3CPythonEventManager@@8
rdata$r	ENDS
;	COMDAT ??_R1A@?0A@EA@SEventSet@CPythonEventManager@@8
rdata$r	SEGMENT
??_R1A@?0A@EA@SEventSet@CPythonEventManager@@8 DD FLAT:??_R0?AUSEventSet@CPythonEventManager@@@8 ; CPythonEventManager::SEventSet::`RTTI Base Class Descriptor at (0,-1,0,64)'
	DD	00H
	DD	00H
	DD	0ffffffffH
	DD	00H
	DD	040H
	DD	FLAT:??_R3SEventSet@CPythonEventManager@@8
rdata$r	ENDS
;	COMDAT ??_R1A@?0A@EA@?$CDynamicPool@USEventSet@CPythonEventManager@@@@8
rdata$r	SEGMENT
??_R1A@?0A@EA@?$CDynamicPool@USEventSet@CPythonEventManager@@@@8 DD FLAT:??_R0?AV?$CDynamicPool@USEventSet@CPythonEventManager@@@@@8 ; CDynamicPool<CPythonEventManager::SEventSet>::`RTTI Base Class Descriptor at (0,-1,0,64)'
	DD	00H
	DD	00H
	DD	0ffffffffH
	DD	00H
	DD	040H
	DD	FLAT:??_R3?$CDynamicPool@USEventSet@CPythonEventManager@@@@8
rdata$r	ENDS
;	COMDAT ??_R2?$CDynamicPool@VCGraphicTextInstance@@@@8
rdata$r	SEGMENT
??_R2?$CDynamicPool@VCGraphicTextInstance@@@@8 DD FLAT:??_R1A@?0A@EA@?$CDynamicPool@VCGraphicTextInstance@@@@8 ; CDynamicPool<CGraphicTextInstance>::`RTTI Base Class Array'
rdata$r	ENDS
;	COMDAT ??_R2?$CSingleton@VCPythonEventManager@@@@8
rdata$r	SEGMENT
??_R2?$CSingleton@VCPythonEventManager@@@@8 DD FLAT:??_R1A@?0A@EA@?$CSingleton@VCPythonEventManager@@@@8 ; CSingleton<CPythonEventManager>::`RTTI Base Class Array'
rdata$r	ENDS
;	COMDAT ??_R2CPythonEventManager@@8
rdata$r	SEGMENT
??_R2CPythonEventManager@@8 DD FLAT:??_R1A@?0A@EA@CPythonEventManager@@8 ; CPythonEventManager::`RTTI Base Class Array'
	DD	FLAT:??_R1A@?0A@EA@?$CSingleton@VCPythonEventManager@@@@8
rdata$r	ENDS
;	COMDAT ??_R2SEventSet@CPythonEventManager@@8
rdata$r	SEGMENT
??_R2SEventSet@CPythonEventManager@@8 DD FLAT:??_R1A@?0A@EA@SEventSet@CPythonEventManager@@8 ; CPythonEventManager::SEventSet::`RTTI Base Class Array'
rdata$r	ENDS
;	COMDAT ??_R2?$CDynamicPool@USEventSet@CPythonEventManager@@@@8
rdata$r	SEGMENT
??_R2?$CDynamicPool@USEventSet@CPythonEventManager@@@@8 DD FLAT:??_R1A@?0A@EA@?$CDynamicPool@USEventSet@CPythonEventManager@@@@8 ; CDynamicPool<CPythonEventManager::SEventSet>::`RTTI Base Class Array'
rdata$r	ENDS
;	COMDAT ??_C@_0M@NHAJMLIB@SELECT_ITEM@
CONST	SEGMENT
??_C@_0M@NHAJMLIB@SELECT_ITEM@ DB 'SELECT_ITEM', 00H	; `string'
CONST	ENDS
;	COMDAT ??_C@_0N@IBBMOEIC@INSERT_IMAGE@
CONST	SEGMENT
??_C@_0N@IBBMOEIC@INSERT_IMAGE@ DB 'INSERT_IMAGE', 00H	; `string'
CONST	ENDS
;	COMDAT ??_C@_0BB@EAAHJLBE@END_CONFIRM_WAIT@
CONST	SEGMENT
??_C@_0BB@EAAHJLBE@END_CONFIRM_WAIT@ DB 'END_CONFIRM_WAIT', 00H ; `string'
CONST	ENDS
;	COMDAT ??_C@_0N@BAJAMEHH@CONFIRM_WAIT@
CONST	SEGMENT
??_C@_0N@BAJAMEHH@CONFIRM_WAIT@ DB 'CONFIRM_WAIT', 00H	; `string'
CONST	ENDS
;	COMDAT ??_C@_05POAEJIHJ@INPUT@
CONST	SEGMENT
??_C@_05POAEJIHJ@INPUT@ DB 'INPUT', 00H			; `string'
CONST	ENDS
;	COMDAT ??_C@_0M@PMFMMHLB@WINDOW_SIZE@
CONST	SEGMENT
??_C@_0M@PMFMMHLB@WINDOW_SIZE@ DB 'WINDOW_SIZE', 00H	; `string'
CONST	ENDS
;	COMDAT ??_C@_08MALMLJOJ@COLOR256@
CONST	SEGMENT
??_C@_08MALMLJOJ@COLOR256@ DB 'COLOR256', 00H		; `string'
CONST	ENDS
;	COMDAT ??_C@_03OEMEHHJ@MOB@
CONST	SEGMENT
??_C@_03OEMEHHJ@MOB@ DB 'MOB', 00H			; `string'
CONST	ENDS
;	COMDAT ??_C@_04BLNHNEEM@ITEM@
CONST	SEGMENT
??_C@_04BLNHNEEM@ITEM@ DB 'ITEM', 00H			; `string'
CONST	ENDS
;	COMDAT ??_C@_0P@FFIDJBND@DUNGEON_RESULT@
CONST	SEGMENT
??_C@_0P@FFIDJBND@DUNGEON_RESULT@ DB 'DUNGEON_RESULT', 00H ; `string'
CONST	ENDS
;	COMDAT ??_C@_0L@PGFMEELF@RUN_CINEMA@
CONST	SEGMENT
??_C@_0L@PGFMEELF@RUN_CINEMA@ DB 'RUN_CINEMA', 00H	; `string'
CONST	ENDS
;	COMDAT ??_C@_0M@HJKMCEHO@TITLE_IMAGE@
CONST	SEGMENT
??_C@_0M@HJKMCEHO@TITLE_IMAGE@ DB 'TITLE_IMAGE', 00H	; `string'
CONST	ENDS
;	COMDAT ??_C@_0BN@MHHHIBEN@TEXT_HORIZONTAL_ALIGN_CENTER@
CONST	SEGMENT
??_C@_0BN@MHHHIBEN@TEXT_HORIZONTAL_ALIGN_CENTER@ DB 'TEXT_HORIZONTAL_ALIG'
	DB	'N_CENTER', 00H				; `string'
CONST	ENDS
;	COMDAT ??_C@_0L@LKNFDGAI@CLEAR_TEXT@
CONST	SEGMENT
??_C@_0L@LKNFDGAI@CLEAR_TEXT@ DB 'CLEAR_TEXT', 00H	; `string'
CONST	ENDS
;	COMDAT ??_C@_08KBPNHIPE@WHITE_IN@
CONST	SEGMENT
??_C@_08KBPNHIPE@WHITE_IN@ DB 'WHITE_IN', 00H		; `string'
CONST	ENDS
;	COMDAT ??_C@_09FBLOEAGA@WHITE_OUT@
CONST	SEGMENT
??_C@_09FBLOEAGA@WHITE_OUT@ DB 'WHITE_OUT', 00H		; `string'
CONST	ENDS
;	COMDAT ??_C@_07BBFGMBEC@FADE_IN@
CONST	SEGMENT
??_C@_07BBFGMBEC@FADE_IN@ DB 'FADE_IN', 00H		; `string'
CONST	ENDS
;	COMDAT ??_C@_08HDAMPNGA@FADE_OUT@
CONST	SEGMENT
??_C@_08HDAMPNGA@FADE_OUT@ DB 'FADE_OUT', 00H		; `string'
CONST	ENDS
;	COMDAT ??_C@_0P@JLFCBANF@RESTORE_CAMERA@
CONST	SEGMENT
??_C@_0P@JLFCBANF@RESTORE_CAMERA@ DB 'RESTORE_CAMERA', 00H ; `string'
CONST	ENDS
;	COMDAT ??_C@_0N@LDDFAHD@BLEND_CAMERA@
CONST	SEGMENT
??_C@_0N@LDDFAHD@BLEND_CAMERA@ DB 'BLEND_CAMERA', 00H	; `string'
CONST	ENDS
;	COMDAT ??_C@_0L@JFBLMOIC@SET_CAMERA@
CONST	SEGMENT
??_C@_0L@JFBLMOIC@SET_CAMERA@ DB 'SET_CAMERA', 00H	; `string'
CONST	ENDS
;	COMDAT ??_C@_05DJAECLDN@SLEEP@
CONST	SEGMENT
??_C@_05DJAECLDN@SLEEP@ DB 'SLEEP', 00H			; `string'
CONST	ENDS
;	COMDAT ??_C@_0BC@HFDJPBHI@QUESTBUTTON_CLOSE@
CONST	SEGMENT
??_C@_0BC@HFDJPBHI@QUESTBUTTON_CLOSE@ DB 'QUESTBUTTON_CLOSE', 00H ; `string'
CONST	ENDS
;	COMDAT ??_C@_0M@NLCKLGGC@QUESTBUTTON@
CONST	SEGMENT
??_C@_0M@NLCKLGGC@QUESTBUTTON@ DB 'QUESTBUTTON', 00H	; `string'
CONST	ENDS
;	COMDAT ??_C@_0L@HNINCFNF@SETCMAPPOS@
CONST	SEGMENT
??_C@_0L@HNINCFNF@SETCMAPPOS@ DB 'SETCMAPPOS', 00H	; `string'
CONST	ENDS
;	COMDAT ??_C@_09DCGGFGEI@ADJMSGPOS@
CONST	SEGMENT
??_C@_09DCGGFGEI@ADJMSGPOS@ DB 'ADJMSGPOS', 00H		; `string'
CONST	ENDS
;	COMDAT ??_C@_09GPHHDAMH@SETMSGPOS@
CONST	SEGMENT
??_C@_09GPHHDAMH@SETMSGPOS@ DB 'SETMSGPOS', 00H		; `string'
CONST	ENDS
;	COMDAT ??_C@_0P@MCDNLKLH@CLEARMAPSIGNAL@
CONST	SEGMENT
??_C@_0P@MCDNLKLH@CLEARMAPSIGNAL@ DB 'CLEARMAPSIGNAL', 00H ; `string'
CONST	ENDS
;	COMDAT ??_C@_0N@LEAJJLAE@ADDMAPSIGNAL@
CONST	SEGMENT
??_C@_0N@LEAJJLAE@ADDMAPSIGNAL@ DB 'ADDMAPSIGNAL', 00H	; `string'
CONST	ENDS
;	COMDAT ??_C@_05BNHKIGFN@IMAGE@
CONST	SEGMENT
??_C@_05BNHKIGFN@IMAGE@ DB 'IMAGE', 00H			; `string'
CONST	ENDS
;	COMDAT ??_C@_07CDIOHGPA@BGIMAGE@
CONST	SEGMENT
??_C@_07CDIOHGPA@BGIMAGE@ DB 'BGIMAGE', 00H		; `string'
CONST	ENDS
;	COMDAT ??_C@_08LGGHBKNM@TOPIMAGE@
CONST	SEGMENT
??_C@_08LGGHBKNM@TOPIMAGE@ DB 'TOPIMAGE', 00H		; `string'
CONST	ENDS
;	COMDAT ??_C@_09GHNJOICA@LEFTIMAGE@
CONST	SEGMENT
??_C@_09GHNJOICA@LEFTIMAGE@ DB 'LEFTIMAGE', 00H		; `string'
CONST	ENDS
;	COMDAT ??_C@_04KANDKFIK@DONE@
CONST	SEGMENT
??_C@_04KANDKFIK@DONE@ DB 'DONE', 00H			; `string'
CONST	ENDS
;	COMDAT ??_C@_04MOKMKBJN@NEXT@
CONST	SEGMENT
??_C@_04MOKMKBJN@NEXT@ DB 'NEXT', 00H			; `string'
CONST	ENDS
;	COMDAT ??_C@_08MDIDLFIL@QUESTION@
CONST	SEGMENT
??_C@_08MDIDLFIL@QUESTION@ DB 'QUESTION', 00H		; `string'
CONST	ENDS
;	COMDAT ??_C@_05PONODPI@CLEAR@
CONST	SEGMENT
??_C@_05PONODPI@CLEAR@ DB 'CLEAR', 00H			; `string'
CONST	ENDS
;	COMDAT ??_C@_04DBNKAKHO@WAIT@
CONST	SEGMENT
??_C@_04DBNKAKHO@WAIT@ DB 'WAIT', 00H			; `string'
CONST	ENDS
;	COMDAT ??_C@_05EMNIMLKD@ENTER@
CONST	SEGMENT
??_C@_05EMNIMLKD@ENTER@ DB 'ENTER', 00H			; `string'
CONST	ENDS
;	COMDAT ??_C@_05IBAECHHA@DELAY@
CONST	SEGMENT
??_C@_05IBAECHHA@DELAY@ DB 'DELAY', 00H			; `string'
CONST	ENDS
;	COMDAT ??_C@_05DPNLPLKI@COLOR@
CONST	SEGMENT
??_C@_05DPNLPLKI@COLOR@ DB 'COLOR', 00H			; `string'
CONST	ENDS
;	COMDAT ??_C@_06MJINCFFA@LETTER@
CONST	SEGMENT
??_C@_06MJINCFFA@LETTER@ DB 'LETTER', 00H		; `string'
CONST	ENDS
;	COMDAT ??_C@_0BB@GNKEGEMJ@?$LD?$LC?$MA?$LK?5?$LN?C?$LA?$KD?5?3?5?$CFd?C?J@
CONST	SEGMENT
??_C@_0BB@GNKEGEMJ@?$LD?$LC?$MA?$LK?5?$LN?C?$LA?$KD?5?3?5?$CFd?C?J@ DB 0b3H
	DB	0b2H, 0c0H, 0baH, ' ', 0bdH, 0c3H, 0b0H, 0a3H, ' : %d', 0c3H, 0caH
	DB	00H						; `string'
CONST	ENDS
;	COMDAT ??_C@_0CK@JOIMEHF@?5?$CB?$CB?5PARSING?5ERROR?5?9?5Strange?5Com@
CONST	SEGMENT
??_C@_0CK@JOIMEHF@?5?$CB?$CB?5PARSING?5ERROR?5?9?5Strange?5Com@ DB ' !! P'
	DB	'ARSING ERROR - Strange Command : %s', 0aH, 00H ; `string'
CONST	ENDS
;	COMDAT ??_C@_0DD@ENOBDFJN@CPythonEventManager?3?3InsertLine@
CONST	SEGMENT
??_C@_0DD@ENOBDFJN@CPythonEventManager?3?3InsertLine@ DB 'CPythonEventMan'
	DB	'ager::InsertLine - OUT_OF_TEXT_LINE', 00H	; `string'
CONST	ENDS
;	COMDAT ??_C@_0DL@PFMMJDKG@CPythonEventManager?3?3InsertLine@
CONST	SEGMENT
??_C@_0DL@PFMMJDKG@CPythonEventManager?3?3InsertLine@ DB 'CPythonEventMan'
	DB	'ager::InsertLine - CANNOT_FIND_DEFAULT_FONT', 00H ; `string'
CONST	ENDS
;	COMDAT ??_C@_0P@EGMAHDDO@AppendQuestion@
CONST	SEGMENT
??_C@_0P@EGMAHDDO@AppendQuestion@ DB 'AppendQuestion', 00H ; `string'
CONST	ENDS
;	COMDAT ??_C@_04LCKGAMBB@?$CIsi?$CJ@
CONST	SEGMENT
??_C@_04LCKGAMBB@?$CIsi?$CJ@ DB '(si)', 00H		; `string'
CONST	ENDS
;	COMDAT ??_C@_0N@NKMOFENJ@MakeQuestion@
CONST	SEGMENT
??_C@_0N@NKMOFENJ@MakeQuestion@ DB 'MakeQuestion', 00H	; `string'
CONST	ENDS
;	COMDAT ??_C@_0P@FONAKFHL@MakeNextButton@
CONST	SEGMENT
??_C@_0P@FONAKFHL@MakeNextButton@ DB 'MakeNextButton', 00H ; `string'
CONST	ENDS
;	COMDAT ??_C@_0BM@GFGEFDCO@BINARY_OpenSelectItemWindow@
CONST	SEGMENT
??_C@_0BM@GFGEFDCO@BINARY_OpenSelectItemWindow@ DB 'BINARY_OpenSelectItem'
	DB	'Window', 00H				; `string'
CONST	ENDS
;	COMDAT ??_C@_09FOPMPDJN@CloseSelf@
CONST	SEGMENT
??_C@_09FOPMPDJN@CloseSelf@ DB 'CloseSelf', 00H		; `string'
CONST	ENDS
;	COMDAT ??_C@_07DDHNKDGP@timeout@
CONST	SEGMENT
??_C@_07DDHNKDGP@timeout@ DB 'timeout', 00H		; `string'
CONST	ENDS
;	COMDAT ??_C@_07MNOKODDC@OnInput@
CONST	SEGMENT
??_C@_07MNOKODDC@OnInput@ DB 'OnInput', 00H		; `string'
CONST	ENDS
;	COMDAT ??_C@_06JKFPDEMN@OnSize@
CONST	SEGMENT
??_C@_06JKFPDEMN@OnSize@ DB 'OnSize', 00H		; `string'
CONST	ENDS
;	COMDAT ??_C@_06LNLHEAAG@height@
CONST	SEGMENT
??_C@_06LNLHEAAG@height@ DB 'height', 00H		; `string'
CONST	ENDS
;	COMDAT ??_C@_05IGKADHGO@width@
CONST	SEGMENT
??_C@_05IGKADHGO@width@ DB 'width', 00H			; `string'
CONST	ENDS
;	COMDAT ??_C@_0BC@GLAGHMFL@ShowDungeonResult@
CONST	SEGMENT
??_C@_0BC@GLAGHMFL@ShowDungeonResult@ DB 'ShowDungeonResult', 00H ; `string'
CONST	ENDS
;	COMDAT ??_C@_0M@EDIBAKKL@?$CIiiiiiiiii?$CJ@
CONST	SEGMENT
??_C@_0M@EDIBAKKL@?$CIiiiiiiiii?$CJ@ DB '(iiiiiiiii)', 00H ; `string'
CONST	ENDS
;	COMDAT ??_C@_09HPFMCAOO@bonus_exp@
CONST	SEGMENT
??_C@_09HPFMCAOO@bonus_exp@ DB 'bonus_exp', 00H		; `string'
CONST	ENDS
;	COMDAT ??_C@_0L@OIFGKHMH@total_time@
CONST	SEGMENT
??_C@_0L@OIFGKHMH@total_time@ DB 'total_time', 00H	; `string'
CONST	ENDS
;	COMDAT ??_C@_0L@CEFFAPEL@killallmob@
CONST	SEGMENT
??_C@_0L@CEFFAPEL@killallmob@ DB 'killallmob', 00H	; `string'
CONST	ENDS
;	COMDAT ??_C@_0L@HAAPAAPF@is_revived@
CONST	SEGMENT
??_C@_0L@HAAPAAPF@is_revived@ DB 'is_revived', 00H	; `string'
CONST	ENDS
;	COMDAT ??_C@_0L@HLMCPCKO@use_potion@
CONST	SEGMENT
??_C@_0L@HLMCPCKO@use_potion@ DB 'use_potion', 00H	; `string'
CONST	ENDS
;	COMDAT ??_C@_0N@MAFIFFGH@hidden_total@
CONST	SEGMENT
??_C@_0N@MAFIFFGH@hidden_total@ DB 'hidden_total', 00H	; `string'
CONST	ENDS
;	COMDAT ??_C@_0M@NAENPPOP@find_hidden@
CONST	SEGMENT
??_C@_0M@NAENPPOP@find_hidden@ DB 'find_hidden', 00H	; `string'
CONST	ENDS
;	COMDAT ??_C@_0O@DDDIKPAP@killmob_count@
CONST	SEGMENT
??_C@_0O@DDDIKPAP@killmob_count@ DB 'killmob_count', 00H ; `string'
CONST	ENDS
;	COMDAT ??_C@_0BA@FCPOOKJM@killstone_count@
CONST	SEGMENT
??_C@_0BA@FCPOOKJM@killstone_count@ DB 'killstone_count', 00H ; `string'
CONST	ENDS
;	COMDAT ??_C@_0N@CCHILNPP@OnTitleImage@
CONST	SEGMENT
??_C@_0N@CCHILNPP@OnTitleImage@ DB 'OnTitleImage', 00H	; `string'
CONST	ENDS
;	COMDAT ??_C@_07NGADDHAB@WhiteIn@
CONST	SEGMENT
??_C@_07NGADDHAB@WhiteIn@ DB 'WhiteIn', 00H		; `string'
CONST	ENDS
;	COMDAT ??_C@_08JJKJMBO@WhiteOut@
CONST	SEGMENT
??_C@_08JJKJMBO@WhiteOut@ DB 'WhiteOut', 00H		; `string'
CONST	ENDS
;	COMDAT ??_C@_06GCJPJKOH@FadeIn@
CONST	SEGMENT
??_C@_06GCJPJKOH@FadeIn@ DB 'FadeIn', 00H		; `string'
CONST	ENDS
;	COMDAT ??_C@_07EAEHEHPO@FadeOut@
CONST	SEGMENT
??_C@_07EAEHEHPO@FadeOut@ DB 'FadeOut', 00H		; `string'
CONST	ENDS
;	COMDAT ??_C@_03LDCBIPEL@?$CIf?$CJ@
CONST	SEGMENT
??_C@_03LDCBIPEL@?$CIf?$CJ@ DB '(f)', 00H		; `string'
CONST	ENDS
;	COMDAT ??_C@_05HJCMGBKF@speed@
CONST	SEGMENT
??_C@_05HJCMGBKF@speed@ DB 'speed', 00H			; `string'
CONST	ENDS
;	COMDAT ??_C@_09LBCONMEI@blendtime@
CONST	SEGMENT
??_C@_09LBCONMEI@blendtime@ DB 'blendtime', 00H		; `string'
CONST	ENDS
;	COMDAT ??_C@_09IBEAJOHJ@RecvQuest@
CONST	SEGMENT
??_C@_09IBEAJOHJ@RecvQuest@ DB 'RecvQuest', 00H		; `string'
CONST	ENDS
;	COMDAT ??_C@_04JMLDJNEM@?$CIis?$CJ@
CONST	SEGMENT
??_C@_04JMLDJNEM@?$CIis?$CJ@ DB '(is)', 00H		; `string'
CONST	ENDS
;	COMDAT ??_C@_0BB@JCGLEGP@BINARY_RecvQuest@
CONST	SEGMENT
??_C@_0BB@JCGLEGP@BINARY_RecvQuest@ DB 'BINARY_RecvQuest', 00H ; `string'
CONST	ENDS
;	COMDAT ??_C@_06GEDDNFGH@?$CIisss?$CJ@
CONST	SEGMENT
??_C@_06GEDDNFGH@?$CIisss?$CJ@ DB '(isss)', 00H		; `string'
CONST	ENDS
;	COMDAT ??_C@_09MIAHMBP@highlight@
CONST	SEGMENT
??_C@_09MIAHMBP@highlight@ DB 'highlight', 00H		; `string'
CONST	ENDS
;	COMDAT ??_C@_0BD@MDDAOGBD@?A?$LG?$LA?$KC?$LD?$KN?5?$LP?k?H?$KF?$LM?$KO?$DP?4?4?4?4@
CONST	SEGMENT
??_C@_0BD@MDDAOGBD@?A?$LG?$LA?$KC?$LD?$KN?5?$LP?k?H?$KF?$LM?$KO?$DP?4?4?4?4@ DB 0c1H
	DB	0b6H, 0b0H, 0a2H, 0b3H, 0adH, ' ', 0bfH, 0ebH, 0c8H, 0a5H, 0bcH
	DB	0aeH, '?....', 00H				; `string'
CONST	ENDS
;	COMDAT ??_C@_04MEMAJGDJ@name@
CONST	SEGMENT
??_C@_04MEMAJGDJ@name@ DB 'name', 00H			; `string'
CONST	ENDS
;	COMDAT ??_C@_09IGOOKEAE@icon_name@
CONST	SEGMENT
??_C@_09IGOOKEAE@icon_name@ DB 'icon_name', 00H		; `string'
CONST	ENDS
;	COMDAT ??_C@_09CNONGEHE@icon_type@
CONST	SEGMENT
??_C@_09CNONGEHE@icon_type@ DB 'icon_type', 00H		; `string'
CONST	ENDS
;	COMDAT ??_C@_0BC@HCOLHKJD@BINARY_ClearQuest@
CONST	SEGMENT
??_C@_0BC@HCOLHKJD@BINARY_ClearQuest@ DB 'BINARY_ClearQuest', 00H ; `string'
CONST	ENDS
;	COMDAT ??_C@_0O@LBIBFC@OnInsertImage@
CONST	SEGMENT
??_C@_0O@LBIBFC@OnInsertImage@ DB 'OnInsertImage', 00H	; `string'
CONST	ENDS
;	COMDAT ??_C@_08KJCKKFJC@?$CIssssii?$CJ@
CONST	SEGMENT
??_C@_08KJCKKFJC@?$CIssssii?$CJ@ DB '(ssssii)', 00H	; `string'
CONST	ENDS
;	COMDAT ??_C@_0BB@FCLBKNGH@OnInsertItemIcon@
CONST	SEGMENT
??_C@_0BB@FCLBKNGH@OnInsertItemIcon@ DB 'OnInsertItemIcon', 00H ; `string'
CONST	ENDS
;	COMDAT ??_C@_08GKIEGGBC@?$CIsissii?$CJ@
CONST	SEGMENT
??_C@_08GKIEGGBC@?$CIsissii?$CJ@ DB '(sissii)', 00H	; `string'
CONST	ENDS
;	COMDAT ??_C@_03DAKNAIGI@idx@
CONST	SEGMENT
??_C@_03DAKNAIGI@idx@ DB 'idx', 00H			; `string'
CONST	ENDS
;	COMDAT ??_C@_0L@HIIGNCOA@image_type@
CONST	SEGMENT
??_C@_0L@HIIGNCOA@image_type@ DB 'image_type', 00H	; `string'
CONST	ENDS
;	COMDAT ??_C@_05KBOMEDGA@total@
CONST	SEGMENT
??_C@_05KBOMEDGA@total@ DB 'total', 00H			; `string'
CONST	ENDS
;	COMDAT ??_C@_05FKHKFDID@index@
CONST	SEGMENT
??_C@_05FKHKFDID@index@ DB 'index', 00H			; `string'
CONST	ENDS
;	COMDAT ??_C@_04EBPADADD@desc@
CONST	SEGMENT
??_C@_04EBPADADD@desc@ DB 'desc', 00H			; `string'
CONST	ENDS
;	COMDAT ??_C@_05PHLGJONK@title@
CONST	SEGMENT
??_C@_05PHLGJONK@title@ DB 'title', 00H			; `string'
CONST	ENDS
;	COMDAT ??_C@_0L@NDIFBCJA@image_name@
CONST	SEGMENT
??_C@_0L@NDIFBCJA@image_name@ DB 'image_name', 00H	; `string'
CONST	ENDS
;	COMDAT ??_C@_07COJEPNBG@OnImage@
CONST	SEGMENT
??_C@_07COJEPNBG@OnImage@ DB 'OnImage', 00H		; `string'
CONST	ENDS
;	COMDAT ??_C@_05GFDPDNFA@?$CIiis?$CJ@
CONST	SEGMENT
??_C@_05GFDPDNFA@?$CIiis?$CJ@ DB '(iis)', 00H		; `string'
CONST	ENDS
;	COMDAT ??_C@_0BC@OIPDJOGL@OnBackgroundImage@
CONST	SEGMENT
??_C@_0BC@OIPDJOGL@OnBackgroundImage@ DB 'OnBackgroundImage', 00H ; `string'
CONST	ENDS
;	COMDAT ??_C@_0L@ELIGNPMG@OnTopImage@
CONST	SEGMENT
??_C@_0L@ELIGNPMG@OnTopImage@ DB 'OnTopImage', 00H	; `string'
CONST	ENDS
;	COMDAT ??_C@_0M@MHNDOIJH@OnLeftImage@
CONST	SEGMENT
??_C@_0M@MHNDOIJH@OnLeftImage@ DB 'OnLeftImage', 00H	; `string'
CONST	ENDS
;	COMDAT ??_C@_03LOJEKLML@src@
CONST	SEGMENT
??_C@_03LOJEKLML@src@ DB 'src', 00H			; `string'
CONST	ENDS
;	COMDAT ??_C@_09DIPEHMLE@DoneEvent@
CONST	SEGMENT
??_C@_09DIPEHMLE@DoneEvent@ DB 'DoneEvent', 00H		; `string'
CONST	ENDS
;	COMDAT ??_C@_01JEJKBAGA@g@
CONST	SEGMENT
??_C@_01JEJKBAGA@g@ DB 'g', 00H				; `string'
CONST	ENDS
;	COMDAT ??_C@_0EH@KHNDFHCA@CPythonEventManager?3?3SetEventHa@
CONST	SEGMENT
??_C@_0EH@KHNDFHCA@CPythonEventManager?3?3SetEventHa@ DB 'CPythonEventMan'
	DB	'ager::SetEventHandler m_EventSetVector[iIndex=%d]==NULL', 00H ; `string'
CONST	ENDS
;	COMDAT ??_C@_0EK@NAEFMGNK@CPythonEventManager?3?3SetRestric@
CONST	SEGMENT
??_C@_0EK@NAEFMGNK@CPythonEventManager?3?3SetRestric@ DB 'CPythonEventMan'
	DB	'ager::SetRestrictedCount m_EventSetVector[iIndex=%d]==NULL', 00H ; `string'
CONST	ENDS
;	COMDAT ??_C@_05MFEJDJP@value@
CONST	SEGMENT
??_C@_05MFEJDJP@value@ DB 'value', 00H			; `string'
CONST	ENDS
;	COMDAT ??_C@_05NCNFOFLM@pitch@
CONST	SEGMENT
??_C@_05NCNFOFLM@pitch@ DB 'pitch', 00H			; `string'
CONST	ENDS
;	COMDAT ??_C@_03BHFFHIBL@rot@
CONST	SEGMENT
??_C@_03BHFFHIBL@rot@ DB 'rot', 00H			; `string'
CONST	ENDS
;	COMDAT ??_C@_08LHFODBFO@distance@
CONST	SEGMENT
??_C@_08LHFODBFO@distance@ DB 'distance', 00H		; `string'
CONST	ENDS
;	COMDAT ??_C@_05HCKPILGO@cross@
CONST	SEGMENT
??_C@_05HCKPILGO@cross@ DB 'cross', 00H			; `string'
CONST	ENDS
;	COMDAT ??_C@_04CHADEDPO@view@
CONST	SEGMENT
??_C@_04CHADEDPO@view@ DB 'view', 00H			; `string'
CONST	ENDS
;	COMDAT ??_C@_02HNLLPFKA@up@
CONST	SEGMENT
??_C@_02HNLLPFKA@up@ DB 'up', 00H			; `string'
CONST	ENDS
;	COMDAT ??_C@_01GLPGHMHM@z@
CONST	SEGMENT
??_C@_01GLPGHMHM@z@ DB 'z', 00H				; `string'
PUBLIC	?append@?$basic_string@DU?$char_traits@D@std@@V?$allocator@D@2@@std@@QAEAAV12@ABV12@@Z ; std::basic_string<char,std::char_traits<char>,std::allocator<char> >::append
PUBLIC	??$construct_at@PAVCGraphicTextInstance@@PAV1@@std@@YAPAPAVCGraphicTextInstance@@QAPAV1@$$QAPAV1@@Z ; std::construct_at<CGraphicTextInstance *,CGraphicTextInstance *>
PUBLIC	??$move@AAV?$tuple@$$QAV?$basic_string@DU?$char_traits@D@std@@V?$allocator@D@2@@std@@@std@@@std@@YA$$QAV?$tuple@$$QAV?$basic_string@DU?$char_traits@D@std@@V?$allocator@D@2@@std@@@0@AAV10@@Z ; std::move<std::tuple<std::basic_string<char,std::char_traits<char>,std::allocator<char> > &&> &>
PUBLIC	?_Get_first@?$_Compressed_pair@V?$allocator@PAVCGraphicTextInstance@@@std@@V?$_Vector_val@U?$_Simple_types@PAVCGraphicTextInstance@@@std@@@2@$00@std@@QBEABV?$allocator@PAVCGraphicTextInstance@@@2@XZ ; std::_Compressed_pair<std::allocator<CGraphicTextInstance *>,std::_Vector_val<std::_Simple_types<CGraphicTextInstance *> >,1>::_Get_first
PUBLIC	??$construct@PAVCGraphicTextInstance@@PAV1@@?$_Default_allocator_traits@V?$allocator@PAVCGraphicTextInstance@@@std@@@std@@SAXAAV?$allocator@PAVCGraphicTextInstance@@@1@QAPAVCGraphicTextInstance@@$$QAPAV3@@Z ; std::_Default_allocator_traits<std::allocator<CGraphicTextInstance *> >::construct<CGraphicTextInstance *,CGraphicTextInstance *>
PUBLIC	??$forward@PAVCGraphicTextInstance@@@std@@YA$$QAPAVCGraphicTextInstance@@AAPAV1@@Z ; std::forward<CGraphicTextInstance *>
PUBLIC	??$_Copy_memmove_tail@PAPAVCGraphicTextInstance@@@std@@YAPAPAVCGraphicTextInstance@@QBDQAPAV1@II@Z ; std::_Copy_memmove_tail<CGraphicTextInstance * *>
PUBLIC	??$move@AAPAPAVCGraphicTextInstance@@@std@@YA$$QAPAPAVCGraphicTextInstance@@AAPAPAV1@@Z ; std::move<CGraphicTextInstance * * &>
PUBLIC	??$to_address@PAVCGraphicTextInstance@@@std@@YAPAPAVCGraphicTextInstance@@QAPAV1@@Z ; std::to_address<CGraphicTextInstance *>
PUBLIC	??$_Tuple_get@$0A@$$QAV?$basic_string@DU?$char_traits@D@std@@V?$allocator@D@2@@std@@@std@@YA$$QA_P$$QAV?$tuple@$$QAV?$basic_string@DU?$char_traits@D@std@@V?$allocator@D@2@@std@@@0@@Z ; std::_Tuple_get<0,std::basic_string<char,std::char_traits<char>,std::allocator<char> > &&>
PUBLIC	??$?0V?$tuple@$$QAV?$basic_string@DU?$char_traits@D@std@@V?$allocator@D@2@@std@@@std@@V?$tuple@$$V@1@$0A@$$Z$S@?$pair@$$CBV?$basic_string@DU?$char_traits@D@std@@V?$allocator@D@2@@std@@H@std@@AAE@AAV?$tuple@$$QAV?$basic_string@DU?$char_traits@D@std@@V?$allocator@D@2@@std@@@1@AAV?$tuple@$$V@1@U?$integer_sequence@I$0A@@1@U?$integer_sequence@I$S@1@@Z ; std::pair<std::basic_string<char,std::char_traits<char>,std::allocator<char> > const ,int>::pair<std::basic_string<char,std::char_traits<char>,std::allocator<char> > const ,int><std::tuple<std::basic_string<char,std::char_traits<char>,std::allocator<char> > &&>,std::tuple<>,0>
PUBLIC	??_GSArgumet@script@@QAEPAXI@Z			; script::SArgumet::`scalar deleting destructor'
PUBLIC	?_Get_first@?$_Compressed_pair@V?$allocator@U?$_Tree_node@U?$pair@$$CBV?$basic_string@DU?$char_traits@D@std@@V?$allocator@D@2@@std@@H@std@@PAX@std@@@std@@V?$_Tree_val@U?$_Tree_simple_types@U?$pair@$$CBV?$basic_string@DU?$char_traits@D@std@@V?$allocator@D@2@@std@@H@std@@@std@@@2@$00@std@@QBEABV?$allocator@U?$_Tree_node@U?$pair@$$CBV?$basic_string@DU?$char_traits@D@std@@V?$allocator@D@2@@std@@H@std@@PAX@std@@@2@XZ ; std::_Compressed_pair<std::allocator<std::_Tree_node<std::pair<std::basic_string<char,std::char_traits<char>,std::allocator<char> > const ,int>,void *> >,std::_Tree_val<std::_Tree_simple_types<std::pair<std::basic_string<char,std::char_traits<char>,std::allocator<char> > const ,int> > >,1>::_Get_first
PUBLIC	?_Get_first@?$_Compressed_pair@V?$allocator@PAUSEventSet@CPythonEventManager@@@std@@V?$_Vector_val@U?$_Simple_types@PAUSEventSet@CPythonEventManager@@@std@@@2@$00@std@@QBEABV?$allocator@PAUSEventSet@CPythonEventManager@@@2@XZ ; std::_Compressed_pair<std::allocator<CPythonEventManager::SEventSet *>,std::_Vector_val<std::_Simple_types<CPythonEventManager::SEventSet *> >,1>::_Get_first
PUBLIC	?allocate@?$allocator@PAVCGraphicTextInstance@@@std@@QAEPAPAVCGraphicTextInstance@@I@Z ; std::allocator<CGraphicTextInstance *>::allocate
PUBLIC	?capacity@?$vector@PAVCGraphicTextInstance@@V?$allocator@PAVCGraphicTextInstance@@@std@@@std@@QBEIXZ ; std::vector<CGraphicTextInstance *,std::allocator<CGraphicTextInstance *> >::capacity
PUBLIC	?_Getal@?$vector@PAVCGraphicTextInstance@@V?$allocator@PAVCGraphicTextInstance@@@std@@@std@@ABEABV?$allocator@PAVCGraphicTextInstance@@@2@XZ ; std::vector<CGraphicTextInstance *,std::allocator<CGraphicTextInstance *> >::_Getal
PUBLIC	?max_size@?$_Default_allocator_traits@V?$allocator@PAVCGraphicTextInstance@@@std@@@std@@SAIABV?$allocator@PAVCGraphicTextInstance@@@2@@Z ; std::_Default_allocator_traits<std::allocator<CGraphicTextInstance *> >::max_size
PUBLIC	??0?$_Uninitialized_backout_al@V?$allocator@PAVCGraphicTextInstance@@@std@@@std@@QAE@PAPAVCGraphicTextInstance@@AAV?$allocator@PAVCGraphicTextInstance@@@1@@Z ; std::_Uninitialized_backout_al<std::allocator<CGraphicTextInstance *> >::_Uninitialized_backout_al<std::allocator<CGraphicTextInstance *> >
PUBLIC	??1?$_Uninitialized_backout_al@V?$allocator@PAVCGraphicTextInstance@@@std@@@std@@QAE@XZ ; std::_Uninitialized_backout_al<std::allocator<CGraphicTextInstance *> >::~_Uninitialized_backout_al<std::allocator<CGraphicTextInstance *> >
PUBLIC	?_Release@?$_Uninitialized_backout_al@V?$allocator@PAVCGraphicTextInstance@@@std@@@std@@QAEPAPAVCGraphicTextInstance@@XZ ; std::_Uninitialized_backout_al<std::allocator<CGraphicTextInstance *> >::_Release
PUBLIC	??$construct_at@PAU?$_Tree_node@U?$pair@$$CBV?$basic_string@DU?$char_traits@D@std@@V?$allocator@D@2@@std@@H@std@@PAX@std@@ABQAU12@@std@@YAPAPAU?$_Tree_node@U?$pair@$$CBV?$basic_string@DU?$char_traits@D@std@@V?$allocator@D@2@@std@@H@std@@PAX@0@QAPAU10@ABQAU10@@Z ; std::construct_at<std::_Tree_node<std::pair<std::basic_string<char,std::char_traits<char>,std::allocator<char> > const ,int>,void *> *,std::_Tree_node<std::pair<std::basic_string<char,std::char_traits<char>,std::allocator<char> > const ,int>,void *> * const &>
PUBLIC	??1SArgumet@script@@QAE@XZ			; script::SArgumet::~SArgumet
PUBLIC	??$destroy_at@USArgumet@script@@@std@@YAXQAUSArgumet@script@@@Z ; std::destroy_at<script::SArgumet>
PUBLIC	??$construct_at@PAUSEventSet@CPythonEventManager@@ABQAU12@@std@@YAPAPAUSEventSet@CPythonEventManager@@QAPAU12@ABQAU12@@Z ; std::construct_at<CPythonEventManager::SEventSet *,CPythonEventManager::SEventSet * const &>
PUBLIC	??$_Emplace_back@PAVCGraphicTextInstance@@@?$_Uninitialized_backout_al@V?$allocator@PAVCGraphicTextInstance@@@std@@@std@@QAEX$$QAPAVCGraphicTextInstance@@@Z ; std::_Uninitialized_backout_al<std::allocator<CGraphicTextInstance *> >::_Emplace_back<CGraphicTextInstance *>
PUBLIC	??$_To_address@PAPAVCGraphicTextInstance@@@std@@YA?A_PABQAPAVCGraphicTextInstance@@@Z ; std::_To_address<CGraphicTextInstance * *>
PUBLIC	??$_Copy_memmove@PAPAVCGraphicTextInstance@@PAPAV1@@std@@YAPAPAVCGraphicTextInstance@@PAPAV1@00@Z ; std::_Copy_memmove<CGraphicTextInstance * *,CGraphicTextInstance * *>
PUBLIC	??$move@AAPAVCGraphicTextInstance@@@std@@YA$$QAPAVCGraphicTextInstance@@AAPAV1@@Z ; std::move<CGraphicTextInstance * &>
PUBLIC	??$construct_at@PAVCGraphicTextInstance@@ABQAV1@@std@@YAPAPAVCGraphicTextInstance@@QAPAV1@ABQAV1@@Z ; std::construct_at<CGraphicTextInstance *,CGraphicTextInstance * const &>
PUBLIC	??$addressof@PAVCGraphicTextInstance@@@std@@YAPAPAVCGraphicTextInstance@@AAPAV1@@Z ; std::addressof<CGraphicTextInstance *>
PUBLIC	??$?0V?$basic_string@DU?$char_traits@D@std@@V?$allocator@D@2@@std@@@?$_Tuple_val@$$QAV?$basic_string@DU?$char_traits@D@std@@V?$allocator@D@2@@std@@@std@@QAE@$$QAV?$basic_string@DU?$char_traits@D@std@@V?$allocator@D@2@@1@@Z ; std::_Tuple_val<std::basic_string<char,std::char_traits<char>,std::allocator<char> > &&>::_Tuple_val<std::basic_string<char,std::char_traits<char>,std::allocator<char> > &&><std::basic_string<char,std::char_traits<char>,std::allocator<char> > >
PUBLIC	??$_Copy_memmove_tail@PAPAUSEventSet@CPythonEventManager@@@std@@YAPAPAUSEventSet@CPythonEventManager@@QBDQAPAU12@II@Z ; std::_Copy_memmove_tail<CPythonEventManager::SEventSet * *>
PUBLIC	??$move@AAPAPAUSEventSet@CPythonEventManager@@@std@@YA$$QAPAPAUSEventSet@CPythonEventManager@@AAPAPAU12@@Z ; std::move<CPythonEventManager::SEventSet * * &>
PUBLIC	??$to_address@PAUSEventSet@CPythonEventManager@@@std@@YAPAPAUSEventSet@CPythonEventManager@@QAPAU12@@Z ; std::to_address<CPythonEventManager::SEventSet *>
PUBLIC	??$?0$$QAV?$basic_string@DU?$char_traits@D@std@@V?$allocator@D@2@@std@@$$Z$$V@?$pair@$$CBV?$basic_string@DU?$char_traits@D@std@@V?$allocator@D@2@@std@@H@std@@QAE@Upiecewise_construct_t@1@V?$tuple@$$QAV?$basic_string@DU?$char_traits@D@std@@V?$allocator@D@2@@std@@@1@V?$tuple@$$V@1@@Z ; std::pair<std::basic_string<char,std::char_traits<char>,std::allocator<char> > const ,int>::pair<std::basic_string<char,std::char_traits<char>,std::allocator<char> > const ,int><std::basic_string<char,std::char_traits<char>,std::allocator<char> > &&>
PUBLIC	??_G?$pair@$$CBV?$basic_string@DU?$char_traits@D@std@@V?$allocator@D@2@@std@@H@std@@QAEPAXI@Z ; std::pair<std::basic_string<char,std::char_traits<char>,std::allocator<char> > const ,int>::`scalar deleting destructor'
PUBLIC	??0?$tuple@$$QAV?$basic_string@DU?$char_traits@D@std@@V?$allocator@D@2@@std@@@std@@QAE@$$QAV01@@Z ; std::tuple<std::basic_string<char,std::char_traits<char>,std::allocator<char> > &&>::tuple<std::basic_string<char,std::char_traits<char>,std::allocator<char> > &&>
PUBLIC	?deallocate@?$allocator@U?$_List_node@USArgumet@script@@PAX@std@@@std@@QAEXQAU?$_List_node@USArgumet@script@@PAX@2@I@Z ; std::allocator<std::_List_node<script::SArgumet,void *> >::deallocate
PUBLIC	?_Getal@?$_Tree@V?$_Tmap_traits@V?$basic_string@DU?$char_traits@D@std@@V?$allocator@D@2@@std@@HU?$less@V?$basic_string@DU?$char_traits@D@std@@V?$allocator@D@2@@std@@@2@V?$allocator@U?$pair@$$CBV?$basic_string@DU?$char_traits@D@std@@V?$allocator@D@2@@std@@H@std@@@2@$0A@@std@@@std@@IBEABV?$allocator@U?$_Tree_node@U?$pair@$$CBV?$basic_string@DU?$char_traits@D@std@@V?$allocator@D@2@@std@@H@std@@PAX@std@@@2@XZ ; std::_Tree<std::_Tmap_traits<std::basic_string<char,std::char_traits<char>,std::allocator<char> >,int,std::less<std::basic_string<char,std::char_traits<char>,std::allocator<char> > >,std::allocator<std::pair<std::basic_string<char,std::char_traits<char>,std::allocator<char> > const ,int> >,0> >::_Getal
PUBLIC	??0?$allocator@U?$_Tree_node@U?$pair@$$CBV?$basic_string@DU?$char_traits@D@std@@V?$allocator@D@2@@std@@H@std@@PAX@std@@@std@@QAE@XZ ; std::allocator<std::_Tree_node<std::pair<std::basic_string<char,std::char_traits<char>,std::allocator<char> > const ,int>,void *> >::allocator<std::_Tree_node<std::pair<std::basic_string<char,std::char_traits<char>,std::allocator<char> > const ,int>,void *> >
PUBLIC	?deallocate@?$allocator@U?$_Tree_node@U?$pair@$$CBV?$basic_string@DU?$char_traits@D@std@@V?$allocator@D@2@@std@@H@std@@PAX@std@@@std@@QAEXQAU?$_Tree_node@U?$pair@$$CBV?$basic_string@DU?$char_traits@D@std@@V?$allocator@D@2@@std@@H@std@@PAX@2@I@Z ; std::allocator<std::_Tree_node<std::pair<std::basic_string<char,std::char_traits<char>,std::allocator<char> > const ,int>,void *> >::deallocate
PUBLIC	?allocate@?$allocator@U?$_Tree_node@U?$pair@$$CBV?$basic_string@DU?$char_traits@D@std@@V?$allocator@D@2@@std@@H@std@@PAX@std@@@std@@QAEPAU?$_Tree_node@U?$pair@$$CBV?$basic_string@DU?$char_traits@D@std@@V?$allocator@D@2@@std@@H@std@@PAX@2@I@Z ; std::allocator<std::_Tree_node<std::pair<std::basic_string<char,std::char_traits<char>,std::allocator<char> > const ,int>,void *> >::allocate
PUBLIC	?max_size@?$_Default_allocator_traits@V?$allocator@U?$_Tree_node@U?$pair@$$CBV?$basic_string@DU?$char_traits@D@std@@V?$allocator@D@2@@std@@H@std@@PAX@std@@@std@@@std@@SAIABV?$allocator@U?$_Tree_node@U?$pair@$$CBV?$basic_string@DU?$char_traits@D@std@@V?$allocator@D@2@@std@@H@std@@PAX@std@@@2@@Z ; std::_Default_allocator_traits<std::allocator<std::_Tree_node<std::pair<std::basic_string<char,std::char_traits<char>,std::allocator<char> > const ,int>,void *> > >::max_size
PUBLIC	??0?$_Tree_val@U?$_Tree_simple_types@U?$pair@$$CBV?$basic_string@DU?$char_traits@D@std@@V?$allocator@D@2@@std@@H@std@@@std@@@std@@QAE@XZ ; std::_Tree_val<std::_Tree_simple_types<std::pair<std::basic_string<char,std::char_traits<char>,std::allocator<char> > const ,int> > >::_Tree_val<std::_Tree_simple_types<std::pair<std::basic_string<char,std::char_traits<char>,std::allocator<char> > const ,int> > >
PUBLIC	?_Get_first@?$_Compressed_pair@U?$less@V?$basic_string@DU?$char_traits@D@std@@V?$allocator@D@2@@std@@@std@@V?$_Compressed_pair@V?$allocator@U?$_Tree_node@U?$pair@$$CBV?$basic_string@DU?$char_traits@D@std@@V?$allocator@D@2@@std@@H@std@@PAX@std@@@std@@V?$_Tree_val@U?$_Tree_simple_types@U?$pair@$$CBV?$basic_string@DU?$char_traits@D@std@@V?$allocator@D@2@@std@@H@std@@@std@@@2@$00@2@$00@std@@QBEABU?$less@V?$basic_string@DU?$char_traits@D@std@@V?$allocator@D@2@@std@@@2@XZ ; std::_Compressed_pair<std::less<std::basic_string<char,std::char_traits<char>,std::allocator<char> > >,std::_Compressed_pair<std::allocator<std::_Tree_node<std::pair<std::basic_string<char,std::char_traits<char>,std::allocator<char> > const ,int>,void *> >,std::_Tree_val<std::_Tree_simple_types<std::pair<std::basic_string<char,std::char_traits<char>,std::allocator<char> > const ,int> > >,1>,1>::_Get_first
PUBLIC	?deallocate@?$allocator@U?$_List_node@USTextLine@CPythonEventManager@@PAX@std@@@std@@QAEXQAU?$_List_node@USTextLine@CPythonEventManager@@PAX@2@I@Z ; std::allocator<std::_List_node<CPythonEventManager::STextLine,void *> >::deallocate
PUBLIC	?_Get_first@?$_Compressed_pair@V?$allocator@U?$_List_node@USTextLine@CPythonEventManager@@PAX@std@@@std@@V?$_List_val@U?$_List_simple_types@USTextLine@CPythonEventManager@@@std@@@2@$00@std@@QBEABV?$allocator@U?$_List_node@USTextLine@CPythonEventManager@@PAX@std@@@2@XZ ; std::_Compressed_pair<std::allocator<std::_List_node<CPythonEventManager::STextLine,void *> >,std::_List_val<std::_List_simple_types<CPythonEventManager::STextLine> >,1>::_Get_first
PUBLIC	?allocate@?$allocator@PAUSEventSet@CPythonEventManager@@@std@@QAEPAPAUSEventSet@CPythonEventManager@@I@Z ; std::allocator<CPythonEventManager::SEventSet *>::allocate
PUBLIC	?capacity@?$vector@PAUSEventSet@CPythonEventManager@@V?$allocator@PAUSEventSet@CPythonEventManager@@@std@@@std@@QBEIXZ ; std::vector<CPythonEventManager::SEventSet *,std::allocator<CPythonEventManager::SEventSet *> >::capacity
PUBLIC	?_Getal@?$vector@PAUSEventSet@CPythonEventManager@@V?$allocator@PAUSEventSet@CPythonEventManager@@@std@@@std@@ABEABV?$allocator@PAUSEventSet@CPythonEventManager@@@2@XZ ; std::vector<CPythonEventManager::SEventSet *,std::allocator<CPythonEventManager::SEventSet *> >::_Getal
PUBLIC	?max_size@?$_Default_allocator_traits@V?$allocator@PAUSEventSet@CPythonEventManager@@@std@@@std@@SAIABV?$allocator@PAUSEventSet@CPythonEventManager@@@2@@Z ; std::_Default_allocator_traits<std::allocator<CPythonEventManager::SEventSet *> >::max_size
PUBLIC	?max_size@?$vector@PAVCGraphicTextInstance@@V?$allocator@PAVCGraphicTextInstance@@@std@@@std@@QBEIXZ ; std::vector<CGraphicTextInstance *,std::allocator<CGraphicTextInstance *> >::max_size
PUBLIC	?_Calculate_growth@?$vector@PAVCGraphicTextInstance@@V?$allocator@PAVCGraphicTextInstance@@@std@@@std@@ABEII@Z ; std::vector<CGraphicTextInstance *,std::allocator<CGraphicTextInstance *> >::_Calculate_growth
PUBLIC	?_Change_array@?$vector@PAVCGraphicTextInstance@@V?$allocator@PAVCGraphicTextInstance@@@std@@@std@@AAEXQAPAVCGraphicTextInstance@@II@Z ; std::vector<CGraphicTextInstance *,std::allocator<CGraphicTextInstance *> >::_Change_array
PUBLIC	?_Xlength@?$vector@PAVCGraphicTextInstance@@V?$allocator@PAVCGraphicTextInstance@@@std@@@std@@CAXXZ ; std::vector<CGraphicTextInstance *,std::allocator<CGraphicTextInstance *> >::_Xlength
PUBLIC	??1_Reallocation_guard@?$vector@PAVCGraphicTextInstance@@V?$allocator@PAVCGraphicTextInstance@@@std@@@std@@QAE@XZ ; std::vector<CGraphicTextInstance *,std::allocator<CGraphicTextInstance *> >::_Reallocation_guard::~_Reallocation_guard
PUBLIC	??0?$_Alloc_construct_ptr@V?$allocator@U?$_Tree_node@U?$pair@$$CBV?$basic_string@DU?$char_traits@D@std@@V?$allocator@D@2@@std@@H@std@@PAX@std@@@std@@@std@@QAE@AAV?$allocator@U?$_Tree_node@U?$pair@$$CBV?$basic_string@DU?$char_traits@D@std@@V?$allocator@D@2@@std@@H@std@@PAX@std@@@1@@Z ; std::_Alloc_construct_ptr<std::allocator<std::_Tree_node<std::pair<std::basic_string<char,std::char_traits<char>,std::allocator<char> > const ,int>,void *> > >::_Alloc_construct_ptr<std::allocator<std::_Tree_node<std::pair<std::basic_string<char,std::char_traits<char>,std::allocator<char> > const ,int>,void *> > >
PUBLIC	?_Allocate@?$_Alloc_construct_ptr@V?$allocator@U?$_Tree_node@U?$pair@$$CBV?$basic_string@DU?$char_traits@D@std@@V?$allocator@D@2@@std@@H@std@@PAX@std@@@std@@@std@@QAEXXZ ; std::_Alloc_construct_ptr<std::allocator<std::_Tree_node<std::pair<std::basic_string<char,std::char_traits<char>,std::allocator<char> > const ,int>,void *> > >::_Allocate
PUBLIC	??0?$_Uninitialized_backout_al@V?$allocator@PAUSEventSet@CPythonEventManager@@@std@@@std@@QAE@PAPAUSEventSet@CPythonEventManager@@AAV?$allocator@PAUSEventSet@CPythonEventManager@@@1@@Z ; std::_Uninitialized_backout_al<std::allocator<CPythonEventManager::SEventSet *> >::_Uninitialized_backout_al<std::allocator<CPythonEventManager::SEventSet *> >
PUBLIC	??1?$_Uninitialized_backout_al@V?$allocator@PAUSEventSet@CPythonEventManager@@@std@@@std@@QAE@XZ ; std::_Uninitialized_backout_al<std::allocator<CPythonEventManager::SEventSet *> >::~_Uninitialized_backout_al<std::allocator<CPythonEventManager::SEventSet *> >
PUBLIC	?_Release@?$_Uninitialized_backout_al@V?$allocator@PAUSEventSet@CPythonEventManager@@@std@@@std@@QAEPAPAUSEventSet@CPythonEventManager@@XZ ; std::_Uninitialized_backout_al<std::allocator<CPythonEventManager::SEventSet *> >::_Release
PUBLIC	??$_Construct_in_place@PAU?$_Tree_node@U?$pair@$$CBV?$basic_string@DU?$char_traits@D@std@@V?$allocator@D@2@@std@@H@std@@PAX@std@@ABQAU12@@std@@YAXAAPAU?$_Tree_node@U?$pair@$$CBV?$basic_string@DU?$char_traits@D@std@@V?$allocator@D@2@@std@@H@std@@PAX@0@ABQAU10@@Z ; std::_Construct_in_place<std::_Tree_node<std::pair<std::basic_string<char,std::char_traits<char>,std::allocator<char> > const ,int>,void *> *,std::_Tree_node<std::pair<std::basic_string<char,std::char_traits<char>,std::allocator<char> > const ,int>,void *> * const &>
PUBLIC	??1?$pair@$$CBV?$basic_string@DU?$char_traits@D@std@@V?$allocator@D@2@@std@@H@std@@QAE@XZ ; std::pair<std::basic_string<char,std::char_traits<char>,std::allocator<char> > const ,int>::~pair<std::basic_string<char,std::char_traits<char>,std::allocator<char> > const ,int>
PUBLIC	??$destroy_at@U?$pair@$$CBV?$basic_string@DU?$char_traits@D@std@@V?$allocator@D@2@@std@@H@std@@@std@@YAXQAU?$pair@$$CBV?$basic_string@DU?$char_traits@D@std@@V?$allocator@D@2@@std@@H@0@@Z ; std::destroy_at<std::pair<std::basic_string<char,std::char_traits<char>,std::allocator<char> > const ,int> >
PUBLIC	??$construct_at@PAU?$_List_node@USTextLine@CPythonEventManager@@PAX@std@@ABQAU12@@std@@YAPAPAU?$_List_node@USTextLine@CPythonEventManager@@PAX@0@QAPAU10@ABQAU10@@Z ; std::construct_at<std::_List_node<CPythonEventManager::STextLine,void *> *,std::_List_node<CPythonEventManager::STextLine,void *> * const &>
PUBLIC	??$forward@ABQAU?$_List_node@USTextLine@CPythonEventManager@@PAX@std@@@std@@YAABQAU?$_List_node@USTextLine@CPythonEventManager@@PAX@0@ABQAU10@@Z ; std::forward<std::_List_node<CPythonEventManager::STextLine,void *> * const &>
PUBLIC	??$destroy@USArgumet@script@@@?$_Default_allocator_traits@V?$allocator@U?$_List_node@USArgumet@script@@PAX@std@@@std@@@std@@SAXAAV?$allocator@U?$_List_node@USArgumet@script@@PAX@std@@@1@QAUSArgumet@script@@@Z ; std::_Default_allocator_traits<std::allocator<std::_List_node<script::SArgumet,void *> > >::destroy<script::SArgumet>
PUBLIC	??$construct@PAUSEventSet@CPythonEventManager@@ABQAU12@@?$_Default_allocator_traits@V?$allocator@PAUSEventSet@CPythonEventManager@@@std@@@std@@SAXAAV?$allocator@PAUSEventSet@CPythonEventManager@@@1@QAPAUSEventSet@CPythonEventManager@@ABQAU34@@Z ; std::_Default_allocator_traits<std::allocator<CPythonEventManager::SEventSet *> >::construct<CPythonEventManager::SEventSet *,CPythonEventManager::SEventSet * const &>
PUBLIC	??$_Construct_in_place@PAUSEventSet@CPythonEventManager@@ABQAU12@@std@@YAXAAPAUSEventSet@CPythonEventManager@@ABQAU12@@Z ; std::_Construct_in_place<CPythonEventManager::SEventSet *,CPythonEventManager::SEventSet * const &>
PUBLIC	??$_Uninitialized_move@PAPAVCGraphicTextInstance@@V?$allocator@PAVCGraphicTextInstance@@@std@@@std@@YAPAPAVCGraphicTextInstance@@QAPAV1@0PAPAV1@AAV?$allocator@PAVCGraphicTextInstance@@@0@@Z ; std::_Uninitialized_move<CGraphicTextInstance * *,std::allocator<CGraphicTextInstance *> >
PUBLIC	??$_Get_unwrapped@ABQAPAVCGraphicTextInstance@@@std@@YA?A_TABQAPAVCGraphicTextInstance@@@Z ; std::_Get_unwrapped<CGraphicTextInstance * * const &>
PUBLIC	??$construct@PAVCGraphicTextInstance@@ABQAV1@@?$_Default_allocator_traits@V?$allocator@PAVCGraphicTextInstance@@@std@@@std@@SAXAAV?$allocator@PAVCGraphicTextInstance@@@1@QAPAVCGraphicTextInstance@@ABQAV3@@Z ; std::_Default_allocator_traits<std::allocator<CGraphicTextInstance *> >::construct<CGraphicTextInstance *,CGraphicTextInstance * const &>
PUBLIC	??$_Allocate_at_least_helper@V?$allocator@PAVCGraphicTextInstance@@@std@@@std@@YAPAPAVCGraphicTextInstance@@AAV?$allocator@PAVCGraphicTextInstance@@@0@AAI@Z ; std::_Allocate_at_least_helper<std::allocator<CGraphicTextInstance *> >
PUBLIC	??$_Construct_in_place@PAVCGraphicTextInstance@@ABQAV1@@std@@YAXAAPAVCGraphicTextInstance@@ABQAV1@@Z ; std::_Construct_in_place<CGraphicTextInstance *,CGraphicTextInstance * const &>
PUBLIC	??$addressof@USArgumet@script@@@std@@YAPAUSArgumet@script@@AAU12@@Z ; std::addressof<script::SArgumet>
PUBLIC	??$construct_at@USTextLine@CPythonEventManager@@ABU12@@std@@YAPAUSTextLine@CPythonEventManager@@QAU12@ABU12@@Z ; std::construct_at<CPythonEventManager::STextLine,CPythonEventManager::STextLine const &>
PUBLIC	??$destroy_at@USTextLine@CPythonEventManager@@@std@@YAXQAUSTextLine@CPythonEventManager@@@Z ; std::destroy_at<CPythonEventManager::STextLine>
PUBLIC	??$construct_at@PAU?$_Tree_node@U?$pair@$$CBV?$basic_string@DU?$char_traits@D@std@@V?$allocator@D@2@@std@@H@std@@PAX@std@@AAPAU12@@std@@YAPAPAU?$_Tree_node@U?$pair@$$CBV?$basic_string@DU?$char_traits@D@std@@V?$allocator@D@2@@std@@H@std@@PAX@0@QAPAU10@AAPAU10@@Z ; std::construct_at<std::_Tree_node<std::pair<std::basic_string<char,std::char_traits<char>,std::allocator<char> > const ,int>,void *> *,std::_Tree_node<std::pair<std::basic_string<char,std::char_traits<char>,std::allocator<char> > const ,int>,void *> * &>
PUBLIC	??$forward@AAPAU?$_Tree_node@U?$pair@$$CBV?$basic_string@DU?$char_traits@D@std@@V?$allocator@D@2@@std@@H@std@@PAX@std@@@std@@YAAAPAU?$_Tree_node@U?$pair@$$CBV?$basic_string@DU?$char_traits@D@std@@V?$allocator@D@2@@std@@H@std@@PAX@0@AAPAU10@@Z ; std::forward<std::_Tree_node<std::pair<std::basic_string<char,std::char_traits<char>,std::allocator<char> > const ,int>,void *> * &>
PUBLIC	??$addressof@PAU?$_Tree_node@U?$pair@$$CBV?$basic_string@DU?$char_traits@D@std@@V?$allocator@D@2@@std@@H@std@@PAX@std@@@std@@YAPAPAU?$_Tree_node@U?$pair@$$CBV?$basic_string@DU?$char_traits@D@std@@V?$allocator@D@2@@std@@H@std@@PAX@0@AAPAU10@@Z ; std::addressof<std::_Tree_node<std::pair<std::basic_string<char,std::char_traits<char>,std::allocator<char> > const ,int>,void *> *>
PUBLIC	??$construct_at@U?$pair@$$CBV?$basic_string@DU?$char_traits@D@std@@V?$allocator@D@2@@std@@H@std@@ABUpiecewise_construct_t@2@V?$tuple@$$QAV?$basic_string@DU?$char_traits@D@std@@V?$allocator@D@2@@std@@@2@V?$tuple@$$V@2@@std@@YAPAU?$pair@$$CBV?$basic_string@DU?$char_traits@D@std@@V?$allocator@D@2@@std@@H@0@QAU10@ABUpiecewise_construct_t@0@$$QAV?$tuple@$$QAV?$basic_string@DU?$char_traits@D@std@@V?$allocator@D@2@@std@@@0@$$QAV?$tuple@$$V@0@@Z ; std::construct_at<std::pair<std::basic_string<char,std::char_traits<char>,std::allocator<char> > const ,int>,std::piecewise_construct_t const &,std::tuple<std::basic_string<char,std::char_traits<char>,std::allocator<char> > &&>,std::tuple<> >
PUBLIC	??$?0U_Exact_args_t@std@@V?$basic_string@DU?$char_traits@D@std@@V?$allocator@D@2@@1@$$V$0A@@?$tuple@$$QAV?$basic_string@DU?$char_traits@D@std@@V?$allocator@D@2@@std@@@std@@QAE@U_Exact_args_t@1@$$QAV?$basic_string@DU?$char_traits@D@std@@V?$allocator@D@2@@1@@Z ; std::tuple<std::basic_string<char,std::char_traits<char>,std::allocator<char> > &&>::tuple<std::basic_string<char,std::char_traits<char>,std::allocator<char> > &&><std::_Exact_args_t,std::basic_string<char,std::char_traits<char>,std::allocator<char> >,0>
PUBLIC	??$_Emplace_back@PAUSEventSet@CPythonEventManager@@@?$_Uninitialized_backout_al@V?$allocator@PAUSEventSet@CPythonEventManager@@@std@@@std@@QAEX$$QAPAUSEventSet@CPythonEventManager@@@Z ; std::_Uninitialized_backout_al<std::allocator<CPythonEventManager::SEventSet *> >::_Emplace_back<CPythonEventManager::SEventSet *>
PUBLIC	??$_To_address@PAPAUSEventSet@CPythonEventManager@@@std@@YA?A_PABQAPAUSEventSet@CPythonEventManager@@@Z ; std::_To_address<CPythonEventManager::SEventSet * *>
PUBLIC	??$_Copy_memmove@PAPAUSEventSet@CPythonEventManager@@PAPAU12@@std@@YAPAPAUSEventSet@CPythonEventManager@@PAPAU12@00@Z ; std::_Copy_memmove<CPythonEventManager::SEventSet * *,CPythonEventManager::SEventSet * *>
PUBLIC	??$construct_at@PAUSEventSet@CPythonEventManager@@PAU12@@std@@YAPAPAUSEventSet@CPythonEventManager@@QAPAU12@$$QAPAU12@@Z ; std::construct_at<CPythonEventManager::SEventSet *,CPythonEventManager::SEventSet *>
PUBLIC	??$addressof@PAUSEventSet@CPythonEventManager@@@std@@YAPAPAUSEventSet@CPythonEventManager@@AAPAU12@@Z ; std::addressof<CPythonEventManager::SEventSet *>
PUBLIC	?deallocate@?$_Default_allocator_traits@V?$allocator@U?$_List_node@USArgumet@script@@PAX@std@@@std@@@std@@SAXAAV?$allocator@U?$_List_node@USArgumet@script@@PAX@std@@@2@QAU?$_List_node@USArgumet@script@@PAX@2@I@Z ; std::_Default_allocator_traits<std::allocator<std::_List_node<script::SArgumet,void *> > >::deallocate
PUBLIC	?_Getal@?$list@USTextLine@CPythonEventManager@@V?$allocator@USTextLine@CPythonEventManager@@@std@@@std@@ABEABV?$allocator@U?$_List_node@USTextLine@CPythonEventManager@@PAX@std@@@2@XZ ; std::list<CPythonEventManager::STextLine,std::allocator<CPythonEventManager::STextLine> >::_Getal
PUBLIC	?max_size@?$_Tree@V?$_Tmap_traits@V?$basic_string@DU?$char_traits@D@std@@V?$allocator@D@2@@std@@HU?$less@V?$basic_string@DU?$char_traits@D@std@@V?$allocator@D@2@@std@@@2@V?$allocator@U?$pair@$$CBV?$basic_string@DU?$char_traits@D@std@@V?$allocator@D@2@@std@@H@std@@@2@$0A@@std@@@std@@QBEIXZ ; std::_Tree<std::_Tmap_traits<std::basic_string<char,std::char_traits<char>,std::allocator<char> >,int,std::less<std::basic_string<char,std::char_traits<char>,std::allocator<char> > >,std::allocator<std::pair<std::basic_string<char,std::char_traits<char>,std::allocator<char> > const ,int> >,0> >::max_size
PUBLIC	?_Getcomp@?$_Tree@V?$_Tmap_traits@V?$basic_string@DU?$char_traits@D@std@@V?$allocator@D@2@@std@@HU?$less@V?$basic_string@DU?$char_traits@D@std@@V?$allocator@D@2@@std@@@2@V?$allocator@U?$pair@$$CBV?$basic_string@DU?$char_traits@D@std@@V?$allocator@D@2@@std@@H@std@@@2@$0A@@std@@@std@@IBEABU?$less@V?$basic_string@DU?$char_traits@D@std@@V?$allocator@D@2@@std@@@2@XZ ; std::_Tree<std::_Tmap_traits<std::basic_string<char,std::char_traits<char>,std::allocator<char> >,int,std::less<std::basic_string<char,std::char_traits<char>,std::allocator<char> > >,std::allocator<std::pair<std::basic_string<char,std::char_traits<char>,std::allocator<char> > const ,int> >,0> >::_Getcomp
PUBLIC	?deallocate@?$_Default_allocator_traits@V?$allocator@U?$_Tree_node@U?$pair@$$CBV?$basic_string@DU?$char_traits@D@std@@V?$allocator@D@2@@std@@H@std@@PAX@std@@@std@@@std@@SAXAAV?$allocator@U?$_Tree_node@U?$pair@$$CBV?$basic_string@DU?$char_traits@D@std@@V?$allocator@D@2@@std@@H@std@@PAX@std@@@2@QAU?$_Tree_node@U?$pair@$$CBV?$basic_string@DU?$char_traits@D@std@@V?$allocator@D@2@@std@@H@std@@PAX@2@I@Z ; std::_Default_allocator_traits<std::allocator<std::_Tree_node<std::pair<std::basic_string<char,std::char_traits<char>,std::allocator<char> > const ,int>,void *> > >::deallocate
PUBLIC	?_Lrotate@?$_Tree_val@U?$_Tree_simple_types@U?$pair@$$CBV?$basic_string@DU?$char_traits@D@std@@V?$allocator@D@2@@std@@H@std@@@std@@@std@@QAEXPAU?$_Tree_node@U?$pair@$$CBV?$basic_string@DU?$char_traits@D@std@@V?$allocator@D@2@@std@@H@std@@PAX@2@@Z ; std::_Tree_val<std::_Tree_simple_types<std::pair<std::basic_string<char,std::char_traits<char>,std::allocator<char> > const ,int> > >::_Lrotate
PUBLIC	?_Rrotate@?$_Tree_val@U?$_Tree_simple_types@U?$pair@$$CBV?$basic_string@DU?$char_traits@D@std@@V?$allocator@D@2@@std@@H@std@@@std@@@std@@QAEXPAU?$_Tree_node@U?$pair@$$CBV?$basic_string@DU?$char_traits@D@std@@V?$allocator@D@2@@std@@H@std@@PAX@2@@Z ; std::_Tree_val<std::_Tree_simple_types<std::pair<std::basic_string<char,std::char_traits<char>,std::allocator<char> > const ,int> > >::_Rrotate
PUBLIC	?deallocate@?$_Default_allocator_traits@V?$allocator@U?$_List_node@USTextLine@CPythonEventManager@@PAX@std@@@std@@@std@@SAXAAV?$allocator@U?$_List_node@USTextLine@CPythonEventManager@@PAX@std@@@2@QAU?$_List_node@USTextLine@CPythonEventManager@@PAX@2@I@Z ; std::_Default_allocator_traits<std::allocator<std::_List_node<CPythonEventManager::STextLine,void *> > >::deallocate
PUBLIC	?max_size@?$_Default_allocator_traits@V?$allocator@U?$_List_node@USTextLine@CPythonEventManager@@PAX@std@@@std@@@std@@SAIABV?$allocator@U?$_List_node@USTextLine@CPythonEventManager@@PAX@std@@@2@@Z ; std::_Default_allocator_traits<std::allocator<std::_List_node<CPythonEventManager::STextLine,void *> > >::max_size
PUBLIC	?max_size@?$vector@PAUSEventSet@CPythonEventManager@@V?$allocator@PAUSEventSet@CPythonEventManager@@@std@@@std@@QBEIXZ ; std::vector<CPythonEventManager::SEventSet *,std::allocator<CPythonEventManager::SEventSet *> >::max_size
PUBLIC	?_Calculate_growth@?$vector@PAUSEventSet@CPythonEventManager@@V?$allocator@PAUSEventSet@CPythonEventManager@@@std@@@std@@ABEII@Z ; std::vector<CPythonEventManager::SEventSet *,std::allocator<CPythonEventManager::SEventSet *> >::_Calculate_growth
PUBLIC	?_Change_array@?$vector@PAUSEventSet@CPythonEventManager@@V?$allocator@PAUSEventSet@CPythonEventManager@@@std@@@std@@AAEXQAPAUSEventSet@CPythonEventManager@@II@Z ; std::vector<CPythonEventManager::SEventSet *,std::allocator<CPythonEventManager::SEventSet *> >::_Change_array
PUBLIC	?_Xlength@?$vector@PAUSEventSet@CPythonEventManager@@V?$allocator@PAUSEventSet@CPythonEventManager@@@std@@@std@@CAXXZ ; std::vector<CPythonEventManager::SEventSet *,std::allocator<CPythonEventManager::SEventSet *> >::_Xlength
PUBLIC	??1_Reallocation_guard@?$vector@PAUSEventSet@CPythonEventManager@@V?$allocator@PAUSEventSet@CPythonEventManager@@@std@@@std@@QAE@XZ ; std::vector<CPythonEventManager::SEventSet *,std::allocator<CPythonEventManager::SEventSet *> >::_Reallocation_guard::~_Reallocation_guard
PUBLIC	??0?$allocator@PAVCGraphicTextInstance@@@std@@QAE@XZ ; std::allocator<CGraphicTextInstance *>::allocator<CGraphicTextInstance *>
PUBLIC	?deallocate@?$allocator@PAVCGraphicTextInstance@@@std@@QAEXQAPAVCGraphicTextInstance@@I@Z ; std::allocator<CGraphicTextInstance *>::deallocate
PUBLIC	??0?$_Vector_val@U?$_Simple_types@PAVCGraphicTextInstance@@@std@@@std@@QAE@XZ ; std::_Vector_val<std::_Simple_types<CGraphicTextInstance *> >::_Vector_val<std::_Simple_types<CGraphicTextInstance *> >
PUBLIC	?_Get_first@?$_Compressed_pair@V?$allocator@PAVCGraphicTextInstance@@@std@@V?$_Vector_val@U?$_Simple_types@PAVCGraphicTextInstance@@@std@@@2@$00@std@@QAEAAV?$allocator@PAVCGraphicTextInstance@@@2@XZ ; std::_Compressed_pair<std::allocator<CGraphicTextInstance *>,std::_Vector_val<std::_Simple_types<CGraphicTextInstance *> >,1>::_Get_first
PUBLIC	??0?$_Tree_temp_node_alloc@V?$allocator@U?$_Tree_node@U?$pair@$$CBV?$basic_string@DU?$char_traits@D@std@@V?$allocator@D@2@@std@@H@std@@PAX@std@@@std@@@std@@QAE@AAV?$allocator@U?$_Tree_node@U?$pair@$$CBV?$basic_string@DU?$char_traits@D@std@@V?$allocator@D@2@@std@@H@std@@PAX@std@@@1@@Z ; std::_Tree_temp_node_alloc<std::allocator<std::_Tree_node<std::pair<std::basic_string<char,std::char_traits<char>,std::allocator<char> > const ,int>,void *> > >::_Tree_temp_node_alloc<std::allocator<std::_Tree_node<std::pair<std::basic_string<char,std::char_traits<char>,std::allocator<char> > const ,int>,void *> > >
PUBLIC	??1?$_Alloc_construct_ptr@V?$allocator@U?$_Tree_node@U?$pair@$$CBV?$basic_string@DU?$char_traits@D@std@@V?$allocator@D@2@@std@@H@std@@PAX@std@@@std@@@std@@QAE@XZ ; std::_Alloc_construct_ptr<std::allocator<std::_Tree_node<std::pair<std::basic_string<char,std::char_traits<char>,std::allocator<char> > const ,int>,void *> > >::~_Alloc_construct_ptr<std::allocator<std::_Tree_node<std::pair<std::basic_string<char,std::char_traits<char>,std::allocator<char> > const ,int>,void *> > >
PUBLIC	??0?$_Alloc_construct_ptr@V?$allocator@U?$_List_node@USTextLine@CPythonEventManager@@PAX@std@@@std@@@std@@QAE@AAV?$allocator@U?$_List_node@USTextLine@CPythonEventManager@@PAX@std@@@1@@Z ; std::_Alloc_construct_ptr<std::allocator<std::_List_node<CPythonEventManager::STextLine,void *> > >::_Alloc_construct_ptr<std::allocator<std::_List_node<CPythonEventManager::STextLine,void *> > >
PUBLIC	?_Allocate@?$_Alloc_construct_ptr@V?$allocator@U?$_List_node@USTextLine@CPythonEventManager@@PAX@std@@@std@@@std@@QAEXXZ ; std::_Alloc_construct_ptr<std::allocator<std::_List_node<CPythonEventManager::STextLine,void *> > >::_Allocate
PUBLIC	??1?$_Alloc_construct_ptr@V?$allocator@U?$_List_node@USTextLine@CPythonEventManager@@PAX@std@@@std@@@std@@QAE@XZ ; std::_Alloc_construct_ptr<std::allocator<std::_List_node<CPythonEventManager::STextLine,void *> > >::~_Alloc_construct_ptr<std::allocator<std::_List_node<CPythonEventManager::STextLine,void *> > >
PUBLIC	??$_Get_size_of_n@$0DI@@std@@YAII@Z		; std::_Get_size_of_n<56>
PUBLIC	??$_Buyheadnode@V?$allocator@U?$_Tree_node@U?$pair@$$CBV?$basic_string@DU?$char_traits@D@std@@V?$allocator@D@2@@std@@H@std@@PAX@std@@@std@@@?$_Tree_node@U?$pair@$$CBV?$basic_string@DU?$char_traits@D@std@@V?$allocator@D@2@@std@@H@std@@PAX@std@@SAPAU01@AAV?$allocator@U?$_Tree_node@U?$pair@$$CBV?$basic_string@DU?$char_traits@D@std@@V?$allocator@D@2@@std@@H@std@@PAX@std@@@1@@Z ; std::_Tree_node<std::pair<std::basic_string<char,std::char_traits<char>,std::allocator<char> > const ,int>,void *>::_Buyheadnode<std::allocator<std::_Tree_node<std::pair<std::basic_string<char,std::char_traits<char>,std::allocator<char> > const ,int>,void *> > >
PUBLIC	??$addressof@$$CBV?$_Tree_val@U?$_Tree_simple_types@U?$pair@$$CBV?$basic_string@DU?$char_traits@D@std@@V?$allocator@D@2@@std@@H@std@@@std@@@std@@@std@@YAPBV?$_Tree_val@U?$_Tree_simple_types@U?$pair@$$CBV?$basic_string@DU?$char_traits@D@std@@V?$allocator@D@2@@std@@H@std@@@std@@@0@ABV10@@Z ; std::addressof<std::_Tree_val<std::_Tree_simple_types<std::pair<std::basic_string<char,std::char_traits<char>,std::allocator<char> > const ,int> > > const >
PUBLIC	??$_Unfancy_maybe_null@PAUSEventSet@CPythonEventManager@@@std@@YAPAPAUSEventSet@CPythonEventManager@@PAPAU12@@Z ; std::_Unfancy_maybe_null<CPythonEventManager::SEventSet *>
PUBLIC	??$_Unfancy_maybe_null@PAVCGraphicTextInstance@@@std@@YAPAPAVCGraphicTextInstance@@PAPAV1@@Z ; std::_Unfancy_maybe_null<CGraphicTextInstance *>
PUBLIC	??$_Destroy_range@V?$allocator@PAVCGraphicTextInstance@@@std@@@std@@YAXPAPAVCGraphicTextInstance@@QAPAV1@AAV?$allocator@PAVCGraphicTextInstance@@@0@@Z ; std::_Destroy_range<std::allocator<CGraphicTextInstance *> >
PUBLIC	??$destroy@U?$pair@$$CBV?$basic_string@DU?$char_traits@D@std@@V?$allocator@D@2@@std@@H@std@@@?$_Default_allocator_traits@V?$allocator@U?$_Tree_node@U?$pair@$$CBV?$basic_string@DU?$char_traits@D@std@@V?$allocator@D@2@@std@@H@std@@PAX@std@@@std@@@std@@SAXAAV?$allocator@U?$_Tree_node@U?$pair@$$CBV?$basic_string@DU?$char_traits@D@std@@V?$allocator@D@2@@std@@H@std@@PAX@std@@@1@QAU?$pair@$$CBV?$basic_string@DU?$char_traits@D@std@@V?$allocator@D@2@@std@@H@1@@Z ; std::_Default_allocator_traits<std::allocator<std::_Tree_node<std::pair<std::basic_string<char,std::char_traits<char>,std::allocator<char> > const ,int>,void *> > >::destroy<std::pair<std::basic_string<char,std::char_traits<char>,std::allocator<char> > const ,int> >
PUBLIC	??$exchange@PAU?$_Tree_node@U?$pair@$$CBV?$basic_string@DU?$char_traits@D@std@@V?$allocator@D@2@@std@@H@std@@PAX@std@@$$T@std@@YAPAU?$_Tree_node@U?$pair@$$CBV?$basic_string@DU?$char_traits@D@std@@V?$allocator@D@2@@std@@H@std@@PAX@0@AAPAU10@$$QA$$T@Z ; std::exchange<std::_Tree_node<std::pair<std::basic_string<char,std::char_traits<char>,std::allocator<char> > const ,int>,void *> *,std::nullptr_t>
PUBLIC	??$_Construct_in_place@PAU?$_List_node@USTextLine@CPythonEventManager@@PAX@std@@ABQAU12@@std@@YAXAAPAU?$_List_node@USTextLine@CPythonEventManager@@PAX@0@ABQAU10@@Z ; std::_Construct_in_place<std::_List_node<CPythonEventManager::STextLine,void *> *,std::_List_node<CPythonEventManager::STextLine,void *> * const &>
PUBLIC	??$_Destroy_in_place@PAU?$_List_node@USArgumet@script@@PAX@std@@@std@@YAXAAPAU?$_List_node@USArgumet@script@@PAX@0@@Z ; std::_Destroy_in_place<std::_List_node<script::SArgumet,void *> *>
PUBLIC	??$_Freenode@V?$allocator@U?$_List_node@USArgumet@script@@PAX@std@@@std@@@?$_List_node@USArgumet@script@@PAX@std@@SAXAAV?$allocator@U?$_List_node@USArgumet@script@@PAX@std@@@1@PAU01@@Z ; std::_List_node<script::SArgumet,void *>::_Freenode<std::allocator<std::_List_node<script::SArgumet,void *> > >
PUBLIC	??$construct_at@PAU?$_List_node@USArgumet@script@@PAX@std@@AAPAU12@@std@@YAPAPAU?$_List_node@USArgumet@script@@PAX@0@QAPAU10@AAPAU10@@Z ; std::construct_at<std::_List_node<script::SArgumet,void *> *,std::_List_node<script::SArgumet,void *> * &>
PUBLIC	??$forward@AAPAU?$_List_node@USArgumet@script@@PAX@std@@@std@@YAAAPAU?$_List_node@USArgumet@script@@PAX@0@AAPAU10@@Z ; std::forward<std::_List_node<script::SArgumet,void *> * &>
PUBLIC	??$addressof@PAU?$_List_node@USArgumet@script@@PAX@std@@@std@@YAPAPAU?$_List_node@USArgumet@script@@PAX@0@AAPAU10@@Z ; std::addressof<std::_List_node<script::SArgumet,void *> *>
PUBLIC	??$_Destroy_in_place@PAU?$_List_node@USTextLine@CPythonEventManager@@PAX@std@@@std@@YAXAAPAU?$_List_node@USTextLine@CPythonEventManager@@PAX@0@@Z ; std::_Destroy_in_place<std::_List_node<CPythonEventManager::STextLine,void *> *>
PUBLIC	??$construct_at@PAU?$_List_node@USTextLine@CPythonEventManager@@PAX@std@@AAPAU12@@std@@YAPAPAU?$_List_node@USTextLine@CPythonEventManager@@PAX@0@QAPAU10@AAPAU10@@Z ; std::construct_at<std::_List_node<CPythonEventManager::STextLine,void *> *,std::_List_node<CPythonEventManager::STextLine,void *> * &>
PUBLIC	??$forward@AAPAU?$_List_node@USTextLine@CPythonEventManager@@PAX@std@@@std@@YAAAPAU?$_List_node@USTextLine@CPythonEventManager@@PAX@0@AAPAU10@@Z ; std::forward<std::_List_node<CPythonEventManager::STextLine,void *> * &>
PUBLIC	??$addressof@PAU?$_List_node@USTextLine@CPythonEventManager@@PAX@std@@@std@@YAPAPAU?$_List_node@USTextLine@CPythonEventManager@@PAX@0@AAPAU10@@Z ; std::addressof<std::_List_node<CPythonEventManager::STextLine,void *> *>
PUBLIC	??$_Emplace_reallocate@ABQAUSEventSet@CPythonEventManager@@@?$vector@PAUSEventSet@CPythonEventManager@@V?$allocator@PAUSEventSet@CPythonEventManager@@@std@@@std@@AAEPAPAUSEventSet@CPythonEventManager@@QAPAU23@ABQAU23@@Z ; std::vector<CPythonEventManager::SEventSet *,std::allocator<CPythonEventManager::SEventSet *> >::_Emplace_reallocate<CPythonEventManager::SEventSet * const &>
PUBLIC	??$_Emplace_back_with_unused_capacity@ABQAUSEventSet@CPythonEventManager@@@?$vector@PAUSEventSet@CPythonEventManager@@V?$allocator@PAUSEventSet@CPythonEventManager@@@std@@@std@@AAEAAPAUSEventSet@CPythonEventManager@@ABQAU23@@Z ; std::vector<CPythonEventManager::SEventSet *,std::allocator<CPythonEventManager::SEventSet *> >::_Emplace_back_with_unused_capacity<CPythonEventManager::SEventSet * const &>
PUBLIC	??$forward@ABQAUSEventSet@CPythonEventManager@@@std@@YAABQAUSEventSet@CPythonEventManager@@ABQAU12@@Z ; std::forward<CPythonEventManager::SEventSet * const &>
PUBLIC	??$destroy_at@PAUSEventSet@CPythonEventManager@@@std@@YAXQAPAUSEventSet@CPythonEventManager@@@Z ; std::destroy_at<CPythonEventManager::SEventSet *>
PUBLIC	??$_Emplace_reallocate@ABQAVCGraphicTextInstance@@@?$vector@PAVCGraphicTextInstance@@V?$allocator@PAVCGraphicTextInstance@@@std@@@std@@AAEPAPAVCGraphicTextInstance@@QAPAV2@ABQAV2@@Z ; std::vector<CGraphicTextInstance *,std::allocator<CGraphicTextInstance *> >::_Emplace_reallocate<CGraphicTextInstance * const &>
PUBLIC	??$_Emplace_back_with_unused_capacity@ABQAVCGraphicTextInstance@@@?$vector@PAVCGraphicTextInstance@@V?$allocator@PAVCGraphicTextInstance@@@std@@@std@@AAEAAPAVCGraphicTextInstance@@ABQAV2@@Z ; std::vector<CGraphicTextInstance *,std::allocator<CGraphicTextInstance *> >::_Emplace_back_with_unused_capacity<CGraphicTextInstance * const &>
PUBLIC	??$forward@ABQAVCGraphicTextInstance@@@std@@YAABQAVCGraphicTextInstance@@ABQAV1@@Z ; std::forward<CGraphicTextInstance * const &>
PUBLIC	??$destroy_at@PAVCGraphicTextInstance@@@std@@YAXQAPAVCGraphicTextInstance@@@Z ; std::destroy_at<CGraphicTextInstance *>
PUBLIC	??$construct@USTextLine@CPythonEventManager@@ABU12@@?$_Default_allocator_traits@V?$allocator@U?$_List_node@USTextLine@CPythonEventManager@@PAX@std@@@std@@@std@@SAXAAV?$allocator@U?$_List_node@USTextLine@CPythonEventManager@@PAX@std@@@1@QAUSTextLine@CPythonEventManager@@ABU34@@Z ; std::_Default_allocator_traits<std::allocator<std::_List_node<CPythonEventManager::STextLine,void *> > >::construct<CPythonEventManager::STextLine,CPythonEventManager::STextLine const &>
PUBLIC	??$destroy@USTextLine@CPythonEventManager@@@?$_Default_allocator_traits@V?$allocator@U?$_List_node@USTextLine@CPythonEventManager@@PAX@std@@@std@@@std@@SAXAAV?$allocator@U?$_List_node@USTextLine@CPythonEventManager@@PAX@std@@@1@QAUSTextLine@CPythonEventManager@@@Z ; std::_Default_allocator_traits<std::allocator<std::_List_node<CPythonEventManager::STextLine,void *> > >::destroy<CPythonEventManager::STextLine>
PUBLIC	??$addressof@USTextLine@CPythonEventManager@@@std@@YAPAUSTextLine@CPythonEventManager@@AAU12@@Z ; std::addressof<CPythonEventManager::STextLine>
PUBLIC	??$forward@PAU?$_Tree_node@U?$pair@$$CBV?$basic_string@DU?$char_traits@D@std@@V?$allocator@D@2@@std@@H@std@@PAX@std@@@std@@YA$$QAPAU?$_Tree_node@U?$pair@$$CBV?$basic_string@DU?$char_traits@D@std@@V?$allocator@D@2@@std@@H@std@@PAX@0@AAPAU10@@Z ; std::forward<std::_Tree_node<std::pair<std::basic_string<char,std::char_traits<char>,std::allocator<char> > const ,int>,void *> *>
PUBLIC	??$forward@ABQAU?$_Tree_node@U?$pair@$$CBV?$basic_string@DU?$char_traits@D@std@@V?$allocator@D@2@@std@@H@std@@PAX@std@@@std@@YAABQAU?$_Tree_node@U?$pair@$$CBV?$basic_string@DU?$char_traits@D@std@@V?$allocator@D@2@@std@@H@std@@PAX@0@ABQAU10@@Z ; std::forward<std::_Tree_node<std::pair<std::basic_string<char,std::char_traits<char>,std::allocator<char> > const ,int>,void *> * const &>
PUBLIC	??$_Construct_in_place@PAU?$_Tree_node@U?$pair@$$CBV?$basic_string@DU?$char_traits@D@std@@V?$allocator@D@2@@std@@H@std@@PAX@std@@AAPAU12@@std@@YAXAAPAU?$_Tree_node@U?$pair@$$CBV?$basic_string@DU?$char_traits@D@std@@V?$allocator@D@2@@std@@H@std@@PAX@0@0@Z ; std::_Construct_in_place<std::_Tree_node<std::pair<std::basic_string<char,std::char_traits<char>,std::allocator<char> > const ,int>,void *> *,std::_Tree_node<std::pair<std::basic_string<char,std::char_traits<char>,std::allocator<char> > const ,int>,void *> * &>
PUBLIC	??$construct@U?$pair@$$CBV?$basic_string@DU?$char_traits@D@std@@V?$allocator@D@2@@std@@H@std@@ABUpiecewise_construct_t@2@V?$tuple@$$QAV?$basic_string@DU?$char_traits@D@std@@V?$allocator@D@2@@std@@@2@V?$tuple@$$V@2@@?$_Default_allocator_traits@V?$allocator@U?$_Tree_node@U?$pair@$$CBV?$basic_string@DU?$char_traits@D@std@@V?$allocator@D@2@@std@@H@std@@PAX@std@@@std@@@std@@SAXAAV?$allocator@U?$_Tree_node@U?$pair@$$CBV?$basic_string@DU?$char_traits@D@std@@V?$allocator@D@2@@std@@H@std@@PAX@std@@@1@QAU?$pair@$$CBV?$basic_string@DU?$char_traits@D@std@@V?$allocator@D@2@@std@@H@1@ABUpiecewise_construct_t@1@$$QAV?$tuple@$$QAV?$basic_string@DU?$char_traits@D@std@@V?$allocator@D@2@@std@@@1@$$QAV?$tuple@$$V@1@@Z ; std::_Default_allocator_traits<std::allocator<std::_Tree_node<std::pair<std::basic_string<char,std::char_traits<char>,std::allocator<char> > const ,int>,void *> > >::construct<std::pair<std::basic_string<char,std::char_traits<char>,std::allocator<char> > const ,int>,std::piecewise_construct_t const &,std::tuple<std::basic_string<char,std::char_traits<char>,std::allocator<char> > &&>,std::tuple<> >
PUBLIC	??$forward@V?$tuple@$$QAV?$basic_string@DU?$char_traits@D@std@@V?$allocator@D@2@@std@@@std@@@std@@YA$$QAV?$tuple@$$QAV?$basic_string@DU?$char_traits@D@std@@V?$allocator@D@2@@std@@@0@AAV10@@Z ; std::forward<std::tuple<std::basic_string<char,std::char_traits<char>,std::allocator<char> > &&> >
PUBLIC	??$?0V?$basic_string@DU?$char_traits@D@std@@V?$allocator@D@2@@std@@$$V$0A@@?$tuple@$$QAV?$basic_string@DU?$char_traits@D@std@@V?$allocator@D@2@@std@@@std@@QAE@$$QAV?$basic_string@DU?$char_traits@D@std@@V?$allocator@D@2@@1@@Z ; std::tuple<std::basic_string<char,std::char_traits<char>,std::allocator<char> > &&>::tuple<std::basic_string<char,std::char_traits<char>,std::allocator<char> > &&><std::basic_string<char,std::char_traits<char>,std::allocator<char> >,0>
PUBLIC	??$_Destroy_in_place@PAU?$_Tree_node@U?$pair@$$CBV?$basic_string@DU?$char_traits@D@std@@V?$allocator@D@2@@std@@H@std@@PAX@std@@@std@@YAXAAPAU?$_Tree_node@U?$pair@$$CBV?$basic_string@DU?$char_traits@D@std@@V?$allocator@D@2@@std@@H@std@@PAX@0@@Z ; std::_Destroy_in_place<std::_Tree_node<std::pair<std::basic_string<char,std::char_traits<char>,std::allocator<char> > const ,int>,void *> *>
PUBLIC	??$_Freenode@V?$allocator@U?$_Tree_node@U?$pair@$$CBV?$basic_string@DU?$char_traits@D@std@@V?$allocator@D@2@@std@@H@std@@PAX@std@@@std@@@?$_Tree_node@U?$pair@$$CBV?$basic_string@DU?$char_traits@D@std@@V?$allocator@D@2@@std@@H@std@@PAX@std@@SAXAAV?$allocator@U?$_Tree_node@U?$pair@$$CBV?$basic_string@DU?$char_traits@D@std@@V?$allocator@D@2@@std@@H@std@@PAX@std@@@1@PAU01@@Z ; std::_Tree_node<std::pair<std::basic_string<char,std::char_traits<char>,std::allocator<char> > const ,int>,void *>::_Freenode<std::allocator<std::_Tree_node<std::pair<std::basic_string<char,std::char_traits<char>,std::allocator<char> > const ,int>,void *> > >
PUBLIC	??$exchange@PAU?$_Tree_node@U?$pair@$$CBV?$basic_string@DU?$char_traits@D@std@@V?$allocator@D@2@@std@@H@std@@PAX@std@@AAPAU12@@std@@YAPAU?$_Tree_node@U?$pair@$$CBV?$basic_string@DU?$char_traits@D@std@@V?$allocator@D@2@@std@@H@std@@PAX@0@AAPAU10@0@Z ; std::exchange<std::_Tree_node<std::pair<std::basic_string<char,std::char_traits<char>,std::allocator<char> > const ,int>,void *> *,std::_Tree_node<std::pair<std::basic_string<char,std::char_traits<char>,std::allocator<char> > const ,int>,void *> * &>
PUBLIC	??$_Kfn@$$CBV?$basic_string@DU?$char_traits@D@std@@V?$allocator@D@2@@std@@H@?$_Tmap_traits@V?$basic_string@DU?$char_traits@D@std@@V?$allocator@D@2@@std@@HU?$less@V?$basic_string@DU?$char_traits@D@std@@V?$allocator@D@2@@std@@@2@V?$allocator@U?$pair@$$CBV?$basic_string@DU?$char_traits@D@std@@V?$allocator@D@2@@std@@H@std@@@2@$0A@@std@@SAABV?$basic_string@DU?$char_traits@D@std@@V?$allocator@D@2@@1@ABU?$pair@$$CBV?$basic_string@DU?$char_traits@D@std@@V?$allocator@D@2@@std@@H@1@@Z ; std::_Tmap_traits<std::basic_string<char,std::char_traits<char>,std::allocator<char> >,int,std::less<std::basic_string<char,std::char_traits<char>,std::allocator<char> > >,std::allocator<std::pair<std::basic_string<char,std::char_traits<char>,std::allocator<char> > const ,int> >,0>::_Kfn<std::basic_string<char,std::char_traits<char>,std::allocator<char> > const ,int>
PUBLIC	??$_Uninitialized_move@PAPAUSEventSet@CPythonEventManager@@V?$allocator@PAUSEventSet@CPythonEventManager@@@std@@@std@@YAPAPAUSEventSet@CPythonEventManager@@QAPAU12@0PAPAU12@AAV?$allocator@PAUSEventSet@CPythonEventManager@@@0@@Z ; std::_Uninitialized_move<CPythonEventManager::SEventSet * *,std::allocator<CPythonEventManager::SEventSet *> >
PUBLIC	??$_Get_unwrapped@ABQAPAUSEventSet@CPythonEventManager@@@std@@YA?A_TABQAPAUSEventSet@CPythonEventManager@@@Z ; std::_Get_unwrapped<CPythonEventManager::SEventSet * * const &>
PUBLIC	??$construct@PAUSEventSet@CPythonEventManager@@PAU12@@?$_Default_allocator_traits@V?$allocator@PAUSEventSet@CPythonEventManager@@@std@@@std@@SAXAAV?$allocator@PAUSEventSet@CPythonEventManager@@@1@QAPAUSEventSet@CPythonEventManager@@$$QAPAU34@@Z ; std::_Default_allocator_traits<std::allocator<CPythonEventManager::SEventSet *> >::construct<CPythonEventManager::SEventSet *,CPythonEventManager::SEventSet *>
PUBLIC	??$_Allocate_at_least_helper@V?$allocator@PAUSEventSet@CPythonEventManager@@@std@@@std@@YAPAPAUSEventSet@CPythonEventManager@@AAV?$allocator@PAUSEventSet@CPythonEventManager@@@0@AAI@Z ; std::_Allocate_at_least_helper<std::allocator<CPythonEventManager::SEventSet *> >
PUBLIC	??$_Construct_in_place@PAUSEventSet@CPythonEventManager@@PAU12@@std@@YAXAAPAUSEventSet@CPythonEventManager@@$$QAPAU12@@Z ; std::_Construct_in_place<CPythonEventManager::SEventSet *,CPythonEventManager::SEventSet *>
PUBLIC	??$?0$$V@?$_Compressed_pair@V?$allocator@U?$_Tree_node@U?$pair@$$CBV?$basic_string@DU?$char_traits@D@std@@V?$allocator@D@2@@std@@H@std@@PAX@std@@@std@@V?$_Tree_val@U?$_Tree_simple_types@U?$pair@$$CBV?$basic_string@DU?$char_traits@D@std@@V?$allocator@D@2@@std@@H@std@@@std@@@2@$00@std@@QAE@U_Zero_then_variadic_args_t@1@@Z ; std::_Compressed_pair<std::allocator<std::_Tree_node<std::pair<std::basic_string<char,std::char_traits<char>,std::allocator<char> > const ,int>,void *> >,std::_Tree_val<std::_Tree_simple_types<std::pair<std::basic_string<char,std::char_traits<char>,std::allocator<char> > const ,int> > >,1>::_Compressed_pair<std::allocator<std::_Tree_node<std::pair<std::basic_string<char,std::char_traits<char>,std::allocator<char> > const ,int>,void *> >,std::_Tree_val<std::_Tree_simple_types<std::pair<std::basic_string<char,std::char_traits<char>,std::allocator<char> > const ,int> > >,1><>
PUBLIC	??1?$_Tree_temp_node_alloc@V?$allocator@U?$_Tree_node@U?$pair@$$CBV?$basic_string@DU?$char_traits@D@std@@V?$allocator@D@2@@std@@H@std@@PAX@std@@@std@@@std@@QAE@XZ ; std::_Tree_temp_node_alloc<std::allocator<std::_Tree_node<std::pair<std::basic_string<char,std::char_traits<char>,std::allocator<char> > const ,int>,void *> > >::~_Tree_temp_node_alloc<std::allocator<std::_Tree_node<std::pair<std::basic_string<char,std::char_traits<char>,std::allocator<char> > const ,int>,void *> > >
PUBLIC	?Delete@?$CDynamicPool@VCGraphicTextInstance@@@@KAXPAVCGraphicTextInstance@@@Z ; CDynamicPool<CGraphicTextInstance>::Delete
PUBLIC	??0?$allocator@U?$_List_node@USArgumet@script@@PAX@std@@@std@@QAE@XZ ; std::allocator<std::_List_node<script::SArgumet,void *> >::allocator<std::_List_node<script::SArgumet,void *> >
PUBLIC	?allocate@?$allocator@U?$_List_node@USArgumet@script@@PAX@std@@@std@@QAEPAU?$_List_node@USArgumet@script@@PAX@2@I@Z ; std::allocator<std::_List_node<script::SArgumet,void *> >::allocate
PUBLIC	??0?$_List_val@U?$_List_simple_types@USArgumet@script@@@std@@@std@@QAE@XZ ; std::_List_val<std::_List_simple_types<script::SArgumet> >::_List_val<std::_List_simple_types<script::SArgumet> >
PUBLIC	?_Get_first@?$_Compressed_pair@V?$allocator@U?$_List_node@USArgumet@script@@PAX@std@@@std@@V?$_List_val@U?$_List_simple_types@USArgumet@script@@@std@@@2@$00@std@@QAEAAV?$allocator@U?$_List_node@USArgumet@script@@PAX@std@@@2@XZ ; std::_Compressed_pair<std::allocator<std::_List_node<script::SArgumet,void *> >,std::_List_val<std::_List_simple_types<script::SArgumet> >,1>::_Get_first
PUBLIC	?max_size@?$list@USTextLine@CPythonEventManager@@V?$allocator@USTextLine@CPythonEventManager@@@std@@@std@@QBEIXZ ; std::list<CPythonEventManager::STextLine,std::allocator<CPythonEventManager::STextLine> >::max_size
PUBLIC	?_Check_grow_by_1@?$_Tree@V?$_Tmap_traits@V?$basic_string@DU?$char_traits@D@std@@V?$allocator@D@2@@std@@HU?$less@V?$basic_string@DU?$char_traits@D@std@@V?$allocator@D@2@@std@@@2@V?$allocator@U?$pair@$$CBV?$basic_string@DU?$char_traits@D@std@@V?$allocator@D@2@@std@@H@std@@@2@$0A@@std@@@std@@IAEXXZ ; std::_Tree<std::_Tmap_traits<std::basic_string<char,std::char_traits<char>,std::allocator<char> >,int,std::less<std::basic_string<char,std::char_traits<char>,std::allocator<char> > >,std::allocator<std::pair<std::basic_string<char,std::char_traits<char>,std::allocator<char> > const ,int> >,0> >::_Check_grow_by_1
PUBLIC	?_Alloc_sentinel_and_proxy@?$_Tree@V?$_Tmap_traits@V?$basic_string@DU?$char_traits@D@std@@V?$allocator@D@2@@std@@HU?$less@V?$basic_string@DU?$char_traits@D@std@@V?$allocator@D@2@@std@@@2@V?$allocator@U?$pair@$$CBV?$basic_string@DU?$char_traits@D@std@@V?$allocator@D@2@@std@@H@std@@@2@$0A@@std@@@std@@IAEXXZ ; std::_Tree<std::_Tmap_traits<std::basic_string<char,std::char_traits<char>,std::allocator<char> >,int,std::less<std::basic_string<char,std::char_traits<char>,std::allocator<char> > >,std::allocator<std::pair<std::basic_string<char,std::char_traits<char>,std::allocator<char> > const ,int> >,0> >::_Alloc_sentinel_and_proxy
PUBLIC	?_Get_scary@?$_Tree@V?$_Tmap_traits@V?$basic_string@DU?$char_traits@D@std@@V?$allocator@D@2@@std@@HU?$less@V?$basic_string@DU?$char_traits@D@std@@V?$allocator@D@2@@std@@@2@V?$allocator@U?$pair@$$CBV?$basic_string@DU?$char_traits@D@std@@V?$allocator@D@2@@std@@H@std@@@2@$0A@@std@@@std@@IBEPBV?$_Tree_val@U?$_Tree_simple_types@U?$pair@$$CBV?$basic_string@DU?$char_traits@D@std@@V?$allocator@D@2@@std@@H@std@@@std@@@2@XZ ; std::_Tree<std::_Tmap_traits<std::basic_string<char,std::char_traits<char>,std::allocator<char> >,int,std::less<std::basic_string<char,std::char_traits<char>,std::allocator<char> > >,std::allocator<std::pair<std::basic_string<char,std::char_traits<char>,std::allocator<char> > const ,int> >,0> >::_Get_scary
PUBLIC	?_Insert_node@?$_Tree_val@U?$_Tree_simple_types@U?$pair@$$CBV?$basic_string@DU?$char_traits@D@std@@V?$allocator@D@2@@std@@H@std@@@std@@@std@@QAEPAU?$_Tree_node@U?$pair@$$CBV?$basic_string@DU?$char_traits@D@std@@V?$allocator@D@2@@std@@H@std@@PAX@2@U?$_Tree_id@PAU?$_Tree_node@U?$pair@$$CBV?$basic_string@DU?$char_traits@D@std@@V?$allocator@D@2@@std@@H@std@@PAX@std@@@2@QAU32@@Z ; std::_Tree_val<std::_Tree_simple_types<std::pair<std::basic_string<char,std::char_traits<char>,std::allocator<char> > const ,int> > >::_Insert_node
PUBLIC	??D?$_Tree_const_iterator@V?$_Tree_val@U?$_Tree_simple_types@U?$pair@$$CBV?$basic_string@DU?$char_traits@D@std@@V?$allocator@D@2@@std@@H@std@@@std@@@std@@@std@@QBEABU?$pair@$$CBV?$basic_string@DU?$char_traits@D@std@@V?$allocator@D@2@@std@@H@1@XZ ; std::_Tree_const_iterator<std::_Tree_val<std::_Tree_simple_types<std::pair<std::basic_string<char,std::char_traits<char>,std::allocator<char> > const ,int> > > >::operator*
PUBLIC	?_Get_first@?$_Compressed_pair@V?$allocator@U?$_Tree_node@U?$pair@$$CBV?$basic_string@DU?$char_traits@D@std@@V?$allocator@D@2@@std@@H@std@@PAX@std@@@std@@V?$_Tree_val@U?$_Tree_simple_types@U?$pair@$$CBV?$basic_string@DU?$char_traits@D@std@@V?$allocator@D@2@@std@@H@std@@@std@@@2@$00@std@@QAEAAV?$allocator@U?$_Tree_node@U?$pair@$$CBV?$basic_string@DU?$char_traits@D@std@@V?$allocator@D@2@@std@@H@std@@PAX@std@@@2@XZ ; std::_Compressed_pair<std::allocator<std::_Tree_node<std::pair<std::basic_string<char,std::char_traits<char>,std::allocator<char> > const ,int>,void *> >,std::_Tree_val<std::_Tree_simple_types<std::pair<std::basic_string<char,std::char_traits<char>,std::allocator<char> > const ,int> > >,1>::_Get_first
PUBLIC	??0?$allocator@U?$_List_node@USTextLine@CPythonEventManager@@PAX@std@@@std@@QAE@XZ ; std::allocator<std::_List_node<CPythonEventManager::STextLine,void *> >::allocator<std::_List_node<CPythonEventManager::STextLine,void *> >
PUBLIC	?allocate@?$allocator@U?$_List_node@USTextLine@CPythonEventManager@@PAX@std@@@std@@QAEPAU?$_List_node@USTextLine@CPythonEventManager@@PAX@2@I@Z ; std::allocator<std::_List_node<CPythonEventManager::STextLine,void *> >::allocate
PUBLIC	??0?$_List_val@U?$_List_simple_types@USTextLine@CPythonEventManager@@@std@@@std@@QAE@XZ ; std::_List_val<std::_List_simple_types<CPythonEventManager::STextLine> >::_List_val<std::_List_simple_types<CPythonEventManager::STextLine> >
PUBLIC	?_Get_first@?$_Compressed_pair@V?$allocator@U?$_List_node@USTextLine@CPythonEventManager@@PAX@std@@@std@@V?$_List_val@U?$_List_simple_types@USTextLine@CPythonEventManager@@@std@@@2@$00@std@@QAEAAV?$allocator@U?$_List_node@USTextLine@CPythonEventManager@@PAX@std@@@2@XZ ; std::_Compressed_pair<std::allocator<std::_List_node<CPythonEventManager::STextLine,void *> >,std::_List_val<std::_List_simple_types<CPythonEventManager::STextLine> >,1>::_Get_first
PUBLIC	??0?$allocator@PAUSEventSet@CPythonEventManager@@@std@@QAE@XZ ; std::allocator<CPythonEventManager::SEventSet *>::allocator<CPythonEventManager::SEventSet *>
PUBLIC	?deallocate@?$allocator@PAUSEventSet@CPythonEventManager@@@std@@QAEXQAPAUSEventSet@CPythonEventManager@@I@Z ; std::allocator<CPythonEventManager::SEventSet *>::deallocate
PUBLIC	?_Unchecked_begin@?$vector@PAUSEventSet@CPythonEventManager@@V?$allocator@PAUSEventSet@CPythonEventManager@@@std@@@std@@QAEPAPAUSEventSet@CPythonEventManager@@XZ ; std::vector<CPythonEventManager::SEventSet *,std::allocator<CPythonEventManager::SEventSet *> >::_Unchecked_begin
PUBLIC	?_Unchecked_end@?$vector@PAUSEventSet@CPythonEventManager@@V?$allocator@PAUSEventSet@CPythonEventManager@@@std@@@std@@QAEPAPAUSEventSet@CPythonEventManager@@XZ ; std::vector<CPythonEventManager::SEventSet *,std::allocator<CPythonEventManager::SEventSet *> >::_Unchecked_end
PUBLIC	?_Orphan_range@?$vector@PAUSEventSet@CPythonEventManager@@V?$allocator@PAUSEventSet@CPythonEventManager@@@std@@@std@@ABEXPAPAUSEventSet@CPythonEventManager@@0@Z ; std::vector<CPythonEventManager::SEventSet *,std::allocator<CPythonEventManager::SEventSet *> >::_Orphan_range
PUBLIC	??0?$_Vector_val@U?$_Simple_types@PAUSEventSet@CPythonEventManager@@@std@@@std@@QAE@XZ ; std::_Vector_val<std::_Simple_types<CPythonEventManager::SEventSet *> >::_Vector_val<std::_Simple_types<CPythonEventManager::SEventSet *> >
PUBLIC	?_Get_first@?$_Compressed_pair@V?$allocator@PAUSEventSet@CPythonEventManager@@@std@@V?$_Vector_val@U?$_Simple_types@PAUSEventSet@CPythonEventManager@@@std@@@2@$00@std@@QAEAAV?$allocator@PAUSEventSet@CPythonEventManager@@@2@XZ ; std::_Compressed_pair<std::allocator<CPythonEventManager::SEventSet *>,std::_Vector_val<std::_Simple_types<CPythonEventManager::SEventSet *> >,1>::_Get_first
PUBLIC	?Delete@?$CDynamicPool@USEventSet@CPythonEventManager@@@@KAXPAUSEventSet@CPythonEventManager@@@Z ; CDynamicPool<CPythonEventManager::SEventSet>::Delete
PUBLIC	?clear@?$vector@PAVCGraphicTextInstance@@V?$allocator@PAVCGraphicTextInstance@@@std@@@std@@QAEXXZ ; std::vector<CGraphicTextInstance *,std::allocator<CGraphicTextInstance *> >::clear
PUBLIC	?_Unchecked_begin@?$vector@PAVCGraphicTextInstance@@V?$allocator@PAVCGraphicTextInstance@@@std@@@std@@QAEPAPAVCGraphicTextInstance@@XZ ; std::vector<CGraphicTextInstance *,std::allocator<CGraphicTextInstance *> >::_Unchecked_begin
PUBLIC	?_Unchecked_end@?$vector@PAVCGraphicTextInstance@@V?$allocator@PAVCGraphicTextInstance@@@std@@@std@@QAEPAPAVCGraphicTextInstance@@XZ ; std::vector<CGraphicTextInstance *,std::allocator<CGraphicTextInstance *> >::_Unchecked_end
PUBLIC	?_Tidy@?$vector@PAVCGraphicTextInstance@@V?$allocator@PAVCGraphicTextInstance@@@std@@@std@@AAEXXZ ; std::vector<CGraphicTextInstance *,std::allocator<CGraphicTextInstance *> >::_Tidy
PUBLIC	?_Orphan_range@?$vector@PAVCGraphicTextInstance@@V?$allocator@PAVCGraphicTextInstance@@@std@@@std@@ABEXPAPAVCGraphicTextInstance@@0@Z ; std::vector<CGraphicTextInstance *,std::allocator<CGraphicTextInstance *> >::_Orphan_range
PUBLIC	?_Getal@?$vector@PAVCGraphicTextInstance@@V?$allocator@PAVCGraphicTextInstance@@@std@@@std@@AAEAAV?$allocator@PAVCGraphicTextInstance@@@2@XZ ; std::vector<CGraphicTextInstance *,std::allocator<CGraphicTextInstance *> >::_Getal
PUBLIC	??1?$_Tree_temp_node@V?$allocator@U?$_Tree_node@U?$pair@$$CBV?$basic_string@DU?$char_traits@D@std@@V?$allocator@D@2@@std@@H@std@@PAX@std@@@std@@@std@@QAE@XZ ; std::_Tree_temp_node<std::allocator<std::_Tree_node<std::pair<std::basic_string<char,std::char_traits<char>,std::allocator<char> > const ,int>,void *> > >::~_Tree_temp_node<std::allocator<std::_Tree_node<std::pair<std::basic_string<char,std::char_traits<char>,std::allocator<char> > const ,int>,void *> > >
PUBLIC	?_Release@?$_Alloc_construct_ptr@V?$allocator@U?$_Tree_node@U?$pair@$$CBV?$basic_string@DU?$char_traits@D@std@@V?$allocator@D@2@@std@@H@std@@PAX@std@@@std@@@std@@QAEPAU?$_Tree_node@U?$pair@$$CBV?$basic_string@DU?$char_traits@D@std@@V?$allocator@D@2@@std@@H@std@@PAX@2@XZ ; std::_Alloc_construct_ptr<std::allocator<std::_Tree_node<std::pair<std::basic_string<char,std::char_traits<char>,std::allocator<char> > const ,int>,void *> > >::_Release
PUBLIC	??1?$_List_node_emplace_op2@V?$allocator@U?$_List_node@USTextLine@CPythonEventManager@@PAX@std@@@std@@@std@@QAE@XZ ; std::_List_node_emplace_op2<std::allocator<std::_List_node<CPythonEventManager::STextLine,void *> > >::~_List_node_emplace_op2<std::allocator<std::_List_node<CPythonEventManager::STextLine,void *> > >
PUBLIC	?_Transfer_before@?$_List_node_emplace_op2@V?$allocator@U?$_List_node@USTextLine@CPythonEventManager@@PAX@std@@@std@@@std@@QAEPAU?$_List_node@USTextLine@CPythonEventManager@@PAX@2@QAU32@@Z ; std::_List_node_emplace_op2<std::allocator<std::_List_node<CPythonEventManager::STextLine,void *> > >::_Transfer_before
PUBLIC	??$_Freenode0@V?$allocator@U?$_List_node@USArgumet@script@@PAX@std@@@std@@@?$_List_node@USArgumet@script@@PAX@std@@SAXAAV?$allocator@U?$_List_node@USArgumet@script@@PAX@std@@@1@PAU01@@Z ; std::_List_node<script::SArgumet,void *>::_Freenode0<std::allocator<std::_List_node<script::SArgumet,void *> > >
PUBLIC	??$_Free_non_head@V?$allocator@U?$_List_node@USArgumet@script@@PAX@std@@@std@@@?$_List_node@USArgumet@script@@PAX@std@@SAXAAV?$allocator@U?$_List_node@USArgumet@script@@PAX@std@@@1@PAU01@@Z ; std::_List_node<script::SArgumet,void *>::_Free_non_head<std::allocator<std::_List_node<script::SArgumet,void *> > >
PUBLIC	??$_Construct_in_place@PAU?$_List_node@USArgumet@script@@PAX@std@@AAPAU12@@std@@YAXAAPAU?$_List_node@USArgumet@script@@PAX@0@0@Z ; std::_Construct_in_place<std::_List_node<script::SArgumet,void *> *,std::_List_node<script::SArgumet,void *> * &>
PUBLIC	??$_Freenode0@V?$allocator@U?$_List_node@USTextLine@CPythonEventManager@@PAX@std@@@std@@@?$_List_node@USTextLine@CPythonEventManager@@PAX@std@@SAXAAV?$allocator@U?$_List_node@USTextLine@CPythonEventManager@@PAX@std@@@1@PAU01@@Z ; std::_List_node<CPythonEventManager::STextLine,void *>::_Freenode0<std::allocator<std::_List_node<CPythonEventManager::STextLine,void *> > >
PUBLIC	??$_Construct_in_place@PAU?$_List_node@USTextLine@CPythonEventManager@@PAX@std@@AAPAU12@@std@@YAXAAPAU?$_List_node@USTextLine@CPythonEventManager@@PAX@0@0@Z ; std::_Construct_in_place<std::_List_node<CPythonEventManager::STextLine,void *> *,std::_List_node<CPythonEventManager::STextLine,void *> * &>
PUBLIC	??$?0ABU?$less@V?$basic_string@DU?$char_traits@D@std@@V?$allocator@D@2@@std@@@std@@U_Zero_then_variadic_args_t@1@@?$_Compressed_pair@U?$less@V?$basic_string@DU?$char_traits@D@std@@V?$allocator@D@2@@std@@@std@@V?$_Compressed_pair@V?$allocator@U?$_Tree_node@U?$pair@$$CBV?$basic_string@DU?$char_traits@D@std@@V?$allocator@D@2@@std@@H@std@@PAX@std@@@std@@V?$_Tree_val@U?$_Tree_simple_types@U?$pair@$$CBV?$basic_string@DU?$char_traits@D@std@@V?$allocator@D@2@@std@@H@std@@@std@@@2@$00@2@$00@std@@QAE@U_One_then_variadic_args_t@1@ABU?$less@V?$basic_string@DU?$char_traits@D@std@@V?$allocator@D@2@@std@@@1@$$QAU_Zero_then_variadic_args_t@1@@Z ; std::_Compressed_pair<std::less<std::basic_string<char,std::char_traits<char>,std::allocator<char> > >,std::_Compressed_pair<std::allocator<std::_Tree_node<std::pair<std::basic_string<char,std::char_traits<char>,std::allocator<char> > const ,int>,void *> >,std::_Tree_val<std::_Tree_simple_types<std::pair<std::basic_string<char,std::char_traits<char>,std::allocator<char> > const ,int> > >,1>,1>::_Compressed_pair<std::less<std::basic_string<char,std::char_traits<char>,std::allocator<char> > >,std::_Compressed_pair<std::allocator<std::_Tree_node<std::pair<std::basic_string<char,std::char_traits<char>,std::allocator<char> > const ,int>,void *> >,std::_Tree_val<std::_Tree_simple_types<std::pair<std::basic_string<char,std::char_traits<char>,std::allocator<char> > const ,int> > >,1>,1><std::less<std::basic_string<char,std::char_traits<char>,std::allocator<char> > > const &,std::_Zero_then_variadic_args_t>
PUBLIC	??$addressof@V?$_Tree_val@U?$_Tree_simple_types@U?$pair@$$CBV?$basic_string@DU?$char_traits@D@std@@V?$allocator@D@2@@std@@H@std@@@std@@@std@@@std@@YAPAV?$_Tree_val@U?$_Tree_simple_types@U?$pair@$$CBV?$basic_string@DU?$char_traits@D@std@@V?$allocator@D@2@@std@@H@std@@@std@@@0@AAV10@@Z ; std::addressof<std::_Tree_val<std::_Tree_simple_types<std::pair<std::basic_string<char,std::char_traits<char>,std::allocator<char> > const ,int> > > >
PUBLIC	??$_Emplace_one_at_back@ABQAUSEventSet@CPythonEventManager@@@?$vector@PAUSEventSet@CPythonEventManager@@V?$allocator@PAUSEventSet@CPythonEventManager@@@std@@@std@@AAEAAPAUSEventSet@CPythonEventManager@@ABQAU23@@Z ; std::vector<CPythonEventManager::SEventSet *,std::allocator<CPythonEventManager::SEventSet *> >::_Emplace_one_at_back<CPythonEventManager::SEventSet * const &>
PUBLIC	??$destroy@PAUSEventSet@CPythonEventManager@@@?$_Default_allocator_traits@V?$allocator@PAUSEventSet@CPythonEventManager@@@std@@@std@@SAXAAV?$allocator@PAUSEventSet@CPythonEventManager@@@1@QAPAUSEventSet@CPythonEventManager@@@Z ; std::_Default_allocator_traits<std::allocator<CPythonEventManager::SEventSet *> >::destroy<CPythonEventManager::SEventSet *>
PUBLIC	??$_Unfancy@PAUSEventSet@CPythonEventManager@@@std@@YAPAPAUSEventSet@CPythonEventManager@@PAPAU12@@Z ; std::_Unfancy<CPythonEventManager::SEventSet *>
PUBLIC	??$?0$$V@?$_Compressed_pair@V?$allocator@PAVCGraphicTextInstance@@@std@@V?$_Vector_val@U?$_Simple_types@PAVCGraphicTextInstance@@@std@@@2@$00@std@@QAE@U_Zero_then_variadic_args_t@1@@Z ; std::_Compressed_pair<std::allocator<CGraphicTextInstance *>,std::_Vector_val<std::_Simple_types<CGraphicTextInstance *> >,1>::_Compressed_pair<std::allocator<CGraphicTextInstance *>,std::_Vector_val<std::_Simple_types<CGraphicTextInstance *> >,1><>
PUBLIC	??$_Emplace_one_at_back@ABQAVCGraphicTextInstance@@@?$vector@PAVCGraphicTextInstance@@V?$allocator@PAVCGraphicTextInstance@@@std@@@std@@AAEAAPAVCGraphicTextInstance@@ABQAV2@@Z ; std::vector<CGraphicTextInstance *,std::allocator<CGraphicTextInstance *> >::_Emplace_one_at_back<CGraphicTextInstance * const &>
PUBLIC	??$destroy@PAVCGraphicTextInstance@@@?$_Default_allocator_traits@V?$allocator@PAVCGraphicTextInstance@@@std@@@std@@SAXAAV?$allocator@PAVCGraphicTextInstance@@@1@QAPAVCGraphicTextInstance@@@Z ; std::_Default_allocator_traits<std::allocator<CGraphicTextInstance *> >::destroy<CGraphicTextInstance *>
PUBLIC	??$_Unfancy@PAVCGraphicTextInstance@@@std@@YAPAPAVCGraphicTextInstance@@PAPAV1@@Z ; std::_Unfancy<CGraphicTextInstance *>
PUBLIC	??$addressof@U?$pair@$$CBV?$basic_string@DU?$char_traits@D@std@@V?$allocator@D@2@@std@@H@std@@@std@@YAPAU?$pair@$$CBV?$basic_string@DU?$char_traits@D@std@@V?$allocator@D@2@@std@@H@0@AAU10@@Z ; std::addressof<std::pair<std::basic_string<char,std::char_traits<char>,std::allocator<char> > const ,int> >
PUBLIC	??$?0ABUSTextLine@CPythonEventManager@@@?$_List_node_emplace_op2@V?$allocator@U?$_List_node@USTextLine@CPythonEventManager@@PAX@std@@@std@@@std@@QAE@AAV?$allocator@U?$_List_node@USTextLine@CPythonEventManager@@PAX@std@@@1@ABUSTextLine@CPythonEventManager@@@Z ; std::_List_node_emplace_op2<std::allocator<std::_List_node<CPythonEventManager::STextLine,void *> > >::_List_node_emplace_op2<std::allocator<std::_List_node<CPythonEventManager::STextLine,void *> > ><CPythonEventManager::STextLine const &>
PUBLIC	??$forward@ABUSTextLine@CPythonEventManager@@@std@@YAABUSTextLine@CPythonEventManager@@ABU12@@Z ; std::forward<CPythonEventManager::STextLine const &>
PUBLIC	??$_Freenode@V?$allocator@U?$_List_node@USTextLine@CPythonEventManager@@PAX@std@@@std@@@?$_List_node@USTextLine@CPythonEventManager@@PAX@std@@SAXAAV?$allocator@U?$_List_node@USTextLine@CPythonEventManager@@PAX@std@@@1@PAU01@@Z ; std::_List_node<CPythonEventManager::STextLine,void *>::_Freenode<std::allocator<std::_List_node<CPythonEventManager::STextLine,void *> > >
PUBLIC	??$?0PAU?$_Tree_node@U?$pair@$$CBV?$basic_string@DU?$char_traits@D@std@@V?$allocator@D@2@@std@@H@std@@PAX@std@@_N$0A@@?$pair@PAU?$_Tree_node@U?$pair@$$CBV?$basic_string@DU?$char_traits@D@std@@V?$allocator@D@2@@std@@H@std@@PAX@std@@_N@std@@QAE@$$QAPAU?$_Tree_node@U?$pair@$$CBV?$basic_string@DU?$char_traits@D@std@@V?$allocator@D@2@@std@@H@std@@PAX@1@$$QA_N@Z ; std::pair<std::_Tree_node<std::pair<std::basic_string<char,std::char_traits<char>,std::allocator<char> > const ,int>,void *> *,bool>::pair<std::_Tree_node<std::pair<std::basic_string<char,std::char_traits<char>,std::allocator<char> > const ,int>,void *> *,bool><std::_Tree_node<std::pair<std::basic_string<char,std::char_traits<char>,std::allocator<char> > const ,int>,void *> *,bool,0>
PUBLIC	??$?0ABQAU?$_Tree_node@U?$pair@$$CBV?$basic_string@DU?$char_traits@D@std@@V?$allocator@D@2@@std@@H@std@@PAX@std@@_N$0A@@?$pair@PAU?$_Tree_node@U?$pair@$$CBV?$basic_string@DU?$char_traits@D@std@@V?$allocator@D@2@@std@@H@std@@PAX@std@@_N@std@@QAE@ABQAU?$_Tree_node@U?$pair@$$CBV?$basic_string@DU?$char_traits@D@std@@V?$allocator@D@2@@std@@H@std@@PAX@1@$$QA_N@Z ; std::pair<std::_Tree_node<std::pair<std::basic_string<char,std::char_traits<char>,std::allocator<char> > const ,int>,void *> *,bool>::pair<std::_Tree_node<std::pair<std::basic_string<char,std::char_traits<char>,std::allocator<char> > const ,int>,void *> *,bool><std::_Tree_node<std::pair<std::basic_string<char,std::char_traits<char>,std::allocator<char> > const ,int>,void *> * const &,bool,0>
PUBLIC	??$?0ABUpiecewise_construct_t@std@@V?$tuple@$$QAV?$basic_string@DU?$char_traits@D@std@@V?$allocator@D@2@@std@@@1@V?$tuple@$$V@1@@?$_Tree_temp_node@V?$allocator@U?$_Tree_node@U?$pair@$$CBV?$basic_string@DU?$char_traits@D@std@@V?$allocator@D@2@@std@@H@std@@PAX@std@@@std@@@std@@QAE@AAV?$allocator@U?$_Tree_node@U?$pair@$$CBV?$basic_string@DU?$char_traits@D@std@@V?$allocator@D@2@@std@@H@std@@PAX@std@@@1@PAU?$_Tree_node@U?$pair@$$CBV?$basic_string@DU?$char_traits@D@std@@V?$allocator@D@2@@std@@H@std@@PAX@1@ABUpiecewise_construct_t@1@$$QAV?$tuple@$$QAV?$basic_string@DU?$char_traits@D@std@@V?$allocator@D@2@@std@@@1@$$QAV?$tuple@$$V@1@@Z ; std::_Tree_temp_node<std::allocator<std::_Tree_node<std::pair<std::basic_string<char,std::char_traits<char>,std::allocator<char> > const ,int>,void *> > >::_Tree_temp_node<std::allocator<std::_Tree_node<std::pair<std::basic_string<char,std::char_traits<char>,std::allocator<char> > const ,int>,void *> > ><std::piecewise_construct_t const &,std::tuple<std::basic_string<char,std::char_traits<char>,std::allocator<char> > &&>,std::tuple<> >
PUBLIC	??$forward_as_tuple@V?$basic_string@DU?$char_traits@D@std@@V?$allocator@D@2@@std@@@std@@YA?AV?$tuple@$$QAV?$basic_string@DU?$char_traits@D@std@@V?$allocator@D@2@@std@@@0@$$QAV?$basic_string@DU?$char_traits@D@std@@V?$allocator@D@2@@0@@Z ; std::forward_as_tuple<std::basic_string<char,std::char_traits<char>,std::allocator<char> > >
PUBLIC	??$_Freenode0@V?$allocator@U?$_Tree_node@U?$pair@$$CBV?$basic_string@DU?$char_traits@D@std@@V?$allocator@D@2@@std@@H@std@@PAX@std@@@std@@@?$_Tree_node@U?$pair@$$CBV?$basic_string@DU?$char_traits@D@std@@V?$allocator@D@2@@std@@H@std@@PAX@std@@SAXAAV?$allocator@U?$_Tree_node@U?$pair@$$CBV?$basic_string@DU?$char_traits@D@std@@V?$allocator@D@2@@std@@H@std@@PAX@std@@@1@PAU01@@Z ; std::_Tree_node<std::pair<std::basic_string<char,std::char_traits<char>,std::allocator<char> > const ,int>,void *>::_Freenode0<std::allocator<std::_Tree_node<std::pair<std::basic_string<char,std::char_traits<char>,std::allocator<char> > const ,int>,void *> > >
PUBLIC	??$_Erase_tree@V?$allocator@U?$_Tree_node@U?$pair@$$CBV?$basic_string@DU?$char_traits@D@std@@V?$allocator@D@2@@std@@H@std@@PAX@std@@@std@@@?$_Tree_val@U?$_Tree_simple_types@U?$pair@$$CBV?$basic_string@DU?$char_traits@D@std@@V?$allocator@D@2@@std@@H@std@@@std@@@std@@QAEXAAV?$allocator@U?$_Tree_node@U?$pair@$$CBV?$basic_string@DU?$char_traits@D@std@@V?$allocator@D@2@@std@@H@std@@PAX@std@@@1@PAU?$_Tree_node@U?$pair@$$CBV?$basic_string@DU?$char_traits@D@std@@V?$allocator@D@2@@std@@H@std@@PAX@1@@Z ; std::_Tree_val<std::_Tree_simple_types<std::pair<std::basic_string<char,std::char_traits<char>,std::allocator<char> > const ,int> > >::_Erase_tree<std::allocator<std::_Tree_node<std::pair<std::basic_string<char,std::char_traits<char>,std::allocator<char> > const ,int>,void *> > >
PUBLIC	??$_Lower_bound_duplicate@V?$basic_string@DU?$char_traits@D@std@@V?$allocator@D@2@@std@@@?$_Tree@V?$_Tmap_traits@V?$basic_string@DU?$char_traits@D@std@@V?$allocator@D@2@@std@@HU?$less@V?$basic_string@DU?$char_traits@D@std@@V?$allocator@D@2@@std@@@2@V?$allocator@U?$pair@$$CBV?$basic_string@DU?$char_traits@D@std@@V?$allocator@D@2@@std@@H@std@@@2@$0A@@std@@@std@@IBE_NQAU?$_Tree_node@U?$pair@$$CBV?$basic_string@DU?$char_traits@D@std@@V?$allocator@D@2@@std@@H@std@@PAX@1@ABV?$basic_string@DU?$char_traits@D@std@@V?$allocator@D@2@@1@@Z ; std::_Tree<std::_Tmap_traits<std::basic_string<char,std::char_traits<char>,std::allocator<char> >,int,std::less<std::basic_string<char,std::char_traits<char>,std::allocator<char> > >,std::allocator<std::pair<std::basic_string<char,std::char_traits<char>,std::allocator<char> > const ,int> >,0> >::_Lower_bound_duplicate<std::basic_string<char,std::char_traits<char>,std::allocator<char> > >
PUBLIC	??$_Find_lower_bound@V?$basic_string@DU?$char_traits@D@std@@V?$allocator@D@2@@std@@@?$_Tree@V?$_Tmap_traits@V?$basic_string@DU?$char_traits@D@std@@V?$allocator@D@2@@std@@HU?$less@V?$basic_string@DU?$char_traits@D@std@@V?$allocator@D@2@@std@@@2@V?$allocator@U?$pair@$$CBV?$basic_string@DU?$char_traits@D@std@@V?$allocator@D@2@@std@@H@std@@@2@$0A@@std@@@std@@IBE?AU?$_Tree_find_result@PAU?$_Tree_node@U?$pair@$$CBV?$basic_string@DU?$char_traits@D@std@@V?$allocator@D@2@@std@@H@std@@PAX@std@@@1@ABV?$basic_string@DU?$char_traits@D@std@@V?$allocator@D@2@@1@@Z ; std::_Tree<std::_Tmap_traits<std::basic_string<char,std::char_traits<char>,std::allocator<char> >,int,std::less<std::basic_string<char,std::char_traits<char>,std::allocator<char> > >,std::allocator<std::pair<std::basic_string<char,std::char_traits<char>,std::allocator<char> > const ,int> >,0> >::_Find_lower_bound<std::basic_string<char,std::char_traits<char>,std::allocator<char> > >
PUBLIC	??$_Emplace_reallocate@PAUSEventSet@CPythonEventManager@@@?$vector@PAUSEventSet@CPythonEventManager@@V?$allocator@PAUSEventSet@CPythonEventManager@@@std@@@std@@AAEPAPAUSEventSet@CPythonEventManager@@QAPAU23@$$QAPAU23@@Z ; std::vector<CPythonEventManager::SEventSet *,std::allocator<CPythonEventManager::SEventSet *> >::_Emplace_reallocate<CPythonEventManager::SEventSet *>
PUBLIC	??$_Emplace_back_with_unused_capacity@PAUSEventSet@CPythonEventManager@@@?$vector@PAUSEventSet@CPythonEventManager@@V?$allocator@PAUSEventSet@CPythonEventManager@@@std@@@std@@AAEAAPAUSEventSet@CPythonEventManager@@$$QAPAU23@@Z ; std::vector<CPythonEventManager::SEventSet *,std::allocator<CPythonEventManager::SEventSet *> >::_Emplace_back_with_unused_capacity<CPythonEventManager::SEventSet *>
PUBLIC	??$forward@PAUSEventSet@CPythonEventManager@@@std@@YA$$QAPAUSEventSet@CPythonEventManager@@AAPAU12@@Z ; std::forward<CPythonEventManager::SEventSet *>
PUBLIC	?Destroy@?$CDynamicPool@VCGraphicTextInstance@@@@QAEXXZ ; CDynamicPool<CGraphicTextInstance>::Destroy
PUBLIC	?_Tidy@?$list@USArgumet@script@@V?$allocator@USArgumet@script@@@std@@@std@@AAEXXZ ; std::list<script::SArgumet,std::allocator<script::SArgumet> >::_Tidy
PUBLIC	?_Alloc_sentinel_and_proxy@?$list@USArgumet@script@@V?$allocator@USArgumet@script@@@std@@@std@@AAEXXZ ; std::list<script::SArgumet,std::allocator<script::SArgumet> >::_Alloc_sentinel_and_proxy
PUBLIC	?_Getal@?$list@USArgumet@script@@V?$allocator@USArgumet@script@@@std@@@std@@AAEAAV?$allocator@U?$_List_node@USArgumet@script@@PAX@std@@@2@XZ ; std::list<script::SArgumet,std::allocator<script::SArgumet> >::_Getal
PUBLIC	??D?$_List_const_iterator@V?$_List_val@U?$_List_simple_types@USArgumet@script@@@std@@@std@@@std@@QBEABUSArgumet@script@@XZ ; std::_List_const_iterator<std::_List_val<std::_List_simple_types<script::SArgumet> > >::operator*
PUBLIC	??E?$_List_const_iterator@V?$_List_val@U?$_List_simple_types@USArgumet@script@@@std@@@std@@@std@@QAEAAV01@XZ ; std::_List_const_iterator<std::_List_val<std::_List_simple_types<script::SArgumet> > >::operator++
PUBLIC	??0?$_List_unchecked_const_iterator@V?$_List_val@U?$_List_simple_types@USArgumet@script@@@std@@@std@@U_Iterator_base0@2@@std@@QAE@PAU?$_List_node@USArgumet@script@@PAX@1@PBV?$_List_val@U?$_List_simple_types@USArgumet@script@@@std@@@1@@Z ; std::_List_unchecked_const_iterator<std::_List_val<std::_List_simple_types<script::SArgumet> >,std::_Iterator_base0>::_List_unchecked_const_iterator<std::_List_val<std::_List_simple_types<script::SArgumet> >,std::_Iterator_base0>
PUBLIC	?_Tidy@?$list@USTextLine@CPythonEventManager@@V?$allocator@USTextLine@CPythonEventManager@@@std@@@std@@AAEXXZ ; std::list<CPythonEventManager::STextLine,std::allocator<CPythonEventManager::STextLine> >::_Tidy
PUBLIC	?_Alloc_sentinel_and_proxy@?$list@USTextLine@CPythonEventManager@@V?$allocator@USTextLine@CPythonEventManager@@@std@@@std@@AAEXXZ ; std::list<CPythonEventManager::STextLine,std::allocator<CPythonEventManager::STextLine> >::_Alloc_sentinel_and_proxy
PUBLIC	?_Getal@?$list@USTextLine@CPythonEventManager@@V?$allocator@USTextLine@CPythonEventManager@@@std@@@std@@AAEAAV?$allocator@U?$_List_node@USTextLine@CPythonEventManager@@PAX@std@@@2@XZ ; std::list<CPythonEventManager::STextLine,std::allocator<CPythonEventManager::STextLine> >::_Getal
PUBLIC	??0?$_Tree@V?$_Tmap_traits@V?$basic_string@DU?$char_traits@D@std@@V?$allocator@D@2@@std@@HU?$less@V?$basic_string@DU?$char_traits@D@std@@V?$allocator@D@2@@std@@@2@V?$allocator@U?$pair@$$CBV?$basic_string@DU?$char_traits@D@std@@V?$allocator@D@2@@std@@H@std@@@2@$0A@@std@@@std@@QAE@ABU?$less@V?$basic_string@DU?$char_traits@D@std@@V?$allocator@D@2@@std@@@1@@Z ; std::_Tree<std::_Tmap_traits<std::basic_string<char,std::char_traits<char>,std::allocator<char> >,int,std::less<std::basic_string<char,std::char_traits<char>,std::allocator<char> > >,std::allocator<std::pair<std::basic_string<char,std::char_traits<char>,std::allocator<char> > const ,int> >,0> >::_Tree<std::_Tmap_traits<std::basic_string<char,std::char_traits<char>,std::allocator<char> >,int,std::less<std::basic_string<char,std::char_traits<char>,std::allocator<char> > >,std::allocator<std::pair<std::basic_string<char,std::char_traits<char>,std::allocator<char> > const ,int> >,0> >
PUBLIC	?_Getal@?$_Tree@V?$_Tmap_traits@V?$basic_string@DU?$char_traits@D@std@@V?$allocator@D@2@@std@@HU?$less@V?$basic_string@DU?$char_traits@D@std@@V?$allocator@D@2@@std@@@2@V?$allocator@U?$pair@$$CBV?$basic_string@DU?$char_traits@D@std@@V?$allocator@D@2@@std@@H@std@@@2@$0A@@std@@@std@@IAEAAV?$allocator@U?$_Tree_node@U?$pair@$$CBV?$basic_string@DU?$char_traits@D@std@@V?$allocator@D@2@@std@@H@std@@PAX@std@@@2@XZ ; std::_Tree<std::_Tmap_traits<std::basic_string<char,std::char_traits<char>,std::allocator<char> >,int,std::less<std::basic_string<char,std::char_traits<char>,std::allocator<char> > >,std::allocator<std::pair<std::basic_string<char,std::char_traits<char>,std::allocator<char> > const ,int> >,0> >::_Getal
PUBLIC	?_Get_scary@?$_Tree@V?$_Tmap_traits@V?$basic_string@DU?$char_traits@D@std@@V?$allocator@D@2@@std@@HU?$less@V?$basic_string@DU?$char_traits@D@std@@V?$allocator@D@2@@std@@@2@V?$allocator@U?$pair@$$CBV?$basic_string@DU?$char_traits@D@std@@V?$allocator@D@2@@std@@H@std@@@2@$0A@@std@@@std@@IAEPAV?$_Tree_val@U?$_Tree_simple_types@U?$pair@$$CBV?$basic_string@DU?$char_traits@D@std@@V?$allocator@D@2@@std@@H@std@@@std@@@2@XZ ; std::_Tree<std::_Tmap_traits<std::basic_string<char,std::char_traits<char>,std::allocator<char> >,int,std::less<std::basic_string<char,std::char_traits<char>,std::allocator<char> > >,std::allocator<std::pair<std::basic_string<char,std::char_traits<char>,std::allocator<char> > const ,int> >,0> >::_Get_scary
PUBLIC	??D?$_Tree_iterator@V?$_Tree_val@U?$_Tree_simple_types@U?$pair@$$CBV?$basic_string@DU?$char_traits@D@std@@V?$allocator@D@2@@std@@H@std@@@std@@@std@@@std@@QBEAAU?$pair@$$CBV?$basic_string@DU?$char_traits@D@std@@V?$allocator@D@2@@std@@H@1@XZ ; std::_Tree_iterator<std::_Tree_val<std::_Tree_simple_types<std::pair<std::basic_string<char,std::char_traits<char>,std::allocator<char> > const ,int> > > >::operator*
PUBLIC	??0?$_Tree_unchecked_const_iterator@V?$_Tree_val@U?$_Tree_simple_types@U?$pair@$$CBV?$basic_string@DU?$char_traits@D@std@@V?$allocator@D@2@@std@@H@std@@@std@@@std@@U_Iterator_base0@2@@std@@QAE@PAU?$_Tree_node@U?$pair@$$CBV?$basic_string@DU?$char_traits@D@std@@V?$allocator@D@2@@std@@H@std@@PAX@1@PBV?$_Tree_val@U?$_Tree_simple_types@U?$pair@$$CBV?$basic_string@DU?$char_traits@D@std@@V?$allocator@D@2@@std@@H@std@@@std@@@1@@Z ; std::_Tree_unchecked_const_iterator<std::_Tree_val<std::_Tree_simple_types<std::pair<std::basic_string<char,std::char_traits<char>,std::allocator<char> > const ,int> > >,std::_Iterator_base0>::_Tree_unchecked_const_iterator<std::_Tree_val<std::_Tree_simple_types<std::pair<std::basic_string<char,std::char_traits<char>,std::allocator<char> > const ,int> > >,std::_Iterator_base0>
PUBLIC	?_Orphan_non_end@?$_List_val@U?$_List_simple_types@USTextLine@CPythonEventManager@@@std@@@std@@QAEXXZ ; std::_List_val<std::_List_simple_types<CPythonEventManager::STextLine> >::_Orphan_non_end
PUBLIC	??D?$_List_const_iterator@V?$_List_val@U?$_List_simple_types@USTextLine@CPythonEventManager@@@std@@@std@@@std@@QBEABUSTextLine@CPythonEventManager@@XZ ; std::_List_const_iterator<std::_List_val<std::_List_simple_types<CPythonEventManager::STextLine> > >::operator*
PUBLIC	??E?$_List_const_iterator@V?$_List_val@U?$_List_simple_types@USTextLine@CPythonEventManager@@@std@@@std@@@std@@QAEAAV01@XZ ; std::_List_const_iterator<std::_List_val<std::_List_simple_types<CPythonEventManager::STextLine> > >::operator++
PUBLIC	??0?$_List_unchecked_const_iterator@V?$_List_val@U?$_List_simple_types@USTextLine@CPythonEventManager@@@std@@@std@@U_Iterator_base0@2@@std@@QAE@PAU?$_List_node@USTextLine@CPythonEventManager@@PAX@1@PBV?$_List_val@U?$_List_simple_types@USTextLine@CPythonEventManager@@@std@@@1@@Z ; std::_List_unchecked_const_iterator<std::_List_val<std::_List_simple_types<CPythonEventManager::STextLine> >,std::_Iterator_base0>::_List_unchecked_const_iterator<std::_List_val<std::_List_simple_types<CPythonEventManager::STextLine> >,std::_Iterator_base0>
PUBLIC	?push_back@?$vector@PAUSEventSet@CPythonEventManager@@V?$allocator@PAUSEventSet@CPythonEventManager@@@std@@@std@@QAEXABQAUSEventSet@CPythonEventManager@@@Z ; std::vector<CPythonEventManager::SEventSet *,std::allocator<CPythonEventManager::SEventSet *> >::push_back
PUBLIC	?pop_back@?$vector@PAUSEventSet@CPythonEventManager@@V?$allocator@PAUSEventSet@CPythonEventManager@@@std@@@std@@QAEXXZ ; std::vector<CPythonEventManager::SEventSet *,std::allocator<CPythonEventManager::SEventSet *> >::pop_back
PUBLIC	?empty@?$vector@PAUSEventSet@CPythonEventManager@@V?$allocator@PAUSEventSet@CPythonEventManager@@@std@@@std@@QBE_NXZ ; std::vector<CPythonEventManager::SEventSet *,std::allocator<CPythonEventManager::SEventSet *> >::empty
PUBLIC	?back@?$vector@PAUSEventSet@CPythonEventManager@@V?$allocator@PAUSEventSet@CPythonEventManager@@@std@@@std@@QAEAAPAUSEventSet@CPythonEventManager@@XZ ; std::vector<CPythonEventManager::SEventSet *,std::allocator<CPythonEventManager::SEventSet *> >::back
PUBLIC	?_Tidy@?$vector@PAUSEventSet@CPythonEventManager@@V?$allocator@PAUSEventSet@CPythonEventManager@@@std@@@std@@AAEXXZ ; std::vector<CPythonEventManager::SEventSet *,std::allocator<CPythonEventManager::SEventSet *> >::_Tidy
PUBLIC	?_Getal@?$vector@PAUSEventSet@CPythonEventManager@@V?$allocator@PAUSEventSet@CPythonEventManager@@@std@@@std@@AAEAAV?$allocator@PAUSEventSet@CPythonEventManager@@@2@XZ ; std::vector<CPythonEventManager::SEventSet *,std::allocator<CPythonEventManager::SEventSet *> >::_Getal
PUBLIC	?Destroy@?$CDynamicPool@USEventSet@CPythonEventManager@@@@QAEXXZ ; CDynamicPool<CPythonEventManager::SEventSet>::Destroy
PUBLIC	??0?$vector@PAVCGraphicTextInstance@@V?$allocator@PAVCGraphicTextInstance@@@std@@@std@@QAE@XZ ; std::vector<CGraphicTextInstance *,std::allocator<CGraphicTextInstance *> >::vector<CGraphicTextInstance *,std::allocator<CGraphicTextInstance *> >
PUBLIC	??1?$vector@PAVCGraphicTextInstance@@V?$allocator@PAVCGraphicTextInstance@@@std@@@std@@QAE@XZ ; std::vector<CGraphicTextInstance *,std::allocator<CGraphicTextInstance *> >::~vector<CGraphicTextInstance *,std::allocator<CGraphicTextInstance *> >
PUBLIC	?push_back@?$vector@PAVCGraphicTextInstance@@V?$allocator@PAVCGraphicTextInstance@@@std@@@std@@QAEXABQAVCGraphicTextInstance@@@Z ; std::vector<CGraphicTextInstance *,std::allocator<CGraphicTextInstance *> >::push_back
PUBLIC	?pop_back@?$vector@PAVCGraphicTextInstance@@V?$allocator@PAVCGraphicTextInstance@@@std@@@std@@QAEXXZ ; std::vector<CGraphicTextInstance *,std::allocator<CGraphicTextInstance *> >::pop_back
PUBLIC	?empty@?$vector@PAVCGraphicTextInstance@@V?$allocator@PAVCGraphicTextInstance@@@std@@@std@@QBE_NXZ ; std::vector<CGraphicTextInstance *,std::allocator<CGraphicTextInstance *> >::empty
PUBLIC	?back@?$vector@PAVCGraphicTextInstance@@V?$allocator@PAVCGraphicTextInstance@@@std@@@std@@QAEAAPAVCGraphicTextInstance@@XZ ; std::vector<CGraphicTextInstance *,std::allocator<CGraphicTextInstance *> >::back
PUBLIC	?pointer_to@?$pointer_traits@PAU?$pair@$$CBV?$basic_string@DU?$char_traits@D@std@@V?$allocator@D@2@@std@@H@std@@@std@@SAPAU?$pair@$$CBV?$basic_string@DU?$char_traits@D@std@@V?$allocator@D@2@@std@@H@2@AAU32@@Z ; std::pointer_traits<std::pair<std::basic_string<char,std::char_traits<char>,std::allocator<char> > const ,int> *>::pointer_to
PUBLIC	??$?0$$V@?$_Compressed_pair@V?$allocator@U?$_List_node@USArgumet@script@@PAX@std@@@std@@V?$_List_val@U?$_List_simple_types@USArgumet@script@@@std@@@2@$00@std@@QAE@U_Zero_then_variadic_args_t@1@@Z ; std::_Compressed_pair<std::allocator<std::_List_node<script::SArgumet,void *> >,std::_List_val<std::_List_simple_types<script::SArgumet> >,1>::_Compressed_pair<std::allocator<std::_List_node<script::SArgumet,void *> >,std::_List_val<std::_List_simple_types<script::SArgumet> >,1><>
PUBLIC	??$addressof@V?$_List_val@U?$_List_simple_types@USArgumet@script@@@std@@@std@@@std@@YAPAV?$_List_val@U?$_List_simple_types@USArgumet@script@@@std@@@0@AAV10@@Z ; std::addressof<std::_List_val<std::_List_simple_types<script::SArgumet> > >
PUBLIC	??$?0$$V@?$_Compressed_pair@V?$allocator@U?$_List_node@USTextLine@CPythonEventManager@@PAX@std@@@std@@V?$_List_val@U?$_List_simple_types@USTextLine@CPythonEventManager@@@std@@@2@$00@std@@QAE@U_Zero_then_variadic_args_t@1@@Z ; std::_Compressed_pair<std::allocator<std::_List_node<CPythonEventManager::STextLine,void *> >,std::_List_val<std::_List_simple_types<CPythonEventManager::STextLine> >,1>::_Compressed_pair<std::allocator<std::_List_node<CPythonEventManager::STextLine,void *> >,std::_List_val<std::_List_simple_types<CPythonEventManager::STextLine> >,1><>
PUBLIC	??$addressof@V?$_List_val@U?$_List_simple_types@USTextLine@CPythonEventManager@@@std@@@std@@@std@@YAPAV?$_List_val@U?$_List_simple_types@USTextLine@CPythonEventManager@@@std@@@0@AAV10@@Z ; std::addressof<std::_List_val<std::_List_simple_types<CPythonEventManager::STextLine> > >
PUBLIC	??$_Emplace@ABUSTextLine@CPythonEventManager@@@?$list@USTextLine@CPythonEventManager@@V?$allocator@USTextLine@CPythonEventManager@@@std@@@std@@QAEPAU?$_List_node@USTextLine@CPythonEventManager@@PAX@1@QAU21@ABUSTextLine@CPythonEventManager@@@Z ; std::list<CPythonEventManager::STextLine,std::allocator<CPythonEventManager::STextLine> >::_Emplace<CPythonEventManager::STextLine const &>
PUBLIC	??$_Free_non_head@V?$allocator@U?$_List_node@USTextLine@CPythonEventManager@@PAX@std@@@std@@@?$_List_node@USTextLine@CPythonEventManager@@PAX@std@@SAXAAV?$allocator@U?$_List_node@USTextLine@CPythonEventManager@@PAX@std@@@1@PAU01@@Z ; std::_List_node<CPythonEventManager::STextLine,void *>::_Free_non_head<std::allocator<std::_List_node<CPythonEventManager::STextLine,void *> > >
PUBLIC	??$_Try_emplace@V?$basic_string@DU?$char_traits@D@std@@V?$allocator@D@2@@std@@$$V@?$map@V?$basic_string@DU?$char_traits@D@std@@V?$allocator@D@2@@std@@HU?$less@V?$basic_string@DU?$char_traits@D@std@@V?$allocator@D@2@@std@@@2@V?$allocator@U?$pair@$$CBV?$basic_string@DU?$char_traits@D@std@@V?$allocator@D@2@@std@@H@std@@@2@@std@@AAE?AU?$pair@PAU?$_Tree_node@U?$pair@$$CBV?$basic_string@DU?$char_traits@D@std@@V?$allocator@D@2@@std@@H@std@@PAX@std@@_N@1@$$QAV?$basic_string@DU?$char_traits@D@std@@V?$allocator@D@2@@1@@Z ; std::map<std::basic_string<char,std::char_traits<char>,std::allocator<char> >,int,std::less<std::basic_string<char,std::char_traits<char>,std::allocator<char> > >,std::allocator<std::pair<std::basic_string<char,std::char_traits<char>,std::allocator<char> > const ,int> > >::_Try_emplace<std::basic_string<char,std::char_traits<char>,std::allocator<char> > >
PUBLIC	??$_Erase_head@V?$allocator@U?$_Tree_node@U?$pair@$$CBV?$basic_string@DU?$char_traits@D@std@@V?$allocator@D@2@@std@@H@std@@PAX@std@@@std@@@?$_Tree_val@U?$_Tree_simple_types@U?$pair@$$CBV?$basic_string@DU?$char_traits@D@std@@V?$allocator@D@2@@std@@H@std@@@std@@@std@@QAEXAAV?$allocator@U?$_Tree_node@U?$pair@$$CBV?$basic_string@DU?$char_traits@D@std@@V?$allocator@D@2@@std@@H@std@@PAX@std@@@1@@Z ; std::_Tree_val<std::_Tree_simple_types<std::pair<std::basic_string<char,std::char_traits<char>,std::allocator<char> > const ,int> > >::_Erase_head<std::allocator<std::_Tree_node<std::pair<std::basic_string<char,std::char_traits<char>,std::allocator<char> > const ,int>,void *> > >
PUBLIC	??$_Find@V?$basic_string@DU?$char_traits@D@std@@V?$allocator@D@2@@std@@@?$_Tree@V?$_Tmap_traits@V?$basic_string@DU?$char_traits@D@std@@V?$allocator@D@2@@std@@HU?$less@V?$basic_string@DU?$char_traits@D@std@@V?$allocator@D@2@@std@@@2@V?$allocator@U?$pair@$$CBV?$basic_string@DU?$char_traits@D@std@@V?$allocator@D@2@@std@@H@std@@@2@$0A@@std@@@std@@ABEPAU?$_Tree_node@U?$pair@$$CBV?$basic_string@DU?$char_traits@D@std@@V?$allocator@D@2@@std@@H@std@@PAX@1@ABV?$basic_string@DU?$char_traits@D@std@@V?$allocator@D@2@@1@@Z ; std::_Tree<std::_Tmap_traits<std::basic_string<char,std::char_traits<char>,std::allocator<char> >,int,std::less<std::basic_string<char,std::char_traits<char>,std::allocator<char> > >,std::allocator<std::pair<std::basic_string<char,std::char_traits<char>,std::allocator<char> > const ,int> >,0> >::_Find<std::basic_string<char,std::char_traits<char>,std::allocator<char> > >
PUBLIC	??$?0$$V@?$_Compressed_pair@V?$allocator@PAUSEventSet@CPythonEventManager@@@std@@V?$_Vector_val@U?$_Simple_types@PAUSEventSet@CPythonEventManager@@@std@@@2@$00@std@@QAE@U_Zero_then_variadic_args_t@1@@Z ; std::_Compressed_pair<std::allocator<CPythonEventManager::SEventSet *>,std::_Vector_val<std::_Simple_types<CPythonEventManager::SEventSet *> >,1>::_Compressed_pair<std::allocator<CPythonEventManager::SEventSet *>,std::_Vector_val<std::_Simple_types<CPythonEventManager::SEventSet *> >,1><>
PUBLIC	??$_Emplace_one_at_back@PAUSEventSet@CPythonEventManager@@@?$vector@PAUSEventSet@CPythonEventManager@@V?$allocator@PAUSEventSet@CPythonEventManager@@@std@@@std@@AAEAAPAUSEventSet@CPythonEventManager@@$$QAPAU23@@Z ; std::vector<CPythonEventManager::SEventSet *,std::allocator<CPythonEventManager::SEventSet *> >::_Emplace_one_at_back<CPythonEventManager::SEventSet *>
PUBLIC	??$move@AAPAUSEventSet@CPythonEventManager@@@std@@YA$$QAPAUSEventSet@CPythonEventManager@@AAPAU12@@Z ; std::move<CPythonEventManager::SEventSet * &>
PUBLIC	??$_Destroy_range@V?$allocator@PAUSEventSet@CPythonEventManager@@@std@@@std@@YAXPAPAUSEventSet@CPythonEventManager@@QAPAU12@AAV?$allocator@PAUSEventSet@CPythonEventManager@@@0@@Z ; std::_Destroy_range<std::allocator<CPythonEventManager::SEventSet *> >
PUBLIC	??0?$_List_const_iterator@V?$_List_val@U?$_List_simple_types@USArgumet@script@@@std@@@std@@@std@@QAE@PAU?$_List_node@USArgumet@script@@PAX@1@PBV?$_List_val@U?$_List_simple_types@USArgumet@script@@@std@@@1@@Z ; std::_List_const_iterator<std::_List_val<std::_List_simple_types<script::SArgumet> > >::_List_const_iterator<std::_List_val<std::_List_simple_types<script::SArgumet> > >
PUBLIC	??0?$_List_const_iterator@V?$_List_val@U?$_List_simple_types@USTextLine@CPythonEventManager@@@std@@@std@@@std@@QAE@PAU?$_List_node@USTextLine@CPythonEventManager@@PAX@1@PBV?$_List_val@U?$_List_simple_types@USTextLine@CPythonEventManager@@@std@@@1@@Z ; std::_List_const_iterator<std::_List_val<std::_List_simple_types<CPythonEventManager::STextLine> > >::_List_const_iterator<std::_List_val<std::_List_simple_types<CPythonEventManager::STextLine> > >
PUBLIC	??0?$_Tree_const_iterator@V?$_Tree_val@U?$_Tree_simple_types@U?$pair@$$CBV?$basic_string@DU?$char_traits@D@std@@V?$allocator@D@2@@std@@H@std@@@std@@@std@@@std@@QAE@PAU?$_Tree_node@U?$pair@$$CBV?$basic_string@DU?$char_traits@D@std@@V?$allocator@D@2@@std@@H@std@@PAX@1@PBV?$_Tree_val@U?$_Tree_simple_types@U?$pair@$$CBV?$basic_string@DU?$char_traits@D@std@@V?$allocator@D@2@@std@@H@std@@@std@@@1@@Z ; std::_Tree_const_iterator<std::_Tree_val<std::_Tree_simple_types<std::pair<std::basic_string<char,std::char_traits<char>,std::allocator<char> > const ,int> > > >::_Tree_const_iterator<std::_Tree_val<std::_Tree_simple_types<std::pair<std::basic_string<char,std::char_traits<char>,std::allocator<char> > const ,int> > > >
PUBLIC	??_G?$CDynamicPool@VCGraphicTextInstance@@@@UAEPAXI@Z ; CDynamicPool<CGraphicTextInstance>::`scalar deleting destructor'
PUBLIC	??0?$_List_iterator@V?$_List_val@U?$_List_simple_types@USArgumet@script@@@std@@@std@@@std@@QAE@PAU?$_List_node@USArgumet@script@@PAX@1@PBV?$_List_val@U?$_List_simple_types@USArgumet@script@@@std@@@1@@Z ; std::_List_iterator<std::_List_val<std::_List_simple_types<script::SArgumet> > >::_List_iterator<std::_List_val<std::_List_simple_types<script::SArgumet> > >
PUBLIC	??_G?$CSingleton@VCPythonEventManager@@@@UAEPAXI@Z ; CSingleton<CPythonEventManager>::`scalar deleting destructor'
PUBLIC	??0?$_List_iterator@V?$_List_val@U?$_List_simple_types@USTextLine@CPythonEventManager@@@std@@@std@@@std@@QAE@PAU?$_List_node@USTextLine@CPythonEventManager@@PAX@1@PBV?$_List_val@U?$_List_simple_types@USTextLine@CPythonEventManager@@@std@@@1@@Z ; std::_List_iterator<std::_List_val<std::_List_simple_types<CPythonEventManager::STextLine> > >::_List_iterator<std::_List_val<std::_List_simple_types<CPythonEventManager::STextLine> > >
PUBLIC	??0?$_Tree_iterator@V?$_Tree_val@U?$_Tree_simple_types@U?$pair@$$CBV?$basic_string@DU?$char_traits@D@std@@V?$allocator@D@2@@std@@H@std@@@std@@@std@@@std@@QAE@PAU?$_Tree_node@U?$pair@$$CBV?$basic_string@DU?$char_traits@D@std@@V?$allocator@D@2@@std@@H@std@@PAX@1@PBV?$_Tree_val@U?$_Tree_simple_types@U?$pair@$$CBV?$basic_string@DU?$char_traits@D@std@@V?$allocator@D@2@@std@@H@std@@@std@@@1@@Z ; std::_Tree_iterator<std::_Tree_val<std::_Tree_simple_types<std::pair<std::basic_string<char,std::char_traits<char>,std::allocator<char> > const ,int> > > >::_Tree_iterator<std::_Tree_val<std::_Tree_simple_types<std::pair<std::basic_string<char,std::char_traits<char>,std::allocator<char> > const ,int> > > >
PUBLIC	??_G?$CDynamicPool@USEventSet@CPythonEventManager@@@@UAEPAXI@Z ; CDynamicPool<CPythonEventManager::SEventSet>::`scalar deleting destructor'
PUBLIC	??0?$CDynamicPool@VCGraphicTextInstance@@@@QAE@XZ ; CDynamicPool<CGraphicTextInstance>::CDynamicPool<CGraphicTextInstance>
PUBLIC	??1?$CDynamicPool@VCGraphicTextInstance@@@@UAE@XZ ; CDynamicPool<CGraphicTextInstance>::~CDynamicPool<CGraphicTextInstance>
PUBLIC	?Clear@?$CDynamicPool@VCGraphicTextInstance@@@@QAEXXZ ; CDynamicPool<CGraphicTextInstance>::Clear
PUBLIC	?Alloc@?$CDynamicPool@VCGraphicTextInstance@@@@QAEPAVCGraphicTextInstance@@XZ ; CDynamicPool<CGraphicTextInstance>::Alloc
PUBLIC	?Free@?$CDynamicPool@VCGraphicTextInstance@@@@QAEXPAVCGraphicTextInstance@@@Z ; CDynamicPool<CGraphicTextInstance>::Free
PUBLIC	??0?$list@USArgumet@script@@V?$allocator@USArgumet@script@@@std@@@std@@QAE@XZ ; std::list<script::SArgumet,std::allocator<script::SArgumet> >::list<script::SArgumet,std::allocator<script::SArgumet> >
PUBLIC	??1?$list@USArgumet@script@@V?$allocator@USArgumet@script@@@std@@@std@@QAE@XZ ; std::list<script::SArgumet,std::allocator<script::SArgumet> >::~list<script::SArgumet,std::allocator<script::SArgumet> >
PUBLIC	?begin@?$list@USArgumet@script@@V?$allocator@USArgumet@script@@@std@@@std@@QAE?AV?$_List_iterator@V?$_List_val@U?$_List_simple_types@USArgumet@script@@@std@@@std@@@2@XZ ; std::list<script::SArgumet,std::allocator<script::SArgumet> >::begin
PUBLIC	?end@?$list@USArgumet@script@@V?$allocator@USArgumet@script@@@std@@@std@@QAE?AV?$_List_iterator@V?$_List_val@U?$_List_simple_types@USArgumet@script@@@std@@@std@@@2@XZ ; std::list<script::SArgumet,std::allocator<script::SArgumet> >::end
PUBLIC	?size@?$list@USArgumet@script@@V?$allocator@USArgumet@script@@@std@@@std@@QBEIXZ ; std::list<script::SArgumet,std::allocator<script::SArgumet> >::size
PUBLIC	?empty@?$list@USArgumet@script@@V?$allocator@USArgumet@script@@@std@@@std@@QBE_NXZ ; std::list<script::SArgumet,std::allocator<script::SArgumet> >::empty
PUBLIC	??D?$_List_iterator@V?$_List_val@U?$_List_simple_types@USArgumet@script@@@std@@@std@@@std@@QBEAAUSArgumet@script@@XZ ; std::_List_iterator<std::_List_val<std::_List_simple_types<script::SArgumet> > >::operator*
PUBLIC	??E?$_List_iterator@V?$_List_val@U?$_List_simple_types@USArgumet@script@@@std@@@std@@@std@@QAEAAV01@XZ ; std::_List_iterator<std::_List_val<std::_List_simple_types<script::SArgumet> > >::operator++
PUBLIC	??8?$_List_const_iterator@V?$_List_val@U?$_List_simple_types@USArgumet@script@@@std@@@std@@@std@@QBE_NABV01@@Z ; std::_List_const_iterator<std::_List_val<std::_List_simple_types<script::SArgumet> > >::operator==
PUBLIC	??0?$CSingleton@VCPythonEventManager@@@@QAE@XZ	; CSingleton<CPythonEventManager>::CSingleton<CPythonEventManager>
PUBLIC	??1?$CSingleton@VCPythonEventManager@@@@UAE@XZ	; CSingleton<CPythonEventManager>::~CSingleton<CPythonEventManager>
PUBLIC	??0?$list@USTextLine@CPythonEventManager@@V?$allocator@USTextLine@CPythonEventManager@@@std@@@std@@QAE@XZ ; std::list<CPythonEventManager::STextLine,std::allocator<CPythonEventManager::STextLine> >::list<CPythonEventManager::STextLine,std::allocator<CPythonEventManager::STextLine> >
PUBLIC	??1?$list@USTextLine@CPythonEventManager@@V?$allocator@USTextLine@CPythonEventManager@@@std@@@std@@QAE@XZ ; std::list<CPythonEventManager::STextLine,std::allocator<CPythonEventManager::STextLine> >::~list<CPythonEventManager::STextLine,std::allocator<CPythonEventManager::STextLine> >
PUBLIC	?begin@?$list@USTextLine@CPythonEventManager@@V?$allocator@USTextLine@CPythonEventManager@@@std@@@std@@QAE?AV?$_List_iterator@V?$_List_val@U?$_List_simple_types@USTextLine@CPythonEventManager@@@std@@@std@@@2@XZ ; std::list<CPythonEventManager::STextLine,std::allocator<CPythonEventManager::STextLine> >::begin
PUBLIC	?end@?$list@USTextLine@CPythonEventManager@@V?$allocator@USTextLine@CPythonEventManager@@@std@@@std@@QAE?AV?$_List_iterator@V?$_List_val@U?$_List_simple_types@USTextLine@CPythonEventManager@@@std@@@std@@@2@XZ ; std::list<CPythonEventManager::STextLine,std::allocator<CPythonEventManager::STextLine> >::end
PUBLIC	?size@?$list@USTextLine@CPythonEventManager@@V?$allocator@USTextLine@CPythonEventManager@@@std@@@std@@QBEIXZ ; std::list<CPythonEventManager::STextLine,std::allocator<CPythonEventManager::STextLine> >::size
PUBLIC	?front@?$list@USTextLine@CPythonEventManager@@V?$allocator@USTextLine@CPythonEventManager@@@std@@@std@@QAEAAUSTextLine@CPythonEventManager@@XZ ; std::list<CPythonEventManager::STextLine,std::allocator<CPythonEventManager::STextLine> >::front
PUBLIC	?push_back@?$list@USTextLine@CPythonEventManager@@V?$allocator@USTextLine@CPythonEventManager@@@std@@@std@@QAEXABUSTextLine@CPythonEventManager@@@Z ; std::list<CPythonEventManager::STextLine,std::allocator<CPythonEventManager::STextLine> >::push_back
PUBLIC	?clear@?$list@USTextLine@CPythonEventManager@@V?$allocator@USTextLine@CPythonEventManager@@@std@@@std@@QAEXXZ ; std::list<CPythonEventManager::STextLine,std::allocator<CPythonEventManager::STextLine> >::clear
PUBLIC	??0?$map@V?$basic_string@DU?$char_traits@D@std@@V?$allocator@D@2@@std@@HU?$less@V?$basic_string@DU?$char_traits@D@std@@V?$allocator@D@2@@std@@@2@V?$allocator@U?$pair@$$CBV?$basic_string@DU?$char_traits@D@std@@V?$allocator@D@2@@std@@H@std@@@2@@std@@QAE@XZ ; std::map<std::basic_string<char,std::char_traits<char>,std::allocator<char> >,int,std::less<std::basic_string<char,std::char_traits<char>,std::allocator<char> > >,std::allocator<std::pair<std::basic_string<char,std::char_traits<char>,std::allocator<char> > const ,int> > >::map<std::basic_string<char,std::char_traits<char>,std::allocator<char> >,int,std::less<std::basic_string<char,std::char_traits<char>,std::allocator<char> > >,std::allocator<std::pair<std::basic_string<char,std::char_traits<char>,std::allocator<char> > const ,int> > >
PUBLIC	??A?$map@V?$basic_string@DU?$char_traits@D@std@@V?$allocator@D@2@@std@@HU?$less@V?$basic_string@DU?$char_traits@D@std@@V?$allocator@D@2@@std@@@2@V?$allocator@U?$pair@$$CBV?$basic_string@DU?$char_traits@D@std@@V?$allocator@D@2@@std@@H@std@@@2@@std@@QAEAAH$$QAV?$basic_string@DU?$char_traits@D@std@@V?$allocator@D@2@@1@@Z ; std::map<std::basic_string<char,std::char_traits<char>,std::allocator<char> >,int,std::less<std::basic_string<char,std::char_traits<char>,std::allocator<char> > >,std::allocator<std::pair<std::basic_string<char,std::char_traits<char>,std::allocator<char> > const ,int> > >::operator[]
PUBLIC	??1?$_Tree@V?$_Tmap_traits@V?$basic_string@DU?$char_traits@D@std@@V?$allocator@D@2@@std@@HU?$less@V?$basic_string@DU?$char_traits@D@std@@V?$allocator@D@2@@std@@@2@V?$allocator@U?$pair@$$CBV?$basic_string@DU?$char_traits@D@std@@V?$allocator@D@2@@std@@H@std@@@2@$0A@@std@@@std@@QAE@XZ ; std::_Tree<std::_Tmap_traits<std::basic_string<char,std::char_traits<char>,std::allocator<char> >,int,std::less<std::basic_string<char,std::char_traits<char>,std::allocator<char> > >,std::allocator<std::pair<std::basic_string<char,std::char_traits<char>,std::allocator<char> > const ,int> >,0> >::~_Tree<std::_Tmap_traits<std::basic_string<char,std::char_traits<char>,std::allocator<char> >,int,std::less<std::basic_string<char,std::char_traits<char>,std::allocator<char> > >,std::allocator<std::pair<std::basic_string<char,std::char_traits<char>,std::allocator<char> > const ,int> >,0> >
PUBLIC	?end@?$_Tree@V?$_Tmap_traits@V?$basic_string@DU?$char_traits@D@std@@V?$allocator@D@2@@std@@HU?$less@V?$basic_string@DU?$char_traits@D@std@@V?$allocator@D@2@@std@@@2@V?$allocator@U?$pair@$$CBV?$basic_string@DU?$char_traits@D@std@@V?$allocator@D@2@@std@@H@std@@@2@$0A@@std@@@std@@QAE?AV?$_Tree_iterator@V?$_Tree_val@U?$_Tree_simple_types@U?$pair@$$CBV?$basic_string@DU?$char_traits@D@std@@V?$allocator@D@2@@std@@H@std@@@std@@@std@@@2@XZ ; std::_Tree<std::_Tmap_traits<std::basic_string<char,std::char_traits<char>,std::allocator<char> >,int,std::less<std::basic_string<char,std::char_traits<char>,std::allocator<char> > >,std::allocator<std::pair<std::basic_string<char,std::char_traits<char>,std::allocator<char> > const ,int> >,0> >::end
PUBLIC	?find@?$_Tree@V?$_Tmap_traits@V?$basic_string@DU?$char_traits@D@std@@V?$allocator@D@2@@std@@HU?$less@V?$basic_string@DU?$char_traits@D@std@@V?$allocator@D@2@@std@@@2@V?$allocator@U?$pair@$$CBV?$basic_string@DU?$char_traits@D@std@@V?$allocator@D@2@@std@@H@std@@@2@$0A@@std@@@std@@QAE?AV?$_Tree_iterator@V?$_Tree_val@U?$_Tree_simple_types@U?$pair@$$CBV?$basic_string@DU?$char_traits@D@std@@V?$allocator@D@2@@std@@H@std@@@std@@@std@@@2@ABV?$basic_string@DU?$char_traits@D@std@@V?$allocator@D@2@@2@@Z ; std::_Tree<std::_Tmap_traits<std::basic_string<char,std::char_traits<char>,std::allocator<char> >,int,std::less<std::basic_string<char,std::char_traits<char>,std::allocator<char> > >,std::allocator<std::pair<std::basic_string<char,std::char_traits<char>,std::allocator<char> > const ,int> >,0> >::find
PUBLIC	??8?$_Tree_const_iterator@V?$_Tree_val@U?$_Tree_simple_types@U?$pair@$$CBV?$basic_string@DU?$char_traits@D@std@@V?$allocator@D@2@@std@@H@std@@@std@@@std@@@std@@QBE_NABV01@@Z ; std::_Tree_const_iterator<std::_Tree_val<std::_Tree_simple_types<std::pair<std::basic_string<char,std::char_traits<char>,std::allocator<char> > const ,int> > > >::operator==
PUBLIC	??C?$_Tree_iterator@V?$_Tree_val@U?$_Tree_simple_types@U?$pair@$$CBV?$basic_string@DU?$char_traits@D@std@@V?$allocator@D@2@@std@@H@std@@@std@@@std@@@std@@QBEPAU?$pair@$$CBV?$basic_string@DU?$char_traits@D@std@@V?$allocator@D@2@@std@@H@1@XZ ; std::_Tree_iterator<std::_Tree_val<std::_Tree_simple_types<std::pair<std::basic_string<char,std::char_traits<char>,std::allocator<char> > const ,int> > > >::operator->
PUBLIC	??D?$_List_iterator@V?$_List_val@U?$_List_simple_types@USTextLine@CPythonEventManager@@@std@@@std@@@std@@QBEAAUSTextLine@CPythonEventManager@@XZ ; std::_List_iterator<std::_List_val<std::_List_simple_types<CPythonEventManager::STextLine> > >::operator*
PUBLIC	??E?$_List_iterator@V?$_List_val@U?$_List_simple_types@USTextLine@CPythonEventManager@@@std@@@std@@@std@@QAEAAV01@XZ ; std::_List_iterator<std::_List_val<std::_List_simple_types<CPythonEventManager::STextLine> > >::operator++
PUBLIC	??8?$_List_const_iterator@V?$_List_val@U?$_List_simple_types@USTextLine@CPythonEventManager@@@std@@@std@@@std@@QBE_NABV01@@Z ; std::_List_const_iterator<std::_List_val<std::_List_simple_types<CPythonEventManager::STextLine> > >::operator==
PUBLIC	??0?$vector@PAUSEventSet@CPythonEventManager@@V?$allocator@PAUSEventSet@CPythonEventManager@@@std@@@std@@QAE@XZ ; std::vector<CPythonEventManager::SEventSet *,std::allocator<CPythonEventManager::SEventSet *> >::vector<CPythonEventManager::SEventSet *,std::allocator<CPythonEventManager::SEventSet *> >
PUBLIC	??1?$vector@PAUSEventSet@CPythonEventManager@@V?$allocator@PAUSEventSet@CPythonEventManager@@@std@@@std@@QAE@XZ ; std::vector<CPythonEventManager::SEventSet *,std::allocator<CPythonEventManager::SEventSet *> >::~vector<CPythonEventManager::SEventSet *,std::allocator<CPythonEventManager::SEventSet *> >
PUBLIC	?push_back@?$vector@PAUSEventSet@CPythonEventManager@@V?$allocator@PAUSEventSet@CPythonEventManager@@@std@@@std@@QAEX$$QAPAUSEventSet@CPythonEventManager@@@Z ; std::vector<CPythonEventManager::SEventSet *,std::allocator<CPythonEventManager::SEventSet *> >::push_back
PUBLIC	?clear@?$vector@PAUSEventSet@CPythonEventManager@@V?$allocator@PAUSEventSet@CPythonEventManager@@@std@@@std@@QAEXXZ ; std::vector<CPythonEventManager::SEventSet *,std::allocator<CPythonEventManager::SEventSet *> >::clear
PUBLIC	?size@?$vector@PAUSEventSet@CPythonEventManager@@V?$allocator@PAUSEventSet@CPythonEventManager@@@std@@@std@@QBEIXZ ; std::vector<CPythonEventManager::SEventSet *,std::allocator<CPythonEventManager::SEventSet *> >::size
PUBLIC	??A?$vector@PAUSEventSet@CPythonEventManager@@V?$allocator@PAUSEventSet@CPythonEventManager@@@std@@@std@@QAEAAPAUSEventSet@CPythonEventManager@@I@Z ; std::vector<CPythonEventManager::SEventSet *,std::allocator<CPythonEventManager::SEventSet *> >::operator[]
PUBLIC	??0?$CDynamicPool@USEventSet@CPythonEventManager@@@@QAE@XZ ; CDynamicPool<CPythonEventManager::SEventSet>::CDynamicPool<CPythonEventManager::SEventSet>
PUBLIC	??1?$CDynamicPool@USEventSet@CPythonEventManager@@@@UAE@XZ ; CDynamicPool<CPythonEventManager::SEventSet>::~CDynamicPool<CPythonEventManager::SEventSet>
PUBLIC	?Clear@?$CDynamicPool@USEventSet@CPythonEventManager@@@@QAEXXZ ; CDynamicPool<CPythonEventManager::SEventSet>::Clear
PUBLIC	?Alloc@?$CDynamicPool@USEventSet@CPythonEventManager@@@@QAEPAUSEventSet@CPythonEventManager@@XZ ; CDynamicPool<CPythonEventManager::SEventSet>::Alloc
PUBLIC	?Free@?$CDynamicPool@USEventSet@CPythonEventManager@@@@QAEXPAUSEventSet@CPythonEventManager@@@Z ; CDynamicPool<CPythonEventManager::SEventSet>::Free
PUBLIC	??1?$map@V?$basic_string@DU?$char_traits@D@std@@V?$allocator@D@2@@std@@HU?$less@V?$basic_string@DU?$char_traits@D@std@@V?$allocator@D@2@@std@@@2@V?$allocator@U?$pair@$$CBV?$basic_string@DU?$char_traits@D@std@@V?$allocator@D@2@@std@@H@std@@@2@@std@@QAE@XZ ; std::map<std::basic_string<char,std::char_traits<char>,std::allocator<char> >,int,std::less<std::basic_string<char,std::char_traits<char>,std::allocator<char> > >,std::allocator<std::pair<std::basic_string<char,std::char_traits<char>,std::allocator<char> > const ,int> > >::~map<std::basic_string<char,std::char_traits<char>,std::allocator<char> >,int,std::less<std::basic_string<char,std::char_traits<char>,std::allocator<char> > >,std::allocator<std::pair<std::basic_string<char,std::char_traits<char>,std::allocator<char> > const ,int> > >
PUBLIC	??_GCPythonEventManager@@UAEPAXI@Z		; CPythonEventManager::`scalar deleting destructor'
PUBLIC	?GetTotalLineCount@CPythonEventManager@@QAEHH@Z	; CPythonEventManager::GetTotalLineCount
PUBLIC	?AllProcessEventSet@CPythonEventManager@@QAEXH@Z ; CPythonEventManager::AllProcessEventSet
PUBLIC	?GetProcessedLineCount@CPythonEventManager@@QAEHH@Z ; CPythonEventManager::GetProcessedLineCount
PUBLIC	?SetYPosition@CPythonEventManager@@QAEXHH@Z	; CPythonEventManager::SetYPosition
PUBLIC	?GetLineHeight@CPythonEventManager@@QAEHH@Z	; CPythonEventManager::GetLineHeight
PUBLIC	?SetLeftTimeString@CPythonEventManager@@QAEXPBD@Z ; CPythonEventManager::SetLeftTimeString
PUBLIC	?SetInterfaceWindow@CPythonEventManager@@QAEXPAU_object@@@Z ; CPythonEventManager::SetInterfaceWindow
PUBLIC	?CheckEventSetIndex@CPythonEventManager@@IAE_NH@Z ; CPythonEventManager::CheckEventSetIndex
PUBLIC	?GetScriptEventIndex@CPythonEventManager@@IAE_NPBDPAH1@Z ; CPythonEventManager::GetScriptEventIndex
PUBLIC	?__AddSpace@CPythonEventManager@@IAEXAAUSEventSet@1@H@Z ; CPythonEventManager::__AddSpace
PUBLIC	?RefreshLinePosition@CPythonEventManager@@IAEXPAUSEventSet@1@@Z ; CPythonEventManager::RefreshLinePosition
PUBLIC	?__InsertLine@CPythonEventManager@@IAEXAAUSEventSet@1@HH@Z ; CPythonEventManager::__InsertLine
PUBLIC	?ClearLine@CPythonEventManager@@IAEXPAUSEventSet@1@@Z ; CPythonEventManager::ClearLine
PUBLIC	?GetLineCount@CPythonEventManager@@QAEHH@Z	; CPythonEventManager::GetLineCount
PUBLIC	?GetVisibleStartLine@CPythonEventManager@@QAEHH@Z ; CPythonEventManager::GetVisibleStartLine
PUBLIC	?SetVisibleLineCount@CPythonEventManager@@QAEXHH@Z ; CPythonEventManager::SetVisibleLineCount
PUBLIC	?SetVisibleStartLine@CPythonEventManager@@QAEXHH@Z ; CPythonEventManager::SetVisibleStartLine
PUBLIC	?SelectAnswer@CPythonEventManager@@QAEXHH@Z	; CPythonEventManager::SelectAnswer
PUBLIC	?MakeQuestion@CPythonEventManager@@IAEXPAUSEventSet@1@AAV?$list@USArgumet@script@@V?$allocator@USArgumet@script@@@std@@@std@@@Z ; CPythonEventManager::MakeQuestion
PUBLIC	?MakeNextButton@CPythonEventManager@@IAEXPAUSEventSet@1@H@Z ; CPythonEventManager::MakeNextButton
PUBLIC	?EndEventProcess@CPythonEventManager@@QAEXH@Z	; CPythonEventManager::EndEventProcess
PUBLIC	?IsWait@CPythonEventManager@@QAE_NH@Z		; CPythonEventManager::IsWait
PUBLIC	?Skip@CPythonEventManager@@QAEXH@Z		; CPythonEventManager::Skip
PUBLIC	?RenderEventSet@CPythonEventManager@@QAEXH@Z	; CPythonEventManager::RenderEventSet
PUBLIC	?ProcessEventSet@CPythonEventManager@@IAE_NPAUSEventSet@1@@Z ; CPythonEventManager::ProcessEventSet
PUBLIC	?SetEventSetWidth@CPythonEventManager@@QAEXHH@Z	; CPythonEventManager::SetEventSetWidth
PUBLIC	?UpdateEventSet@CPythonEventManager@@QAEXHHH@Z	; CPythonEventManager::UpdateEventSet
PUBLIC	?InsertText@CPythonEventManager@@QAEXHPBDH@Z	; CPythonEventManager::InsertText
PUBLIC	?AddEventSetLocalYPosition@CPythonEventManager@@QAEXHH@Z ; CPythonEventManager::AddEventSetLocalYPosition
PUBLIC	?GetEventSetLocalYPosition@CPythonEventManager@@QAEHH@Z ; CPythonEventManager::GetEventSetLocalYPosition
PUBLIC	?SetEventHandler@CPythonEventManager@@QAEXHPAU_object@@@Z ; CPythonEventManager::SetEventHandler
PUBLIC	?SetRestrictedCount@CPythonEventManager@@QAEXHH@Z ; CPythonEventManager::SetRestrictedCount
PUBLIC	?GetEmptyEventSetSlot@CPythonEventManager@@IAEKXZ ; CPythonEventManager::GetEmptyEventSetSlot
PUBLIC	?__ClearEventSetp@CPythonEventManager@@QAEXPAUSEventSet@1@@Z ; CPythonEventManager::__ClearEventSetp
PUBLIC	?ClearEventSeti@CPythonEventManager@@QAEXH@Z	; CPythonEventManager::ClearEventSeti
PUBLIC	??1SCmd@script@@QAE@XZ				; script::SCmd::~SCmd
PUBLIC	?RegisterEventSetFromString@CPythonEventManager@@QAEHABV?$basic_string@DU?$char_traits@D@std@@V?$allocator@D@2@@std@@@Z ; CPythonEventManager::RegisterEventSetFromString
PUBLIC	?RegisterEventSet@CPythonEventManager@@QAEHPBD@Z ; CPythonEventManager::RegisterEventSet
PUBLIC	?__InitEventSet@CPythonEventManager@@IAEXAAUSEventSet@1@@Z ; CPythonEventManager::__InitEventSet
PUBLIC	?GetCameraSettingFromArgList@@YAXAAV?$list@USArgumet@script@@V?$allocator@USArgumet@script@@@std@@@std@@PAUSCameraSetting@IAbstractApplication@@@Z ; GetCameraSettingFromArgList
PUBLIC	?GetArgument@@YAPBDPBDAAV?$list@USArgumet@script@@V?$allocator@USArgumet@script@@@std@@@std@@@Z ; GetArgument
PUBLIC	?GetArgumentString@@YAABV?$basic_string@DU?$char_traits@D@std@@V?$allocator@D@2@@std@@PBDAAV?$list@USArgumet@script@@V?$allocator@USArgumet@script@@@std@@@2@@Z ; GetArgumentString
PUBLIC	??_GSEventSet@CPythonEventManager@@UAEPAXI@Z	; CPythonEventManager::SEventSet::`scalar deleting destructor'
PUBLIC	??1SEventSet@CPythonEventManager@@UAE@XZ	; CPythonEventManager::SEventSet::~SEventSet
PUBLIC	??0SEventSet@CPythonEventManager@@QAE@XZ	; CPythonEventManager::SEventSet::SEventSet
PUBLIC	??0SCmd@script@@QAE@XZ				; script::SCmd::SCmd
PUBLIC	??0CPythonEventManager@@QAE@XZ			; CPythonEventManager::CPythonEventManager
PUBLIC	??1CPythonEventManager@@UAE@XZ			; CPythonEventManager::~CPythonEventManager
PUBLIC	?Destroy@CPythonEventManager@@QAEXXZ		; CPythonEventManager::Destroy
EXTRN	??_E?$CDynamicPool@VCGraphicTextInstance@@@@UAEPAXI@Z:PROC ; CDynamicPool<CGraphicTextInstance>::`vector deleting destructor'
EXTRN	??_ECPythonEventManager@@UAEPAXI@Z:PROC		; CPythonEventManager::`vector deleting destructor'
EXTRN	??_E?$CSingleton@VCPythonEventManager@@@@UAEPAXI@Z:PROC ; CSingleton<CPythonEventManager>::`vector deleting destructor'
EXTRN	??_ESEventSet@CPythonEventManager@@UAEPAXI@Z:PROC ; CPythonEventManager::SEventSet::`vector deleting destructor'
EXTRN	??_E?$CDynamicPool@USEventSet@CPythonEventManager@@@@UAEPAXI@Z:PROC ; CDynamicPool<CPythonEventManager::SEventSet>::`vector deleting destructor'
;	COMDAT ?$TSS0@?1??GetArgumentString@@YAABV?$basic_string@DU?$char_traits@D@std@@V?$allocator@D@2@@std@@PBDAAV?$list@USArgumet@script@@V?$allocator@USArgumet@script@@@std@@@3@@Z@4HA
_BSS	SEGMENT
?$TSS0@?1??GetArgumentString@@YAABV?$basic_string@DU?$char_traits@D@std@@V?$allocator@D@2@@std@@PBDAAV?$list@USArgumet@script@@V?$allocator@USArgumet@script@@@std@@@3@@Z@4HA DD 01H DUP (?) ; `GetArgumentString'::`2'::$TSS0
_BSS	ENDS
;	COMDAT xdata$x
xdata$x	SEGMENT
__ehfuncinfo$??0CPythonEventManager@@QAE@XZ DQ 00000003019930522r ; 1.02068e-312
	DD	FLAT:__unwindtable$??0CPythonEventManager@@QAE@XZ
	DQ	00000000000000000r		; 0
	DQ	00000000000000000r		; 0
	DQ	00000000100000000r		; 2.122e-314
	ORG $+4
__unwindtable$??0CPythonEventManager@@QAE@XZ DD 0ffffffffH
	DD	FLAT:__unwindfunclet$??0CPythonEventManager@@QAE@XZ$0
	DD	00H
	DD	FLAT:__unwindfunclet$??0CPythonEventManager@@QAE@XZ$1
	DD	01H
	DD	FLAT:__unwindfunclet$??0CPythonEventManager@@QAE@XZ$2
	DD	02H
	DD	FLAT:__unwindfunclet$??0CPythonEventManager@@QAE@XZ$3
	DD	03H
	DD	FLAT:__unwindfunclet$??0CPythonEventManager@@QAE@XZ$4
	DD	04H
	DD	FLAT:__unwindfunclet$??0CPythonEventManager@@QAE@XZ$5
	DD	05H
	DD	FLAT:__unwindfunclet$??0CPythonEventManager@@QAE@XZ$6
	DD	05H
	DD	FLAT:__unwindfunclet$??0CPythonEventManager@@QAE@XZ$7
	DD	05H
	DD	FLAT:__unwindfunclet$??0CPythonEventManager@@QAE@XZ$8
	DD	05H
	DD	FLAT:__unwindfunclet$??0CPythonEventManager@@QAE@XZ$9
	DD	05H
	DD	FLAT:__unwindfunclet$??0CPythonEventManager@@QAE@XZ$10
	DD	05H
	DD	FLAT:__unwindfunclet$??0CPythonEventManager@@QAE@XZ$11
	DD	05H
	DD	FLAT:__unwindfunclet$??0CPythonEventManager@@QAE@XZ$12
	DD	05H
	DD	FLAT:__unwindfunclet$??0CPythonEventManager@@QAE@XZ$13
	DD	05H
	DD	FLAT:__unwindfunclet$??0CPythonEventManager@@QAE@XZ$14
	DD	05H
	DD	FLAT:__unwindfunclet$??0CPythonEventManager@@QAE@XZ$15
	DD	05H
	DD	FLAT:__unwindfunclet$??0CPythonEventManager@@QAE@XZ$16
	DD	05H
	DD	FLAT:__unwindfunclet$??0CPythonEventManager@@QAE@XZ$17
	DD	05H
	DD	FLAT:__unwindfunclet$??0CPythonEventManager@@QAE@XZ$18
	DD	05H
	DD	FLAT:__unwindfunclet$??0CPythonEventManager@@QAE@XZ$19
	DD	05H
	DD	FLAT:__unwindfunclet$??0CPythonEventManager@@QAE@XZ$20
	DD	05H
	DD	FLAT:__unwindfunclet$??0CPythonEventManager@@QAE@XZ$21
	DD	05H
	DD	FLAT:__unwindfunclet$??0CPythonEventManager@@QAE@XZ$22
	DD	05H
	DD	FLAT:__unwindfunclet$??0CPythonEventManager@@QAE@XZ$23
	DD	05H
	DD	FLAT:__unwindfunclet$??0CPythonEventManager@@QAE@XZ$24
	DD	05H
	DD	FLAT:__unwindfunclet$??0CPythonEventManager@@QAE@XZ$25
	DD	05H
	DD	FLAT:__unwindfunclet$??0CPythonEventManager@@QAE@XZ$26
	DD	05H
	DD	FLAT:__unwindfunclet$??0CPythonEventManager@@QAE@XZ$27
	DD	05H
	DD	FLAT:__unwindfunclet$??0CPythonEventManager@@QAE@XZ$28
	DD	05H
	DD	FLAT:__unwindfunclet$??0CPythonEventManager@@QAE@XZ$29
	DD	05H
	DD	FLAT:__unwindfunclet$??0CPythonEventManager@@QAE@XZ$30
	DD	05H
	DD	FLAT:__unwindfunclet$??0CPythonEventManager@@QAE@XZ$31
	DD	05H
	DD	FLAT:__unwindfunclet$??0CPythonEventManager@@QAE@XZ$32
	DD	05H
	DD	FLAT:__unwindfunclet$??0CPythonEventManager@@QAE@XZ$33
	DD	05H
	DD	FLAT:__unwindfunclet$??0CPythonEventManager@@QAE@XZ$34
	DD	05H
	DD	FLAT:__unwindfunclet$??0CPythonEventManager@@QAE@XZ$35
	DD	05H
	DD	FLAT:__unwindfunclet$??0CPythonEventManager@@QAE@XZ$36
	DD	05H
	DD	FLAT:__unwindfunclet$??0CPythonEventManager@@QAE@XZ$37
	DD	05H
	DD	FLAT:__unwindfunclet$??0CPythonEventManager@@QAE@XZ$38
	DD	05H
	DD	FLAT:__unwindfunclet$??0CPythonEventManager@@QAE@XZ$39
	DD	05H
	DD	FLAT:__unwindfunclet$??0CPythonEventManager@@QAE@XZ$40
	DD	05H
	DD	FLAT:__unwindfunclet$??0CPythonEventManager@@QAE@XZ$41
	DD	05H
	DD	FLAT:__unwindfunclet$??0CPythonEventManager@@QAE@XZ$42
	DD	05H
	DD	FLAT:__unwindfunclet$??0CPythonEventManager@@QAE@XZ$43
	DD	05H
	DD	FLAT:__unwindfunclet$??0CPythonEventManager@@QAE@XZ$44
	DD	05H
	DD	FLAT:__unwindfunclet$??0CPythonEventManager@@QAE@XZ$45
	DD	05H
	DD	FLAT:__unwindfunclet$??0CPythonEventManager@@QAE@XZ$46
	DD	05H
	DD	FLAT:__unwindfunclet$??0CPythonEventManager@@QAE@XZ$47
xdata$x	ENDS
;	COMDAT xdata$x
xdata$x	SEGMENT
__ehfuncinfo$??0SCmd@script@@QAE@XZ DQ 00000000119930522r ; 2.33398e-314
	DD	FLAT:__unwindtable$??0SCmd@script@@QAE@XZ
	DQ	00000000000000000r		; 0
	DQ	00000000000000000r		; 0
	DQ	00000000100000000r		; 2.122e-314
__unwindtable$??0SCmd@script@@QAE@XZ DD 0ffffffffH
	DD	FLAT:__unwindfunclet$??0SCmd@script@@QAE@XZ$0
xdata$x	ENDS
;	COMDAT xdata$x
xdata$x	SEGMENT
__ehfuncinfo$??0SEventSet@CPythonEventManager@@QAE@XZ DQ 00000000219930522r ; 4.45598e-314
	DD	FLAT:__unwindtable$??0SEventSet@CPythonEventManager@@QAE@XZ
	DQ	00000000000000000r		; 0
	DQ	00000000000000000r		; 0
	DQ	00000000100000000r		; 2.122e-314
__unwindtable$??0SEventSet@CPythonEventManager@@QAE@XZ DD 0ffffffffH
	DD	FLAT:__unwindfunclet$??0SEventSet@CPythonEventManager@@QAE@XZ$0
	DD	00H
	DD	FLAT:__unwindfunclet$??0SEventSet@CPythonEventManager@@QAE@XZ$1
xdata$x	ENDS
;	COMDAT xdata$x
xdata$x	SEGMENT
__ehfuncinfo$?RegisterEventSet@CPythonEventManager@@QAEHPBD@Z DQ 00000000219930522r ; 4.45598e-314
	DD	FLAT:__unwindtable$?RegisterEventSet@CPythonEventManager@@QAEHPBD@Z
	DQ	00000000000000000r		; 0
	DQ	00000000000000000r		; 0
	DQ	00000000100000000r		; 2.122e-314
__unwindtable$?RegisterEventSet@CPythonEventManager@@QAEHPBD@Z DD 0ffffffffH
	DD	FLAT:__unwindfunclet$?RegisterEventSet@CPythonEventManager@@QAEHPBD@Z$0
	DD	00H
	DD	FLAT:__unwindfunclet$?RegisterEventSet@CPythonEventManager@@QAEHPBD@Z$1
xdata$x	ENDS
;	COMDAT xdata$x
xdata$x	SEGMENT
__ehfuncinfo$?RegisterEventSetFromString@CPythonEventManager@@QAEHABV?$basic_string@DU?$char_traits@D@std@@V?$allocator@D@2@@std@@@Z DQ 00000000319930522r ; 6.57797e-314
	DD	FLAT:__unwindtable$?RegisterEventSetFromString@CPythonEventManager@@QAEHABV?$basic_string@DU?$char_traits@D@std@@V?$allocator@D@2@@std@@@Z
	DQ	00000000000000000r		; 0
	DQ	00000000000000000r		; 0
	DQ	00000000100000000r		; 2.122e-314
__unwindtable$?RegisterEventSetFromString@CPythonEventManager@@QAEHABV?$basic_string@DU?$char_traits@D@std@@V?$allocator@D@2@@std@@@Z DD 0ffffffffH
	DD	FLAT:__unwindfunclet$?RegisterEventSetFromString@CPythonEventManager@@QAEHABV?$basic_string@DU?$char_traits@D@std@@V?$allocator@D@2@@std@@@Z$2
	DD	0ffffffffH
	DD	FLAT:__unwindfunclet$?RegisterEventSetFromString@CPythonEventManager@@QAEHABV?$basic_string@DU?$char_traits@D@std@@V?$allocator@D@2@@std@@@Z$0
	DD	01H
	DD	FLAT:__unwindfunclet$?RegisterEventSetFromString@CPythonEventManager@@QAEHABV?$basic_string@DU?$char_traits@D@std@@V?$allocator@D@2@@std@@@Z$1
xdata$x	ENDS
;	COMDAT xdata$x
xdata$x	SEGMENT
__ehfuncinfo$?ProcessEventSet@CPythonEventManager@@IAE_NPAUSEventSet@1@@Z DD 019930522H
	DD	02H
	DD	FLAT:__unwindtable$?ProcessEventSet@CPythonEventManager@@IAE_NPAUSEventSet@1@@Z
	DD	2 DUP(00H)
	DD	2 DUP(00H)
	DD	00H
	DD	01H
__unwindtable$?ProcessEventSet@CPythonEventManager@@IAE_NPAUSEventSet@1@@Z DD 0ffffffffH
	DD	FLAT:__unwindfunclet$?ProcessEventSet@CPythonEventManager@@IAE_NPAUSEventSet@1@@Z$3
	DD	0ffffffffH
	DD	FLAT:__unwindfunclet$?ProcessEventSet@CPythonEventManager@@IAE_NPAUSEventSet@1@@Z$0
xdata$x	ENDS
;	COMDAT xdata$x
xdata$x	SEGMENT
__ehfuncinfo$?__InsertLine@CPythonEventManager@@IAEXAAUSEventSet@1@HH@Z DQ 00000000219930522r ; 4.45598e-314
	DD	FLAT:__unwindtable$?__InsertLine@CPythonEventManager@@IAEXAAUSEventSet@1@HH@Z
	DQ	00000000000000000r		; 0
	DQ	00000000000000000r		; 0
	DQ	00000000100000000r		; 2.122e-314
__unwindtable$?__InsertLine@CPythonEventManager@@IAEXAAUSEventSet@1@HH@Z DD 0ffffffffH
	DD	FLAT:__unwindfunclet$?__InsertLine@CPythonEventManager@@IAEXAAUSEventSet@1@HH@Z$1
	DD	0ffffffffH
	DD	FLAT:__unwindfunclet$?__InsertLine@CPythonEventManager@@IAEXAAUSEventSet@1@HH@Z$3
xdata$x	ENDS
;	COMDAT xdata$x
xdata$x	SEGMENT
__ehfuncinfo$?Alloc@?$CDynamicPool@USEventSet@CPythonEventManager@@@@QAEPAUSEventSet@CPythonEventManager@@XZ DQ 00000000319930522r ; 6.57797e-314
	DD	FLAT:__unwindtable$?Alloc@?$CDynamicPool@USEventSet@CPythonEventManager@@@@QAEPAUSEventSet@CPythonEventManager@@XZ
	DQ	00000000000000000r		; 0
	DQ	00000000000000000r		; 0
	DQ	00000000100000000r		; 2.122e-314
__unwindtable$?Alloc@?$CDynamicPool@USEventSet@CPythonEventManager@@@@QAEPAUSEventSet@CPythonEventManager@@XZ DD 0ffffffffH
	DD	FLAT:__unwindfunclet$?Alloc@?$CDynamicPool@USEventSet@CPythonEventManager@@@@QAEPAUSEventSet@CPythonEventManager@@XZ$0
	DD	00H
	DD	FLAT:__unwindfunclet$?Alloc@?$CDynamicPool@USEventSet@CPythonEventManager@@@@QAEPAUSEventSet@CPythonEventManager@@XZ$1
	DD	01H
	DD	FLAT:__unwindfunclet$?Alloc@?$CDynamicPool@USEventSet@CPythonEventManager@@@@QAEPAUSEventSet@CPythonEventManager@@XZ$2
xdata$x	ENDS
;	COMDAT xdata$x
xdata$x	SEGMENT
__ehfuncinfo$??A?$map@V?$basic_string@DU?$char_traits@D@std@@V?$allocator@D@2@@std@@HU?$less@V?$basic_string@DU?$char_traits@D@std@@V?$allocator@D@2@@std@@@2@V?$allocator@U?$pair@$$CBV?$basic_string@DU?$char_traits@D@std@@V?$allocator@D@2@@std@@H@std@@@2@@std@@QAEAAH$$QAV?$basic_string@DU?$char_traits@D@std@@V?$allocator@D@2@@1@@Z DQ 00000000119930522r ; 2.33398e-314
	DD	FLAT:__unwindtable$??A?$map@V?$basic_string@DU?$char_traits@D@std@@V?$allocator@D@2@@std@@HU?$less@V?$basic_string@DU?$char_traits@D@std@@V?$allocator@D@2@@std@@@2@V?$allocator@U?$pair@$$CBV?$basic_string@DU?$char_traits@D@std@@V?$allocator@D@2@@std@@H@std@@@2@@std@@QAEAAH$$QAV?$basic_string@DU?$char_traits@D@std@@V?$allocator@D@2@@1@@Z
	DQ	00000000000000000r		; 0
	DQ	00000000000000000r		; 0
	DQ	00000000100000000r		; 2.122e-314
__unwindtable$??A?$map@V?$basic_string@DU?$char_traits@D@std@@V?$allocator@D@2@@std@@HU?$less@V?$basic_string@DU?$char_traits@D@std@@V?$allocator@D@2@@std@@@2@V?$allocator@U?$pair@$$CBV?$basic_string@DU?$char_traits@D@std@@V?$allocator@D@2@@std@@H@std@@@2@@std@@QAEAAH$$QAV?$basic_string@DU?$char_traits@D@std@@V?$allocator@D@2@@1@@Z DD 0ffffffffH
	DD	FLAT:__unwindfunclet$??A?$map@V?$basic_string@DU?$char_traits@D@std@@V?$allocator@D@2@@std@@HU?$less@V?$basic_string@DU?$char_traits@D@std@@V?$allocator@D@2@@std@@@2@V?$allocator@U?$pair@$$CBV?$basic_string@DU?$char_traits@D@std@@V?$allocator@D@2@@std@@H@std@@@2@@std@@QAEAAH$$QAV?$basic_string@DU?$char_traits@D@std@@V?$allocator@D@2@@1@@Z$2
xdata$x	ENDS
;	COMDAT xdata$x
xdata$x	SEGMENT
__ehfuncinfo$?push_back@?$list@USTextLine@CPythonEventManager@@V?$allocator@USTextLine@CPythonEventManager@@@std@@@std@@QAEXABUSTextLine@CPythonEventManager@@@Z DQ 00000000119930522r ; 2.33398e-314
	DD	FLAT:__unwindtable$?push_back@?$list@USTextLine@CPythonEventManager@@V?$allocator@USTextLine@CPythonEventManager@@@std@@@std@@QAEXABUSTextLine@CPythonEventManager@@@Z
	DQ	00000000000000000r		; 0
	DQ	00000000000000000r		; 0
	DQ	00000000100000000r		; 2.122e-314
__unwindtable$?push_back@?$list@USTextLine@CPythonEventManager@@V?$allocator@USTextLine@CPythonEventManager@@@std@@@std@@QAEXABUSTextLine@CPythonEventManager@@@Z DD 0ffffffffH
	DD	FLAT:__unwindfunclet$?push_back@?$list@USTextLine@CPythonEventManager@@V?$allocator@USTextLine@CPythonEventManager@@@std@@@std@@QAEXABUSTextLine@CPythonEventManager@@@Z$1
xdata$x	ENDS
;	COMDAT xdata$x
xdata$x	SEGMENT
__ehfuncinfo$?Alloc@?$CDynamicPool@VCGraphicTextInstance@@@@QAEPAVCGraphicTextInstance@@XZ DQ 00000000119930522r ; 2.33398e-314
	DD	FLAT:__unwindtable$?Alloc@?$CDynamicPool@VCGraphicTextInstance@@@@QAEPAVCGraphicTextInstance@@XZ
	DQ	00000000000000000r		; 0
	DQ	00000000000000000r		; 0
	DQ	00000000100000000r		; 2.122e-314
__unwindtable$?Alloc@?$CDynamicPool@VCGraphicTextInstance@@@@QAEPAVCGraphicTextInstance@@XZ DD 0ffffffffH
	DD	FLAT:__unwindfunclet$?Alloc@?$CDynamicPool@VCGraphicTextInstance@@@@QAEPAVCGraphicTextInstance@@XZ$0
xdata$x	ENDS
;	COMDAT xdata$x
xdata$x	SEGMENT
__ehfuncinfo$??$_Try_emplace@V?$basic_string@DU?$char_traits@D@std@@V?$allocator@D@2@@std@@$$V@?$map@V?$basic_string@DU?$char_traits@D@std@@V?$allocator@D@2@@std@@HU?$less@V?$basic_string@DU?$char_traits@D@std@@V?$allocator@D@2@@std@@@2@V?$allocator@U?$pair@$$CBV?$basic_string@DU?$char_traits@D@std@@V?$allocator@D@2@@std@@H@std@@@2@@std@@AAE?AU?$pair@PAU?$_Tree_node@U?$pair@$$CBV?$basic_string@DU?$char_traits@D@std@@V?$allocator@D@2@@std@@H@std@@PAX@std@@_N@1@$$QAV?$basic_string@DU?$char_traits@D@std@@V?$allocator@D@2@@1@@Z DQ 00000000119930522r ; 2.33398e-314
	DD	FLAT:__unwindtable$??$_Try_emplace@V?$basic_string@DU?$char_traits@D@std@@V?$allocator@D@2@@std@@$$V@?$map@V?$basic_string@DU?$char_traits@D@std@@V?$allocator@D@2@@std@@HU?$less@V?$basic_string@DU?$char_traits@D@std@@V?$allocator@D@2@@std@@@2@V?$allocator@U?$pair@$$CBV?$basic_string@DU?$char_traits@D@std@@V?$allocator@D@2@@std@@H@std@@@2@@std@@AAE?AU?$pair@PAU?$_Tree_node@U?$pair@$$CBV?$basic_string@DU?$char_traits@D@std@@V?$allocator@D@2@@std@@H@std@@PAX@std@@_N@1@$$QAV?$basic_string@DU?$char_traits@D@std@@V?$allocator@D@2@@1@@Z
	DQ	00000000000000000r		; 0
	DQ	00000000000000000r		; 0
	DQ	00000000100000000r		; 2.122e-314
__unwindtable$??$_Try_emplace@V?$basic_string@DU?$char_traits@D@std@@V?$allocator@D@2@@std@@$$V@?$map@V?$basic_string@DU?$char_traits@D@std@@V?$allocator@D@2@@std@@HU?$less@V?$basic_string@DU?$char_traits@D@std@@V?$allocator@D@2@@std@@@2@V?$allocator@U?$pair@$$CBV?$basic_string@DU?$char_traits@D@std@@V?$allocator@D@2@@std@@H@std@@@2@@std@@AAE?AU?$pair@PAU?$_Tree_node@U?$pair@$$CBV?$basic_string@DU?$char_traits@D@std@@V?$allocator@D@2@@std@@H@std@@PAX@std@@_N@1@$$QAV?$basic_string@DU?$char_traits@D@std@@V?$allocator@D@2@@1@@Z DD 0ffffffffH
	DD	FLAT:__unwindfunclet$??$_Try_emplace@V?$basic_string@DU?$char_traits@D@std@@V?$allocator@D@2@@std@@$$V@?$map@V?$basic_string@DU?$char_traits@D@std@@V?$allocator@D@2@@std@@HU?$less@V?$basic_string@DU?$char_traits@D@std@@V?$allocator@D@2@@std@@@2@V?$allocator@U?$pair@$$CBV?$basic_string@DU?$char_traits@D@std@@V?$allocator@D@2@@std@@H@std@@@2@@std@@AAE?AU?$pair@PAU?$_Tree_node@U?$pair@$$CBV?$basic_string@DU?$char_traits@D@std@@V?$allocator@D@2@@std@@H@std@@PAX@std@@_N@1@$$QAV?$basic_string@DU?$char_traits@D@std@@V?$allocator@D@2@@1@@Z$2
xdata$x	ENDS
;	COMDAT xdata$x
xdata$x	SEGMENT
__ehfuncinfo$??$_Emplace@ABUSTextLine@CPythonEventManager@@@?$list@USTextLine@CPythonEventManager@@V?$allocator@USTextLine@CPythonEventManager@@@std@@@std@@QAEPAU?$_List_node@USTextLine@CPythonEventManager@@PAX@1@QAU21@ABUSTextLine@CPythonEventManager@@@Z DQ 00000000119930522r ; 2.33398e-314
	DD	FLAT:__unwindtable$??$_Emplace@ABUSTextLine@CPythonEventManager@@@?$list@USTextLine@CPythonEventManager@@V?$allocator@USTextLine@CPythonEventManager@@@std@@@std@@QAEPAU?$_List_node@USTextLine@CPythonEventManager@@PAX@1@QAU21@ABUSTextLine@CPythonEventManager@@@Z
	DQ	00000000000000000r		; 0
	DQ	00000000000000000r		; 0
	DQ	00000000100000000r		; 2.122e-314
__unwindtable$??$_Emplace@ABUSTextLine@CPythonEventManager@@@?$list@USTextLine@CPythonEventManager@@V?$allocator@USTextLine@CPythonEventManager@@@std@@@std@@QAEPAU?$_List_node@USTextLine@CPythonEventManager@@PAX@1@QAU21@ABUSTextLine@CPythonEventManager@@@Z DD 0ffffffffH
	DD	FLAT:__unwindfunclet$??$_Emplace@ABUSTextLine@CPythonEventManager@@@?$list@USTextLine@CPythonEventManager@@V?$allocator@USTextLine@CPythonEventManager@@@std@@@std@@QAEPAU?$_List_node@USTextLine@CPythonEventManager@@PAX@1@QAU21@ABUSTextLine@CPythonEventManager@@@Z$1
xdata$x	ENDS
;	COMDAT xdata$x
xdata$x	SEGMENT
__ehfuncinfo$??$?0ABUpiecewise_construct_t@std@@V?$tuple@$$QAV?$basic_string@DU?$char_traits@D@std@@V?$allocator@D@2@@std@@@1@V?$tuple@$$V@1@@?$_Tree_temp_node@V?$allocator@U?$_Tree_node@U?$pair@$$CBV?$basic_string@DU?$char_traits@D@std@@V?$allocator@D@2@@std@@H@std@@PAX@std@@@std@@@std@@QAE@AAV?$allocator@U?$_Tree_node@U?$pair@$$CBV?$basic_string@DU?$char_traits@D@std@@V?$allocator@D@2@@std@@H@std@@PAX@std@@@1@PAU?$_Tree_node@U?$pair@$$CBV?$basic_string@DU?$char_traits@D@std@@V?$allocator@D@2@@std@@H@std@@PAX@1@ABUpiecewise_construct_t@1@$$QAV?$tuple@$$QAV?$basic_string@DU?$char_traits@D@std@@V?$allocator@D@2@@std@@@1@$$QAV?$tuple@$$V@1@@Z DQ 00000000119930522r ; 2.33398e-314
	DD	FLAT:__unwindtable$??$?0ABUpiecewise_construct_t@std@@V?$tuple@$$QAV?$basic_string@DU?$char_traits@D@std@@V?$allocator@D@2@@std@@@1@V?$tuple@$$V@1@@?$_Tree_temp_node@V?$allocator@U?$_Tree_node@U?$pair@$$CBV?$basic_string@DU?$char_traits@D@std@@V?$allocator@D@2@@std@@H@std@@PAX@std@@@std@@@std@@QAE@AAV?$allocator@U?$_Tree_node@U?$pair@$$CBV?$basic_string@DU?$char_traits@D@std@@V?$allocator@D@2@@std@@H@std@@PAX@std@@@1@PAU?$_Tree_node@U?$pair@$$CBV?$basic_string@DU?$char_traits@D@std@@V?$allocator@D@2@@std@@H@std@@PAX@1@ABUpiecewise_construct_t@1@$$QAV?$tuple@$$QAV?$basic_string@DU?$char_traits@D@std@@V?$allocator@D@2@@std@@@1@$$QAV?$tuple@$$V@1@@Z
	DQ	00000000000000000r		; 0
	DQ	00000000000000000r		; 0
	DQ	00000000100000000r		; 2.122e-314
__unwindtable$??$?0ABUpiecewise_construct_t@std@@V?$tuple@$$QAV?$basic_string@DU?$char_traits@D@std@@V?$allocator@D@2@@std@@@1@V?$tuple@$$V@1@@?$_Tree_temp_node@V?$allocator@U?$_Tree_node@U?$pair@$$CBV?$basic_string@DU?$char_traits@D@std@@V?$allocator@D@2@@std@@H@std@@PAX@std@@@std@@@std@@QAE@AAV?$allocator@U?$_Tree_node@U?$pair@$$CBV?$basic_string@DU?$char_traits@D@std@@V?$allocator@D@2@@std@@H@std@@PAX@std@@@1@PAU?$_Tree_node@U?$pair@$$CBV?$basic_string@DU?$char_traits@D@std@@V?$allocator@D@2@@std@@H@std@@PAX@1@ABUpiecewise_construct_t@1@$$QAV?$tuple@$$QAV?$basic_string@DU?$char_traits@D@std@@V?$allocator@D@2@@std@@@1@$$QAV?$tuple@$$V@1@@Z DD 0ffffffffH
	DD	FLAT:__unwindfunclet$??$?0ABUpiecewise_construct_t@std@@V?$tuple@$$QAV?$basic_string@DU?$char_traits@D@std@@V?$allocator@D@2@@std@@@1@V?$tuple@$$V@1@@?$_Tree_temp_node@V?$allocator@U?$_Tree_node@U?$pair@$$CBV?$basic_string@DU?$char_traits@D@std@@V?$allocator@D@2@@std@@H@std@@PAX@std@@@std@@@std@@QAE@AAV?$allocator@U?$_Tree_node@U?$pair@$$CBV?$basic_string@DU?$char_traits@D@std@@V?$allocator@D@2@@std@@H@std@@PAX@std@@@1@PAU?$_Tree_node@U?$pair@$$CBV?$basic_string@DU?$char_traits@D@std@@V?$allocator@D@2@@std@@H@std@@PAX@1@ABUpiecewise_construct_t@1@$$QAV?$tuple@$$QAV?$basic_string@DU?$char_traits@D@std@@V?$allocator@D@2@@std@@@1@$$QAV?$tuple@$$V@1@@Z$1
xdata$x	ENDS
;	COMDAT xdata$x
xdata$x	SEGMENT
__ehfuncinfo$??$?0ABUSTextLine@CPythonEventManager@@@?$_List_node_emplace_op2@V?$allocator@U?$_List_node@USTextLine@CPythonEventManager@@PAX@std@@@std@@@std@@QAE@AAV?$allocator@U?$_List_node@USTextLine@CPythonEventManager@@PAX@std@@@1@ABUSTextLine@CPythonEventManager@@@Z DQ 00000000119930522r ; 2.33398e-314
	DD	FLAT:__unwindtable$??$?0ABUSTextLine@CPythonEventManager@@@?$_List_node_emplace_op2@V?$allocator@U?$_List_node@USTextLine@CPythonEventManager@@PAX@std@@@std@@@std@@QAE@AAV?$allocator@U?$_List_node@USTextLine@CPythonEventManager@@PAX@std@@@1@ABUSTextLine@CPythonEventManager@@@Z
	DQ	00000000000000000r		; 0
	DQ	00000000000000000r		; 0
	DQ	00000000100000000r		; 2.122e-314
__unwindtable$??$?0ABUSTextLine@CPythonEventManager@@@?$_List_node_emplace_op2@V?$allocator@U?$_List_node@USTextLine@CPythonEventManager@@PAX@std@@@std@@@std@@QAE@AAV?$allocator@U?$_List_node@USTextLine@CPythonEventManager@@PAX@std@@@1@ABUSTextLine@CPythonEventManager@@@Z DD 0ffffffffH
	DD	FLAT:__unwindfunclet$??$?0ABUSTextLine@CPythonEventManager@@@?$_List_node_emplace_op2@V?$allocator@U?$_List_node@USTextLine@CPythonEventManager@@PAX@std@@@std@@@std@@QAE@AAV?$allocator@U?$_List_node@USTextLine@CPythonEventManager@@PAX@std@@@1@ABUSTextLine@CPythonEventManager@@@Z$0
xdata$x	ENDS
;	COMDAT xdata$x
xdata$x	SEGMENT
__ehfuncinfo$??0?$_Tree_temp_node_alloc@V?$allocator@U?$_Tree_node@U?$pair@$$CBV?$basic_string@DU?$char_traits@D@std@@V?$allocator@D@2@@std@@H@std@@PAX@std@@@std@@@std@@QAE@AAV?$allocator@U?$_Tree_node@U?$pair@$$CBV?$basic_string@DU?$char_traits@D@std@@V?$allocator@D@2@@std@@H@std@@PAX@std@@@1@@Z DQ 00000000119930522r ; 2.33398e-314
	DD	FLAT:__unwindtable$??0?$_Tree_temp_node_alloc@V?$allocator@U?$_Tree_node@U?$pair@$$CBV?$basic_string@DU?$char_traits@D@std@@V?$allocator@D@2@@std@@H@std@@PAX@std@@@std@@@std@@QAE@AAV?$allocator@U?$_Tree_node@U?$pair@$$CBV?$basic_string@DU?$char_traits@D@std@@V?$allocator@D@2@@std@@H@std@@PAX@std@@@1@@Z
	DQ	00000000000000000r		; 0
	DQ	00000000000000000r		; 0
	DQ	00000000100000000r		; 2.122e-314
__unwindtable$??0?$_Tree_temp_node_alloc@V?$allocator@U?$_Tree_node@U?$pair@$$CBV?$basic_string@DU?$char_traits@D@std@@V?$allocator@D@2@@std@@H@std@@PAX@std@@@std@@@std@@QAE@AAV?$allocator@U?$_Tree_node@U?$pair@$$CBV?$basic_string@DU?$char_traits@D@std@@V?$allocator@D@2@@std@@H@std@@PAX@std@@@1@@Z DD 0ffffffffH
	DD	FLAT:__unwindfunclet$??0?$_Tree_temp_node_alloc@V?$allocator@U?$_Tree_node@U?$pair@$$CBV?$basic_string@DU?$char_traits@D@std@@V?$allocator@D@2@@std@@H@std@@PAX@std@@@std@@@std@@QAE@AAV?$allocator@U?$_Tree_node@U?$pair@$$CBV?$basic_string@DU?$char_traits@D@std@@V?$allocator@D@2@@std@@H@std@@PAX@std@@@1@@Z$0
; Function compile flags: /Ogtp
; File C:\Program Files\Microsoft Visual Studio\2022\Community\VC\Tools\MSVC\14.44.35207\include\xstring
;	COMDAT ??__FstrEmptyValue@?1??GetArgumentString@@YAABV?$basic_string@DU?$char_traits@D@std@@V?$allocator@D@2@@std@@PBDAAV?$list@USArgumet@script@@V?$allocator@USArgumet@script@@@std@@@2@@Z@YAXXZ
text$yd	SEGMENT
??__FstrEmptyValue@?1??GetArgumentString@@YAABV?$basic_string@DU?$char_traits@D@std@@V?$allocator@D@2@@std@@PBDAAV?$list@USArgumet@script@@V?$allocator@USArgumet@script@@@std@@@2@@Z@YAXXZ PROC ; `GetArgumentString'::`2'::`dynamic atexit destructor for 'strEmptyValue'', COMDAT

; 1383 :         _Tidy_deallocate();

  00000	b9 00 00 00 00	 mov	 ecx, OFFSET ?strEmptyValue@?1??GetArgumentString@@YAABV?$basic_string@DU?$char_traits@D@std@@V?$allocator@D@2@@std@@PBDAAV?$list@USArgumet@script@@V?$allocator@USArgumet@script@@@std@@@3@@Z@4V23@A
  00005	e9 00 00 00 00	 jmp	 ?_Tidy_deallocate@?$basic_string@DU?$char_traits@D@std@@V?$allocator@D@2@@std@@AAEXXZ ; std::basic_string<char,std::char_traits<char>,std::allocator<char> >::_Tidy_deallocate
??__FstrEmptyValue@?1??GetArgumentString@@YAABV?$basic_string@DU?$char_traits@D@std@@V?$allocator@D@2@@std@@PBDAAV?$list@USArgumet@script@@V?$allocator@USArgumet@script@@@std@@@2@@Z@YAXXZ ENDP ; `GetArgumentString'::`2'::`dynamic atexit destructor for 'strEmptyValue''
text$yd	ENDS
; Function compile flags: /Ogtp
; File C:\Anka2Project\Anka2Project\Source\Binary\source\UserInterface\PythonEventManager.cpp
; File C:\Program Files\Microsoft Visual Studio\2022\Community\VC\Tools\MSVC\14.44.35207\include\xstring
; File C:\Anka2Project\Anka2Project\Source\Binary\source\UserInterface\PythonEventManager.cpp
; File C:\Anka2Project\Anka2Project\Source\Binary\source\eterBase\Singleton.h
; File C:\Anka2Project\Anka2Project\Source\Binary\source\UserInterface\PythonEventManager.cpp
;	COMDAT ?UpdateEventSet@CPythonEventManager@@QAEXHHH@Z
_TEXT	SEGMENT
_iIndex$ = 8						; size = 4
tv317 = 8						; size = 4
_ix$ = 12						; size = 4
_iy$ = 16						; size = 4
?UpdateEventSet@CPythonEventManager@@QAEXHHH@Z PROC	; CPythonEventManager::UpdateEventSet, COMDAT
; _this$ = ecx

; 332  : {

  00000	55		 push	 ebp
  00001	8b ec		 mov	 ebp, esp
  00003	53		 push	 ebx
  00004	57		 push	 edi

; 333  : 	if (!CheckEventSetIndex(iIndex))

  00005	8b 7d 08	 mov	 edi, DWORD PTR _iIndex$[ebp]
  00008	8b d9		 mov	 ebx, ecx
  0000a	57		 push	 edi
  0000b	e8 00 00 00 00	 call	 ?CheckEventSetIndex@CPythonEventManager@@IAE_NH@Z ; CPythonEventManager::CheckEventSetIndex
  00010	84 c0		 test	 al, al
  00012	0f 84 d8 00 00
	00		 je	 $LN34@UpdateEven

; 334  : 		return;
; 335  : 
; 336  : 	TEventSet * pEventSet = m_EventSetVector[iIndex];

  00018	8b 43 0c	 mov	 eax, DWORD PTR [ebx+12]
  0001b	8b 3c b8	 mov	 edi, DWORD PTR [eax+edi*4]

; 337  : 	if (!pEventSet)

  0001e	85 ff		 test	 edi, edi
  00020	0f 84 ca 00 00
	00		 je	 $LN34@UpdateEven

; 338  : 		return;
; 339  : 
; 340  : 	pEventSet->ix = ix;

  00026	8b 45 0c	 mov	 eax, DWORD PTR _ix$[ebp]
  00029	56		 push	 esi
  0002a	89 47 04	 mov	 DWORD PTR [edi+4], eax

; 341  : 	pEventSet->iy = iy;

  0002d	8b 45 10	 mov	 eax, DWORD PTR _iy$[ebp]

; 342  : 
; 343  : 	RefreshLinePosition(pEventSet);

  00030	57		 push	 edi
  00031	89 47 08	 mov	 DWORD PTR [edi+8], eax
  00034	e8 00 00 00 00	 call	 ?RefreshLinePosition@CPythonEventManager@@IAEXPAUSEventSet@1@@Z ; CPythonEventManager::RefreshLinePosition

; 344  : 
; 345  : 	if (pEventSet->isConfirmWait)

  00039	83 7f 54 00	 cmp	 DWORD PTR [edi+84], 0
  0003d	74 41		 je	 SHORT $LN6@UpdateEven

; 346  : 	{
; 347  : 		int iLeftTime = max(0, pEventSet->iConfirmEndTime - timeGetTime()/1000);

  0003f	8b 35 00 00 00
	00		 mov	 esi, DWORD PTR __imp__timeGetTime@0
  00045	ff d6		 call	 esi
  00047	ff d6		 call	 esi
  00049	8b 77 5c	 mov	 esi, DWORD PTR [edi+92]
  0004c	8b c8		 mov	 ecx, eax
  0004e	b8 d3 4d 62 10	 mov	 eax, 274877907		; 10624dd3H
  00053	f7 e1		 mul	 ecx

; 348  : 		pEventSet->pConfirmTimeTextLine->SetValue(_getf(m_strLeftTimeString.c_str(), iLeftTime));

  00055	8b 47 58	 mov	 eax, DWORD PTR [edi+88]
  00058	c1 ea 06	 shr	 edx, 6
  0005b	89 45 08	 mov	 DWORD PTR tv317[ebp], eax
  0005e	2b f2		 sub	 esi, edx
; File C:\Program Files\Microsoft Visual Studio\2022\Community\VC\Tools\MSVC\14.44.35207\include\xstring

; 453  :         return _Myres > _Small_string_capacity;

  00060	83 7b 7c 0f	 cmp	 DWORD PTR [ebx+124], 15	; 0000000fH

; 2356 :         return _Mypair._Myval2._Myptr();

  00064	8d 43 68	 lea	 eax, DWORD PTR [ebx+104]

; 445  :         if (_Large_mode_engaged()) {

  00067	76 02		 jbe	 SHORT $LN24@UpdateEven

; 446  :             _Result = _Unfancy(_Bx._Ptr);

  00069	8b 00		 mov	 eax, DWORD PTR [eax]
$LN24@UpdateEven:
; File C:\Anka2Project\Anka2Project\Source\Binary\source\UserInterface\PythonEventManager.cpp

; 348  : 		pEventSet->pConfirmTimeTextLine->SetValue(_getf(m_strLeftTimeString.c_str(), iLeftTime));

  0006b	56		 push	 esi
  0006c	50		 push	 eax
  0006d	e8 00 00 00 00	 call	 ?_getf@@YAPBDPBDZZ	; _getf
  00072	8b 4d 08	 mov	 ecx, DWORD PTR tv317[ebp]
  00075	83 c4 08	 add	 esp, 8
  00078	6a ff		 push	 -1
  0007a	50		 push	 eax
  0007b	e8 00 00 00 00	 call	 ?SetValue@CGraphicTextInstance@@QAEXPBDI@Z ; CGraphicTextInstance::SetValue
$LN6@UpdateEven:

; 349  : 	}
; 350  : 
; 351  : 	if (pEventSet->isWaitFlag)

  00080	80 bf cd 00 00
	00 00		 cmp	 BYTE PTR [edi+205], 0
  00087	75 66		 jne	 SHORT $LN48@UpdateEven
; File C:\Anka2Project\Anka2Project\Source\Binary\source\eterBase\Singleton.h

; 26   : 		assert(ms_singleton);

  00089	8b 0d 00 00 00
	00		 mov	 ecx, DWORD PTR ?ms_singleton@?$CSingleton@VCTimer@@@@0PAVCTimer@@A ; CSingleton<CTimer>::ms_singleton
  0008f	85 c9		 test	 ecx, ecx
  00091	75 1a		 jne	 SHORT $LN32@UpdateEven
  00093	6a 1a		 push	 26			; 0000001aH
  00095	68 00 00 00 00	 push	 OFFSET ??_C@_1IO@CAJLEEOI@?$AAC?$AA?3?$AA?2?$AAA?$AAn?$AAk?$AAa?$AA2?$AAP?$AAr?$AAo?$AAj?$AAe?$AAc?$AAt@
  0009a	68 00 00 00 00	 push	 OFFSET ??_C@_1BK@FMEHPMFE@?$AAm?$AAs?$AA_?$AAs?$AAi?$AAn?$AAg?$AAl?$AAe?$AAt?$AAo?$AAn@
  0009f	e8 00 00 00 00	 call	 __wassert
  000a4	8b 0d 00 00 00
	00		 mov	 ecx, DWORD PTR ?ms_singleton@?$CSingleton@VCTimer@@@@0PAVCTimer@@A ; CSingleton<CTimer>::ms_singleton
  000aa	83 c4 0c	 add	 esp, 12			; 0000000cH
$LN32@UpdateEven:
; File C:\Anka2Project\Anka2Project\Source\Binary\source\UserInterface\PythonEventManager.cpp

; 357  : 	long lElapsedTime = CTimer::Instance().GetElapsedMilliecond();

  000ad	e8 00 00 00 00	 call	 ?GetElapsedMilliecond@CTimer@@QAEKXZ ; CTimer::GetElapsedMilliecond

; 358  : 
; 359  : 	pEventSet->lLastDelayTime = max(0, pEventSet->lLastDelayTime - lElapsedTime);

  000b2	8b 57 18	 mov	 edx, DWORD PTR [edi+24]
  000b5	8b f0		 mov	 esi, eax
  000b7	2b d6		 sub	 edx, esi
  000b9	b9 00 00 00 00	 mov	 ecx, 0
  000be	0f 49 ca	 cmovns	 ecx, edx
  000c1	89 4f 18	 mov	 DWORD PTR [edi+24], ecx

; 360  : 
; 361  : 	while (lElapsedTime > 0)

  000c4	85 f6		 test	 esi, esi
  000c6	7e 27		 jle	 SHORT $LN48@UpdateEven
$LL2@UpdateEven:

; 362  : 	{
; 363  : 		pEventSet->lLastDelayTime -= lElapsedTime;

  000c8	2b ce		 sub	 ecx, esi
  000ca	89 4f 18	 mov	 DWORD PTR [edi+24], ecx
  000cd	8b f1		 mov	 esi, ecx

; 364  : 
; 365  : 		if (pEventSet->lLastDelayTime <= 0)

  000cf	85 c9		 test	 ecx, ecx
  000d1	7f 1c		 jg	 SHORT $LN48@UpdateEven

; 366  : 		{
; 367  : 			lElapsedTime = -pEventSet->lLastDelayTime;

  000d3	f7 de		 neg	 esi

; 368  : 			if (lElapsedTime <= 0)

  000d5	85 f6		 test	 esi, esi
  000d7	7e 16		 jle	 SHORT $LN48@UpdateEven

; 369  : 				break;
; 370  : 
; 371  : 			ProcessEventSet(pEventSet);

  000d9	57		 push	 edi
  000da	8b cb		 mov	 ecx, ebx
  000dc	e8 00 00 00 00	 call	 ?ProcessEventSet@CPythonEventManager@@IAE_NPAUSEventSet@1@@Z ; CPythonEventManager::ProcessEventSet

; 372  : 
; 373  : 			if (pEventSet->lLastDelayTime < 0)

  000e1	8b 4f 18	 mov	 ecx, DWORD PTR [edi+24]
  000e4	85 c9		 test	 ecx, ecx
  000e6	79 e0		 jns	 SHORT $LL2@UpdateEven

; 374  : 			{
; 375  : 				pEventSet->lLastDelayTime = 0;

  000e8	c7 47 18 00 00
	00 00		 mov	 DWORD PTR [edi+24], 0
$LN48@UpdateEven:
  000ef	5e		 pop	 esi
$LN34@UpdateEven:
  000f0	5f		 pop	 edi

; 376  : 				break;
; 377  : 			}
; 378  : 		}
; 379  : 		else
; 380  : 			break;
; 381  : 	}
; 382  : }

  000f1	5b		 pop	 ebx
  000f2	5d		 pop	 ebp
  000f3	c2 0c 00	 ret	 12			; 0000000cH
?UpdateEventSet@CPythonEventManager@@QAEXHHH@Z ENDP	; CPythonEventManager::UpdateEventSet
_TEXT	ENDS
; Function compile flags: /Ogtp
; File C:\Anka2Project\Anka2Project\Source\Binary\source\UserInterface\PythonEventManager.cpp
; File C:\Program Files\Microsoft Visual Studio\2022\Community\VC\Tools\MSVC\14.44.35207\include\xstring
; File C:\Anka2Project\Anka2Project\Source\Binary\source\eterLib\parser.h
; File C:\Program Files\Microsoft Visual Studio\2022\Community\VC\Tools\MSVC\14.44.35207\include\xmemory
; File C:\Program Files\Microsoft Visual Studio\2022\Community\VC\Tools\MSVC\14.44.35207\include\list
; File C:\Program Files\Microsoft Visual Studio\2022\Community\VC\Tools\MSVC\14.44.35207\include\xmemory
; File C:\Program Files\Microsoft Visual Studio\2022\Community\VC\Tools\MSVC\14.44.35207\include\list
; File C:\Anka2Project\Anka2Project\Source\Binary\source\UserInterface\PythonEventManager.cpp
; File C:\Anka2Project\Anka2Project\Source\Binary\source\UserInterface\AbstractSingleton.h
; File C:\Anka2Project\Anka2Project\Source\Binary\source\UserInterface\PythonEventManager.cpp
; File C:\Program Files\Microsoft Visual Studio\2022\Community\VC\Tools\MSVC\14.44.35207\include\xstring
; File C:\Anka2Project\Anka2Project\Source\Binary\source\UserInterface\PythonEventManager.cpp
; File C:\Program Files\Microsoft Visual Studio\2022\Community\VC\Tools\MSVC\14.44.35207\include\xstring
; File C:\Anka2Project\Anka2Project\Source\Binary\source\UserInterface\PythonEventManager.cpp
; File C:\Program Files\Microsoft Visual Studio\2022\Community\VC\Tools\MSVC\14.44.35207\include\xstring
; File C:\Program Files\Microsoft Visual Studio\2022\Community\VC\Tools\MSVC\14.44.35207\include\__msvc_string_view.hpp
; File C:\Program Files\Microsoft Visual Studio\2022\Community\VC\Tools\MSVC\14.44.35207\include\xstring
; File C:\Program Files\Microsoft Visual Studio\2022\Community\VC\Tools\MSVC\14.44.35207\include\__msvc_string_view.hpp
; File C:\Program Files\Microsoft Visual Studio\2022\Community\VC\Tools\MSVC\14.44.35207\include\xstring
; File C:\Program Files\Microsoft Visual Studio\2022\Community\VC\Tools\MSVC\14.44.35207\include\__msvc_string_view.hpp
; File C:\Program Files\Microsoft Visual Studio\2022\Community\VC\Tools\MSVC\14.44.35207\include\xstring
; File C:\Anka2Project\Anka2Project\Source\Binary\source\UserInterface\PythonEventManager.cpp
; File C:\Program Files\Microsoft Visual Studio\2022\Community\VC\Tools\MSVC\14.44.35207\include\xstring
; File C:\Anka2Project\Anka2Project\Source\Binary\source\UserInterface\PythonEventManager.cpp
; File C:\Program Files\Microsoft Visual Studio\2022\Community\VC\Tools\MSVC\14.44.35207\include\xstring
; File C:\Anka2Project\Anka2Project\Source\Binary\source\UserInterface\PythonEventManager.cpp
; File C:\Anka2Project\Anka2Project\Source\Binary\source\eterBase\Singleton.h
; File C:\Anka2Project\Anka2Project\Source\Binary\source\UserInterface\PythonEventManager.cpp
; File C:\Anka2Project\Anka2Project\Source\Binary\source\eterBase\Singleton.h
; File C:\Anka2Project\Anka2Project\Source\Binary\source\UserInterface\PythonEventManager.cpp
; File C:\Anka2Project\Anka2Project\Source\Binary\source\eterBase\Singleton.h
; File C:\Anka2Project\Anka2Project\Source\Binary\source\UserInterface\PythonEventManager.cpp
; File C:\Anka2Project\Anka2Project\Source\Binary\source\eterBase\Singleton.h
; File C:\Anka2Project\Anka2Project\Source\Binary\source\UserInterface\PythonEventManager.cpp
; File C:\Program Files\Microsoft Visual Studio\2022\Community\VC\Tools\MSVC\14.44.35207\include\xstring
; File C:\Anka2Project\Anka2Project\Source\Binary\source\UserInterface\PythonEventManager.cpp
; File C:\Program Files\Microsoft Visual Studio\2022\Community\VC\Tools\MSVC\14.44.35207\include\xstring
; File C:\Anka2Project\Anka2Project\Source\Binary\source\UserInterface\PythonEventManager.cpp
; File C:\Anka2Project\Anka2Project\Source\Binary\source\eterBase\Singleton.h
; File C:\Anka2Project\Anka2Project\Source\Binary\source\UserInterface\PythonEventManager.cpp
; File C:\Anka2Project\Anka2Project\Source\Binary\source\UserInterface\AbstractApplication.h
; File C:\Anka2Project\Anka2Project\Source\Binary\source\UserInterface\PythonEventManager.cpp
; File C:\Anka2Project\Anka2Project\Source\Binary\extern\include\d3dx8math.inl
; File C:\Anka2Project\Anka2Project\Source\Binary\source\UserInterface\AbstractApplication.h
; File C:\Anka2Project\Anka2Project\Source\Binary\source\UserInterface\PythonEventManager.cpp
; File C:\Anka2Project\Anka2Project\Source\Binary\source\UserInterface\AbstractApplication.h
; File C:\Anka2Project\Anka2Project\Source\Binary\source\UserInterface\PythonEventManager.cpp
; File C:\Anka2Project\Anka2Project\Source\Binary\extern\include\d3dx8math.inl
; File C:\Anka2Project\Anka2Project\Source\Binary\source\UserInterface\AbstractApplication.h
; File C:\Anka2Project\Anka2Project\Source\Binary\source\UserInterface\PythonEventManager.cpp
; File C:\Anka2Project\Anka2Project\Source\Binary\source\eterBase\Singleton.h
; File C:\Anka2Project\Anka2Project\Source\Binary\source\UserInterface\PythonEventManager.cpp
; File C:\Anka2Project\Anka2Project\Source\Binary\source\eterBase\Singleton.h
; File C:\Anka2Project\Anka2Project\Source\Binary\source\UserInterface\PythonEventManager.cpp
; File C:\Program Files\Microsoft Visual Studio\2022\Community\VC\Tools\MSVC\14.44.35207\include\__msvc_string_view.hpp
; File C:\Anka2Project\Anka2Project\Source\Binary\source\UserInterface\PythonEventManager.cpp
; File C:\Program Files\Microsoft Visual Studio\2022\Community\VC\Tools\MSVC\14.44.35207\include\__msvc_string_view.hpp
; File C:\Program Files\Microsoft Visual Studio\2022\Community\VC\Tools\MSVC\14.44.35207\include\xstring
; File C:\Program Files\Microsoft Visual Studio\2022\Community\VC\Tools\MSVC\14.44.35207\include\__msvc_string_view.hpp
; File C:\Program Files\Microsoft Visual Studio\2022\Community\VC\Tools\MSVC\14.44.35207\include\xstring
; File C:\Program Files\Microsoft Visual Studio\2022\Community\VC\Tools\MSVC\14.44.35207\include\__msvc_string_view.hpp
; File C:\Program Files\Microsoft Visual Studio\2022\Community\VC\Tools\MSVC\14.44.35207\include\xstring
; File C:\Program Files\Microsoft Visual Studio\2022\Community\VC\Tools\MSVC\14.44.35207\include\__msvc_string_view.hpp
; File C:\Program Files\Microsoft Visual Studio\2022\Community\VC\Tools\MSVC\14.44.35207\include\xstring
; File C:\Program Files\Microsoft Visual Studio\2022\Community\VC\Tools\MSVC\14.44.35207\include\__msvc_string_view.hpp
; File C:\Program Files\Microsoft Visual Studio\2022\Community\VC\Tools\MSVC\14.44.35207\include\xstring
; File C:\Anka2Project\Anka2Project\Source\Binary\source\UserInterface\PythonEventManager.cpp
; File C:\Anka2Project\Anka2Project\Source\Binary\source\eterBase\Singleton.h
; File C:\Anka2Project\Anka2Project\Source\Binary\source\UserInterface\PythonEventManager.cpp
; File C:\Anka2Project\Anka2Project\Source\Binary\source\eterBase\Singleton.h
; File C:\Anka2Project\Anka2Project\Source\Binary\source\UserInterface\PythonEventManager.cpp
; File C:\Program Files\Microsoft Visual Studio\2022\Community\VC\Tools\MSVC\14.44.35207\include\__msvc_string_view.hpp
; File C:\Program Files\Microsoft Visual Studio\2022\Community\VC\Tools\MSVC\14.44.35207\include\xstring
; File C:\Program Files\Microsoft Visual Studio\2022\Community\VC\Tools\MSVC\14.44.35207\include\__msvc_string_view.hpp
; File C:\Program Files\Microsoft Visual Studio\2022\Community\VC\Tools\MSVC\14.44.35207\include\xstring
; File C:\Program Files\Microsoft Visual Studio\2022\Community\VC\Tools\MSVC\14.44.35207\include\__msvc_string_view.hpp
; File C:\Program Files\Microsoft Visual Studio\2022\Community\VC\Tools\MSVC\14.44.35207\include\xstring
; File C:\Program Files\Microsoft Visual Studio\2022\Community\VC\Tools\MSVC\14.44.35207\include\__msvc_string_view.hpp
; File C:\Program Files\Microsoft Visual Studio\2022\Community\VC\Tools\MSVC\14.44.35207\include\xstring
; File C:\Program Files\Microsoft Visual Studio\2022\Community\VC\Tools\MSVC\14.44.35207\include\__msvc_string_view.hpp
; File C:\Program Files\Microsoft Visual Studio\2022\Community\VC\Tools\MSVC\14.44.35207\include\xstring
; File C:\Anka2Project\Anka2Project\Source\Binary\source\UserInterface\PythonEventManager.cpp
; File C:\Program Files\Microsoft Visual Studio\2022\Community\VC\Tools\MSVC\14.44.35207\include\vector
; File C:\Anka2Project\Anka2Project\Source\Binary\source\UserInterface\PythonEventManager.cpp
; File C:\Program Files\Microsoft Visual Studio\2022\Community\VC\Tools\MSVC\14.44.35207\include\vector
; File C:\Anka2Project\Anka2Project\Source\Binary\source\UserInterface\PythonEventManager.cpp
; File C:\Program Files\Microsoft Visual Studio\2022\Community\VC\Tools\MSVC\14.44.35207\include\vector
; File C:\Anka2Project\Anka2Project\Source\Binary\source\UserInterface\PythonEventManager.cpp
; File C:\Program Files\Microsoft Visual Studio\2022\Community\VC\Tools\MSVC\14.44.35207\include\vector
; File C:\Anka2Project\Anka2Project\Source\Binary\source\UserInterface\PythonEventManager.cpp
; File C:\Program Files\Microsoft Visual Studio\2022\Community\VC\Tools\MSVC\14.44.35207\include\xstring
; File C:\Anka2Project\Anka2Project\Source\Binary\source\UserInterface\PythonEventManager.cpp
;	COMDAT ?ProcessEventSet@CPythonEventManager@@IAE_NPAUSEventSet@1@@Z
_TEXT	SEGMENT
_killmob_count$1$ = -116				; size = 4
_y$76 = -112						; size = 4
_total$1$ = -112					; size = 4
$T77 = -112						; size = 4
__Result$1$ = -112					; size = 4
_fSpeed$78 = -112					; size = 4
_is_revived$1$ = -112					; size = 4
$T79 = -105						; size = 1
$T80 = -104						; size = 4
$T81 = -104						; size = 4
_iIndex$1$ = -104					; size = 4
_iIndex$1$ = -104					; size = 4
_killstone_count$1$ = -104				; size = 4
tv2779 = -104						; size = 4
$T29 = -104						; size = 1
$T55 = -104						; size = 1
$T66 = -104						; size = 1
$T82 = -100						; size = 4
$T83 = -100						; size = 4
_title$1$ = -100					; size = 4
_iEventType$ = -96					; size = 4
_x$84 = -96						; size = 4
$T85 = -96						; size = 4
tv2835 = -96						; size = 4
$T86 = -96						; size = 4
_use_potion$1$ = -96					; size = 4
__Old_size$1$ = -96					; size = 4
$T87 = -96						; size = 4
__Old_size$1$ = -96					; size = 4
_name$1$ = -92						; size = 4
__Old_size$1$ = -92					; size = 4
__Ptr$1$ = -92						; size = 4
_pEventPosition$ = -92					; size = 4
_hidden_total$1$ = -92					; size = 4
__Result$1$ = -92					; size = 4
_index$1$ = -92						; size = 4
_find_hidden$1$ = -88					; size = 4
_rApp$1$ = -88						; size = 4
_c_szName$88 = -88					; size = 4
_pItemData$89 = -88					; size = 4
$T90 = -88						; size = 4
_idx$1$ = -88						; size = 4
_desc$1$ = -88						; size = 4
_CameraSetting$91 = -84					; size = 36
_CameraSetting$92 = -84					; size = 36
_ScriptCommand$ = -48					; size = 32
__$ArrayPad$ = -16					; size = 4
__$EHRec$ = -12						; size = 12
_pEventSet$ = 8						; size = 4
?ProcessEventSet@CPythonEventManager@@IAE_NPAUSEventSet@1@@Z PROC ; CPythonEventManager::ProcessEventSet, COMDAT
; _this$ = ecx

; 398  : {

  00000	55		 push	 ebp
  00001	8b ec		 mov	 ebp, esp
  00003	6a ff		 push	 -1
  00005	68 00 00 00 00	 push	 __ehhandler$?ProcessEventSet@CPythonEventManager@@IAE_NPAUSEventSet@1@@Z
  0000a	64 a1 00 00 00
	00		 mov	 eax, DWORD PTR fs:0
  00010	50		 push	 eax
  00011	83 ec 68	 sub	 esp, 104		; 00000068H
  00014	a1 00 00 00 00	 mov	 eax, DWORD PTR ___security_cookie
  00019	33 c5		 xor	 eax, ebp
  0001b	89 45 f0	 mov	 DWORD PTR __$ArrayPad$[ebp], eax
  0001e	56		 push	 esi
  0001f	57		 push	 edi
  00020	50		 push	 eax
  00021	8d 45 f4	 lea	 eax, DWORD PTR __$EHRec$[ebp]
  00024	64 a3 00 00 00
	00		 mov	 DWORD PTR fs:0, eax
  0002a	8b f1		 mov	 esi, ecx
  0002c	89 75 9c	 mov	 DWORD PTR $T83[ebp], esi
  0002f	8b 7d 08	 mov	 edi, DWORD PTR _pEventSet$[ebp]
  00032	89 7d 90	 mov	 DWORD PTR $T77[ebp], edi

; 399  : 	if (pEventSet->isLock)

  00035	80 7f 14 00	 cmp	 BYTE PTR [edi+20], 0
  00039	74 07		 je	 SHORT $LN7@ProcessEve

; 400  : 		return false;

  0003b	32 c0		 xor	 al, al
  0003d	e9 1e 0e 00 00	 jmp	 $LN1@ProcessEve
$LN7@ProcessEve:
  00042	0f 57 c0	 xorps	 xmm0, xmm0
; File C:\Program Files\Microsoft Visual Studio\2022\Community\VC\Tools\MSVC\14.44.35207\include\xstring

; 860  :         _My_data._Mysize = 0;

  00045	c7 45 e0 00 00
	00 00		 mov	 DWORD PTR _ScriptCommand$[ebp+16], 0

; 493  :         _CONSTEXPR20 _Bxty() noexcept : _Buf() {} // user-provided, for fancy pointers

  0004c	0f 11 45 d0	 movups	 XMMWORD PTR _ScriptCommand$[ebp], xmm0

; 861  :         _My_data._Myres  = _Small_string_capacity;

  00050	c7 45 e4 0f 00
	00 00		 mov	 DWORD PTR _ScriptCommand$[ebp+20], 15 ; 0000000fH

; 862  :         _My_data._Activate_SSO_buffer();
; 863  : 
; 864  :         // the _Traits::assign is last so the codegen doesn't think the char write can alias this
; 865  :         _Traits::assign(_My_data._Bx._Buf[0], _Elem());

  00057	c6 45 d0 00	 mov	 BYTE PTR _ScriptCommand$[ebp], 0
; File C:\Anka2Project\Anka2Project\Source\Binary\source\eterLib\parser.h

; 39   : 		SCmd() {}

  0005b	c7 45 fc 00 00
	00 00		 mov	 DWORD PTR __$EHRec$[ebp+8], 0
; File C:\Program Files\Microsoft Visual Studio\2022\Community\VC\Tools\MSVC\14.44.35207\include\xmemory

; 136  :         return ::operator new(_Bytes);

  00062	6a 38		 push	 56			; 00000038H
; File C:\Program Files\Microsoft Visual Studio\2022\Community\VC\Tools\MSVC\14.44.35207\include\list

; 353  :     _List_val() noexcept : _Myhead(), _Mysize(0) {} // initialize data

  00064	c7 45 e8 00 00
	00 00		 mov	 DWORD PTR _ScriptCommand$[ebp+24], 0
  0006b	c7 45 ec 00 00
	00 00		 mov	 DWORD PTR _ScriptCommand$[ebp+28], 0
; File C:\Program Files\Microsoft Visual Studio\2022\Community\VC\Tools\MSVC\14.44.35207\include\xmemory

; 136  :         return ::operator new(_Bytes);

  00072	e8 00 00 00 00	 call	 ??2@YAPAXI@Z		; operator new
  00077	83 c4 04	 add	 esp, 4
; File C:\Program Files\Microsoft Visual Studio\2022\Community\VC\Tools\MSVC\14.44.35207\include\list

; 1852 :         _Construct_in_place(_Newhead->_Next, _Newhead);

  0007a	89 00		 mov	 DWORD PTR [eax], eax

; 1853 :         _Construct_in_place(_Newhead->_Prev, _Newhead);

  0007c	89 40 04	 mov	 DWORD PTR [eax+4], eax

; 1854 :         _Mypair._Myval2._Myhead = _Newhead;

  0007f	89 45 e8	 mov	 DWORD PTR _ScriptCommand$[ebp+24], eax
; File C:\Anka2Project\Anka2Project\Source\Binary\source\UserInterface\PythonEventManager.cpp

; 402  : 	script::TCmd ScriptCommand;

  00082	c7 45 fc 01 00
	00 00		 mov	 DWORD PTR __$EHRec$[ebp+8], 1
; File C:\Anka2Project\Anka2Project\Source\Binary\source\UserInterface\AbstractSingleton.h

; 24   : 		assert(ms_singleton!=nullptr);

  00089	a1 00 00 00 00	 mov	 eax, DWORD PTR ?ms_singleton@?$TAbstractSingleton@VIAbstractApplication@@@@0PAVIAbstractApplication@@A ; TAbstractSingleton<IAbstractApplication>::ms_singleton
  0008e	89 45 a8	 mov	 DWORD PTR _rApp$1$[ebp], eax
  00091	85 c0		 test	 eax, eax
  00093	75 1c		 jne	 SHORT $LN140@ProcessEve
  00095	6a 18		 push	 24			; 00000018H
  00097	68 00 00 00 00	 push	 OFFSET ??_C@_1KI@FIPHLMOB@?$AAC?$AA?3?$AA?2?$AAA?$AAn?$AAk?$AAa?$AA2?$AAP?$AAr?$AAo?$AAj?$AAe?$AAc?$AAt@
  0009c	68 00 00 00 00	 push	 OFFSET ??_C@_1CM@FPMBEAEA@?$AAm?$AAs?$AA_?$AAs?$AAi?$AAn?$AAg?$AAl?$AAe?$AAt?$AAo?$AAn?$AA?$CB?$AA?$DN?$AAn@
  000a1	e8 00 00 00 00	 call	 __wassert
  000a6	a1 00 00 00 00	 mov	 eax, DWORD PTR ?ms_singleton@?$TAbstractSingleton@VIAbstractApplication@@@@0PAVIAbstractApplication@@A ; TAbstractSingleton<IAbstractApplication>::ms_singleton
  000ab	83 c4 0c	 add	 esp, 12			; 0000000cH
  000ae	89 45 a8	 mov	 DWORD PTR _rApp$1$[ebp], eax
$LN140@ProcessEve:
; File C:\Anka2Project\Anka2Project\Source\Binary\source\UserInterface\PythonEventManager.cpp

; 406  : 	if (!pEventSet->ScriptGroup.GetCmd(ScriptCommand))

  000b1	8d 45 d0	 lea	 eax, DWORD PTR _ScriptCommand$[ebp]
  000b4	50		 push	 eax
  000b5	8d 4f 60	 lea	 ecx, DWORD PTR [edi+96]
  000b8	e8 00 00 00 00	 call	 ?GetCmd@Group@script@@QAE_NAAUSCmd@2@@Z ; script::Group::GetCmd
  000bd	84 c0		 test	 al, al
  000bf	75 0c		 jne	 SHORT $LN8@ProcessEve

; 407  : 	{
; 408  : 		pEventSet->isLock = true;

  000c1	c6 47 14 01	 mov	 BYTE PTR [edi+20], 1
  000c5	88 45 97	 mov	 BYTE PTR $T79[ebp], al
  000c8	e9 80 0d 00 00	 jmp	 $LN74@ProcessEve
$LN8@ProcessEve:
; File C:\Program Files\Microsoft Visual Studio\2022\Community\VC\Tools\MSVC\14.44.35207\include\xstring

; 453  :         return _Myres > _Small_string_capacity;

  000cd	83 7d e4 0f	 cmp	 DWORD PTR _ScriptCommand$[ebp+20], 15 ; 0000000fH
; File C:\Anka2Project\Anka2Project\Source\Binary\source\UserInterface\PythonEventManager.cpp

; 414  : 	if (!GetScriptEventIndex(ScriptCommand.name.c_str(), &pEventPosition, &iEventType))

  000d1	8d 4d a0	 lea	 ecx, DWORD PTR _iEventType$[ebp]
  000d4	51		 push	 ecx
  000d5	8d 4d a4	 lea	 ecx, DWORD PTR _pEventPosition$[ebp]
; File C:\Program Files\Microsoft Visual Studio\2022\Community\VC\Tools\MSVC\14.44.35207\include\xstring

; 444  :         const value_type* _Result = _Bx._Buf;

  000d8	8d 45 d0	 lea	 eax, DWORD PTR _ScriptCommand$[ebp]

; 445  :         if (_Large_mode_engaged()) {

  000db	0f 47 45 d0	 cmova	 eax, DWORD PTR _ScriptCommand$[ebp]
; File C:\Anka2Project\Anka2Project\Source\Binary\source\UserInterface\PythonEventManager.cpp

; 414  : 	if (!GetScriptEventIndex(ScriptCommand.name.c_str(), &pEventPosition, &iEventType))

  000df	51		 push	 ecx
  000e0	50		 push	 eax
  000e1	8b ce		 mov	 ecx, esi
  000e3	e8 00 00 00 00	 call	 ?GetScriptEventIndex@CPythonEventManager@@IAE_NPBDPAH1@Z ; CPythonEventManager::GetScriptEventIndex
  000e8	84 c0		 test	 al, al
  000ea	75 08		 jne	 SHORT $LN9@ProcessEve
  000ec	88 45 97	 mov	 BYTE PTR $T79[ebp], al
  000ef	e9 59 0d 00 00	 jmp	 $LN74@ProcessEve
$LN9@ProcessEve:

; 415  : 		return false;
; 416  : 
; 417  : 	switch (iEventType)

  000f4	8b 45 a0	 mov	 eax, DWORD PTR _iEventType$[ebp]
  000f7	83 f8 29	 cmp	 eax, 41			; 00000029H
  000fa	0f 87 49 0d 00
	00		 ja	 $LN2@ProcessEve
  00100	ff 24 85 00 00
	00 00		 jmp	 DWORD PTR $LN652@ProcessEve[eax*4]
$LN10@ProcessEve:

; 418  : 	{
; 419  : 		case EVENT_TYPE_LETTER:
; 420  : 		{
; 421  : 			const std::string& c_rstValue = GetArgumentString("value", ScriptCommand.argList);

  00107	8d 55 e8	 lea	 edx, DWORD PTR _ScriptCommand$[ebp+24]
  0010a	b9 00 00 00 00	 mov	 ecx, OFFSET ??_C@_05MFEJDJP@value@
  0010f	e8 00 00 00 00	 call	 ?GetArgumentString@@YAABV?$basic_string@DU?$char_traits@D@std@@V?$allocator@D@2@@std@@PBDAAV?$list@USArgumet@script@@V?$allocator@USArgumet@script@@@std@@@2@@Z ; GetArgumentString
  00114	8b d0		 mov	 edx, eax

; 422  : 			pEventSet->strCurrentLine.append(c_rstValue);

  00116	8d 4f 30	 lea	 ecx, DWORD PTR [edi+48]
; File C:\Program Files\Microsoft Visual Studio\2022\Community\VC\Tools\MSVC\14.44.35207\include\xstring

; 453  :         return _Myres > _Small_string_capacity;

  00119	83 7a 14 0f	 cmp	 DWORD PTR [edx+20], 15	; 0000000fH

; 1483 :         return append(_Right._Mypair._Myval2._Myptr(), _Right._Mypair._Myval2._Mysize);

  0011d	8d 42 10	 lea	 eax, DWORD PTR [edx+16]
  00120	89 45 a0	 mov	 DWORD PTR tv2835[ebp], eax
  00123	8b 00		 mov	 eax, DWORD PTR [eax]
  00125	89 45 a8	 mov	 DWORD PTR $T90[ebp], eax

; 445  :         if (_Large_mode_engaged()) {

  00128	76 02		 jbe	 SHORT $LN166@ProcessEve

; 446  :             _Result = _Unfancy(_Bx._Ptr);

  0012a	8b 12		 mov	 edx, DWORD PTR [edx]
$LN166@ProcessEve:

; 1512 :         const size_type _Old_size = _Mypair._Myval2._Mysize;

  0012c	8b 41 10	 mov	 eax, DWORD PTR [ecx+16]
  0012f	89 45 a4	 mov	 DWORD PTR __Old_size$1$[ebp], eax

; 1513 :         if (_Count <= _Mypair._Myval2._Myres - _Old_size) {

  00132	8b 41 14	 mov	 eax, DWORD PTR [ecx+20]
  00135	2b 45 a4	 sub	 eax, DWORD PTR __Old_size$1$[ebp]
  00138	39 45 a8	 cmp	 DWORD PTR $T90[ebp], eax
  0013b	8b 45 a8	 mov	 eax, DWORD PTR $T90[ebp]
  0013e	77 2d		 ja	 SHORT $LN173@ProcessEve

; 1514 :             _ASAN_STRING_MODIFY(*this, _Old_size, _Old_size + _Count);
; 1515 :             _Mypair._Myval2._Mysize = _Old_size + _Count;

  00140	8b 75 a4	 mov	 esi, DWORD PTR __Old_size$1$[ebp]
  00143	03 c6		 add	 eax, esi

; 453  :         return _Myres > _Small_string_capacity;

  00145	83 79 14 0f	 cmp	 DWORD PTR [ecx+20], 15	; 0000000fH

; 1515 :             _Mypair._Myval2._Mysize = _Old_size + _Count;

  00149	89 41 10	 mov	 DWORD PTR [ecx+16], eax

; 435  :         value_type* _Result = _Bx._Buf;

  0014c	8b c1		 mov	 eax, ecx

; 436  :         if (_Large_mode_engaged()) {

  0014e	76 02		 jbe	 SHORT $LN176@ProcessEve

; 437  :             _Result = _Unfancy(_Bx._Ptr);

  00150	8b 01		 mov	 eax, DWORD PTR [ecx]
$LN176@ProcessEve:
; File C:\Program Files\Microsoft Visual Studio\2022\Community\VC\Tools\MSVC\14.44.35207\include\__msvc_string_view.hpp

; 174  :         _CSTD memmove(_First1, _First2, _Count * sizeof(_Elem));

  00152	ff 75 a8	 push	 DWORD PTR $T90[ebp]
; File C:\Program Files\Microsoft Visual Studio\2022\Community\VC\Tools\MSVC\14.44.35207\include\xstring

; 1517 :             _Traits::move(_Old_ptr + _Old_size, _Ptr, _Count);

  00155	03 f0		 add	 esi, eax
; File C:\Program Files\Microsoft Visual Studio\2022\Community\VC\Tools\MSVC\14.44.35207\include\__msvc_string_view.hpp

; 174  :         _CSTD memmove(_First1, _First2, _Count * sizeof(_Elem));

  00157	52		 push	 edx
  00158	56		 push	 esi
  00159	e8 00 00 00 00	 call	 _memmove
; File C:\Program Files\Microsoft Visual Studio\2022\Community\VC\Tools\MSVC\14.44.35207\include\xstring

; 1518 :             _Traits::assign(_Old_ptr[_Old_size + _Count], _Elem());

  0015e	8b 45 a8	 mov	 eax, DWORD PTR $T90[ebp]
; File C:\Program Files\Microsoft Visual Studio\2022\Community\VC\Tools\MSVC\14.44.35207\include\__msvc_string_view.hpp

; 174  :         _CSTD memmove(_First1, _First2, _Count * sizeof(_Elem));

  00161	83 c4 0c	 add	 esp, 12			; 0000000cH
; File C:\Program Files\Microsoft Visual Studio\2022\Community\VC\Tools\MSVC\14.44.35207\include\xstring

; 1518 :             _Traits::assign(_Old_ptr[_Old_size + _Count], _Elem());

  00164	c6 04 30 00	 mov	 BYTE PTR [eax+esi], 0

; 1519 :             return *this;

  00168	8b 75 9c	 mov	 esi, DWORD PTR $T83[ebp]
  0016b	eb 0b		 jmp	 SHORT $LN172@ProcessEve
$LN173@ProcessEve:

; 1520 :         }
; 1521 : 
; 1522 :         return _Reallocate_grow_by(

  0016d	50		 push	 eax
  0016e	52		 push	 edx
  0016f	ff 75 98	 push	 DWORD PTR $T29[ebp]
  00172	50		 push	 eax
  00173	e8 00 00 00 00	 call	 ??$_Reallocate_grow_by@V<lambda_1>@?1??append@?$basic_string@DU?$char_traits@D@std@@V?$allocator@D@2@@std@@QAEAAV34@QBDI@Z@PBDI@?$basic_string@DU?$char_traits@D@std@@V?$allocator@D@2@@std@@AAEAAV01@IV<lambda_1>@?1??append@01@QAEAAV01@QBDI@Z@PBDI@Z ; std::basic_string<char,std::char_traits<char>,std::allocator<char> >::_Reallocate_grow_by<`std::basic_string<char,std::char_traits<char>,std::allocator<char> >::append'::`2'::<lambda_1>,char const *,unsigned int>
$LN172@ProcessEve:
; File C:\Anka2Project\Anka2Project\Source\Binary\source\UserInterface\PythonEventManager.cpp

; 423  : 			pEventSet->pCurrentTextLine->SetValueString(pEventSet->strCurrentLine);

  00178	8b 4f 48	 mov	 ecx, DWORD PTR [edi+72]
  0017b	8d 47 30	 lea	 eax, DWORD PTR [edi+48]
  0017e	50		 push	 eax
  0017f	e8 00 00 00 00	 call	 ?SetValueString@CGraphicTextInstance@@QAEXABV?$basic_string@DU?$char_traits@D@std@@V?$allocator@D@2@@std@@@Z ; CGraphicTextInstance::SetValueString

; 424  : 			pEventSet->pCurrentTextLine->SetColor(pEventSet->CurrentColor.r, pEventSet->CurrentColor.g, pEventSet->CurrentColor.b);

  00184	f3 0f 10 47 28	 movss	 xmm0, DWORD PTR [edi+40]
  00189	83 ec 10	 sub	 esp, 16			; 00000010H
  0018c	8b 4f 48	 mov	 ecx, DWORD PTR [edi+72]
  0018f	c7 44 24 0c 00
	00 80 3f	 mov	 DWORD PTR [esp+12], 1065353216 ; 3f800000H
  00197	f3 0f 11 44 24
	08		 movss	 DWORD PTR [esp+8], xmm0
  0019d	f3 0f 10 47 24	 movss	 xmm0, DWORD PTR [edi+36]
  001a2	f3 0f 11 44 24
	04		 movss	 DWORD PTR [esp+4], xmm0
  001a8	f3 0f 10 47 20	 movss	 xmm0, DWORD PTR [edi+32]
  001ad	f3 0f 11 04 24	 movss	 DWORD PTR [esp], xmm0
  001b2	e8 00 00 00 00	 call	 ?SetColor@CGraphicTextInstance@@QAEXMMMM@Z ; CGraphicTextInstance::SetColor

; 425  : 			pEventSet->iCurrentLetter += c_rstValue.length();

  001b7	8b 45 a0	 mov	 eax, DWORD PTR tv2835[ebp]
  001ba	8b 00		 mov	 eax, DWORD PTR [eax]
  001bc	03 47 1c	 add	 eax, DWORD PTR [edi+28]
  001bf	89 47 1c	 mov	 DWORD PTR [edi+28], eax

; 426  : 
; 427  : 			if (pEventSet->iCurrentLetter >= pEventSet->iRestrictedCharacterCount)

  001c2	3b 87 c4 00 00
	00		 cmp	 eax, DWORD PTR [edi+196]
  001c8	7c 0c		 jl	 SHORT $LN11@ProcessEve

; 428  : 			{
; 429  : 				__InsertLine(*pEventSet);

  001ca	6a 00		 push	 0
  001cc	6a 00		 push	 0
  001ce	57		 push	 edi
  001cf	8b ce		 mov	 ecx, esi
  001d1	e8 00 00 00 00	 call	 ?__InsertLine@CPythonEventManager@@IAEXAAUSEventSet@1@HH@Z ; CPythonEventManager::__InsertLine
$LN11@ProcessEve:

; 430  : 			}
; 431  : 
; 432  : 			pEventSet->lLastDelayTime = pEventSet->lWaitingTime;

  001d6	8b 87 c0 00 00
	00		 mov	 eax, DWORD PTR [edi+192]
  001dc	89 47 18	 mov	 DWORD PTR [edi+24], eax

; 433  : 			break;

  001df	e9 65 0c 00 00	 jmp	 $LN2@ProcessEve
$LN12@ProcessEve:

; 434  : 		}
; 435  : 
; 436  : 		case EVENT_TYPE_DELAY:
; 437  : 		{
; 438  : 			if (EVENT_POSITION_START == pEventPosition)

  001e4	83 7d a4 00	 cmp	 DWORD PTR _pEventPosition$[ebp], 0
  001e8	75 21		 jne	 SHORT $LN13@ProcessEve

; 439  : 				pEventSet->lWaitingTime = atoi(GetArgument("value", ScriptCommand.argList));

  001ea	8d 55 e8	 lea	 edx, DWORD PTR _ScriptCommand$[ebp+24]
  001ed	b9 00 00 00 00	 mov	 ecx, OFFSET ??_C@_05MFEJDJP@value@
  001f2	e8 00 00 00 00	 call	 ?GetArgument@@YAPBDPBDAAV?$list@USArgumet@script@@V?$allocator@USArgumet@script@@@std@@@std@@@Z ; GetArgument
  001f7	50		 push	 eax
  001f8	e8 00 00 00 00	 call	 __atoi64
  001fd	83 c4 04	 add	 esp, 4

; 442  : 			break;

  00200	89 87 c0 00 00
	00		 mov	 DWORD PTR [edi+192], eax
  00206	e9 3e 0c 00 00	 jmp	 $LN2@ProcessEve
$LN13@ProcessEve:

; 440  : 			else
; 441  : 				pEventSet->lWaitingTime = c_lNormal_Waiting_Time;

  0020b	b8 01 00 00 00	 mov	 eax, 1

; 442  : 			break;

  00210	89 87 c0 00 00
	00		 mov	 DWORD PTR [edi+192], eax
  00216	e9 2e 0c 00 00	 jmp	 $LN2@ProcessEve
$LN15@ProcessEve:

; 443  : 		}
; 444  : 
; 445  : 		case EVENT_TYPE_COLOR:
; 446  : 		{
; 447  : 			if (EVENT_POSITION_START == pEventPosition)

  0021b	83 7d a4 00	 cmp	 DWORD PTR _pEventPosition$[ebp], 0
  0021f	f3 0f 10 05 00
	00 00 00	 movss	 xmm0, DWORD PTR __real@3f800000
  00227	75 5b		 jne	 SHORT $LN16@ProcessEve

; 448  : 			{
; 449  : 				pEventSet->CurrentColor.r = (float)atof(GetArgument("r", ScriptCommand.argList));

  00229	8d 55 e8	 lea	 edx, DWORD PTR _ScriptCommand$[ebp+24]
  0022c	b9 00 00 00 00	 mov	 ecx, OFFSET ??_C@_01KDCPPGHE@r@
  00231	e8 00 00 00 00	 call	 ?GetArgument@@YAPBDPBDAAV?$list@USArgumet@script@@V?$allocator@USArgumet@script@@@std@@@std@@@Z ; GetArgument
  00236	50		 push	 eax
  00237	e8 00 00 00 00	 call	 _atof

; 450  : 				pEventSet->CurrentColor.g = (float)atof(GetArgument("g", ScriptCommand.argList));

  0023c	8d 55 e8	 lea	 edx, DWORD PTR _ScriptCommand$[ebp+24]
  0023f	b9 00 00 00 00	 mov	 ecx, OFFSET ??_C@_01JEJKBAGA@g@
  00244	d9 5f 20	 fstp	 DWORD PTR [edi+32]
  00247	e8 00 00 00 00	 call	 ?GetArgument@@YAPBDPBDAAV?$list@USArgumet@script@@V?$allocator@USArgumet@script@@@std@@@std@@@Z ; GetArgument
  0024c	50		 push	 eax
  0024d	e8 00 00 00 00	 call	 _atof

; 451  : 				pEventSet->CurrentColor.b = (float)atof(GetArgument("b", ScriptCommand.argList));

  00252	8d 55 e8	 lea	 edx, DWORD PTR _ScriptCommand$[ebp+24]
  00255	b9 00 00 00 00	 mov	 ecx, OFFSET ??_C@_01OJONOECF@b@
  0025a	d9 5f 24	 fstp	 DWORD PTR [edi+36]
  0025d	e8 00 00 00 00	 call	 ?GetArgument@@YAPBDPBDAAV?$list@USArgumet@script@@V?$allocator@USArgumet@script@@@std@@@std@@@Z ; GetArgument
  00262	50		 push	 eax
  00263	e8 00 00 00 00	 call	 _atof

; 452  : 				pEventSet->CurrentColor.a = 1.0f;

  00268	d9 5d a0	 fstp	 DWORD PTR $T86[ebp]

; 453  : 			}

  0026b	f3 0f 10 45 a0	 movss	 xmm0, DWORD PTR $T86[ebp]
  00270	83 c4 0c	 add	 esp, 12			; 0000000cH

; 837  : 	return true;

  00273	f3 0f 11 47 28	 movss	 DWORD PTR [edi+40], xmm0
  00278	c7 47 2c 00 00
	80 3f		 mov	 DWORD PTR [edi+44], 1065353216 ; 3f800000H
  0027f	e9 c5 0b 00 00	 jmp	 $LN2@ProcessEve
$LN16@ProcessEve:
  00284	c7 47 20 00 00
	80 3f		 mov	 DWORD PTR [edi+32], 1065353216 ; 3f800000H
  0028b	c7 47 24 00 00
	80 3f		 mov	 DWORD PTR [edi+36], 1065353216 ; 3f800000H
  00292	f3 0f 11 47 28	 movss	 DWORD PTR [edi+40], xmm0
  00297	c7 47 2c 00 00
	80 3f		 mov	 DWORD PTR [edi+44], 1065353216 ; 3f800000H
  0029e	e9 a6 0b 00 00	 jmp	 $LN2@ProcessEve
$LN18@ProcessEve:

; 454  : 			else
; 455  : 			{
; 456  : 				pEventSet->CurrentColor.r = 1.0f;
; 457  : 				pEventSet->CurrentColor.g = 1.0f;
; 458  : 				pEventSet->CurrentColor.a = 1.0f;
; 459  : 				pEventSet->CurrentColor.b = 1.0f;
; 460  : 			}
; 461  : 			break;
; 462  : 		}
; 463  : 
; 464  : 		case EVENT_TYPE_COLOR256:
; 465  : 		{
; 466  : 			if (EVENT_POSITION_START == pEventPosition)

  002a3	83 7d a4 00	 cmp	 DWORD PTR _pEventPosition$[ebp], 0
  002a7	f3 0f 10 05 00
	00 00 00	 movss	 xmm0, DWORD PTR __real@3f800000
  002af	75 d3		 jne	 SHORT $LN16@ProcessEve

; 467  : 			{
; 468  : 				pEventSet->CurrentColor.r = float(atof(GetArgument("r", ScriptCommand.argList)) / 255.0f);

  002b1	8d 55 e8	 lea	 edx, DWORD PTR _ScriptCommand$[ebp+24]
  002b4	b9 00 00 00 00	 mov	 ecx, OFFSET ??_C@_01KDCPPGHE@r@
  002b9	e8 00 00 00 00	 call	 ?GetArgument@@YAPBDPBDAAV?$list@USArgumet@script@@V?$allocator@USArgumet@script@@@std@@@std@@@Z ; GetArgument
  002be	50		 push	 eax
  002bf	e8 00 00 00 00	 call	 _atof
  002c4	dc 35 00 00 00
	00		 fdiv	 QWORD PTR __real@406fe00000000000

; 469  : 				pEventSet->CurrentColor.g = float(atof(GetArgument("g", ScriptCommand.argList)) / 255.0f);

  002ca	8d 55 e8	 lea	 edx, DWORD PTR _ScriptCommand$[ebp+24]
  002cd	b9 00 00 00 00	 mov	 ecx, OFFSET ??_C@_01JEJKBAGA@g@
  002d2	d9 5f 20	 fstp	 DWORD PTR [edi+32]
  002d5	e8 00 00 00 00	 call	 ?GetArgument@@YAPBDPBDAAV?$list@USArgumet@script@@V?$allocator@USArgumet@script@@@std@@@std@@@Z ; GetArgument
  002da	50		 push	 eax
  002db	e8 00 00 00 00	 call	 _atof
  002e0	dc 35 00 00 00
	00		 fdiv	 QWORD PTR __real@406fe00000000000

; 470  : 				pEventSet->CurrentColor.b = float(atof(GetArgument("b", ScriptCommand.argList)) / 255.0f);

  002e6	8d 55 e8	 lea	 edx, DWORD PTR _ScriptCommand$[ebp+24]
  002e9	b9 00 00 00 00	 mov	 ecx, OFFSET ??_C@_01OJONOECF@b@
  002ee	d9 5f 24	 fstp	 DWORD PTR [edi+36]
  002f1	e8 00 00 00 00	 call	 ?GetArgument@@YAPBDPBDAAV?$list@USArgumet@script@@V?$allocator@USArgumet@script@@@std@@@std@@@Z ; GetArgument
  002f6	50		 push	 eax
  002f7	e8 00 00 00 00	 call	 _atof
  002fc	dc 35 00 00 00
	00		 fdiv	 QWORD PTR __real@406fe00000000000
  00302	83 c4 0c	 add	 esp, 12			; 0000000cH

; 471  : 				pEventSet->CurrentColor.a = 1.0f;

  00305	d9 5d a0	 fstp	 DWORD PTR $T85[ebp]

; 472  : 			}

  00308	f3 0f 10 45 a0	 movss	 xmm0, DWORD PTR $T85[ebp]

; 837  : 	return true;

  0030d	f3 0f 11 47 28	 movss	 DWORD PTR [edi+40], xmm0
  00312	c7 47 2c 00 00
	80 3f		 mov	 DWORD PTR [edi+44], 1065353216 ; 3f800000H
  00319	e9 2b 0b 00 00	 jmp	 $LN2@ProcessEve
$LN21@ProcessEve:

; 473  : 			else
; 474  : 			{
; 475  : 				pEventSet->CurrentColor.r = 1.0f;
; 476  : 				pEventSet->CurrentColor.g = 1.0f;
; 477  : 				pEventSet->CurrentColor.a = 1.0f;
; 478  : 				pEventSet->CurrentColor.b = 1.0f;
; 479  : 			}
; 480  : 			break;
; 481  : 		}
; 482  : 
; 483  : 		case EVENT_TYPE_ENTER:
; 484  : 		{
; 485  : 			__InsertLine(*pEventSet);

  0031e	6a 00		 push	 0
  00320	6a 00		 push	 0
  00322	57		 push	 edi
  00323	8b ce		 mov	 ecx, esi
  00325	e8 00 00 00 00	 call	 ?__InsertLine@CPythonEventManager@@IAEXAAUSEventSet@1@HH@Z ; CPythonEventManager::__InsertLine

; 486  : 			break;

  0032a	e9 1a 0b 00 00	 jmp	 $LN2@ProcessEve
$LN22@ProcessEve:

; 487  : 		}
; 488  : 
; 489  : 		case EVENT_TYPE_WAIT:
; 490  : 		{
; 491  : 			pEventSet->iyLocal = 0;

  0032f	c7 47 10 00 00
	00 00		 mov	 DWORD PTR [edi+16], 0

; 492  : 			pEventSet->isLock = true;

  00336	c6 47 14 01	 mov	 BYTE PTR [edi+20], 1

; 493  : 			break;

  0033a	e9 0a 0b 00 00	 jmp	 $LN2@ProcessEve
$LN23@ProcessEve:

; 494  : 		}
; 495  : 
; 496  : 		case EVENT_TYPE_NEXT:
; 497  : 		{
; 498  : 			MakeNextButton(pEventSet, BUTTON_TYPE_NEXT);

  0033f	6a 00		 push	 0
  00341	57		 push	 edi
  00342	e8 00 00 00 00	 call	 ?MakeNextButton@CPythonEventManager@@IAEXPAUSEventSet@1@H@Z ; CPythonEventManager::MakeNextButton

; 499  : 			pEventSet->iAdjustLine += 2;

  00347	83 87 ac 00 00
	00 02		 add	 DWORD PTR [edi+172], 2

; 500  : 			break;

  0034e	e9 f6 0a 00 00	 jmp	 $LN2@ProcessEve
$LN24@ProcessEve:

; 501  : 		}
; 502  : 
; 503  : 		case EVENT_TYPE_DONE:
; 504  : 		{
; 505  : 			MakeNextButton(pEventSet, BUTTON_TYPE_DONE);

  00353	6a 01		 push	 1
  00355	57		 push	 edi
  00356	e8 00 00 00 00	 call	 ?MakeNextButton@CPythonEventManager@@IAEXPAUSEventSet@1@H@Z ; CPythonEventManager::MakeNextButton

; 506  : 			PyCallClassMemberFunc(pEventSet->poEventHandler, "DoneEvent", Py_BuildValue("()"));

  0035b	68 00 00 00 00	 push	 OFFSET ??_C@_02HCKGKOFO@?$CI?$CJ@
  00360	ff 15 00 00 00
	00		 call	 DWORD PTR __imp__Py_BuildValue
  00366	50		 push	 eax
  00367	68 00 00 00 00	 push	 OFFSET ??_C@_09DIPEHMLE@DoneEvent@
  0036c	ff b7 d0 00 00
	00		 push	 DWORD PTR [edi+208]
  00372	e8 00 00 00 00	 call	 ?PyCallClassMemberFunc@@YA_NPAU_object@@PBD0@Z ; PyCallClassMemberFunc
  00377	83 c4 10	 add	 esp, 16			; 00000010H

; 507  : 			pEventSet->iAdjustLine += 2;

  0037a	83 87 ac 00 00
	00 02		 add	 DWORD PTR [edi+172], 2

; 508  : 			break;

  00381	e9 c3 0a 00 00	 jmp	 $LN2@ProcessEve
$LN26@ProcessEve:

; 509  : 		}
; 510  : 
; 511  : 		case EVENT_TYPE_CLEAR:
; 512  : 		{
; 513  : 			ClearLine(pEventSet);
; 514  : 			break;
; 515  : 		}
; 516  : 
; 517  : 		case EVENT_TYPE_QUESTION:
; 518  : 		{
; 519  : 			MakeQuestion(pEventSet, ScriptCommand.argList);

  00386	8d 45 e8	 lea	 eax, DWORD PTR _ScriptCommand$[ebp+24]
  00389	50		 push	 eax
  0038a	57		 push	 edi
  0038b	e8 00 00 00 00	 call	 ?MakeQuestion@CPythonEventManager@@IAEXPAUSEventSet@1@AAV?$list@USArgumet@script@@V?$allocator@USArgumet@script@@@std@@@std@@@Z ; CPythonEventManager::MakeQuestion

; 520  : 			break;

  00390	e9 b4 0a 00 00	 jmp	 $LN2@ProcessEve
$LN27@ProcessEve:

; 521  : 		}
; 522  : 
; 523  : 		case EVENT_TYPE_LEFT_IMAGE:
; 524  : 		{
; 525  : 			PyCallClassMemberFunc(pEventSet->poEventHandler, "OnLeftImage", Py_BuildValue("(s)", GetArgument("src", ScriptCommand.argList)));

  00395	8d 55 e8	 lea	 edx, DWORD PTR _ScriptCommand$[ebp+24]
  00398	b9 00 00 00 00	 mov	 ecx, OFFSET ??_C@_03LOJEKLML@src@
  0039d	e8 00 00 00 00	 call	 ?GetArgument@@YAPBDPBDAAV?$list@USArgumet@script@@V?$allocator@USArgumet@script@@@std@@@std@@@Z ; GetArgument
  003a2	50		 push	 eax
  003a3	68 00 00 00 00	 push	 OFFSET ??_C@_03KJMMOONA@?$CIs?$CJ@
  003a8	ff 15 00 00 00
	00		 call	 DWORD PTR __imp__Py_BuildValue
  003ae	50		 push	 eax
  003af	68 00 00 00 00	 push	 OFFSET ??_C@_0M@MHNDOIJH@OnLeftImage@
  003b4	ff b7 d0 00 00
	00		 push	 DWORD PTR [edi+208]
  003ba	e8 00 00 00 00	 call	 ?PyCallClassMemberFunc@@YA_NPAU_object@@PBD0@Z ; PyCallClassMemberFunc
  003bf	83 c4 14	 add	 esp, 20			; 00000014H

; 526  : 			break;

  003c2	e9 82 0a 00 00	 jmp	 $LN2@ProcessEve
$LN28@ProcessEve:

; 527  : 		}
; 528  : 
; 529  : 		case EVENT_TYPE_TOP_IMAGE:
; 530  : 		{
; 531  : 			PyCallClassMemberFunc(pEventSet->poEventHandler, "OnTopImage", Py_BuildValue("(s)", GetArgument("src", ScriptCommand.argList)));

  003c7	8d 55 e8	 lea	 edx, DWORD PTR _ScriptCommand$[ebp+24]
  003ca	b9 00 00 00 00	 mov	 ecx, OFFSET ??_C@_03LOJEKLML@src@
  003cf	e8 00 00 00 00	 call	 ?GetArgument@@YAPBDPBDAAV?$list@USArgumet@script@@V?$allocator@USArgumet@script@@@std@@@std@@@Z ; GetArgument
  003d4	50		 push	 eax
  003d5	68 00 00 00 00	 push	 OFFSET ??_C@_03KJMMOONA@?$CIs?$CJ@
  003da	ff 15 00 00 00
	00		 call	 DWORD PTR __imp__Py_BuildValue
  003e0	50		 push	 eax
  003e1	68 00 00 00 00	 push	 OFFSET ??_C@_0L@ELIGNPMG@OnTopImage@
  003e6	ff b7 d0 00 00
	00		 push	 DWORD PTR [edi+208]
  003ec	e8 00 00 00 00	 call	 ?PyCallClassMemberFunc@@YA_NPAU_object@@PBD0@Z ; PyCallClassMemberFunc
  003f1	83 c4 14	 add	 esp, 20			; 00000014H

; 532  : 			break;

  003f4	e9 50 0a 00 00	 jmp	 $LN2@ProcessEve
$LN29@ProcessEve:

; 533  : 		}
; 534  : 
; 535  : 		case EVENT_TYPE_BACKGROUND_IMAGE:
; 536  : 		{
; 537  : 			PyCallClassMemberFunc(pEventSet->poEventHandler, "OnBackgroundImage", Py_BuildValue("(s)", GetArgument("src", ScriptCommand.argList)));

  003f9	8d 55 e8	 lea	 edx, DWORD PTR _ScriptCommand$[ebp+24]
  003fc	b9 00 00 00 00	 mov	 ecx, OFFSET ??_C@_03LOJEKLML@src@
  00401	e8 00 00 00 00	 call	 ?GetArgument@@YAPBDPBDAAV?$list@USArgumet@script@@V?$allocator@USArgumet@script@@@std@@@std@@@Z ; GetArgument
  00406	50		 push	 eax
  00407	68 00 00 00 00	 push	 OFFSET ??_C@_03KJMMOONA@?$CIs?$CJ@
  0040c	ff 15 00 00 00
	00		 call	 DWORD PTR __imp__Py_BuildValue
  00412	50		 push	 eax
  00413	68 00 00 00 00	 push	 OFFSET ??_C@_0BC@OIPDJOGL@OnBackgroundImage@
  00418	ff b7 d0 00 00
	00		 push	 DWORD PTR [edi+208]
  0041e	e8 00 00 00 00	 call	 ?PyCallClassMemberFunc@@YA_NPAU_object@@PBD0@Z ; PyCallClassMemberFunc
  00423	83 c4 14	 add	 esp, 20			; 00000014H

; 538  : 			break;

  00426	e9 1e 0a 00 00	 jmp	 $LN2@ProcessEve
$LN30@ProcessEve:

; 539  : 		}
; 540  : 
; 541  : 		case EVENT_TYPE_IMAGE:
; 542  : 		{
; 543  : 			int x = atoi(GetArgument("x", ScriptCommand.argList));

  0042b	8d 55 e8	 lea	 edx, DWORD PTR _ScriptCommand$[ebp+24]
  0042e	b9 00 00 00 00	 mov	 ecx, OFFSET ??_C@_01FJMABOPO@x@
  00433	e8 00 00 00 00	 call	 ?GetArgument@@YAPBDPBDAAV?$list@USArgumet@script@@V?$allocator@USArgumet@script@@@std@@@std@@@Z ; GetArgument
  00438	50		 push	 eax
  00439	e8 00 00 00 00	 call	 __atoi64

; 544  : 			int y = atoi(GetArgument("y", ScriptCommand.argList));

  0043e	8d 55 e8	 lea	 edx, DWORD PTR _ScriptCommand$[ebp+24]
  00441	b9 00 00 00 00	 mov	 ecx, OFFSET ??_C@_01EANLCPLP@y@
  00446	8b f8		 mov	 edi, eax
  00448	e8 00 00 00 00	 call	 ?GetArgument@@YAPBDPBDAAV?$list@USArgumet@script@@V?$allocator@USArgumet@script@@@std@@@std@@@Z ; GetArgument
  0044d	50		 push	 eax
  0044e	e8 00 00 00 00	 call	 __atoi64

; 545  : 			const char* src = GetArgument("src", ScriptCommand.argList);

  00453	8d 55 e8	 lea	 edx, DWORD PTR _ScriptCommand$[ebp+24]
  00456	b9 00 00 00 00	 mov	 ecx, OFFSET ??_C@_03LOJEKLML@src@
  0045b	8b f0		 mov	 esi, eax
  0045d	e8 00 00 00 00	 call	 ?GetArgument@@YAPBDPBDAAV?$list@USArgumet@script@@V?$allocator@USArgumet@script@@@std@@@std@@@Z ; GetArgument

; 546  : 
; 547  : 			PyCallClassMemberFunc(pEventSet->poEventHandler, "OnImage", Py_BuildValue("(iis)", x, y, src));

  00462	50		 push	 eax
  00463	56		 push	 esi
  00464	57		 push	 edi
  00465	68 00 00 00 00	 push	 OFFSET ??_C@_05GFDPDNFA@?$CIiis?$CJ@
  0046a	ff 15 00 00 00
	00		 call	 DWORD PTR __imp__Py_BuildValue
  00470	50		 push	 eax
  00471	8b 45 90	 mov	 eax, DWORD PTR $T77[ebp]
  00474	68 00 00 00 00	 push	 OFFSET ??_C@_07COJEPNBG@OnImage@
  00479	ff b0 d0 00 00
	00		 push	 DWORD PTR [eax+208]
  0047f	e8 00 00 00 00	 call	 ?PyCallClassMemberFunc@@YA_NPAU_object@@PBD0@Z ; PyCallClassMemberFunc
  00484	83 c4 24	 add	 esp, 36			; 00000024H

; 548  : 			break;

  00487	e9 bd 09 00 00	 jmp	 $LN2@ProcessEve
$LN31@ProcessEve:

; 549  : 		}
; 550  : 
; 551  : 		case EVENT_TYPE_INSERT_IMAGE:
; 552  : 		{
; 553  : 			const std::string& imageFile = GetArgumentString("image_name", ScriptCommand.argList);

  0048c	8d 55 e8	 lea	 edx, DWORD PTR _ScriptCommand$[ebp+24]
  0048f	b9 00 00 00 00	 mov	 ecx, OFFSET ??_C@_0L@NDIFBCJA@image_name@
  00494	e8 00 00 00 00	 call	 ?GetArgumentString@@YAABV?$basic_string@DU?$char_traits@D@std@@V?$allocator@D@2@@std@@PBDAAV?$list@USArgumet@script@@V?$allocator@USArgumet@script@@@std@@@2@@Z ; GetArgumentString

; 554  : 			const char* title = GetArgument("title", ScriptCommand.argList);

  00499	8d 55 e8	 lea	 edx, DWORD PTR _ScriptCommand$[ebp+24]
  0049c	b9 00 00 00 00	 mov	 ecx, OFFSET ??_C@_05PHLGJONK@title@
  004a1	8b f0		 mov	 esi, eax
  004a3	e8 00 00 00 00	 call	 ?GetArgument@@YAPBDPBDAAV?$list@USArgumet@script@@V?$allocator@USArgumet@script@@@std@@@std@@@Z ; GetArgument

; 555  : 			const char* desc = GetArgument("desc", ScriptCommand.argList);

  004a8	8d 55 e8	 lea	 edx, DWORD PTR _ScriptCommand$[ebp+24]
  004ab	89 45 9c	 mov	 DWORD PTR _title$1$[ebp], eax
  004ae	b9 00 00 00 00	 mov	 ecx, OFFSET ??_C@_04EBPADADD@desc@
  004b3	e8 00 00 00 00	 call	 ?GetArgument@@YAPBDPBDAAV?$list@USArgumet@script@@V?$allocator@USArgumet@script@@@std@@@std@@@Z ; GetArgument

; 556  : 			int index = atoi(GetArgument("index", ScriptCommand.argList));

  004b8	8d 55 e8	 lea	 edx, DWORD PTR _ScriptCommand$[ebp+24]
  004bb	89 45 a8	 mov	 DWORD PTR _desc$1$[ebp], eax
  004be	b9 00 00 00 00	 mov	 ecx, OFFSET ??_C@_05FKHKFDID@index@
  004c3	e8 00 00 00 00	 call	 ?GetArgument@@YAPBDPBDAAV?$list@USArgumet@script@@V?$allocator@USArgumet@script@@@std@@@std@@@Z ; GetArgument
  004c8	50		 push	 eax
  004c9	e8 00 00 00 00	 call	 __atoi64

; 557  : 			int total = atoi(GetArgument("total", ScriptCommand.argList));

  004ce	8d 55 e8	 lea	 edx, DWORD PTR _ScriptCommand$[ebp+24]
  004d1	89 45 a4	 mov	 DWORD PTR _index$1$[ebp], eax
  004d4	b9 00 00 00 00	 mov	 ecx, OFFSET ??_C@_05KBOMEDGA@total@
  004d9	e8 00 00 00 00	 call	 ?GetArgument@@YAPBDPBDAAV?$list@USArgumet@script@@V?$allocator@USArgumet@script@@@std@@@std@@@Z ; GetArgument
  004de	50		 push	 eax
  004df	e8 00 00 00 00	 call	 __atoi64
  004e4	83 c4 08	 add	 esp, 8
  004e7	89 45 90	 mov	 DWORD PTR _total$1$[ebp], eax
; File C:\Program Files\Microsoft Visual Studio\2022\Community\VC\Tools\MSVC\14.44.35207\include\xstring

; 2494 :         return _Mypair._Myval2._Mysize == 0;

  004ea	83 7e 10 00	 cmp	 DWORD PTR [esi+16], 0
; File C:\Anka2Project\Anka2Project\Source\Binary\source\UserInterface\PythonEventManager.cpp

; 559  : 			if (imageFile.empty())

  004ee	75 47		 jne	 SHORT $LN32@ProcessEve

; 560  : 			{
; 561  : 				const char* imageType = GetArgument("image_type", ScriptCommand.argList);

  004f0	8d 55 e8	 lea	 edx, DWORD PTR _ScriptCommand$[ebp+24]
  004f3	b9 00 00 00 00	 mov	 ecx, OFFSET ??_C@_0L@HIIGNCOA@image_type@
  004f8	e8 00 00 00 00	 call	 ?GetArgument@@YAPBDPBDAAV?$list@USArgumet@script@@V?$allocator@USArgumet@script@@@std@@@std@@@Z ; GetArgument

; 562  : 				int iItemIndex = atoi(GetArgument("idx", ScriptCommand.argList));

  004fd	8d 55 e8	 lea	 edx, DWORD PTR _ScriptCommand$[ebp+24]
  00500	b9 00 00 00 00	 mov	 ecx, OFFSET ??_C@_03DAKNAIGI@idx@
  00505	8b f0		 mov	 esi, eax
  00507	e8 00 00 00 00	 call	 ?GetArgument@@YAPBDPBDAAV?$list@USArgumet@script@@V?$allocator@USArgumet@script@@@std@@@std@@@Z ; GetArgument
  0050c	50		 push	 eax
  0050d	e8 00 00 00 00	 call	 __atoi64

; 563  : 				PyCallClassMemberFunc(pEventSet->poEventHandler, "OnInsertItemIcon", Py_BuildValue("(sissii)", imageType, iItemIndex, title, desc, index, total));

  00512	ff 75 90	 push	 DWORD PTR _total$1$[ebp]
  00515	c7 45 a0 00 00
	00 00		 mov	 DWORD PTR $T87[ebp], OFFSET ??_C@_0BB@FCLBKNGH@OnInsertItemIcon@
  0051c	ff 75 a4	 push	 DWORD PTR _index$1$[ebp]
  0051f	ff 75 a8	 push	 DWORD PTR _desc$1$[ebp]
  00522	ff 75 9c	 push	 DWORD PTR _title$1$[ebp]
  00525	50		 push	 eax
  00526	56		 push	 esi
  00527	68 00 00 00 00	 push	 OFFSET ??_C@_08GKIEGGBC@?$CIsissii?$CJ@
  0052c	ff 15 00 00 00
	00		 call	 DWORD PTR __imp__Py_BuildValue
  00532	83 c4 20	 add	 esp, 32			; 00000020H

; 564  : 			}

  00535	eb 2a		 jmp	 SHORT $LN662@ProcessEve
$LN32@ProcessEve:
; File C:\Program Files\Microsoft Visual Studio\2022\Community\VC\Tools\MSVC\14.44.35207\include\xstring

; 453  :         return _Myres > _Small_string_capacity;

  00537	83 7e 14 0f	 cmp	 DWORD PTR [esi+20], 15	; 0000000fH

; 445  :         if (_Large_mode_engaged()) {

  0053b	76 02		 jbe	 SHORT $LN235@ProcessEve

; 446  :             _Result = _Unfancy(_Bx._Ptr);

  0053d	8b 36		 mov	 esi, DWORD PTR [esi]
$LN235@ProcessEve:
; File C:\Anka2Project\Anka2Project\Source\Binary\source\UserInterface\PythonEventManager.cpp

; 567  : 				PyCallClassMemberFunc(pEventSet->poEventHandler, "OnInsertImage", Py_BuildValue("(ssssii)", imageFile.c_str(), title, title, desc, index, total));

  0053f	50		 push	 eax
  00540	ff 75 a4	 push	 DWORD PTR _index$1$[ebp]
  00543	8b 45 9c	 mov	 eax, DWORD PTR _title$1$[ebp]
  00546	ff 75 a8	 push	 DWORD PTR _desc$1$[ebp]
  00549	c7 45 a0 00 00
	00 00		 mov	 DWORD PTR $T87[ebp], OFFSET ??_C@_0O@LBIBFC@OnInsertImage@
  00550	50		 push	 eax
  00551	50		 push	 eax
  00552	56		 push	 esi
  00553	68 00 00 00 00	 push	 OFFSET ??_C@_08KJCKKFJC@?$CIssssii?$CJ@
  00558	ff 15 00 00 00
	00		 call	 DWORD PTR __imp__Py_BuildValue
  0055e	83 c4 1c	 add	 esp, 28			; 0000001cH
$LN662@ProcessEve:

; 568  : 			}
; 569  : 			pEventSet->iAdjustLine += 2;

  00561	50		 push	 eax
  00562	ff 75 a0	 push	 DWORD PTR $T87[ebp]
  00565	8b cf		 mov	 ecx, edi
  00567	ff b1 d0 00 00
	00		 push	 DWORD PTR [ecx+208]
  0056d	e8 00 00 00 00	 call	 ?PyCallClassMemberFunc@@YA_NPAU_object@@PBD0@Z ; PyCallClassMemberFunc
  00572	83 c4 0c	 add	 esp, 12			; 0000000cH
  00575	83 87 ac 00 00
	00 02		 add	 DWORD PTR [edi+172], 2

; 570  : 			break;

  0057c	e9 c8 08 00 00	 jmp	 $LN2@ProcessEve
$LN34@ProcessEve:

; 571  : 		}
; 572  : 
; 573  : 		case EVENT_TYPE_ADD_MAP_SIGNAL:
; 574  : 		{
; 575  : 			float x, y;
; 576  : 			x = (float)atof(GetArgument("x", ScriptCommand.argList));

  00581	8d 55 e8	 lea	 edx, DWORD PTR _ScriptCommand$[ebp+24]
  00584	b9 00 00 00 00	 mov	 ecx, OFFSET ??_C@_01FJMABOPO@x@
  00589	e8 00 00 00 00	 call	 ?GetArgument@@YAPBDPBDAAV?$list@USArgumet@script@@V?$allocator@USArgumet@script@@@std@@@std@@@Z ; GetArgument
  0058e	50		 push	 eax
  0058f	e8 00 00 00 00	 call	 _atof

; 577  : 			y = (float)atof(GetArgument("y", ScriptCommand.argList));

  00594	8d 55 e8	 lea	 edx, DWORD PTR _ScriptCommand$[ebp+24]
  00597	b9 00 00 00 00	 mov	 ecx, OFFSET ??_C@_01EANLCPLP@y@
  0059c	d9 5d a0	 fstp	 DWORD PTR _x$84[ebp]
  0059f	e8 00 00 00 00	 call	 ?GetArgument@@YAPBDPBDAAV?$list@USArgumet@script@@V?$allocator@USArgumet@script@@@std@@@std@@@Z ; GetArgument
  005a4	50		 push	 eax
  005a5	e8 00 00 00 00	 call	 _atof
; File C:\Anka2Project\Anka2Project\Source\Binary\source\eterBase\Singleton.h

; 26   : 		assert(ms_singleton);

  005aa	8b 0d 00 00 00
	00		 mov	 ecx, DWORD PTR ?ms_singleton@?$CSingleton@VCPythonMiniMap@@@@0PAVCPythonMiniMap@@A ; CSingleton<CPythonMiniMap>::ms_singleton
; File C:\Anka2Project\Anka2Project\Source\Binary\source\UserInterface\PythonEventManager.cpp

; 577  : 			y = (float)atof(GetArgument("y", ScriptCommand.argList));

  005b0	83 c4 08	 add	 esp, 8
  005b3	d9 5d 90	 fstp	 DWORD PTR _y$76[ebp]
; File C:\Anka2Project\Anka2Project\Source\Binary\source\eterBase\Singleton.h

; 26   : 		assert(ms_singleton);

  005b6	85 c9		 test	 ecx, ecx
  005b8	75 1a		 jne	 SHORT $LN206@ProcessEve
  005ba	6a 1a		 push	 26			; 0000001aH
  005bc	68 00 00 00 00	 push	 OFFSET ??_C@_1IO@CAJLEEOI@?$AAC?$AA?3?$AA?2?$AAA?$AAn?$AAk?$AAa?$AA2?$AAP?$AAr?$AAo?$AAj?$AAe?$AAc?$AAt@
  005c1	68 00 00 00 00	 push	 OFFSET ??_C@_1BK@FMEHPMFE@?$AAm?$AAs?$AA_?$AAs?$AAi?$AAn?$AAg?$AAl?$AAe?$AAt?$AAo?$AAn@
  005c6	e8 00 00 00 00	 call	 __wassert
  005cb	8b 0d 00 00 00
	00		 mov	 ecx, DWORD PTR ?ms_singleton@?$CSingleton@VCPythonMiniMap@@@@0PAVCPythonMiniMap@@A ; CSingleton<CPythonMiniMap>::ms_singleton
  005d1	83 c4 0c	 add	 esp, 12			; 0000000cH
$LN206@ProcessEve:
; File C:\Anka2Project\Anka2Project\Source\Binary\source\UserInterface\PythonEventManager.cpp

; 578  : 			CPythonMiniMap::Instance().AddSignalPoint(x, y);

  005d4	f3 0f 10 55 90	 movss	 xmm2, DWORD PTR _y$76[ebp]
  005d9	f3 0f 10 4d a0	 movss	 xmm1, DWORD PTR _x$84[ebp]
  005de	e8 00 00 00 00	 call	 ?AddSignalPoint@CPythonMiniMap@@QAEXMM@Z ; CPythonMiniMap::AddSignalPoint
; File C:\Anka2Project\Anka2Project\Source\Binary\source\eterBase\Singleton.h

; 26   : 		assert(ms_singleton);

  005e3	8b 0d 00 00 00
	00		 mov	 ecx, DWORD PTR ?ms_singleton@?$CSingleton@VCPythonMiniMap@@@@0PAVCPythonMiniMap@@A ; CSingleton<CPythonMiniMap>::ms_singleton
  005e9	85 c9		 test	 ecx, ecx
  005eb	75 1a		 jne	 SHORT $LN209@ProcessEve
  005ed	6a 1a		 push	 26			; 0000001aH
  005ef	68 00 00 00 00	 push	 OFFSET ??_C@_1IO@CAJLEEOI@?$AAC?$AA?3?$AA?2?$AAA?$AAn?$AAk?$AAa?$AA2?$AAP?$AAr?$AAo?$AAj?$AAe?$AAc?$AAt@
  005f4	68 00 00 00 00	 push	 OFFSET ??_C@_1BK@FMEHPMFE@?$AAm?$AAs?$AA_?$AAs?$AAi?$AAn?$AAg?$AAl?$AAe?$AAt?$AAo?$AAn@
  005f9	e8 00 00 00 00	 call	 __wassert
  005fe	8b 0d 00 00 00
	00		 mov	 ecx, DWORD PTR ?ms_singleton@?$CSingleton@VCPythonMiniMap@@@@0PAVCPythonMiniMap@@A ; CSingleton<CPythonMiniMap>::ms_singleton
  00604	83 c4 0c	 add	 esp, 12			; 0000000cH
$LN209@ProcessEve:
; File C:\Anka2Project\Anka2Project\Source\Binary\source\UserInterface\PythonEventManager.cpp

; 579  : 			CPythonMiniMap::Instance().OpenAtlasWindow();

  00607	e8 00 00 00 00	 call	 ?OpenAtlasWindow@CPythonMiniMap@@QAEXXZ ; CPythonMiniMap::OpenAtlasWindow

; 580  : 			break;

  0060c	e9 38 08 00 00	 jmp	 $LN2@ProcessEve
$LN35@ProcessEve:
; File C:\Anka2Project\Anka2Project\Source\Binary\source\eterBase\Singleton.h

; 26   : 		assert(ms_singleton);

  00611	8b 0d 00 00 00
	00		 mov	 ecx, DWORD PTR ?ms_singleton@?$CSingleton@VCPythonMiniMap@@@@0PAVCPythonMiniMap@@A ; CSingleton<CPythonMiniMap>::ms_singleton
  00617	85 c9		 test	 ecx, ecx
  00619	75 1a		 jne	 SHORT $LN212@ProcessEve
  0061b	6a 1a		 push	 26			; 0000001aH
  0061d	68 00 00 00 00	 push	 OFFSET ??_C@_1IO@CAJLEEOI@?$AAC?$AA?3?$AA?2?$AAA?$AAn?$AAk?$AAa?$AA2?$AAP?$AAr?$AAo?$AAj?$AAe?$AAc?$AAt@
  00622	68 00 00 00 00	 push	 OFFSET ??_C@_1BK@FMEHPMFE@?$AAm?$AAs?$AA_?$AAs?$AAi?$AAn?$AAg?$AAl?$AAe?$AAt?$AAo?$AAn@
  00627	e8 00 00 00 00	 call	 __wassert
  0062c	8b 0d 00 00 00
	00		 mov	 ecx, DWORD PTR ?ms_singleton@?$CSingleton@VCPythonMiniMap@@@@0PAVCPythonMiniMap@@A ; CSingleton<CPythonMiniMap>::ms_singleton
  00632	83 c4 0c	 add	 esp, 12			; 0000000cH
$LN212@ProcessEve:
; File C:\Anka2Project\Anka2Project\Source\Binary\source\UserInterface\PythonEventManager.cpp

; 585  : 			CPythonMiniMap::Instance().ClearAllSignalPoint();

  00635	e8 00 00 00 00	 call	 ?ClearAllSignalPoint@CPythonMiniMap@@QAEXXZ ; CPythonMiniMap::ClearAllSignalPoint

; 586  : 			break;

  0063a	e9 0a 08 00 00	 jmp	 $LN2@ProcessEve
$LN36@ProcessEve:

; 587  : 		}
; 588  : 
; 589  : 		case EVENT_TYPE_QUEST_BUTTON_CLOSE:
; 590  : 		{
; 591  : 			PyCallClassMemberFunc(m_poInterface, "BINARY_ClearQuest",

  0063f	8d 55 e8	 lea	 edx, DWORD PTR _ScriptCommand$[ebp+24]
  00642	b9 00 00 00 00	 mov	 ecx, OFFSET ??_C@_03DAKNAIGI@idx@
  00647	e8 00 00 00 00	 call	 ?GetArgument@@YAPBDPBDAAV?$list@USArgumet@script@@V?$allocator@USArgumet@script@@@std@@@std@@@Z ; GetArgument
  0064c	50		 push	 eax
  0064d	e8 00 00 00 00	 call	 __atoi64
  00652	52		 push	 edx
  00653	50		 push	 eax
  00654	68 00 00 00 00	 push	 OFFSET ??_C@_03LIHNMIHG@?$CIi?$CJ@
  00659	ff 15 00 00 00
	00		 call	 DWORD PTR __imp__Py_BuildValue
  0065f	50		 push	 eax
  00660	68 00 00 00 00	 push	 OFFSET ??_C@_0BC@HCOLHKJD@BINARY_ClearQuest@
  00665	ff 76 64	 push	 DWORD PTR [esi+100]
  00668	e8 00 00 00 00	 call	 ?PyCallClassMemberFunc@@YA_NPAU_object@@PBD0@Z ; PyCallClassMemberFunc
  0066d	83 c4 1c	 add	 esp, 28			; 0000001cH

; 592  : 				Py_BuildValue("(i)", atoi(GetArgument("idx", ScriptCommand.argList))));
; 593  : 			break;

  00670	e9 d4 07 00 00	 jmp	 $LN2@ProcessEve
$LN37@ProcessEve:

; 594  : 		}
; 595  : 
; 596  : 		case EVENT_TYPE_QUEST_BUTTON:
; 597  : 		{
; 598  : 			const std::string& c_rstType = GetArgumentString("icon_type", ScriptCommand.argList);

  00675	8d 55 e8	 lea	 edx, DWORD PTR _ScriptCommand$[ebp+24]
  00678	b9 00 00 00 00	 mov	 ecx, OFFSET ??_C@_09CNONGEHE@icon_type@
  0067d	e8 00 00 00 00	 call	 ?GetArgumentString@@YAABV?$basic_string@DU?$char_traits@D@std@@V?$allocator@D@2@@std@@PBDAAV?$list@USArgumet@script@@V?$allocator@USArgumet@script@@@std@@@2@@Z ; GetArgumentString

; 599  : 			const std::string& c_rstFile = GetArgumentString("icon_name", ScriptCommand.argList);

  00682	8d 55 e8	 lea	 edx, DWORD PTR _ScriptCommand$[ebp+24]
  00685	89 45 90	 mov	 DWORD PTR __Result$1$[ebp], eax
  00688	b9 00 00 00 00	 mov	 ecx, OFFSET ??_C@_09IGOOKEAE@icon_name@
  0068d	e8 00 00 00 00	 call	 ?GetArgumentString@@YAABV?$basic_string@DU?$char_traits@D@std@@V?$allocator@D@2@@std@@PBDAAV?$list@USArgumet@script@@V?$allocator@USArgumet@script@@@std@@@2@@Z ; GetArgumentString

; 600  : 
; 601  : 			int idx = atoi(GetArgument("idx", ScriptCommand.argList));

  00692	8d 55 e8	 lea	 edx, DWORD PTR _ScriptCommand$[ebp+24]
  00695	b9 00 00 00 00	 mov	 ecx, OFFSET ??_C@_03DAKNAIGI@idx@
  0069a	8b f8		 mov	 edi, eax
  0069c	e8 00 00 00 00	 call	 ?GetArgument@@YAPBDPBDAAV?$list@USArgumet@script@@V?$allocator@USArgumet@script@@@std@@@std@@@Z ; GetArgument
  006a1	50		 push	 eax
  006a2	e8 00 00 00 00	 call	 __atoi64
  006a7	83 c4 04	 add	 esp, 4
  006aa	89 45 a8	 mov	 DWORD PTR _idx$1$[ebp], eax

; 602  : 			const char* name = GetArgument("name", ScriptCommand.argList);

  006ad	8d 55 e8	 lea	 edx, DWORD PTR _ScriptCommand$[ebp+24]
  006b0	b9 00 00 00 00	 mov	 ecx, OFFSET ??_C@_04MEMAJGDJ@name@
  006b5	e8 00 00 00 00	 call	 ?GetArgument@@YAPBDPBDAAV?$list@USArgumet@script@@V?$allocator@USArgumet@script@@@std@@@std@@@Z ; GetArgument
  006ba	89 45 a4	 mov	 DWORD PTR _name$1$[ebp], eax

; 603  : 
; 604  : 			if (!strcmp(name, " ?...."))

  006bd	ba 00 00 00 00	 mov	 edx, OFFSET ??_C@_0BD@MDDAOGBD@?A?$LG?$LA?$KC?$LD?$KN?5?$LP?k?H?$KF?$LM?$KO?$DP?4?4?4?4@
  006c2	8b c8		 mov	 ecx, eax
$LL653@ProcessEve:
  006c4	8a 01		 mov	 al, BYTE PTR [ecx]
  006c6	3a 02		 cmp	 al, BYTE PTR [edx]
  006c8	75 1a		 jne	 SHORT $LN654@ProcessEve
  006ca	84 c0		 test	 al, al
  006cc	74 12		 je	 SHORT $LN655@ProcessEve
  006ce	8a 41 01	 mov	 al, BYTE PTR [ecx+1]
  006d1	3a 42 01	 cmp	 al, BYTE PTR [edx+1]
  006d4	75 0e		 jne	 SHORT $LN654@ProcessEve
  006d6	83 c1 02	 add	 ecx, 2
  006d9	83 c2 02	 add	 edx, 2
  006dc	84 c0		 test	 al, al
  006de	75 e4		 jne	 SHORT $LL653@ProcessEve
$LN655@ProcessEve:
  006e0	33 c0		 xor	 eax, eax
  006e2	eb 05		 jmp	 SHORT $LN656@ProcessEve
$LN654@ProcessEve:
  006e4	1b c0		 sbb	 eax, eax
  006e6	83 c8 01	 or	 eax, 1
$LN656@ProcessEve:
  006e9	85 c0		 test	 eax, eax
  006eb	75 0c		 jne	 SHORT $LN38@ProcessEve

; 605  : 			{
; 606  : 				PyCallClassMemberFunc(m_poInterface, "BINARY_RecvQuest", Py_BuildValue("(isss)", idx, name, "highlight", ""));

  006ed	68 00 00 00 00	 push	 OFFSET ??_C@_00CNPNBAHC@@
  006f2	68 00 00 00 00	 push	 OFFSET ??_C@_09MIAHMBP@highlight@

; 607  : 			}

  006f7	eb 4a		 jmp	 SHORT $LN663@ProcessEve
$LN38@ProcessEve:
; File C:\Program Files\Microsoft Visual Studio\2022\Community\VC\Tools\MSVC\14.44.35207\include\xstring

; 2494 :         return _Mypair._Myval2._Mysize == 0;

  006f9	83 7f 10 00	 cmp	 DWORD PTR [edi+16], 0
; File C:\Anka2Project\Anka2Project\Source\Binary\source\UserInterface\PythonEventManager.cpp

; 610  : 				if (c_rstFile.empty())

  006fd	75 2f		 jne	 SHORT $LN40@ProcessEve

; 611  : 				{
; 612  : 					PyCallClassMemberFunc(m_poInterface, "RecvQuest", Py_BuildValue("(is)", idx, name));

  006ff	ff 75 a4	 push	 DWORD PTR _name$1$[ebp]
  00702	c7 45 9c 00 00
	00 00		 mov	 DWORD PTR $T82[ebp], OFFSET ??_C@_09IBEAJOHJ@RecvQuest@
  00709	ff 75 a8	 push	 DWORD PTR _idx$1$[ebp]
  0070c	68 00 00 00 00	 push	 OFFSET ??_C@_04JMLDJNEM@?$CIis?$CJ@
  00711	ff 15 00 00 00
	00		 call	 DWORD PTR __imp__Py_BuildValue
  00717	83 c4 0c	 add	 esp, 12			; 0000000cH

; 617  : 						Py_BuildValue("(isss)", idx, name, c_rstType.c_str(), c_rstFile.c_str()));
; 618  : 				}
; 619  : 			}
; 620  : 			break;

  0071a	50		 push	 eax
  0071b	ff 75 9c	 push	 DWORD PTR $T82[ebp]
  0071e	ff 76 64	 push	 DWORD PTR [esi+100]
  00721	e8 00 00 00 00	 call	 ?PyCallClassMemberFunc@@YA_NPAU_object@@PBD0@Z ; PyCallClassMemberFunc
  00726	83 c4 0c	 add	 esp, 12			; 0000000cH
  00729	e9 1b 07 00 00	 jmp	 $LN2@ProcessEve
$LN40@ProcessEve:
; File C:\Program Files\Microsoft Visual Studio\2022\Community\VC\Tools\MSVC\14.44.35207\include\xstring

; 453  :         return _Myres > _Small_string_capacity;

  0072e	83 7f 14 0f	 cmp	 DWORD PTR [edi+20], 15	; 0000000fH

; 445  :         if (_Large_mode_engaged()) {

  00732	76 02		 jbe	 SHORT $LN340@ProcessEve

; 446  :             _Result = _Unfancy(_Bx._Ptr);

  00734	8b 3f		 mov	 edi, DWORD PTR [edi]
$LN340@ProcessEve:

; 453  :         return _Myres > _Small_string_capacity;

  00736	8b 45 90	 mov	 eax, DWORD PTR __Result$1$[ebp]
  00739	83 78 14 0f	 cmp	 DWORD PTR [eax+20], 15	; 0000000fH

; 445  :         if (_Large_mode_engaged()) {

  0073d	76 02		 jbe	 SHORT $LN330@ProcessEve

; 446  :             _Result = _Unfancy(_Bx._Ptr);

  0073f	8b 00		 mov	 eax, DWORD PTR [eax]
$LN330@ProcessEve:
; File C:\Anka2Project\Anka2Project\Source\Binary\source\UserInterface\PythonEventManager.cpp

; 616  : 					PyCallClassMemberFunc(m_poInterface, "BINARY_RecvQuest",

  00741	57		 push	 edi
  00742	50		 push	 eax
$LN663@ProcessEve:

; 617  : 						Py_BuildValue("(isss)", idx, name, c_rstType.c_str(), c_rstFile.c_str()));
; 618  : 				}
; 619  : 			}
; 620  : 			break;

  00743	ff 75 a4	 push	 DWORD PTR _name$1$[ebp]
  00746	c7 45 9c 00 00
	00 00		 mov	 DWORD PTR $T82[ebp], OFFSET ??_C@_0BB@JCGLEGP@BINARY_RecvQuest@
  0074d	ff 75 a8	 push	 DWORD PTR _idx$1$[ebp]
  00750	68 00 00 00 00	 push	 OFFSET ??_C@_06GEDDNFGH@?$CIisss?$CJ@
  00755	ff 15 00 00 00
	00		 call	 DWORD PTR __imp__Py_BuildValue
  0075b	83 c4 14	 add	 esp, 20			; 00000014H
  0075e	50		 push	 eax
  0075f	ff 75 9c	 push	 DWORD PTR $T82[ebp]
  00762	ff 76 64	 push	 DWORD PTR [esi+100]
  00765	e8 00 00 00 00	 call	 ?PyCallClassMemberFunc@@YA_NPAU_object@@PBD0@Z ; PyCallClassMemberFunc
  0076a	83 c4 0c	 add	 esp, 12			; 0000000cH
  0076d	e9 d7 06 00 00	 jmp	 $LN2@ProcessEve
$LN44@ProcessEve:
; File C:\Anka2Project\Anka2Project\Source\Binary\source\eterBase\Singleton.h

; 26   : 		assert(ms_singleton);

  00772	8b 3d 00 00 00
	00		 mov	 edi, DWORD PTR ?ms_singleton@?$CSingleton@VCPythonMiniMap@@@@0PAVCPythonMiniMap@@A ; CSingleton<CPythonMiniMap>::ms_singleton
  00778	85 ff		 test	 edi, edi
  0077a	75 1a		 jne	 SHORT $LN215@ProcessEve
  0077c	6a 1a		 push	 26			; 0000001aH
  0077e	68 00 00 00 00	 push	 OFFSET ??_C@_1IO@CAJLEEOI@?$AAC?$AA?3?$AA?2?$AAA?$AAn?$AAk?$AAa?$AA2?$AAP?$AAr?$AAo?$AAj?$AAe?$AAc?$AAt@
  00783	68 00 00 00 00	 push	 OFFSET ??_C@_1BK@FMEHPMFE@?$AAm?$AAs?$AA_?$AAs?$AAi?$AAn?$AAg?$AAl?$AAe?$AAt?$AAo?$AAn@
  00788	e8 00 00 00 00	 call	 __wassert
  0078d	8b 3d 00 00 00
	00		 mov	 edi, DWORD PTR ?ms_singleton@?$CSingleton@VCPythonMiniMap@@@@0PAVCPythonMiniMap@@A ; CSingleton<CPythonMiniMap>::ms_singleton
  00793	83 c4 0c	 add	 esp, 12			; 0000000cH
$LN215@ProcessEve:
; File C:\Anka2Project\Anka2Project\Source\Binary\source\UserInterface\PythonEventManager.cpp

; 635  : 			CPythonMiniMap::Instance().SetAtlasCenterPosition(atoi(GetArgument("x", ScriptCommand.argList)), atoi(GetArgument("y", ScriptCommand.argList)));

  00796	8d 55 e8	 lea	 edx, DWORD PTR _ScriptCommand$[ebp+24]
  00799	b9 00 00 00 00	 mov	 ecx, OFFSET ??_C@_01EANLCPLP@y@
  0079e	e8 00 00 00 00	 call	 ?GetArgument@@YAPBDPBDAAV?$list@USArgumet@script@@V?$allocator@USArgumet@script@@@std@@@std@@@Z ; GetArgument
  007a3	50		 push	 eax
  007a4	e8 00 00 00 00	 call	 __atoi64
  007a9	8d 55 e8	 lea	 edx, DWORD PTR _ScriptCommand$[ebp+24]
  007ac	b9 00 00 00 00	 mov	 ecx, OFFSET ??_C@_01FJMABOPO@x@
  007b1	8b f0		 mov	 esi, eax
  007b3	e8 00 00 00 00	 call	 ?GetArgument@@YAPBDPBDAAV?$list@USArgumet@script@@V?$allocator@USArgumet@script@@@std@@@std@@@Z ; GetArgument
  007b8	50		 push	 eax
  007b9	e8 00 00 00 00	 call	 __atoi64
  007be	83 c4 08	 add	 esp, 8
  007c1	8b cf		 mov	 ecx, edi
  007c3	56		 push	 esi
  007c4	50		 push	 eax
  007c5	e8 00 00 00 00	 call	 ?SetAtlasCenterPosition@CPythonMiniMap@@QAEXHH@Z ; CPythonMiniMap::SetAtlasCenterPosition

; 636  : 			break;

  007ca	e9 7a 06 00 00	 jmp	 $LN2@ProcessEve
$LN45@ProcessEve:

; 637  : 		}
; 638  : 
; 639  : 		case EVENT_TYPE_SLEEP:
; 640  : 			pEventSet->lLastDelayTime = atoi(GetArgument("value", ScriptCommand.argList));

  007cf	8d 55 e8	 lea	 edx, DWORD PTR _ScriptCommand$[ebp+24]
  007d2	b9 00 00 00 00	 mov	 ecx, OFFSET ??_C@_05MFEJDJP@value@
  007d7	e8 00 00 00 00	 call	 ?GetArgument@@YAPBDPBDAAV?$list@USArgumet@script@@V?$allocator@USArgumet@script@@@std@@@std@@@Z ; GetArgument
  007dc	50		 push	 eax
  007dd	e8 00 00 00 00	 call	 __atoi64
  007e2	83 c4 04	 add	 esp, 4
  007e5	89 47 18	 mov	 DWORD PTR [edi+24], eax

; 641  : 			break;

  007e8	e9 5c 06 00 00	 jmp	 $LN2@ProcessEve
$LN46@ProcessEve:
  007ed	0f 57 c0	 xorps	 xmm0, xmm0
; File C:\Anka2Project\Anka2Project\Source\Binary\source\UserInterface\AbstractApplication.h

; 28   : 								fZoom(0.0f) {}

  007f0	c7 45 cc 00 00
	00 00		 mov	 DWORD PTR _CameraSetting$92[ebp+32], 0
; File C:\Anka2Project\Anka2Project\Source\Binary\source\UserInterface\PythonEventManager.cpp

; 646  : 			GetCameraSettingFromArgList(ScriptCommand.argList, &CameraSetting);

  007f7	8d 55 ac	 lea	 edx, DWORD PTR _CameraSetting$92[ebp]
  007fa	8d 4d e8	 lea	 ecx, DWORD PTR _ScriptCommand$[ebp+24]
; File C:\Anka2Project\Anka2Project\Source\Binary\extern\include\d3dx8math.inl

; 180  :     x = fx;

  007fd	0f 11 45 ac	 movups	 XMMWORD PTR _CameraSetting$92[ebp], xmm0
; File C:\Anka2Project\Anka2Project\Source\Binary\source\UserInterface\AbstractApplication.h

; 14   : 			SCameraPos() : m_fUpDir(0.0f), m_fViewDir(0.0f), m_fCrossDir(0.0f) {}

  00801	0f 11 45 bc	 movups	 XMMWORD PTR _CameraSetting$92[ebp+16], xmm0
; File C:\Anka2Project\Anka2Project\Source\Binary\source\UserInterface\PythonEventManager.cpp

; 646  : 			GetCameraSettingFromArgList(ScriptCommand.argList, &CameraSetting);

  00805	e8 00 00 00 00	 call	 ?GetCameraSettingFromArgList@@YAXAAV?$list@USArgumet@script@@V?$allocator@USArgumet@script@@@std@@@std@@PAUSCameraSetting@IAbstractApplication@@@Z ; GetCameraSettingFromArgList

; 647  : 			rApp.SetEventCamera(CameraSetting);

  0080a	8b 4d a8	 mov	 ecx, DWORD PTR _rApp$1$[ebp]
  0080d	8d 55 ac	 lea	 edx, DWORD PTR _CameraSetting$92[ebp]
  00810	52		 push	 edx
  00811	8b 01		 mov	 eax, DWORD PTR [ecx]
  00813	ff 50 1c	 call	 DWORD PTR [eax+28]

; 648  : 			break;

  00816	e9 2e 06 00 00	 jmp	 $LN2@ProcessEve
$LN47@ProcessEve:
  0081b	0f 57 c0	 xorps	 xmm0, xmm0
; File C:\Anka2Project\Anka2Project\Source\Binary\source\UserInterface\AbstractApplication.h

; 28   : 								fZoom(0.0f) {}

  0081e	c7 45 cc 00 00
	00 00		 mov	 DWORD PTR _CameraSetting$91[ebp+32], 0
; File C:\Anka2Project\Anka2Project\Source\Binary\source\UserInterface\PythonEventManager.cpp

; 654  : 			GetCameraSettingFromArgList(ScriptCommand.argList, &CameraSetting);

  00825	8d 55 ac	 lea	 edx, DWORD PTR _CameraSetting$91[ebp]
  00828	8d 4d e8	 lea	 ecx, DWORD PTR _ScriptCommand$[ebp+24]
; File C:\Anka2Project\Anka2Project\Source\Binary\extern\include\d3dx8math.inl

; 180  :     x = fx;

  0082b	0f 11 45 ac	 movups	 XMMWORD PTR _CameraSetting$91[ebp], xmm0
; File C:\Anka2Project\Anka2Project\Source\Binary\source\UserInterface\AbstractApplication.h

; 14   : 			SCameraPos() : m_fUpDir(0.0f), m_fViewDir(0.0f), m_fCrossDir(0.0f) {}

  0082f	0f 11 45 bc	 movups	 XMMWORD PTR _CameraSetting$91[ebp+16], xmm0
; File C:\Anka2Project\Anka2Project\Source\Binary\source\UserInterface\PythonEventManager.cpp

; 654  : 			GetCameraSettingFromArgList(ScriptCommand.argList, &CameraSetting);

  00833	e8 00 00 00 00	 call	 ?GetCameraSettingFromArgList@@YAXAAV?$list@USArgumet@script@@V?$allocator@USArgumet@script@@@std@@@std@@PAUSCameraSetting@IAbstractApplication@@@Z ; GetCameraSettingFromArgList

; 655  : 
; 656  : 			float fBlendTime = atoi(GetArgument("blendtime", ScriptCommand.argList));

  00838	8d 55 e8	 lea	 edx, DWORD PTR _ScriptCommand$[ebp+24]
  0083b	b9 00 00 00 00	 mov	 ecx, OFFSET ??_C@_09LBCONMEI@blendtime@
  00840	e8 00 00 00 00	 call	 ?GetArgument@@YAPBDPBDAAV?$list@USArgumet@script@@V?$allocator@USArgumet@script@@@std@@@std@@@Z ; GetArgument
  00845	50		 push	 eax
  00846	e8 00 00 00 00	 call	 __atoi64
  0084b	83 c4 04	 add	 esp, 4
  0084e	8b c8		 mov	 ecx, eax
  00850	e8 00 00 00 00	 call	 __ltof3

; 657  : 
; 658  : 			rApp.BlendEventCamera(CameraSetting, fBlendTime);

  00855	8b 4d a8	 mov	 ecx, DWORD PTR _rApp$1$[ebp]
  00858	8d 55 ac	 lea	 edx, DWORD PTR _CameraSetting$91[ebp]
  0085b	51		 push	 ecx
  0085c	f3 0f 11 04 24	 movss	 DWORD PTR [esp], xmm0
  00861	52		 push	 edx
  00862	8b 01		 mov	 eax, DWORD PTR [ecx]
  00864	ff 50 20	 call	 DWORD PTR [eax+32]

; 659  : 			break;

  00867	e9 dd 05 00 00	 jmp	 $LN2@ProcessEve
$LN48@ProcessEve:

; 660  : 		}
; 661  : 
; 662  : 		case EVENT_TYPE_RESTORE_CAMERA:
; 663  : 		{
; 664  : 			rApp.SetDefaultCamera();

  0086c	8b 4d a8	 mov	 ecx, DWORD PTR _rApp$1$[ebp]
  0086f	8b 01		 mov	 eax, DWORD PTR [ecx]
  00871	ff 50 24	 call	 DWORD PTR [eax+36]

; 665  : 			break;

  00874	e9 d0 05 00 00	 jmp	 $LN2@ProcessEve
$LN49@ProcessEve:

; 666  : 		}
; 667  : 
; 668  : 		case EVENT_TYPE_FADE_OUT:
; 669  : 		{
; 670  : 			float fSpeed = (float)atof(GetArgument("speed", ScriptCommand.argList));

  00879	8d 55 e8	 lea	 edx, DWORD PTR _ScriptCommand$[ebp+24]
  0087c	b9 00 00 00 00	 mov	 ecx, OFFSET ??_C@_05HJCMGBKF@speed@
  00881	e8 00 00 00 00	 call	 ?GetArgument@@YAPBDPBDAAV?$list@USArgumet@script@@V?$allocator@USArgumet@script@@@std@@@std@@@Z ; GetArgument
  00886	50		 push	 eax
  00887	e8 00 00 00 00	 call	 _atof
  0088c	d9 5d 90	 fstp	 DWORD PTR _fSpeed$78[ebp]
  0088f	f3 0f 10 45 90	 movss	 xmm0, DWORD PTR _fSpeed$78[ebp]

; 671  : 			PyCallClassMemberFunc(pEventSet->poEventHandler, "FadeOut", Py_BuildValue("(f)", fSpeed));

  00894	0f 5a c0	 cvtps2pd xmm0, xmm0
  00897	51		 push	 ecx
  00898	f2 0f 11 04 24	 movsd	 QWORD PTR [esp], xmm0
  0089d	68 00 00 00 00	 push	 OFFSET ??_C@_03LDCBIPEL@?$CIf?$CJ@
  008a2	ff 15 00 00 00
	00		 call	 DWORD PTR __imp__Py_BuildValue
  008a8	50		 push	 eax
  008a9	68 00 00 00 00	 push	 OFFSET ??_C@_07EAEHEHPO@FadeOut@
$LN665@ProcessEve:

; 837  : 	return true;

  008ae	ff b7 d0 00 00
	00		 push	 DWORD PTR [edi+208]
  008b4	e8 00 00 00 00	 call	 ?PyCallClassMemberFunc@@YA_NPAU_object@@PBD0@Z ; PyCallClassMemberFunc
  008b9	83 c4 18	 add	 esp, 24			; 00000018H
  008bc	c6 87 cd 00 00
	00 01		 mov	 BYTE PTR [edi+205], 1
  008c3	e9 81 05 00 00	 jmp	 $LN2@ProcessEve
$LN50@ProcessEve:

; 672  : 			pEventSet->isWaitFlag = true;
; 673  : 			break;
; 674  : 		}
; 675  : 
; 676  : 		case EVENT_TYPE_FADE_IN:
; 677  : 		{
; 678  : 			PyCallClassMemberFunc(pEventSet->poEventHandler, "FadeIn", Py_BuildValue("(f)", atof(GetArgument("speed", ScriptCommand.argList))));

  008c8	8d 55 e8	 lea	 edx, DWORD PTR _ScriptCommand$[ebp+24]
  008cb	b9 00 00 00 00	 mov	 ecx, OFFSET ??_C@_05HJCMGBKF@speed@
  008d0	e8 00 00 00 00	 call	 ?GetArgument@@YAPBDPBDAAV?$list@USArgumet@script@@V?$allocator@USArgumet@script@@@std@@@std@@@Z ; GetArgument
  008d5	50		 push	 eax
  008d6	e8 00 00 00 00	 call	 _atof
  008db	51		 push	 ecx
  008dc	dd 1c 24	 fstp	 QWORD PTR [esp]
  008df	68 00 00 00 00	 push	 OFFSET ??_C@_03LDCBIPEL@?$CIf?$CJ@
  008e4	ff 15 00 00 00
	00		 call	 DWORD PTR __imp__Py_BuildValue
  008ea	50		 push	 eax
  008eb	68 00 00 00 00	 push	 OFFSET ??_C@_06GCJPJKOH@FadeIn@

; 679  : 			pEventSet->isWaitFlag = true;
; 680  : 			break;

  008f0	eb bc		 jmp	 SHORT $LN665@ProcessEve
$LN51@ProcessEve:

; 681  : 		}
; 682  : 
; 683  : 		case EVENT_TYPE_WHITE_OUT:
; 684  : 		{
; 685  : 			PyCallClassMemberFunc(pEventSet->poEventHandler, "WhiteOut", Py_BuildValue("(f)", atof(GetArgument("speed", ScriptCommand.argList))));

  008f2	8d 55 e8	 lea	 edx, DWORD PTR _ScriptCommand$[ebp+24]
  008f5	b9 00 00 00 00	 mov	 ecx, OFFSET ??_C@_05HJCMGBKF@speed@
  008fa	e8 00 00 00 00	 call	 ?GetArgument@@YAPBDPBDAAV?$list@USArgumet@script@@V?$allocator@USArgumet@script@@@std@@@std@@@Z ; GetArgument
  008ff	50		 push	 eax
  00900	e8 00 00 00 00	 call	 _atof
  00905	51		 push	 ecx
  00906	dd 1c 24	 fstp	 QWORD PTR [esp]
  00909	68 00 00 00 00	 push	 OFFSET ??_C@_03LDCBIPEL@?$CIf?$CJ@
  0090e	ff 15 00 00 00
	00		 call	 DWORD PTR __imp__Py_BuildValue
  00914	50		 push	 eax
  00915	68 00 00 00 00	 push	 OFFSET ??_C@_08JJKJMBO@WhiteOut@

; 686  : 			pEventSet->isWaitFlag = true;
; 687  : 			break;

  0091a	eb 92		 jmp	 SHORT $LN665@ProcessEve
$LN52@ProcessEve:

; 688  : 		}
; 689  : 
; 690  : 		case EVENT_TYPE_WHITE_IN:
; 691  : 		{
; 692  : 			PyCallClassMemberFunc(pEventSet->poEventHandler, "WhiteIn", Py_BuildValue("(f)", atof(GetArgument("speed", ScriptCommand.argList))));

  0091c	8d 55 e8	 lea	 edx, DWORD PTR _ScriptCommand$[ebp+24]
  0091f	b9 00 00 00 00	 mov	 ecx, OFFSET ??_C@_05HJCMGBKF@speed@
  00924	e8 00 00 00 00	 call	 ?GetArgument@@YAPBDPBDAAV?$list@USArgumet@script@@V?$allocator@USArgumet@script@@@std@@@std@@@Z ; GetArgument
  00929	50		 push	 eax
  0092a	e8 00 00 00 00	 call	 _atof
  0092f	51		 push	 ecx
  00930	dd 1c 24	 fstp	 QWORD PTR [esp]
  00933	68 00 00 00 00	 push	 OFFSET ??_C@_03LDCBIPEL@?$CIf?$CJ@
  00938	ff 15 00 00 00
	00		 call	 DWORD PTR __imp__Py_BuildValue
  0093e	50		 push	 eax
  0093f	68 00 00 00 00	 push	 OFFSET ??_C@_07NGADDHAB@WhiteIn@

; 693  : 			pEventSet->isWaitFlag = true;
; 694  : 			break;

  00944	e9 65 ff ff ff	 jmp	 $LN665@ProcessEve
$LN53@ProcessEve:

; 695  : 		}
; 696  : 
; 697  : 		case EVENT_TYPE_CLEAR_TEXT:
; 698  : 		{
; 699  : 			ClearLine(pEventSet);

  00949	57		 push	 edi
  0094a	8b ce		 mov	 ecx, esi
  0094c	e8 00 00 00 00	 call	 ?ClearLine@CPythonEventManager@@IAEXPAUSEventSet@1@@Z ; CPythonEventManager::ClearLine

; 700  : 			break;

  00951	e9 f3 04 00 00	 jmp	 $LN2@ProcessEve
$LN54@ProcessEve:

; 701  : 		}
; 702  : 
; 703  : 		case EVENT_TYPE_TEXT_HORIZONTAL_ALIGN_CENTER:
; 704  : 		{
; 705  : 			pEventSet->isTextCenterMode = true;
; 706  : 			if (pEventSet->pCurrentTextLine)

  00956	8b 4f 48	 mov	 ecx, DWORD PTR [edi+72]
  00959	c6 87 cc 00 00
	00 01		 mov	 BYTE PTR [edi+204], 1
  00960	85 c9		 test	 ecx, ecx
  00962	0f 84 e1 04 00
	00		 je	 $LN2@ProcessEve

; 707  : 				pEventSet->pCurrentTextLine->SetHorizonalAlign(CGraphicTextInstance::HORIZONTAL_ALIGN_CENTER);

  00968	6a 02		 push	 2
  0096a	e8 00 00 00 00	 call	 ?SetHorizonalAlign@CGraphicTextInstance@@QAEXH@Z ; CGraphicTextInstance::SetHorizonalAlign

; 708  : 			break;

  0096f	e9 d5 04 00 00	 jmp	 $LN2@ProcessEve
$LN56@ProcessEve:

; 709  : 		}
; 710  : 
; 711  : 		case EVENT_TYPE_TITLE_IMAGE:
; 712  : 		{
; 713  : 			PyCallClassMemberFunc(pEventSet->poEventHandler, "OnTitleImage", Py_BuildValue("(s)", GetArgument("src", ScriptCommand.argList)));

  00974	8d 55 e8	 lea	 edx, DWORD PTR _ScriptCommand$[ebp+24]
  00977	b9 00 00 00 00	 mov	 ecx, OFFSET ??_C@_03LOJEKLML@src@
  0097c	e8 00 00 00 00	 call	 ?GetArgument@@YAPBDPBDAAV?$list@USArgumet@script@@V?$allocator@USArgumet@script@@@std@@@std@@@Z ; GetArgument
  00981	50		 push	 eax
  00982	68 00 00 00 00	 push	 OFFSET ??_C@_03KJMMOONA@?$CIs?$CJ@
  00987	ff 15 00 00 00
	00		 call	 DWORD PTR __imp__Py_BuildValue
  0098d	50		 push	 eax
  0098e	68 00 00 00 00	 push	 OFFSET ??_C@_0N@CCHILNPP@OnTitleImage@
  00993	ff b7 d0 00 00
	00		 push	 DWORD PTR [edi+208]
  00999	e8 00 00 00 00	 call	 ?PyCallClassMemberFunc@@YA_NPAU_object@@PBD0@Z ; PyCallClassMemberFunc
  0099e	83 c4 14	 add	 esp, 20			; 00000014H

; 714  : 			break;

  009a1	e9 a3 04 00 00	 jmp	 $LN2@ProcessEve
$LN57@ProcessEve:

; 715  : 		}
; 716  : 
; 717  : 		case EVENT_TYPE_DUNGEON_RESULT:
; 718  : 		{
; 719  : 			int killstone_count = atoi(GetArgument("killstone_count", ScriptCommand.argList));

  009a6	8d 55 e8	 lea	 edx, DWORD PTR _ScriptCommand$[ebp+24]
  009a9	b9 00 00 00 00	 mov	 ecx, OFFSET ??_C@_0BA@FCPOOKJM@killstone_count@
  009ae	e8 00 00 00 00	 call	 ?GetArgument@@YAPBDPBDAAV?$list@USArgumet@script@@V?$allocator@USArgumet@script@@@std@@@std@@@Z ; GetArgument
  009b3	50		 push	 eax
  009b4	e8 00 00 00 00	 call	 __atoi64

; 720  : 			int killmob_count = atoi(GetArgument("killmob_count", ScriptCommand.argList));

  009b9	8d 55 e8	 lea	 edx, DWORD PTR _ScriptCommand$[ebp+24]
  009bc	89 45 98	 mov	 DWORD PTR _killstone_count$1$[ebp], eax
  009bf	b9 00 00 00 00	 mov	 ecx, OFFSET ??_C@_0O@DDDIKPAP@killmob_count@
  009c4	e8 00 00 00 00	 call	 ?GetArgument@@YAPBDPBDAAV?$list@USArgumet@script@@V?$allocator@USArgumet@script@@@std@@@std@@@Z ; GetArgument
  009c9	50		 push	 eax
  009ca	e8 00 00 00 00	 call	 __atoi64

; 721  : 			int find_hidden = atoi(GetArgument("find_hidden", ScriptCommand.argList));

  009cf	8d 55 e8	 lea	 edx, DWORD PTR _ScriptCommand$[ebp+24]
  009d2	89 45 8c	 mov	 DWORD PTR _killmob_count$1$[ebp], eax
  009d5	b9 00 00 00 00	 mov	 ecx, OFFSET ??_C@_0M@NAENPPOP@find_hidden@
  009da	e8 00 00 00 00	 call	 ?GetArgument@@YAPBDPBDAAV?$list@USArgumet@script@@V?$allocator@USArgumet@script@@@std@@@std@@@Z ; GetArgument
  009df	50		 push	 eax
  009e0	e8 00 00 00 00	 call	 __atoi64

; 722  : 			int hidden_total = atoi(GetArgument("hidden_total", ScriptCommand.argList));

  009e5	8d 55 e8	 lea	 edx, DWORD PTR _ScriptCommand$[ebp+24]
  009e8	89 45 a8	 mov	 DWORD PTR _find_hidden$1$[ebp], eax
  009eb	b9 00 00 00 00	 mov	 ecx, OFFSET ??_C@_0N@MAFIFFGH@hidden_total@
  009f0	e8 00 00 00 00	 call	 ?GetArgument@@YAPBDPBDAAV?$list@USArgumet@script@@V?$allocator@USArgumet@script@@@std@@@std@@@Z ; GetArgument
  009f5	50		 push	 eax
  009f6	e8 00 00 00 00	 call	 __atoi64

; 723  : 			int use_potion = atoi(GetArgument("use_potion", ScriptCommand.argList));

  009fb	8d 55 e8	 lea	 edx, DWORD PTR _ScriptCommand$[ebp+24]
  009fe	89 45 a4	 mov	 DWORD PTR _hidden_total$1$[ebp], eax
  00a01	b9 00 00 00 00	 mov	 ecx, OFFSET ??_C@_0L@HLMCPCKO@use_potion@
  00a06	e8 00 00 00 00	 call	 ?GetArgument@@YAPBDPBDAAV?$list@USArgumet@script@@V?$allocator@USArgumet@script@@@std@@@std@@@Z ; GetArgument
  00a0b	50		 push	 eax
  00a0c	e8 00 00 00 00	 call	 __atoi64

; 724  : 			int is_revived = atoi(GetArgument("is_revived", ScriptCommand.argList));

  00a11	8d 55 e8	 lea	 edx, DWORD PTR _ScriptCommand$[ebp+24]
  00a14	89 45 a0	 mov	 DWORD PTR _use_potion$1$[ebp], eax
  00a17	b9 00 00 00 00	 mov	 ecx, OFFSET ??_C@_0L@HAAPAAPF@is_revived@
  00a1c	e8 00 00 00 00	 call	 ?GetArgument@@YAPBDPBDAAV?$list@USArgumet@script@@V?$allocator@USArgumet@script@@@std@@@std@@@Z ; GetArgument
  00a21	50		 push	 eax
  00a22	e8 00 00 00 00	 call	 __atoi64

; 725  : 			int killallmob = atoi(GetArgument("killallmob", ScriptCommand.argList));

  00a27	8d 55 e8	 lea	 edx, DWORD PTR _ScriptCommand$[ebp+24]
  00a2a	89 45 90	 mov	 DWORD PTR _is_revived$1$[ebp], eax
  00a2d	b9 00 00 00 00	 mov	 ecx, OFFSET ??_C@_0L@CEFFAPEL@killallmob@
  00a32	e8 00 00 00 00	 call	 ?GetArgument@@YAPBDPBDAAV?$list@USArgumet@script@@V?$allocator@USArgumet@script@@@std@@@std@@@Z ; GetArgument
  00a37	50		 push	 eax
  00a38	e8 00 00 00 00	 call	 __atoi64

; 726  : 			int total_time = atoi(GetArgument("total_time", ScriptCommand.argList));

  00a3d	8d 55 e8	 lea	 edx, DWORD PTR _ScriptCommand$[ebp+24]
  00a40	b9 00 00 00 00	 mov	 ecx, OFFSET ??_C@_0L@OIFGKHMH@total_time@
  00a45	8b f8		 mov	 edi, eax
  00a47	e8 00 00 00 00	 call	 ?GetArgument@@YAPBDPBDAAV?$list@USArgumet@script@@V?$allocator@USArgumet@script@@@std@@@std@@@Z ; GetArgument
  00a4c	50		 push	 eax
  00a4d	e8 00 00 00 00	 call	 __atoi64

; 727  : 			int bonus_exp = atoi(GetArgument("bonus_exp", ScriptCommand.argList));

  00a52	8d 55 e8	 lea	 edx, DWORD PTR _ScriptCommand$[ebp+24]
  00a55	b9 00 00 00 00	 mov	 ecx, OFFSET ??_C@_09HPFMCAOO@bonus_exp@
  00a5a	8b f0		 mov	 esi, eax
  00a5c	e8 00 00 00 00	 call	 ?GetArgument@@YAPBDPBDAAV?$list@USArgumet@script@@V?$allocator@USArgumet@script@@@std@@@std@@@Z ; GetArgument
  00a61	50		 push	 eax
  00a62	e8 00 00 00 00	 call	 __atoi64

; 728  : 
; 729  : 			PyCallClassMemberFunc(m_poInterface, "ShowDungeonResult",

  00a67	50		 push	 eax
  00a68	56		 push	 esi
  00a69	57		 push	 edi
  00a6a	ff 75 90	 push	 DWORD PTR _is_revived$1$[ebp]
  00a6d	ff 75 a0	 push	 DWORD PTR _use_potion$1$[ebp]
  00a70	ff 75 a4	 push	 DWORD PTR _hidden_total$1$[ebp]
  00a73	ff 75 a8	 push	 DWORD PTR _find_hidden$1$[ebp]
  00a76	ff 75 8c	 push	 DWORD PTR _killmob_count$1$[ebp]
  00a79	ff 75 98	 push	 DWORD PTR _killstone_count$1$[ebp]
  00a7c	68 00 00 00 00	 push	 OFFSET ??_C@_0M@EDIBAKKL@?$CIiiiiiiiii?$CJ@
  00a81	ff 15 00 00 00
	00		 call	 DWORD PTR __imp__Py_BuildValue
  00a87	8b 4d 9c	 mov	 ecx, DWORD PTR $T83[ebp]
  00a8a	83 c4 4c	 add	 esp, 76			; 0000004cH
  00a8d	50		 push	 eax
  00a8e	68 00 00 00 00	 push	 OFFSET ??_C@_0BC@GLAGHMFL@ShowDungeonResult@
  00a93	ff 71 64	 push	 DWORD PTR [ecx+100]
  00a96	e8 00 00 00 00	 call	 ?PyCallClassMemberFunc@@YA_NPAU_object@@PBD0@Z ; PyCallClassMemberFunc
  00a9b	83 c4 0c	 add	 esp, 12			; 0000000cH

; 730  : 				Py_BuildValue("(iiiiiiiii)",
; 731  : 					killstone_count,
; 732  : 					killmob_count,
; 733  : 					find_hidden,
; 734  : 					hidden_total,
; 735  : 					use_potion,
; 736  : 					is_revived,
; 737  : 					killallmob,
; 738  : 					total_time,
; 739  : 					bonus_exp));
; 740  : 			break;

  00a9e	e9 a6 03 00 00	 jmp	 $LN2@ProcessEve
$LN58@ProcessEve:

; 745  : 			int iIndex = atoi(GetArgument("value", ScriptCommand.argList));

  00aa3	8d 55 e8	 lea	 edx, DWORD PTR _ScriptCommand$[ebp+24]
  00aa6	b9 00 00 00 00	 mov	 ecx, OFFSET ??_C@_05MFEJDJP@value@
  00aab	e8 00 00 00 00	 call	 ?GetArgument@@YAPBDPBDAAV?$list@USArgumet@script@@V?$allocator@USArgumet@script@@@std@@@std@@@Z ; GetArgument
  00ab0	50		 push	 eax
  00ab1	e8 00 00 00 00	 call	 __atoi64
; File C:\Anka2Project\Anka2Project\Source\Binary\source\eterBase\Singleton.h

; 26   : 		assert(ms_singleton);

  00ab6	8b 0d 00 00 00
	00		 mov	 ecx, DWORD PTR ?ms_singleton@?$CSingleton@VCItemManager@@@@0PAVCItemManager@@A ; CSingleton<CItemManager>::ms_singleton
; File C:\Anka2Project\Anka2Project\Source\Binary\source\UserInterface\PythonEventManager.cpp

; 745  : 			int iIndex = atoi(GetArgument("value", ScriptCommand.argList));

  00abc	83 c4 04	 add	 esp, 4
  00abf	89 45 98	 mov	 DWORD PTR _iIndex$1$[ebp], eax
; File C:\Anka2Project\Anka2Project\Source\Binary\source\eterBase\Singleton.h

; 26   : 		assert(ms_singleton);

  00ac2	85 c9		 test	 ecx, ecx
  00ac4	75 1d		 jne	 SHORT $LN230@ProcessEve
  00ac6	6a 1a		 push	 26			; 0000001aH
  00ac8	68 00 00 00 00	 push	 OFFSET ??_C@_1IO@CAJLEEOI@?$AAC?$AA?3?$AA?2?$AAA?$AAn?$AAk?$AAa?$AA2?$AAP?$AAr?$AAo?$AAj?$AAe?$AAc?$AAt@
  00acd	68 00 00 00 00	 push	 OFFSET ??_C@_1BK@FMEHPMFE@?$AAm?$AAs?$AA_?$AAs?$AAi?$AAn?$AAg?$AAl?$AAe?$AAt?$AAo?$AAn@
  00ad2	e8 00 00 00 00	 call	 __wassert
  00ad7	8b 0d 00 00 00
	00		 mov	 ecx, DWORD PTR ?ms_singleton@?$CSingleton@VCItemManager@@@@0PAVCItemManager@@A ; CSingleton<CItemManager>::ms_singleton
  00add	83 c4 0c	 add	 esp, 12			; 0000000cH
  00ae0	8b 45 98	 mov	 eax, DWORD PTR _iIndex$1$[ebp]
$LN230@ProcessEve:
; File C:\Anka2Project\Anka2Project\Source\Binary\source\UserInterface\PythonEventManager.cpp

; 747  : 			if (CItemManager::Instance().GetItemDataPointer(iIndex, &pItemData))

  00ae3	8d 55 a8	 lea	 edx, DWORD PTR _pItemData$89[ebp]
  00ae6	52		 push	 edx
  00ae7	50		 push	 eax
  00ae8	e8 00 00 00 00	 call	 ?GetItemDataPointer@CItemManager@@QAEHKPAPAVCItemData@@@Z ; CItemManager::GetItemDataPointer
  00aed	85 c0		 test	 eax, eax
  00aef	0f 84 54 03 00
	00		 je	 $LN2@ProcessEve

; 749  : 				pEventSet->strCurrentLine.append(pItemData->GetName());

  00af5	8b 4d a8	 mov	 ecx, DWORD PTR _pItemData$89[ebp]
  00af8	e8 00 00 00 00	 call	 ?GetName@CItemData@@QBEPBDXZ ; CItemData::GetName
; File C:\Program Files\Microsoft Visual Studio\2022\Community\VC\Tools\MSVC\14.44.35207\include\__msvc_string_view.hpp

; 456  :             return __builtin_strlen(_First);

  00afd	8b d0		 mov	 edx, eax
; File C:\Anka2Project\Anka2Project\Source\Binary\source\UserInterface\PythonEventManager.cpp

; 749  : 				pEventSet->strCurrentLine.append(pItemData->GetName());

  00aff	89 45 a4	 mov	 DWORD PTR __Ptr$1$[ebp], eax
; File C:\Program Files\Microsoft Visual Studio\2022\Community\VC\Tools\MSVC\14.44.35207\include\__msvc_string_view.hpp

; 456  :             return __builtin_strlen(_First);

  00b02	8d 42 01	 lea	 eax, DWORD PTR [edx+1]
$LL657@ProcessEve:
  00b05	8a 0a		 mov	 cl, BYTE PTR [edx]
  00b07	42		 inc	 edx
  00b08	84 c9		 test	 cl, cl
  00b0a	75 f9		 jne	 SHORT $LL657@ProcessEve
  00b0c	2b d0		 sub	 edx, eax
; File C:\Program Files\Microsoft Visual Studio\2022\Community\VC\Tools\MSVC\14.44.35207\include\xstring

; 1512 :         const size_type _Old_size = _Mypair._Myval2._Mysize;

  00b0e	8d 4f 30	 lea	 ecx, DWORD PTR [edi+48]
  00b11	8b 41 10	 mov	 eax, DWORD PTR [ecx+16]
  00b14	89 45 a0	 mov	 DWORD PTR __Old_size$1$[ebp], eax

; 1513 :         if (_Count <= _Mypair._Myval2._Myres - _Old_size) {

  00b17	8b 41 14	 mov	 eax, DWORD PTR [ecx+20]
  00b1a	2b 45 a0	 sub	 eax, DWORD PTR __Old_size$1$[ebp]
; File C:\Program Files\Microsoft Visual Studio\2022\Community\VC\Tools\MSVC\14.44.35207\include\__msvc_string_view.hpp

; 456  :             return __builtin_strlen(_First);

  00b1d	89 55 98	 mov	 DWORD PTR $T81[ebp], edx
; File C:\Program Files\Microsoft Visual Studio\2022\Community\VC\Tools\MSVC\14.44.35207\include\xstring

; 1513 :         if (_Count <= _Mypair._Myval2._Myres - _Old_size) {

  00b20	3b d0		 cmp	 edx, eax
  00b22	77 2e		 ja	 SHORT $LN257@ProcessEve

; 453  :         return _Myres > _Small_string_capacity;

  00b24	83 79 14 0f	 cmp	 DWORD PTR [ecx+20], 15	; 0000000fH

; 1515 :             _Mypair._Myval2._Mysize = _Old_size + _Count;

  00b28	8b 75 a0	 mov	 esi, DWORD PTR __Old_size$1$[ebp]
  00b2b	8d 04 16	 lea	 eax, DWORD PTR [esi+edx]
  00b2e	89 41 10	 mov	 DWORD PTR [ecx+16], eax

; 435  :         value_type* _Result = _Bx._Buf;

  00b31	8b c1		 mov	 eax, ecx

; 436  :         if (_Large_mode_engaged()) {

  00b33	76 02		 jbe	 SHORT $LN650@ProcessEve

; 437  :             _Result = _Unfancy(_Bx._Ptr);

  00b35	8b 01		 mov	 eax, DWORD PTR [ecx]
$LN650@ProcessEve:
; File C:\Program Files\Microsoft Visual Studio\2022\Community\VC\Tools\MSVC\14.44.35207\include\__msvc_string_view.hpp

; 174  :         _CSTD memmove(_First1, _First2, _Count * sizeof(_Elem));

  00b37	52		 push	 edx
  00b38	ff 75 a4	 push	 DWORD PTR __Ptr$1$[ebp]
; File C:\Program Files\Microsoft Visual Studio\2022\Community\VC\Tools\MSVC\14.44.35207\include\xstring

; 1517 :             _Traits::move(_Old_ptr + _Old_size, _Ptr, _Count);

  00b3b	03 f0		 add	 esi, eax
; File C:\Program Files\Microsoft Visual Studio\2022\Community\VC\Tools\MSVC\14.44.35207\include\__msvc_string_view.hpp

; 174  :         _CSTD memmove(_First1, _First2, _Count * sizeof(_Elem));

  00b3d	56		 push	 esi
  00b3e	e8 00 00 00 00	 call	 _memmove
; File C:\Program Files\Microsoft Visual Studio\2022\Community\VC\Tools\MSVC\14.44.35207\include\xstring

; 1518 :             _Traits::assign(_Old_ptr[_Old_size + _Count], _Elem());

  00b43	8b 45 98	 mov	 eax, DWORD PTR $T81[ebp]
; File C:\Program Files\Microsoft Visual Studio\2022\Community\VC\Tools\MSVC\14.44.35207\include\__msvc_string_view.hpp

; 174  :         _CSTD memmove(_First1, _First2, _Count * sizeof(_Elem));

  00b46	83 c4 0c	 add	 esp, 12			; 0000000cH
; File C:\Program Files\Microsoft Visual Studio\2022\Community\VC\Tools\MSVC\14.44.35207\include\xstring

; 1518 :             _Traits::assign(_Old_ptr[_Old_size + _Count], _Elem());

  00b49	c6 04 30 00	 mov	 BYTE PTR [eax+esi], 0

; 1519 :             return *this;

  00b4d	8b 75 9c	 mov	 esi, DWORD PTR $T83[ebp]
  00b50	eb 0d		 jmp	 SHORT $LN256@ProcessEve
$LN257@ProcessEve:

; 1520 :         }
; 1521 : 
; 1522 :         return _Reallocate_grow_by(

  00b52	52		 push	 edx
  00b53	ff 75 a4	 push	 DWORD PTR __Ptr$1$[ebp]
  00b56	ff 75 98	 push	 DWORD PTR $T55[ebp]
  00b59	52		 push	 edx
  00b5a	e8 00 00 00 00	 call	 ??$_Reallocate_grow_by@V<lambda_1>@?1??append@?$basic_string@DU?$char_traits@D@std@@V?$allocator@D@2@@std@@QAEAAV34@QBDI@Z@PBDI@?$basic_string@DU?$char_traits@D@std@@V?$allocator@D@2@@std@@AAEAAV01@IV<lambda_1>@?1??append@01@QAEAAV01@QBDI@Z@PBDI@Z ; std::basic_string<char,std::char_traits<char>,std::allocator<char> >::_Reallocate_grow_by<`std::basic_string<char,std::char_traits<char>,std::allocator<char> >::append'::`2'::<lambda_1>,char const *,unsigned int>
$LN256@ProcessEve:

; 453  :         return _Myres > _Small_string_capacity;

  00b5f	83 7f 44 0f	 cmp	 DWORD PTR [edi+68], 15	; 0000000fH
  00b63	8d 47 30	 lea	 eax, DWORD PTR [edi+48]

; 445  :         if (_Large_mode_engaged()) {

  00b66	76 02		 jbe	 SHORT $LN320@ProcessEve

; 446  :             _Result = _Unfancy(_Bx._Ptr);

  00b68	8b 00		 mov	 eax, DWORD PTR [eax]
$LN320@ProcessEve:
; File C:\Anka2Project\Anka2Project\Source\Binary\source\UserInterface\PythonEventManager.cpp

; 750  : 				pEventSet->pCurrentTextLine->SetValue(pEventSet->strCurrentLine.c_str());

  00b6a	8b 4f 48	 mov	 ecx, DWORD PTR [edi+72]
  00b6d	6a ff		 push	 -1
  00b6f	50		 push	 eax
  00b70	e8 00 00 00 00	 call	 ?SetValue@CGraphicTextInstance@@QAEXPBDI@Z ; CGraphicTextInstance::SetValue

; 751  : 				pEventSet->pCurrentTextLine->SetColor(1.0f, 0.2f, 0.2f);

  00b75	8b 4f 48	 mov	 ecx, DWORD PTR [edi+72]
  00b78	83 ec 10	 sub	 esp, 16			; 00000010H
  00b7b	c7 44 24 0c 00
	00 80 3f	 mov	 DWORD PTR [esp+12], 1065353216 ; 3f800000H
  00b83	c7 44 24 08 cd
	cc 4c 3e	 mov	 DWORD PTR [esp+8], 1045220557 ; 3e4ccccdH
  00b8b	c7 44 24 04 cd
	cc 4c 3e	 mov	 DWORD PTR [esp+4], 1045220557 ; 3e4ccccdH
  00b93	c7 04 24 00 00
	80 3f		 mov	 DWORD PTR [esp], 1065353216 ; 3f800000H
  00b9a	e8 00 00 00 00	 call	 ?SetColor@CGraphicTextInstance@@QAEXMMMM@Z ; CGraphicTextInstance::SetColor

; 752  : 				pEventSet->iCurrentLetter += strlen(pItemData->GetName());

  00b9f	8b 4d a8	 mov	 ecx, DWORD PTR _pItemData$89[ebp]
  00ba2	e8 00 00 00 00	 call	 ?GetName@CItemData@@QBEPBDXZ ; CItemData::GetName
  00ba7	8b d0		 mov	 edx, eax
  00ba9	8d 42 01	 lea	 eax, DWORD PTR [edx+1]
  00bac	0f 1f 40 00	 npad	 4
$LL658@ProcessEve:
  00bb0	8a 0a		 mov	 cl, BYTE PTR [edx]
  00bb2	42		 inc	 edx
  00bb3	84 c9		 test	 cl, cl
  00bb5	75 f9		 jne	 SHORT $LL658@ProcessEve
  00bb7	2b d0		 sub	 edx, eax
  00bb9	8b 47 1c	 mov	 eax, DWORD PTR [edi+28]
  00bbc	03 c2		 add	 eax, edx
  00bbe	89 47 1c	 mov	 DWORD PTR [edi+28], eax

; 753  : 
; 754  : 				if (pEventSet->iCurrentLetter >= pEventSet->iRestrictedCharacterCount)

  00bc1	3b 87 c4 00 00
	00		 cmp	 eax, DWORD PTR [edi+196]
  00bc7	0f 8c 09 f6 ff
	ff		 jl	 $LN11@ProcessEve

; 755  : 					__InsertLine(*pEventSet);

  00bcd	6a 00		 push	 0
  00bcf	6a 00		 push	 0
  00bd1	57		 push	 edi
  00bd2	8b ce		 mov	 ecx, esi
  00bd4	e8 00 00 00 00	 call	 ?__InsertLine@CPythonEventManager@@IAEXAAUSEventSet@1@HH@Z ; CPythonEventManager::__InsertLine

; 756  : 
; 757  : 				pEventSet->lLastDelayTime = pEventSet->lWaitingTime;

  00bd9	8b 87 c0 00 00
	00		 mov	 eax, DWORD PTR [edi+192]
  00bdf	89 47 18	 mov	 DWORD PTR [edi+24], eax

; 758  : 			}
; 759  : 
; 760  : 			break;

  00be2	e9 62 02 00 00	 jmp	 $LN2@ProcessEve
$LN61@ProcessEve:

; 765  : 			int iIndex = atoi(GetArgument("value", ScriptCommand.argList));

  00be7	8d 55 e8	 lea	 edx, DWORD PTR _ScriptCommand$[ebp+24]
  00bea	b9 00 00 00 00	 mov	 ecx, OFFSET ??_C@_05MFEJDJP@value@
  00bef	e8 00 00 00 00	 call	 ?GetArgument@@YAPBDPBDAAV?$list@USArgumet@script@@V?$allocator@USArgumet@script@@@std@@@std@@@Z ; GetArgument
  00bf4	50		 push	 eax
  00bf5	e8 00 00 00 00	 call	 __atoi64
; File C:\Anka2Project\Anka2Project\Source\Binary\source\eterBase\Singleton.h

; 26   : 		assert(ms_singleton);

  00bfa	8b 0d 00 00 00
	00		 mov	 ecx, DWORD PTR ?ms_singleton@?$CSingleton@VCPythonNonPlayer@@@@0PAVCPythonNonPlayer@@A ; CSingleton<CPythonNonPlayer>::ms_singleton
; File C:\Anka2Project\Anka2Project\Source\Binary\source\UserInterface\PythonEventManager.cpp

; 765  : 			int iIndex = atoi(GetArgument("value", ScriptCommand.argList));

  00c00	83 c4 04	 add	 esp, 4
  00c03	89 45 98	 mov	 DWORD PTR _iIndex$1$[ebp], eax
; File C:\Anka2Project\Anka2Project\Source\Binary\source\eterBase\Singleton.h

; 26   : 		assert(ms_singleton);

  00c06	85 c9		 test	 ecx, ecx
  00c08	75 1d		 jne	 SHORT $LN162@ProcessEve
  00c0a	6a 1a		 push	 26			; 0000001aH
  00c0c	68 00 00 00 00	 push	 OFFSET ??_C@_1IO@CAJLEEOI@?$AAC?$AA?3?$AA?2?$AAA?$AAn?$AAk?$AAa?$AA2?$AAP?$AAr?$AAo?$AAj?$AAe?$AAc?$AAt@
  00c11	68 00 00 00 00	 push	 OFFSET ??_C@_1BK@FMEHPMFE@?$AAm?$AAs?$AA_?$AAs?$AAi?$AAn?$AAg?$AAl?$AAe?$AAt?$AAo?$AAn@
  00c16	e8 00 00 00 00	 call	 __wassert
  00c1b	8b 0d 00 00 00
	00		 mov	 ecx, DWORD PTR ?ms_singleton@?$CSingleton@VCPythonNonPlayer@@@@0PAVCPythonNonPlayer@@A ; CSingleton<CPythonNonPlayer>::ms_singleton
  00c21	83 c4 0c	 add	 esp, 12			; 0000000cH
  00c24	8b 45 98	 mov	 eax, DWORD PTR _iIndex$1$[ebp]
$LN162@ProcessEve:
; File C:\Anka2Project\Anka2Project\Source\Binary\source\UserInterface\PythonEventManager.cpp

; 769  : 			if (rkNonPlayer.GetName(iIndex, &c_szName))

  00c27	8d 55 a8	 lea	 edx, DWORD PTR _c_szName$88[ebp]
  00c2a	52		 push	 edx
  00c2b	50		 push	 eax
  00c2c	e8 00 00 00 00	 call	 ?GetName@CPythonNonPlayer@@QAE_NKPAPBD@Z ; CPythonNonPlayer::GetName
  00c31	84 c0		 test	 al, al
  00c33	0f 84 10 02 00
	00		 je	 $LN2@ProcessEve
; File C:\Program Files\Microsoft Visual Studio\2022\Community\VC\Tools\MSVC\14.44.35207\include\__msvc_string_view.hpp

; 456  :             return __builtin_strlen(_First);

  00c39	8b 55 a8	 mov	 edx, DWORD PTR _c_szName$88[ebp]
  00c3c	8b ca		 mov	 ecx, edx
  00c3e	8d 41 01	 lea	 eax, DWORD PTR [ecx+1]
  00c41	89 45 98	 mov	 DWORD PTR tv2779[ebp], eax
$LL659@ProcessEve:
  00c44	8a 01		 mov	 al, BYTE PTR [ecx]
  00c46	41		 inc	 ecx
  00c47	84 c0		 test	 al, al
  00c49	75 f9		 jne	 SHORT $LL659@ProcessEve
; File C:\Program Files\Microsoft Visual Studio\2022\Community\VC\Tools\MSVC\14.44.35207\include\xstring

; 1512 :         const size_type _Old_size = _Mypair._Myval2._Mysize;

  00c4b	8b 77 40	 mov	 esi, DWORD PTR [edi+64]

; 1513 :         if (_Count <= _Mypair._Myval2._Myres - _Old_size) {

  00c4e	8b 47 44	 mov	 eax, DWORD PTR [edi+68]
; File C:\Program Files\Microsoft Visual Studio\2022\Community\VC\Tools\MSVC\14.44.35207\include\__msvc_string_view.hpp

; 456  :             return __builtin_strlen(_First);

  00c51	2b 4d 98	 sub	 ecx, DWORD PTR tv2779[ebp]
; File C:\Program Files\Microsoft Visual Studio\2022\Community\VC\Tools\MSVC\14.44.35207\include\xstring

; 1513 :         if (_Count <= _Mypair._Myval2._Myres - _Old_size) {

  00c54	2b c6		 sub	 eax, esi
  00c56	89 75 a0	 mov	 DWORD PTR __Old_size$1$[ebp], esi
  00c59	8b 75 9c	 mov	 esi, DWORD PTR $T83[ebp]
; File C:\Program Files\Microsoft Visual Studio\2022\Community\VC\Tools\MSVC\14.44.35207\include\__msvc_string_view.hpp

; 456  :             return __builtin_strlen(_First);

  00c5c	89 4d 98	 mov	 DWORD PTR $T80[ebp], ecx
; File C:\Program Files\Microsoft Visual Studio\2022\Community\VC\Tools\MSVC\14.44.35207\include\xstring

; 1513 :         if (_Count <= _Mypair._Myval2._Myres - _Old_size) {

  00c5f	3b c8		 cmp	 ecx, eax
  00c61	77 36		 ja	 SHORT $LN291@ProcessEve

; 1514 :             _ASAN_STRING_MODIFY(*this, _Old_size, _Old_size + _Count);
; 1515 :             _Mypair._Myval2._Mysize = _Old_size + _Count;

  00c63	8b 45 a0	 mov	 eax, DWORD PTR __Old_size$1$[ebp]
  00c66	8d 77 30	 lea	 esi, DWORD PTR [edi+48]
  00c69	03 c1		 add	 eax, ecx

; 435  :         value_type* _Result = _Bx._Buf;

  00c6b	89 75 a4	 mov	 DWORD PTR __Result$1$[ebp], esi

; 453  :         return _Myres > _Small_string_capacity;

  00c6e	83 7e 14 0f	 cmp	 DWORD PTR [esi+20], 15	; 0000000fH

; 1515 :             _Mypair._Myval2._Mysize = _Old_size + _Count;

  00c72	89 46 10	 mov	 DWORD PTR [esi+16], eax

; 436  :         if (_Large_mode_engaged()) {

  00c75	76 05		 jbe	 SHORT $LN651@ProcessEve

; 437  :             _Result = _Unfancy(_Bx._Ptr);

  00c77	8b 06		 mov	 eax, DWORD PTR [esi]
  00c79	89 45 a4	 mov	 DWORD PTR __Result$1$[ebp], eax
$LN651@ProcessEve:

; 1517 :             _Traits::move(_Old_ptr + _Old_size, _Ptr, _Count);

  00c7c	8b 75 a4	 mov	 esi, DWORD PTR __Result$1$[ebp]
  00c7f	03 75 a0	 add	 esi, DWORD PTR __Old_size$1$[ebp]
; File C:\Program Files\Microsoft Visual Studio\2022\Community\VC\Tools\MSVC\14.44.35207\include\__msvc_string_view.hpp

; 174  :         _CSTD memmove(_First1, _First2, _Count * sizeof(_Elem));

  00c82	51		 push	 ecx
  00c83	52		 push	 edx
  00c84	56		 push	 esi
  00c85	e8 00 00 00 00	 call	 _memmove
; File C:\Program Files\Microsoft Visual Studio\2022\Community\VC\Tools\MSVC\14.44.35207\include\xstring

; 1518 :             _Traits::assign(_Old_ptr[_Old_size + _Count], _Elem());

  00c8a	8b 45 98	 mov	 eax, DWORD PTR $T80[ebp]
; File C:\Program Files\Microsoft Visual Studio\2022\Community\VC\Tools\MSVC\14.44.35207\include\__msvc_string_view.hpp

; 174  :         _CSTD memmove(_First1, _First2, _Count * sizeof(_Elem));

  00c8d	83 c4 0c	 add	 esp, 12			; 0000000cH
; File C:\Program Files\Microsoft Visual Studio\2022\Community\VC\Tools\MSVC\14.44.35207\include\xstring

; 1518 :             _Traits::assign(_Old_ptr[_Old_size + _Count], _Elem());

  00c90	c6 04 30 00	 mov	 BYTE PTR [eax+esi], 0

; 1519 :             return *this;

  00c94	8b 75 9c	 mov	 esi, DWORD PTR $T83[ebp]
  00c97	eb 0e		 jmp	 SHORT $LN290@ProcessEve
$LN291@ProcessEve:

; 1520 :         }
; 1521 : 
; 1522 :         return _Reallocate_grow_by(

  00c99	51		 push	 ecx
  00c9a	52		 push	 edx
  00c9b	ff 75 98	 push	 DWORD PTR $T66[ebp]
  00c9e	51		 push	 ecx
  00c9f	8d 4f 30	 lea	 ecx, DWORD PTR [edi+48]
  00ca2	e8 00 00 00 00	 call	 ??$_Reallocate_grow_by@V<lambda_1>@?1??append@?$basic_string@DU?$char_traits@D@std@@V?$allocator@D@2@@std@@QAEAAV34@QBDI@Z@PBDI@?$basic_string@DU?$char_traits@D@std@@V?$allocator@D@2@@std@@AAEAAV01@IV<lambda_1>@?1??append@01@QAEAAV01@QBDI@Z@PBDI@Z ; std::basic_string<char,std::char_traits<char>,std::allocator<char> >::_Reallocate_grow_by<`std::basic_string<char,std::char_traits<char>,std::allocator<char> >::append'::`2'::<lambda_1>,char const *,unsigned int>
$LN290@ProcessEve:

; 453  :         return _Myres > _Small_string_capacity;

  00ca7	83 7f 44 0f	 cmp	 DWORD PTR [edi+68], 15	; 0000000fH
  00cab	8d 47 30	 lea	 eax, DWORD PTR [edi+48]

; 445  :         if (_Large_mode_engaged()) {

  00cae	76 02		 jbe	 SHORT $LN245@ProcessEve

; 446  :             _Result = _Unfancy(_Bx._Ptr);

  00cb0	8b 00		 mov	 eax, DWORD PTR [eax]
$LN245@ProcessEve:
; File C:\Anka2Project\Anka2Project\Source\Binary\source\UserInterface\PythonEventManager.cpp

; 772  : 				pEventSet->pCurrentTextLine->SetValue(pEventSet->strCurrentLine.c_str());

  00cb2	8b 4f 48	 mov	 ecx, DWORD PTR [edi+72]
  00cb5	6a ff		 push	 -1
  00cb7	50		 push	 eax
  00cb8	e8 00 00 00 00	 call	 ?SetValue@CGraphicTextInstance@@QAEXPBDI@Z ; CGraphicTextInstance::SetValue

; 773  : 				pEventSet->iCurrentLetter += strlen(c_szName);

  00cbd	8b 4d a8	 mov	 ecx, DWORD PTR _c_szName$88[ebp]
  00cc0	8d 51 01	 lea	 edx, DWORD PTR [ecx+1]
$LL660@ProcessEve:
  00cc3	8a 01		 mov	 al, BYTE PTR [ecx]
  00cc5	41		 inc	 ecx
  00cc6	84 c0		 test	 al, al
  00cc8	75 f9		 jne	 SHORT $LL660@ProcessEve
  00cca	8b 47 1c	 mov	 eax, DWORD PTR [edi+28]
  00ccd	2b ca		 sub	 ecx, edx
  00ccf	03 c1		 add	 eax, ecx
  00cd1	89 47 1c	 mov	 DWORD PTR [edi+28], eax

; 774  : 
; 775  : 				if (pEventSet->iCurrentLetter >= pEventSet->iRestrictedCharacterCount)

  00cd4	3b 87 c4 00 00
	00		 cmp	 eax, DWORD PTR [edi+196]
  00cda	0f 8c f6 f4 ff
	ff		 jl	 $LN11@ProcessEve

; 776  : 					__InsertLine(*pEventSet);

  00ce0	6a 00		 push	 0
  00ce2	6a 00		 push	 0
  00ce4	57		 push	 edi
  00ce5	8b ce		 mov	 ecx, esi
  00ce7	e8 00 00 00 00	 call	 ?__InsertLine@CPythonEventManager@@IAEXAAUSEventSet@1@HH@Z ; CPythonEventManager::__InsertLine

; 777  : 
; 778  : 				pEventSet->lLastDelayTime = pEventSet->lWaitingTime;

  00cec	8b 87 c0 00 00
	00		 mov	 eax, DWORD PTR [edi+192]
  00cf2	89 47 18	 mov	 DWORD PTR [edi+24], eax

; 779  : 			}
; 780  : 
; 781  : 			break;

  00cf5	e9 4f 01 00 00	 jmp	 $LN2@ProcessEve
$LN64@ProcessEve:

; 782  : 		}
; 783  : 
; 784  : 		case EVENT_TYPE_WINDOW_SIZE:
; 785  : 		{
; 786  : 			int iWidth = atoi(GetArgument("width", ScriptCommand.argList));

  00cfa	8d 55 e8	 lea	 edx, DWORD PTR _ScriptCommand$[ebp+24]
  00cfd	b9 00 00 00 00	 mov	 ecx, OFFSET ??_C@_05IGKADHGO@width@
  00d02	e8 00 00 00 00	 call	 ?GetArgument@@YAPBDPBDAAV?$list@USArgumet@script@@V?$allocator@USArgumet@script@@@std@@@std@@@Z ; GetArgument
  00d07	50		 push	 eax
  00d08	e8 00 00 00 00	 call	 __atoi64

; 787  : 			int iHeight = atoi(GetArgument("height", ScriptCommand.argList));

  00d0d	8d 55 e8	 lea	 edx, DWORD PTR _ScriptCommand$[ebp+24]
  00d10	b9 00 00 00 00	 mov	 ecx, OFFSET ??_C@_06LNLHEAAG@height@
  00d15	8b f0		 mov	 esi, eax
  00d17	e8 00 00 00 00	 call	 ?GetArgument@@YAPBDPBDAAV?$list@USArgumet@script@@V?$allocator@USArgumet@script@@@std@@@std@@@Z ; GetArgument
  00d1c	50		 push	 eax
  00d1d	e8 00 00 00 00	 call	 __atoi64

; 788  : 			PyCallClassMemberFunc(pEventSet->poEventHandler, "OnSize", Py_BuildValue("(ii)", iWidth, iHeight));

  00d22	50		 push	 eax
  00d23	56		 push	 esi
  00d24	68 00 00 00 00	 push	 OFFSET ??_C@_04INACLLOK@?$CIii?$CJ@
  00d29	ff 15 00 00 00
	00		 call	 DWORD PTR __imp__Py_BuildValue
  00d2f	50		 push	 eax
  00d30	68 00 00 00 00	 push	 OFFSET ??_C@_06JKFPDEMN@OnSize@
  00d35	ff b7 d0 00 00
	00		 push	 DWORD PTR [edi+208]
  00d3b	e8 00 00 00 00	 call	 ?PyCallClassMemberFunc@@YA_NPAU_object@@PBD0@Z ; PyCallClassMemberFunc
  00d40	83 c4 20	 add	 esp, 32			; 00000020H

; 789  : 			break;

  00d43	e9 01 01 00 00	 jmp	 $LN2@ProcessEve
$LN65@ProcessEve:

; 790  : 		}
; 791  : 
; 792  : 		case EVENT_TYPE_INPUT:
; 793  : 		{
; 794  : 			__InsertLine(*pEventSet);

  00d48	6a 00		 push	 0
  00d4a	6a 00		 push	 0
  00d4c	57		 push	 edi
  00d4d	8b ce		 mov	 ecx, esi
  00d4f	e8 00 00 00 00	 call	 ?__InsertLine@CPythonEventManager@@IAEXAAUSEventSet@1@HH@Z ; CPythonEventManager::__InsertLine

; 795  : 			PyCallClassMemberFunc(pEventSet->poEventHandler, "OnInput", Py_BuildValue("()"));

  00d54	68 00 00 00 00	 push	 OFFSET ??_C@_02HCKGKOFO@?$CI?$CJ@
  00d59	ff 15 00 00 00
	00		 call	 DWORD PTR __imp__Py_BuildValue
  00d5f	50		 push	 eax
  00d60	68 00 00 00 00	 push	 OFFSET ??_C@_07MNOKODDC@OnInput@
  00d65	ff b7 d0 00 00
	00		 push	 DWORD PTR [edi+208]

; 796  : 			break;

  00d6b	e9 d1 00 00 00	 jmp	 $LN664@ProcessEve
$LN66@ProcessEve:

; 797  : 		}
; 798  : 
; 799  : 		case EVENT_TYPE_CONFIRM_WAIT:
; 800  : 		{
; 801  : 			int iTimeOut = atoi(GetArgument("timeout", ScriptCommand.argList));

  00d70	8d 55 e8	 lea	 edx, DWORD PTR _ScriptCommand$[ebp+24]
  00d73	b9 00 00 00 00	 mov	 ecx, OFFSET ??_C@_07DDHNKDGP@timeout@
  00d78	e8 00 00 00 00	 call	 ?GetArgument@@YAPBDPBDAAV?$list@USArgumet@script@@V?$allocator@USArgumet@script@@@std@@@std@@@Z ; GetArgument
  00d7d	50		 push	 eax
  00d7e	e8 00 00 00 00	 call	 __atoi64

; 802  : 			pEventSet->isConfirmWait = TRUE;
; 803  : 			pEventSet->pConfirmTimeTextLine = pEventSet->pCurrentTextLine;

  00d83	8b 4f 48	 mov	 ecx, DWORD PTR [edi+72]
  00d86	83 c4 04	 add	 esp, 4
  00d89	8b f0		 mov	 esi, eax
  00d8b	c7 47 54 01 00
	00 00		 mov	 DWORD PTR [edi+84], 1
  00d92	89 4f 58	 mov	 DWORD PTR [edi+88], ecx

; 804  : 			pEventSet->iConfirmEndTime = timeGetTime() / 1000 + iTimeOut;

  00d95	ff 15 00 00 00
	00		 call	 DWORD PTR __imp__timeGetTime@0
  00d9b	8b c8		 mov	 ecx, eax
  00d9d	b8 d3 4d 62 10	 mov	 eax, 274877907		; 10624dd3H
  00da2	f7 e1		 mul	 ecx

; 805  : 			__InsertLine(*pEventSet, TRUE);

  00da4	8b 4d 9c	 mov	 ecx, DWORD PTR $T83[ebp]
  00da7	6a 00		 push	 0
  00da9	c1 ea 06	 shr	 edx, 6
  00dac	6a 01		 push	 1
  00dae	03 d6		 add	 edx, esi
  00db0	57		 push	 edi
  00db1	89 57 5c	 mov	 DWORD PTR [edi+92], edx
  00db4	e8 00 00 00 00	 call	 ?__InsertLine@CPythonEventManager@@IAEXAAUSEventSet@1@HH@Z ; CPythonEventManager::__InsertLine

; 806  : 			MakeNextButton(pEventSet, BUTTON_TYPE_CANCEL);

  00db9	6a 02		 push	 2
  00dbb	57		 push	 edi
  00dbc	e8 00 00 00 00	 call	 ?MakeNextButton@CPythonEventManager@@IAEXPAUSEventSet@1@H@Z ; CPythonEventManager::MakeNextButton

; 807  : 			break;

  00dc1	e9 83 00 00 00	 jmp	 $LN2@ProcessEve
$LN67@ProcessEve:
; File C:\Program Files\Microsoft Visual Studio\2022\Community\VC\Tools\MSVC\14.44.35207\include\vector

; 1915 :         return static_cast<size_type>(_My_data._Mylast - _My_data._Myfirst);

  00dc6	8b 46 10	 mov	 eax, DWORD PTR [esi+16]
; File C:\Anka2Project\Anka2Project\Source\Binary\source\UserInterface\PythonEventManager.cpp

; 812  : 			for (DWORD i = 0; i < m_EventSetVector.size(); ++i)

  00dc9	33 ff		 xor	 edi, edi
; File C:\Program Files\Microsoft Visual Studio\2022\Community\VC\Tools\MSVC\14.44.35207\include\vector

; 1915 :         return static_cast<size_type>(_My_data._Mylast - _My_data._Myfirst);

  00dcb	8b 4e 0c	 mov	 ecx, DWORD PTR [esi+12]
  00dce	2b c1		 sub	 eax, ecx
  00dd0	c1 f8 02	 sar	 eax, 2
; File C:\Anka2Project\Anka2Project\Source\Binary\source\UserInterface\PythonEventManager.cpp

; 812  : 			for (DWORD i = 0; i < m_EventSetVector.size(); ++i)

  00dd3	85 c0		 test	 eax, eax
  00dd5	74 72		 je	 SHORT $LN2@ProcessEve
$LL6@ProcessEve:

; 813  : 			{
; 814  : 				if (NULL == m_EventSetVector[i])

  00dd7	8b 34 b9	 mov	 esi, DWORD PTR [ecx+edi*4]
  00dda	85 f6		 test	 esi, esi
  00ddc	74 3a		 je	 SHORT $LN4@ProcessEve

; 815  : 					continue;
; 816  : 
; 817  : 				TEventSet* pSet = m_EventSetVector[i];
; 818  : 				if (!pSet->isConfirmWait)

  00dde	83 7e 54 00	 cmp	 DWORD PTR [esi+84], 0
  00de2	74 34		 je	 SHORT $LN4@ProcessEve

; 819  : 					continue;
; 820  : 
; 821  : 				pSet->isConfirmWait = FALSE;
; 822  : 				pSet->pConfirmTimeTextLine = nullptr;
; 823  : 				pSet->iConfirmEndTime = 0;
; 824  : 
; 825  : 				PyCallClassMemberFunc(pSet->poEventHandler, "CloseSelf", Py_BuildValue("()"));

  00de4	68 00 00 00 00	 push	 OFFSET ??_C@_02HCKGKOFO@?$CI?$CJ@
  00de9	c7 46 54 00 00
	00 00		 mov	 DWORD PTR [esi+84], 0
  00df0	c7 46 58 00 00
	00 00		 mov	 DWORD PTR [esi+88], 0
  00df7	c7 46 5c 00 00
	00 00		 mov	 DWORD PTR [esi+92], 0
  00dfe	ff 15 00 00 00
	00		 call	 DWORD PTR __imp__Py_BuildValue
  00e04	50		 push	 eax
  00e05	68 00 00 00 00	 push	 OFFSET ??_C@_09FOPMPDJN@CloseSelf@
  00e0a	ff b6 d0 00 00
	00		 push	 DWORD PTR [esi+208]
  00e10	e8 00 00 00 00	 call	 ?PyCallClassMemberFunc@@YA_NPAU_object@@PBD0@Z ; PyCallClassMemberFunc
  00e15	83 c4 10	 add	 esp, 16			; 00000010H
$LN4@ProcessEve:
; File C:\Program Files\Microsoft Visual Studio\2022\Community\VC\Tools\MSVC\14.44.35207\include\vector

; 1915 :         return static_cast<size_type>(_My_data._Mylast - _My_data._Myfirst);

  00e18	8b 45 9c	 mov	 eax, DWORD PTR $T83[ebp]
; File C:\Anka2Project\Anka2Project\Source\Binary\source\UserInterface\PythonEventManager.cpp

; 812  : 			for (DWORD i = 0; i < m_EventSetVector.size(); ++i)

  00e1b	47		 inc	 edi
; File C:\Program Files\Microsoft Visual Studio\2022\Community\VC\Tools\MSVC\14.44.35207\include\vector

; 1915 :         return static_cast<size_type>(_My_data._Mylast - _My_data._Myfirst);

  00e1c	8b 48 0c	 mov	 ecx, DWORD PTR [eax+12]
  00e1f	8b 40 10	 mov	 eax, DWORD PTR [eax+16]
  00e22	2b c1		 sub	 eax, ecx
  00e24	c1 f8 02	 sar	 eax, 2
; File C:\Anka2Project\Anka2Project\Source\Binary\source\UserInterface\PythonEventManager.cpp

; 812  : 			for (DWORD i = 0; i < m_EventSetVector.size(); ++i)

  00e27	3b f8		 cmp	 edi, eax
  00e29	72 ac		 jb	 SHORT $LL6@ProcessEve

; 826  : 			}
; 827  : 			break;

  00e2b	eb 1c		 jmp	 SHORT $LN2@ProcessEve
$LN70@ProcessEve:

; 828  : 		}
; 829  : 
; 830  : 		case EVENT_TYPE_SELECT_ITEM:
; 831  : 		{
; 832  : 			PyCallClassMemberFunc(m_poInterface, "BINARY_OpenSelectItemWindow", Py_BuildValue("()"));

  00e2d	68 00 00 00 00	 push	 OFFSET ??_C@_02HCKGKOFO@?$CI?$CJ@
  00e32	ff 15 00 00 00
	00		 call	 DWORD PTR __imp__Py_BuildValue
  00e38	50		 push	 eax
  00e39	68 00 00 00 00	 push	 OFFSET ??_C@_0BM@GFGEFDCO@BINARY_OpenSelectItemWindow@
  00e3e	ff 76 64	 push	 DWORD PTR [esi+100]
$LN664@ProcessEve:

; 837  : 	return true;

  00e41	e8 00 00 00 00	 call	 ?PyCallClassMemberFunc@@YA_NPAU_object@@PBD0@Z ; PyCallClassMemberFunc
  00e46	83 c4 10	 add	 esp, 16			; 00000010H
$LN2@ProcessEve:
  00e49	c6 45 97 01	 mov	 BYTE PTR $T79[ebp], 1
$LN74@ProcessEve:
  00e4d	8d 4d e8	 lea	 ecx, DWORD PTR _ScriptCommand$[ebp+24]
  00e50	e8 00 00 00 00	 call	 ??1?$list@USArgumet@script@@V?$allocator@USArgumet@script@@@std@@@std@@QAE@XZ ; std::list<script::SArgumet,std::allocator<script::SArgumet> >::~list<script::SArgumet,std::allocator<script::SArgumet> >
; File C:\Program Files\Microsoft Visual Studio\2022\Community\VC\Tools\MSVC\14.44.35207\include\xstring

; 1383 :         _Tidy_deallocate();

  00e55	8d 4d d0	 lea	 ecx, DWORD PTR _ScriptCommand$[ebp]
  00e58	e8 00 00 00 00	 call	 ?_Tidy_deallocate@?$basic_string@DU?$char_traits@D@std@@V?$allocator@D@2@@std@@AAEXXZ ; std::basic_string<char,std::char_traits<char>,std::allocator<char> >::_Tidy_deallocate
; File C:\Anka2Project\Anka2Project\Source\Binary\source\UserInterface\PythonEventManager.cpp

; 837  : 	return true;

  00e5d	8a 45 97	 mov	 al, BYTE PTR $T79[ebp]
$LN1@ProcessEve:

; 838  : }

  00e60	8b 4d f4	 mov	 ecx, DWORD PTR __$EHRec$[ebp]
  00e63	64 89 0d 00 00
	00 00		 mov	 DWORD PTR fs:0, ecx
  00e6a	59		 pop	 ecx
  00e6b	5f		 pop	 edi
  00e6c	5e		 pop	 esi
  00e6d	8b 4d f0	 mov	 ecx, DWORD PTR __$ArrayPad$[ebp]
  00e70	33 cd		 xor	 ecx, ebp
  00e72	e8 00 00 00 00	 call	 @__security_check_cookie@4
  00e77	8b e5		 mov	 esp, ebp
  00e79	5d		 pop	 ebp
  00e7a	c2 04 00	 ret	 4
  00e7d	0f 1f 00	 npad	 3
$LN652@ProcessEve:
  00e80	00 00 00 00	 DD	 $LN10@ProcessEve
  00e84	00 00 00 00	 DD	 $LN15@ProcessEve
  00e88	00 00 00 00	 DD	 $LN12@ProcessEve
  00e8c	00 00 00 00	 DD	 $LN21@ProcessEve
  00e90	00 00 00 00	 DD	 $LN22@ProcessEve
  00e94	00 00 00 00	 DD	 $LN53@ProcessEve
  00e98	00 00 00 00	 DD	 $LN26@ProcessEve
  00e9c	00 00 00 00	 DD	 $LN23@ProcessEve
  00ea0	00 00 00 00	 DD	 $LN24@ProcessEve
  00ea4	00 00 00 00	 DD	 $LN27@ProcessEve
  00ea8	00 00 00 00	 DD	 $LN28@ProcessEve
  00eac	00 00 00 00	 DD	 $LN29@ProcessEve
  00eb0	00 00 00 00	 DD	 $LN30@ProcessEve
  00eb4	00 00 00 00	 DD	 $LN34@ProcessEve
  00eb8	00 00 00 00	 DD	 $LN35@ProcessEve
  00ebc	00 00 00 00	 DD	 $LN2@ProcessEve
  00ec0	00 00 00 00	 DD	 $LN2@ProcessEve
  00ec4	00 00 00 00	 DD	 $LN44@ProcessEve
  00ec8	00 00 00 00	 DD	 $LN37@ProcessEve
  00ecc	00 00 00 00	 DD	 $LN36@ProcessEve
  00ed0	00 00 00 00	 DD	 $LN45@ProcessEve
  00ed4	00 00 00 00	 DD	 $LN46@ProcessEve
  00ed8	00 00 00 00	 DD	 $LN47@ProcessEve
  00edc	00 00 00 00	 DD	 $LN48@ProcessEve
  00ee0	00 00 00 00	 DD	 $LN49@ProcessEve
  00ee4	00 00 00 00	 DD	 $LN50@ProcessEve
  00ee8	00 00 00 00	 DD	 $LN51@ProcessEve
  00eec	00 00 00 00	 DD	 $LN52@ProcessEve
  00ef0	00 00 00 00	 DD	 $LN53@ProcessEve
  00ef4	00 00 00 00	 DD	 $LN54@ProcessEve
  00ef8	00 00 00 00	 DD	 $LN56@ProcessEve
  00efc	00 00 00 00	 DD	 $LN2@ProcessEve
  00f00	00 00 00 00	 DD	 $LN57@ProcessEve
  00f04	00 00 00 00	 DD	 $LN58@ProcessEve
  00f08	00 00 00 00	 DD	 $LN61@ProcessEve
  00f0c	00 00 00 00	 DD	 $LN18@ProcessEve
  00f10	00 00 00 00	 DD	 $LN64@ProcessEve
  00f14	00 00 00 00	 DD	 $LN65@ProcessEve
  00f18	00 00 00 00	 DD	 $LN66@ProcessEve
  00f1c	00 00 00 00	 DD	 $LN67@ProcessEve
  00f20	00 00 00 00	 DD	 $LN31@ProcessEve
  00f24	00 00 00 00	 DD	 $LN70@ProcessEve
_TEXT	ENDS
;	COMDAT text$x
text$x	SEGMENT
__unwindfunclet$?ProcessEventSet@CPythonEventManager@@IAE_NPAUSEventSet@1@@Z$3:
  00000	8d 4d d0	 lea	 ecx, DWORD PTR _ScriptCommand$[ebp]
  00003	e9 00 00 00 00	 jmp	 ??1?$basic_string@DU?$char_traits@D@std@@V?$allocator@D@2@@std@@QAE@XZ ; std::basic_string<char,std::char_traits<char>,std::allocator<char> >::~basic_string<char,std::char_traits<char>,std::allocator<char> >
__unwindfunclet$?ProcessEventSet@CPythonEventManager@@IAE_NPAUSEventSet@1@@Z$0:
  00008	8d 4d d0	 lea	 ecx, DWORD PTR _ScriptCommand$[ebp]
  0000b	e9 00 00 00 00	 jmp	 ??1SCmd@script@@QAE@XZ
  00010	cc		 int	 3
  00011	cc		 int	 3
  00012	cc		 int	 3
  00013	cc		 int	 3
  00014	cc		 int	 3
__ehhandler$?ProcessEventSet@CPythonEventManager@@IAE_NPAUSEventSet@1@@Z:
  00015	90		 npad	 1
  00016	90		 npad	 1
  00017	8b 54 24 08	 mov	 edx, DWORD PTR [esp+8]
  0001b	8d 42 0c	 lea	 eax, DWORD PTR [edx+12]
  0001e	8b 4a 8c	 mov	 ecx, DWORD PTR [edx-116]
  00021	33 c8		 xor	 ecx, eax
  00023	e8 00 00 00 00	 call	 @__security_check_cookie@4
  00028	8b 4a fc	 mov	 ecx, DWORD PTR [edx-4]
  0002b	33 c8		 xor	 ecx, eax
  0002d	e8 00 00 00 00	 call	 @__security_check_cookie@4
  00032	b8 00 00 00 00	 mov	 eax, OFFSET __ehfuncinfo$?ProcessEventSet@CPythonEventManager@@IAE_NPAUSEventSet@1@@Z
  00037	e9 00 00 00 00	 jmp	 ___CxxFrameHandler3
text$x	ENDS
?ProcessEventSet@CPythonEventManager@@IAE_NPAUSEventSet@1@@Z ENDP ; CPythonEventManager::ProcessEventSet
; Function compile flags: /Ogtp
; File C:\Anka2Project\Anka2Project\Source\Binary\source\UserInterface\PythonEventManager.cpp
;	COMDAT ?MakeNextButton@CPythonEventManager@@IAEXPAUSEventSet@1@H@Z
_TEXT	SEGMENT
_pEventSet$ = 8						; size = 4
_iButtonType$ = 12					; size = 4
?MakeNextButton@CPythonEventManager@@IAEXPAUSEventSet@1@H@Z PROC ; CPythonEventManager::MakeNextButton, COMDAT
; _this$dead$ = ecx

; 1363 : {

  00000	55		 push	 ebp
  00001	8b ec		 mov	 ebp, esp
  00003	56		 push	 esi

; 1364 : 	__AddSpace(*pEventSet, c_fLine_Temp+5);

  00004	8b 75 08	 mov	 esi, DWORD PTR _pEventSet$[ebp]
  00007	6a 15		 push	 21			; 00000015H
  00009	56		 push	 esi
  0000a	e8 00 00 00 00	 call	 ?__AddSpace@CPythonEventManager@@IAEXAAUSEventSet@1@H@Z ; CPythonEventManager::__AddSpace

; 1365 : 	PyCallClassMemberFunc(pEventSet->poEventHandler, "MakeNextButton", Py_BuildValue("(i)", iButtonType));

  0000f	ff 75 0c	 push	 DWORD PTR _iButtonType$[ebp]
  00012	68 00 00 00 00	 push	 OFFSET ??_C@_03LIHNMIHG@?$CIi?$CJ@
  00017	ff 15 00 00 00
	00		 call	 DWORD PTR __imp__Py_BuildValue
  0001d	50		 push	 eax
  0001e	68 00 00 00 00	 push	 OFFSET ??_C@_0P@FONAKFHL@MakeNextButton@
  00023	ff b6 d0 00 00
	00		 push	 DWORD PTR [esi+208]
  00029	e8 00 00 00 00	 call	 ?PyCallClassMemberFunc@@YA_NPAU_object@@PBD0@Z ; PyCallClassMemberFunc
  0002e	83 c4 14	 add	 esp, 20			; 00000014H
  00031	5e		 pop	 esi

; 1366 : }

  00032	5d		 pop	 ebp
  00033	c2 08 00	 ret	 8
?MakeNextButton@CPythonEventManager@@IAEXPAUSEventSet@1@H@Z ENDP ; CPythonEventManager::MakeNextButton
_TEXT	ENDS
; Function compile flags: /Ogtp
; File C:\Anka2Project\Anka2Project\Source\Binary\source\UserInterface\PythonEventManager.cpp
; File C:\Program Files\Microsoft Visual Studio\2022\Community\VC\Tools\MSVC\14.44.35207\include\list
; File C:\Anka2Project\Anka2Project\Source\Binary\source\UserInterface\PythonEventManager.cpp
; File C:\Program Files\Microsoft Visual Studio\2022\Community\VC\Tools\MSVC\14.44.35207\include\list
; File C:\Anka2Project\Anka2Project\Source\Binary\source\UserInterface\PythonEventManager.cpp
; File C:\Program Files\Microsoft Visual Studio\2022\Community\VC\Tools\MSVC\14.44.35207\include\xstring
; File C:\Anka2Project\Anka2Project\Source\Binary\source\UserInterface\PythonEventManager.cpp
; File C:\Program Files\Microsoft Visual Studio\2022\Community\VC\Tools\MSVC\14.44.35207\include\list
; File C:\Anka2Project\Anka2Project\Source\Binary\source\UserInterface\PythonEventManager.cpp
; File C:\Program Files\Microsoft Visual Studio\2022\Community\VC\Tools\MSVC\14.44.35207\include\list
; File C:\Anka2Project\Anka2Project\Source\Binary\source\UserInterface\PythonEventManager.cpp
;	COMDAT ?MakeQuestion@CPythonEventManager@@IAEXPAUSEventSet@1@AAV?$list@USArgumet@script@@V?$allocator@USArgumet@script@@@std@@@std@@@Z
_TEXT	SEGMENT
_pEventSet$ = 8						; size = 4
_rArgumentList$ = 12					; size = 4
?MakeQuestion@CPythonEventManager@@IAEXPAUSEventSet@1@AAV?$list@USArgumet@script@@V?$allocator@USArgumet@script@@@std@@@std@@@Z PROC ; CPythonEventManager::MakeQuestion, COMDAT
; _this$dead$ = ecx

; 1369 : {

  00000	55		 push	 ebp
  00001	8b ec		 mov	 ebp, esp
  00003	53		 push	 ebx
; File C:\Program Files\Microsoft Visual Studio\2022\Community\VC\Tools\MSVC\14.44.35207\include\list

; 1213 :         return _Mypair._Myval2._Mysize == 0;

  00004	8b 5d 0c	 mov	 ebx, DWORD PTR _rArgumentList$[ebp]
  00007	8b 43 04	 mov	 eax, DWORD PTR [ebx+4]
  0000a	85 c0		 test	 eax, eax
; File C:\Anka2Project\Anka2Project\Source\Binary\source\UserInterface\PythonEventManager.cpp

; 1370 : 	if (rArgumentList.empty())

  0000c	74 70		 je	 SHORT $LN3@MakeQuesti

; 1371 : 		return;
; 1372 : 
; 1373 : 	PyCallClassMemberFunc(pEventSet->poEventHandler, "MakeQuestion", Py_BuildValue("(i)", rArgumentList.size()));

  0000e	56		 push	 esi
  0000f	57		 push	 edi
  00010	50		 push	 eax
  00011	68 00 00 00 00	 push	 OFFSET ??_C@_03LIHNMIHG@?$CIi?$CJ@
  00016	ff 15 00 00 00
	00		 call	 DWORD PTR __imp__Py_BuildValue
  0001c	8b 75 08	 mov	 esi, DWORD PTR _pEventSet$[ebp]
  0001f	50		 push	 eax
  00020	68 00 00 00 00	 push	 OFFSET ??_C@_0N@NKMOFENJ@MakeQuestion@
  00025	ff b6 d0 00 00
	00		 push	 DWORD PTR [esi+208]
  0002b	e8 00 00 00 00	 call	 ?PyCallClassMemberFunc@@YA_NPAU_object@@PBD0@Z ; PyCallClassMemberFunc

; 1374 : 	pEventSet->nAnswer = rArgumentList.size();

  00030	8b 43 04	 mov	 eax, DWORD PTR [ebx+4]
  00033	83 c4 14	 add	 esp, 20			; 00000014H
  00036	89 86 c8 00 00
	00		 mov	 DWORD PTR [esi+200], eax

; 1375 : 
; 1376 : 	int iIndex = 0;

  0003c	33 ff		 xor	 edi, edi
; File C:\Program Files\Microsoft Visual Studio\2022\Community\VC\Tools\MSVC\14.44.35207\include\list

; 1105 :         return iterator(_Mypair._Myval2._Myhead->_Next, _STD addressof(_Mypair._Myval2));

  0003e	8b 03		 mov	 eax, DWORD PTR [ebx]

; 37   :     _List_unchecked_const_iterator(_Nodeptr _Pnode, const _Mylist* _Plist) noexcept : _Ptr(_Pnode) {

  00040	8b 30		 mov	 esi, DWORD PTR [eax]
  00042	3b f0		 cmp	 esi, eax
; File C:\Anka2Project\Anka2Project\Source\Binary\source\UserInterface\PythonEventManager.cpp

; 1377 : 	for (script::TArgList::iterator itor=rArgumentList.begin(); itor!=rArgumentList.end(); ++itor)

  00044	74 36		 je	 SHORT $LN69@MakeQuesti
$LL4@MakeQuesti:
; File C:\Program Files\Microsoft Visual Studio\2022\Community\VC\Tools\MSVC\14.44.35207\include\xstring

; 453  :         return _Myres > _Small_string_capacity;

  00046	83 7e 34 0f	 cmp	 DWORD PTR [esi+52], 15	; 0000000fH

; 2356 :         return _Mypair._Myval2._Myptr();

  0004a	8d 46 20	 lea	 eax, DWORD PTR [esi+32]

; 445  :         if (_Large_mode_engaged()) {

  0004d	76 02		 jbe	 SHORT $LN56@MakeQuesti

; 446  :             _Result = _Unfancy(_Bx._Ptr);

  0004f	8b 00		 mov	 eax, DWORD PTR [eax]
$LN56@MakeQuesti:
; File C:\Anka2Project\Anka2Project\Source\Binary\source\UserInterface\PythonEventManager.cpp

; 1380 : 		PyCallClassMemberFunc(pEventSet->poEventHandler, "AppendQuestion", Py_BuildValue("(si)", rArgument.strValue.c_str(), iIndex));

  00051	57		 push	 edi
  00052	50		 push	 eax
  00053	68 00 00 00 00	 push	 OFFSET ??_C@_04LCKGAMBB@?$CIsi?$CJ@
  00058	ff 15 00 00 00
	00		 call	 DWORD PTR __imp__Py_BuildValue
  0005e	50		 push	 eax
  0005f	8b 45 08	 mov	 eax, DWORD PTR _pEventSet$[ebp]
  00062	68 00 00 00 00	 push	 OFFSET ??_C@_0P@EGMAHDDO@AppendQuestion@
  00067	ff b0 d0 00 00
	00		 push	 DWORD PTR [eax+208]
  0006d	e8 00 00 00 00	 call	 ?PyCallClassMemberFunc@@YA_NPAU_object@@PBD0@Z ; PyCallClassMemberFunc
; File C:\Program Files\Microsoft Visual Studio\2022\Community\VC\Tools\MSVC\14.44.35207\include\list

; 164  :         this->_Ptr = this->_Ptr->_Next;

  00072	8b 36		 mov	 esi, DWORD PTR [esi]
; File C:\Anka2Project\Anka2Project\Source\Binary\source\UserInterface\PythonEventManager.cpp

; 1380 : 		PyCallClassMemberFunc(pEventSet->poEventHandler, "AppendQuestion", Py_BuildValue("(si)", rArgument.strValue.c_str(), iIndex));

  00074	83 c4 18	 add	 esp, 24			; 00000018H

; 1381 : 		++iIndex;

  00077	47		 inc	 edi
; File C:\Program Files\Microsoft Visual Studio\2022\Community\VC\Tools\MSVC\14.44.35207\include\list

; 197  :         return this->_Ptr == _Right._Ptr;

  00078	3b 33		 cmp	 esi, DWORD PTR [ebx]
; File C:\Anka2Project\Anka2Project\Source\Binary\source\UserInterface\PythonEventManager.cpp

; 1377 : 	for (script::TArgList::iterator itor=rArgumentList.begin(); itor!=rArgumentList.end(); ++itor)

  0007a	75 ca		 jne	 SHORT $LL4@MakeQuesti
$LN69@MakeQuesti:
  0007c	5f		 pop	 edi
  0007d	5e		 pop	 esi
$LN3@MakeQuesti:
  0007e	5b		 pop	 ebx

; 1382 : 	}
; 1383 : }

  0007f	5d		 pop	 ebp
  00080	c2 08 00	 ret	 8
?MakeQuestion@CPythonEventManager@@IAEXPAUSEventSet@1@AAV?$list@USArgumet@script@@V?$allocator@USArgumet@script@@@std@@@std@@@Z ENDP ; CPythonEventManager::MakeQuestion
_TEXT	ENDS
; Function compile flags: /Ogtp
; File C:\Anka2Project\Anka2Project\Source\Binary\source\eterLib\Pool.h
;	COMDAT ?Delete@?$CDynamicPool@USEventSet@CPythonEventManager@@@@KAXPAUSEventSet@CPythonEventManager@@@Z
_TEXT	SEGMENT
?Delete@?$CDynamicPool@USEventSet@CPythonEventManager@@@@KAXPAUSEventSet@CPythonEventManager@@@Z PROC ; CDynamicPool<CPythonEventManager::SEventSet>::Delete, COMDAT
; _pkData$ = ecx

; 85   : 			delete pkData;

  00000	85 c9		 test	 ecx, ecx
  00002	74 06		 je	 SHORT $LN3@Delete
  00004	8b 01		 mov	 eax, DWORD PTR [ecx]
  00006	6a 01		 push	 1
  00008	ff 10		 call	 DWORD PTR [eax]
$LN3@Delete:

; 86   : 		}

  0000a	c3		 ret	 0
?Delete@?$CDynamicPool@USEventSet@CPythonEventManager@@@@KAXPAUSEventSet@CPythonEventManager@@@Z ENDP ; CDynamicPool<CPythonEventManager::SEventSet>::Delete
_TEXT	ENDS
END
