; Listing generated by Microsoft (R) Optimizing Compiler Version 19.44.35219.0 

	TITLE	c:\anka2project\anka2project\source\binary\vs_files\userinterface\release\pythonplayerinput.obj
	.686P
	.XMM
	include listing.inc
	.model	flat

INCLUDELIB OLDNAMES

PUBLIC	??_C@_0DD@MNMGJOCJ@CPythonPlayer?3?3__OnPressItem?5?9?5@ ; `string'
PUBLIC	??_C@_0BB@KPNAHCEN@SetPCTargetBoard@		; `string'
PUBLIC	??_C@_0BB@BOHMBBJL@OnCannotUseSkill@		; `string'
PUBLIC	??_C@_0BE@DLANHBIF@OnFishingWrongPlace@		; `string'
PUBLIC	??_C@_0N@OPOOJDCJ@OnCannotShot@			; `string'
PUBLIC	??_C@_0M@FBIHMJDM@EMPTY_ARROW@			; `string'
PUBLIC	??_C@_0N@KDALDMKB@DEST_IN_SAFE@			; `string'
PUBLIC	??_C@_07OAOBINCH@IN_SAFE@			; `string'
PUBLIC	??_C@_0P@BFHKDLNH@OnCannotAttack@		; `string'
EXTRN	?CameraRotationToCharacterRotation@@YAMM@Z:PROC	; CameraRotationToCharacterRotation
EXTRN	?Logn@@YAXIPBD@Z:PROC				; Logn
EXTRN	?SetFlyEventHandler@CActorInstance@@QAEXPAVIFlyEventHandler@@@Z:PROC ; CActorInstance::SetFlyEventHandler
;	COMDAT ?s_dwLastCancelTime@?6??NEW_CancelFishing@CPythonPlayer@@QAE_NXZ@4KA
_BSS	SEGMENT
?s_dwLastCancelTime@?6??NEW_CancelFishing@CPythonPlayer@@QAE_NXZ@4KA DD 01H DUP (?) ; `CPythonPlayer::NEW_CancelFishing'::`7'::s_dwLastCancelTime
_BSS	ENDS
;	COMDAT ?s_dwLastPickItemID@?1??__OnPressItem@CPythonPlayer@@IAEXAAVCInstanceBase@@K@Z@4KA
_BSS	SEGMENT
?s_dwLastPickItemID@?1??__OnPressItem@CPythonPlayer@@IAEXAAVCInstanceBase@@K@Z@4KA DD 01H DUP (?) ; `CPythonPlayer::__OnPressItem'::`2'::s_dwLastPickItemID
_BSS	ENDS
;	COMDAT ??_C@_0P@BFHKDLNH@OnCannotAttack@
CONST	SEGMENT
??_C@_0P@BFHKDLNH@OnCannotAttack@ DB 'OnCannotAttack', 00H ; `string'
CONST	ENDS
;	COMDAT ??_C@_07OAOBINCH@IN_SAFE@
CONST	SEGMENT
??_C@_07OAOBINCH@IN_SAFE@ DB 'IN_SAFE', 00H		; `string'
CONST	ENDS
;	COMDAT ??_C@_0N@KDALDMKB@DEST_IN_SAFE@
CONST	SEGMENT
??_C@_0N@KDALDMKB@DEST_IN_SAFE@ DB 'DEST_IN_SAFE', 00H	; `string'
CONST	ENDS
;	COMDAT ??_C@_0M@FBIHMJDM@EMPTY_ARROW@
CONST	SEGMENT
??_C@_0M@FBIHMJDM@EMPTY_ARROW@ DB 'EMPTY_ARROW', 00H	; `string'
CONST	ENDS
;	COMDAT ??_C@_0N@OPOOJDCJ@OnCannotShot@
CONST	SEGMENT
??_C@_0N@OPOOJDCJ@OnCannotShot@ DB 'OnCannotShot', 00H	; `string'
CONST	ENDS
;	COMDAT ??_C@_0BE@DLANHBIF@OnFishingWrongPlace@
CONST	SEGMENT
??_C@_0BE@DLANHBIF@OnFishingWrongPlace@ DB 'OnFishingWrongPlace', 00H ; `string'
CONST	ENDS
;	COMDAT ??_C@_0BB@BOHMBBJL@OnCannotUseSkill@
CONST	SEGMENT
??_C@_0BB@BOHMBBJL@OnCannotUseSkill@ DB 'OnCannotUseSkill', 00H ; `string'
CONST	ENDS
;	COMDAT ??_C@_0BB@KPNAHCEN@SetPCTargetBoard@
CONST	SEGMENT
??_C@_0BB@KPNAHCEN@SetPCTargetBoard@ DB 'SetPCTargetBoard', 00H ; `string'
CONST	ENDS
;	COMDAT ??_C@_0DD@MNMGJOCJ@CPythonPlayer?3?3__OnPressItem?5?9?5@
CONST	SEGMENT
??_C@_0DD@MNMGJOCJ@CPythonPlayer?3?3__OnPressItem?5?9?5@ DB 'CPythonPlaye'
	DB	'r::__OnPressItem - ALREADY PICKED ITEM', 00H ; `string'
PUBLIC	?GetScreenWidth@CWindowManager@UI@@QAEJXZ	; UI::CWindowManager::GetScreenWidth
PUBLIC	?GetScreenHeight@CWindowManager@UI@@QAEJXZ	; UI::CWindowManager::GetScreenHeight
PUBLIC	?__SetAutoAttackTargetActorID@CPythonPlayer@@IAEXK@Z ; CPythonPlayer::__SetAutoAttackTargetActorID
PUBLIC	?__ReserveUseSkill@CPythonPlayer@@IAEXKKK@Z	; CPythonPlayer::__ReserveUseSkill
PUBLIC	?__IsReservedUseSkill@CPythonPlayer@@IAE_NK@Z	; CPythonPlayer::__IsReservedUseSkill
PUBLIC	?__ReserveClickGround@CPythonPlayer@@IAEXABUD3DXVECTOR3@@@Z ; CPythonPlayer::__ReserveClickGround
PUBLIC	?__ReserveClickItem@CPythonPlayer@@IAEXK@Z	; CPythonPlayer::__ReserveClickItem
PUBLIC	?GetDegreeFromPosition@CPythonPlayer@@IAEMHHHH@Z ; CPythonPlayer::GetDegreeFromPosition
PUBLIC	?NEW_GetMouseDirRotation@CPythonPlayer@@IAEXMMPAM@Z ; CPythonPlayer::NEW_GetMouseDirRotation
PUBLIC	?NEW_GetMultiKeyDirRotation@CPythonPlayer@@IAEX_N000PAM@Z ; CPythonPlayer::NEW_GetMultiKeyDirRotation
PUBLIC	?__CanAttack@CPythonPlayer@@IAE_NXZ		; CPythonPlayer::__CanAttack
PUBLIC	?__CanMove@CPythonPlayer@@IAE_NXZ		; CPythonPlayer::__CanMove
PUBLIC	?__CanShot@CPythonPlayer@@IAE_NAAVCInstanceBase@@0@Z ; CPythonPlayer::__CanShot
PUBLIC	?NEW_ResetCameraRotation@CPythonPlayer@@QAEXXZ	; CPythonPlayer::NEW_ResetCameraRotation
PUBLIC	?NEW_SetAutoCameraRotationSpeed@CPythonPlayer@@QAEXM@Z ; CPythonPlayer::NEW_SetAutoCameraRotationSpeed
PUBLIC	?NEW_IsEmptyReservedDelayTime@CPythonPlayer@@QAE_NM@Z ; CPythonPlayer::NEW_IsEmptyReservedDelayTime
PUBLIC	?NEW_Attack@CPythonPlayer@@QAEXXZ		; CPythonPlayer::NEW_Attack
PUBLIC	?NEW_Fishing@CPythonPlayer@@QAEXXZ		; CPythonPlayer::NEW_Fishing
PUBLIC	?NEW_CancelFishing@CPythonPlayer@@QAE_NXZ	; CPythonPlayer::NEW_CancelFishing
PUBLIC	?NEW_MoveToDirection@CPythonPlayer@@QAE_NM@Z	; CPythonPlayer::NEW_MoveToDirection
PUBLIC	?__OnPressScreen@CPythonPlayer@@IAEXAAVCInstanceBase@@@Z ; CPythonPlayer::__OnPressScreen
PUBLIC	?__OnPressGround@CPythonPlayer@@IAEXAAVCInstanceBase@@ABUD3DXVECTOR3@@@Z ; CPythonPlayer::__OnPressGround
PUBLIC	?__IsMovableGroundDistance@CPythonPlayer@@IAE_NAAVCInstanceBase@@ABUD3DXVECTOR3@@@Z ; CPythonPlayer::__IsMovableGroundDistance
PUBLIC	?__OnClickGround@CPythonPlayer@@IAEXAAVCInstanceBase@@ABUD3DXVECTOR3@@@Z ; CPythonPlayer::__OnClickGround
PUBLIC	?__OnPressItem@CPythonPlayer@@IAEXAAVCInstanceBase@@K@Z ; CPythonPlayer::__OnPressItem
PUBLIC	?__OnClickActor@CPythonPlayer@@IAEXAAVCInstanceBase@@K_N@Z ; CPythonPlayer::__OnClickActor
PUBLIC	?__OnClickItem@CPythonPlayer@@IAEXAAVCInstanceBase@@K@Z ; CPythonPlayer::__OnClickItem
PUBLIC	?OpenCharacterMenu@CPythonPlayer@@QAEXK@Z	; CPythonPlayer::OpenCharacterMenu
PUBLIC	?__GetDeadTargetInstancePtr@CPythonPlayer@@IAEPAVCInstanceBase@@XZ ; CPythonPlayer::__GetDeadTargetInstancePtr
PUBLIC	?__ChangeTargetToPickedInstance@CPythonPlayer@@IAE_NXZ ; CPythonPlayer::__ChangeTargetToPickedInstance
PUBLIC	?__SetTargetVID@CPythonPlayer@@IAEXK@Z		; CPythonPlayer::__SetTargetVID
PUBLIC	?__GetTargetVID@CPythonPlayer@@IAEKXZ		; CPythonPlayer::__GetTargetVID
PUBLIC	?__IsTarget@CPythonPlayer@@IAE_NXZ		; CPythonPlayer::__IsTarget
PUBLIC	?PickCloseItemAutoVector@CPythonPlayer@@QAEXXZ	; CPythonPlayer::PickCloseItemAutoVector
PUBLIC	?PickCloseItemVector@CPythonPlayer@@QAEXXZ	; CPythonPlayer::PickCloseItemVector
PUBLIC	?PickCloseItem@CPythonPlayer@@QAEXXZ		; CPythonPlayer::PickCloseItem
PUBLIC	?__GetPickableDistance@CPythonPlayer@@IAEKXZ	; CPythonPlayer::__GetPickableDistance
PUBLIC	?GetNormalBowAttackFlyEventHandler@CPythonPlayerEventHandler@@QAEPAVIFlyEventHandler@@PAVCInstanceBase@@0@Z ; CPythonPlayerEventHandler::GetNormalBowAttackFlyEventHandler
PUBLIC	?__ClearAutoAttackTargetActorID@CPythonPlayer@@QAEXXZ ; CPythonPlayer::__ClearAutoAttackTargetActorID
PUBLIC	?__ReserveClickActor@CPythonPlayer@@IAEXK@Z	; CPythonPlayer::__ReserveClickActor
PUBLIC	?__IsSameTargetVID@CPythonPlayer@@IAE_NK@Z	; CPythonPlayer::__IsSameTargetVID
PUBLIC	?SetTarget@CPythonPlayer@@UAEXKH_N@Z		; CPythonPlayer::SetTarget
PUBLIC	?__GetAliveTargetInstancePtr@CPythonPlayer@@IAEPAVCInstanceBase@@XZ ; CPythonPlayer::__GetAliveTargetInstancePtr
PUBLIC	?__ClearReservedAction@CPythonPlayer@@IAEXXZ	; CPythonPlayer::__ClearReservedAction
PUBLIC	?SetMovableGroundDistance@CPythonPlayer@@QAEXM@Z ; CPythonPlayer::SetMovableGroundDistance
PUBLIC	?NEW_Stop@CPythonPlayer@@QAEXXZ			; CPythonPlayer::NEW_Stop
PUBLIC	?__ClearTarget@CPythonPlayer@@IAEXXZ		; CPythonPlayer::__ClearTarget
PUBLIC	?__GetTargetActorPtr@CPythonPlayer@@IAEPAVCInstanceBase@@XZ ; CPythonPlayer::__GetTargetActorPtr
PUBLIC	?__OnPressActor@CPythonPlayer@@IAEXAAVCInstanceBase@@K_N@Z ; CPythonPlayer::__OnPressActor
PUBLIC	?__ReserveProcess_ClickActor@CPythonPlayer@@IAEXXZ ; CPythonPlayer::__ReserveProcess_ClickActor
PUBLIC	?GetTargetVID@CPythonPlayer@@QAEKXZ		; CPythonPlayer::GetTargetVID
?vecDropSoundFileName@@3V?$array@U?$pair@KV?$basic_string@DU?$char_traits@D@std@@V?$allocator@D@2@@std@@@std@@$04@std@@B DB 08cH DUP (?) ; vecDropSoundFileName
?vecEffectList@@3V?$vector@V?$tuple@IPBDPBD_N@std@@V?$allocator@V?$tuple@IPBDPBD_N@std@@@2@@std@@B DB 0cH DUP (?) ; vecEffectList
?characterNameColors@@3V?$map@EV?$array@E$02@std@@U?$less@E@2@V?$allocator@U?$pair@$$CBEV?$array@E$02@std@@@std@@@2@@std@@B DQ 01H DUP (?) ; characterNameColors
?characterTitleColors@@3V?$map@EV?$array@E$02@std@@U?$less@E@2@V?$allocator@U?$pair@$$CBEV?$array@E$02@std@@@std@@@2@@std@@B DQ 01H DUP (?) ; characterTitleColors
?characterTitleSystemColors@@3V?$map@EV?$array@E$02@std@@U?$less@E@2@V?$allocator@U?$pair@$$CBEV?$array@E$02@std@@@std@@@2@@std@@B DQ 01H DUP (?) ; characterTitleSystemColors
?emotionIcons@@3V?$map@EPBDU?$less@E@std@@V?$allocator@U?$pair@$$CBEPBD@std@@@2@@std@@B DQ 01H DUP (?) ; emotionIcons
?skillIndexes@@3V?$map@EV?$map@EV?$vector@EV?$allocator@E@std@@@std@@U?$less@E@2@V?$allocator@U?$pair@$$CBEV?$vector@EV?$allocator@E@std@@@std@@@std@@@2@@std@@U?$less@E@2@V?$allocator@U?$pair@$$CBEV?$map@EV?$vector@EV?$allocator@E@std@@@std@@U?$less@E@2@V?$allocator@U?$pair@$$CBEV?$vector@EV?$allocator@E@std@@@std@@@std@@@2@@std@@@std@@@2@@std@@B DQ 01H DUP (?) ; skillIndexes
?guildSkills@@3V?$map@V?$basic_string@DU?$char_traits@D@std@@V?$allocator@D@2@@std@@V?$vector@EV?$allocator@E@std@@@2@U?$less@V?$basic_string@DU?$char_traits@D@std@@V?$allocator@D@2@@std@@@2@V?$allocator@U?$pair@$$CBV?$basic_string@DU?$char_traits@D@std@@V?$allocator@D@2@@std@@V?$vector@EV?$allocator@E@std@@@2@@std@@@2@@std@@B DQ 01H DUP (?) ; guildSkills
_BSS	ENDS
;	COMDAT xdata$x
xdata$x	SEGMENT
__ehfuncinfo$??__EvecUseSoundFileName@@YAXXZ DQ 00000000619930522r ; 1.2944e-313
	DD	FLAT:__unwindtable$??__EvecUseSoundFileName@@YAXXZ
	DQ	00000000000000000r		; 0
	DQ	00000000000000000r		; 0
	DQ	00000000100000000r		; 2.122e-314
__unwindtable$??__EvecUseSoundFileName@@YAXXZ DD 0ffffffffH
	DD	FLAT:__unwindfunclet$??__EvecUseSoundFileName@@YAXXZ$0
	DD	00H
	DD	FLAT:__unwindfunclet$??__EvecUseSoundFileName@@YAXXZ$1
	DD	01H
	DD	FLAT:__unwindfunclet$??__EvecUseSoundFileName@@YAXXZ$2
	DD	02H
	DD	FLAT:__unwindfunclet$??__EvecUseSoundFileName@@YAXXZ$3
	DD	03H
	DD	FLAT:__unwindfunclet$??__EvecUseSoundFileName@@YAXXZ$4
	DD	04H
	DD	FLAT:__unwindfunclet$??__EvecUseSoundFileName@@YAXXZ$5
xdata$x	ENDS
;	COMDAT xdata$x
xdata$x	SEGMENT
__ehfuncinfo$??__FvecUseSoundFileName@@YAXXZ DQ 00000000119930522r ; 2.33398e-314
	DD	FLAT:__unwindtable$??__FvecUseSoundFileName@@YAXXZ
	DQ	00000000000000000r		; 0
	DQ	00000000000000000r		; 0
	DQ	00000000100000000r		; 2.122e-314
__unwindtable$??__FvecUseSoundFileName@@YAXXZ DD 0ffffffffH
	DD	FLAT:___std_terminate
xdata$x	ENDS
;	COMDAT xdata$x
xdata$x	SEGMENT
__ehfuncinfo$??__EvecDropSoundFileName@@YAXXZ DQ 00000000419930522r ; 8.69997e-314
	DD	FLAT:__unwindtable$??__EvecDropSoundFileName@@YAXXZ
	DQ	00000000000000000r		; 0
	DQ	00000000000000000r		; 0
	DQ	00000000100000000r		; 2.122e-314
__unwindtable$??__EvecDropSoundFileName@@YAXXZ DD 0ffffffffH
	DD	FLAT:__unwindfunclet$??__EvecDropSoundFileName@@YAXXZ$0
	DD	00H
	DD	FLAT:__unwindfunclet$??__EvecDropSoundFileName@@YAXXZ$1
	DD	01H
	DD	FLAT:__unwindfunclet$??__EvecDropSoundFileName@@YAXXZ$2
	DD	02H
	DD	FLAT:__unwindfunclet$??__EvecDropSoundFileName@@YAXXZ$3
xdata$x	ENDS
;	COMDAT xdata$x
xdata$x	SEGMENT
__ehfuncinfo$??__FvecDropSoundFileName@@YAXXZ DQ 00000000119930522r ; 2.33398e-314
	DD	FLAT:__unwindtable$??__FvecDropSoundFileName@@YAXXZ
	DQ	00000000000000000r		; 0
	DQ	00000000000000000r		; 0
	DQ	00000000100000000r		; 2.122e-314
__unwindtable$??__FvecDropSoundFileName@@YAXXZ DD 0ffffffffH
	DD	FLAT:___std_terminate
xdata$x	ENDS
;	COMDAT xdata$x
xdata$x	SEGMENT
__ehfuncinfo$??__EskillIndexes@@YAXXZ DQ 00000002819930522r ; 8.50918e-313
	DD	FLAT:__unwindtable$??__EskillIndexes@@YAXXZ
	DQ	00000000000000000r		; 0
	DQ	00000000000000000r		; 0
	DQ	00000000100000000r		; 2.122e-314
	ORG $+4
__unwindtable$??__EskillIndexes@@YAXXZ DD 0ffffffffH
	DD	FLAT:__unwindfunclet$??__EskillIndexes@@YAXXZ$0
	DD	00H
	DD	FLAT:__unwindfunclet$??__EskillIndexes@@YAXXZ$1
	DD	01H
	DD	FLAT:__unwindfunclet$??__EskillIndexes@@YAXXZ$2
	DD	00H
	DD	FLAT:__unwindfunclet$??__EskillIndexes@@YAXXZ$2
	DD	03H
	DD	FLAT:__unwindfunclet$??__EskillIndexes@@YAXXZ$4
	DD	04H
	DD	FLAT:__unwindfunclet$??__EskillIndexes@@YAXXZ$5
	DD	05H
	DD	FLAT:__unwindfunclet$??__EskillIndexes@@YAXXZ$6
	DD	06H
	DD	FLAT:__unwindfunclet$??__EskillIndexes@@YAXXZ$7
	DD	07H
	DD	FLAT:__unwindfunclet$??__EskillIndexes@@YAXXZ$8
	DD	08H
	DD	FLAT:__unwindfunclet$??__EskillIndexes@@YAXXZ$9
	DD	07H
	DD	FLAT:__unwindfunclet$??__EskillIndexes@@YAXXZ$9
	DD	0aH
	DD	FLAT:__unwindfunclet$??__EskillIndexes@@YAXXZ$11
	DD	0bH
	DD	FLAT:__unwindfunclet$??__EskillIndexes@@YAXXZ$12
	DD	0cH
	DD	FLAT:__unwindfunclet$??__EskillIndexes@@YAXXZ$13
	DD	0dH
	DD	FLAT:__unwindfunclet$??__EskillIndexes@@YAXXZ$14
	DD	0eH
	DD	FLAT:__unwindfunclet$??__EskillIndexes@@YAXXZ$15
	DD	0fH
	DD	FLAT:__unwindfunclet$??__EskillIndexes@@YAXXZ$16
	DD	0eH
	DD	FLAT:__unwindfunclet$??__EskillIndexes@@YAXXZ$16
	DD	011H
	DD	FLAT:__unwindfunclet$??__EskillIndexes@@YAXXZ$18
	DD	012H
	DD	FLAT:__unwindfunclet$??__EskillIndexes@@YAXXZ$19
	DD	013H
	DD	FLAT:__unwindfunclet$??__EskillIndexes@@YAXXZ$20
	DD	014H
	DD	FLAT:__unwindfunclet$??__EskillIndexes@@YAXXZ$21
	DD	015H
	DD	FLAT:__unwindfunclet$??__EskillIndexes@@YAXXZ$22
	DD	016H
	DD	FLAT:__unwindfunclet$??__EskillIndexes@@YAXXZ$23
	DD	015H
	DD	FLAT:__unwindfunclet$??__EskillIndexes@@YAXXZ$23
	DD	018H
	DD	FLAT:__unwindfunclet$??__EskillIndexes@@YAXXZ$25
	DD	019H
	DD	FLAT:__unwindfunclet$??__EskillIndexes@@YAXXZ$26
	DD	05H
	DD	FLAT:__unwindfunclet$??__EskillIndexes@@YAXXZ$7
	DD	01bH
	DD	FLAT:__unwindfunclet$??__EskillIndexes@@YAXXZ$9
	DD	01cH
	DD	FLAT:__unwindfunclet$??__EskillIndexes@@YAXXZ$11
	DD	01dH
	DD	FLAT:__unwindfunclet$??__EskillIndexes@@YAXXZ$12
	DD	01eH
	DD	FLAT:__unwindfunclet$??__EskillIndexes@@YAXXZ$14
	DD	01fH
	DD	FLAT:__unwindfunclet$??__EskillIndexes@@YAXXZ$16
	DD	020H
	DD	FLAT:__unwindfunclet$??__EskillIndexes@@YAXXZ$18
	DD	021H
	DD	FLAT:__unwindfunclet$??__EskillIndexes@@YAXXZ$19
	DD	022H
	DD	FLAT:__unwindfunclet$??__EskillIndexes@@YAXXZ$21
	DD	023H
	DD	FLAT:__unwindfunclet$??__EskillIndexes@@YAXXZ$23
	DD	024H
	DD	FLAT:__unwindfunclet$??__EskillIndexes@@YAXXZ$25
	DD	025H
	DD	FLAT:__unwindfunclet$??__EskillIndexes@@YAXXZ$26
	DD	026H
	DD	FLAT:__unwindfunclet$??__EskillIndexes@@YAXXZ$28
xdata$x	ENDS
;	COMDAT xdata$x
xdata$x	SEGMENT
__ehfuncinfo$??__EguildSkills@@YAXXZ DQ 00000000a19930522r ; 2.14319e-313
	DD	FLAT:__unwindtable$??__EguildSkills@@YAXXZ
	DQ	00000000000000000r		; 0
	DQ	00000000000000000r		; 0
	DQ	00000000100000000r		; 2.122e-314
	ORG $+4
__unwindtable$??__EguildSkills@@YAXXZ DD 0ffffffffH
	DD	FLAT:__unwindfunclet$??__EguildSkills@@YAXXZ$0
	DD	00H
	DD	FLAT:__unwindfunclet$??__EguildSkills@@YAXXZ$1
	DD	01H
	DD	FLAT:__unwindfunclet$??__EguildSkills@@YAXXZ$10
	DD	01H
	DD	FLAT:__unwindfunclet$??__EguildSkills@@YAXXZ$2
	DD	03H
	DD	FLAT:__unwindfunclet$??__EguildSkills@@YAXXZ$3
	DD	04H
	DD	FLAT:__unwindfunclet$??__EguildSkills@@YAXXZ$4
	DD	05H
	DD	FLAT:__unwindfunclet$??__EguildSkills@@YAXXZ$16
	DD	01H
	DD	FLAT:__unwindfunclet$??__EguildSkills@@YAXXZ$3
	DD	07H
	DD	FLAT:__unwindfunclet$??__EguildSkills@@YAXXZ$4
	DD	08H
	DD	FLAT:__unwindfunclet$??__EguildSkills@@YAXXZ$6
xdata$x	ENDS
;	COMDAT xdata$x
xdata$x	SEGMENT
__ehfuncinfo$?PickCloseItemVector@CPythonPlayer@@QAEXXZ DQ 00000000219930522r ; 4.45598e-314
	DD	FLAT:__unwindtable$?PickCloseItemVector@CPythonPlayer@@QAEXXZ
	DQ	00000000000000000r		; 0
	DQ	00000000000000000r		; 0
	DQ	00000000100000000r		; 2.122e-314
__unwindtable$?PickCloseItemVector@CPythonPlayer@@QAEXXZ DD 0ffffffffH
	DD	FLAT:__unwindfunclet$?PickCloseItemVector@CPythonPlayer@@QAEXXZ$0
	DD	00H
	DD	FLAT:__unwindfunclet$?PickCloseItemVector@CPythonPlayer@@QAEXXZ$1
xdata$x	ENDS
;	COMDAT xdata$x
xdata$x	SEGMENT
__ehfuncinfo$?PickCloseItemAutoVector@CPythonPlayer@@QAEXXZ DQ 00000000219930522r ; 4.45598e-314
	DD	FLAT:__unwindtable$?PickCloseItemAutoVector@CPythonPlayer@@QAEXXZ
	DQ	00000000000000000r		; 0
	DQ	00000000000000000r		; 0
	DQ	00000000100000000r		; 2.122e-314
__unwindtable$?PickCloseItemAutoVector@CPythonPlayer@@QAEXXZ DD 0ffffffffH
	DD	FLAT:__unwindfunclet$?PickCloseItemAutoVector@CPythonPlayer@@QAEXXZ$0
	DD	00H
	DD	FLAT:__unwindfunclet$?PickCloseItemAutoVector@CPythonPlayer@@QAEXXZ$1
	ORG $+4
?vecUseSoundFileName@@3V?$array@U?$pair@KV?$basic_string@DU?$char_traits@D@std@@V?$allocator@D@2@@std@@@std@@$06@std@@B DQ 00000000000000001r ; 4.94066e-324 ; vecUseSoundFileName
	DQ	00000000000000000r		; 0
	DQ	00000000000000000r		; 0
	DQ	00000000000000000r		; 0
	DQ	00000000000000000r		; 0
	DQ	00000000000000000r		; 0
	DQ	00000000000000000r		; 0
	DQ	00000000000000000r		; 0
	DQ	00000000000000000r		; 0
	DQ	00000000000000000r		; 0
	DQ	00000000000000000r		; 0
	DQ	00000000000000000r		; 0
	DQ	00000000000000000r		; 0
	DQ	00000000000000000r		; 0
	DQ	00000000000000000r		; 0
	DQ	00000000000000000r		; 0
	DQ	00000000000000000r		; 0
	DQ	00000000000000000r		; 0
	DQ	00000000000000000r		; 0
	DQ	00000000000000000r		; 0
	DQ	00000000000000000r		; 0
	DQ	00000000000000000r		; 0
	DQ	00000000000000000r		; 0
	DQ	00000000000000000r		; 0
	DD	00H
?vecUseSoundFileName$initializer$@@3P6AXXZA DD FLAT:??__EvecUseSoundFileName@@YAXXZ ; vecUseSoundFileName$initializer$
?vecDropSoundFileName$initializer$@@3P6AXXZA DD FLAT:??__EvecDropSoundFileName@@YAXXZ ; vecDropSoundFileName$initializer$
?vecEffectList$initializer$@@3P6AXXZA DD FLAT:??__EvecEffectList@@YAXXZ ; vecEffectList$initializer$
?characterNameColors$initializer$@@3P6AXXZA DD FLAT:??__EcharacterNameColors@@YAXXZ ; characterNameColors$initializer$
?characterTitleColors$initializer$@@3P6AXXZA DD FLAT:??__EcharacterTitleColors@@YAXXZ ; characterTitleColors$initializer$
?characterTitleSystemColors$initializer$@@3P6AXXZA DD FLAT:??__EcharacterTitleSystemColors@@YAXXZ ; characterTitleSystemColors$initializer$
?emotionIcons$initializer$@@3P6AXXZA DD FLAT:??__EemotionIcons@@YAXXZ ; emotionIcons$initializer$
?skillIndexes$initializer$@@3P6AXXZA DD FLAT:??__EskillIndexes@@YAXXZ ; skillIndexes$initializer$
?guildSkills$initializer$@@3P6AXXZA DD FLAT:??__EguildSkills@@YAXXZ ; guildSkills$initializer$
; Function compile flags: /Ogtp
; File C:\Anka2Project\Anka2Project\Source\Binary\source\UserInterface\PythonPlayerInput.cpp
;	COMDAT ?__ReserveProcess_ClickActor@CPythonPlayer@@IAEXXZ
_TEXT	SEGMENT
_this$1$ = -8						; size = 4
tv274 = -4						; size = 4
?__ReserveProcess_ClickActor@CPythonPlayer@@IAEXXZ PROC	; CPythonPlayer::__ReserveProcess_ClickActor, COMDAT
; _this$ = ecx

; 916  : {

  00000	55		 push	 ebp
  00001	8b ec		 mov	 ebp, esp
  00003	83 ec 0c	 sub	 esp, 12			; 0000000cH
  00006	53		 push	 ebx
  00007	56		 push	 esi
  00008	8b f1		 mov	 esi, ecx

; 917  : 	CInstanceBase* pkInstMain = NEW_GetMainActorPtr();

  0000a	8b 46 04	 mov	 eax, DWORD PTR [esi+4]
  0000d	8d 4e 04	 lea	 ecx, DWORD PTR [esi+4]
  00010	57		 push	 edi
  00011	89 75 f8	 mov	 DWORD PTR _this$1$[ebp], esi
  00014	89 4d fc	 mov	 DWORD PTR tv274[ebp], ecx
  00017	ff 90 8c 00 00
	00		 call	 DWORD PTR [eax+140]

; 918  : 	CInstanceBase* pkInstReserved = NEW_FindActorPtr(m_dwVIDReserved);

  0001d	ff b6 e4 b2 01
	00		 push	 DWORD PTR [esi+111332]
  00023	8b d8		 mov	 ebx, eax
  00025	e8 00 00 00 00	 call	 ?NEW_FindActorPtr@CPythonPlayer@@QAEPAVCInstanceBase@@K@Z ; CPythonPlayer::NEW_FindActorPtr
  0002a	8b f8		 mov	 edi, eax

; 919  : 	if (!pkInstMain || !pkInstReserved)

  0002c	85 db		 test	 ebx, ebx
  0002e	0f 84 74 01 00
	00		 je	 $LN3@ReservePro
  00034	85 ff		 test	 edi, edi
  00036	0f 84 6c 01 00
	00		 je	 $LN3@ReservePro

; 920  : 	{
; 921  : 		__ClearReservedAction();
; 922  : 		return;
; 923  : 	}
; 924  : 
; 925  : 	if (!pkInstMain->NEW_IsClickableDistanceDestInstance(*pkInstReserved))

  0003c	57		 push	 edi
  0003d	8b cb		 mov	 ecx, ebx
  0003f	e8 00 00 00 00	 call	 ?NEW_IsClickableDistanceDestInstance@CInstanceBase@@QAEHAAV1@@Z ; CInstanceBase::NEW_IsClickableDistanceDestInstance
  00044	8b cb		 mov	 ecx, ebx
  00046	57		 push	 edi
  00047	85 c0		 test	 eax, eax
  00049	75 0c		 jne	 SHORT $LN4@ReservePro

; 926  : 	{
; 927  : 		pkInstMain->NEW_MoveToDestInstanceDirection(*pkInstReserved);

  0004b	e8 00 00 00 00	 call	 ?NEW_MoveToDestInstanceDirection@CInstanceBase@@QAEXAAV1@@Z ; CInstanceBase::NEW_MoveToDestInstanceDirection

; 986  : 	__ClearReservedAction();
; 987  : }

  00050	5f		 pop	 edi
  00051	5e		 pop	 esi
  00052	5b		 pop	 ebx
  00053	8b e5		 mov	 esp, ebp
  00055	5d		 pop	 ebp
  00056	c3		 ret	 0
$LN4@ReservePro:

; 928  : 		return;
; 929  : 	}
; 930  : 
; 931  : 	if (!pkInstMain->IsAttackableInstance(*pkInstReserved))

  00057	e8 00 00 00 00	 call	 ?IsAttackableInstance@CInstanceBase@@QAE_NAAV1@@Z ; CInstanceBase::IsAttackableInstance
  0005c	84 c0		 test	 al, al
  0005e	75 1d		 jne	 SHORT $LN5@ReservePro

; 932  : 	{
; 933  : 		pkInstMain->NEW_Stop();

  00060	8b cb		 mov	 ecx, ebx
  00062	e8 00 00 00 00	 call	 ?NEW_Stop@CInstanceBase@@QAEXXZ ; CInstanceBase::NEW_Stop

; 934  : 		__SendClickActorPacket(*pkInstReserved);

  00067	57		 push	 edi
  00068	8b ce		 mov	 ecx, esi
  0006a	e8 00 00 00 00	 call	 ?__SendClickActorPacket@CPythonPlayer@@IAEXAAVCInstanceBase@@@Z ; CPythonPlayer::__SendClickActorPacket

; 986  : 	__ClearReservedAction();
; 987  : }

  0006f	8b ce		 mov	 ecx, esi
  00071	e8 00 00 00 00	 call	 ?__ClearReservedAction@CPythonPlayer@@IAEXXZ ; CPythonPlayer::__ClearReservedAction
  00076	5f		 pop	 edi
  00077	5e		 pop	 esi
  00078	5b		 pop	 ebx
  00079	8b e5		 mov	 esp, ebp
  0007b	5d		 pop	 ebp
  0007c	c3		 ret	 0
$LN5@ReservePro:

; 935  : 		__ClearReservedAction();
; 936  : 		return;
; 937  : 	}
; 938  : 
; 939  : 	if (pkInstReserved->IsDead())

  0007d	8b cf		 mov	 ecx, edi
  0007f	e8 00 00 00 00	 call	 ?IsDead@CInstanceBase@@QAEHXZ ; CInstanceBase::IsDead
  00084	85 c0		 test	 eax, eax
  00086	0f 85 1c 01 00
	00		 jne	 $LN3@ReservePro

; 940  : 	{
; 941  : 		__ClearReservedAction();
; 942  : 		return;
; 943  : 	}
; 944  : 
; 945  : 	if (pkInstMain->IsInSafe())

  0008c	8b cb		 mov	 ecx, ebx
  0008e	e8 00 00 00 00	 call	 ?IsInSafe@CInstanceBase@@QAEHXZ ; CInstanceBase::IsInSafe
  00093	85 c0		 test	 eax, eax
  00095	74 43		 je	 SHORT $LN7@ReservePro

; 946  : 	{
; 947  : 		PyCallClassMemberFunc(m_ppyGameWindow, "OnCannotAttack", Py_BuildValue("(is)", GetMainCharacterIndex(), "IN_SAFE"));

  00097	8b 46 04	 mov	 eax, DWORD PTR [esi+4]
  0009a	8d 4e 04	 lea	 ecx, DWORD PTR [esi+4]
  0009d	68 00 00 00 00	 push	 OFFSET ??_C@_07OAOBINCH@IN_SAFE@
  000a2	ff 50 04	 call	 DWORD PTR [eax+4]
  000a5	50		 push	 eax
  000a6	68 00 00 00 00	 push	 OFFSET ??_C@_04JMLDJNEM@?$CIis?$CJ@
  000ab	ff 15 00 00 00
	00		 call	 DWORD PTR __imp__Py_BuildValue
  000b1	83 c4 0c	 add	 esp, 12			; 0000000cH
  000b4	50		 push	 eax
  000b5	68 00 00 00 00	 push	 OFFSET ??_C@_0P@BFHKDLNH@OnCannotAttack@
$LN15@ReservePro:

; 986  : 	__ClearReservedAction();
; 987  : }

  000ba	ff 76 08	 push	 DWORD PTR [esi+8]
  000bd	e8 00 00 00 00	 call	 ?PyCallClassMemberFunc@@YA_NPAU_object@@PBD0@Z ; PyCallClassMemberFunc
  000c2	83 c4 0c	 add	 esp, 12			; 0000000cH
  000c5	8b cb		 mov	 ecx, ebx
  000c7	e8 00 00 00 00	 call	 ?NEW_Stop@CInstanceBase@@QAEXXZ ; CInstanceBase::NEW_Stop
  000cc	8b ce		 mov	 ecx, esi
  000ce	e8 00 00 00 00	 call	 ?__ClearReservedAction@CPythonPlayer@@IAEXXZ ; CPythonPlayer::__ClearReservedAction
  000d3	5f		 pop	 edi
  000d4	5e		 pop	 esi
  000d5	5b		 pop	 ebx
  000d6	8b e5		 mov	 esp, ebp
  000d8	5d		 pop	 ebp
  000d9	c3		 ret	 0
$LN7@ReservePro:

; 948  : 		pkInstMain->NEW_Stop();
; 949  : 		__ClearReservedAction();
; 950  : 		return;
; 951  : 	}
; 952  : 
; 953  : 	if (pkInstReserved->IsInSafe())

  000da	8b cf		 mov	 ecx, edi
  000dc	e8 00 00 00 00	 call	 ?IsInSafe@CInstanceBase@@QAEHXZ ; CInstanceBase::IsInSafe
  000e1	85 c0		 test	 eax, eax
  000e3	74 43		 je	 SHORT $LN8@ReservePro

; 954  : 	{
; 955  : 		PyCallClassMemberFunc(m_ppyGameWindow, "OnCannotAttack", Py_BuildValue("(is)", GetMainCharacterIndex(), "DEST_IN_SAFE"));

  000e5	8b 46 04	 mov	 eax, DWORD PTR [esi+4]
  000e8	8d 4e 04	 lea	 ecx, DWORD PTR [esi+4]
  000eb	68 00 00 00 00	 push	 OFFSET ??_C@_0N@KDALDMKB@DEST_IN_SAFE@
  000f0	ff 50 04	 call	 DWORD PTR [eax+4]
  000f3	50		 push	 eax
  000f4	68 00 00 00 00	 push	 OFFSET ??_C@_04JMLDJNEM@?$CIis?$CJ@
  000f9	ff 15 00 00 00
	00		 call	 DWORD PTR __imp__Py_BuildValue
  000ff	83 c4 0c	 add	 esp, 12			; 0000000cH
  00102	50		 push	 eax
  00103	68 00 00 00 00	 push	 OFFSET ??_C@_0P@BFHKDLNH@OnCannotAttack@
  00108	ff 76 08	 push	 DWORD PTR [esi+8]
  0010b	e8 00 00 00 00	 call	 ?PyCallClassMemberFunc@@YA_NPAU_object@@PBD0@Z ; PyCallClassMemberFunc
  00110	83 c4 0c	 add	 esp, 12			; 0000000cH

; 956  : 		pkInstMain->NEW_Stop();

  00113	8b cb		 mov	 ecx, ebx
  00115	e8 00 00 00 00	 call	 ?NEW_Stop@CInstanceBase@@QAEXXZ ; CInstanceBase::NEW_Stop

; 986  : 	__ClearReservedAction();
; 987  : }

  0011a	8b ce		 mov	 ecx, esi
  0011c	e8 00 00 00 00	 call	 ?__ClearReservedAction@CPythonPlayer@@IAEXXZ ; CPythonPlayer::__ClearReservedAction
  00121	5f		 pop	 edi
  00122	5e		 pop	 esi
  00123	5b		 pop	 ebx
  00124	8b e5		 mov	 esp, ebp
  00126	5d		 pop	 ebp
  00127	c3		 ret	 0
$LN8@ReservePro:

; 957  : 		__ClearReservedAction();
; 958  : 		return;
; 959  : 	}
; 960  : 
; 961  : 	// 탄환? 쓰고 ?려가는 도중에는 공?하지 않는다.
; 962  : 	if (__CheckDashAffect(*pkInstMain))

  00128	53		 push	 ebx
  00129	e8 00 00 00 00	 call	 ?__CheckDashAffect@CPythonPlayer@@IAE_NAAVCInstanceBase@@@Z ; CPythonPlayer::__CheckDashAffect
  0012e	84 c0		 test	 al, al
  00130	75 7d		 jne	 SHORT $LN1@ReservePro

; 963  : 	{
; 964  : 		return;
; 965  : 	}
; 966  : 
; 967  : 	/////
; 968  : 
; 969  : 	if (pkInstMain->IsBowMode())

  00132	8b cb		 mov	 ecx, ebx
  00134	e8 00 00 00 00	 call	 ?IsBowMode@CInstanceBase@@QAEHXZ ; CInstanceBase::IsBowMode
  00139	85 c0		 test	 eax, eax
  0013b	74 33		 je	 SHORT $LN11@ReservePro

; 970  : 	{
; 971  : 		if (!__HasEnoughArrow())

  0013d	8b ce		 mov	 ecx, esi
  0013f	e8 00 00 00 00	 call	 ?__HasEnoughArrow@CPythonPlayer@@IAE_NXZ ; CPythonPlayer::__HasEnoughArrow
  00144	84 c0		 test	 al, al
  00146	75 28		 jne	 SHORT $LN11@ReservePro

; 972  : 		{
; 973  : 			PyCallClassMemberFunc(m_ppyGameWindow, "OnCannotShot", Py_BuildValue("(is)", GetMainCharacterIndex(), "EMPTY_ARROW"));

  00148	8b 46 04	 mov	 eax, DWORD PTR [esi+4]
  0014b	8d 4e 04	 lea	 ecx, DWORD PTR [esi+4]
  0014e	68 00 00 00 00	 push	 OFFSET ??_C@_0M@FBIHMJDM@EMPTY_ARROW@
  00153	ff 50 04	 call	 DWORD PTR [eax+4]
  00156	50		 push	 eax
  00157	68 00 00 00 00	 push	 OFFSET ??_C@_04JMLDJNEM@?$CIis?$CJ@
  0015c	ff 15 00 00 00
	00		 call	 DWORD PTR __imp__Py_BuildValue
  00162	83 c4 0c	 add	 esp, 12			; 0000000cH
  00165	50		 push	 eax
  00166	68 00 00 00 00	 push	 OFFSET ??_C@_0N@OPOOJDCJ@OnCannotShot@

; 974  : 			pkInstMain->NEW_Stop();
; 975  : 			__ClearReservedAction();
; 976  : 			return;

  0016b	e9 4a ff ff ff	 jmp	 $LN15@ReservePro
$LN11@ReservePro:

; 977  : 		}
; 978  : 	}
; 979  : 
; 980  : 	if (pkInstReserved->GetVirtualID() != GetTargetVID())

  00170	8b cf		 mov	 ecx, edi
  00172	e8 00 00 00 00	 call	 ?GetVirtualID@CInstanceBase@@QAEKXZ ; CInstanceBase::GetVirtualID
  00177	8b ce		 mov	 ecx, esi
  00179	8b d0		 mov	 edx, eax
  0017b	e8 00 00 00 00	 call	 ?GetTargetVID@CPythonPlayer@@QAEKXZ ; CPythonPlayer::GetTargetVID
  00180	3b d0		 cmp	 edx, eax
  00182	74 1c		 je	 SHORT $LN12@ReservePro

; 981  : 	{
; 982  : 		SetTarget(pkInstReserved->GetVirtualID());

  00184	8b 45 fc	 mov	 eax, DWORD PTR tv274[ebp]
  00187	8b cf		 mov	 ecx, edi
  00189	8b 00		 mov	 eax, DWORD PTR [eax]
  0018b	8b 70 68	 mov	 esi, DWORD PTR [eax+104]
  0018e	e8 00 00 00 00	 call	 ?GetVirtualID@CInstanceBase@@QAEKXZ ; CInstanceBase::GetVirtualID
  00193	8b 4d fc	 mov	 ecx, DWORD PTR tv274[ebp]
  00196	6a 00		 push	 0
  00198	6a 01		 push	 1
  0019a	50		 push	 eax
  0019b	ff d6		 call	 esi
  0019d	8b 75 f8	 mov	 esi, DWORD PTR _this$1$[ebp]
$LN12@ReservePro:

; 983  : 	}
; 984  : 
; 985  : 	pkInstMain->NEW_AttackToDestInstanceDirection(*pkInstReserved);

  001a0	57		 push	 edi
  001a1	8b cb		 mov	 ecx, ebx
  001a3	e8 00 00 00 00	 call	 ?NEW_AttackToDestInstanceDirection@CInstanceBase@@QAE_NAAV1@@Z ; CInstanceBase::NEW_AttackToDestInstanceDirection
$LN3@ReservePro:

; 986  : 	__ClearReservedAction();
; 987  : }

  001a8	8b ce		 mov	 ecx, esi
  001aa	e8 00 00 00 00	 call	 ?__ClearReservedAction@CPythonPlayer@@IAEXXZ ; CPythonPlayer::__ClearReservedAction
$LN1@ReservePro:
  001af	5f		 pop	 edi
  001b0	5e		 pop	 esi
  001b1	5b		 pop	 ebx
  001b2	8b e5		 mov	 esp, ebp
  001b4	5d		 pop	 ebp
  001b5	c3		 ret	 0
?__ReserveProcess_ClickActor@CPythonPlayer@@IAEXXZ ENDP	; CPythonPlayer::__ReserveProcess_ClickActor
_TEXT	ENDS
; Function compile flags: /Ogtp
; File C:\Anka2Project\Anka2Project\Source\Binary\source\UserInterface\PythonPlayerInput.cpp
; File C:\Anka2Project\Anka2Project\Source\Binary\source\eterBase\Singleton.h
; File C:\Anka2Project\Anka2Project\Source\Binary\source\UserInterface\PythonPlayerInput.cpp
; File C:\Anka2Project\Anka2Project\Source\Binary\source\eterBase\Singleton.h
; File C:\Anka2Project\Anka2Project\Source\Binary\source\UserInterface\PythonPlayerInput.cpp
; File C:\Anka2Project\Anka2Project\Source\Binary\source\UserInterface\PythonPlayerEventHandler.h
; File C:\Anka2Project\Anka2Project\Source\Binary\source\UserInterface\PythonPlayerInput.cpp
; File C:\Anka2Project\Anka2Project\Source\Binary\source\eterBase\Singleton.h
; File C:\Anka2Project\Anka2Project\Source\Binary\source\UserInterface\PythonPlayerInput.cpp
; File C:\Anka2Project\Anka2Project\Source\Binary\source\eterBase\Singleton.h
; File C:\Anka2Project\Anka2Project\Source\Binary\source\UserInterface\PythonPlayerInput.cpp
;	COMDAT ?SetTarget@CPythonPlayer@@UAEXKH_N@Z
_TEXT	SEGMENT
_dwCurrentTime$1$ = -4					; size = 4
_dwVID$ = 8						; size = 4
_pkInstTarget$1$ = 8					; size = 4
_bForceChange$ = 12					; size = 4
_isAutoAttack$ = 16					; size = 1
?SetTarget@CPythonPlayer@@UAEXKH_N@Z PROC		; CPythonPlayer::SetTarget, COMDAT
; _this$ = ecx

; 163  : {

  00000	55		 push	 ebp
  00001	8b ec		 mov	 ebp, esp
  00003	51		 push	 ecx
  00004	56		 push	 esi
  00005	57		 push	 edi
  00006	8b f9		 mov	 edi, ecx

; 164  : 	CInstanceBase * pkInstMain = NEW_GetMainActorPtr();

  00008	8b 07		 mov	 eax, DWORD PTR [edi]
  0000a	ff 90 8c 00 00
	00		 call	 DWORD PTR [eax+140]
  00010	8b f0		 mov	 esi, eax

; 165  : 	if (!pkInstMain)

  00012	85 f6		 test	 esi, esi
  00014	0f 84 b5 01 00
	00		 je	 $LN1@SetTarget

; 166  : 		return;
; 167  : 
; 168  : 	// 2004. 07. 07. [levites] - 스킬 사용중 타겟이 바뀌는 문제 해결을 위한 코드
; 169  : 	if (!pkInstMain->CanChangeTarget())

  0001a	8b ce		 mov	 ecx, esi
  0001c	e8 00 00 00 00	 call	 ?CanChangeTarget@CInstanceBase@@QAE_NXZ ; CInstanceBase::CanChangeTarget
  00021	84 c0		 test	 al, al
  00023	0f 84 a6 01 00
	00		 je	 $LN1@SetTarget
; File C:\Anka2Project\Anka2Project\Source\Binary\source\eterBase\Singleton.h

; 26   : 		assert(ms_singleton);

  00029	8b 0d 00 00 00
	00		 mov	 ecx, DWORD PTR ?ms_singleton@?$CSingleton@VCTimer@@@@0PAVCTimer@@A ; CSingleton<CTimer>::ms_singleton
  0002f	85 c9		 test	 ecx, ecx
  00031	75 1a		 jne	 SHORT $LN17@SetTarget
  00033	6a 1a		 push	 26			; 0000001aH
  00035	68 00 00 00 00	 push	 OFFSET ??_C@_1IO@CAJLEEOI@?$AAC?$AA?3?$AA?2?$AAA?$AAn?$AAk?$AAa?$AA2?$AAP?$AAr?$AAo?$AAj?$AAe?$AAc?$AAt@
  0003a	68 00 00 00 00	 push	 OFFSET ??_C@_1BK@FMEHPMFE@?$AAm?$AAs?$AA_?$AAs?$AAi?$AAn?$AAg?$AAl?$AAe?$AAt?$AAo?$AAn@
  0003f	e8 00 00 00 00	 call	 __wassert
  00044	8b 0d 00 00 00
	00		 mov	 ecx, DWORD PTR ?ms_singleton@?$CSingleton@VCTimer@@@@0PAVCTimer@@A ; CSingleton<CTimer>::ms_singleton
  0004a	83 c4 0c	 add	 esp, 12			; 0000000cH
$LN17@SetTarget:
  0004d	53		 push	 ebx
; File C:\Anka2Project\Anka2Project\Source\Binary\source\UserInterface\PythonPlayerInput.cpp

; 174  : 	DWORD dwCurrentTime = CTimer::Instance().GetCurrentMillisecond();

  0004e	e8 00 00 00 00	 call	 ?GetCurrentMillisecond@CTimer@@QAEKXZ ; CTimer::GetCurrentMillisecond

; 175  : 
; 176  : 	if (__IsSameTargetVID(dwVID))

  00053	ff 75 08	 push	 DWORD PTR _dwVID$[ebp]
  00056	8b d0		 mov	 edx, eax
  00058	8d 5f fc	 lea	 ebx, DWORD PTR [edi-4]
  0005b	8b cb		 mov	 ecx, ebx
  0005d	89 55 fc	 mov	 DWORD PTR _dwCurrentTime$1$[ebp], edx
  00060	e8 00 00 00 00	 call	 ?__IsSameTargetVID@CPythonPlayer@@IAE_NK@Z ; CPythonPlayer::__IsSameTargetVID
  00065	84 c0		 test	 al, al
  00067	74 38		 je	 SHORT $LN4@SetTarget

; 177  : 	{
; 178  : 		if (dwVID==pkInstMain->GetVirtualID())

  00069	8b ce		 mov	 ecx, esi
  0006b	e8 00 00 00 00	 call	 ?GetVirtualID@CInstanceBase@@QAEKXZ ; CInstanceBase::GetVirtualID
  00070	39 45 08	 cmp	 DWORD PTR _dwVID$[ebp], eax
  00073	75 15		 jne	 SHORT $LN5@SetTarget

; 179  : 		{
; 180  : 			__SetTargetVID(0);

  00075	6a 00		 push	 0
  00077	8b cb		 mov	 ecx, ebx
  00079	e8 00 00 00 00	 call	 ?__SetTargetVID@CPythonPlayer@@IAEXK@Z ; CPythonPlayer::__SetTargetVID

; 181  : 			
; 182  : 			pkInstMain->OnUntargeted();

  0007e	8b ce		 mov	 ecx, esi
  00080	e8 00 00 00 00	 call	 ?OnUntargeted@CInstanceBase@@QAEXXZ ; CInstanceBase::OnUntargeted

; 183  : 			pkInstMain->ClearFlyTargetInstance();
; 184  : 			CPythonNetworkStream::Instance().SendTargetPacket(0);
; 185  : 			return;

  00085	e9 12 01 00 00	 jmp	 $LN50@SetTarget
$LN5@SetTarget:

; 186  : 		}
; 187  : 		m_dwTargetEndTime = dwCurrentTime + 1000;

  0008a	8b 45 fc	 mov	 eax, DWORD PTR _dwCurrentTime$1$[ebp]
  0008d	05 e8 03 00 00	 add	 eax, 1000		; 000003e8H
  00092	5b		 pop	 ebx
  00093	89 87 88 b3 01
	00		 mov	 DWORD PTR [edi+111496], eax
  00099	5f		 pop	 edi

; 237  : 	
; 238  : }

  0009a	5e		 pop	 esi
  0009b	8b e5		 mov	 esp, ebp
  0009d	5d		 pop	 ebp
  0009e	c2 0c 00	 ret	 12			; 0000000cH
$LN4@SetTarget:

; 188  : 		return;
; 189  : 	}
; 190  : 
; 191  : 	if (bForceChange)

  000a1	83 7d 0c 00	 cmp	 DWORD PTR _bForceChange$[ebp], 0
  000a5	74 07		 je	 SHORT $LN6@SetTarget

; 192  : 	{
; 193  : 		m_dwTargetEndTime = dwCurrentTime + 2000;

  000a7	b8 d0 07 00 00	 mov	 eax, 2000		; 000007d0H

; 194  : 	}

  000ac	eb 11		 jmp	 SHORT $LN7@SetTarget
$LN6@SetTarget:

; 195  : 	else
; 196  : 	{
; 197  : 		if (m_dwTargetEndTime > dwCurrentTime)

  000ae	39 97 88 b3 01
	00		 cmp	 DWORD PTR [edi+111496], edx
  000b4	0f 87 14 01 00
	00		 ja	 $LN47@SetTarget

; 198  : 		{
; 199  : 			return;
; 200  : 		}
; 201  : 
; 202  : 		m_dwTargetEndTime = dwCurrentTime + 1000;

  000ba	b8 e8 03 00 00	 mov	 eax, 1000		; 000003e8H
$LN7@SetTarget:

; 203  : 	}
; 204  : 
; 205  : 	if (__IsTarget())

  000bf	03 c2		 add	 eax, edx
  000c1	89 87 88 b3 01
	00		 mov	 DWORD PTR [edi+111496], eax
  000c7	e8 00 00 00 00	 call	 ?__IsTarget@CPythonPlayer@@IAE_NXZ ; CPythonPlayer::__IsTarget
  000cc	84 c0		 test	 al, al
  000ce	74 10		 je	 SHORT $LN10@SetTarget

; 206  : 	{
; 207  : 		CInstanceBase * pTargetedInstance = __GetTargetActorPtr();

  000d0	e8 00 00 00 00	 call	 ?__GetTargetActorPtr@CPythonPlayer@@IAEPAVCInstanceBase@@XZ ; CPythonPlayer::__GetTargetActorPtr

; 208  : 		if (pTargetedInstance)

  000d5	85 c0		 test	 eax, eax
  000d7	74 07		 je	 SHORT $LN10@SetTarget

; 209  : 			pTargetedInstance->OnUntargeted();

  000d9	8b c8		 mov	 ecx, eax
  000db	e8 00 00 00 00	 call	 ?OnUntargeted@CInstanceBase@@QAEXXZ ; CInstanceBase::OnUntargeted
$LN10@SetTarget:
; File C:\Anka2Project\Anka2Project\Source\Binary\source\eterBase\Singleton.h

; 26   : 		assert(ms_singleton);

  000e0	8b 0d 00 00 00
	00		 mov	 ecx, DWORD PTR ?ms_singleton@?$CSingleton@VCPythonCharacterManager@@@@0PAVCPythonCharacterManager@@A ; CSingleton<CPythonCharacterManager>::ms_singleton
  000e6	85 c9		 test	 ecx, ecx
  000e8	75 1a		 jne	 SHORT $LN23@SetTarget
  000ea	6a 1a		 push	 26			; 0000001aH
  000ec	68 00 00 00 00	 push	 OFFSET ??_C@_1IO@CAJLEEOI@?$AAC?$AA?3?$AA?2?$AAA?$AAn?$AAk?$AAa?$AA2?$AAP?$AAr?$AAo?$AAj?$AAe?$AAc?$AAt@
  000f1	68 00 00 00 00	 push	 OFFSET ??_C@_1BK@FMEHPMFE@?$AAm?$AAs?$AA_?$AAs?$AAi?$AAn?$AAg?$AAl?$AAe?$AAt?$AAo?$AAn@
  000f6	e8 00 00 00 00	 call	 __wassert
  000fb	8b 0d 00 00 00
	00		 mov	 ecx, DWORD PTR ?ms_singleton@?$CSingleton@VCPythonCharacterManager@@@@0PAVCPythonCharacterManager@@A ; CSingleton<CPythonCharacterManager>::ms_singleton
  00101	83 c4 0c	 add	 esp, 12			; 0000000cH
$LN23@SetTarget:
; File C:\Anka2Project\Anka2Project\Source\Binary\source\UserInterface\PythonPlayerInput.cpp

; 213  : 	CInstanceBase * pkInstTarget = CPythonCharacterManager::Instance().GetInstancePtr(dwVID);

  00104	8b 41 04	 mov	 eax, DWORD PTR [ecx+4]
  00107	83 c1 04	 add	 ecx, 4
  0010a	8b 7d 08	 mov	 edi, DWORD PTR _dwVID$[ebp]
  0010d	57		 push	 edi
  0010e	ff 50 08	 call	 DWORD PTR [eax+8]
  00111	89 45 08	 mov	 DWORD PTR _pkInstTarget$1$[ebp], eax

; 214  : 	if (pkInstTarget)

  00114	85 c0		 test	 eax, eax
  00116	74 7b		 je	 SHORT $LN12@SetTarget

; 215  : 	{
; 216  : #ifdef __AUTO_HUNT__
; 217  : 		if (pkInstMain->IsTargetableInstance(*pkInstTarget) || isAutoAttack)

  00118	50		 push	 eax
  00119	e8 00 00 00 00	 call	 ?IsTargetableInstance@CInstanceBase@@QAE_NAAV1@@Z ; CInstanceBase::IsTargetableInstance
  0011e	84 c0		 test	 al, al
  00120	75 05		 jne	 SHORT $LN13@SetTarget
  00122	38 45 10	 cmp	 BYTE PTR _isAutoAttack$[ebp], al
  00125	74 6c		 je	 SHORT $LN12@SetTarget
$LN13@SetTarget:

; 218  : #else
; 219  : 		if (pkInstMain->IsTargetableInstance(*pkInstTarget))
; 220  : #endif
; 221  : 		{
; 222  : 			__SetTargetVID(dwVID);

  00127	57		 push	 edi
  00128	8b cb		 mov	 ecx, ebx
  0012a	e8 00 00 00 00	 call	 ?__SetTargetVID@CPythonPlayer@@IAEXK@Z ; CPythonPlayer::__SetTargetVID

; 223  : 			
; 224  : 			pkInstTarget->OnTargeted();

  0012f	8b 5d 08	 mov	 ebx, DWORD PTR _pkInstTarget$1$[ebp]
  00132	8b cb		 mov	 ecx, ebx
  00134	e8 00 00 00 00	 call	 ?OnTargeted@CInstanceBase@@QAEXXZ ; CInstanceBase::OnTargeted

; 225  : 			pkInstMain->SetFlyTargetInstance(*pkInstTarget);

  00139	53		 push	 ebx
  0013a	8b ce		 mov	 ecx, esi
  0013c	e8 00 00 00 00	 call	 ?SetFlyTargetInstance@CInstanceBase@@QAEXAAV1@@Z ; CInstanceBase::SetFlyTargetInstance

; 226  : 			pkInstMain->GetGraphicThingInstanceRef().SetFlyEventHandler(CPythonPlayerEventHandler::GetSingleton().GetNormalBowAttackFlyEventHandler(pkInstMain, pkInstTarget));

  00141	e8 00 00 00 00	 call	 ?GetSingleton@CPythonPlayerEventHandler@@SAAAV1@XZ ; CPythonPlayerEventHandler::GetSingleton
; File C:\Anka2Project\Anka2Project\Source\Binary\source\UserInterface\PythonPlayerEventHandler.h

; 81   : 				m_NormalBowAttack_FlyEventHandler_AutoClear.Set(this,pInstMain,pInstTarget);

  00146	53		 push	 ebx
  00147	56		 push	 esi
  00148	50		 push	 eax
  00149	8d 48 28	 lea	 ecx, DWORD PTR [eax+40]
  0014c	e8 00 00 00 00	 call	 ?Set@CNormalBowAttack_FlyEventHandler_AutoClear@CPythonPlayerEventHandler@@QAEXPAV2@PAVCInstanceBase@@1@Z ; CPythonPlayerEventHandler::CNormalBowAttack_FlyEventHandler_AutoClear::Set
; File C:\Anka2Project\Anka2Project\Source\Binary\source\UserInterface\PythonPlayerInput.cpp

; 226  : 			pkInstMain->GetGraphicThingInstanceRef().SetFlyEventHandler(CPythonPlayerEventHandler::GetSingleton().GetNormalBowAttackFlyEventHandler(pkInstMain, pkInstTarget));

  00151	51		 push	 ecx
  00152	8b ce		 mov	 ecx, esi
  00154	e8 00 00 00 00	 call	 ?GetGraphicThingInstanceRef@CInstanceBase@@QAEAAVCActorInstance@@XZ ; CInstanceBase::GetGraphicThingInstanceRef
  00159	8b c8		 mov	 ecx, eax
  0015b	e8 00 00 00 00	 call	 ?SetFlyEventHandler@CActorInstance@@QAEXPAVIFlyEventHandler@@@Z ; CActorInstance::SetFlyEventHandler
; File C:\Anka2Project\Anka2Project\Source\Binary\source\eterBase\Singleton.h

; 26   : 		assert(ms_singleton);

  00160	8b 0d 00 00 00
	00		 mov	 ecx, DWORD PTR ?ms_singleton@?$CSingleton@VCPythonNetworkStream@@@@0PAVCPythonNetworkStream@@A ; CSingleton<CPythonNetworkStream>::ms_singleton
  00166	85 c9		 test	 ecx, ecx
  00168	75 1a		 jne	 SHORT $LN28@SetTarget
  0016a	6a 1a		 push	 26			; 0000001aH
  0016c	68 00 00 00 00	 push	 OFFSET ??_C@_1IO@CAJLEEOI@?$AAC?$AA?3?$AA?2?$AAA?$AAn?$AAk?$AAa?$AA2?$AAP?$AAr?$AAo?$AAj?$AAe?$AAc?$AAt@
  00171	68 00 00 00 00	 push	 OFFSET ??_C@_1BK@FMEHPMFE@?$AAm?$AAs?$AA_?$AAs?$AAi?$AAn?$AAg?$AAl?$AAe?$AAt?$AAo?$AAn@
  00176	e8 00 00 00 00	 call	 __wassert
  0017b	8b 0d 00 00 00
	00		 mov	 ecx, DWORD PTR ?ms_singleton@?$CSingleton@VCPythonNetworkStream@@@@0PAVCPythonNetworkStream@@A ; CSingleton<CPythonNetworkStream>::ms_singleton
  00181	83 c4 0c	 add	 esp, 12			; 0000000cH
$LN28@SetTarget:
; File C:\Anka2Project\Anka2Project\Source\Binary\source\UserInterface\PythonPlayerInput.cpp

; 227  : 			CPythonNetworkStream::Instance().SendTargetPacket(dwVID);

  00184	57		 push	 edi

; 236  : 	CPythonNetworkStream::Instance().SendTargetPacket(0);

  00185	e8 00 00 00 00	 call	 ?SendTargetPacket@CPythonNetworkStream@@QAE_NK@Z ; CPythonNetworkStream::SendTargetPacket
  0018a	5b		 pop	 ebx
  0018b	5f		 pop	 edi

; 237  : 	
; 238  : }

  0018c	5e		 pop	 esi
  0018d	8b e5		 mov	 esp, ebp
  0018f	5d		 pop	 ebp
  00190	c2 0c 00	 ret	 12			; 0000000cH
$LN12@SetTarget:

; 228  : 
; 229  : 			return;
; 230  : 		}
; 231  : 	}
; 232  : 
; 233  : 	__SetTargetVID(0);

  00193	6a 00		 push	 0
  00195	8b cb		 mov	 ecx, ebx
  00197	e8 00 00 00 00	 call	 ?__SetTargetVID@CPythonPlayer@@IAEXK@Z ; CPythonPlayer::__SetTargetVID
$LN50@SetTarget:
; File C:\Anka2Project\Anka2Project\Source\Binary\source\eterBase\Singleton.h

; 26   : 		assert(ms_singleton);

  0019c	8b ce		 mov	 ecx, esi
  0019e	e8 00 00 00 00	 call	 ?ClearFlyTargetInstance@CInstanceBase@@QAEXXZ ; CInstanceBase::ClearFlyTargetInstance
  001a3	8b 0d 00 00 00
	00		 mov	 ecx, DWORD PTR ?ms_singleton@?$CSingleton@VCPythonNetworkStream@@@@0PAVCPythonNetworkStream@@A ; CSingleton<CPythonNetworkStream>::ms_singleton
  001a9	85 c9		 test	 ecx, ecx
  001ab	75 1a		 jne	 SHORT $LN31@SetTarget
  001ad	6a 1a		 push	 26			; 0000001aH
  001af	68 00 00 00 00	 push	 OFFSET ??_C@_1IO@CAJLEEOI@?$AAC?$AA?3?$AA?2?$AAA?$AAn?$AAk?$AAa?$AA2?$AAP?$AAr?$AAo?$AAj?$AAe?$AAc?$AAt@
  001b4	68 00 00 00 00	 push	 OFFSET ??_C@_1BK@FMEHPMFE@?$AAm?$AAs?$AA_?$AAs?$AAi?$AAn?$AAg?$AAl?$AAe?$AAt?$AAo?$AAn@
  001b9	e8 00 00 00 00	 call	 __wassert
  001be	8b 0d 00 00 00
	00		 mov	 ecx, DWORD PTR ?ms_singleton@?$CSingleton@VCPythonNetworkStream@@@@0PAVCPythonNetworkStream@@A ; CSingleton<CPythonNetworkStream>::ms_singleton
  001c4	83 c4 0c	 add	 esp, 12			; 0000000cH
$LN31@SetTarget:
; File C:\Anka2Project\Anka2Project\Source\Binary\source\UserInterface\PythonPlayerInput.cpp

; 236  : 	CPythonNetworkStream::Instance().SendTargetPacket(0);

  001c7	6a 00		 push	 0
  001c9	e8 00 00 00 00	 call	 ?SendTargetPacket@CPythonNetworkStream@@QAE_NK@Z ; CPythonNetworkStream::SendTargetPacket
$LN47@SetTarget:
  001ce	5b		 pop	 ebx
$LN1@SetTarget:
  001cf	5f		 pop	 edi

; 237  : 	
; 238  : }

  001d0	5e		 pop	 esi
  001d1	8b e5		 mov	 esp, ebp
  001d3	5d		 pop	 ebp
  001d4	c2 0c 00	 ret	 12			; 0000000cH
?SetTarget@CPythonPlayer@@UAEXKH_N@Z ENDP		; CPythonPlayer::SetTarget
_TEXT	ENDS
; Function compile flags: /Ogtp
; File C:\Anka2Project\Anka2Project\Source\Binary\source\UserInterface\PythonPlayerInput.cpp
; File C:\Anka2Project\Anka2Project\Source\Binary\source\eterBase\Singleton.h
; File C:\Anka2Project\Anka2Project\Source\Binary\source\UserInterface\PythonPlayerInput.cpp
; File C:\Anka2Project\Anka2Project\Source\Binary\source\eterBase\Singleton.h
; File C:\Anka2Project\Anka2Project\Source\Binary\source\UserInterface\PythonPlayerInput.cpp
;	COMDAT ?OpenCharacterMenu@CPythonPlayer@@QAEXK@Z
_TEXT	SEGMENT
_dwVictimActorID$ = 8					; size = 4
?OpenCharacterMenu@CPythonPlayer@@QAEXK@Z PROC		; CPythonPlayer::OpenCharacterMenu, COMDAT
; _this$ = ecx

; 292  : {

  00000	55		 push	 ebp
  00001	8b ec		 mov	 ebp, esp
  00003	53		 push	 ebx
  00004	8b d9		 mov	 ebx, ecx
; File C:\Anka2Project\Anka2Project\Source\Binary\source\eterBase\Singleton.h

; 26   : 		assert(ms_singleton);

  00006	8b 0d 00 00 00
	00		 mov	 ecx, DWORD PTR ?ms_singleton@?$CSingleton@VCPythonPlayer@@@@0PAVCPythonPlayer@@A ; CSingleton<CPythonPlayer>::ms_singleton
  0000c	85 c9		 test	 ecx, ecx
  0000e	75 1a		 jne	 SHORT $LN8@OpenCharac
  00010	6a 1a		 push	 26			; 0000001aH
  00012	68 00 00 00 00	 push	 OFFSET ??_C@_1IO@CAJLEEOI@?$AAC?$AA?3?$AA?2?$AAA?$AAn?$AAk?$AAa?$AA2?$AAP?$AAr?$AAo?$AAj?$AAe?$AAc?$AAt@
  00017	68 00 00 00 00	 push	 OFFSET ??_C@_1BK@FMEHPMFE@?$AAm?$AAs?$AA_?$AAs?$AAi?$AAn?$AAg?$AAl?$AAe?$AAt?$AAo?$AAn@
  0001c	e8 00 00 00 00	 call	 __wassert
  00021	8b 0d 00 00 00
	00		 mov	 ecx, DWORD PTR ?ms_singleton@?$CSingleton@VCPythonPlayer@@@@0PAVCPythonPlayer@@A ; CSingleton<CPythonPlayer>::ms_singleton
  00027	83 c4 0c	 add	 esp, 12			; 0000000cH
$LN8@OpenCharac:
; File C:\Anka2Project\Anka2Project\Source\Binary\source\UserInterface\PythonPlayerInput.cpp

; 293  : 	CInstanceBase * pkInstMain = CPythonPlayer::Instance().NEW_GetMainActorPtr();

  0002a	8b 41 04	 mov	 eax, DWORD PTR [ecx+4]
  0002d	83 c1 04	 add	 ecx, 4
  00030	ff 90 8c 00 00
	00		 call	 DWORD PTR [eax+140]

; 294  : 	if (!pkInstMain)

  00036	85 c0		 test	 eax, eax
  00038	74 7c		 je	 SHORT $LN1@OpenCharac
; File C:\Anka2Project\Anka2Project\Source\Binary\source\eterBase\Singleton.h

; 26   : 		assert(ms_singleton);

  0003a	8b 0d 00 00 00
	00		 mov	 ecx, DWORD PTR ?ms_singleton@?$CSingleton@VCPythonCharacterManager@@@@0PAVCPythonCharacterManager@@A ; CSingleton<CPythonCharacterManager>::ms_singleton
  00040	85 c9		 test	 ecx, ecx
  00042	75 1a		 jne	 SHORT $LN11@OpenCharac
  00044	6a 1a		 push	 26			; 0000001aH
  00046	68 00 00 00 00	 push	 OFFSET ??_C@_1IO@CAJLEEOI@?$AAC?$AA?3?$AA?2?$AAA?$AAn?$AAk?$AAa?$AA2?$AAP?$AAr?$AAo?$AAj?$AAe?$AAc?$AAt@
  0004b	68 00 00 00 00	 push	 OFFSET ??_C@_1BK@FMEHPMFE@?$AAm?$AAs?$AA_?$AAs?$AAi?$AAn?$AAg?$AAl?$AAe?$AAt?$AAo?$AAn@
  00050	e8 00 00 00 00	 call	 __wassert
  00055	8b 0d 00 00 00
	00		 mov	 ecx, DWORD PTR ?ms_singleton@?$CSingleton@VCPythonCharacterManager@@@@0PAVCPythonCharacterManager@@A ; CSingleton<CPythonCharacterManager>::ms_singleton
  0005b	83 c4 0c	 add	 esp, 12			; 0000000cH
$LN11@OpenCharac:
; File C:\Anka2Project\Anka2Project\Source\Binary\source\UserInterface\PythonPlayerInput.cpp

; 297  : 	CInstanceBase * pkInstTarget = CPythonCharacterManager::Instance().GetInstancePtr(dwVictimActorID);

  0005e	8b 41 04	 mov	 eax, DWORD PTR [ecx+4]
  00061	83 c1 04	 add	 ecx, 4
  00064	57		 push	 edi
  00065	ff 75 08	 push	 DWORD PTR _dwVictimActorID$[ebp]
  00068	ff 50 08	 call	 DWORD PTR [eax+8]
  0006b	8b f8		 mov	 edi, eax

; 298  : 	if (!pkInstTarget)

  0006d	85 ff		 test	 edi, edi
  0006f	74 44		 je	 SHORT $LN17@OpenCharac

; 299  : 		return;
; 300  : 
; 301  : 	if (!pkInstTarget->IsPC() && !pkInstTarget->IsBuilding())

  00071	8b cf		 mov	 ecx, edi
  00073	e8 00 00 00 00	 call	 ?IsPC@CInstanceBase@@QAEHXZ ; CInstanceBase::IsPC
  00078	85 c0		 test	 eax, eax
  0007a	75 0b		 jne	 SHORT $LN4@OpenCharac
  0007c	8b cf		 mov	 ecx, edi
  0007e	e8 00 00 00 00	 call	 ?IsBuilding@CInstanceBase@@QAEHXZ ; CInstanceBase::IsBuilding
  00083	85 c0		 test	 eax, eax
  00085	74 2e		 je	 SHORT $LN17@OpenCharac
$LN4@OpenCharac:
  00087	56		 push	 esi

; 302  : 		return;
; 303  : 
; 304  : //	if (pkInstMain == pkInstTarget)
; 305  : //		return;
; 306  : 
; 307  : 	PyCallClassMemberFunc(m_ppyGameWindow, "SetPCTargetBoard", Py_BuildValue("(is)", pkInstTarget->GetVirtualID(), pkInstTarget->GetNameString()));

  00088	8b cf		 mov	 ecx, edi
  0008a	e8 00 00 00 00	 call	 ?GetNameString@CInstanceBase@@QAEPBDXZ ; CInstanceBase::GetNameString
  0008f	8b f0		 mov	 esi, eax
  00091	e8 00 00 00 00	 call	 ?GetVirtualID@CInstanceBase@@QAEKXZ ; CInstanceBase::GetVirtualID
  00096	56		 push	 esi
  00097	50		 push	 eax
  00098	68 00 00 00 00	 push	 OFFSET ??_C@_04JMLDJNEM@?$CIis?$CJ@
  0009d	ff 15 00 00 00
	00		 call	 DWORD PTR __imp__Py_BuildValue
  000a3	50		 push	 eax
  000a4	68 00 00 00 00	 push	 OFFSET ??_C@_0BB@KPNAHCEN@SetPCTargetBoard@
  000a9	ff 73 08	 push	 DWORD PTR [ebx+8]
  000ac	e8 00 00 00 00	 call	 ?PyCallClassMemberFunc@@YA_NPAU_object@@PBD0@Z ; PyCallClassMemberFunc
  000b1	83 c4 18	 add	 esp, 24			; 00000018H
  000b4	5e		 pop	 esi
$LN17@OpenCharac:
  000b5	5f		 pop	 edi
$LN1@OpenCharac:
  000b6	5b		 pop	 ebx

; 308  : }

  000b7	5d		 pop	 ebp
  000b8	c2 04 00	 ret	 4
?OpenCharacterMenu@CPythonPlayer@@QAEXK@Z ENDP		; CPythonPlayer::OpenCharacterMenu
_TEXT	ENDS
; Function compile flags: /Ogtp
; File C:\Anka2Project\Anka2Project\Source\Binary\source\UserInterface\PythonPlayerInput.cpp
; File C:\Anka2Project\Anka2Project\Source\Binary\source\eterBase\Singleton.h
; File C:\Anka2Project\Anka2Project\Source\Binary\source\UserInterface\PythonPlayerInput.cpp
; File C:\Anka2Project\Anka2Project\Source\Binary\source\UserInterface\PythonApplication.h
; File C:\Anka2Project\Anka2Project\Source\Binary\source\UserInterface\PythonPlayerInput.cpp
; File C:\Program Files\Microsoft Visual Studio\2022\Community\VC\Tools\MSVC\14.44.35207\include\cmath
; File C:\Anka2Project\Anka2Project\Source\Binary\source\UserInterface\PythonPlayerInput.cpp
; File C:\Program Files\Microsoft Visual Studio\2022\Community\VC\Tools\MSVC\14.44.35207\include\cmath
; File C:\Anka2Project\Anka2Project\Source\Binary\source\UserInterface\PythonPlayerInput.cpp
;	COMDAT ?NEW_MoveToDirection@CPythonPlayer@@QAE_NM@Z
_TEXT	SEGMENT
_fCmrCurRot$4 = -20					; size = 4
_pkCmrCur$1$ = -16					; size = 4
_fElapsedTime$5 = -12					; size = 4
_fDirRot$1$ = -8					; size = 4
_fRotRat$1$ = -4					; size = 4
?NEW_MoveToDirection@CPythonPlayer@@QAE_NM@Z PROC	; CPythonPlayer::NEW_MoveToDirection, COMDAT
; _this$ = ecx
; _fDirRot$ = xmm1s

; 513  : {

  00000	53		 push	 ebx
  00001	8b dc		 mov	 ebx, esp
  00003	83 ec 08	 sub	 esp, 8
  00006	83 e4 f8	 and	 esp, -8			; fffffff8H
  00009	83 c4 04	 add	 esp, 4
  0000c	55		 push	 ebp
  0000d	8b 6b 04	 mov	 ebp, DWORD PTR [ebx+4]
  00010	89 6c 24 04	 mov	 DWORD PTR [esp+4], ebp
  00014	8b ec		 mov	 ebp, esp
  00016	83 ec 18	 sub	 esp, 24			; 00000018H
  00019	56		 push	 esi
  0001a	57		 push	 edi
  0001b	f3 0f 11 4d f8	 movss	 DWORD PTR _fDirRot$1$[ebp], xmm1
  00020	8b f1		 mov	 esi, ecx

; 514  : 	// PrivateShop
; 515  : 	if (IsOpenPrivateShop())

  00022	e8 00 00 00 00	 call	 ?IsOpenPrivateShop@CPythonPlayer@@QAE_NXZ ; CPythonPlayer::IsOpenPrivateShop
  00027	84 c0		 test	 al, al
  00029	0f 85 83 01 00
	00		 jne	 $LN24@NEW_MoveTo

; 516  : 		return true;
; 517  : 
; 518  : 	__ClearReservedAction();

  0002f	e8 00 00 00 00	 call	 ?__ClearReservedAction@CPythonPlayer@@IAEXXZ ; CPythonPlayer::__ClearReservedAction

; 519  : 
; 520  : 	CInstanceBase* pkInstMain=NEW_GetMainActorPtr();

  00034	8b 46 04	 mov	 eax, DWORD PTR [esi+4]
  00037	8d 4e 04	 lea	 ecx, DWORD PTR [esi+4]
  0003a	8b 80 8c 00 00
	00		 mov	 eax, DWORD PTR [eax+140]
  00040	ff d0		 call	 eax
  00042	8b f8		 mov	 edi, eax

; 521  : 	if (!pkInstMain)

  00044	85 ff		 test	 edi, edi
  00046	75 0b		 jne	 SHORT $LN3@NEW_MoveTo

; 522  : 		return false;

  00048	32 c0		 xor	 al, al

; 556  : 
; 557  : 	return true;
; 558  : }

  0004a	5f		 pop	 edi
  0004b	5e		 pop	 esi
  0004c	8b e5		 mov	 esp, ebp
  0004e	5d		 pop	 ebp
  0004f	8b e3		 mov	 esp, ebx
  00051	5b		 pop	 ebx
  00052	c3		 ret	 0
$LN3@NEW_MoveTo:

; 523  : 
; 524  : 	if (pkInstMain->isLock())

  00053	8b cf		 mov	 ecx, edi
  00055	e8 00 00 00 00	 call	 ?isLock@CInstanceBase@@QAEHXZ ; CInstanceBase::isLock
  0005a	85 c0		 test	 eax, eax
  0005c	74 0f		 je	 SHORT $LN5@NEW_MoveTo

; 525  : 		if (!pkInstMain->IsUsingMovingSkill())

  0005e	8b cf		 mov	 ecx, edi
  00060	e8 00 00 00 00	 call	 ?IsUsingMovingSkill@CInstanceBase@@QAEHXZ ; CInstanceBase::IsUsingMovingSkill
  00065	85 c0		 test	 eax, eax
  00067	0f 84 45 01 00
	00		 je	 $LN24@NEW_MoveTo
$LN5@NEW_MoveTo:
; File C:\Anka2Project\Anka2Project\Source\Binary\source\eterBase\Singleton.h

; 26   : 		assert(ms_singleton);

  0006d	8b 0d 00 00 00
	00		 mov	 ecx, DWORD PTR ?ms_singleton@?$CSingleton@VCCameraManager@@@@0PAVCCameraManager@@A ; CSingleton<CCameraManager>::ms_singleton
  00073	85 c9		 test	 ecx, ecx
  00075	75 1a		 jne	 SHORT $LN15@NEW_MoveTo
  00077	6a 1a		 push	 26			; 0000001aH
  00079	68 00 00 00 00	 push	 OFFSET ??_C@_1IO@CAJLEEOI@?$AAC?$AA?3?$AA?2?$AAA?$AAn?$AAk?$AAa?$AA2?$AAP?$AAr?$AAo?$AAj?$AAe?$AAc?$AAt@
  0007e	68 00 00 00 00	 push	 OFFSET ??_C@_1BK@FMEHPMFE@?$AAm?$AAs?$AA_?$AAs?$AAi?$AAn?$AAg?$AAl?$AAe?$AAt?$AAo?$AAn@
  00083	e8 00 00 00 00	 call	 __wassert
  00088	8b 0d 00 00 00
	00		 mov	 ecx, DWORD PTR ?ms_singleton@?$CSingleton@VCCameraManager@@@@0PAVCCameraManager@@A ; CSingleton<CCameraManager>::ms_singleton
  0008e	83 c4 0c	 add	 esp, 12			; 0000000cH
$LN15@NEW_MoveTo:
; File C:\Anka2Project\Anka2Project\Source\Binary\source\UserInterface\PythonPlayerInput.cpp

; 528  : 	CCamera* pkCmrCur=CCameraManager::Instance().GetCurrentCamera();

  00091	e8 00 00 00 00	 call	 ?GetCurrentCamera@CCameraManager@@QAEPAVCCamera@@XZ ; CCameraManager::GetCurrentCamera
  00096	89 45 f0	 mov	 DWORD PTR _pkCmrCur$1$[ebp], eax

; 529  : 	if (pkCmrCur)

  00099	85 c0		 test	 eax, eax
  0009b	0f 84 02 01 00
	00		 je	 $LN26@NEW_MoveTo

; 530  : 	{
; 531  : 		float fCmrCurRot=CameraRotationToCharacterRotation(pkCmrCur->GetRoll());

  000a1	f3 0f 10 80 30
	01 00 00	 movss	 xmm0, DWORD PTR [eax+304]
  000a9	51		 push	 ecx
  000aa	f3 0f 11 04 24	 movss	 DWORD PTR [esp], xmm0
  000af	e8 00 00 00 00	 call	 ?CameraRotationToCharacterRotation@@YAMM@Z ; CameraRotationToCharacterRotation

; 532  : 
; 533  : 		// 현재 
; 534  : 		if (m_isCmrRot)

  000b4	f3 0f 10 1d 00
	00 00 00	 movss	 xmm3, DWORD PTR __real@43b40000
  000bc	83 c4 04	 add	 esp, 4
  000bf	80 7e 66 00	 cmp	 BYTE PTR [esi+102], 0
  000c3	d9 5d ec	 fstp	 DWORD PTR _fCmrCurRot$4[ebp]
  000c6	0f 84 bf 00 00
	00		 je	 $LN7@NEW_MoveTo

; 535  : 		{
; 536  : 			float fSigDirRot=fDirRot;

  000cc	f3 0f 10 45 f8	 movss	 xmm0, DWORD PTR _fDirRot$1$[ebp]

; 537  : 			if (fSigDirRot>180.0f)

  000d1	f3 0f 10 15 00
	00 00 00	 movss	 xmm2, DWORD PTR __real@43340000
  000d9	0f 28 c8	 movaps	 xmm1, xmm0
  000dc	0f 2f c2	 comiss	 xmm0, xmm2
  000df	f3 0f 11 45 fc	 movss	 DWORD PTR _fRotRat$1$[ebp], xmm0
  000e4	76 09		 jbe	 SHORT $LN8@NEW_MoveTo

; 538  : 				fSigDirRot=fSigDirRot-360.0f;

  000e6	f3 0f 5c cb	 subss	 xmm1, xmm3
  000ea	f3 0f 11 4d fc	 movss	 DWORD PTR _fRotRat$1$[ebp], xmm1
$LN8@NEW_MoveTo:

; 539  : 
; 540  : 			float fRotRat=fSigDirRot;
; 541  : 			if (fRotRat>90.0f)

  000ef	0f 2f 0d 00 00
	00 00		 comiss	 xmm1, DWORD PTR __real@42b40000
  000f6	76 09		 jbe	 SHORT $LN9@NEW_MoveTo

; 542  : 				fRotRat=(180.0f-fRotRat);

  000f8	f3 0f 5c d1	 subss	 xmm2, xmm1
  000fc	0f 28 ca	 movaps	 xmm1, xmm2
  000ff	eb 1c		 jmp	 SHORT $LN27@NEW_MoveTo
$LN9@NEW_MoveTo:

; 543  : 			else if (fRotRat<-90.0f)

  00101	f3 0f 10 05 00
	00 00 00	 movss	 xmm0, DWORD PTR __real@c2b40000
  00109	0f 2f c1	 comiss	 xmm0, xmm1
  0010c	76 14		 jbe	 SHORT $LN11@NEW_MoveTo

; 544  : 				fRotRat=(-180.0f-fRotRat);

  0010e	f3 0f 10 05 00
	00 00 00	 movss	 xmm0, DWORD PTR __real@c3340000
  00116	f3 0f 5c c1	 subss	 xmm0, xmm1
  0011a	0f 28 c8	 movaps	 xmm1, xmm0
$LN27@NEW_MoveTo:
; File C:\Anka2Project\Anka2Project\Source\Binary\source\UserInterface\PythonApplication.h

; 213  : 			assert(ms_pInstance != nullptr);

  0011d	f3 0f 11 4d fc	 movss	 DWORD PTR _fRotRat$1$[ebp], xmm1
$LN11@NEW_MoveTo:
  00122	8b 0d 00 00 00
	00		 mov	 ecx, DWORD PTR ?ms_pInstance@CPythonApplication@@1PAV1@A ; CPythonApplication::ms_pInstance
  00128	85 c9		 test	 ecx, ecx
  0012a	75 1d		 jne	 SHORT $LN18@NEW_MoveTo
  0012c	68 d5 00 00 00	 push	 213			; 000000d5H
  00131	68 00 00 00 00	 push	 OFFSET ??_C@_1KI@NDOHEKDB@?$AAC?$AA?3?$AA?2?$AAA?$AAn?$AAk?$AAa?$AA2?$AAP?$AAr?$AAo?$AAj?$AAe?$AAc?$AAt@
  00136	68 00 00 00 00	 push	 OFFSET ??_C@_1DA@IANAENLC@?$AAm?$AAs?$AA_?$AAp?$AAI?$AAn?$AAs?$AAt?$AAa?$AAn?$AAc?$AAe?$AA?5?$AA?$CB?$AA?$DN@
  0013b	e8 00 00 00 00	 call	 __wassert
  00140	8b 0d 00 00 00
	00		 mov	 ecx, DWORD PTR ?ms_pInstance@CPythonApplication@@1PAV1@A ; CPythonApplication::ms_pInstance
  00146	83 c4 0c	 add	 esp, 12			; 0000000cH
$LN18@NEW_MoveTo:
; File C:\Anka2Project\Anka2Project\Source\Binary\source\UserInterface\PythonPlayerInput.cpp

; 546  : 			float fElapsedTime = CPythonApplication::Instance().GetGlobalElapsedTime();

  00149	8b 41 20	 mov	 eax, DWORD PTR [ecx+32]
  0014c	83 c1 20	 add	 ecx, 32			; 00000020H
  0014f	8b 40 0c	 mov	 eax, DWORD PTR [eax+12]
  00152	ff d0		 call	 eax

; 547  : 
; 548  : 			float fRotDeg = -m_fCmrRotSpd * fElapsedTime * fRotRat / 90.0f;

  00154	f3 0f 10 46 6c	 movss	 xmm0, DWORD PTR [esi+108]
  00159	0f 57 05 00 00
	00 00		 xorps	 xmm0, DWORD PTR __xmm@80000000800000008000000080000000
  00160	d9 5d f4	 fstp	 DWORD PTR _fElapsedTime$5[ebp]
  00163	f3 0f 59 45 f4	 mulss	 xmm0, DWORD PTR _fElapsedTime$5[ebp]

; 549  : 			pkCmrCur->Roll(fRotDeg);

  00168	51		 push	 ecx
  00169	8b 4d f0	 mov	 ecx, DWORD PTR _pkCmrCur$1$[ebp]
  0016c	f3 0f 59 45 fc	 mulss	 xmm0, DWORD PTR _fRotRat$1$[ebp]
  00171	f3 0f 5e 05 00
	00 00 00	 divss	 xmm0, DWORD PTR __real@42b40000
  00179	f3 0f 11 04 24	 movss	 DWORD PTR [esp], xmm0
  0017e	e8 00 00 00 00	 call	 ?Roll@CCamera@@QAEXM@Z	; CCamera::Roll
  00183	f3 0f 10 1d 00
	00 00 00	 movss	 xmm3, DWORD PTR __real@43b40000
$LN7@NEW_MoveTo:

; 552  : 		fDirRot=fmod(360.0f + fCmrCurRot + fDirRot, 360.0f);

  0018b	f3 0f 10 45 ec	 movss	 xmm0, DWORD PTR _fCmrCurRot$4[ebp]
; File C:\Program Files\Microsoft Visual Studio\2022\Community\VC\Tools\MSVC\14.44.35207\include\cmath

; 147  :     return _CSTD fmodf(_Xx, _Yx);

  00190	0f 28 cb	 movaps	 xmm1, xmm3
; File C:\Anka2Project\Anka2Project\Source\Binary\source\UserInterface\PythonPlayerInput.cpp

; 552  : 		fDirRot=fmod(360.0f + fCmrCurRot + fDirRot, 360.0f);

  00193	f3 0f 58 c3	 addss	 xmm0, xmm3
  00197	f3 0f 58 45 f8	 addss	 xmm0, DWORD PTR _fDirRot$1$[ebp]
; File C:\Program Files\Microsoft Visual Studio\2022\Community\VC\Tools\MSVC\14.44.35207\include\cmath

; 147  :     return _CSTD fmodf(_Xx, _Yx);

  0019c	e8 00 00 00 00	 call	 _fmodf
; File C:\Anka2Project\Anka2Project\Source\Binary\source\UserInterface\PythonPlayerInput.cpp

; 529  : 	if (pkCmrCur)

  001a1	eb 05		 jmp	 SHORT $LN6@NEW_MoveTo
$LN26@NEW_MoveTo:
  001a3	f3 0f 10 45 f8	 movss	 xmm0, DWORD PTR _fDirRot$1$[ebp]
$LN6@NEW_MoveTo:

; 553  : 	}
; 554  : 
; 555  : 	pkInstMain->NEW_MoveToDirection(fDirRot);

  001a8	0f 28 c8	 movaps	 xmm1, xmm0
  001ab	8b cf		 mov	 ecx, edi
  001ad	e8 00 00 00 00	 call	 ?NEW_MoveToDirection@CInstanceBase@@QAEXM@Z ; CInstanceBase::NEW_MoveToDirection
$LN24@NEW_MoveTo:

; 556  : 
; 557  : 	return true;
; 558  : }

  001b2	5f		 pop	 edi
  001b3	b0 01		 mov	 al, 1
  001b5	5e		 pop	 esi
  001b6	8b e5		 mov	 esp, ebp
  001b8	5d		 pop	 ebp
  001b9	8b e3		 mov	 esp, ebx
  001bb	5b		 pop	 ebx
  001bc	c3		 ret	 0
?NEW_MoveToDirection@CPythonPlayer@@QAE_NM@Z ENDP	; CPythonPlayer::NEW_MoveToDirection
_TEXT	ENDS
; Function compile flags: /Ogtp
; File C:\Anka2Project\Anka2Project\Source\Binary\source\UserInterface\PythonPlayerInput.cpp
; File C:\Anka2Project\Anka2Project\Source\Binary\source\eterBase\Singleton.h
; File C:\Anka2Project\Anka2Project\Source\Binary\source\UserInterface\PythonPlayerInput.cpp
; File C:\Anka2Project\Anka2Project\Source\Binary\source\eterBase\Singleton.h
; File C:\Anka2Project\Anka2Project\Source\Binary\source\UserInterface\PythonPlayerInput.cpp
;	COMDAT ?NEW_Fishing@CPythonPlayer@@QAEXXZ
_TEXT	SEGMENT
_irot$3 = -4						; size = 4
?NEW_Fishing@CPythonPlayer@@QAEXXZ PROC			; CPythonPlayer::NEW_Fishing, COMDAT
; _this$ = ecx

; 594  : {

  00000	55		 push	 ebp
  00001	8b ec		 mov	 ebp, esp
  00003	51		 push	 ecx
  00004	56		 push	 esi
  00005	57		 push	 edi
  00006	8b f9		 mov	 edi, ecx

; 595  : 	CInstanceBase* pkInstMain = NEW_GetMainActorPtr();

  00008	8b 47 04	 mov	 eax, DWORD PTR [edi+4]
  0000b	8d 4f 04	 lea	 ecx, DWORD PTR [edi+4]
  0000e	ff 90 8c 00 00
	00		 call	 DWORD PTR [eax+140]
  00014	8b f0		 mov	 esi, eax

; 596  : 	if (!pkInstMain)

  00016	85 f6		 test	 esi, esi
  00018	0f 84 a4 00 00
	00		 je	 $LN7@NEW_Fishin

; 597  : 		return;
; 598  : 
; 599  : 	if (pkInstMain->IsFishing())

  0001e	8b ce		 mov	 ecx, esi
  00020	e8 00 00 00 00	 call	 ?IsFishing@CInstanceBase@@QAEHXZ ; CInstanceBase::IsFishing
  00025	85 c0		 test	 eax, eax
  00027	74 31		 je	 SHORT $LN3@NEW_Fishin
; File C:\Anka2Project\Anka2Project\Source\Binary\source\eterBase\Singleton.h

; 26   : 		assert(ms_singleton);

  00029	8b 0d 00 00 00
	00		 mov	 ecx, DWORD PTR ?ms_singleton@?$CSingleton@VCPythonNetworkStream@@@@0PAVCPythonNetworkStream@@A ; CSingleton<CPythonNetworkStream>::ms_singleton
  0002f	85 c9		 test	 ecx, ecx
  00031	75 1a		 jne	 SHORT $LN11@NEW_Fishin
  00033	6a 1a		 push	 26			; 0000001aH
  00035	68 00 00 00 00	 push	 OFFSET ??_C@_1IO@CAJLEEOI@?$AAC?$AA?3?$AA?2?$AAA?$AAn?$AAk?$AAa?$AA2?$AAP?$AAr?$AAo?$AAj?$AAe?$AAc?$AAt@
  0003a	68 00 00 00 00	 push	 OFFSET ??_C@_1BK@FMEHPMFE@?$AAm?$AAs?$AA_?$AAs?$AAi?$AAn?$AAg?$AAl?$AAe?$AAt?$AAo?$AAn@
  0003f	e8 00 00 00 00	 call	 __wassert
  00044	8b 0d 00 00 00
	00		 mov	 ecx, DWORD PTR ?ms_singleton@?$CSingleton@VCPythonNetworkStream@@@@0PAVCPythonNetworkStream@@A ; CSingleton<CPythonNetworkStream>::ms_singleton
  0004a	83 c4 0c	 add	 esp, 12			; 0000000cH
$LN11@NEW_Fishin:
; File C:\Anka2Project\Anka2Project\Source\Binary\source\UserInterface\PythonPlayerInput.cpp

; 601  : 		CPythonNetworkStream::Instance().SendFishingPacket(0);

  0004d	6a 00		 push	 0
  0004f	e8 00 00 00 00	 call	 ?SendFishingPacket@CPythonNetworkStream@@QAE_NH@Z ; CPythonNetworkStream::SendFishingPacket

; 613  : 			}
; 614  : 		}
; 615  : 	}
; 616  : }

  00054	5f		 pop	 edi
  00055	5e		 pop	 esi
  00056	8b e5		 mov	 esp, ebp
  00058	5d		 pop	 ebp
  00059	c3		 ret	 0
$LN3@NEW_Fishin:

; 602  : 	}
; 603  : 	else
; 604  : 	{
; 605  : 		if (pkInstMain->CanFishing())

  0005a	8b ce		 mov	 ecx, esi
  0005c	e8 00 00 00 00	 call	 ?CanFishing@CInstanceBase@@QAE_NXZ ; CInstanceBase::CanFishing
  00061	84 c0		 test	 al, al
  00063	74 5d		 je	 SHORT $LN7@NEW_Fishin

; 606  : 		{
; 607  : 			int irot;
; 608  : 			if (pkInstMain->GetFishingRot(&irot))

  00065	8d 45 fc	 lea	 eax, DWORD PTR _irot$3[ebp]
  00068	8b ce		 mov	 ecx, esi
  0006a	50		 push	 eax
  0006b	e8 00 00 00 00	 call	 ?GetFishingRot@CInstanceBase@@QAEHPAH@Z ; CInstanceBase::GetFishingRot
  00070	85 c0		 test	 eax, eax
  00072	74 32		 je	 SHORT $LN6@NEW_Fishin
; File C:\Anka2Project\Anka2Project\Source\Binary\source\eterBase\Singleton.h

; 26   : 		assert(ms_singleton);

  00074	8b 0d 00 00 00
	00		 mov	 ecx, DWORD PTR ?ms_singleton@?$CSingleton@VCPythonNetworkStream@@@@0PAVCPythonNetworkStream@@A ; CSingleton<CPythonNetworkStream>::ms_singleton
  0007a	85 c9		 test	 ecx, ecx
  0007c	75 1a		 jne	 SHORT $LN14@NEW_Fishin
  0007e	6a 1a		 push	 26			; 0000001aH
  00080	68 00 00 00 00	 push	 OFFSET ??_C@_1IO@CAJLEEOI@?$AAC?$AA?3?$AA?2?$AAA?$AAn?$AAk?$AAa?$AA2?$AAP?$AAr?$AAo?$AAj?$AAe?$AAc?$AAt@
  00085	68 00 00 00 00	 push	 OFFSET ??_C@_1BK@FMEHPMFE@?$AAm?$AAs?$AA_?$AAs?$AAi?$AAn?$AAg?$AAl?$AAe?$AAt?$AAo?$AAn@
  0008a	e8 00 00 00 00	 call	 __wassert
  0008f	8b 0d 00 00 00
	00		 mov	 ecx, DWORD PTR ?ms_singleton@?$CSingleton@VCPythonNetworkStream@@@@0PAVCPythonNetworkStream@@A ; CSingleton<CPythonNetworkStream>::ms_singleton
  00095	83 c4 0c	 add	 esp, 12			; 0000000cH
$LN14@NEW_Fishin:
; File C:\Anka2Project\Anka2Project\Source\Binary\source\UserInterface\PythonPlayerInput.cpp

; 609  : 				CPythonNetworkStream::Instance().SendFishingPacket(irot);

  00098	ff 75 fc	 push	 DWORD PTR _irot$3[ebp]
  0009b	e8 00 00 00 00	 call	 ?SendFishingPacket@CPythonNetworkStream@@QAE_NH@Z ; CPythonNetworkStream::SendFishingPacket

; 613  : 			}
; 614  : 		}
; 615  : 	}
; 616  : }

  000a0	5f		 pop	 edi
  000a1	5e		 pop	 esi
  000a2	8b e5		 mov	 esp, ebp
  000a4	5d		 pop	 ebp
  000a5	c3		 ret	 0
$LN6@NEW_Fishin:

; 610  : 			else
; 611  : 			{
; 612  : 				PyCallClassMemberFunc(m_ppyGameWindow, "OnFishingWrongPlace", Py_BuildValue("()"));

  000a6	68 00 00 00 00	 push	 OFFSET ??_C@_02HCKGKOFO@?$CI?$CJ@
  000ab	ff 15 00 00 00
	00		 call	 DWORD PTR __imp__Py_BuildValue
  000b1	50		 push	 eax
  000b2	68 00 00 00 00	 push	 OFFSET ??_C@_0BE@DLANHBIF@OnFishingWrongPlace@
  000b7	ff 77 08	 push	 DWORD PTR [edi+8]
  000ba	e8 00 00 00 00	 call	 ?PyCallClassMemberFunc@@YA_NPAU_object@@PBD0@Z ; PyCallClassMemberFunc
  000bf	83 c4 10	 add	 esp, 16			; 00000010H
$LN7@NEW_Fishin:

; 613  : 			}
; 614  : 		}
; 615  : 	}
; 616  : }

  000c2	5f		 pop	 edi
  000c3	5e		 pop	 esi
  000c4	8b e5		 mov	 esp, ebp
  000c6	5d		 pop	 ebp
  000c7	c3		 ret	 0
?NEW_Fishing@CPythonPlayer@@QAEXXZ ENDP			; CPythonPlayer::NEW_Fishing
_TEXT	ENDS
; Function compile flags: /Ogtp
; File C:\Anka2Project\Anka2Project\Source\Binary\source\UserInterface\PythonPlayerInput.cpp
; File C:\Anka2Project\Anka2Project\Source\Binary\source\eterBase\Singleton.h
; File C:\Anka2Project\Anka2Project\Source\Binary\source\UserInterface\PythonPlayerInput.cpp
; File C:\Program Files\Microsoft Visual Studio\2022\Community\VC\Tools\MSVC\14.44.35207\include\cmath
; File C:\Anka2Project\Anka2Project\Source\Binary\source\UserInterface\PythonPlayerInput.cpp
; File C:\Program Files\Microsoft Visual Studio\2022\Community\VC\Tools\MSVC\14.44.35207\include\cmath
; File C:\Anka2Project\Anka2Project\Source\Binary\source\UserInterface\PythonPlayerInput.cpp
;	COMDAT ?NEW_Attack@CPythonPlayer@@QAEXXZ
_TEXT	SEGMENT
_fDirRot$3 = -4						; size = 4
tv264 = -4						; size = 4
?NEW_Attack@CPythonPlayer@@QAEXXZ PROC			; CPythonPlayer::NEW_Attack, COMDAT
; _this$ = ecx

; 619  : {

  00000	55		 push	 ebp
  00001	8b ec		 mov	 ebp, esp
  00003	51		 push	 ecx
  00004	53		 push	 ebx
  00005	56		 push	 esi
  00006	57		 push	 edi
  00007	8b f1		 mov	 esi, ecx

; 620  : 	// PrivateShop
; 621  : 	if (IsOpenPrivateShop())

  00009	e8 00 00 00 00	 call	 ?IsOpenPrivateShop@CPythonPlayer@@QAE_NXZ ; CPythonPlayer::IsOpenPrivateShop
  0000e	84 c0		 test	 al, al
  00010	0f 85 b5 01 00
	00		 jne	 $LN14@NEW_Attack

; 622  : 		return;
; 623  : 
; 624  : 	if (!__CanAttack())

  00016	e8 00 00 00 00	 call	 ?__CanAttack@CPythonPlayer@@IAE_NXZ ; CPythonPlayer::__CanAttack
  0001b	84 c0		 test	 al, al
  0001d	0f 84 a8 01 00
	00		 je	 $LN14@NEW_Attack

; 625  : 		return; 
; 626  : 
; 627  : 	CInstanceBase* pkInstMain = NEW_GetMainActorPtr();

  00023	8b 46 04	 mov	 eax, DWORD PTR [esi+4]
  00026	8d 4e 04	 lea	 ecx, DWORD PTR [esi+4]
  00029	ff 90 8c 00 00
	00		 call	 DWORD PTR [eax+140]
  0002f	8b f8		 mov	 edi, eax

; 628  : 	if (!pkInstMain)

  00031	85 ff		 test	 edi, edi
  00033	0f 84 92 01 00
	00		 je	 $LN14@NEW_Attack

; 629  : 		return;
; 630  : 
; 631  : 	if (pkInstMain->IsBowMode())

  00039	8b cf		 mov	 ecx, edi
  0003b	e8 00 00 00 00	 call	 ?IsBowMode@CInstanceBase@@QAEHXZ ; CInstanceBase::IsBowMode
  00040	85 c0		 test	 eax, eax
  00042	0f 84 b0 00 00
	00		 je	 $LN5@NEW_Attack

; 632  : 	{
; 633  : 		//CPythonPlayerEventHandler& rkPlayerEventHandler=CPythonPlayerEventHandler::GetSingleton();
; 634  : 
; 635  : 		CInstanceBase * pkInstTarget = __GetAliveTargetInstancePtr();

  00048	8b ce		 mov	 ecx, esi
  0004a	e8 00 00 00 00	 call	 ?__GetAliveTargetInstancePtr@CPythonPlayer@@IAEPAVCInstanceBase@@XZ ; CPythonPlayer::__GetAliveTargetInstancePtr
  0004f	8b d8		 mov	 ebx, eax

; 636  : 		if (!pkInstTarget)

  00051	85 db		 test	 ebx, ebx
  00053	75 49		 jne	 SHORT $LN27@NEW_Attack

; 637  : 		{
; 638  : 			__ChangeTargetToPickedInstance();

  00055	8b ce		 mov	 ecx, esi
  00057	e8 00 00 00 00	 call	 ?__ChangeTargetToPickedInstance@CPythonPlayer@@IAE_NXZ ; CPythonPlayer::__ChangeTargetToPickedInstance

; 639  : 			pkInstTarget = __GetAliveTargetInstancePtr();

  0005c	8b ce		 mov	 ecx, esi
  0005e	e8 00 00 00 00	 call	 ?__GetAliveTargetInstancePtr@CPythonPlayer@@IAEPAVCInstanceBase@@XZ ; CPythonPlayer::__GetAliveTargetInstancePtr
  00063	8b d8		 mov	 ebx, eax

; 640  : 		}
; 641  : 
; 642  : 		if (pkInstTarget)

  00065	85 db		 test	 ebx, ebx
  00067	75 35		 jne	 SHORT $LN27@NEW_Attack

; 657  : 			}
; 658  : 		}
; 659  : 		else
; 660  : 		{
; 661  : 			PyCallClassMemberFunc(m_ppyGameWindow, "OnCannotUseSkill", Py_BuildValue("(is)", GetMainCharacterIndex(), "NEED_TARGET"));

  00069	8b 46 04	 mov	 eax, DWORD PTR [esi+4]
  0006c	8d 4e 04	 lea	 ecx, DWORD PTR [esi+4]
  0006f	68 00 00 00 00	 push	 OFFSET ??_C@_0M@HCIEKIGP@NEED_TARGET@
  00074	ff 50 04	 call	 DWORD PTR [eax+4]
  00077	50		 push	 eax
  00078	68 00 00 00 00	 push	 OFFSET ??_C@_04JMLDJNEM@?$CIis?$CJ@
  0007d	ff 15 00 00 00
	00		 call	 DWORD PTR __imp__Py_BuildValue
  00083	83 c4 0c	 add	 esp, 12			; 0000000cH
  00086	50		 push	 eax
  00087	68 00 00 00 00	 push	 OFFSET ??_C@_0BB@BOHMBBJL@OnCannotUseSkill@
  0008c	ff 76 08	 push	 DWORD PTR [esi+8]
  0008f	e8 00 00 00 00	 call	 ?PyCallClassMemberFunc@@YA_NPAU_object@@PBD0@Z ; PyCallClassMemberFunc
  00094	83 c4 0c	 add	 esp, 12			; 0000000cH

; 690  : 	}
; 691  : }

  00097	5f		 pop	 edi
  00098	5e		 pop	 esi
  00099	5b		 pop	 ebx
  0009a	8b e5		 mov	 esp, ebp
  0009c	5d		 pop	 ebp
  0009d	c3		 ret	 0
$LN27@NEW_Attack:

; 643  : 		{
; 644  : 			if (!__CanShot(*pkInstMain, *pkInstTarget))

  0009e	53		 push	 ebx
  0009f	57		 push	 edi
  000a0	8b ce		 mov	 ecx, esi
  000a2	e8 00 00 00 00	 call	 ?__CanShot@CPythonPlayer@@IAE_NAAVCInstanceBase@@0@Z ; CPythonPlayer::__CanShot
  000a7	84 c0		 test	 al, al
  000a9	0f 84 1c 01 00
	00		 je	 $LN14@NEW_Attack

; 645  : 				return;
; 646  : 
; 647  : 			if (!pkInstMain->NEW_IsClickableDistanceDestInstance(*pkInstTarget))

  000af	53		 push	 ebx
  000b0	8b cf		 mov	 ecx, edi
  000b2	e8 00 00 00 00	 call	 ?NEW_IsClickableDistanceDestInstance@CInstanceBase@@QAEHAAV1@@Z ; CInstanceBase::NEW_IsClickableDistanceDestInstance
  000b7	85 c0		 test	 eax, eax
  000b9	75 16		 jne	 SHORT $LN11@NEW_Attack

; 648  : 			{
; 649  : 				__ReserveClickActor(pkInstTarget->GetVirtualID());

  000bb	8b cb		 mov	 ecx, ebx
  000bd	e8 00 00 00 00	 call	 ?GetVirtualID@CInstanceBase@@QAEKXZ ; CInstanceBase::GetVirtualID
  000c2	50		 push	 eax
  000c3	8b ce		 mov	 ecx, esi
  000c5	e8 00 00 00 00	 call	 ?__ReserveClickActor@CPythonPlayer@@IAEXK@Z ; CPythonPlayer::__ReserveClickActor

; 690  : 	}
; 691  : }

  000ca	5f		 pop	 edi
  000cb	5e		 pop	 esi
  000cc	5b		 pop	 ebx
  000cd	8b e5		 mov	 esp, ebp
  000cf	5d		 pop	 ebp
  000d0	c3		 ret	 0
$LN11@NEW_Attack:

; 650  : 				return;
; 651  : 			}
; 652  : 
; 653  : 			if (pkInstMain->IsAttackableInstance(*pkInstTarget))

  000d1	53		 push	 ebx
  000d2	8b cf		 mov	 ecx, edi
  000d4	e8 00 00 00 00	 call	 ?IsAttackableInstance@CInstanceBase@@QAE_NAAV1@@Z ; CInstanceBase::IsAttackableInstance
  000d9	84 c0		 test	 al, al
  000db	0f 84 ea 00 00
	00		 je	 $LN14@NEW_Attack

; 654  : 			{
; 655  : 				pkInstMain->NEW_LookAtDestInstance(*pkInstTarget);

  000e1	53		 push	 ebx
  000e2	8b cf		 mov	 ecx, edi
  000e4	e8 00 00 00 00	 call	 ?NEW_LookAtDestInstance@CInstanceBase@@QAEXAAV1@@Z ; CInstanceBase::NEW_LookAtDestInstance

; 656  : 				pkInstMain->NEW_AttackToDestInstanceDirection(*pkInstTarget);

  000e9	53		 push	 ebx
  000ea	8b cf		 mov	 ecx, edi
  000ec	e8 00 00 00 00	 call	 ?NEW_AttackToDestInstanceDirection@CInstanceBase@@QAE_NAAV1@@Z ; CInstanceBase::NEW_AttackToDestInstanceDirection

; 690  : 	}
; 691  : }

  000f1	5f		 pop	 edi
  000f2	5e		 pop	 esi
  000f3	5b		 pop	 ebx
  000f4	8b e5		 mov	 esp, ebp
  000f6	5d		 pop	 ebp
  000f7	c3		 ret	 0
$LN5@NEW_Attack:

; 662  : 			return;
; 663  : 		}
; 664  : 	}
; 665  : 	else if (m_isDirKey)

  000f8	80 7e 65 00	 cmp	 BYTE PTR [esi+101], 0
  000fc	0f 84 ac 00 00
	00		 je	 $LN13@NEW_Attack

; 666  : 	{
; 667  : 		float fDirRot=0.0f;
; 668  : 		NEW_GetMultiKeyDirRotation(m_isLeft, m_isRight, m_isUp, m_isDown, &fDirRot);

  00102	8d 45 fc	 lea	 eax, DWORD PTR _fDirRot$3[ebp]
  00105	c7 45 fc 00 00
	00 00		 mov	 DWORD PTR _fDirRot$3[ebp], 0
  0010c	50		 push	 eax
  0010d	0f b6 46 61	 movzx	 eax, BYTE PTR [esi+97]
  00111	50		 push	 eax
  00112	0f b6 46 60	 movzx	 eax, BYTE PTR [esi+96]
  00116	50		 push	 eax
  00117	0f b6 46 63	 movzx	 eax, BYTE PTR [esi+99]
  0011b	50		 push	 eax
  0011c	0f b6 46 62	 movzx	 eax, BYTE PTR [esi+98]
  00120	50		 push	 eax
  00121	e8 00 00 00 00	 call	 ?NEW_GetMultiKeyDirRotation@CPythonPlayer@@IAEX_N000PAM@Z ; CPythonPlayer::NEW_GetMultiKeyDirRotation
; File C:\Anka2Project\Anka2Project\Source\Binary\source\eterBase\Singleton.h

; 26   : 		assert(ms_singleton);

  00126	8b 0d 00 00 00
	00		 mov	 ecx, DWORD PTR ?ms_singleton@?$CSingleton@VCCameraManager@@@@0PAVCCameraManager@@A ; CSingleton<CCameraManager>::ms_singleton
  0012c	85 c9		 test	 ecx, ecx
  0012e	75 1a		 jne	 SHORT $LN21@NEW_Attack
  00130	6a 1a		 push	 26			; 0000001aH
  00132	68 00 00 00 00	 push	 OFFSET ??_C@_1IO@CAJLEEOI@?$AAC?$AA?3?$AA?2?$AAA?$AAn?$AAk?$AAa?$AA2?$AAP?$AAr?$AAo?$AAj?$AAe?$AAc?$AAt@
  00137	68 00 00 00 00	 push	 OFFSET ??_C@_1BK@FMEHPMFE@?$AAm?$AAs?$AA_?$AAs?$AAi?$AAn?$AAg?$AAl?$AAe?$AAt?$AAo?$AAn@
  0013c	e8 00 00 00 00	 call	 __wassert
  00141	8b 0d 00 00 00
	00		 mov	 ecx, DWORD PTR ?ms_singleton@?$CSingleton@VCCameraManager@@@@0PAVCCameraManager@@A ; CSingleton<CCameraManager>::ms_singleton
  00147	83 c4 0c	 add	 esp, 12			; 0000000cH
$LN21@NEW_Attack:
; File C:\Anka2Project\Anka2Project\Source\Binary\source\UserInterface\PythonPlayerInput.cpp

; 670  : 		CCamera* pkCmrCur=CCameraManager::Instance().GetCurrentCamera();

  0014a	e8 00 00 00 00	 call	 ?GetCurrentCamera@CCameraManager@@QAEPAVCCamera@@XZ ; CCameraManager::GetCurrentCamera

; 671  : 		if (pkCmrCur)

  0014f	85 c0		 test	 eax, eax
  00151	74 45		 je	 SHORT $LN28@NEW_Attack

; 672  : 		{
; 673  : 			float fCmrCurRot=CameraRotationToCharacterRotation(pkCmrCur->GetRoll());

  00153	f3 0f 10 80 30
	01 00 00	 movss	 xmm0, DWORD PTR [eax+304]
  0015b	51		 push	 ecx
  0015c	f3 0f 11 04 24	 movss	 DWORD PTR [esp], xmm0
  00161	e8 00 00 00 00	 call	 ?CameraRotationToCharacterRotation@@YAMM@Z ; CameraRotationToCharacterRotation

; 675  : 			fDirRot=fmod(360.0f + fCmrCurRot + fDirRot, 360.0f);

  00166	d8 05 00 00 00
	00		 fadd	 DWORD PTR __real@43b40000
  0016c	83 c4 04	 add	 esp, 4
; File C:\Program Files\Microsoft Visual Studio\2022\Community\VC\Tools\MSVC\14.44.35207\include\cmath

; 147  :     return _CSTD fmodf(_Xx, _Yx);

  0016f	f3 0f 10 0d 00
	00 00 00	 movss	 xmm1, DWORD PTR __real@43b40000
; File C:\Anka2Project\Anka2Project\Source\Binary\source\UserInterface\PythonPlayerInput.cpp

; 675  : 			fDirRot=fmod(360.0f + fCmrCurRot + fDirRot, 360.0f);

  00177	d8 45 fc	 fadd	 DWORD PTR _fDirRot$3[ebp]
  0017a	d9 5d fc	 fstp	 DWORD PTR tv264[ebp]
; File C:\Program Files\Microsoft Visual Studio\2022\Community\VC\Tools\MSVC\14.44.35207\include\cmath

; 147  :     return _CSTD fmodf(_Xx, _Yx);

  0017d	f3 0f 10 45 fc	 movss	 xmm0, DWORD PTR tv264[ebp]
  00182	e8 00 00 00 00	 call	 _fmodf
; File C:\Anka2Project\Anka2Project\Source\Binary\source\UserInterface\PythonPlayerInput.cpp

; 678  : 		pkInstMain->NEW_Attack(fDirRot);

  00187	0f 28 c8	 movaps	 xmm1, xmm0
  0018a	8b cf		 mov	 ecx, edi
  0018c	e8 00 00 00 00	 call	 ?NEW_Attack@CInstanceBase@@QAEXM@Z ; CInstanceBase::NEW_Attack

; 690  : 	}
; 691  : }

  00191	5f		 pop	 edi
  00192	5e		 pop	 esi
  00193	5b		 pop	 ebx
  00194	8b e5		 mov	 esp, ebp
  00196	5d		 pop	 ebp
  00197	c3		 ret	 0
$LN28@NEW_Attack:

; 671  : 		if (pkCmrCur)

  00198	f3 0f 10 45 fc	 movss	 xmm0, DWORD PTR _fDirRot$3[ebp]

; 678  : 		pkInstMain->NEW_Attack(fDirRot);

  0019d	8b cf		 mov	 ecx, edi
  0019f	0f 28 c8	 movaps	 xmm1, xmm0
  001a2	e8 00 00 00 00	 call	 ?NEW_Attack@CInstanceBase@@QAEXM@Z ; CInstanceBase::NEW_Attack

; 690  : 	}
; 691  : }

  001a7	5f		 pop	 edi
  001a8	5e		 pop	 esi
  001a9	5b		 pop	 ebx
  001aa	8b e5		 mov	 esp, ebp
  001ac	5d		 pop	 ebp
  001ad	c3		 ret	 0
$LN13@NEW_Attack:

; 679  : 	}
; 680  : 	else
; 681  : 	{
; 682  : 		//!@# 말에 탄 상태에서 맨손 공?은 지원되지 않는다 - [levites]
; 683  : 		if (pkInstMain->IsMountingHorse())

  001ae	8b cf		 mov	 ecx, edi
  001b0	e8 00 00 00 00	 call	 ?IsMountingHorse@CInstanceBase@@QAEHXZ ; CInstanceBase::IsMountingHorse
  001b5	85 c0		 test	 eax, eax
  001b7	74 0b		 je	 SHORT $LN17@NEW_Attack

; 684  : 		{
; 685  : 			if (pkInstMain->IsHandMode())

  001b9	8b cf		 mov	 ecx, edi
  001bb	e8 00 00 00 00	 call	 ?IsHandMode@CInstanceBase@@QAEHXZ ; CInstanceBase::IsHandMode
  001c0	85 c0		 test	 eax, eax
  001c2	75 07		 jne	 SHORT $LN14@NEW_Attack
$LN17@NEW_Attack:

; 686  : 				return;
; 687  : 		}
; 688  : 
; 689  : 		pkInstMain->NEW_Attack();

  001c4	8b cf		 mov	 ecx, edi
  001c6	e8 00 00 00 00	 call	 ?NEW_Attack@CInstanceBase@@QAEXXZ ; CInstanceBase::NEW_Attack
$LN14@NEW_Attack:

; 690  : 	}
; 691  : }

  001cb	5f		 pop	 edi
  001cc	5e		 pop	 esi
  001cd	5b		 pop	 ebx
  001ce	8b e5		 mov	 esp, ebp
  001d0	5d		 pop	 ebp
  001d1	c3		 ret	 0
?NEW_Attack@CPythonPlayer@@QAEXXZ ENDP			; CPythonPlayer::NEW_Attack
_TEXT	ENDS
; Function compile flags: /Ogtp
; File C:\Anka2Project\Anka2Project\Source\Binary\source\UserInterface\PythonPlayerInput.cpp
;	COMDAT ?__CanShot@CPythonPlayer@@IAE_NAAVCInstanceBase@@0@Z
_TEXT	SEGMENT
_rkInstMain$ = 8					; size = 4
_rkInstTarget$ = 12					; size = 4
?__CanShot@CPythonPlayer@@IAE_NAAVCInstanceBase@@0@Z PROC ; CPythonPlayer::__CanShot, COMDAT
; _this$ = ecx

; 726  : {

  00000	55		 push	 ebp
  00001	8b ec		 mov	 ebp, esp
  00003	56		 push	 esi
  00004	8b f1		 mov	 esi, ecx

; 727  : 	if (!__HasEnoughArrow())

  00006	e8 00 00 00 00	 call	 ?__HasEnoughArrow@CPythonPlayer@@IAE_NXZ ; CPythonPlayer::__HasEnoughArrow
  0000b	84 c0		 test	 al, al
  0000d	75 32		 jne	 SHORT $LN2@CanShot

; 728  : 	{
; 729  : 		PyCallClassMemberFunc(m_ppyGameWindow, "OnCannotShot", Py_BuildValue("(is)", GetMainCharacterIndex(), "EMPTY_ARROW"));

  0000f	68 00 00 00 00	 push	 OFFSET ??_C@_0M@FBIHMJDM@EMPTY_ARROW@
$LN10@CanShot:

; 746  : }

  00014	8b 46 04	 mov	 eax, DWORD PTR [esi+4]
  00017	8d 4e 04	 lea	 ecx, DWORD PTR [esi+4]
  0001a	ff 50 04	 call	 DWORD PTR [eax+4]
  0001d	50		 push	 eax
  0001e	68 00 00 00 00	 push	 OFFSET ??_C@_04JMLDJNEM@?$CIis?$CJ@
  00023	ff 15 00 00 00
	00		 call	 DWORD PTR __imp__Py_BuildValue
  00029	50		 push	 eax
  0002a	68 00 00 00 00	 push	 OFFSET ??_C@_0N@OPOOJDCJ@OnCannotShot@
  0002f	ff 76 08	 push	 DWORD PTR [esi+8]
  00032	e8 00 00 00 00	 call	 ?PyCallClassMemberFunc@@YA_NPAU_object@@PBD0@Z ; PyCallClassMemberFunc
  00037	83 c4 18	 add	 esp, 24			; 00000018H
  0003a	32 c0		 xor	 al, al
  0003c	5e		 pop	 esi
  0003d	5d		 pop	 ebp
  0003e	c2 08 00	 ret	 8
$LN2@CanShot:

; 730  : 		return false;
; 731  : 	}
; 732  : 
; 733  : 	if (rkInstMain.IsInSafe())

  00041	8b 4d 08	 mov	 ecx, DWORD PTR _rkInstMain$[ebp]
  00044	e8 00 00 00 00	 call	 ?IsInSafe@CInstanceBase@@QAEHXZ ; CInstanceBase::IsInSafe
  00049	85 c0		 test	 eax, eax
  0004b	74 07		 je	 SHORT $LN3@CanShot

; 734  : 	{
; 735  : 		PyCallClassMemberFunc(m_ppyGameWindow, "OnCannotShot", Py_BuildValue("(is)", GetMainCharacterIndex(), "IN_SAFE"));

  0004d	68 00 00 00 00	 push	 OFFSET ??_C@_07OAOBINCH@IN_SAFE@

; 736  : 		return false;

  00052	eb c0		 jmp	 SHORT $LN10@CanShot
$LN3@CanShot:

; 737  : 	}
; 738  : 
; 739  : 	if (rkInstTarget.IsInSafe())

  00054	8b 4d 0c	 mov	 ecx, DWORD PTR _rkInstTarget$[ebp]
  00057	e8 00 00 00 00	 call	 ?IsInSafe@CInstanceBase@@QAEHXZ ; CInstanceBase::IsInSafe
  0005c	85 c0		 test	 eax, eax
  0005e	74 07		 je	 SHORT $LN4@CanShot

; 740  : 	{
; 741  : 		PyCallClassMemberFunc(m_ppyGameWindow, "OnCannotShot", Py_BuildValue("(is)", GetMainCharacterIndex(), "DEST_IN_SAFE"));

  00060	68 00 00 00 00	 push	 OFFSET ??_C@_0N@KDALDMKB@DEST_IN_SAFE@

; 742  : 		return false;

  00065	eb ad		 jmp	 SHORT $LN10@CanShot
$LN4@CanShot:

; 743  : 	}	
; 744  : 
; 745  : 	return true;

  00067	b0 01		 mov	 al, 1
  00069	5e		 pop	 esi

; 746  : }

  0006a	5d		 pop	 ebp
  0006b	c2 08 00	 ret	 8
?__CanShot@CPythonPlayer@@IAE_NAAVCInstanceBase@@0@Z ENDP ; CPythonPlayer::__CanShot
_TEXT	ENDS
END
