; Listing generated by Microsoft (R) Optimizing Compiler Version 19.44.35219.0 

	TITLE	c:\anka2project\anka2project\source\binary\vs_files\userinterface\release\pythonapplicationmodule.obj
	.686P
	.XMM
	include listing.inc
	.model	flat

INCLUDELIB OLDNAMES

PUBLIC	??_C@_02OIKAIHIF@s?$CD@				; `string'
PUBLIC	??_C@_01LKDEMHDF@s@				; `string'
PUBLIC	??_C@_0DK@CJFAEGAK@Anka2?4com?5?$CD?5Ger?gek?5Rekabet?5Bura@ ; `string'
PUBLIC	??_C@_04EOBPFJGD@ffff@				; `string'
PUBLIC	??_C@_01INIBCBCB@f@				; `string'
PUBLIC	??_C@_02PINLEBJB@fi@				; `string'
PUBLIC	??_C@_0BH@GNAGLJEE@Wrong?5Cursor?5Name?5?$FL?$CFd?$FN@ ; `string'
PUBLIC	??_C@_02OCDGCAAK@si@				; `string'
PUBLIC	??_C@_04JCAPCJAP@?4tga@				; `string'
PUBLIC	??_C@_04PMOCAHAA@open@				; `string'
PUBLIC	??_C@_0BG@EOCGHNJF@SetTextTailLivingTime@	; `string'
PUBLIC	??_C@_0BD@PILPKKLH@SetHairColorEnable@		; `string'
PUBLIC	??_C@_0BH@PJOFIHBE@SetArmorSpecularEnable@	; `string'
PUBLIC	??_C@_0BI@ONHBEMJA@SetWeaponSpecularEnable@	; `string'
PUBLIC	??_C@_0BM@CMPMDOBN@SetSkillEffectUpgradeEnable@	; `string'
PUBLIC	??_C@_0CI@KEKBEMLJ@SetTwoHandedWeaponAttSpeedDecre@ ; `string'
PUBLIC	??_C@_0BD@CPFDKOFJ@SetRideHorseEnable@		; `string'
PUBLIC	??_C@_0BF@CEAHHILA@SetCameraMaxDistance@	; `string'
PUBLIC	??_C@_09ILNFAENI@SetMinFog@			; `string'
PUBLIC	??_C@_0N@KCIEBLLG@SetFrameSkip@			; `string'
PUBLIC	??_C@_0N@CLLAGICL@GetImageInfo@			; `string'
PUBLIC	??_C@_07NAJNLNAF@GetInfo@			; `string'
PUBLIC	??_C@_0L@HMEHDBP@UpdateGame@			; `string'
PUBLIC	??_C@_0L@ONMMANJD@RenderGame@			; `string'
PUBLIC	??_C@_04KLCPKPBE@Loop@				; `string'
PUBLIC	??_C@_06MIKANEJK@Create@			; `string'
PUBLIC	??_C@_07MNGBFJEN@Process@			; `string'
PUBLIC	??_C@_04LBABLPF@Exit@				; `string'
PUBLIC	??_C@_05BGKIEECB@Abort@				; `string'
PUBLIC	??_C@_0BA@PPCHHCMN@SetMouseHandler@		; `string'
PUBLIC	??_C@_0M@DHIFKLBN@IsExistFile@			; `string'
PUBLIC	??_C@_0M@KODKGGCI@GetFileList@			; `string'
PUBLIC	??_C@_09IADKBAEN@SetCamera@			; `string'
PUBLIC	??_C@_09KOHPDBNP@GetCamera@			; `string'
PUBLIC	??_C@_0P@LHFPHHJA@GetCameraPitch@		; `string'
PUBLIC	??_C@_0BC@JICDJDCH@GetCameraRotation@		; `string'
PUBLIC	??_C@_07CDIANBOE@GetTime@			; `string'
PUBLIC	??_C@_0O@JKNDJHIN@GetGlobalTime@		; `string'
PUBLIC	??_C@_0BD@HGCMJHC@GetGlobalTimeStamp@		; `string'
PUBLIC	??_C@_0N@JKLFODAC@GetUpdateFPS@			; `string'
PUBLIC	??_C@_0N@EHIMFGIG@GetRenderFPS@			; `string'
PUBLIC	??_C@_0N@HGIDFLAJ@RotateCamera@			; `string'
PUBLIC	??_C@_0M@PKAIAJKC@PitchCamera@			; `string'
PUBLIC	??_C@_0L@BGDDIOFP@ZoomCamera@			; `string'
PUBLIC	??_C@_0BC@FCGIGAKD@MovieRotateCamera@		; `string'
PUBLIC	??_C@_0BB@KFJAAFFB@MoviePitchCamera@		; `string'
PUBLIC	??_C@_0BA@ILLHHFGG@MovieZoomCamera@		; `string'
PUBLIC	??_C@_0BB@PJGDEPJO@MovieResetCamera@		; `string'
PUBLIC	??_C@_0BK@PBNANFFG@GetAvailableTextureMemory@	; `string'
PUBLIC	??_C@_0O@KFOAIOPC@GetRenderTime@		; `string'
PUBLIC	??_C@_0O@EPOIPAHO@GetUpdateTime@		; `string'
PUBLIC	??_C@_07EGHKJKFO@GetLoad@			; `string'
PUBLIC	??_C@_0N@KBJEAIDC@GetFaceSpeed@			; `string'
PUBLIC	??_C@_0N@FGHMKANF@GetFaceCount@			; `string'
PUBLIC	??_C@_06GHJACMIL@SetFPS@			; `string'
PUBLIC	??_C@_0BI@BPPNOEKE@SetGlobalCenterPosition@	; `string'
PUBLIC	??_C@_0BC@MCKFCFLJ@SetCenterPosition@		; `string'
PUBLIC	??_C@_0BC@DJJGDMOB@GetCursorPosition@		; `string'
PUBLIC	??_C@_09CIIBMEDP@GetRandom@			; `string'
PUBLIC	??_C@_0O@NFOAEJMI@RunPythonFile@		; `string'
PUBLIC	??_C@_0O@JGKOEJBF@IsWebPageMode@		; `string'
PUBLIC	??_C@_0M@LMDMBNNG@ShowWebPage@			; `string'
PUBLIC	??_C@_0M@CJKDPGGC@MoveWebPage@			; `string'
PUBLIC	??_C@_0M@HKOOBKOE@HideWebPage@			; `string'
PUBLIC	??_C@_09EJGJNKNL@IsPressed@			; `string'
PUBLIC	??_C@_09PKKOCJGB@SetCursor@			; `string'
PUBLIC	??_C@_09NEOLAIPD@GetCursor@			; `string'
PUBLIC	??_C@_0L@BIENLPGM@ShowCursor@			; `string'
PUBLIC	??_C@_0L@MGJDDPFG@HideCursor@			; `string'
PUBLIC	??_C@_0N@BFHCIAEF@IsShowCursor@			; `string'
PUBLIC	??_C@_0P@FMIDHOAE@IsLiarCursorOn@		; `string'
PUBLIC	??_C@_0BC@IDNDDKLI@SetSoftwareCursor@		; `string'
PUBLIC	??_C@_0BC@KKHIHHDJ@SetHardwareCursor@		; `string'
PUBLIC	??_C@_0P@KJLEKPPL@SetConnectData@		; `string'
PUBLIC	??_C@_0P@GHKKFFNH@GetConnectData@		; `string'
PUBLIC	??_C@_0BF@IMHAMDDH@GetRotatingDirection@	; `string'
PUBLIC	??_C@_0BE@JKNPCCAK@GetDegreeDifference@		; `string'
PUBLIC	??_C@_05PFDOMJEF@Sleep@				; `string'
PUBLIC	??_C@_0BD@CKMKHHJC@SetDefaultFontName@		; `string'
PUBLIC	??_C@_0BD@CENDFAOC@SetGuildSymbolPath@		; `string'
PUBLIC	??_C@_0BI@LNMJCGJN@EnableSpecialCameraMode@	; `string'
PUBLIC	??_C@_0P@NCLIAJKF@SetCameraSpeed@		; `string'
PUBLIC	??_C@_0BC@JPDLAHCD@SaveCameraSetting@		; `string'
PUBLIC	??_C@_0BC@KEOGBKMG@LoadCameraSetting@		; `string'
PUBLIC	??_C@_0BB@IPPGJFKO@SetDefaultCamera@		; `string'
PUBLIC	??_C@_0BB@JANPDNEC@SetCameraSetting@		; `string'
PUBLIC	??_C@_0O@MFMELJAK@SetSightRange@		; `string'
PUBLIC	??_C@_0M@LOHDPEAO@IsFileExist@			; `string'
PUBLIC	??_C@_0N@JAMKKFFG@OpenTextFile@			; `string'
PUBLIC	??_C@_0O@LNEGOIPA@CloseTextFile@		; `string'
PUBLIC	??_C@_0BF@BNHHEKFO@GetTextFileLineCount@	; `string'
PUBLIC	??_C@_0BA@HHNFKANE@GetTextFileLine@		; `string'
PUBLIC	??_C@_0O@JDECMIPJ@GetLocaleName@		; `string'
PUBLIC	??_C@_0O@OKMLAHKI@GetLocalePath@		; `string'
PUBLIC	??_C@_0P@JHGEFJDO@LoadLocaleAddr@		; `string'
PUBLIC	??_C@_0P@BFJDMEJO@LoadLocaleData@		; `string'
PUBLIC	??_C@_0BD@CEMKCGHA@GetDefaultCodePage@		; `string'
PUBLIC	??_C@_0N@HDAEMEAH@SetControlFP@			; `string'
PUBLIC	??_C@_0BB@IFMAFIHG@SetSpecularSpeed@		; `string'
PUBLIC	??_C@_0BI@DNKBNLNC@testGetAccumulationTime@	; `string'
PUBLIC	??_C@_0BK@PLDHJGMN@testResetAccumulationTime@	; `string'
PUBLIC	??_C@_0BF@KHKICLKO@testSetSpecularColor@	; `string'
PUBLIC	??_C@_0BB@MMPIECKB@SetVisibleNotice@		; `string'
PUBLIC	??_C@_0BA@NLDNPIOL@IsVisibleNotice@		; `string'
PUBLIC	??_C@_0BF@BOMOCGIP@EnableTestServerFlag@	; `string'
PUBLIC	??_C@_0BH@GBDECBIH@IsEnableTestServerFlag@	; `string'
PUBLIC	??_C@_0BB@DLDOCGLL@SetGuildMarkPath@		; `string'
PUBLIC	??_C@_0N@LIPHBNAO@OnLogoUpdate@			; `string'
PUBLIC	??_C@_0N@ELECBFOK@OnLogoRender@			; `string'
PUBLIC	??_C@_0L@JMMGDKPP@OnLogoOpen@			; `string'
PUBLIC	??_C@_0M@JMIFNMOK@OnLogoClose@			; `string'
PUBLIC	??_C@_0N@BFFIJKHB@ShellExecute@			; `string'
PUBLIC	??_C@_0P@BCNBBHFI@OpenWebBrowser@		; `string'
PUBLIC	??_C@_07MMGEHGCI@GetName@			; `string'
PUBLIC	??_C@_09OPOGDJM@SetLocale@			; `string'
PUBLIC	??_C@_09CALLECAO@GetLocale@			; `string'
PUBLIC	??_C@_0BB@DGBLNILG@FlashApplication@		; `string'
PUBLIC	??_C@_0BE@LJAANCDG@SetMultiFarmExeIcon@		; `string'
PUBLIC	??_C@_09OKOJMLAA@INFO_ITEM@			; `string'
PUBLIC	??_C@_0L@FNNFPLHG@INFO_ACTOR@			; `string'
PUBLIC	??_C@_0M@KLBHMBMD@INFO_EFFECT@			; `string'
PUBLIC	??_C@_0O@FAGLOALJ@INFO_TEXTTAIL@		; `string'
PUBLIC	??_C@_0BG@KEIJCHNJ@DEGREE_DIRECTION_SAME@	; `string'
PUBLIC	??_C@_0BH@LNDFJAFE@DEGREE_DIRECTION_RIGHT@	; `string'
PUBLIC	??_C@_0BG@JGNHHMCM@DEGREE_DIRECTION_LEFT@	; `string'
PUBLIC	??_C@_07CJEJDFBD@VK_LEFT@			; `string'
PUBLIC	??_C@_08LOMCDCA@VK_RIGHT@			; `string'
PUBLIC	??_C@_05PIGLHCBF@VK_UP@				; `string'
PUBLIC	??_C@_07NLENKNCK@VK_DOWN@			; `string'
PUBLIC	??_C@_07OMPILPEG@VK_HOME@			; `string'
PUBLIC	??_C@_06LPJBNMHN@VK_END@			; `string'
PUBLIC	??_C@_09EABNPHOI@VK_DELETE@			; `string'
PUBLIC	??_C@_0L@BOHNMBC@DIK_ESCAPE@			; `string'
PUBLIC	??_C@_07CACBFKLO@DIK_ESC@			; `string'
PUBLIC	??_C@_05GCLPJNBN@DIK_1@				; `string'
PUBLIC	??_C@_05EJJCMONO@DIK_2@				; `string'
PUBLIC	??_C@_05FAIJPPJP@DIK_3@				; `string'
PUBLIC	??_C@_05BPMIGJFI@DIK_4@				; `string'
PUBLIC	??_C@_05GNDFIBJ@DIK_5@				; `string'
PUBLIC	??_C@_05CNPOALNK@DIK_6@				; `string'
PUBLIC	??_C@_05DEOFDKJL@DIK_7@				; `string'
PUBLIC	??_C@_05LDHNCGFE@DIK_8@				; `string'
PUBLIC	??_C@_05KKGGBHBF@DIK_9@				; `string'
PUBLIC	??_C@_05HLKEKMFM@DIK_0@				; `string'
PUBLIC	??_C@_09DOHACMKC@DIK_MINUS@			; `string'
PUBLIC	??_C@_0L@KKCLPAPI@DIK_EQUALS@			; `string'
PUBLIC	??_C@_08HHEEGKBL@DIK_BACK@			; `string'
PUBLIC	??_C@_07MODNCMBL@DIK_TAB@			; `string'
PUBLIC	??_C@_05HECPGLK@DIK_Q@				; `string'
PUBLIC	??_C@_05FBBIFBDM@DIK_W@				; `string'
PUBLIC	??_C@_05CJOMCBOP@DIK_E@				; `string'
PUBLIC	??_C@_05CMGPKFHJ@DIK_R@				; `string'
PUBLIC	??_C@_05HKDFACPP@DIK_T@				; `string'
PUBLIC	??_C@_05MPJLHMLC@DIK_Y@				; `string'
PUBLIC	??_C@_05GDCODDLO@DIK_U@				; `string'
PUBLIC	??_C@_05IFFJGOOD@DIK_I@				; `string'
PUBLIC	??_C@_05NDADMJGF@DIK_O@				; `string'
PUBLIC	??_C@_05BOFJMHPL@DIK_P@				; `string'
PUBLIC	??_C@_0N@EFJDLCEF@DIK_LBRACKET@			; `string'
PUBLIC	??_C@_0N@CBJBCLKG@DIK_RBRACKET@			; `string'
PUBLIC	??_C@_0L@JLNKBJCL@DIK_RETURN@			; `string'
PUBLIC	??_C@_0N@ODLLDAI@DIK_LCONTROL@			; `string'
PUBLIC	??_C@_05ENIAOEOL@DIK_A@				; `string'
PUBLIC	??_C@_05DFHEJEDI@DIK_S@				; `string'
PUBLIC	??_C@_05DAPHBAKO@DIK_D@				; `string'
PUBLIC	??_C@_05CMBHCCM@DIK_F@				; `string'
PUBLIC	??_C@_05BLNKEDGN@DIK_G@				; `string'
PUBLIC	??_C@_05JMECFPKC@DIK_H@				; `string'
PUBLIC	??_C@_05KOHEDNCA@DIK_J@				; `string'
PUBLIC	??_C@_05LHGPAMGB@DIK_K@				; `string'
PUBLIC	??_C@_05PICOJKKG@DIK_L@				; `string'
PUBLIC	??_C@_0O@NEECDLLB@DIK_SEMICOLON@		; `string'
PUBLIC	??_C@_0P@JDEKLKAM@DIK_APOSTROPHE@		; `string'
PUBLIC	??_C@_09MOGGLCIP@DIK_GRAVE@			; `string'
PUBLIC	??_C@_0L@GNGJHMON@DIK_LSHIFT@			; `string'
PUBLIC	??_C@_0O@DGKNNOHE@DIK_BACKSLASH@		; `string'
PUBLIC	??_C@_05OELGCPHB@DIK_Z@				; `string'
PUBLIC	??_C@_05NGIAENPD@DIK_X@				; `string'
PUBLIC	??_C@_05HPLGIGGJ@DIK_C@				; `string'
PUBLIC	??_C@_05EIADGAHN@DIK_V@				; `string'
PUBLIC	??_C@_05GGKNLHCI@DIK_B@				; `string'
PUBLIC	??_C@_05MKBIPICE@DIK_N@				; `string'
PUBLIC	??_C@_05OBDFKLOH@DIK_M@				; `string'
PUBLIC	??_C@_09PDEOJFIH@DIK_COMMA@			; `string'
PUBLIC	??_C@_0L@HHNLMNCM@DIK_PERIOD@			; `string'
PUBLIC	??_C@_09DKJEGHEH@DIK_SLASH@			; `string'
PUBLIC	??_C@_0L@FKIIJLHO@DIK_RSHIFT@			; `string'
PUBLIC	??_C@_0N@DHLLGHHC@DIK_MULTIPLY@			; `string'
PUBLIC	??_C@_08OHCJNNJ@DIK_LALT@			; `string'
PUBLIC	??_C@_09DGAMMAPJ@DIK_SPACE@			; `string'
PUBLIC	??_C@_0M@KEADBGIC@DIK_CAPITAL@			; `string'
PUBLIC	??_C@_06PEIHKKCD@DIK_F1@			; `string'
PUBLIC	??_C@_06NPKKPJOA@DIK_F2@			; `string'
PUBLIC	??_C@_06MGLBMIKB@DIK_F3@			; `string'
PUBLIC	??_C@_06IJPAFOGG@DIK_F4@			; `string'
PUBLIC	??_C@_06JAOLGPCH@DIK_F5@			; `string'
PUBLIC	??_C@_06LLMGDMOE@DIK_F6@			; `string'
PUBLIC	??_C@_06KCNNANKF@DIK_F7@			; `string'
PUBLIC	??_C@_06CFEFBBGK@DIK_F8@			; `string'
PUBLIC	??_C@_06DMFOCACL@DIK_F9@			; `string'
PUBLIC	??_C@_07HNNFMACL@DIK_F10@			; `string'
PUBLIC	??_C@_0M@BAOCLHIM@DIK_NUMLOCK@			; `string'
PUBLIC	??_C@_0L@HPJOFPCB@DIK_SCROLL@			; `string'
PUBLIC	??_C@_0M@NDOIJKED@DIK_NUMPAD7@			; `string'
PUBLIC	??_C@_0M@FEHAIGIM@DIK_NUMPAD8@			; `string'
PUBLIC	??_C@_0M@ENGLLHMN@DIK_NUMPAD9@			; `string'
PUBLIC	??_C@_0N@ECOBCKNF@DIK_SUBTRACT@			; `string'
PUBLIC	??_C@_0M@PIMFMJIA@DIK_NUMPAD4@			; `string'
PUBLIC	??_C@_0M@OBNOPIMB@DIK_NUMPAD5@			; `string'
PUBLIC	??_C@_0M@MKPDKLAC@DIK_NUMPAD6@			; `string'
PUBLIC	??_C@_07PJGLOONL@DIK_ADD@			; `string'
PUBLIC	??_C@_0M@IFLCDNMF@DIK_NUMPAD1@			; `string'
PUBLIC	??_C@_0M@KOJPGOAG@DIK_NUMPAD2@			; `string'
PUBLIC	??_C@_0M@LHIEFPEH@DIK_NUMPAD3@			; `string'
PUBLIC	??_C@_0M@JMKJAMIE@DIK_NUMPAD0@			; `string'
PUBLIC	??_C@_0M@PCNKFDKI@DIK_DECIMAL@			; `string'
PUBLIC	??_C@_07GEMOPBGK@DIK_F11@			; `string'
PUBLIC	??_C@_07EPODKCKJ@DIK_F12@			; `string'
PUBLIC	??_C@_0O@DEOEEHEE@DIK_NEXTTRACK@		; `string'
PUBLIC	??_C@_0BA@OLMCJCJF@DIK_NUMPADENTER@		; `string'
PUBLIC	??_C@_0N@GKDJCKOL@DIK_RCONTROL@			; `string'
PUBLIC	??_C@_08KNIFKFHJ@DIK_MUTE@			; `string'
PUBLIC	??_C@_0P@OJEJDHIP@DIK_CALCULATOR@		; `string'
PUBLIC	??_C@_0O@ECAMOKPG@DIK_PLAYPAUSE@		; `string'
PUBLIC	??_C@_0O@FLFOAKOG@DIK_MEDIASTOP@		; `string'
PUBLIC	??_C@_0P@FKHBCEAD@DIK_VOLUMEDOWN@		; `string'
PUBLIC	??_C@_0N@GPHLGHED@DIK_VOLUMEUP@			; `string'
PUBLIC	??_C@_0M@IEADBFND@DIK_WEBHOME@			; `string'
PUBLIC	??_C@_0BA@ECBGFAAH@DIK_NUMPADCOMMA@		; `string'
PUBLIC	??_C@_0L@HDEGMNOK@DIK_DIVIDE@			; `string'
PUBLIC	??_C@_09PCEGCDIO@DIK_SYSRQ@			; `string'
PUBLIC	??_C@_08NBKCLEDK@DIK_RALT@			; `string'
PUBLIC	??_C@_09COEFGPNN@DIK_PAUSE@			; `string'
PUBLIC	??_C@_08EJDGAFAN@DIK_HOME@			; `string'
PUBLIC	??_C@_06JGABONOM@DIK_UP@			; `string'
PUBLIC	??_C@_08PJJCOFHN@DIK_PGUP@			; `string'
PUBLIC	??_C@_08IMIHIPFI@DIK_LEFT@			; `string'
PUBLIC	??_C@_09OKEHHFIC@DIK_RIGHT@			; `string'
PUBLIC	??_C@_07HLJOPMFK@DIK_END@			; `string'
PUBLIC	??_C@_08HOIDBHGB@DIK_DOWN@			; `string'
PUBLIC	??_C@_08DADHBDOF@DIK_PGDN@			; `string'
PUBLIC	??_C@_0L@MGNAFAII@DIK_INSERT@			; `string'
PUBLIC	??_C@_0L@HICEJOHK@DIK_DELETE@			; `string'
PUBLIC	??_C@_08MNOGKNKK@DIK_LWIN@			; `string'
PUBLIC	??_C@_08BCDGIEEJ@DIK_RWIN@			; `string'
PUBLIC	??_C@_08EEDKKFEB@DIK_APPS@			; `string'
PUBLIC	??_C@_06IOJAGNKJ@NORMAL@			; `string'
PUBLIC	??_C@_06JIJKOHKJ@ATTACK@			; `string'
PUBLIC	??_C@_06JNJLBPLI@TARGET@			; `string'
PUBLIC	??_C@_04LNOLLMNL@TALK@				; `string'
PUBLIC	??_C@_07LGCIEODJ@CANT_GO@			; `string'
PUBLIC	??_C@_04IGIDHFMJ@PICK@				; `string'
PUBLIC	??_C@_04KEJCELCL@DOOR@				; `string'
PUBLIC	??_C@_05HLBMIDNH@CHAIR@				; `string'
PUBLIC	??_C@_05DKLEPMBK@MAGIC@				; `string'
PUBLIC	??_C@_03OOKILKBD@BUY@				; `string'
PUBLIC	??_C@_04MPOIGBFL@SELL@				; `string'
PUBLIC	??_C@_0O@MAJOJEIM@CAMERA_ROTATE@		; `string'
PUBLIC	??_C@_05NILMGENH@HSIZE@				; `string'
PUBLIC	??_C@_05OBGAAHDM@VSIZE@				; `string'
PUBLIC	??_C@_06LKCKECPP@HVSIZE@			; `string'
PUBLIC	??_C@_04FOCIOHFI@FISH@				; `string'
PUBLIC	??_C@_0BD@BFBNCJCC@CAMERA_TO_POSITIVE@		; `string'
PUBLIC	??_C@_0BD@JPBNJGLJ@CAMERA_TO_NEGATIVE@		; `string'
PUBLIC	??_C@_0M@NJFGNKPE@CAMERA_STOP@			; `string'
PUBLIC	??_C@_0BG@NNONEOJP@ENABLE_COSTUME_SYSTEM@	; `string'
PUBLIC	??_C@_0BF@JNPGDOCA@ENABLE_ENERGY_SYSTEM@	; `string'
PUBLIC	??_C@_0BK@MHKPDOOB@ENABLE_DRAGON_SOUL_SYSTEM@	; `string'
PUBLIC	??_C@_0BM@LNFCINHP@ENABLE_NEW_EQUIPMENT_SYSTEM@	; `string'
PUBLIC	??_C@_0BJ@CLOLEGP@ENABLE_LOAD_INDEX_BINARY@	; `string'
PUBLIC	??_C@_0BG@EJHALOGN@ENABLE_CHANGE_CHANNEL@	; `string'
PUBLIC	??_C@_0BJ@EEABCGMI@ENABLE_GUILD_RANK_SYSTEM@	; `string'
PUBLIC	??_C@_0BN@HOIDIKJA@ENABLE_VIEW_TARGET_PLAYER_HP@ ; `string'
PUBLIC	??_C@_0BO@LEKLIGFK@ENABLE_VIEW_TARGET_DECIMAL_HP@ ; `string'
PUBLIC	??_C@_0BG@DNNPLDMM@ENABLE_MESSENGER_TEAM@	; `string'
PUBLIC	??_C@_0BL@ODDIDMFC@ENABLE_RENEWAL_DEAD_PACKET@	; `string'
PUBLIC	??_C@_0BE@FDIHPFHM@ENABLE_MAP_TELEPORT@		; `string'
PUBLIC	??_C@_0BG@KNGLICHO@ENABLE_RENEWAL_SHOPEX@	; `string'
PUBLIC	??_C@_0BG@CKLLJJNA@ENABLE_DESTROY_DIALOG@	; `string'
PUBLIC	??_C@_0P@KIOCPJHD@ENABLE_FOG_FIX@		; `string'
PUBLIC	??_C@_0BA@KEDCFOBK@ENABLE_ENB_MODE@		; `string'
PUBLIC	??_C@_0CB@FNCEEDIE@ENABLE_ENVIRONMENT_EFFECT_OPTIO@ ; `string'
PUBLIC	??_C@_0BG@FDOAIBIN@ENABLE_GRAPHIC_ON_OFF@	; `string'
PUBLIC	??_C@_0BE@EJKFNFHB@ENABLE_MOUNT_SYSTEM@		; `string'
PUBLIC	??_C@_0BC@CPOIIJIB@ENABLE_PET_SYSTEM@		; `string'
PUBLIC	??_C@_0BH@KGPICAGJ@ENABLE_COINS_INVENTORY@	; `string'
PUBLIC	??_C@_0BG@CKGFIAKE@ENABLE_SORT_INVENTORY@	; `string'
PUBLIC	??_C@_0BG@NAKAIPKG@ENABLE_INSTANT_PICKUP@	; `string'
PUBLIC	??_C@_0BI@DCKOBBOH@ENABLE_EXTENDED_SAFEBOX@	; `string'
PUBLIC	??_C@_0BH@LDLMBOCI@ENABLE_MESSENGER_BLOCK@	; `string'
PUBLIC	??_C@_0BF@ICCAGOLJ@ENABLE_RENEWAL_QUEST@	; `string'
PUBLIC	??_C@_0BH@IDDFPFEO@ENABLE_QUICK_SELL_ITEM@	; `string'
PUBLIC	??_C@_0BN@NNDEFGCP@ENABLE_MULTI_LANGUAGE_SYSTEM@ ; `string'
PUBLIC	??_C@_0P@EOFGLPDC@LOCALE_DEFAULT@		; `string'
PUBLIC	??_C@_09LPPKCIMI@LOCALE_EN@			; `string'
PUBLIC	??_C@_09LPIIKMHM@LOCALE_RO@			; `string'
PUBLIC	??_C@_09BFDKLDII@LOCALE_PT@			; `string'
PUBLIC	??_C@_09EAJGEENE@LOCALE_ES@			; `string'
PUBLIC	??_C@_09FLMLMLMM@LOCALE_FR@			; `string'
PUBLIC	??_C@_09FNMMJLDE@LOCALE_DE@			; `string'
PUBLIC	??_C@_09JHCBCLNB@LOCALE_PL@			; `string'
PUBLIC	??_C@_09GMNCLHH@LOCALE_IT@			; `string'
PUBLIC	??_C@_09JFNJIDCP@LOCALE_CZ@			; `string'
PUBLIC	??_C@_09BOBEHAAB@LOCALE_HU@			; `string'
PUBLIC	??_C@_09EEGJLMNC@LOCALE_TR@			; `string'
PUBLIC	??_C@_0P@EMLFCLHL@LOCALE_MAX_NUM@		; `string'
PUBLIC	??_C@_0CA@KPFJEDLP@ENABLE_EXTENDED_WHISPER_DETAILS@ ; `string'
PUBLIC	??_C@_0BL@HKIPHBEA@ENABLE_RENEWAL_BONUS_BOARD@	; `string'
PUBLIC	??_C@_0BC@IICODLAC@ENABLE_GOLD_LIMIT@		; `string'
PUBLIC	??_C@_0BN@HFPGHJNO@ENABLE_WEAPON_COSTUME_SYSTEM@ ; `string'
PUBLIC	??_C@_0BJ@OOFGBBFO@ENABLE_RENEWAL_SWITCHBOT@	; `string'
PUBLIC	??_C@_0BE@EHGLIKAL@ENABLE_RENEWAL_CUBE@		; `string'
PUBLIC	??_C@_0BO@PJBOGDHG@ENABLE_RENEWAL_CLIENT_VERSION@ ; `string'
PUBLIC	??_C@_0BK@JPEJEIPL@ENABLE_CLIENT_PERFORMANCE@	; `string'
PUBLIC	??_C@_0BM@OHBGEPCP@ENABLE_TELEPORT_TO_A_FRIEND@	; `string'
PUBLIC	??_C@_0BD@HDLIFGNJ@ENABLE_BLINK_ALERT@		; `string'
PUBLIC	??_C@_0BM@ILFELCEF@ENABLE_METIN_STONES_MINIMAP@	; `string'
PUBLIC	??_C@_0BD@FAICKCGG@ENABLE_AUTO_REFINE@		; `string'
PUBLIC	??_C@_0BF@LDJJKBCK@ENABLE_SHOW_MOB_INFO@	; `string'
PUBLIC	??_C@_0BD@CAANKIHI@ENABLE_DICE_SYSTEM@		; `string'
PUBLIC	??_C@_0BG@KGBOBIJP@ENABLE_MOUNT_PET_SKIN@	; `string'
PUBLIC	??_C@_0BG@OLFFBABC@ENABLE_PENDANT_SYSTEM@	; `string'
PUBLIC	??_C@_0BL@BJLHGOJN@ENABLE_HIDE_COSTUME_SYSTEM@	; `string'
PUBLIC	??_C@_0BL@KGNNLHIE@ENABLE_RENEWAL_SERVER_LIST@	; `string'
PUBLIC	??_C@_0CC@IABBIMPP@ENABLE_EXTEND_TIME_COSTUME_SYST@ ; `string'
PUBLIC	??_C@_0BL@HNDAJCHJ@ENABLE_ACCE_COSTUME_SYSTEM@	; `string'
PUBLIC	??_C@_0BG@MMGCEMF@ENABLE_ATTBONUS_METIN@	; `string'
PUBLIC	??_C@_0BF@OECKEMAD@ENABLE_BIOLOG_SYSTEM@	; `string'
PUBLIC	??_C@_0BF@BLNJFEGN@ENABLE_MOB_DROP_INFO@	; `string'
PUBLIC	??_C@_0BA@HPELNPOC@ENABLE_ANTI_EXP@		; `string'
PUBLIC	??_C@_0BH@ILAGBPOI@ENABLE_VIEW_CHEST_DROP@	; `string'
PUBLIC	??_C@_0BJ@CJJKOKPF@ENABLE_SPECIAL_INVENTORY@	; `string'
PUBLIC	??_C@_0BL@FPEGKCKL@ENABLE_RENEWAL_OFFLINESHOP@	; `string'
PUBLIC	??_C@_0BE@OLMKIFGM@ENABLE_TITLE_SYSTEM@		; `string'
PUBLIC	??_C@_0BF@LJNEAKLH@ENABLE_ATTBONUS_BOSS@	; `string'
PUBLIC	??_C@_0BF@GNPDFOI@ENABLE_RENDER_TARGET@		; `string'
PUBLIC	??_C@_0BF@CNEHOFGF@ENABLE_EVENT_MANAGER@	; `string'
PUBLIC	??_C@_0BH@KJKAIDCH@ENABLE_RESTART_INSTANT@	; `string'
PUBLIC	??_C@_0CC@BNACIKDA@ENABLE_MINIGAME_OKEY_CARDS_SYST@ ; `string'
PUBLIC	??_C@_0BL@DAICEAJE@ENABLE_RENEWAL_BATTLE_PASS@	; `string'
PUBLIC	??_C@_0BO@CKMKHAKF@ENABLE_MONSTER_TARGET_ELEMENT@ ; `string'
PUBLIC	??_C@_0BM@PGGEJJMI@ENABLE_RENEWAL_SPECIAL_CHAT@	; `string'
PUBLIC	??_C@_0BG@KFMPJIIL@ENABLE_RENEWAL_AFFECT@	; `string'
PUBLIC	??_C@_0BI@HBBBBDIM@ENABLE_MULTI_FARM_BLOCK@	; `string'
PUBLIC	??_C@_0BL@LDJNEEMG@ENABLE_RENEWAL_TEAM_AFFECT@	; `string'
PUBLIC	??_C@_0BK@PELLEIIK@ENABLE_SKILL_COLOR_SYSTEM@	; `string'
PUBLIC	??_C@_0BK@FIACKIGC@ENABLE_5LAYER_SKILL_COLOR@	; `string'
PUBLIC	??_C@_0BO@CMBODPKI@ENABLE_RENEWAL_PREMIUM_SYSTEM@ ; `string'
PUBLIC	??_C@_0BK@EJIGNKHE@ENABLE_INGAME_WIKI_SYSTEM@	; `string'
PUBLIC	??_C@_0BK@GBCANIGE@ENABLE_PICKUP_ITEM_EFFECT@	; `string'
PUBLIC	??_C@_0CB@FNOMIOEN@ENABLE_OFFLINESHOP_SEARCH_SYSTE@ ; `string'
PUBLIC	??_C@_0BI@JBGAMODN@ENABLE_RENEWAL_OX_EVENT@	; `string'
PUBLIC	??_C@_0BL@IKKFOHIL@ENABLE_RENEWAL_TEXT_SHADOW@	; `string'
PUBLIC	??_C@_0BC@OBOHBNHD@ENABLE_FOV_OPTION@		; `string'
PUBLIC	??_C@_0BL@PBGDFCNK@DEFAULT_CAMERA_PERSPECTIVE@	; `string'
PUBLIC	??_C@_0BH@OEJHPDJH@MIN_CAMERA_PERSPECTIVE@	; `string'
PUBLIC	??_C@_0BH@OAANMCLN@MAX_CAMERA_PERSPECTIVE@	; `string'
PUBLIC	??_C@_0CA@KGMEEFIE@ENABLE_AUTOMATIC_PICK_UP_SYSTEM@ ; `string'
PUBLIC	??_C@_0BK@PNCDPFFC@ENABLE_MAINTENANCE_SYSTEM@	; `string'
PUBLIC	??_C@_0BK@JCBGCFCM@ENABLE_STONE_SCALE_OPTION@	; `string'
PUBLIC	??_C@_0BM@BDDMCJJO@ENABLE_RENEWAL_SKILL_SELECT@	; `string'
PUBLIC	??_C@_0BG@PMMNBCCG@ENABLE_MULTI_TEXTLINE@	; `string'
PUBLIC	??_C@_0BM@NOHEAJFI@ENABLE_BONUS_COSTUME_SYSTEM@	; `string'
PUBLIC	??_C@_0BH@FCDBIIDC@ENABLE_NEW_DUNGEON_LIB@	; `string'
PUBLIC	??_C@_0BP@KCFNMKHN@ENABLE_RENEWAL_INGAME_ITEMSHOP@ ; `string'
PUBLIC	??_C@_0BL@HMHGNBFO@ENABLE_SLOT_MARKING_SYSTEM@	; `string'
PUBLIC	??_C@_0BL@EBFHGPFG@ENABLE_AURA_COSTUME_SYSTEM@	; `string'
PUBLIC	??_C@_0BI@CADHODAP@ENABLE_EMOTICONS_SYSTEM@	; `string'
PUBLIC	??_C@_0BB@KKFFHMIA@ENABLE_FISH_GAME@		; `string'
PUBLIC	??_C@_0BJ@HIBMPKIK@ENABLE_GROWTH_PET_SYSTEM@	; `string'
PUBLIC	??_C@_0CC@LOLPDHEJ@ENABLE_INVENTORY_EXPANSION_SYST@ ; `string'
PUBLIC	??_C@_0BM@HJJIIFBF@ENABLE_SHIP_DEFENCE_DUNGEON@	; `string'
PUBLIC	??_C@_0BP@ONDLCPPN@ENABLE_RENEWAL_TELEPORT_SYSTEM@ ; `string'
PUBLIC	??_C@_0BP@IJOGIGKN@ENABLE_DUNGEON_TRACKING_SYSTEM@ ; `string'
PUBLIC	??_C@_0BF@GGNLGGAH@ENABLE_RENEWAL_REGEN@	; `string'
PUBLIC	??_C@_0BK@MGBMNLOM@ENABLE_CHANGE_LOOK_SYSTEM@	; `string'
PUBLIC	??_C@_0BG@CFJKANLL@ENABLE_HUNTING_SYSTEM@	; `string'
PUBLIC	??_C@_0BE@LABOLOAG@ENABLE_CLIP_MASKING@		; `string'
PUBLIC	??_C@_0BG@BMPHLOIJ@ENABLE_STANDING_MOUNT@	; `string'
PUBLIC	??_C@_0BH@PDAGOKPA@WJ_SHOW_NPC_QUEST_NAME@	; `string'
PUBLIC	??_C@_0BD@IAJAIBNA@ENABLE_ATLAS_SCALE@		; `string'
PUBLIC	??_C@_0BH@INBDCPDJ@ENABLE_RIDING_EXTENDED@	; `string'
PUBLIC	??_C@_0BK@LOOMEPEL@ENABLE_SKILL_BOOK_READING@	; `string'
PUBLIC	??_C@_0BM@FOOFEPCE@ENABLE_SPIRIT_STONE_READING@	; `string'
PUBLIC	??_C@_0O@DMBEGOPB@__AUTO_HUNT__@		; `string'
PUBLIC	??_C@_0BI@PIMOMKMD@ENABLE_AUTO_SELL_SYSTEM@	; `string'
PUBLIC	??_C@_0BL@BNIJHNNL@ENABLE_GUILDRENEWAL_SYSTEM@	; `string'
PUBLIC	??_C@_0CC@CHCIKPC@ENABLE_SECOND_GUILDRENEWAL_SYST@ ; `string'
PUBLIC	??_C@_0BK@IDLKFBGN@ENABLE_GUILD_MARK_RENEWAL@	; `string'
PUBLIC	??_C@_0BM@IPJIOBJM@ENABLE_EXTENDED_GUILD_LEVEL@	; `string'
PUBLIC	??_C@_0BG@OKAPEAGA@ENABLE_MEDAL_OF_HONOR@	; `string'
PUBLIC	??_C@_0BP@DBLFCGOO@ENABLE_GUILD_DONATE_ATTENDANCE@ ; `string'
PUBLIC	??_C@_0BH@GDLNILPF@ENABLE_GUILD_WAR_SCORE@	; `string'
PUBLIC	??_C@_0BH@JGDAEBCD@ENABLE_GUILD_LAND_INFO@	; `string'
PUBLIC	??_C@_0BF@JFHNKELN@ENABLE_GUILDBANK_LOG@	; `string'
PUBLIC	??_C@_0BO@ONEKFDFA@ENABLE_NEW_WORLD_GUILDRENEWAL@ ; `string'
PUBLIC	??_C@_0BF@NJOHAOPJ@ENABLE_GUILD_REQUEST@	; `string'
PUBLIC	??_C@_0BO@FJLEKFLL@ENABLE_STYLE_ATTRIBUTE_SYSTEM@ ; `string'
PUBLIC	?ms_singleton@?$CSingleton@VCPythonLauncher@@@@0PAVCPythonLauncher@@A ; CSingleton<CPythonLauncher>::ms_singleton
PUBLIC	?ms_singleton@?$CSingleton@VCEterPackManager@@@@0PAVCEterPackManager@@A ; CSingleton<CEterPackManager>::ms_singleton
PUBLIC	?TWOHANDED_WEWAPON_ATT_SPEED_DECREASE_VALUE@@3HA ; TWOHANDED_WEWAPON_ATT_SPEED_DECREASE_VALUE
PUBLIC	?bVisibleNotice@@3HA				; bVisibleNotice
PUBLIC	?bTestServerFlag@@3HA				; bTestServerFlag
EXTRN	__imp__GetModuleFileNameA@12:PROC
EXTRN	_strstr:PROC
EXTRN	__imp__ShellExecuteA@24:PROC
EXTRN	?GetLineCount@CMemoryTextFileLoader@@QAEKXZ:PROC ; CMemoryTextFileLoader::GetLineCount
EXTRN	?GetLineString@CMemoryTextFileLoader@@QAEABV?$basic_string@DU?$char_traits@D@std@@V?$allocator@D@2@@std@@K@Z:PROC ; CMemoryTextFileLoader::GetLineString
EXTRN	?Bind@CMemoryTextFileLoader@@QAEXHPBX@Z:PROC	; CMemoryTextFileLoader::Bind
EXTRN	?Size@CMappedFile@@QAEKXZ:PROC			; CMappedFile::Size
EXTRN	??1CMappedFile@@UAE@XZ:PROC			; CMappedFile::~CMappedFile
EXTRN	?Get@CEterPackManager@@QAE_NAAVCMappedFile@@PBDPAPBX@Z:PROC ; CEterPackManager::Get
EXTRN	??1CMemoryTextFileLoader@@UAE@XZ:PROC		; CMemoryTextFileLoader::~CMemoryTextFileLoader
EXTRN	??0CMappedFile@@QAE@XZ:PROC			; CMappedFile::CMappedFile
EXTRN	?g_fSpecularColor@@3UD3DXCOLOR@@A:BYTE		; g_fSpecularColor
EXTRN	??0CMemoryTextFileLoader@@QAE@XZ:PROC		; CMemoryTextFileLoader::CMemoryTextFileLoader
EXTRN	?IsPressed@CInputKeyboard@@QAE_NH@Z:PROC	; CInputKeyboard::IsPressed
EXTRN	?SetResistance@CCamera@@QAEXM@Z:PROC		; CCamera::SetResistance
EXTRN	?GetAvailableTextureMemory@CGraphicBase@@SAKXZ:PROC ; CGraphicBase::GetAvailableTextureMemory
EXTRN	?RunFile@CPythonLauncher@@QAE_NPBD@Z:PROC	; CPythonLauncher::RunFile
EXTRN	?PyTuple_GetObject@@YA_NPAU_object@@HPAPAU1@@Z:PROC ; PyTuple_GetObject
EXTRN	__imp__FindClose@4:PROC
EXTRN	__imp__FindNextFileA@8:PROC
EXTRN	__imp__PyList_Append:PROC
EXTRN	__imp__PyString_FromString:PROC
EXTRN	__imp__FindFirstFileA@8:PROC
EXTRN	?isExist@CEterPackManager@@QAE_NPBD@Z:PROC	; CEterPackManager::isExist
EXTRN	__imp__PyList_New:PROC
EXTRN	__controlfp:PROC
EXTRN	_tea_decrypt:PROC
EXTRN	?SetCameraMaxDistance@CCamera@@SAXM@Z:PROC	; CCamera::SetCameraMaxDistance
EXTRN	?PyTuple_GetInteger@@YA_NPAU_object@@HPAH@Z:PROC ; PyTuple_GetInteger
EXTRN	?USE_WEAPON_SPECULAR@@3HA:DWORD			; USE_WEAPON_SPECULAR
EXTRN	?PyTuple_GetFloat@@YA_NPAU_object@@HPAM@Z:PROC	; PyTuple_GetFloat
EXTRN	__imp__PyInt_AsLong:PROC
EXTRN	__imp__PyTuple_GetItem:PROC
EXTRN	?PyTuple_GetString@@YA_NPAU_object@@HPAPAD@Z:PROC ; PyTuple_GetString
EXTRN	?random_range@@YAJJJ@Z:PROC			; random_range
;	COMDAT ?ms_singleton@?$CSingleton@VCPythonLauncher@@@@0PAVCPythonLauncher@@A
_BSS	SEGMENT
?ms_singleton@?$CSingleton@VCPythonLauncher@@@@0PAVCPythonLauncher@@A DD 01H DUP (?) ; CSingleton<CPythonLauncher>::ms_singleton
_BSS	ENDS
;	COMDAT ?ms_singleton@?$CSingleton@VCEterPackManager@@@@0PAVCEterPackManager@@A
_BSS	SEGMENT
?ms_singleton@?$CSingleton@VCEterPackManager@@@@0PAVCEterPackManager@@A DD 01H DUP (?) ; CSingleton<CEterPackManager>::ms_singleton
?TWOHANDED_WEWAPON_ATT_SPEED_DECREASE_VALUE@@3HA DD 01H DUP (?) ; TWOHANDED_WEWAPON_ATT_SPEED_DECREASE_VALUE
?bTestServerFlag@@3HA DD 01H DUP (?)			; bTestServerFlag
_BSS	ENDS
;	COMDAT ?key@?1??appLoadLocaleAddr@@YAPAU_object@@PAU2@0@Z@4QBEB
CONST	SEGMENT
?key@?1??appLoadLocaleAddr@@YAPAU_object@@PAU2@0@Z@4QBEB DB 082H ; `appLoadLocaleAddr'::`2'::key
	DB	01bH
	DB	034H
	DB	0aeH
	DB	012H
	DB	03bH
	DB	0fbH
	DB	017H
	DB	0d7H
	DB	02cH
	DB	039H
	DB	0aeH
	DB	041H
	DB	098H
	DB	0f1H
	DB	063H
CONST	ENDS
;	COMDAT ?s_methods@?1??initapp@@YAXXZ@4PAUPyMethodDef@@A
_DATA	SEGMENT
?s_methods@?1??initapp@@YAXXZ@4PAUPyMethodDef@@A DD FLAT:??_C@_0BG@EOCGHNJF@SetTextTailLivingTime@ ; `initapp'::`2'::s_methods
	DD	FLAT:?appSetTextTailLivingTime@@YAPAU_object@@PAU1@0@Z
	DD	01H
	ORG $+4
	DD	FLAT:??_C@_0BD@PILPKKLH@SetHairColorEnable@
	DD	FLAT:?appSetHairColorEnable@@YAPAU_object@@PAU1@0@Z
	DD	01H
	ORG $+4
	DD	FLAT:??_C@_0BH@PJOFIHBE@SetArmorSpecularEnable@
	DD	FLAT:?appSetArmorSpecularEnable@@YAPAU_object@@PAU1@0@Z
	DD	01H
	ORG $+4
	DD	FLAT:??_C@_0BI@ONHBEMJA@SetWeaponSpecularEnable@
	DD	FLAT:?appSetWeaponSpecularEnable@@YAPAU_object@@PAU1@0@Z
	DD	01H
	ORG $+4
	DD	FLAT:??_C@_0BM@CMPMDOBN@SetSkillEffectUpgradeEnable@
	DD	FLAT:?appSetSkillEffectUpgradeEnable@@YAPAU_object@@PAU1@0@Z
	DD	01H
	ORG $+4
	DD	FLAT:??_C@_0CI@KEKBEMLJ@SetTwoHandedWeaponAttSpeedDecre@
	DD	FLAT:?SetTwoHandedWeaponAttSpeedDecreaseValue@@YAPAU_object@@PAU1@0@Z
	DD	01H
	ORG $+4
	DD	FLAT:??_C@_0BD@CPFDKOFJ@SetRideHorseEnable@
	DD	FLAT:?appSetRideHorseEnable@@YAPAU_object@@PAU1@0@Z
	DD	01H
	ORG $+4
	DD	FLAT:??_C@_0BF@CEAHHILA@SetCameraMaxDistance@
	DD	FLAT:?appSetCameraMaxDistance@@YAPAU_object@@PAU1@0@Z
	DD	01H
	ORG $+4
	DD	FLAT:??_C@_09ILNFAENI@SetMinFog@
	DD	FLAT:?appSetMinFog@@YAPAU_object@@PAU1@0@Z
	DD	01H
	ORG $+4
	DD	FLAT:??_C@_0N@KCIEBLLG@SetFrameSkip@
	DD	FLAT:?appSetFrameSkip@@YAPAU_object@@PAU1@0@Z
	DD	01H
	ORG $+4
	DD	FLAT:??_C@_0N@CLLAGICL@GetImageInfo@
	DD	FLAT:?appGetImageInfo@@YAPAU_object@@PAU1@0@Z
	DD	01H
	ORG $+4
	DD	FLAT:??_C@_07NAJNLNAF@GetInfo@
	DD	FLAT:?appGetInfo@@YAPAU_object@@PAU1@0@Z
	DD	01H
	ORG $+4
	DD	FLAT:??_C@_0L@HMEHDBP@UpdateGame@
	DD	FLAT:?appUpdateGame@@YAPAU_object@@PAU1@0@Z
	DD	01H
	ORG $+4
	DD	FLAT:??_C@_0L@ONMMANJD@RenderGame@
	DD	FLAT:?appRenderGame@@YAPAU_object@@PAU1@0@Z
	DD	01H
	ORG $+4
	DD	FLAT:??_C@_04KLCPKPBE@Loop@
	DD	FLAT:?appLoop@@YAPAU_object@@PAU1@0@Z
	DD	01H
	ORG $+4
	DD	FLAT:??_C@_06MIKANEJK@Create@
	DD	FLAT:?appCreate@@YAPAU_object@@PAU1@0@Z
	DD	01H
	ORG $+4
	DD	FLAT:??_C@_07MNGBFJEN@Process@
	DD	FLAT:?appProcess@@YAPAU_object@@PAU1@0@Z
	DD	01H
	ORG $+4
	DD	FLAT:??_C@_04LBABLPF@Exit@
	DD	FLAT:?appExit@@YAPAU_object@@PAU1@0@Z
	DD	01H
	ORG $+4
	DD	FLAT:??_C@_05BGKIEECB@Abort@
	DD	FLAT:?appAbort@@YAPAU_object@@PAU1@0@Z
	DD	01H
	ORG $+4
	DD	FLAT:??_C@_0BA@PPCHHCMN@SetMouseHandler@
	DD	FLAT:?appSetMouseHandler@@YAPAU_object@@PAU1@0@Z
	DD	01H
	ORG $+4
	DD	FLAT:??_C@_0M@DHIFKLBN@IsExistFile@
	DD	FLAT:?appIsExistFile@@YAPAU_object@@PAU1@0@Z
	DD	01H
	ORG $+4
	DD	FLAT:??_C@_0M@KODKGGCI@GetFileList@
	DD	FLAT:?appGetFileList@@YAPAU_object@@PAU1@0@Z
	DD	01H
	ORG $+4
	DD	FLAT:??_C@_09IADKBAEN@SetCamera@
	DD	FLAT:?appSetCamera@@YAPAU_object@@PAU1@0@Z
	DD	01H
	ORG $+4
	DD	FLAT:??_C@_09KOHPDBNP@GetCamera@
	DD	FLAT:?appGetCamera@@YAPAU_object@@PAU1@0@Z
	DD	01H
	ORG $+4
	DD	FLAT:??_C@_0P@LHFPHHJA@GetCameraPitch@
	DD	FLAT:?appGetCameraPitch@@YAPAU_object@@PAU1@0@Z
	DD	01H
	ORG $+4
	DD	FLAT:??_C@_0BC@JICDJDCH@GetCameraRotation@
	DD	FLAT:?appGetCameraRotation@@YAPAU_object@@PAU1@0@Z
	DD	01H
	ORG $+4
	DD	FLAT:??_C@_07CDIANBOE@GetTime@
	DD	FLAT:?appGetTime@@YAPAU_object@@PAU1@0@Z
	DD	01H
	ORG $+4
	DD	FLAT:??_C@_0O@JKNDJHIN@GetGlobalTime@
	DD	FLAT:?appGetGlobalTime@@YAPAU_object@@PAU1@0@Z
	DD	01H
	ORG $+4
	DD	FLAT:??_C@_0BD@HGCMJHC@GetGlobalTimeStamp@
	DD	FLAT:?appGetGlobalTimeStamp@@YAPAU_object@@PAU1@0@Z
	DD	01H
	ORG $+4
	DD	FLAT:??_C@_0N@JKLFODAC@GetUpdateFPS@
	DD	FLAT:?appGetUpdateFPS@@YAPAU_object@@PAU1@0@Z
	DD	01H
	ORG $+4
	DD	FLAT:??_C@_0N@EHIMFGIG@GetRenderFPS@
	DD	FLAT:?appGetRenderFPS@@YAPAU_object@@PAU1@0@Z
	DD	01H
	ORG $+4
	DD	FLAT:??_C@_0N@HGIDFLAJ@RotateCamera@
	DD	FLAT:?appRotateCamera@@YAPAU_object@@PAU1@0@Z
	DD	01H
	ORG $+4
	DD	FLAT:??_C@_0M@PKAIAJKC@PitchCamera@
	DD	FLAT:?appPitchCamera@@YAPAU_object@@PAU1@0@Z
	DD	01H
	ORG $+4
	DD	FLAT:??_C@_0L@BGDDIOFP@ZoomCamera@
	DD	FLAT:?appZoomCamera@@YAPAU_object@@PAU1@0@Z
	DD	01H
	ORG $+4
	DD	FLAT:??_C@_0BC@FCGIGAKD@MovieRotateCamera@
	DD	FLAT:?appMovieRotateCamera@@YAPAU_object@@PAU1@0@Z
	DD	01H
	ORG $+4
	DD	FLAT:??_C@_0BB@KFJAAFFB@MoviePitchCamera@
	DD	FLAT:?appMoviePitchCamera@@YAPAU_object@@PAU1@0@Z
	DD	01H
	ORG $+4
	DD	FLAT:??_C@_0BA@ILLHHFGG@MovieZoomCamera@
	DD	FLAT:?appMovieZoomCamera@@YAPAU_object@@PAU1@0@Z
	DD	01H
	ORG $+4
	DD	FLAT:??_C@_0BB@PJGDEPJO@MovieResetCamera@
	DD	FLAT:?appMovieResetCamera@@YAPAU_object@@PAU1@0@Z
	DD	01H
	ORG $+4
	DD	FLAT:??_C@_0BK@PBNANFFG@GetAvailableTextureMemory@
	DD	FLAT:?appGetAvaiableTextureMememory@@YAPAU_object@@PAU1@0@Z
	DD	01H
	ORG $+4
	DD	FLAT:??_C@_0O@KFOAIOPC@GetRenderTime@
	DD	FLAT:?appGetRenderTime@@YAPAU_object@@PAU1@0@Z
	DD	01H
	ORG $+4
	DD	FLAT:??_C@_0O@EPOIPAHO@GetUpdateTime@
	DD	FLAT:?appGetUpdateTime@@YAPAU_object@@PAU1@0@Z
	DD	01H
	ORG $+4
	DD	FLAT:??_C@_07EGHKJKFO@GetLoad@
	DD	FLAT:?appGetLoad@@YAPAU_object@@PAU1@0@Z
	DD	01H
	ORG $+4
	DD	FLAT:??_C@_0N@KBJEAIDC@GetFaceSpeed@
	DD	FLAT:?appGetFaceSpeed@@YAPAU_object@@PAU1@0@Z
	DD	01H
	ORG $+4
	DD	FLAT:??_C@_0N@FGHMKANF@GetFaceCount@
	DD	FLAT:?appGetFaceCount@@YAPAU_object@@PAU1@0@Z
	DD	01H
	ORG $+4
	DD	FLAT:??_C@_06GHJACMIL@SetFPS@
	DD	FLAT:?appSetFPS@@YAPAU_object@@PAU1@0@Z
	DD	01H
	ORG $+4
	DD	FLAT:??_C@_0BI@BPPNOEKE@SetGlobalCenterPosition@
	DD	FLAT:?appSetGlobalCenterPosition@@YAPAU_object@@PAU1@0@Z
	DD	01H
	ORG $+4
	DD	FLAT:??_C@_0BC@MCKFCFLJ@SetCenterPosition@
	DD	FLAT:?appSetCenterPosition@@YAPAU_object@@PAU1@0@Z
	DD	01H
	ORG $+4
	DD	FLAT:??_C@_0BC@DJJGDMOB@GetCursorPosition@
	DD	FLAT:?appGetCursorPosition@@YAPAU_object@@PAU1@0@Z
	DD	01H
	ORG $+4
	DD	FLAT:??_C@_09CIIBMEDP@GetRandom@
	DD	FLAT:?appGetRandom@@YAPAU_object@@PAU1@0@Z
	DD	01H
	ORG $+4
	DD	FLAT:??_C@_0O@NFOAEJMI@RunPythonFile@
	DD	FLAT:?appRunPythonFile@@YAPAU_object@@PAU1@0@Z
	DD	01H
	ORG $+4
	DD	FLAT:??_C@_0O@JGKOEJBF@IsWebPageMode@
	DD	FLAT:?appIsWebPageMode@@YAPAU_object@@PAU1@0@Z
	DD	01H
	ORG $+4
	DD	FLAT:??_C@_0M@LMDMBNNG@ShowWebPage@
	DD	FLAT:?appShowWebPage@@YAPAU_object@@PAU1@0@Z
	DD	01H
	ORG $+4
	DD	FLAT:??_C@_0M@CJKDPGGC@MoveWebPage@
	DD	FLAT:?appMoveWebPage@@YAPAU_object@@PAU1@0@Z
	DD	01H
	ORG $+4
	DD	FLAT:??_C@_0M@HKOOBKOE@HideWebPage@
	DD	FLAT:?appHideWebPage@@YAPAU_object@@PAU1@0@Z
	DD	01H
	ORG $+4
	DD	FLAT:??_C@_09EJGJNKNL@IsPressed@
	DD	FLAT:?appIsPressed@@YAPAU_object@@PAU1@0@Z
	DD	01H
	ORG $+4
	DD	FLAT:??_C@_09PKKOCJGB@SetCursor@
	DD	FLAT:?appSetCursor@@YAPAU_object@@PAU1@0@Z
	DD	01H
	ORG $+4
	DD	FLAT:??_C@_09NEOLAIPD@GetCursor@
	DD	FLAT:?appGetCursor@@YAPAU_object@@PAU1@0@Z
	DD	01H
	ORG $+4
	DD	FLAT:??_C@_0L@BIENLPGM@ShowCursor@
	DD	FLAT:?appShowCursor@@YAPAU_object@@PAU1@0@Z
	DD	01H
	ORG $+4
	DD	FLAT:??_C@_0L@MGJDDPFG@HideCursor@
	DD	FLAT:?appHideCursor@@YAPAU_object@@PAU1@0@Z
	DD	01H
	ORG $+4
	DD	FLAT:??_C@_0N@BFHCIAEF@IsShowCursor@
	DD	FLAT:?appIsShowCursor@@YAPAU_object@@PAU1@0@Z
	DD	01H
	ORG $+4
	DD	FLAT:??_C@_0P@FMIDHOAE@IsLiarCursorOn@
	DD	FLAT:?appIsLiarCursorOn@@YAPAU_object@@PAU1@0@Z
	DD	01H
	ORG $+4
	DD	FLAT:??_C@_0BC@IDNDDKLI@SetSoftwareCursor@
	DD	FLAT:?appSetSoftwareCursor@@YAPAU_object@@PAU1@0@Z
	DD	01H
	ORG $+4
	DD	FLAT:??_C@_0BC@KKHIHHDJ@SetHardwareCursor@
	DD	FLAT:?appSetHardwareCursor@@YAPAU_object@@PAU1@0@Z
	DD	01H
	ORG $+4
	DD	FLAT:??_C@_0P@KJLEKPPL@SetConnectData@
	DD	FLAT:?appSetConnectData@@YAPAU_object@@PAU1@0@Z
	DD	01H
	ORG $+4
	DD	FLAT:??_C@_0P@GHKKFFNH@GetConnectData@
	DD	FLAT:?appGetConnectData@@YAPAU_object@@PAU1@0@Z
	DD	01H
	ORG $+4
	DD	FLAT:??_C@_0BF@IMHAMDDH@GetRotatingDirection@
	DD	FLAT:?appGetRotatingDirection@@YAPAU_object@@PAU1@0@Z
	DD	01H
	ORG $+4
	DD	FLAT:??_C@_0BE@JKNPCCAK@GetDegreeDifference@
	DD	FLAT:?appGetDegreeDifference@@YAPAU_object@@PAU1@0@Z
	DD	01H
	ORG $+4
	DD	FLAT:??_C@_05PFDOMJEF@Sleep@
	DD	FLAT:?appSleep@@YAPAU_object@@PAU1@0@Z
	DD	01H
	ORG $+4
	DD	FLAT:??_C@_0BD@CKMKHHJC@SetDefaultFontName@
	DD	FLAT:?appSetDefaultFontName@@YAPAU_object@@PAU1@0@Z
	DD	01H
	ORG $+4
	DD	FLAT:??_C@_0BD@CENDFAOC@SetGuildSymbolPath@
	DD	FLAT:?appSetGuildSymbolPath@@YAPAU_object@@PAU1@0@Z
	DD	01H
	ORG $+4
	DD	FLAT:??_C@_0BI@LNMJCGJN@EnableSpecialCameraMode@
	DD	FLAT:?appEnableSpecialCameraMode@@YAPAU_object@@PAU1@0@Z
	DD	01H
	ORG $+4
	DD	FLAT:??_C@_0P@NCLIAJKF@SetCameraSpeed@
	DD	FLAT:?appSetCameraSpeed@@YAPAU_object@@PAU1@0@Z
	DD	01H
	ORG $+4
	DD	FLAT:??_C@_0BC@JPDLAHCD@SaveCameraSetting@
	DD	FLAT:?appSaveCameraSetting@@YAPAU_object@@PAU1@0@Z
	DD	01H
	ORG $+4
	DD	FLAT:??_C@_0BC@KEOGBKMG@LoadCameraSetting@
	DD	FLAT:?appLoadCameraSetting@@YAPAU_object@@PAU1@0@Z
	DD	01H
	ORG $+4
	DD	FLAT:??_C@_0BB@IPPGJFKO@SetDefaultCamera@
	DD	FLAT:?appSetDefaultCamera@@YAPAU_object@@PAU1@0@Z
	DD	01H
	ORG $+4
	DD	FLAT:??_C@_0BB@JANPDNEC@SetCameraSetting@
	DD	FLAT:?appSetCameraSetting@@YAPAU_object@@PAU1@0@Z
	DD	01H
	ORG $+4
	DD	FLAT:??_C@_0O@MFMELJAK@SetSightRange@
	DD	FLAT:?appSetSightRange@@YAPAU_object@@PAU1@0@Z
	DD	01H
	ORG $+4
	DD	FLAT:??_C@_0M@LOHDPEAO@IsFileExist@
	DD	FLAT:?appIsFileExist@@YAPAU_object@@PAU1@0@Z
	DD	01H
	ORG $+4
	DD	FLAT:??_C@_0N@JAMKKFFG@OpenTextFile@
	DD	FLAT:?appOpenTextFile@@YAPAU_object@@PAU1@0@Z
	DD	01H
	ORG $+4
	DD	FLAT:??_C@_0O@LNEGOIPA@CloseTextFile@
	DD	FLAT:?appCloseTextFile@@YAPAU_object@@PAU1@0@Z
	DD	01H
	ORG $+4
	DD	FLAT:??_C@_0BF@BNHHEKFO@GetTextFileLineCount@
	DD	FLAT:?appGetTextFileLineCount@@YAPAU_object@@PAU1@0@Z
	DD	01H
	ORG $+4
	DD	FLAT:??_C@_0BA@HHNFKANE@GetTextFileLine@
	DD	FLAT:?appGetTextFileLine@@YAPAU_object@@PAU1@0@Z
	DD	01H
	ORG $+4
	DD	FLAT:??_C@_0O@JDECMIPJ@GetLocaleName@
	DD	FLAT:?appGetLocaleName@@YAPAU_object@@PAU1@0@Z
	DD	01H
	ORG $+4
	DD	FLAT:??_C@_0O@OKMLAHKI@GetLocalePath@
	DD	FLAT:?appGetLocalePath@@YAPAU_object@@PAU1@0@Z
	DD	01H
	ORG $+4
	DD	FLAT:??_C@_0P@JHGEFJDO@LoadLocaleAddr@
	DD	FLAT:?appLoadLocaleAddr@@YAPAU_object@@PAU1@0@Z
	DD	01H
	ORG $+4
	DD	FLAT:??_C@_0P@BFJDMEJO@LoadLocaleData@
	DD	FLAT:?appLoadLocaleData@@YAPAU_object@@PAU1@0@Z
	DD	01H
	ORG $+4
	DD	FLAT:??_C@_0BD@CEMKCGHA@GetDefaultCodePage@
	DD	FLAT:?appGetDefaultCodePage@@YAPAU_object@@PAU1@0@Z
	DD	01H
	ORG $+4
	DD	FLAT:??_C@_0N@HDAEMEAH@SetControlFP@
	DD	FLAT:?appSetControlFP@@YAPAU_object@@PAU1@0@Z
	DD	01H
	ORG $+4
	DD	FLAT:??_C@_0BB@IFMAFIHG@SetSpecularSpeed@
	DD	FLAT:?appSetSpecularSpeed@@YAPAU_object@@PAU1@0@Z
	DD	01H
	ORG $+4
	DD	FLAT:??_C@_0BI@DNKBNLNC@testGetAccumulationTime@
	DD	FLAT:?apptestGetAccumulationTime@@YAPAU_object@@PAU1@0@Z
	DD	01H
	ORG $+4
	DD	FLAT:??_C@_0BK@PLDHJGMN@testResetAccumulationTime@
	DD	FLAT:?apptestResetAccumulationTime@@YAPAU_object@@PAU1@0@Z
	DD	01H
	ORG $+4
	DD	FLAT:??_C@_0BF@KHKICLKO@testSetSpecularColor@
	DD	FLAT:?apptestSetSpecularColor@@YAPAU_object@@PAU1@0@Z
	DD	01H
	ORG $+4
	DD	FLAT:??_C@_0BB@MMPIECKB@SetVisibleNotice@
	DD	FLAT:?appSetVisibleNotice@@YAPAU_object@@PAU1@0@Z
	DD	01H
	ORG $+4
	DD	FLAT:??_C@_0BA@NLDNPIOL@IsVisibleNotice@
	DD	FLAT:?appIsVisibleNotice@@YAPAU_object@@PAU1@0@Z
	DD	01H
	ORG $+4
	DD	FLAT:??_C@_0BF@BOMOCGIP@EnableTestServerFlag@
	DD	FLAT:?appEnableTestServerFlag@@YAPAU_object@@PAU1@0@Z
	DD	01H
	ORG $+4
	DD	FLAT:??_C@_0BH@GBDECBIH@IsEnableTestServerFlag@
	DD	FLAT:?appIsEnableTestServerFlag@@YAPAU_object@@PAU1@0@Z
	DD	01H
	ORG $+4
	DD	FLAT:??_C@_0BB@DLDOCGLL@SetGuildMarkPath@
	DD	FLAT:?appSetGuildMarkPath@@YAPAU_object@@PAU1@0@Z
	DD	01H
	ORG $+4
	DD	FLAT:??_C@_0N@LIPHBNAO@OnLogoUpdate@
	DD	FLAT:?appLogoUpdate@@YAPAU_object@@PAU1@0@Z
	DD	01H
	ORG $+4
	DD	FLAT:??_C@_0N@ELECBFOK@OnLogoRender@
	DD	FLAT:?appLogoRender@@YAPAU_object@@PAU1@0@Z
	DD	01H
	ORG $+4
	DD	FLAT:??_C@_0L@JMMGDKPP@OnLogoOpen@
	DD	FLAT:?appLogoOpen@@YAPAU_object@@PAU1@0@Z
	DD	01H
	ORG $+4
	DD	FLAT:??_C@_0M@JMIFNMOK@OnLogoClose@
	DD	FLAT:?appLogoClose@@YAPAU_object@@PAU1@0@Z
	DD	01H
	ORG $+4
	DD	FLAT:??_C@_0N@BFFIJKHB@ShellExecute@
	DD	FLAT:?appShellExecute@@YAPAU_object@@PAU1@0@Z
	DD	01H
	ORG $+4
	DD	FLAT:??_C@_0P@BCNBBHFI@OpenWebBrowser@
	DD	FLAT:?appOpenWebBrowser@@YAPAU_object@@PAU1@0@Z
	DD	01H
	ORG $+4
	DD	FLAT:??_C@_07MMGEHGCI@GetName@
	DD	FLAT:?appGetName@@YAPAU_object@@PAU1@0@Z
	DD	01H
	ORG $+4
	DD	FLAT:??_C@_09OPOGDJM@SetLocale@
	DD	FLAT:?appSetLocale@@YAPAU_object@@PAU1@0@Z
	DD	01H
	ORG $+4
	DD	FLAT:??_C@_09CALLECAO@GetLocale@
	DD	FLAT:?appGetLocale@@YAPAU_object@@PAU1@0@Z
	DD	01H
	ORG $+4
	DD	FLAT:??_C@_0BB@DGBLNILG@FlashApplication@
	DD	FLAT:?appFlashApplication@@YAPAU_object@@PAU1@0@Z
	DD	01H
	ORG $+4
	DD	FLAT:??_C@_0BE@LJAANCDG@SetMultiFarmExeIcon@
	DD	FLAT:?appSetMultiFarmExeIcon@@YAPAU_object@@PAU1@0@Z
	DD	01H
	ORG $+4
	DD	00H
	DD	00H
	ORG $+8
_DATA	ENDS
;	COMDAT ??_C@_0BO@FJLEKFLL@ENABLE_STYLE_ATTRIBUTE_SYSTEM@
CONST	SEGMENT
??_C@_0BO@FJLEKFLL@ENABLE_STYLE_ATTRIBUTE_SYSTEM@ DB 'ENABLE_STYLE_ATTRIB'
	DB	'UTE_SYSTEM', 00H				; `string'
CONST	ENDS
;	COMDAT ??_C@_0BF@NJOHAOPJ@ENABLE_GUILD_REQUEST@
CONST	SEGMENT
??_C@_0BF@NJOHAOPJ@ENABLE_GUILD_REQUEST@ DB 'ENABLE_GUILD_REQUEST', 00H ; `string'
CONST	ENDS
;	COMDAT ??_C@_0BO@ONEKFDFA@ENABLE_NEW_WORLD_GUILDRENEWAL@
CONST	SEGMENT
??_C@_0BO@ONEKFDFA@ENABLE_NEW_WORLD_GUILDRENEWAL@ DB 'ENABLE_NEW_WORLD_GU'
	DB	'ILDRENEWAL', 00H				; `string'
CONST	ENDS
;	COMDAT ??_C@_0BF@JFHNKELN@ENABLE_GUILDBANK_LOG@
CONST	SEGMENT
??_C@_0BF@JFHNKELN@ENABLE_GUILDBANK_LOG@ DB 'ENABLE_GUILDBANK_LOG', 00H ; `string'
CONST	ENDS
;	COMDAT ??_C@_0BH@JGDAEBCD@ENABLE_GUILD_LAND_INFO@
CONST	SEGMENT
??_C@_0BH@JGDAEBCD@ENABLE_GUILD_LAND_INFO@ DB 'ENABLE_GUILD_LAND_INFO', 00H ; `string'
CONST	ENDS
;	COMDAT ??_C@_0BH@GDLNILPF@ENABLE_GUILD_WAR_SCORE@
CONST	SEGMENT
??_C@_0BH@GDLNILPF@ENABLE_GUILD_WAR_SCORE@ DB 'ENABLE_GUILD_WAR_SCORE', 00H ; `string'
CONST	ENDS
;	COMDAT ??_C@_0BP@DBLFCGOO@ENABLE_GUILD_DONATE_ATTENDANCE@
CONST	SEGMENT
??_C@_0BP@DBLFCGOO@ENABLE_GUILD_DONATE_ATTENDANCE@ DB 'ENABLE_GUILD_DONAT'
	DB	'E_ATTENDANCE', 00H				; `string'
CONST	ENDS
;	COMDAT ??_C@_0BG@OKAPEAGA@ENABLE_MEDAL_OF_HONOR@
CONST	SEGMENT
??_C@_0BG@OKAPEAGA@ENABLE_MEDAL_OF_HONOR@ DB 'ENABLE_MEDAL_OF_HONOR', 00H ; `string'
CONST	ENDS
;	COMDAT ??_C@_0BM@IPJIOBJM@ENABLE_EXTENDED_GUILD_LEVEL@
CONST	SEGMENT
??_C@_0BM@IPJIOBJM@ENABLE_EXTENDED_GUILD_LEVEL@ DB 'ENABLE_EXTENDED_GUILD'
	DB	'_LEVEL', 00H				; `string'
CONST	ENDS
;	COMDAT ??_C@_0BK@IDLKFBGN@ENABLE_GUILD_MARK_RENEWAL@
CONST	SEGMENT
??_C@_0BK@IDLKFBGN@ENABLE_GUILD_MARK_RENEWAL@ DB 'ENABLE_GUILD_MARK_RENEW'
	DB	'AL', 00H					; `string'
CONST	ENDS
;	COMDAT ??_C@_0CC@CHCIKPC@ENABLE_SECOND_GUILDRENEWAL_SYST@
CONST	SEGMENT
??_C@_0CC@CHCIKPC@ENABLE_SECOND_GUILDRENEWAL_SYST@ DB 'ENABLE_SECOND_GUIL'
	DB	'DRENEWAL_SYSTEM', 00H			; `string'
CONST	ENDS
;	COMDAT ??_C@_0BL@BNIJHNNL@ENABLE_GUILDRENEWAL_SYSTEM@
CONST	SEGMENT
??_C@_0BL@BNIJHNNL@ENABLE_GUILDRENEWAL_SYSTEM@ DB 'ENABLE_GUILDRENEWAL_SY'
	DB	'STEM', 00H					; `string'
CONST	ENDS
;	COMDAT ??_C@_0BI@PIMOMKMD@ENABLE_AUTO_SELL_SYSTEM@
CONST	SEGMENT
??_C@_0BI@PIMOMKMD@ENABLE_AUTO_SELL_SYSTEM@ DB 'ENABLE_AUTO_SELL_SYSTEM', 00H ; `string'
CONST	ENDS
;	COMDAT ??_C@_0O@DMBEGOPB@__AUTO_HUNT__@
CONST	SEGMENT
??_C@_0O@DMBEGOPB@__AUTO_HUNT__@ DB '__AUTO_HUNT__', 00H ; `string'
CONST	ENDS
;	COMDAT ??_C@_0BM@FOOFEPCE@ENABLE_SPIRIT_STONE_READING@
CONST	SEGMENT
??_C@_0BM@FOOFEPCE@ENABLE_SPIRIT_STONE_READING@ DB 'ENABLE_SPIRIT_STONE_R'
	DB	'EADING', 00H				; `string'
CONST	ENDS
;	COMDAT ??_C@_0BK@LOOMEPEL@ENABLE_SKILL_BOOK_READING@
CONST	SEGMENT
??_C@_0BK@LOOMEPEL@ENABLE_SKILL_BOOK_READING@ DB 'ENABLE_SKILL_BOOK_READI'
	DB	'NG', 00H					; `string'
CONST	ENDS
;	COMDAT ??_C@_0BH@INBDCPDJ@ENABLE_RIDING_EXTENDED@
CONST	SEGMENT
??_C@_0BH@INBDCPDJ@ENABLE_RIDING_EXTENDED@ DB 'ENABLE_RIDING_EXTENDED', 00H ; `string'
CONST	ENDS
;	COMDAT ??_C@_0BD@IAJAIBNA@ENABLE_ATLAS_SCALE@
CONST	SEGMENT
??_C@_0BD@IAJAIBNA@ENABLE_ATLAS_SCALE@ DB 'ENABLE_ATLAS_SCALE', 00H ; `string'
CONST	ENDS
;	COMDAT ??_C@_0BH@PDAGOKPA@WJ_SHOW_NPC_QUEST_NAME@
CONST	SEGMENT
??_C@_0BH@PDAGOKPA@WJ_SHOW_NPC_QUEST_NAME@ DB 'WJ_SHOW_NPC_QUEST_NAME', 00H ; `string'
CONST	ENDS
;	COMDAT ??_C@_0BG@BMPHLOIJ@ENABLE_STANDING_MOUNT@
CONST	SEGMENT
??_C@_0BG@BMPHLOIJ@ENABLE_STANDING_MOUNT@ DB 'ENABLE_STANDING_MOUNT', 00H ; `string'
CONST	ENDS
;	COMDAT ??_C@_0BE@LABOLOAG@ENABLE_CLIP_MASKING@
CONST	SEGMENT
??_C@_0BE@LABOLOAG@ENABLE_CLIP_MASKING@ DB 'ENABLE_CLIP_MASKING', 00H ; `string'
CONST	ENDS
;	COMDAT ??_C@_0BG@CFJKANLL@ENABLE_HUNTING_SYSTEM@
CONST	SEGMENT
??_C@_0BG@CFJKANLL@ENABLE_HUNTING_SYSTEM@ DB 'ENABLE_HUNTING_SYSTEM', 00H ; `string'
CONST	ENDS
;	COMDAT ??_C@_0BK@MGBMNLOM@ENABLE_CHANGE_LOOK_SYSTEM@
CONST	SEGMENT
??_C@_0BK@MGBMNLOM@ENABLE_CHANGE_LOOK_SYSTEM@ DB 'ENABLE_CHANGE_LOOK_SYST'
	DB	'EM', 00H					; `string'
CONST	ENDS
;	COMDAT ??_C@_0BF@GGNLGGAH@ENABLE_RENEWAL_REGEN@
CONST	SEGMENT
??_C@_0BF@GGNLGGAH@ENABLE_RENEWAL_REGEN@ DB 'ENABLE_RENEWAL_REGEN', 00H ; `string'
CONST	ENDS
;	COMDAT ??_C@_0BP@IJOGIGKN@ENABLE_DUNGEON_TRACKING_SYSTEM@
CONST	SEGMENT
??_C@_0BP@IJOGIGKN@ENABLE_DUNGEON_TRACKING_SYSTEM@ DB 'ENABLE_DUNGEON_TRA'
	DB	'CKING_SYSTEM', 00H				; `string'
CONST	ENDS
;	COMDAT ??_C@_0BP@ONDLCPPN@ENABLE_RENEWAL_TELEPORT_SYSTEM@
CONST	SEGMENT
??_C@_0BP@ONDLCPPN@ENABLE_RENEWAL_TELEPORT_SYSTEM@ DB 'ENABLE_RENEWAL_TEL'
	DB	'EPORT_SYSTEM', 00H				; `string'
CONST	ENDS
;	COMDAT ??_C@_0BM@HJJIIFBF@ENABLE_SHIP_DEFENCE_DUNGEON@
CONST	SEGMENT
??_C@_0BM@HJJIIFBF@ENABLE_SHIP_DEFENCE_DUNGEON@ DB 'ENABLE_SHIP_DEFENCE_D'
	DB	'UNGEON', 00H				; `string'
CONST	ENDS
;	COMDAT ??_C@_0CC@LOLPDHEJ@ENABLE_INVENTORY_EXPANSION_SYST@
CONST	SEGMENT
??_C@_0CC@LOLPDHEJ@ENABLE_INVENTORY_EXPANSION_SYST@ DB 'ENABLE_INVENTORY_'
	DB	'EXPANSION_SYSTEM', 00H			; `string'
CONST	ENDS
;	COMDAT ??_C@_0BJ@HIBMPKIK@ENABLE_GROWTH_PET_SYSTEM@
CONST	SEGMENT
??_C@_0BJ@HIBMPKIK@ENABLE_GROWTH_PET_SYSTEM@ DB 'ENABLE_GROWTH_PET_SYSTEM'
	DB	00H						; `string'
CONST	ENDS
;	COMDAT ??_C@_0BB@KKFFHMIA@ENABLE_FISH_GAME@
CONST	SEGMENT
??_C@_0BB@KKFFHMIA@ENABLE_FISH_GAME@ DB 'ENABLE_FISH_GAME', 00H ; `string'
CONST	ENDS
;	COMDAT ??_C@_0BI@CADHODAP@ENABLE_EMOTICONS_SYSTEM@
CONST	SEGMENT
??_C@_0BI@CADHODAP@ENABLE_EMOTICONS_SYSTEM@ DB 'ENABLE_EMOTICONS_SYSTEM', 00H ; `string'
CONST	ENDS
;	COMDAT ??_C@_0BL@EBFHGPFG@ENABLE_AURA_COSTUME_SYSTEM@
CONST	SEGMENT
??_C@_0BL@EBFHGPFG@ENABLE_AURA_COSTUME_SYSTEM@ DB 'ENABLE_AURA_COSTUME_SY'
	DB	'STEM', 00H					; `string'
CONST	ENDS
;	COMDAT ??_C@_0BL@HMHGNBFO@ENABLE_SLOT_MARKING_SYSTEM@
CONST	SEGMENT
??_C@_0BL@HMHGNBFO@ENABLE_SLOT_MARKING_SYSTEM@ DB 'ENABLE_SLOT_MARKING_SY'
	DB	'STEM', 00H					; `string'
CONST	ENDS
;	COMDAT ??_C@_0BP@KCFNMKHN@ENABLE_RENEWAL_INGAME_ITEMSHOP@
CONST	SEGMENT
??_C@_0BP@KCFNMKHN@ENABLE_RENEWAL_INGAME_ITEMSHOP@ DB 'ENABLE_RENEWAL_ING'
	DB	'AME_ITEMSHOP', 00H				; `string'
CONST	ENDS
;	COMDAT ??_C@_0BH@FCDBIIDC@ENABLE_NEW_DUNGEON_LIB@
CONST	SEGMENT
??_C@_0BH@FCDBIIDC@ENABLE_NEW_DUNGEON_LIB@ DB 'ENABLE_NEW_DUNGEON_LIB', 00H ; `string'
CONST	ENDS
;	COMDAT ??_C@_0BM@NOHEAJFI@ENABLE_BONUS_COSTUME_SYSTEM@
CONST	SEGMENT
??_C@_0BM@NOHEAJFI@ENABLE_BONUS_COSTUME_SYSTEM@ DB 'ENABLE_BONUS_COSTUME_'
	DB	'SYSTEM', 00H				; `string'
CONST	ENDS
;	COMDAT ??_C@_0BG@PMMNBCCG@ENABLE_MULTI_TEXTLINE@
CONST	SEGMENT
??_C@_0BG@PMMNBCCG@ENABLE_MULTI_TEXTLINE@ DB 'ENABLE_MULTI_TEXTLINE', 00H ; `string'
CONST	ENDS
;	COMDAT ??_C@_0BM@BDDMCJJO@ENABLE_RENEWAL_SKILL_SELECT@
CONST	SEGMENT
??_C@_0BM@BDDMCJJO@ENABLE_RENEWAL_SKILL_SELECT@ DB 'ENABLE_RENEWAL_SKILL_'
	DB	'SELECT', 00H				; `string'
CONST	ENDS
;	COMDAT ??_C@_0BK@JCBGCFCM@ENABLE_STONE_SCALE_OPTION@
CONST	SEGMENT
??_C@_0BK@JCBGCFCM@ENABLE_STONE_SCALE_OPTION@ DB 'ENABLE_STONE_SCALE_OPTI'
	DB	'ON', 00H					; `string'
CONST	ENDS
;	COMDAT ??_C@_0BK@PNCDPFFC@ENABLE_MAINTENANCE_SYSTEM@
CONST	SEGMENT
??_C@_0BK@PNCDPFFC@ENABLE_MAINTENANCE_SYSTEM@ DB 'ENABLE_MAINTENANCE_SYST'
	DB	'EM', 00H					; `string'
CONST	ENDS
;	COMDAT ??_C@_0CA@KGMEEFIE@ENABLE_AUTOMATIC_PICK_UP_SYSTEM@
CONST	SEGMENT
??_C@_0CA@KGMEEFIE@ENABLE_AUTOMATIC_PICK_UP_SYSTEM@ DB 'ENABLE_AUTOMATIC_'
	DB	'PICK_UP_SYSTEM', 00H			; `string'
CONST	ENDS
;	COMDAT ??_C@_0BH@OAANMCLN@MAX_CAMERA_PERSPECTIVE@
CONST	SEGMENT
??_C@_0BH@OAANMCLN@MAX_CAMERA_PERSPECTIVE@ DB 'MAX_CAMERA_PERSPECTIVE', 00H ; `string'
CONST	ENDS
;	COMDAT ??_C@_0BH@OEJHPDJH@MIN_CAMERA_PERSPECTIVE@
CONST	SEGMENT
??_C@_0BH@OEJHPDJH@MIN_CAMERA_PERSPECTIVE@ DB 'MIN_CAMERA_PERSPECTIVE', 00H ; `string'
CONST	ENDS
;	COMDAT ??_C@_0BL@PBGDFCNK@DEFAULT_CAMERA_PERSPECTIVE@
CONST	SEGMENT
??_C@_0BL@PBGDFCNK@DEFAULT_CAMERA_PERSPECTIVE@ DB 'DEFAULT_CAMERA_PERSPEC'
	DB	'TIVE', 00H					; `string'
CONST	ENDS
;	COMDAT ??_C@_0BC@OBOHBNHD@ENABLE_FOV_OPTION@
CONST	SEGMENT
??_C@_0BC@OBOHBNHD@ENABLE_FOV_OPTION@ DB 'ENABLE_FOV_OPTION', 00H ; `string'
CONST	ENDS
;	COMDAT ??_C@_0BL@IKKFOHIL@ENABLE_RENEWAL_TEXT_SHADOW@
CONST	SEGMENT
??_C@_0BL@IKKFOHIL@ENABLE_RENEWAL_TEXT_SHADOW@ DB 'ENABLE_RENEWAL_TEXT_SH'
	DB	'ADOW', 00H					; `string'
CONST	ENDS
;	COMDAT ??_C@_0BI@JBGAMODN@ENABLE_RENEWAL_OX_EVENT@
CONST	SEGMENT
??_C@_0BI@JBGAMODN@ENABLE_RENEWAL_OX_EVENT@ DB 'ENABLE_RENEWAL_OX_EVENT', 00H ; `string'
CONST	ENDS
;	COMDAT ??_C@_0CB@FNOMIOEN@ENABLE_OFFLINESHOP_SEARCH_SYSTE@
CONST	SEGMENT
??_C@_0CB@FNOMIOEN@ENABLE_OFFLINESHOP_SEARCH_SYSTE@ DB 'ENABLE_OFFLINESHO'
	DB	'P_SEARCH_SYSTEM', 00H			; `string'
CONST	ENDS
;	COMDAT ??_C@_0BK@GBCANIGE@ENABLE_PICKUP_ITEM_EFFECT@
CONST	SEGMENT
??_C@_0BK@GBCANIGE@ENABLE_PICKUP_ITEM_EFFECT@ DB 'ENABLE_PICKUP_ITEM_EFFE'
	DB	'CT', 00H					; `string'
CONST	ENDS
;	COMDAT ??_C@_0BK@EJIGNKHE@ENABLE_INGAME_WIKI_SYSTEM@
CONST	SEGMENT
??_C@_0BK@EJIGNKHE@ENABLE_INGAME_WIKI_SYSTEM@ DB 'ENABLE_INGAME_WIKI_SYST'
	DB	'EM', 00H					; `string'
CONST	ENDS
;	COMDAT ??_C@_0BO@CMBODPKI@ENABLE_RENEWAL_PREMIUM_SYSTEM@
CONST	SEGMENT
??_C@_0BO@CMBODPKI@ENABLE_RENEWAL_PREMIUM_SYSTEM@ DB 'ENABLE_RENEWAL_PREM'
	DB	'IUM_SYSTEM', 00H				; `string'
CONST	ENDS
;	COMDAT ??_C@_0BK@FIACKIGC@ENABLE_5LAYER_SKILL_COLOR@
CONST	SEGMENT
??_C@_0BK@FIACKIGC@ENABLE_5LAYER_SKILL_COLOR@ DB 'ENABLE_5LAYER_SKILL_COL'
	DB	'OR', 00H					; `string'
CONST	ENDS
;	COMDAT ??_C@_0BK@PELLEIIK@ENABLE_SKILL_COLOR_SYSTEM@
CONST	SEGMENT
??_C@_0BK@PELLEIIK@ENABLE_SKILL_COLOR_SYSTEM@ DB 'ENABLE_SKILL_COLOR_SYST'
	DB	'EM', 00H					; `string'
CONST	ENDS
;	COMDAT ??_C@_0BL@LDJNEEMG@ENABLE_RENEWAL_TEAM_AFFECT@
CONST	SEGMENT
??_C@_0BL@LDJNEEMG@ENABLE_RENEWAL_TEAM_AFFECT@ DB 'ENABLE_RENEWAL_TEAM_AF'
	DB	'FECT', 00H					; `string'
CONST	ENDS
;	COMDAT ??_C@_0BI@HBBBBDIM@ENABLE_MULTI_FARM_BLOCK@
CONST	SEGMENT
??_C@_0BI@HBBBBDIM@ENABLE_MULTI_FARM_BLOCK@ DB 'ENABLE_MULTI_FARM_BLOCK', 00H ; `string'
CONST	ENDS
;	COMDAT ??_C@_0BG@KFMPJIIL@ENABLE_RENEWAL_AFFECT@
CONST	SEGMENT
??_C@_0BG@KFMPJIIL@ENABLE_RENEWAL_AFFECT@ DB 'ENABLE_RENEWAL_AFFECT', 00H ; `string'
CONST	ENDS
;	COMDAT ??_C@_0BM@PGGEJJMI@ENABLE_RENEWAL_SPECIAL_CHAT@
CONST	SEGMENT
??_C@_0BM@PGGEJJMI@ENABLE_RENEWAL_SPECIAL_CHAT@ DB 'ENABLE_RENEWAL_SPECIA'
	DB	'L_CHAT', 00H				; `string'
CONST	ENDS
;	COMDAT ??_C@_0BO@CKMKHAKF@ENABLE_MONSTER_TARGET_ELEMENT@
CONST	SEGMENT
??_C@_0BO@CKMKHAKF@ENABLE_MONSTER_TARGET_ELEMENT@ DB 'ENABLE_MONSTER_TARG'
	DB	'ET_ELEMENT', 00H				; `string'
CONST	ENDS
;	COMDAT ??_C@_0BL@DAICEAJE@ENABLE_RENEWAL_BATTLE_PASS@
CONST	SEGMENT
??_C@_0BL@DAICEAJE@ENABLE_RENEWAL_BATTLE_PASS@ DB 'ENABLE_RENEWAL_BATTLE_'
	DB	'PASS', 00H					; `string'
CONST	ENDS
;	COMDAT ??_C@_0CC@BNACIKDA@ENABLE_MINIGAME_OKEY_CARDS_SYST@
CONST	SEGMENT
??_C@_0CC@BNACIKDA@ENABLE_MINIGAME_OKEY_CARDS_SYST@ DB 'ENABLE_MINIGAME_O'
	DB	'KEY_CARDS_SYSTEM', 00H			; `string'
CONST	ENDS
;	COMDAT ??_C@_0BH@KJKAIDCH@ENABLE_RESTART_INSTANT@
CONST	SEGMENT
??_C@_0BH@KJKAIDCH@ENABLE_RESTART_INSTANT@ DB 'ENABLE_RESTART_INSTANT', 00H ; `string'
CONST	ENDS
;	COMDAT ??_C@_0BF@CNEHOFGF@ENABLE_EVENT_MANAGER@
CONST	SEGMENT
??_C@_0BF@CNEHOFGF@ENABLE_EVENT_MANAGER@ DB 'ENABLE_EVENT_MANAGER', 00H ; `string'
CONST	ENDS
;	COMDAT ??_C@_0BF@GNPDFOI@ENABLE_RENDER_TARGET@
CONST	SEGMENT
??_C@_0BF@GNPDFOI@ENABLE_RENDER_TARGET@ DB 'ENABLE_RENDER_TARGET', 00H ; `string'
CONST	ENDS
;	COMDAT ??_C@_0BF@LJNEAKLH@ENABLE_ATTBONUS_BOSS@
CONST	SEGMENT
??_C@_0BF@LJNEAKLH@ENABLE_ATTBONUS_BOSS@ DB 'ENABLE_ATTBONUS_BOSS', 00H ; `string'
CONST	ENDS
;	COMDAT ??_C@_0BE@OLMKIFGM@ENABLE_TITLE_SYSTEM@
CONST	SEGMENT
??_C@_0BE@OLMKIFGM@ENABLE_TITLE_SYSTEM@ DB 'ENABLE_TITLE_SYSTEM', 00H ; `string'
CONST	ENDS
;	COMDAT ??_C@_0BL@FPEGKCKL@ENABLE_RENEWAL_OFFLINESHOP@
CONST	SEGMENT
??_C@_0BL@FPEGKCKL@ENABLE_RENEWAL_OFFLINESHOP@ DB 'ENABLE_RENEWAL_OFFLINE'
	DB	'SHOP', 00H					; `string'
CONST	ENDS
;	COMDAT ??_C@_0BJ@CJJKOKPF@ENABLE_SPECIAL_INVENTORY@
CONST	SEGMENT
??_C@_0BJ@CJJKOKPF@ENABLE_SPECIAL_INVENTORY@ DB 'ENABLE_SPECIAL_INVENTORY'
	DB	00H						; `string'
CONST	ENDS
;	COMDAT ??_C@_0BH@ILAGBPOI@ENABLE_VIEW_CHEST_DROP@
CONST	SEGMENT
??_C@_0BH@ILAGBPOI@ENABLE_VIEW_CHEST_DROP@ DB 'ENABLE_VIEW_CHEST_DROP', 00H ; `string'
CONST	ENDS
;	COMDAT ??_C@_0BA@HPELNPOC@ENABLE_ANTI_EXP@
CONST	SEGMENT
??_C@_0BA@HPELNPOC@ENABLE_ANTI_EXP@ DB 'ENABLE_ANTI_EXP', 00H ; `string'
CONST	ENDS
;	COMDAT ??_C@_0BF@BLNJFEGN@ENABLE_MOB_DROP_INFO@
CONST	SEGMENT
??_C@_0BF@BLNJFEGN@ENABLE_MOB_DROP_INFO@ DB 'ENABLE_MOB_DROP_INFO', 00H ; `string'
CONST	ENDS
;	COMDAT ??_C@_0BF@OECKEMAD@ENABLE_BIOLOG_SYSTEM@
CONST	SEGMENT
??_C@_0BF@OECKEMAD@ENABLE_BIOLOG_SYSTEM@ DB 'ENABLE_BIOLOG_SYSTEM', 00H ; `string'
CONST	ENDS
;	COMDAT ??_C@_0BG@MMGCEMF@ENABLE_ATTBONUS_METIN@
CONST	SEGMENT
??_C@_0BG@MMGCEMF@ENABLE_ATTBONUS_METIN@ DB 'ENABLE_ATTBONUS_METIN', 00H ; `string'
CONST	ENDS
;	COMDAT ??_C@_0BL@HNDAJCHJ@ENABLE_ACCE_COSTUME_SYSTEM@
CONST	SEGMENT
??_C@_0BL@HNDAJCHJ@ENABLE_ACCE_COSTUME_SYSTEM@ DB 'ENABLE_ACCE_COSTUME_SY'
	DB	'STEM', 00H					; `string'
CONST	ENDS
;	COMDAT ??_C@_0CC@IABBIMPP@ENABLE_EXTEND_TIME_COSTUME_SYST@
CONST	SEGMENT
??_C@_0CC@IABBIMPP@ENABLE_EXTEND_TIME_COSTUME_SYST@ DB 'ENABLE_EXTEND_TIM'
	DB	'E_COSTUME_SYSTEM', 00H			; `string'
CONST	ENDS
;	COMDAT ??_C@_0BL@KGNNLHIE@ENABLE_RENEWAL_SERVER_LIST@
CONST	SEGMENT
??_C@_0BL@KGNNLHIE@ENABLE_RENEWAL_SERVER_LIST@ DB 'ENABLE_RENEWAL_SERVER_'
	DB	'LIST', 00H					; `string'
CONST	ENDS
;	COMDAT ??_C@_0BL@BJLHGOJN@ENABLE_HIDE_COSTUME_SYSTEM@
CONST	SEGMENT
??_C@_0BL@BJLHGOJN@ENABLE_HIDE_COSTUME_SYSTEM@ DB 'ENABLE_HIDE_COSTUME_SY'
	DB	'STEM', 00H					; `string'
CONST	ENDS
;	COMDAT ??_C@_0BG@OLFFBABC@ENABLE_PENDANT_SYSTEM@
CONST	SEGMENT
??_C@_0BG@OLFFBABC@ENABLE_PENDANT_SYSTEM@ DB 'ENABLE_PENDANT_SYSTEM', 00H ; `string'
CONST	ENDS
;	COMDAT ??_C@_0BG@KGBOBIJP@ENABLE_MOUNT_PET_SKIN@
CONST	SEGMENT
??_C@_0BG@KGBOBIJP@ENABLE_MOUNT_PET_SKIN@ DB 'ENABLE_MOUNT_PET_SKIN', 00H ; `string'
CONST	ENDS
;	COMDAT ??_C@_0BD@CAANKIHI@ENABLE_DICE_SYSTEM@
CONST	SEGMENT
??_C@_0BD@CAANKIHI@ENABLE_DICE_SYSTEM@ DB 'ENABLE_DICE_SYSTEM', 00H ; `string'
CONST	ENDS
;	COMDAT ??_C@_0BF@LDJJKBCK@ENABLE_SHOW_MOB_INFO@
CONST	SEGMENT
??_C@_0BF@LDJJKBCK@ENABLE_SHOW_MOB_INFO@ DB 'ENABLE_SHOW_MOB_INFO', 00H ; `string'
CONST	ENDS
;	COMDAT ??_C@_0BD@FAICKCGG@ENABLE_AUTO_REFINE@
CONST	SEGMENT
??_C@_0BD@FAICKCGG@ENABLE_AUTO_REFINE@ DB 'ENABLE_AUTO_REFINE', 00H ; `string'
CONST	ENDS
;	COMDAT ??_C@_0BM@ILFELCEF@ENABLE_METIN_STONES_MINIMAP@
CONST	SEGMENT
??_C@_0BM@ILFELCEF@ENABLE_METIN_STONES_MINIMAP@ DB 'ENABLE_METIN_STONES_M'
	DB	'INIMAP', 00H				; `string'
CONST	ENDS
;	COMDAT ??_C@_0BD@HDLIFGNJ@ENABLE_BLINK_ALERT@
CONST	SEGMENT
??_C@_0BD@HDLIFGNJ@ENABLE_BLINK_ALERT@ DB 'ENABLE_BLINK_ALERT', 00H ; `string'
CONST	ENDS
;	COMDAT ??_C@_0BM@OHBGEPCP@ENABLE_TELEPORT_TO_A_FRIEND@
CONST	SEGMENT
??_C@_0BM@OHBGEPCP@ENABLE_TELEPORT_TO_A_FRIEND@ DB 'ENABLE_TELEPORT_TO_A_'
	DB	'FRIEND', 00H				; `string'
CONST	ENDS
;	COMDAT ??_C@_0BK@JPEJEIPL@ENABLE_CLIENT_PERFORMANCE@
CONST	SEGMENT
??_C@_0BK@JPEJEIPL@ENABLE_CLIENT_PERFORMANCE@ DB 'ENABLE_CLIENT_PERFORMAN'
	DB	'CE', 00H					; `string'
CONST	ENDS
;	COMDAT ??_C@_0BO@PJBOGDHG@ENABLE_RENEWAL_CLIENT_VERSION@
CONST	SEGMENT
??_C@_0BO@PJBOGDHG@ENABLE_RENEWAL_CLIENT_VERSION@ DB 'ENABLE_RENEWAL_CLIE'
	DB	'NT_VERSION', 00H				; `string'
CONST	ENDS
;	COMDAT ??_C@_0BE@EHGLIKAL@ENABLE_RENEWAL_CUBE@
CONST	SEGMENT
??_C@_0BE@EHGLIKAL@ENABLE_RENEWAL_CUBE@ DB 'ENABLE_RENEWAL_CUBE', 00H ; `string'
CONST	ENDS
;	COMDAT ??_C@_0BJ@OOFGBBFO@ENABLE_RENEWAL_SWITCHBOT@
CONST	SEGMENT
??_C@_0BJ@OOFGBBFO@ENABLE_RENEWAL_SWITCHBOT@ DB 'ENABLE_RENEWAL_SWITCHBOT'
	DB	00H						; `string'
CONST	ENDS
;	COMDAT ??_C@_0BN@HFPGHJNO@ENABLE_WEAPON_COSTUME_SYSTEM@
CONST	SEGMENT
??_C@_0BN@HFPGHJNO@ENABLE_WEAPON_COSTUME_SYSTEM@ DB 'ENABLE_WEAPON_COSTUM'
	DB	'E_SYSTEM', 00H				; `string'
CONST	ENDS
;	COMDAT ??_C@_0BC@IICODLAC@ENABLE_GOLD_LIMIT@
CONST	SEGMENT
??_C@_0BC@IICODLAC@ENABLE_GOLD_LIMIT@ DB 'ENABLE_GOLD_LIMIT', 00H ; `string'
CONST	ENDS
;	COMDAT ??_C@_0BL@HKIPHBEA@ENABLE_RENEWAL_BONUS_BOARD@
CONST	SEGMENT
??_C@_0BL@HKIPHBEA@ENABLE_RENEWAL_BONUS_BOARD@ DB 'ENABLE_RENEWAL_BONUS_B'
	DB	'OARD', 00H					; `string'
CONST	ENDS
;	COMDAT ??_C@_0CA@KPFJEDLP@ENABLE_EXTENDED_WHISPER_DETAILS@
CONST	SEGMENT
??_C@_0CA@KPFJEDLP@ENABLE_EXTENDED_WHISPER_DETAILS@ DB 'ENABLE_EXTENDED_W'
	DB	'HISPER_DETAILS', 00H			; `string'
CONST	ENDS
;	COMDAT ??_C@_0P@EMLFCLHL@LOCALE_MAX_NUM@
CONST	SEGMENT
??_C@_0P@EMLFCLHL@LOCALE_MAX_NUM@ DB 'LOCALE_MAX_NUM', 00H ; `string'
CONST	ENDS
;	COMDAT ??_C@_09EEGJLMNC@LOCALE_TR@
CONST	SEGMENT
??_C@_09EEGJLMNC@LOCALE_TR@ DB 'LOCALE_TR', 00H		; `string'
CONST	ENDS
;	COMDAT ??_C@_09BOBEHAAB@LOCALE_HU@
CONST	SEGMENT
??_C@_09BOBEHAAB@LOCALE_HU@ DB 'LOCALE_HU', 00H		; `string'
CONST	ENDS
;	COMDAT ??_C@_09JFNJIDCP@LOCALE_CZ@
CONST	SEGMENT
??_C@_09JFNJIDCP@LOCALE_CZ@ DB 'LOCALE_CZ', 00H		; `string'
CONST	ENDS
;	COMDAT ??_C@_09GMNCLHH@LOCALE_IT@
CONST	SEGMENT
??_C@_09GMNCLHH@LOCALE_IT@ DB 'LOCALE_IT', 00H		; `string'
CONST	ENDS
;	COMDAT ??_C@_09JHCBCLNB@LOCALE_PL@
CONST	SEGMENT
??_C@_09JHCBCLNB@LOCALE_PL@ DB 'LOCALE_PL', 00H		; `string'
CONST	ENDS
;	COMDAT ??_C@_09FNMMJLDE@LOCALE_DE@
CONST	SEGMENT
??_C@_09FNMMJLDE@LOCALE_DE@ DB 'LOCALE_DE', 00H		; `string'
CONST	ENDS
;	COMDAT ??_C@_09FLMLMLMM@LOCALE_FR@
CONST	SEGMENT
??_C@_09FLMLMLMM@LOCALE_FR@ DB 'LOCALE_FR', 00H		; `string'
CONST	ENDS
;	COMDAT ??_C@_09EAJGEENE@LOCALE_ES@
CONST	SEGMENT
??_C@_09EAJGEENE@LOCALE_ES@ DB 'LOCALE_ES', 00H		; `string'
CONST	ENDS
;	COMDAT ??_C@_09BFDKLDII@LOCALE_PT@
CONST	SEGMENT
??_C@_09BFDKLDII@LOCALE_PT@ DB 'LOCALE_PT', 00H		; `string'
CONST	ENDS
;	COMDAT ??_C@_09LPIIKMHM@LOCALE_RO@
CONST	SEGMENT
??_C@_09LPIIKMHM@LOCALE_RO@ DB 'LOCALE_RO', 00H		; `string'
CONST	ENDS
;	COMDAT ??_C@_09LPPKCIMI@LOCALE_EN@
CONST	SEGMENT
??_C@_09LPPKCIMI@LOCALE_EN@ DB 'LOCALE_EN', 00H		; `string'
CONST	ENDS
;	COMDAT ??_C@_0P@EOFGLPDC@LOCALE_DEFAULT@
CONST	SEGMENT
??_C@_0P@EOFGLPDC@LOCALE_DEFAULT@ DB 'LOCALE_DEFAULT', 00H ; `string'
CONST	ENDS
;	COMDAT ??_C@_0BN@NNDEFGCP@ENABLE_MULTI_LANGUAGE_SYSTEM@
CONST	SEGMENT
??_C@_0BN@NNDEFGCP@ENABLE_MULTI_LANGUAGE_SYSTEM@ DB 'ENABLE_MULTI_LANGUAG'
	DB	'E_SYSTEM', 00H				; `string'
CONST	ENDS
;	COMDAT ??_C@_0BH@IDDFPFEO@ENABLE_QUICK_SELL_ITEM@
CONST	SEGMENT
??_C@_0BH@IDDFPFEO@ENABLE_QUICK_SELL_ITEM@ DB 'ENABLE_QUICK_SELL_ITEM', 00H ; `string'
CONST	ENDS
;	COMDAT ??_C@_0BF@ICCAGOLJ@ENABLE_RENEWAL_QUEST@
CONST	SEGMENT
??_C@_0BF@ICCAGOLJ@ENABLE_RENEWAL_QUEST@ DB 'ENABLE_RENEWAL_QUEST', 00H ; `string'
CONST	ENDS
;	COMDAT ??_C@_0BH@LDLMBOCI@ENABLE_MESSENGER_BLOCK@
CONST	SEGMENT
??_C@_0BH@LDLMBOCI@ENABLE_MESSENGER_BLOCK@ DB 'ENABLE_MESSENGER_BLOCK', 00H ; `string'
CONST	ENDS
;	COMDAT ??_C@_0BI@DCKOBBOH@ENABLE_EXTENDED_SAFEBOX@
CONST	SEGMENT
??_C@_0BI@DCKOBBOH@ENABLE_EXTENDED_SAFEBOX@ DB 'ENABLE_EXTENDED_SAFEBOX', 00H ; `string'
CONST	ENDS
;	COMDAT ??_C@_0BG@NAKAIPKG@ENABLE_INSTANT_PICKUP@
CONST	SEGMENT
??_C@_0BG@NAKAIPKG@ENABLE_INSTANT_PICKUP@ DB 'ENABLE_INSTANT_PICKUP', 00H ; `string'
CONST	ENDS
;	COMDAT ??_C@_0BG@CKGFIAKE@ENABLE_SORT_INVENTORY@
CONST	SEGMENT
??_C@_0BG@CKGFIAKE@ENABLE_SORT_INVENTORY@ DB 'ENABLE_SORT_INVENTORY', 00H ; `string'
CONST	ENDS
;	COMDAT ??_C@_0BH@KGPICAGJ@ENABLE_COINS_INVENTORY@
CONST	SEGMENT
??_C@_0BH@KGPICAGJ@ENABLE_COINS_INVENTORY@ DB 'ENABLE_COINS_INVENTORY', 00H ; `string'
CONST	ENDS
;	COMDAT ??_C@_0BC@CPOIIJIB@ENABLE_PET_SYSTEM@
CONST	SEGMENT
??_C@_0BC@CPOIIJIB@ENABLE_PET_SYSTEM@ DB 'ENABLE_PET_SYSTEM', 00H ; `string'
CONST	ENDS
;	COMDAT ??_C@_0BE@EJKFNFHB@ENABLE_MOUNT_SYSTEM@
CONST	SEGMENT
??_C@_0BE@EJKFNFHB@ENABLE_MOUNT_SYSTEM@ DB 'ENABLE_MOUNT_SYSTEM', 00H ; `string'
CONST	ENDS
;	COMDAT ??_C@_0BG@FDOAIBIN@ENABLE_GRAPHIC_ON_OFF@
CONST	SEGMENT
??_C@_0BG@FDOAIBIN@ENABLE_GRAPHIC_ON_OFF@ DB 'ENABLE_GRAPHIC_ON_OFF', 00H ; `string'
CONST	ENDS
;	COMDAT ??_C@_0CB@FNCEEDIE@ENABLE_ENVIRONMENT_EFFECT_OPTIO@
CONST	SEGMENT
??_C@_0CB@FNCEEDIE@ENABLE_ENVIRONMENT_EFFECT_OPTIO@ DB 'ENABLE_ENVIRONMEN'
	DB	'T_EFFECT_OPTION', 00H			; `string'
CONST	ENDS
;	COMDAT ??_C@_0BA@KEDCFOBK@ENABLE_ENB_MODE@
CONST	SEGMENT
??_C@_0BA@KEDCFOBK@ENABLE_ENB_MODE@ DB 'ENABLE_ENB_MODE', 00H ; `string'
CONST	ENDS
;	COMDAT ??_C@_0P@KIOCPJHD@ENABLE_FOG_FIX@
CONST	SEGMENT
??_C@_0P@KIOCPJHD@ENABLE_FOG_FIX@ DB 'ENABLE_FOG_FIX', 00H ; `string'
CONST	ENDS
;	COMDAT ??_C@_0BG@CKLLJJNA@ENABLE_DESTROY_DIALOG@
CONST	SEGMENT
??_C@_0BG@CKLLJJNA@ENABLE_DESTROY_DIALOG@ DB 'ENABLE_DESTROY_DIALOG', 00H ; `string'
CONST	ENDS
;	COMDAT ??_C@_0BG@KNGLICHO@ENABLE_RENEWAL_SHOPEX@
CONST	SEGMENT
??_C@_0BG@KNGLICHO@ENABLE_RENEWAL_SHOPEX@ DB 'ENABLE_RENEWAL_SHOPEX', 00H ; `string'
CONST	ENDS
;	COMDAT ??_C@_0BE@FDIHPFHM@ENABLE_MAP_TELEPORT@
CONST	SEGMENT
??_C@_0BE@FDIHPFHM@ENABLE_MAP_TELEPORT@ DB 'ENABLE_MAP_TELEPORT', 00H ; `string'
CONST	ENDS
;	COMDAT ??_C@_0BL@ODDIDMFC@ENABLE_RENEWAL_DEAD_PACKET@
CONST	SEGMENT
??_C@_0BL@ODDIDMFC@ENABLE_RENEWAL_DEAD_PACKET@ DB 'ENABLE_RENEWAL_DEAD_PA'
	DB	'CKET', 00H					; `string'
CONST	ENDS
;	COMDAT ??_C@_0BG@DNNPLDMM@ENABLE_MESSENGER_TEAM@
CONST	SEGMENT
??_C@_0BG@DNNPLDMM@ENABLE_MESSENGER_TEAM@ DB 'ENABLE_MESSENGER_TEAM', 00H ; `string'
CONST	ENDS
;	COMDAT ??_C@_0BO@LEKLIGFK@ENABLE_VIEW_TARGET_DECIMAL_HP@
CONST	SEGMENT
??_C@_0BO@LEKLIGFK@ENABLE_VIEW_TARGET_DECIMAL_HP@ DB 'ENABLE_VIEW_TARGET_'
	DB	'DECIMAL_HP', 00H				; `string'
CONST	ENDS
;	COMDAT ??_C@_0BN@HOIDIKJA@ENABLE_VIEW_TARGET_PLAYER_HP@
CONST	SEGMENT
??_C@_0BN@HOIDIKJA@ENABLE_VIEW_TARGET_PLAYER_HP@ DB 'ENABLE_VIEW_TARGET_P'
	DB	'LAYER_HP', 00H				; `string'
CONST	ENDS
;	COMDAT ??_C@_0BJ@EEABCGMI@ENABLE_GUILD_RANK_SYSTEM@
CONST	SEGMENT
??_C@_0BJ@EEABCGMI@ENABLE_GUILD_RANK_SYSTEM@ DB 'ENABLE_GUILD_RANK_SYSTEM'
	DB	00H						; `string'
CONST	ENDS
;	COMDAT ??_C@_0BG@EJHALOGN@ENABLE_CHANGE_CHANNEL@
CONST	SEGMENT
??_C@_0BG@EJHALOGN@ENABLE_CHANGE_CHANNEL@ DB 'ENABLE_CHANGE_CHANNEL', 00H ; `string'
CONST	ENDS
;	COMDAT ??_C@_0BJ@CLOLEGP@ENABLE_LOAD_INDEX_BINARY@
CONST	SEGMENT
??_C@_0BJ@CLOLEGP@ENABLE_LOAD_INDEX_BINARY@ DB 'ENABLE_LOAD_INDEX_BINARY', 00H ; `string'
CONST	ENDS
;	COMDAT ??_C@_0BM@LNFCINHP@ENABLE_NEW_EQUIPMENT_SYSTEM@
CONST	SEGMENT
??_C@_0BM@LNFCINHP@ENABLE_NEW_EQUIPMENT_SYSTEM@ DB 'ENABLE_NEW_EQUIPMENT_'
	DB	'SYSTEM', 00H				; `string'
CONST	ENDS
;	COMDAT ??_C@_0BK@MHKPDOOB@ENABLE_DRAGON_SOUL_SYSTEM@
CONST	SEGMENT
??_C@_0BK@MHKPDOOB@ENABLE_DRAGON_SOUL_SYSTEM@ DB 'ENABLE_DRAGON_SOUL_SYST'
	DB	'EM', 00H					; `string'
CONST	ENDS
;	COMDAT ??_C@_0BF@JNPGDOCA@ENABLE_ENERGY_SYSTEM@
CONST	SEGMENT
??_C@_0BF@JNPGDOCA@ENABLE_ENERGY_SYSTEM@ DB 'ENABLE_ENERGY_SYSTEM', 00H ; `string'
CONST	ENDS
;	COMDAT ??_C@_0BG@NNONEOJP@ENABLE_COSTUME_SYSTEM@
CONST	SEGMENT
??_C@_0BG@NNONEOJP@ENABLE_COSTUME_SYSTEM@ DB 'ENABLE_COSTUME_SYSTEM', 00H ; `string'
CONST	ENDS
;	COMDAT ??_C@_0M@NJFGNKPE@CAMERA_STOP@
CONST	SEGMENT
??_C@_0M@NJFGNKPE@CAMERA_STOP@ DB 'CAMERA_STOP', 00H	; `string'
CONST	ENDS
;	COMDAT ??_C@_0BD@JPBNJGLJ@CAMERA_TO_NEGATIVE@
CONST	SEGMENT
??_C@_0BD@JPBNJGLJ@CAMERA_TO_NEGATIVE@ DB 'CAMERA_TO_NEGATIVE', 00H ; `string'
CONST	ENDS
;	COMDAT ??_C@_0BD@BFBNCJCC@CAMERA_TO_POSITIVE@
CONST	SEGMENT
??_C@_0BD@BFBNCJCC@CAMERA_TO_POSITIVE@ DB 'CAMERA_TO_POSITIVE', 00H ; `string'
CONST	ENDS
;	COMDAT ??_C@_04FOCIOHFI@FISH@
CONST	SEGMENT
??_C@_04FOCIOHFI@FISH@ DB 'FISH', 00H			; `string'
CONST	ENDS
;	COMDAT ??_C@_06LKCKECPP@HVSIZE@
CONST	SEGMENT
??_C@_06LKCKECPP@HVSIZE@ DB 'HVSIZE', 00H		; `string'
CONST	ENDS
;	COMDAT ??_C@_05OBGAAHDM@VSIZE@
CONST	SEGMENT
??_C@_05OBGAAHDM@VSIZE@ DB 'VSIZE', 00H			; `string'
CONST	ENDS
;	COMDAT ??_C@_05NILMGENH@HSIZE@
CONST	SEGMENT
??_C@_05NILMGENH@HSIZE@ DB 'HSIZE', 00H			; `string'
CONST	ENDS
;	COMDAT ??_C@_0O@MAJOJEIM@CAMERA_ROTATE@
CONST	SEGMENT
??_C@_0O@MAJOJEIM@CAMERA_ROTATE@ DB 'CAMERA_ROTATE', 00H ; `string'
CONST	ENDS
;	COMDAT ??_C@_04MPOIGBFL@SELL@
CONST	SEGMENT
??_C@_04MPOIGBFL@SELL@ DB 'SELL', 00H			; `string'
CONST	ENDS
;	COMDAT ??_C@_03OOKILKBD@BUY@
CONST	SEGMENT
??_C@_03OOKILKBD@BUY@ DB 'BUY', 00H			; `string'
CONST	ENDS
;	COMDAT ??_C@_05DKLEPMBK@MAGIC@
CONST	SEGMENT
??_C@_05DKLEPMBK@MAGIC@ DB 'MAGIC', 00H			; `string'
CONST	ENDS
;	COMDAT ??_C@_05HLBMIDNH@CHAIR@
CONST	SEGMENT
??_C@_05HLBMIDNH@CHAIR@ DB 'CHAIR', 00H			; `string'
CONST	ENDS
;	COMDAT ??_C@_04KEJCELCL@DOOR@
CONST	SEGMENT
??_C@_04KEJCELCL@DOOR@ DB 'DOOR', 00H			; `string'
CONST	ENDS
;	COMDAT ??_C@_04IGIDHFMJ@PICK@
CONST	SEGMENT
??_C@_04IGIDHFMJ@PICK@ DB 'PICK', 00H			; `string'
CONST	ENDS
;	COMDAT ??_C@_07LGCIEODJ@CANT_GO@
CONST	SEGMENT
??_C@_07LGCIEODJ@CANT_GO@ DB 'CANT_GO', 00H		; `string'
CONST	ENDS
;	COMDAT ??_C@_04LNOLLMNL@TALK@
CONST	SEGMENT
??_C@_04LNOLLMNL@TALK@ DB 'TALK', 00H			; `string'
CONST	ENDS
;	COMDAT ??_C@_06JNJLBPLI@TARGET@
CONST	SEGMENT
??_C@_06JNJLBPLI@TARGET@ DB 'TARGET', 00H		; `string'
CONST	ENDS
;	COMDAT ??_C@_06JIJKOHKJ@ATTACK@
CONST	SEGMENT
??_C@_06JIJKOHKJ@ATTACK@ DB 'ATTACK', 00H		; `string'
CONST	ENDS
;	COMDAT ??_C@_06IOJAGNKJ@NORMAL@
CONST	SEGMENT
??_C@_06IOJAGNKJ@NORMAL@ DB 'NORMAL', 00H		; `string'
CONST	ENDS
;	COMDAT ??_C@_08EEDKKFEB@DIK_APPS@
CONST	SEGMENT
??_C@_08EEDKKFEB@DIK_APPS@ DB 'DIK_APPS', 00H		; `string'
CONST	ENDS
;	COMDAT ??_C@_08BCDGIEEJ@DIK_RWIN@
CONST	SEGMENT
??_C@_08BCDGIEEJ@DIK_RWIN@ DB 'DIK_RWIN', 00H		; `string'
CONST	ENDS
;	COMDAT ??_C@_08MNOGKNKK@DIK_LWIN@
CONST	SEGMENT
??_C@_08MNOGKNKK@DIK_LWIN@ DB 'DIK_LWIN', 00H		; `string'
CONST	ENDS
;	COMDAT ??_C@_0L@HICEJOHK@DIK_DELETE@
CONST	SEGMENT
??_C@_0L@HICEJOHK@DIK_DELETE@ DB 'DIK_DELETE', 00H	; `string'
CONST	ENDS
;	COMDAT ??_C@_0L@MGNAFAII@DIK_INSERT@
CONST	SEGMENT
??_C@_0L@MGNAFAII@DIK_INSERT@ DB 'DIK_INSERT', 00H	; `string'
CONST	ENDS
;	COMDAT ??_C@_08DADHBDOF@DIK_PGDN@
CONST	SEGMENT
??_C@_08DADHBDOF@DIK_PGDN@ DB 'DIK_PGDN', 00H		; `string'
CONST	ENDS
;	COMDAT ??_C@_08HOIDBHGB@DIK_DOWN@
CONST	SEGMENT
??_C@_08HOIDBHGB@DIK_DOWN@ DB 'DIK_DOWN', 00H		; `string'
CONST	ENDS
;	COMDAT ??_C@_07HLJOPMFK@DIK_END@
CONST	SEGMENT
??_C@_07HLJOPMFK@DIK_END@ DB 'DIK_END', 00H		; `string'
CONST	ENDS
;	COMDAT ??_C@_09OKEHHFIC@DIK_RIGHT@
CONST	SEGMENT
??_C@_09OKEHHFIC@DIK_RIGHT@ DB 'DIK_RIGHT', 00H		; `string'
CONST	ENDS
;	COMDAT ??_C@_08IMIHIPFI@DIK_LEFT@
CONST	SEGMENT
??_C@_08IMIHIPFI@DIK_LEFT@ DB 'DIK_LEFT', 00H		; `string'
CONST	ENDS
;	COMDAT ??_C@_08PJJCOFHN@DIK_PGUP@
CONST	SEGMENT
??_C@_08PJJCOFHN@DIK_PGUP@ DB 'DIK_PGUP', 00H		; `string'
CONST	ENDS
;	COMDAT ??_C@_06JGABONOM@DIK_UP@
CONST	SEGMENT
??_C@_06JGABONOM@DIK_UP@ DB 'DIK_UP', 00H		; `string'
CONST	ENDS
;	COMDAT ??_C@_08EJDGAFAN@DIK_HOME@
CONST	SEGMENT
??_C@_08EJDGAFAN@DIK_HOME@ DB 'DIK_HOME', 00H		; `string'
CONST	ENDS
;	COMDAT ??_C@_09COEFGPNN@DIK_PAUSE@
CONST	SEGMENT
??_C@_09COEFGPNN@DIK_PAUSE@ DB 'DIK_PAUSE', 00H		; `string'
CONST	ENDS
;	COMDAT ??_C@_08NBKCLEDK@DIK_RALT@
CONST	SEGMENT
??_C@_08NBKCLEDK@DIK_RALT@ DB 'DIK_RALT', 00H		; `string'
CONST	ENDS
;	COMDAT ??_C@_09PCEGCDIO@DIK_SYSRQ@
CONST	SEGMENT
??_C@_09PCEGCDIO@DIK_SYSRQ@ DB 'DIK_SYSRQ', 00H		; `string'
CONST	ENDS
;	COMDAT ??_C@_0L@HDEGMNOK@DIK_DIVIDE@
CONST	SEGMENT
??_C@_0L@HDEGMNOK@DIK_DIVIDE@ DB 'DIK_DIVIDE', 00H	; `string'
CONST	ENDS
;	COMDAT ??_C@_0BA@ECBGFAAH@DIK_NUMPADCOMMA@
CONST	SEGMENT
??_C@_0BA@ECBGFAAH@DIK_NUMPADCOMMA@ DB 'DIK_NUMPADCOMMA', 00H ; `string'
CONST	ENDS
;	COMDAT ??_C@_0M@IEADBFND@DIK_WEBHOME@
CONST	SEGMENT
??_C@_0M@IEADBFND@DIK_WEBHOME@ DB 'DIK_WEBHOME', 00H	; `string'
CONST	ENDS
;	COMDAT ??_C@_0N@GPHLGHED@DIK_VOLUMEUP@
CONST	SEGMENT
??_C@_0N@GPHLGHED@DIK_VOLUMEUP@ DB 'DIK_VOLUMEUP', 00H	; `string'
CONST	ENDS
;	COMDAT ??_C@_0P@FKHBCEAD@DIK_VOLUMEDOWN@
CONST	SEGMENT
??_C@_0P@FKHBCEAD@DIK_VOLUMEDOWN@ DB 'DIK_VOLUMEDOWN', 00H ; `string'
CONST	ENDS
;	COMDAT ??_C@_0O@FLFOAKOG@DIK_MEDIASTOP@
CONST	SEGMENT
??_C@_0O@FLFOAKOG@DIK_MEDIASTOP@ DB 'DIK_MEDIASTOP', 00H ; `string'
CONST	ENDS
;	COMDAT ??_C@_0O@ECAMOKPG@DIK_PLAYPAUSE@
CONST	SEGMENT
??_C@_0O@ECAMOKPG@DIK_PLAYPAUSE@ DB 'DIK_PLAYPAUSE', 00H ; `string'
CONST	ENDS
;	COMDAT ??_C@_0P@OJEJDHIP@DIK_CALCULATOR@
CONST	SEGMENT
??_C@_0P@OJEJDHIP@DIK_CALCULATOR@ DB 'DIK_CALCULATOR', 00H ; `string'
CONST	ENDS
;	COMDAT ??_C@_08KNIFKFHJ@DIK_MUTE@
CONST	SEGMENT
??_C@_08KNIFKFHJ@DIK_MUTE@ DB 'DIK_MUTE', 00H		; `string'
CONST	ENDS
;	COMDAT ??_C@_0N@GKDJCKOL@DIK_RCONTROL@
CONST	SEGMENT
??_C@_0N@GKDJCKOL@DIK_RCONTROL@ DB 'DIK_RCONTROL', 00H	; `string'
CONST	ENDS
;	COMDAT ??_C@_0BA@OLMCJCJF@DIK_NUMPADENTER@
CONST	SEGMENT
??_C@_0BA@OLMCJCJF@DIK_NUMPADENTER@ DB 'DIK_NUMPADENTER', 00H ; `string'
CONST	ENDS
;	COMDAT ??_C@_0O@DEOEEHEE@DIK_NEXTTRACK@
CONST	SEGMENT
??_C@_0O@DEOEEHEE@DIK_NEXTTRACK@ DB 'DIK_NEXTTRACK', 00H ; `string'
CONST	ENDS
;	COMDAT ??_C@_07EPODKCKJ@DIK_F12@
CONST	SEGMENT
??_C@_07EPODKCKJ@DIK_F12@ DB 'DIK_F12', 00H		; `string'
CONST	ENDS
;	COMDAT ??_C@_07GEMOPBGK@DIK_F11@
CONST	SEGMENT
??_C@_07GEMOPBGK@DIK_F11@ DB 'DIK_F11', 00H		; `string'
CONST	ENDS
;	COMDAT ??_C@_0M@PCNKFDKI@DIK_DECIMAL@
CONST	SEGMENT
??_C@_0M@PCNKFDKI@DIK_DECIMAL@ DB 'DIK_DECIMAL', 00H	; `string'
CONST	ENDS
;	COMDAT ??_C@_0M@JMKJAMIE@DIK_NUMPAD0@
CONST	SEGMENT
??_C@_0M@JMKJAMIE@DIK_NUMPAD0@ DB 'DIK_NUMPAD0', 00H	; `string'
CONST	ENDS
;	COMDAT ??_C@_0M@LHIEFPEH@DIK_NUMPAD3@
CONST	SEGMENT
??_C@_0M@LHIEFPEH@DIK_NUMPAD3@ DB 'DIK_NUMPAD3', 00H	; `string'
CONST	ENDS
;	COMDAT ??_C@_0M@KOJPGOAG@DIK_NUMPAD2@
CONST	SEGMENT
??_C@_0M@KOJPGOAG@DIK_NUMPAD2@ DB 'DIK_NUMPAD2', 00H	; `string'
CONST	ENDS
;	COMDAT ??_C@_0M@IFLCDNMF@DIK_NUMPAD1@
CONST	SEGMENT
??_C@_0M@IFLCDNMF@DIK_NUMPAD1@ DB 'DIK_NUMPAD1', 00H	; `string'
CONST	ENDS
;	COMDAT ??_C@_07PJGLOONL@DIK_ADD@
CONST	SEGMENT
??_C@_07PJGLOONL@DIK_ADD@ DB 'DIK_ADD', 00H		; `string'
CONST	ENDS
;	COMDAT ??_C@_0M@MKPDKLAC@DIK_NUMPAD6@
CONST	SEGMENT
??_C@_0M@MKPDKLAC@DIK_NUMPAD6@ DB 'DIK_NUMPAD6', 00H	; `string'
CONST	ENDS
;	COMDAT ??_C@_0M@OBNOPIMB@DIK_NUMPAD5@
CONST	SEGMENT
??_C@_0M@OBNOPIMB@DIK_NUMPAD5@ DB 'DIK_NUMPAD5', 00H	; `string'
CONST	ENDS
;	COMDAT ??_C@_0M@PIMFMJIA@DIK_NUMPAD4@
CONST	SEGMENT
??_C@_0M@PIMFMJIA@DIK_NUMPAD4@ DB 'DIK_NUMPAD4', 00H	; `string'
CONST	ENDS
;	COMDAT ??_C@_0N@ECOBCKNF@DIK_SUBTRACT@
CONST	SEGMENT
??_C@_0N@ECOBCKNF@DIK_SUBTRACT@ DB 'DIK_SUBTRACT', 00H	; `string'
CONST	ENDS
;	COMDAT ??_C@_0M@ENGLLHMN@DIK_NUMPAD9@
CONST	SEGMENT
??_C@_0M@ENGLLHMN@DIK_NUMPAD9@ DB 'DIK_NUMPAD9', 00H	; `string'
CONST	ENDS
;	COMDAT ??_C@_0M@FEHAIGIM@DIK_NUMPAD8@
CONST	SEGMENT
??_C@_0M@FEHAIGIM@DIK_NUMPAD8@ DB 'DIK_NUMPAD8', 00H	; `string'
CONST	ENDS
;	COMDAT ??_C@_0M@NDOIJKED@DIK_NUMPAD7@
CONST	SEGMENT
??_C@_0M@NDOIJKED@DIK_NUMPAD7@ DB 'DIK_NUMPAD7', 00H	; `string'
CONST	ENDS
;	COMDAT ??_C@_0L@HPJOFPCB@DIK_SCROLL@
CONST	SEGMENT
??_C@_0L@HPJOFPCB@DIK_SCROLL@ DB 'DIK_SCROLL', 00H	; `string'
CONST	ENDS
;	COMDAT ??_C@_0M@BAOCLHIM@DIK_NUMLOCK@
CONST	SEGMENT
??_C@_0M@BAOCLHIM@DIK_NUMLOCK@ DB 'DIK_NUMLOCK', 00H	; `string'
CONST	ENDS
;	COMDAT ??_C@_07HNNFMACL@DIK_F10@
CONST	SEGMENT
??_C@_07HNNFMACL@DIK_F10@ DB 'DIK_F10', 00H		; `string'
CONST	ENDS
;	COMDAT ??_C@_06DMFOCACL@DIK_F9@
CONST	SEGMENT
??_C@_06DMFOCACL@DIK_F9@ DB 'DIK_F9', 00H		; `string'
CONST	ENDS
;	COMDAT ??_C@_06CFEFBBGK@DIK_F8@
CONST	SEGMENT
??_C@_06CFEFBBGK@DIK_F8@ DB 'DIK_F8', 00H		; `string'
CONST	ENDS
;	COMDAT ??_C@_06KCNNANKF@DIK_F7@
CONST	SEGMENT
??_C@_06KCNNANKF@DIK_F7@ DB 'DIK_F7', 00H		; `string'
CONST	ENDS
;	COMDAT ??_C@_06LLMGDMOE@DIK_F6@
CONST	SEGMENT
??_C@_06LLMGDMOE@DIK_F6@ DB 'DIK_F6', 00H		; `string'
CONST	ENDS
;	COMDAT ??_C@_06JAOLGPCH@DIK_F5@
CONST	SEGMENT
??_C@_06JAOLGPCH@DIK_F5@ DB 'DIK_F5', 00H		; `string'
CONST	ENDS
;	COMDAT ??_C@_06IJPAFOGG@DIK_F4@
CONST	SEGMENT
??_C@_06IJPAFOGG@DIK_F4@ DB 'DIK_F4', 00H		; `string'
CONST	ENDS
;	COMDAT ??_C@_06MGLBMIKB@DIK_F3@
CONST	SEGMENT
??_C@_06MGLBMIKB@DIK_F3@ DB 'DIK_F3', 00H		; `string'
CONST	ENDS
;	COMDAT ??_C@_06NPKKPJOA@DIK_F2@
CONST	SEGMENT
??_C@_06NPKKPJOA@DIK_F2@ DB 'DIK_F2', 00H		; `string'
CONST	ENDS
;	COMDAT ??_C@_06PEIHKKCD@DIK_F1@
CONST	SEGMENT
??_C@_06PEIHKKCD@DIK_F1@ DB 'DIK_F1', 00H		; `string'
CONST	ENDS
;	COMDAT ??_C@_0M@KEADBGIC@DIK_CAPITAL@
CONST	SEGMENT
??_C@_0M@KEADBGIC@DIK_CAPITAL@ DB 'DIK_CAPITAL', 00H	; `string'
CONST	ENDS
;	COMDAT ??_C@_09DGAMMAPJ@DIK_SPACE@
CONST	SEGMENT
??_C@_09DGAMMAPJ@DIK_SPACE@ DB 'DIK_SPACE', 00H		; `string'
CONST	ENDS
;	COMDAT ??_C@_08OHCJNNJ@DIK_LALT@
CONST	SEGMENT
??_C@_08OHCJNNJ@DIK_LALT@ DB 'DIK_LALT', 00H		; `string'
CONST	ENDS
;	COMDAT ??_C@_0N@DHLLGHHC@DIK_MULTIPLY@
CONST	SEGMENT
??_C@_0N@DHLLGHHC@DIK_MULTIPLY@ DB 'DIK_MULTIPLY', 00H	; `string'
CONST	ENDS
;	COMDAT ??_C@_0L@FKIIJLHO@DIK_RSHIFT@
CONST	SEGMENT
??_C@_0L@FKIIJLHO@DIK_RSHIFT@ DB 'DIK_RSHIFT', 00H	; `string'
CONST	ENDS
;	COMDAT ??_C@_09DKJEGHEH@DIK_SLASH@
CONST	SEGMENT
??_C@_09DKJEGHEH@DIK_SLASH@ DB 'DIK_SLASH', 00H		; `string'
CONST	ENDS
;	COMDAT ??_C@_0L@HHNLMNCM@DIK_PERIOD@
CONST	SEGMENT
??_C@_0L@HHNLMNCM@DIK_PERIOD@ DB 'DIK_PERIOD', 00H	; `string'
CONST	ENDS
;	COMDAT ??_C@_09PDEOJFIH@DIK_COMMA@
CONST	SEGMENT
??_C@_09PDEOJFIH@DIK_COMMA@ DB 'DIK_COMMA', 00H		; `string'
CONST	ENDS
;	COMDAT ??_C@_05OBDFKLOH@DIK_M@
CONST	SEGMENT
??_C@_05OBDFKLOH@DIK_M@ DB 'DIK_M', 00H			; `string'
CONST	ENDS
;	COMDAT ??_C@_05MKBIPICE@DIK_N@
CONST	SEGMENT
??_C@_05MKBIPICE@DIK_N@ DB 'DIK_N', 00H			; `string'
CONST	ENDS
;	COMDAT ??_C@_05GGKNLHCI@DIK_B@
CONST	SEGMENT
??_C@_05GGKNLHCI@DIK_B@ DB 'DIK_B', 00H			; `string'
CONST	ENDS
;	COMDAT ??_C@_05EIADGAHN@DIK_V@
CONST	SEGMENT
??_C@_05EIADGAHN@DIK_V@ DB 'DIK_V', 00H			; `string'
CONST	ENDS
;	COMDAT ??_C@_05HPLGIGGJ@DIK_C@
CONST	SEGMENT
??_C@_05HPLGIGGJ@DIK_C@ DB 'DIK_C', 00H			; `string'
CONST	ENDS
;	COMDAT ??_C@_05NGIAENPD@DIK_X@
CONST	SEGMENT
??_C@_05NGIAENPD@DIK_X@ DB 'DIK_X', 00H			; `string'
CONST	ENDS
;	COMDAT ??_C@_05OELGCPHB@DIK_Z@
CONST	SEGMENT
??_C@_05OELGCPHB@DIK_Z@ DB 'DIK_Z', 00H			; `string'
CONST	ENDS
;	COMDAT ??_C@_0O@DGKNNOHE@DIK_BACKSLASH@
CONST	SEGMENT
??_C@_0O@DGKNNOHE@DIK_BACKSLASH@ DB 'DIK_BACKSLASH', 00H ; `string'
CONST	ENDS
;	COMDAT ??_C@_0L@GNGJHMON@DIK_LSHIFT@
CONST	SEGMENT
??_C@_0L@GNGJHMON@DIK_LSHIFT@ DB 'DIK_LSHIFT', 00H	; `string'
CONST	ENDS
;	COMDAT ??_C@_09MOGGLCIP@DIK_GRAVE@
CONST	SEGMENT
??_C@_09MOGGLCIP@DIK_GRAVE@ DB 'DIK_GRAVE', 00H		; `string'
CONST	ENDS
;	COMDAT ??_C@_0P@JDEKLKAM@DIK_APOSTROPHE@
CONST	SEGMENT
??_C@_0P@JDEKLKAM@DIK_APOSTROPHE@ DB 'DIK_APOSTROPHE', 00H ; `string'
CONST	ENDS
;	COMDAT ??_C@_0O@NEECDLLB@DIK_SEMICOLON@
CONST	SEGMENT
??_C@_0O@NEECDLLB@DIK_SEMICOLON@ DB 'DIK_SEMICOLON', 00H ; `string'
CONST	ENDS
;	COMDAT ??_C@_05PICOJKKG@DIK_L@
CONST	SEGMENT
??_C@_05PICOJKKG@DIK_L@ DB 'DIK_L', 00H			; `string'
CONST	ENDS
;	COMDAT ??_C@_05LHGPAMGB@DIK_K@
CONST	SEGMENT
??_C@_05LHGPAMGB@DIK_K@ DB 'DIK_K', 00H			; `string'
CONST	ENDS
;	COMDAT ??_C@_05KOHEDNCA@DIK_J@
CONST	SEGMENT
??_C@_05KOHEDNCA@DIK_J@ DB 'DIK_J', 00H			; `string'
CONST	ENDS
;	COMDAT ??_C@_05JMECFPKC@DIK_H@
CONST	SEGMENT
??_C@_05JMECFPKC@DIK_H@ DB 'DIK_H', 00H			; `string'
CONST	ENDS
;	COMDAT ??_C@_05BLNKEDGN@DIK_G@
CONST	SEGMENT
??_C@_05BLNKEDGN@DIK_G@ DB 'DIK_G', 00H			; `string'
CONST	ENDS
;	COMDAT ??_C@_05CMBHCCM@DIK_F@
CONST	SEGMENT
??_C@_05CMBHCCM@DIK_F@ DB 'DIK_F', 00H			; `string'
CONST	ENDS
;	COMDAT ??_C@_05DAPHBAKO@DIK_D@
CONST	SEGMENT
??_C@_05DAPHBAKO@DIK_D@ DB 'DIK_D', 00H			; `string'
CONST	ENDS
;	COMDAT ??_C@_05DFHEJEDI@DIK_S@
CONST	SEGMENT
??_C@_05DFHEJEDI@DIK_S@ DB 'DIK_S', 00H			; `string'
CONST	ENDS
;	COMDAT ??_C@_05ENIAOEOL@DIK_A@
CONST	SEGMENT
??_C@_05ENIAOEOL@DIK_A@ DB 'DIK_A', 00H			; `string'
CONST	ENDS
;	COMDAT ??_C@_0N@ODLLDAI@DIK_LCONTROL@
CONST	SEGMENT
??_C@_0N@ODLLDAI@DIK_LCONTROL@ DB 'DIK_LCONTROL', 00H	; `string'
CONST	ENDS
;	COMDAT ??_C@_0L@JLNKBJCL@DIK_RETURN@
CONST	SEGMENT
??_C@_0L@JLNKBJCL@DIK_RETURN@ DB 'DIK_RETURN', 00H	; `string'
CONST	ENDS
;	COMDAT ??_C@_0N@CBJBCLKG@DIK_RBRACKET@
CONST	SEGMENT
??_C@_0N@CBJBCLKG@DIK_RBRACKET@ DB 'DIK_RBRACKET', 00H	; `string'
CONST	ENDS
;	COMDAT ??_C@_0N@EFJDLCEF@DIK_LBRACKET@
CONST	SEGMENT
??_C@_0N@EFJDLCEF@DIK_LBRACKET@ DB 'DIK_LBRACKET', 00H	; `string'
CONST	ENDS
;	COMDAT ??_C@_05BOFJMHPL@DIK_P@
CONST	SEGMENT
??_C@_05BOFJMHPL@DIK_P@ DB 'DIK_P', 00H			; `string'
CONST	ENDS
;	COMDAT ??_C@_05NDADMJGF@DIK_O@
CONST	SEGMENT
??_C@_05NDADMJGF@DIK_O@ DB 'DIK_O', 00H			; `string'
CONST	ENDS
;	COMDAT ??_C@_05IFFJGOOD@DIK_I@
CONST	SEGMENT
??_C@_05IFFJGOOD@DIK_I@ DB 'DIK_I', 00H			; `string'
CONST	ENDS
;	COMDAT ??_C@_05GDCODDLO@DIK_U@
CONST	SEGMENT
??_C@_05GDCODDLO@DIK_U@ DB 'DIK_U', 00H			; `string'
CONST	ENDS
;	COMDAT ??_C@_05MPJLHMLC@DIK_Y@
CONST	SEGMENT
??_C@_05MPJLHMLC@DIK_Y@ DB 'DIK_Y', 00H			; `string'
CONST	ENDS
;	COMDAT ??_C@_05HKDFACPP@DIK_T@
CONST	SEGMENT
??_C@_05HKDFACPP@DIK_T@ DB 'DIK_T', 00H			; `string'
CONST	ENDS
;	COMDAT ??_C@_05CMGPKFHJ@DIK_R@
CONST	SEGMENT
??_C@_05CMGPKFHJ@DIK_R@ DB 'DIK_R', 00H			; `string'
CONST	ENDS
;	COMDAT ??_C@_05CJOMCBOP@DIK_E@
CONST	SEGMENT
??_C@_05CJOMCBOP@DIK_E@ DB 'DIK_E', 00H			; `string'
CONST	ENDS
;	COMDAT ??_C@_05FBBIFBDM@DIK_W@
CONST	SEGMENT
??_C@_05FBBIFBDM@DIK_W@ DB 'DIK_W', 00H			; `string'
CONST	ENDS
;	COMDAT ??_C@_05HECPGLK@DIK_Q@
CONST	SEGMENT
??_C@_05HECPGLK@DIK_Q@ DB 'DIK_Q', 00H			; `string'
CONST	ENDS
;	COMDAT ??_C@_07MODNCMBL@DIK_TAB@
CONST	SEGMENT
??_C@_07MODNCMBL@DIK_TAB@ DB 'DIK_TAB', 00H		; `string'
CONST	ENDS
;	COMDAT ??_C@_08HHEEGKBL@DIK_BACK@
CONST	SEGMENT
??_C@_08HHEEGKBL@DIK_BACK@ DB 'DIK_BACK', 00H		; `string'
CONST	ENDS
;	COMDAT ??_C@_0L@KKCLPAPI@DIK_EQUALS@
CONST	SEGMENT
??_C@_0L@KKCLPAPI@DIK_EQUALS@ DB 'DIK_EQUALS', 00H	; `string'
CONST	ENDS
;	COMDAT ??_C@_09DOHACMKC@DIK_MINUS@
CONST	SEGMENT
??_C@_09DOHACMKC@DIK_MINUS@ DB 'DIK_MINUS', 00H		; `string'
CONST	ENDS
;	COMDAT ??_C@_05HLKEKMFM@DIK_0@
CONST	SEGMENT
??_C@_05HLKEKMFM@DIK_0@ DB 'DIK_0', 00H			; `string'
CONST	ENDS
;	COMDAT ??_C@_05KKGGBHBF@DIK_9@
CONST	SEGMENT
??_C@_05KKGGBHBF@DIK_9@ DB 'DIK_9', 00H			; `string'
CONST	ENDS
;	COMDAT ??_C@_05LDHNCGFE@DIK_8@
CONST	SEGMENT
??_C@_05LDHNCGFE@DIK_8@ DB 'DIK_8', 00H			; `string'
CONST	ENDS
;	COMDAT ??_C@_05DEOFDKJL@DIK_7@
CONST	SEGMENT
??_C@_05DEOFDKJL@DIK_7@ DB 'DIK_7', 00H			; `string'
CONST	ENDS
;	COMDAT ??_C@_05CNPOALNK@DIK_6@
CONST	SEGMENT
??_C@_05CNPOALNK@DIK_6@ DB 'DIK_6', 00H			; `string'
CONST	ENDS
;	COMDAT ??_C@_05GNDFIBJ@DIK_5@
CONST	SEGMENT
??_C@_05GNDFIBJ@DIK_5@ DB 'DIK_5', 00H			; `string'
CONST	ENDS
;	COMDAT ??_C@_05BPMIGJFI@DIK_4@
CONST	SEGMENT
??_C@_05BPMIGJFI@DIK_4@ DB 'DIK_4', 00H			; `string'
CONST	ENDS
;	COMDAT ??_C@_05FAIJPPJP@DIK_3@
CONST	SEGMENT
??_C@_05FAIJPPJP@DIK_3@ DB 'DIK_3', 00H			; `string'
CONST	ENDS
;	COMDAT ??_C@_05EJJCMONO@DIK_2@
CONST	SEGMENT
??_C@_05EJJCMONO@DIK_2@ DB 'DIK_2', 00H			; `string'
CONST	ENDS
;	COMDAT ??_C@_05GCLPJNBN@DIK_1@
CONST	SEGMENT
??_C@_05GCLPJNBN@DIK_1@ DB 'DIK_1', 00H			; `string'
CONST	ENDS
;	COMDAT ??_C@_07CACBFKLO@DIK_ESC@
CONST	SEGMENT
??_C@_07CACBFKLO@DIK_ESC@ DB 'DIK_ESC', 00H		; `string'
CONST	ENDS
;	COMDAT ??_C@_0L@BOHNMBC@DIK_ESCAPE@
CONST	SEGMENT
??_C@_0L@BOHNMBC@DIK_ESCAPE@ DB 'DIK_ESCAPE', 00H	; `string'
CONST	ENDS
;	COMDAT ??_C@_09EABNPHOI@VK_DELETE@
CONST	SEGMENT
??_C@_09EABNPHOI@VK_DELETE@ DB 'VK_DELETE', 00H		; `string'
CONST	ENDS
;	COMDAT ??_C@_06LPJBNMHN@VK_END@
CONST	SEGMENT
??_C@_06LPJBNMHN@VK_END@ DB 'VK_END', 00H		; `string'
CONST	ENDS
;	COMDAT ??_C@_07OMPILPEG@VK_HOME@
CONST	SEGMENT
??_C@_07OMPILPEG@VK_HOME@ DB 'VK_HOME', 00H		; `string'
CONST	ENDS
;	COMDAT ??_C@_07NLENKNCK@VK_DOWN@
CONST	SEGMENT
??_C@_07NLENKNCK@VK_DOWN@ DB 'VK_DOWN', 00H		; `string'
CONST	ENDS
;	COMDAT ??_C@_05PIGLHCBF@VK_UP@
CONST	SEGMENT
??_C@_05PIGLHCBF@VK_UP@ DB 'VK_UP', 00H			; `string'
CONST	ENDS
;	COMDAT ??_C@_08LOMCDCA@VK_RIGHT@
CONST	SEGMENT
??_C@_08LOMCDCA@VK_RIGHT@ DB 'VK_RIGHT', 00H		; `string'
CONST	ENDS
;	COMDAT ??_C@_07CJEJDFBD@VK_LEFT@
CONST	SEGMENT
??_C@_07CJEJDFBD@VK_LEFT@ DB 'VK_LEFT', 00H		; `string'
CONST	ENDS
;	COMDAT ??_C@_0BG@JGNHHMCM@DEGREE_DIRECTION_LEFT@
CONST	SEGMENT
??_C@_0BG@JGNHHMCM@DEGREE_DIRECTION_LEFT@ DB 'DEGREE_DIRECTION_LEFT', 00H ; `string'
CONST	ENDS
;	COMDAT ??_C@_0BH@LNDFJAFE@DEGREE_DIRECTION_RIGHT@
CONST	SEGMENT
??_C@_0BH@LNDFJAFE@DEGREE_DIRECTION_RIGHT@ DB 'DEGREE_DIRECTION_RIGHT', 00H ; `string'
CONST	ENDS
;	COMDAT ??_C@_0BG@KEIJCHNJ@DEGREE_DIRECTION_SAME@
CONST	SEGMENT
??_C@_0BG@KEIJCHNJ@DEGREE_DIRECTION_SAME@ DB 'DEGREE_DIRECTION_SAME', 00H ; `string'
CONST	ENDS
;	COMDAT ??_C@_0O@FAGLOALJ@INFO_TEXTTAIL@
CONST	SEGMENT
??_C@_0O@FAGLOALJ@INFO_TEXTTAIL@ DB 'INFO_TEXTTAIL', 00H ; `string'
CONST	ENDS
;	COMDAT ??_C@_0M@KLBHMBMD@INFO_EFFECT@
CONST	SEGMENT
??_C@_0M@KLBHMBMD@INFO_EFFECT@ DB 'INFO_EFFECT', 00H	; `string'
CONST	ENDS
;	COMDAT ??_C@_0L@FNNFPLHG@INFO_ACTOR@
CONST	SEGMENT
??_C@_0L@FNNFPLHG@INFO_ACTOR@ DB 'INFO_ACTOR', 00H	; `string'
CONST	ENDS
;	COMDAT ??_C@_09OKOJMLAA@INFO_ITEM@
CONST	SEGMENT
??_C@_09OKOJMLAA@INFO_ITEM@ DB 'INFO_ITEM', 00H		; `string'
CONST	ENDS
;	COMDAT ??_C@_0BE@LJAANCDG@SetMultiFarmExeIcon@
CONST	SEGMENT
??_C@_0BE@LJAANCDG@SetMultiFarmExeIcon@ DB 'SetMultiFarmExeIcon', 00H ; `string'
CONST	ENDS
;	COMDAT ??_C@_0BB@DGBLNILG@FlashApplication@
CONST	SEGMENT
??_C@_0BB@DGBLNILG@FlashApplication@ DB 'FlashApplication', 00H ; `string'
CONST	ENDS
;	COMDAT ??_C@_09CALLECAO@GetLocale@
CONST	SEGMENT
??_C@_09CALLECAO@GetLocale@ DB 'GetLocale', 00H		; `string'
CONST	ENDS
;	COMDAT ??_C@_09OPOGDJM@SetLocale@
CONST	SEGMENT
??_C@_09OPOGDJM@SetLocale@ DB 'SetLocale', 00H		; `string'
CONST	ENDS
;	COMDAT ??_C@_07MMGEHGCI@GetName@
CONST	SEGMENT
??_C@_07MMGEHGCI@GetName@ DB 'GetName', 00H		; `string'
CONST	ENDS
;	COMDAT ??_C@_0P@BCNBBHFI@OpenWebBrowser@
CONST	SEGMENT
??_C@_0P@BCNBBHFI@OpenWebBrowser@ DB 'OpenWebBrowser', 00H ; `string'
CONST	ENDS
;	COMDAT ??_C@_0N@BFFIJKHB@ShellExecute@
CONST	SEGMENT
??_C@_0N@BFFIJKHB@ShellExecute@ DB 'ShellExecute', 00H	; `string'
CONST	ENDS
;	COMDAT ??_C@_0M@JMIFNMOK@OnLogoClose@
CONST	SEGMENT
??_C@_0M@JMIFNMOK@OnLogoClose@ DB 'OnLogoClose', 00H	; `string'
CONST	ENDS
;	COMDAT ??_C@_0L@JMMGDKPP@OnLogoOpen@
CONST	SEGMENT
??_C@_0L@JMMGDKPP@OnLogoOpen@ DB 'OnLogoOpen', 00H	; `string'
CONST	ENDS
;	COMDAT ??_C@_0N@ELECBFOK@OnLogoRender@
CONST	SEGMENT
??_C@_0N@ELECBFOK@OnLogoRender@ DB 'OnLogoRender', 00H	; `string'
CONST	ENDS
;	COMDAT ??_C@_0N@LIPHBNAO@OnLogoUpdate@
CONST	SEGMENT
??_C@_0N@LIPHBNAO@OnLogoUpdate@ DB 'OnLogoUpdate', 00H	; `string'
CONST	ENDS
;	COMDAT ??_C@_0BB@DLDOCGLL@SetGuildMarkPath@
CONST	SEGMENT
??_C@_0BB@DLDOCGLL@SetGuildMarkPath@ DB 'SetGuildMarkPath', 00H ; `string'
CONST	ENDS
;	COMDAT ??_C@_0BH@GBDECBIH@IsEnableTestServerFlag@
CONST	SEGMENT
??_C@_0BH@GBDECBIH@IsEnableTestServerFlag@ DB 'IsEnableTestServerFlag', 00H ; `string'
CONST	ENDS
;	COMDAT ??_C@_0BF@BOMOCGIP@EnableTestServerFlag@
CONST	SEGMENT
??_C@_0BF@BOMOCGIP@EnableTestServerFlag@ DB 'EnableTestServerFlag', 00H ; `string'
CONST	ENDS
;	COMDAT ??_C@_0BA@NLDNPIOL@IsVisibleNotice@
CONST	SEGMENT
??_C@_0BA@NLDNPIOL@IsVisibleNotice@ DB 'IsVisibleNotice', 00H ; `string'
CONST	ENDS
;	COMDAT ??_C@_0BB@MMPIECKB@SetVisibleNotice@
CONST	SEGMENT
??_C@_0BB@MMPIECKB@SetVisibleNotice@ DB 'SetVisibleNotice', 00H ; `string'
CONST	ENDS
;	COMDAT ??_C@_0BF@KHKICLKO@testSetSpecularColor@
CONST	SEGMENT
??_C@_0BF@KHKICLKO@testSetSpecularColor@ DB 'testSetSpecularColor', 00H ; `string'
CONST	ENDS
;	COMDAT ??_C@_0BK@PLDHJGMN@testResetAccumulationTime@
CONST	SEGMENT
??_C@_0BK@PLDHJGMN@testResetAccumulationTime@ DB 'testResetAccumulationTi'
	DB	'me', 00H					; `string'
CONST	ENDS
;	COMDAT ??_C@_0BI@DNKBNLNC@testGetAccumulationTime@
CONST	SEGMENT
??_C@_0BI@DNKBNLNC@testGetAccumulationTime@ DB 'testGetAccumulationTime', 00H ; `string'
CONST	ENDS
;	COMDAT ??_C@_0BB@IFMAFIHG@SetSpecularSpeed@
CONST	SEGMENT
??_C@_0BB@IFMAFIHG@SetSpecularSpeed@ DB 'SetSpecularSpeed', 00H ; `string'
CONST	ENDS
;	COMDAT ??_C@_0N@HDAEMEAH@SetControlFP@
CONST	SEGMENT
??_C@_0N@HDAEMEAH@SetControlFP@ DB 'SetControlFP', 00H	; `string'
CONST	ENDS
;	COMDAT ??_C@_0BD@CEMKCGHA@GetDefaultCodePage@
CONST	SEGMENT
??_C@_0BD@CEMKCGHA@GetDefaultCodePage@ DB 'GetDefaultCodePage', 00H ; `string'
CONST	ENDS
;	COMDAT ??_C@_0P@BFJDMEJO@LoadLocaleData@
CONST	SEGMENT
??_C@_0P@BFJDMEJO@LoadLocaleData@ DB 'LoadLocaleData', 00H ; `string'
CONST	ENDS
;	COMDAT ??_C@_0P@JHGEFJDO@LoadLocaleAddr@
CONST	SEGMENT
??_C@_0P@JHGEFJDO@LoadLocaleAddr@ DB 'LoadLocaleAddr', 00H ; `string'
CONST	ENDS
;	COMDAT ??_C@_0O@OKMLAHKI@GetLocalePath@
CONST	SEGMENT
??_C@_0O@OKMLAHKI@GetLocalePath@ DB 'GetLocalePath', 00H ; `string'
CONST	ENDS
;	COMDAT ??_C@_0O@JDECMIPJ@GetLocaleName@
CONST	SEGMENT
??_C@_0O@JDECMIPJ@GetLocaleName@ DB 'GetLocaleName', 00H ; `string'
CONST	ENDS
;	COMDAT ??_C@_0BA@HHNFKANE@GetTextFileLine@
CONST	SEGMENT
??_C@_0BA@HHNFKANE@GetTextFileLine@ DB 'GetTextFileLine', 00H ; `string'
CONST	ENDS
;	COMDAT ??_C@_0BF@BNHHEKFO@GetTextFileLineCount@
CONST	SEGMENT
??_C@_0BF@BNHHEKFO@GetTextFileLineCount@ DB 'GetTextFileLineCount', 00H ; `string'
CONST	ENDS
;	COMDAT ??_C@_0O@LNEGOIPA@CloseTextFile@
CONST	SEGMENT
??_C@_0O@LNEGOIPA@CloseTextFile@ DB 'CloseTextFile', 00H ; `string'
CONST	ENDS
;	COMDAT ??_C@_0N@JAMKKFFG@OpenTextFile@
CONST	SEGMENT
??_C@_0N@JAMKKFFG@OpenTextFile@ DB 'OpenTextFile', 00H	; `string'
CONST	ENDS
;	COMDAT ??_C@_0M@LOHDPEAO@IsFileExist@
CONST	SEGMENT
??_C@_0M@LOHDPEAO@IsFileExist@ DB 'IsFileExist', 00H	; `string'
CONST	ENDS
;	COMDAT ??_C@_0O@MFMELJAK@SetSightRange@
CONST	SEGMENT
??_C@_0O@MFMELJAK@SetSightRange@ DB 'SetSightRange', 00H ; `string'
CONST	ENDS
;	COMDAT ??_C@_0BB@JANPDNEC@SetCameraSetting@
CONST	SEGMENT
??_C@_0BB@JANPDNEC@SetCameraSetting@ DB 'SetCameraSetting', 00H ; `string'
CONST	ENDS
;	COMDAT ??_C@_0BB@IPPGJFKO@SetDefaultCamera@
CONST	SEGMENT
??_C@_0BB@IPPGJFKO@SetDefaultCamera@ DB 'SetDefaultCamera', 00H ; `string'
CONST	ENDS
;	COMDAT ??_C@_0BC@KEOGBKMG@LoadCameraSetting@
CONST	SEGMENT
??_C@_0BC@KEOGBKMG@LoadCameraSetting@ DB 'LoadCameraSetting', 00H ; `string'
CONST	ENDS
;	COMDAT ??_C@_0BC@JPDLAHCD@SaveCameraSetting@
CONST	SEGMENT
??_C@_0BC@JPDLAHCD@SaveCameraSetting@ DB 'SaveCameraSetting', 00H ; `string'
CONST	ENDS
;	COMDAT ??_C@_0P@NCLIAJKF@SetCameraSpeed@
CONST	SEGMENT
??_C@_0P@NCLIAJKF@SetCameraSpeed@ DB 'SetCameraSpeed', 00H ; `string'
CONST	ENDS
;	COMDAT ??_C@_0BI@LNMJCGJN@EnableSpecialCameraMode@
CONST	SEGMENT
??_C@_0BI@LNMJCGJN@EnableSpecialCameraMode@ DB 'EnableSpecialCameraMode', 00H ; `string'
CONST	ENDS
;	COMDAT ??_C@_0BD@CENDFAOC@SetGuildSymbolPath@
CONST	SEGMENT
??_C@_0BD@CENDFAOC@SetGuildSymbolPath@ DB 'SetGuildSymbolPath', 00H ; `string'
CONST	ENDS
;	COMDAT ??_C@_0BD@CKMKHHJC@SetDefaultFontName@
CONST	SEGMENT
??_C@_0BD@CKMKHHJC@SetDefaultFontName@ DB 'SetDefaultFontName', 00H ; `string'
CONST	ENDS
;	COMDAT ??_C@_05PFDOMJEF@Sleep@
CONST	SEGMENT
??_C@_05PFDOMJEF@Sleep@ DB 'Sleep', 00H			; `string'
CONST	ENDS
;	COMDAT ??_C@_0BE@JKNPCCAK@GetDegreeDifference@
CONST	SEGMENT
??_C@_0BE@JKNPCCAK@GetDegreeDifference@ DB 'GetDegreeDifference', 00H ; `string'
CONST	ENDS
;	COMDAT ??_C@_0BF@IMHAMDDH@GetRotatingDirection@
CONST	SEGMENT
??_C@_0BF@IMHAMDDH@GetRotatingDirection@ DB 'GetRotatingDirection', 00H ; `string'
CONST	ENDS
;	COMDAT ??_C@_0P@GHKKFFNH@GetConnectData@
CONST	SEGMENT
??_C@_0P@GHKKFFNH@GetConnectData@ DB 'GetConnectData', 00H ; `string'
CONST	ENDS
;	COMDAT ??_C@_0P@KJLEKPPL@SetConnectData@
CONST	SEGMENT
??_C@_0P@KJLEKPPL@SetConnectData@ DB 'SetConnectData', 00H ; `string'
CONST	ENDS
;	COMDAT ??_C@_0BC@KKHIHHDJ@SetHardwareCursor@
CONST	SEGMENT
??_C@_0BC@KKHIHHDJ@SetHardwareCursor@ DB 'SetHardwareCursor', 00H ; `string'
CONST	ENDS
;	COMDAT ??_C@_0BC@IDNDDKLI@SetSoftwareCursor@
CONST	SEGMENT
??_C@_0BC@IDNDDKLI@SetSoftwareCursor@ DB 'SetSoftwareCursor', 00H ; `string'
CONST	ENDS
;	COMDAT ??_C@_0P@FMIDHOAE@IsLiarCursorOn@
CONST	SEGMENT
??_C@_0P@FMIDHOAE@IsLiarCursorOn@ DB 'IsLiarCursorOn', 00H ; `string'
CONST	ENDS
;	COMDAT ??_C@_0N@BFHCIAEF@IsShowCursor@
CONST	SEGMENT
??_C@_0N@BFHCIAEF@IsShowCursor@ DB 'IsShowCursor', 00H	; `string'
CONST	ENDS
;	COMDAT ??_C@_0L@MGJDDPFG@HideCursor@
CONST	SEGMENT
??_C@_0L@MGJDDPFG@HideCursor@ DB 'HideCursor', 00H	; `string'
CONST	ENDS
;	COMDAT ??_C@_0L@BIENLPGM@ShowCursor@
CONST	SEGMENT
??_C@_0L@BIENLPGM@ShowCursor@ DB 'ShowCursor', 00H	; `string'
CONST	ENDS
;	COMDAT ??_C@_09NEOLAIPD@GetCursor@
CONST	SEGMENT
??_C@_09NEOLAIPD@GetCursor@ DB 'GetCursor', 00H		; `string'
CONST	ENDS
;	COMDAT ??_C@_09PKKOCJGB@SetCursor@
CONST	SEGMENT
??_C@_09PKKOCJGB@SetCursor@ DB 'SetCursor', 00H		; `string'
CONST	ENDS
;	COMDAT ??_C@_09EJGJNKNL@IsPressed@
CONST	SEGMENT
??_C@_09EJGJNKNL@IsPressed@ DB 'IsPressed', 00H		; `string'
CONST	ENDS
;	COMDAT ??_C@_0M@HKOOBKOE@HideWebPage@
CONST	SEGMENT
??_C@_0M@HKOOBKOE@HideWebPage@ DB 'HideWebPage', 00H	; `string'
CONST	ENDS
;	COMDAT ??_C@_0M@CJKDPGGC@MoveWebPage@
CONST	SEGMENT
??_C@_0M@CJKDPGGC@MoveWebPage@ DB 'MoveWebPage', 00H	; `string'
CONST	ENDS
;	COMDAT ??_C@_0M@LMDMBNNG@ShowWebPage@
CONST	SEGMENT
??_C@_0M@LMDMBNNG@ShowWebPage@ DB 'ShowWebPage', 00H	; `string'
CONST	ENDS
;	COMDAT ??_C@_0O@JGKOEJBF@IsWebPageMode@
CONST	SEGMENT
??_C@_0O@JGKOEJBF@IsWebPageMode@ DB 'IsWebPageMode', 00H ; `string'
CONST	ENDS
;	COMDAT ??_C@_0O@NFOAEJMI@RunPythonFile@
CONST	SEGMENT
??_C@_0O@NFOAEJMI@RunPythonFile@ DB 'RunPythonFile', 00H ; `string'
CONST	ENDS
;	COMDAT ??_C@_09CIIBMEDP@GetRandom@
CONST	SEGMENT
??_C@_09CIIBMEDP@GetRandom@ DB 'GetRandom', 00H		; `string'
CONST	ENDS
;	COMDAT ??_C@_0BC@DJJGDMOB@GetCursorPosition@
CONST	SEGMENT
??_C@_0BC@DJJGDMOB@GetCursorPosition@ DB 'GetCursorPosition', 00H ; `string'
CONST	ENDS
;	COMDAT ??_C@_0BC@MCKFCFLJ@SetCenterPosition@
CONST	SEGMENT
??_C@_0BC@MCKFCFLJ@SetCenterPosition@ DB 'SetCenterPosition', 00H ; `string'
CONST	ENDS
;	COMDAT ??_C@_0BI@BPPNOEKE@SetGlobalCenterPosition@
CONST	SEGMENT
??_C@_0BI@BPPNOEKE@SetGlobalCenterPosition@ DB 'SetGlobalCenterPosition', 00H ; `string'
CONST	ENDS
;	COMDAT ??_C@_06GHJACMIL@SetFPS@
CONST	SEGMENT
??_C@_06GHJACMIL@SetFPS@ DB 'SetFPS', 00H		; `string'
CONST	ENDS
;	COMDAT ??_C@_0N@FGHMKANF@GetFaceCount@
CONST	SEGMENT
??_C@_0N@FGHMKANF@GetFaceCount@ DB 'GetFaceCount', 00H	; `string'
CONST	ENDS
;	COMDAT ??_C@_0N@KBJEAIDC@GetFaceSpeed@
CONST	SEGMENT
??_C@_0N@KBJEAIDC@GetFaceSpeed@ DB 'GetFaceSpeed', 00H	; `string'
CONST	ENDS
;	COMDAT ??_C@_07EGHKJKFO@GetLoad@
CONST	SEGMENT
??_C@_07EGHKJKFO@GetLoad@ DB 'GetLoad', 00H		; `string'
CONST	ENDS
;	COMDAT ??_C@_0O@EPOIPAHO@GetUpdateTime@
CONST	SEGMENT
??_C@_0O@EPOIPAHO@GetUpdateTime@ DB 'GetUpdateTime', 00H ; `string'
CONST	ENDS
;	COMDAT ??_C@_0O@KFOAIOPC@GetRenderTime@
CONST	SEGMENT
??_C@_0O@KFOAIOPC@GetRenderTime@ DB 'GetRenderTime', 00H ; `string'
CONST	ENDS
;	COMDAT ??_C@_0BK@PBNANFFG@GetAvailableTextureMemory@
CONST	SEGMENT
??_C@_0BK@PBNANFFG@GetAvailableTextureMemory@ DB 'GetAvailableTextureMemo'
	DB	'ry', 00H					; `string'
CONST	ENDS
;	COMDAT ??_C@_0BB@PJGDEPJO@MovieResetCamera@
CONST	SEGMENT
??_C@_0BB@PJGDEPJO@MovieResetCamera@ DB 'MovieResetCamera', 00H ; `string'
CONST	ENDS
;	COMDAT ??_C@_0BA@ILLHHFGG@MovieZoomCamera@
CONST	SEGMENT
??_C@_0BA@ILLHHFGG@MovieZoomCamera@ DB 'MovieZoomCamera', 00H ; `string'
CONST	ENDS
;	COMDAT ??_C@_0BB@KFJAAFFB@MoviePitchCamera@
CONST	SEGMENT
??_C@_0BB@KFJAAFFB@MoviePitchCamera@ DB 'MoviePitchCamera', 00H ; `string'
CONST	ENDS
;	COMDAT ??_C@_0BC@FCGIGAKD@MovieRotateCamera@
CONST	SEGMENT
??_C@_0BC@FCGIGAKD@MovieRotateCamera@ DB 'MovieRotateCamera', 00H ; `string'
CONST	ENDS
;	COMDAT ??_C@_0L@BGDDIOFP@ZoomCamera@
CONST	SEGMENT
??_C@_0L@BGDDIOFP@ZoomCamera@ DB 'ZoomCamera', 00H	; `string'
CONST	ENDS
;	COMDAT ??_C@_0M@PKAIAJKC@PitchCamera@
CONST	SEGMENT
??_C@_0M@PKAIAJKC@PitchCamera@ DB 'PitchCamera', 00H	; `string'
CONST	ENDS
;	COMDAT ??_C@_0N@HGIDFLAJ@RotateCamera@
CONST	SEGMENT
??_C@_0N@HGIDFLAJ@RotateCamera@ DB 'RotateCamera', 00H	; `string'
CONST	ENDS
;	COMDAT ??_C@_0N@EHIMFGIG@GetRenderFPS@
CONST	SEGMENT
??_C@_0N@EHIMFGIG@GetRenderFPS@ DB 'GetRenderFPS', 00H	; `string'
CONST	ENDS
;	COMDAT ??_C@_0N@JKLFODAC@GetUpdateFPS@
CONST	SEGMENT
??_C@_0N@JKLFODAC@GetUpdateFPS@ DB 'GetUpdateFPS', 00H	; `string'
CONST	ENDS
;	COMDAT ??_C@_0BD@HGCMJHC@GetGlobalTimeStamp@
CONST	SEGMENT
??_C@_0BD@HGCMJHC@GetGlobalTimeStamp@ DB 'GetGlobalTimeStamp', 00H ; `string'
CONST	ENDS
;	COMDAT ??_C@_0O@JKNDJHIN@GetGlobalTime@
CONST	SEGMENT
??_C@_0O@JKNDJHIN@GetGlobalTime@ DB 'GetGlobalTime', 00H ; `string'
CONST	ENDS
;	COMDAT ??_C@_07CDIANBOE@GetTime@
CONST	SEGMENT
??_C@_07CDIANBOE@GetTime@ DB 'GetTime', 00H		; `string'
CONST	ENDS
;	COMDAT ??_C@_0BC@JICDJDCH@GetCameraRotation@
CONST	SEGMENT
??_C@_0BC@JICDJDCH@GetCameraRotation@ DB 'GetCameraRotation', 00H ; `string'
CONST	ENDS
;	COMDAT ??_C@_0P@LHFPHHJA@GetCameraPitch@
CONST	SEGMENT
??_C@_0P@LHFPHHJA@GetCameraPitch@ DB 'GetCameraPitch', 00H ; `string'
CONST	ENDS
;	COMDAT ??_C@_09KOHPDBNP@GetCamera@
CONST	SEGMENT
??_C@_09KOHPDBNP@GetCamera@ DB 'GetCamera', 00H		; `string'
CONST	ENDS
;	COMDAT ??_C@_09IADKBAEN@SetCamera@
CONST	SEGMENT
??_C@_09IADKBAEN@SetCamera@ DB 'SetCamera', 00H		; `string'
CONST	ENDS
;	COMDAT ??_C@_0M@KODKGGCI@GetFileList@
CONST	SEGMENT
??_C@_0M@KODKGGCI@GetFileList@ DB 'GetFileList', 00H	; `string'
CONST	ENDS
;	COMDAT ??_C@_0M@DHIFKLBN@IsExistFile@
CONST	SEGMENT
??_C@_0M@DHIFKLBN@IsExistFile@ DB 'IsExistFile', 00H	; `string'
CONST	ENDS
;	COMDAT ??_C@_0BA@PPCHHCMN@SetMouseHandler@
CONST	SEGMENT
??_C@_0BA@PPCHHCMN@SetMouseHandler@ DB 'SetMouseHandler', 00H ; `string'
CONST	ENDS
;	COMDAT ??_C@_05BGKIEECB@Abort@
CONST	SEGMENT
??_C@_05BGKIEECB@Abort@ DB 'Abort', 00H			; `string'
CONST	ENDS
;	COMDAT ??_C@_04LBABLPF@Exit@
CONST	SEGMENT
??_C@_04LBABLPF@Exit@ DB 'Exit', 00H			; `string'
CONST	ENDS
;	COMDAT ??_C@_07MNGBFJEN@Process@
CONST	SEGMENT
??_C@_07MNGBFJEN@Process@ DB 'Process', 00H		; `string'
CONST	ENDS
;	COMDAT ??_C@_06MIKANEJK@Create@
CONST	SEGMENT
??_C@_06MIKANEJK@Create@ DB 'Create', 00H		; `string'
CONST	ENDS
;	COMDAT ??_C@_04KLCPKPBE@Loop@
CONST	SEGMENT
??_C@_04KLCPKPBE@Loop@ DB 'Loop', 00H			; `string'
CONST	ENDS
;	COMDAT ??_C@_0L@ONMMANJD@RenderGame@
CONST	SEGMENT
??_C@_0L@ONMMANJD@RenderGame@ DB 'RenderGame', 00H	; `string'
CONST	ENDS
;	COMDAT ??_C@_0L@HMEHDBP@UpdateGame@
CONST	SEGMENT
??_C@_0L@HMEHDBP@UpdateGame@ DB 'UpdateGame', 00H	; `string'
CONST	ENDS
;	COMDAT ??_C@_07NAJNLNAF@GetInfo@
CONST	SEGMENT
??_C@_07NAJNLNAF@GetInfo@ DB 'GetInfo', 00H		; `string'
CONST	ENDS
;	COMDAT ??_C@_0N@CLLAGICL@GetImageInfo@
CONST	SEGMENT
??_C@_0N@CLLAGICL@GetImageInfo@ DB 'GetImageInfo', 00H	; `string'
CONST	ENDS
;	COMDAT ??_C@_0N@KCIEBLLG@SetFrameSkip@
CONST	SEGMENT
??_C@_0N@KCIEBLLG@SetFrameSkip@ DB 'SetFrameSkip', 00H	; `string'
CONST	ENDS
;	COMDAT ??_C@_09ILNFAENI@SetMinFog@
CONST	SEGMENT
??_C@_09ILNFAENI@SetMinFog@ DB 'SetMinFog', 00H		; `string'
CONST	ENDS
;	COMDAT ??_C@_0BF@CEAHHILA@SetCameraMaxDistance@
CONST	SEGMENT
??_C@_0BF@CEAHHILA@SetCameraMaxDistance@ DB 'SetCameraMaxDistance', 00H ; `string'
CONST	ENDS
;	COMDAT ??_C@_0BD@CPFDKOFJ@SetRideHorseEnable@
CONST	SEGMENT
??_C@_0BD@CPFDKOFJ@SetRideHorseEnable@ DB 'SetRideHorseEnable', 00H ; `string'
CONST	ENDS
;	COMDAT ??_C@_0CI@KEKBEMLJ@SetTwoHandedWeaponAttSpeedDecre@
CONST	SEGMENT
??_C@_0CI@KEKBEMLJ@SetTwoHandedWeaponAttSpeedDecre@ DB 'SetTwoHandedWeapo'
	DB	'nAttSpeedDecreaseValue', 00H		; `string'
CONST	ENDS
;	COMDAT ??_C@_0BM@CMPMDOBN@SetSkillEffectUpgradeEnable@
CONST	SEGMENT
??_C@_0BM@CMPMDOBN@SetSkillEffectUpgradeEnable@ DB 'SetSkillEffectUpgrade'
	DB	'Enable', 00H				; `string'
CONST	ENDS
;	COMDAT ??_C@_0BI@ONHBEMJA@SetWeaponSpecularEnable@
CONST	SEGMENT
??_C@_0BI@ONHBEMJA@SetWeaponSpecularEnable@ DB 'SetWeaponSpecularEnable', 00H ; `string'
CONST	ENDS
;	COMDAT ??_C@_0BH@PJOFIHBE@SetArmorSpecularEnable@
CONST	SEGMENT
??_C@_0BH@PJOFIHBE@SetArmorSpecularEnable@ DB 'SetArmorSpecularEnable', 00H ; `string'
CONST	ENDS
;	COMDAT ??_C@_0BD@PILPKKLH@SetHairColorEnable@
CONST	SEGMENT
??_C@_0BD@PILPKKLH@SetHairColorEnable@ DB 'SetHairColorEnable', 00H ; `string'
CONST	ENDS
;	COMDAT ??_C@_0BG@EOCGHNJF@SetTextTailLivingTime@
CONST	SEGMENT
??_C@_0BG@EOCGHNJF@SetTextTailLivingTime@ DB 'SetTextTailLivingTime', 00H ; `string'
CONST	ENDS
;	COMDAT ??_C@_04PMOCAHAA@open@
CONST	SEGMENT
??_C@_04PMOCAHAA@open@ DB 'open', 00H			; `string'
CONST	ENDS
;	COMDAT ??_C@_04JCAPCJAP@?4tga@
CONST	SEGMENT
??_C@_04JCAPCJAP@?4tga@ DB '.tga', 00H			; `string'
CONST	ENDS
;	COMDAT ??_C@_02OCDGCAAK@si@
CONST	SEGMENT
??_C@_02OCDGCAAK@si@ DB 'si', 00H			; `string'
CONST	ENDS
;	COMDAT ??_C@_0BH@GNAGLJEE@Wrong?5Cursor?5Name?5?$FL?$CFd?$FN@
CONST	SEGMENT
??_C@_0BH@GNAGLJEE@Wrong?5Cursor?5Name?5?$FL?$CFd?$FN@ DB 'Wrong Cursor N'
	DB	'ame [%d]', 00H				; `string'
CONST	ENDS
;	COMDAT ??_C@_02PINLEBJB@fi@
CONST	SEGMENT
??_C@_02PINLEBJB@fi@ DB 'fi', 00H			; `string'
CONST	ENDS
;	COMDAT ??_C@_01INIBCBCB@f@
CONST	SEGMENT
??_C@_01INIBCBCB@f@ DB 'f', 00H				; `string'
CONST	ENDS
;	COMDAT ??_C@_04EOBPFJGD@ffff@
CONST	SEGMENT
??_C@_04EOBPFJGD@ffff@ DB 'ffff', 00H			; `string'
CONST	ENDS
;	COMDAT ??_C@_0DK@CJFAEGAK@Anka2?4com?5?$CD?5Ger?gek?5Rekabet?5Bura@
CONST	SEGMENT
??_C@_0DK@CJFAEGAK@Anka2?4com?5?$CD?5Ger?gek?5Rekabet?5Bura@ DB 'Anka2.co'
	DB	'm # Ger', 0e7H, 'ek Rekabet Burada Ba', 0feH, 'lar! | [Best S'
	DB	'tudio]', 00H				; `string'
CONST	ENDS
;	COMDAT ??_C@_01LKDEMHDF@s@
CONST	SEGMENT
??_C@_01LKDEMHDF@s@ DB 's', 00H				; `string'
CONST	ENDS
;	COMDAT ??_C@_02OIKAIHIF@s?$CD@
CONST	SEGMENT
??_C@_02OIKAIHIF@s?$CD@ DB 's#', 00H			; `string'
?bVisibleNotice@@3HA DD 01H				; bVisibleNotice
PUBLIC	?strstr@@YAPADQADQBD@Z				; strstr
PUBLIC	?Instance@?$CSingleton@VCPythonLauncher@@@@SAAAVCPythonLauncher@@XZ ; CSingleton<CPythonLauncher>::Instance
PUBLIC	?Instance@?$CSingleton@VCEterPackManager@@@@SAAAVCEterPackManager@@XZ ; CSingleton<CEterPackManager>::Instance
PUBLIC	?initapp@@YAXXZ					; initapp
PUBLIC	?appSetMultiFarmExeIcon@@YAPAU_object@@PAU1@0@Z	; appSetMultiFarmExeIcon
PUBLIC	?appFlashApplication@@YAPAU_object@@PAU1@0@Z	; appFlashApplication
PUBLIC	?appGetLocale@@YAPAU_object@@PAU1@0@Z		; appGetLocale
PUBLIC	?appSetLocale@@YAPAU_object@@PAU1@0@Z		; appSetLocale
PUBLIC	?appGetName@@YAPAU_object@@PAU1@0@Z		; appGetName
PUBLIC	?appOpenWebBrowser@@YAPAU_object@@PAU1@0@Z	; appOpenWebBrowser
PUBLIC	?appShellExecute@@YAPAU_object@@PAU1@0@Z	; appShellExecute
PUBLIC	?appLogoClose@@YAPAU_object@@PAU1@0@Z		; appLogoClose
PUBLIC	?appLogoRender@@YAPAU_object@@PAU1@0@Z		; appLogoRender
PUBLIC	?appLogoUpdate@@YAPAU_object@@PAU1@0@Z		; appLogoUpdate
PUBLIC	?appLogoOpen@@YAPAU_object@@PAU1@0@Z		; appLogoOpen
PUBLIC	?appSetGuildMarkPath@@YAPAU_object@@PAU1@0@Z	; appSetGuildMarkPath
PUBLIC	?appGetTextFileLine@@YAPAU_object@@PAU1@0@Z	; appGetTextFileLine
PUBLIC	?appGetTextFileLineCount@@YAPAU_object@@PAU1@0@Z ; appGetTextFileLineCount
PUBLIC	??1CTextLineLoader@@QAE@XZ			; CTextLineLoader::~CTextLineLoader
PUBLIC	??_GCTextLineLoader@@QAEPAXI@Z			; CTextLineLoader::`scalar deleting destructor'
PUBLIC	?appCloseTextFile@@YAPAU_object@@PAU1@0@Z	; appCloseTextFile
PUBLIC	?appOpenTextFile@@YAPAU_object@@PAU1@0@Z	; appOpenTextFile
PUBLIC	?GetLine@CTextLineLoader@@QAEPBDK@Z		; CTextLineLoader::GetLine
PUBLIC	?GetLineCount@CTextLineLoader@@QAEKXZ		; CTextLineLoader::GetLineCount
PUBLIC	??0CTextLineLoader@@QAE@PBD@Z			; CTextLineLoader::CTextLineLoader
PUBLIC	?appIsEnableTestServerFlag@@YAPAU_object@@PAU1@0@Z ; appIsEnableTestServerFlag
PUBLIC	?appEnableTestServerFlag@@YAPAU_object@@PAU1@0@Z ; appEnableTestServerFlag
PUBLIC	?appIsVisibleNotice@@YAPAU_object@@PAU1@0@Z	; appIsVisibleNotice
PUBLIC	?appSetVisibleNotice@@YAPAU_object@@PAU1@0@Z	; appSetVisibleNotice
PUBLIC	?apptestSetSpecularColor@@YAPAU_object@@PAU1@0@Z ; apptestSetSpecularColor
PUBLIC	?apptestResetAccumulationTime@@YAPAU_object@@PAU1@0@Z ; apptestResetAccumulationTime
PUBLIC	?apptestGetAccumulationTime@@YAPAU_object@@PAU1@0@Z ; apptestGetAccumulationTime
PUBLIC	?appSetSightRange@@YAPAU_object@@PAU1@0@Z	; appSetSightRange
PUBLIC	?appSetDefaultCamera@@YAPAU_object@@PAU1@0@Z	; appSetDefaultCamera
PUBLIC	?appLoadCameraSetting@@YAPAU_object@@PAU1@0@Z	; appLoadCameraSetting
PUBLIC	?appSaveCameraSetting@@YAPAU_object@@PAU1@0@Z	; appSaveCameraSetting
PUBLIC	?appSetCameraSetting@@YAPAU_object@@PAU1@0@Z	; appSetCameraSetting
PUBLIC	?appIsFileExist@@YAPAU_object@@PAU1@0@Z		; appIsFileExist
PUBLIC	?appSetCameraSpeed@@YAPAU_object@@PAU1@0@Z	; appSetCameraSpeed
PUBLIC	?appEnableSpecialCameraMode@@YAPAU_object@@PAU1@0@Z ; appEnableSpecialCameraMode
PUBLIC	?appSetGuildSymbolPath@@YAPAU_object@@PAU1@0@Z	; appSetGuildSymbolPath
PUBLIC	?appSetDefaultFontName@@YAPAU_object@@PAU1@0@Z	; appSetDefaultFontName
PUBLIC	?appSleep@@YAPAU_object@@PAU1@0@Z		; appSleep
PUBLIC	?appGetDegreeDifference@@YAPAU_object@@PAU1@0@Z	; appGetDegreeDifference
PUBLIC	?appGetRotatingDirection@@YAPAU_object@@PAU1@0@Z ; appGetRotatingDirection
PUBLIC	?appGetRandom@@YAPAU_object@@PAU1@0@Z		; appGetRandom
PUBLIC	?appGetConnectData@@YAPAU_object@@PAU1@0@Z	; appGetConnectData
PUBLIC	?appSetConnectData@@YAPAU_object@@PAU1@0@Z	; appSetConnectData
PUBLIC	?appSetHardwareCursor@@YAPAU_object@@PAU1@0@Z	; appSetHardwareCursor
PUBLIC	?appSetSoftwareCursor@@YAPAU_object@@PAU1@0@Z	; appSetSoftwareCursor
PUBLIC	?appIsLiarCursorOn@@YAPAU_object@@PAU1@0@Z	; appIsLiarCursorOn
PUBLIC	?appIsShowCursor@@YAPAU_object@@PAU1@0@Z	; appIsShowCursor
PUBLIC	?appHideCursor@@YAPAU_object@@PAU1@0@Z		; appHideCursor
PUBLIC	?appShowCursor@@YAPAU_object@@PAU1@0@Z		; appShowCursor
PUBLIC	?appGetCursor@@YAPAU_object@@PAU1@0@Z		; appGetCursor
PUBLIC	?appSetCursor@@YAPAU_object@@PAU1@0@Z		; appSetCursor
PUBLIC	?appIsPressed@@YAPAU_object@@PAU1@0@Z		; appIsPressed
PUBLIC	?appRunPythonFile@@YAPAU_object@@PAU1@0@Z	; appRunPythonFile
PUBLIC	?appGetCursorPosition@@YAPAU_object@@PAU1@0@Z	; appGetCursorPosition
PUBLIC	?appSetCenterPosition@@YAPAU_object@@PAU1@0@Z	; appSetCenterPosition
PUBLIC	?appSetGlobalCenterPosition@@YAPAU_object@@PAU1@0@Z ; appSetGlobalCenterPosition
PUBLIC	?appSetFPS@@YAPAU_object@@PAU1@0@Z		; appSetFPS
PUBLIC	?appGetAvaiableTextureMememory@@YAPAU_object@@PAU1@0@Z ; appGetAvaiableTextureMememory
PUBLIC	?appGetFaceCount@@YAPAU_object@@PAU1@0@Z	; appGetFaceCount
PUBLIC	?appGetLoad@@YAPAU_object@@PAU1@0@Z		; appGetLoad
PUBLIC	?appGetUpdateTime@@YAPAU_object@@PAU1@0@Z	; appGetUpdateTime
PUBLIC	?appGetRenderTime@@YAPAU_object@@PAU1@0@Z	; appGetRenderTime
PUBLIC	?appGetFaceSpeed@@YAPAU_object@@PAU1@0@Z	; appGetFaceSpeed
PUBLIC	?appMovieResetCamera@@YAPAU_object@@PAU1@0@Z	; appMovieResetCamera
PUBLIC	?appMovieZoomCamera@@YAPAU_object@@PAU1@0@Z	; appMovieZoomCamera
PUBLIC	?appMoviePitchCamera@@YAPAU_object@@PAU1@0@Z	; appMoviePitchCamera
PUBLIC	?appMovieRotateCamera@@YAPAU_object@@PAU1@0@Z	; appMovieRotateCamera
PUBLIC	?appZoomCamera@@YAPAU_object@@PAU1@0@Z		; appZoomCamera
PUBLIC	?appPitchCamera@@YAPAU_object@@PAU1@0@Z		; appPitchCamera
PUBLIC	?appRotateCamera@@YAPAU_object@@PAU1@0@Z	; appRotateCamera
PUBLIC	?appGetRenderFPS@@YAPAU_object@@PAU1@0@Z	; appGetRenderFPS
PUBLIC	?appGetUpdateFPS@@YAPAU_object@@PAU1@0@Z	; appGetUpdateFPS
PUBLIC	?appGetGlobalTimeStamp@@YAPAU_object@@PAU1@0@Z	; appGetGlobalTimeStamp
PUBLIC	?appGetGlobalTime@@YAPAU_object@@PAU1@0@Z	; appGetGlobalTime
PUBLIC	?appGetTime@@YAPAU_object@@PAU1@0@Z		; appGetTime
PUBLIC	?appGetCameraRotation@@YAPAU_object@@PAU1@0@Z	; appGetCameraRotation
PUBLIC	?appGetCameraPitch@@YAPAU_object@@PAU1@0@Z	; appGetCameraPitch
PUBLIC	?appGetCamera@@YAPAU_object@@PAU1@0@Z		; appGetCamera
PUBLIC	?appSetCamera@@YAPAU_object@@PAU1@0@Z		; appSetCamera
PUBLIC	?appExit@@YAPAU_object@@PAU1@0@Z		; appExit
PUBLIC	?appAbort@@YAPAU_object@@PAU1@0@Z		; appAbort
PUBLIC	?appProcess@@YAPAU_object@@PAU1@0@Z		; appProcess
PUBLIC	?appGetInfo@@YAPAU_object@@PAU1@0@Z		; appGetInfo
PUBLIC	?appLoop@@YAPAU_object@@PAU1@0@Z		; appLoop
PUBLIC	?appCreate@@YAPAU_object@@PAU1@0@Z		; appCreate
PUBLIC	?appSetMouseHandler@@YAPAU_object@@PAU1@0@Z	; appSetMouseHandler
PUBLIC	?appRenderGame@@YAPAU_object@@PAU1@0@Z		; appRenderGame
PUBLIC	?appUpdateGame@@YAPAU_object@@PAU1@0@Z		; appUpdateGame
PUBLIC	?appGetFileList@@YAPAU_object@@PAU1@0@Z		; appGetFileList
PUBLIC	?appIsExistFile@@YAPAU_object@@PAU1@0@Z		; appIsExistFile
PUBLIC	?appGetImageInfo@@YAPAU_object@@PAU1@0@Z	; appGetImageInfo
PUBLIC	?appGetDefaultCodePage@@YAPAU_object@@PAU1@0@Z	; appGetDefaultCodePage
PUBLIC	?appGetLocalePath@@YAPAU_object@@PAU1@0@Z	; appGetLocalePath
PUBLIC	?appLoadLocaleData@@YAPAU_object@@PAU1@0@Z	; appLoadLocaleData
PUBLIC	?appGetLocaleName@@YAPAU_object@@PAU1@0@Z	; appGetLocaleName
PUBLIC	?appLoadLocaleAddr@@YAPAU_object@@PAU1@0@Z	; appLoadLocaleAddr
PUBLIC	?appSetFrameSkip@@YAPAU_object@@PAU1@0@Z	; appSetFrameSkip
PUBLIC	?appSetMinFog@@YAPAU_object@@PAU1@0@Z		; appSetMinFog
PUBLIC	?appSetSpecularSpeed@@YAPAU_object@@PAU1@0@Z	; appSetSpecularSpeed
PUBLIC	?appSetControlFP@@YAPAU_object@@PAU1@0@Z	; appSetControlFP
PUBLIC	?appSetCameraMaxDistance@@YAPAU_object@@PAU1@0@Z ; appSetCameraMaxDistance
PUBLIC	?appSetRideHorseEnable@@YAPAU_object@@PAU1@0@Z	; appSetRideHorseEnable
PUBLIC	?SetTwoHandedWeaponAttSpeedDecreaseValue@@YAPAU_object@@PAU1@0@Z ; SetTwoHandedWeaponAttSpeedDecreaseValue
PUBLIC	?appSetSkillEffectUpgradeEnable@@YAPAU_object@@PAU1@0@Z ; appSetSkillEffectUpgradeEnable
PUBLIC	?appSetWeaponSpecularEnable@@YAPAU_object@@PAU1@0@Z ; appSetWeaponSpecularEnable
PUBLIC	?appSetArmorSpecularEnable@@YAPAU_object@@PAU1@0@Z ; appSetArmorSpecularEnable
PUBLIC	?appSetHairColorEnable@@YAPAU_object@@PAU1@0@Z	; appSetHairColorEnable
PUBLIC	?appSetTextTailLivingTime@@YAPAU_object@@PAU1@0@Z ; appSetTextTailLivingTime
PUBLIC	?appIsWebPageMode@@YAPAU_object@@PAU1@0@Z	; appIsWebPageMode
PUBLIC	?appHideWebPage@@YAPAU_object@@PAU1@0@Z		; appHideWebPage
PUBLIC	?appMoveWebPage@@YAPAU_object@@PAU1@0@Z		; appMoveWebPage
PUBLIC	?appShowWebPage@@YAPAU_object@@PAU1@0@Z		; appShowWebPage
PUBLIC	?GetFaceCount@CPythonApplication@@QAEKXZ	; CPythonApplication::GetFaceCount
PUBLIC	?GetLoad@CPythonApplication@@QAEKXZ		; CPythonApplication::GetLoad
PUBLIC	?GetRenderFPS@CPythonApplication@@QAEKXZ	; CPythonApplication::GetRenderFPS
PUBLIC	?GetUpdateFPS@CPythonApplication@@QAEKXZ	; CPythonApplication::GetUpdateFPS
PUBLIC	?GetCurUpdateTime@CPythonApplication@@QAEKXZ	; CPythonApplication::GetCurUpdateTime
PUBLIC	?GetCurRenderTime@CPythonApplication@@QAEKXZ	; CPythonApplication::GetCurRenderTime
PUBLIC	?GetAveRenderTime@CPythonApplication@@QAEMXZ	; CPythonApplication::GetAveRenderTime
PUBLIC	?GetFaceSpeed@CPythonApplication@@QAEMXZ	; CPythonApplication::GetFaceSpeed
PUBLIC	?GetCursorNum@CPythonApplication@@QAEHXZ	; CPythonApplication::GetCursorNum
?vecDropSoundFileName@@3V?$array@U?$pair@KV?$basic_string@DU?$char_traits@D@std@@V?$allocator@D@2@@std@@@std@@$04@std@@B DB 08cH DUP (?) ; vecDropSoundFileName
?vecEffectList@@3V?$vector@V?$tuple@IPBDPBD_N@std@@V?$allocator@V?$tuple@IPBDPBD_N@std@@@2@@std@@B DB 0cH DUP (?) ; vecEffectList
?characterNameColors@@3V?$map@EV?$array@E$02@std@@U?$less@E@2@V?$allocator@U?$pair@$$CBEV?$array@E$02@std@@@std@@@2@@std@@B DQ 01H DUP (?) ; characterNameColors
?characterTitleColors@@3V?$map@EV?$array@E$02@std@@U?$less@E@2@V?$allocator@U?$pair@$$CBEV?$array@E$02@std@@@std@@@2@@std@@B DQ 01H DUP (?) ; characterTitleColors
?characterTitleSystemColors@@3V?$map@EV?$array@E$02@std@@U?$less@E@2@V?$allocator@U?$pair@$$CBEV?$array@E$02@std@@@std@@@2@@std@@B DQ 01H DUP (?) ; characterTitleSystemColors
?emotionIcons@@3V?$map@EPBDU?$less@E@std@@V?$allocator@U?$pair@$$CBEPBD@std@@@2@@std@@B DQ 01H DUP (?) ; emotionIcons
?skillIndexes@@3V?$map@EV?$map@EV?$vector@EV?$allocator@E@std@@@std@@U?$less@E@2@V?$allocator@U?$pair@$$CBEV?$vector@EV?$allocator@E@std@@@std@@@std@@@2@@std@@U?$less@E@2@V?$allocator@U?$pair@$$CBEV?$map@EV?$vector@EV?$allocator@E@std@@@std@@U?$less@E@2@V?$allocator@U?$pair@$$CBEV?$vector@EV?$allocator@E@std@@@std@@@std@@@2@@std@@@std@@@2@@std@@B DQ 01H DUP (?) ; skillIndexes
?guildSkills@@3V?$map@V?$basic_string@DU?$char_traits@D@std@@V?$allocator@D@2@@std@@V?$vector@EV?$allocator@E@std@@@2@U?$less@V?$basic_string@DU?$char_traits@D@std@@V?$allocator@D@2@@std@@@2@V?$allocator@U?$pair@$$CBV?$basic_string@DU?$char_traits@D@std@@V?$allocator@D@2@@std@@V?$vector@EV?$allocator@E@std@@@2@@std@@@2@@std@@B DQ 01H DUP (?) ; guildSkills
_BSS	ENDS
;	COMDAT xdata$x
xdata$x	SEGMENT
__ehfuncinfo$??__EvecUseSoundFileName@@YAXXZ DQ 00000000619930522r ; 1.2944e-313
	DD	FLAT:__unwindtable$??__EvecUseSoundFileName@@YAXXZ
	DQ	00000000000000000r		; 0
	DQ	00000000000000000r		; 0
	DQ	00000000100000000r		; 2.122e-314
__unwindtable$??__EvecUseSoundFileName@@YAXXZ DD 0ffffffffH
	DD	FLAT:__unwindfunclet$??__EvecUseSoundFileName@@YAXXZ$0
	DD	00H
	DD	FLAT:__unwindfunclet$??__EvecUseSoundFileName@@YAXXZ$1
	DD	01H
	DD	FLAT:__unwindfunclet$??__EvecUseSoundFileName@@YAXXZ$2
	DD	02H
	DD	FLAT:__unwindfunclet$??__EvecUseSoundFileName@@YAXXZ$3
	DD	03H
	DD	FLAT:__unwindfunclet$??__EvecUseSoundFileName@@YAXXZ$4
	DD	04H
	DD	FLAT:__unwindfunclet$??__EvecUseSoundFileName@@YAXXZ$5
xdata$x	ENDS
;	COMDAT xdata$x
xdata$x	SEGMENT
__ehfuncinfo$??__FvecUseSoundFileName@@YAXXZ DQ 00000000119930522r ; 2.33398e-314
	DD	FLAT:__unwindtable$??__FvecUseSoundFileName@@YAXXZ
	DQ	00000000000000000r		; 0
	DQ	00000000000000000r		; 0
	DQ	00000000100000000r		; 2.122e-314
__unwindtable$??__FvecUseSoundFileName@@YAXXZ DD 0ffffffffH
	DD	FLAT:___std_terminate
xdata$x	ENDS
;	COMDAT xdata$x
xdata$x	SEGMENT
__ehfuncinfo$??__EvecDropSoundFileName@@YAXXZ DQ 00000000419930522r ; 8.69997e-314
	DD	FLAT:__unwindtable$??__EvecDropSoundFileName@@YAXXZ
	DQ	00000000000000000r		; 0
	DQ	00000000000000000r		; 0
	DQ	00000000100000000r		; 2.122e-314
__unwindtable$??__EvecDropSoundFileName@@YAXXZ DD 0ffffffffH
	DD	FLAT:__unwindfunclet$??__EvecDropSoundFileName@@YAXXZ$0
	DD	00H
	DD	FLAT:__unwindfunclet$??__EvecDropSoundFileName@@YAXXZ$1
	DD	01H
	DD	FLAT:__unwindfunclet$??__EvecDropSoundFileName@@YAXXZ$2
	DD	02H
	DD	FLAT:__unwindfunclet$??__EvecDropSoundFileName@@YAXXZ$3
xdata$x	ENDS
;	COMDAT xdata$x
xdata$x	SEGMENT
__ehfuncinfo$??__FvecDropSoundFileName@@YAXXZ DQ 00000000119930522r ; 2.33398e-314
	DD	FLAT:__unwindtable$??__FvecDropSoundFileName@@YAXXZ
	DQ	00000000000000000r		; 0
	DQ	00000000000000000r		; 0
	DQ	00000000100000000r		; 2.122e-314
__unwindtable$??__FvecDropSoundFileName@@YAXXZ DD 0ffffffffH
	DD	FLAT:___std_terminate
xdata$x	ENDS
;	COMDAT xdata$x
xdata$x	SEGMENT
__ehfuncinfo$??__EskillIndexes@@YAXXZ DQ 00000002819930522r ; 8.50918e-313
	DD	FLAT:__unwindtable$??__EskillIndexes@@YAXXZ
	DQ	00000000000000000r		; 0
	DQ	00000000000000000r		; 0
	DQ	00000000100000000r		; 2.122e-314
	ORG $+4
__unwindtable$??__EskillIndexes@@YAXXZ DD 0ffffffffH
	DD	FLAT:__unwindfunclet$??__EskillIndexes@@YAXXZ$0
	DD	00H
	DD	FLAT:__unwindfunclet$??__EskillIndexes@@YAXXZ$1
	DD	01H
	DD	FLAT:__unwindfunclet$??__EskillIndexes@@YAXXZ$2
	DD	00H
	DD	FLAT:__unwindfunclet$??__EskillIndexes@@YAXXZ$2
	DD	03H
	DD	FLAT:__unwindfunclet$??__EskillIndexes@@YAXXZ$4
	DD	04H
	DD	FLAT:__unwindfunclet$??__EskillIndexes@@YAXXZ$5
	DD	05H
	DD	FLAT:__unwindfunclet$??__EskillIndexes@@YAXXZ$6
	DD	06H
	DD	FLAT:__unwindfunclet$??__EskillIndexes@@YAXXZ$7
	DD	07H
	DD	FLAT:__unwindfunclet$??__EskillIndexes@@YAXXZ$8
	DD	08H
	DD	FLAT:__unwindfunclet$??__EskillIndexes@@YAXXZ$9
	DD	07H
	DD	FLAT:__unwindfunclet$??__EskillIndexes@@YAXXZ$9
	DD	0aH
	DD	FLAT:__unwindfunclet$??__EskillIndexes@@YAXXZ$11
	DD	0bH
	DD	FLAT:__unwindfunclet$??__EskillIndexes@@YAXXZ$12
	DD	0cH
	DD	FLAT:__unwindfunclet$??__EskillIndexes@@YAXXZ$13
	DD	0dH
	DD	FLAT:__unwindfunclet$??__EskillIndexes@@YAXXZ$14
	DD	0eH
	DD	FLAT:__unwindfunclet$??__EskillIndexes@@YAXXZ$15
	DD	0fH
	DD	FLAT:__unwindfunclet$??__EskillIndexes@@YAXXZ$16
	DD	0eH
	DD	FLAT:__unwindfunclet$??__EskillIndexes@@YAXXZ$16
	DD	011H
	DD	FLAT:__unwindfunclet$??__EskillIndexes@@YAXXZ$18
	DD	012H
	DD	FLAT:__unwindfunclet$??__EskillIndexes@@YAXXZ$19
	DD	013H
	DD	FLAT:__unwindfunclet$??__EskillIndexes@@YAXXZ$20
	DD	014H
	DD	FLAT:__unwindfunclet$??__EskillIndexes@@YAXXZ$21
	DD	015H
	DD	FLAT:__unwindfunclet$??__EskillIndexes@@YAXXZ$22
	DD	016H
	DD	FLAT:__unwindfunclet$??__EskillIndexes@@YAXXZ$23
	DD	015H
	DD	FLAT:__unwindfunclet$??__EskillIndexes@@YAXXZ$23
	DD	018H
	DD	FLAT:__unwindfunclet$??__EskillIndexes@@YAXXZ$25
	DD	019H
	DD	FLAT:__unwindfunclet$??__EskillIndexes@@YAXXZ$26
	DD	05H
	DD	FLAT:__unwindfunclet$??__EskillIndexes@@YAXXZ$7
	DD	01bH
	DD	FLAT:__unwindfunclet$??__EskillIndexes@@YAXXZ$9
	DD	01cH
	DD	FLAT:__unwindfunclet$??__EskillIndexes@@YAXXZ$11
	DD	01dH
	DD	FLAT:__unwindfunclet$??__EskillIndexes@@YAXXZ$12
	DD	01eH
	DD	FLAT:__unwindfunclet$??__EskillIndexes@@YAXXZ$14
	DD	01fH
	DD	FLAT:__unwindfunclet$??__EskillIndexes@@YAXXZ$16
	DD	020H
	DD	FLAT:__unwindfunclet$??__EskillIndexes@@YAXXZ$18
	DD	021H
	DD	FLAT:__unwindfunclet$??__EskillIndexes@@YAXXZ$19
	DD	022H
	DD	FLAT:__unwindfunclet$??__EskillIndexes@@YAXXZ$21
	DD	023H
	DD	FLAT:__unwindfunclet$??__EskillIndexes@@YAXXZ$23
	DD	024H
	DD	FLAT:__unwindfunclet$??__EskillIndexes@@YAXXZ$25
	DD	025H
	DD	FLAT:__unwindfunclet$??__EskillIndexes@@YAXXZ$26
	DD	026H
	DD	FLAT:__unwindfunclet$??__EskillIndexes@@YAXXZ$28
xdata$x	ENDS
;	COMDAT xdata$x
xdata$x	SEGMENT
__ehfuncinfo$??__EguildSkills@@YAXXZ DQ 00000000a19930522r ; 2.14319e-313
	DD	FLAT:__unwindtable$??__EguildSkills@@YAXXZ
	DQ	00000000000000000r		; 0
	DQ	00000000000000000r		; 0
	DQ	00000000100000000r		; 2.122e-314
	ORG $+4
__unwindtable$??__EguildSkills@@YAXXZ DD 0ffffffffH
	DD	FLAT:__unwindfunclet$??__EguildSkills@@YAXXZ$0
	DD	00H
	DD	FLAT:__unwindfunclet$??__EguildSkills@@YAXXZ$1
	DD	01H
	DD	FLAT:__unwindfunclet$??__EguildSkills@@YAXXZ$10
	DD	01H
	DD	FLAT:__unwindfunclet$??__EguildSkills@@YAXXZ$2
	DD	03H
	DD	FLAT:__unwindfunclet$??__EguildSkills@@YAXXZ$3
	DD	04H
	DD	FLAT:__unwindfunclet$??__EguildSkills@@YAXXZ$4
	DD	05H
	DD	FLAT:__unwindfunclet$??__EguildSkills@@YAXXZ$16
	DD	01H
	DD	FLAT:__unwindfunclet$??__EguildSkills@@YAXXZ$3
	DD	07H
	DD	FLAT:__unwindfunclet$??__EguildSkills@@YAXXZ$4
	DD	08H
	DD	FLAT:__unwindfunclet$??__EguildSkills@@YAXXZ$6
xdata$x	ENDS
;	COMDAT xdata$x
xdata$x	SEGMENT
__ehfuncinfo$?appGetInfo@@YAPAU_object@@PAU1@0@Z DQ 00000000119930522r ; 2.33398e-314
	DD	FLAT:__unwindtable$?appGetInfo@@YAPAU_object@@PAU1@0@Z
	DQ	00000000000000000r		; 0
	DQ	00000000000000000r		; 0
	DQ	00000000100000000r		; 2.122e-314
__unwindtable$?appGetInfo@@YAPAU_object@@PAU1@0@Z DD 0ffffffffH
	DD	FLAT:__unwindfunclet$?appGetInfo@@YAPAU_object@@PAU1@0@Z$0
xdata$x	ENDS
;	COMDAT xdata$x
xdata$x	SEGMENT
__ehfuncinfo$?appGetConnectData@@YAPAU_object@@PAU1@0@Z DQ 00000000119930522r ; 2.33398e-314
	DD	FLAT:__unwindtable$?appGetConnectData@@YAPAU_object@@PAU1@0@Z
	DQ	00000000000000000r		; 0
	DQ	00000000000000000r		; 0
	DQ	00000000100000000r		; 2.122e-314
__unwindtable$?appGetConnectData@@YAPAU_object@@PAU1@0@Z DD 0ffffffffH
	DD	FLAT:__unwindfunclet$?appGetConnectData@@YAPAU_object@@PAU1@0@Z$0
xdata$x	ENDS
;	COMDAT xdata$x
xdata$x	SEGMENT
__ehfuncinfo$??0CTextLineLoader@@QAE@PBD@Z DQ 00000000219930522r ; 4.45598e-314
	DD	FLAT:__unwindtable$??0CTextLineLoader@@QAE@PBD@Z
	DQ	00000000000000000r		; 0
	DQ	00000000000000000r		; 0
	DQ	00000000100000000r		; 2.122e-314
__unwindtable$??0CTextLineLoader@@QAE@PBD@Z DD 0ffffffffH
	DD	FLAT:__unwindfunclet$??0CTextLineLoader@@QAE@PBD@Z$0
	DD	00H
	DD	FLAT:__unwindfunclet$??0CTextLineLoader@@QAE@PBD@Z$1
xdata$x	ENDS
;	COMDAT xdata$x
xdata$x	SEGMENT
__ehfuncinfo$?appOpenTextFile@@YAPAU_object@@PAU1@0@Z DQ 00000000319930522r ; 6.57797e-314
	DD	FLAT:__unwindtable$?appOpenTextFile@@YAPAU_object@@PAU1@0@Z
	DQ	00000000000000000r		; 0
	DQ	00000000000000000r		; 0
	DQ	00000000100000000r		; 2.122e-314
__unwindtable$?appOpenTextFile@@YAPAU_object@@PAU1@0@Z DD 0ffffffffH
	DD	FLAT:__unwindfunclet$?appOpenTextFile@@YAPAU_object@@PAU1@0@Z$0
	DD	00H
	DD	FLAT:__unwindfunclet$?appOpenTextFile@@YAPAU_object@@PAU1@0@Z$1
	DD	01H
	DD	FLAT:__unwindfunclet$?appOpenTextFile@@YAPAU_object@@PAU1@0@Z$2
	ORG $+4
?vecUseSoundFileName@@3V?$array@U?$pair@KV?$basic_string@DU?$char_traits@D@std@@V?$allocator@D@2@@std@@@std@@$06@std@@B DQ 00000000000000001r ; 4.94066e-324 ; vecUseSoundFileName
	DQ	00000000000000000r		; 0
	DQ	00000000000000000r		; 0
	DQ	00000000000000000r		; 0
	DQ	00000000000000000r		; 0
	DQ	00000000000000000r		; 0
	DQ	00000000000000000r		; 0
	DQ	00000000000000000r		; 0
	DQ	00000000000000000r		; 0
	DQ	00000000000000000r		; 0
	DQ	00000000000000000r		; 0
	DQ	00000000000000000r		; 0
	DQ	00000000000000000r		; 0
	DQ	00000000000000000r		; 0
	DQ	00000000000000000r		; 0
	DQ	00000000000000000r		; 0
	DQ	00000000000000000r		; 0
	DQ	00000000000000000r		; 0
	DQ	00000000000000000r		; 0
	DQ	00000000000000000r		; 0
	DQ	00000000000000000r		; 0
	DQ	00000000000000000r		; 0
	DQ	00000000000000000r		; 0
	DQ	00000000000000000r		; 0
	DD	00H
?vecUseSoundFileName$initializer$@@3P6AXXZA DD FLAT:??__EvecUseSoundFileName@@YAXXZ ; vecUseSoundFileName$initializer$
?vecDropSoundFileName$initializer$@@3P6AXXZA DD FLAT:??__EvecDropSoundFileName@@YAXXZ ; vecDropSoundFileName$initializer$
?vecEffectList$initializer$@@3P6AXXZA DD FLAT:??__EvecEffectList@@YAXXZ ; vecEffectList$initializer$
?characterNameColors$initializer$@@3P6AXXZA DD FLAT:??__EcharacterNameColors@@YAXXZ ; characterNameColors$initializer$
?characterTitleColors$initializer$@@3P6AXXZA DD FLAT:??__EcharacterTitleColors@@YAXXZ ; characterTitleColors$initializer$
?characterTitleSystemColors$initializer$@@3P6AXXZA DD FLAT:??__EcharacterTitleSystemColors@@YAXXZ ; characterTitleSystemColors$initializer$
?emotionIcons$initializer$@@3P6AXXZA DD FLAT:??__EemotionIcons@@YAXXZ ; emotionIcons$initializer$
?skillIndexes$initializer$@@3P6AXXZA DD FLAT:??__EskillIndexes@@YAXXZ ; skillIndexes$initializer$
?guildSkills$initializer$@@3P6AXXZA DD FLAT:??__EguildSkills@@YAXXZ ; guildSkills$initializer$
; Function compile flags: /Ogtp
; File C:\Anka2Project\Anka2Project\Source\Binary\source\UserInterface\PythonApplicationModule.cpp
; File C:\Anka2Project\Anka2Project\Source\Binary\source\UserInterface\PythonApplication.h
; File C:\Anka2Project\Anka2Project\Source\Binary\source\UserInterface\PythonApplicationModule.cpp
;	COMDAT ?appAbort@@YAPAU_object@@PAU1@0@Z
_TEXT	SEGMENT
_poSelf$ = 8						; size = 4
_poArgs$ = 12						; size = 4
?appAbort@@YAPAU_object@@PAU1@0@Z PROC			; appAbort, COMDAT
; File C:\Anka2Project\Anka2Project\Source\Binary\source\UserInterface\PythonApplication.h

; 213  : 			assert(ms_pInstance != nullptr);

  00000	83 3d 00 00 00
	00 00		 cmp	 DWORD PTR ?ms_pInstance@CPythonApplication@@1PAV1@A, 0 ; CPythonApplication::ms_pInstance
  00007	75 17		 jne	 SHORT $LN5@appAbort
  00009	68 d5 00 00 00	 push	 213			; 000000d5H
  0000e	68 00 00 00 00	 push	 OFFSET ??_C@_1KI@NDOHEKDB@?$AAC?$AA?3?$AA?2?$AAA?$AAn?$AAk?$AAa?$AA2?$AAP?$AAr?$AAo?$AAj?$AAe?$AAc?$AAt@
  00013	68 00 00 00 00	 push	 OFFSET ??_C@_1DA@IANAENLC@?$AAm?$AAs?$AA_?$AAp?$AAI?$AAn?$AAs?$AAt?$AAa?$AAn?$AAc?$AAe?$AA?5?$AA?$CB?$AA?$DN@
  00018	e8 00 00 00 00	 call	 __wassert
  0001d	83 c4 0c	 add	 esp, 12			; 0000000cH
$LN5@appAbort:
; File C:\Anka2Project\Anka2Project\Source\Binary\source\UserInterface\PythonApplicationModule.cpp

; 403  : 	CPythonApplication::Instance().Abort();

  00020	e8 00 00 00 00	 call	 ?Abort@CPythonApplication@@QAEXXZ ; CPythonApplication::Abort

; 404  : 	return Py_BuildNone();

  00025	e9 00 00 00 00	 jmp	 ?Py_BuildNone@@YAPAU_object@@XZ ; Py_BuildNone
?appAbort@@YAPAU_object@@PAU1@0@Z ENDP			; appAbort
_TEXT	ENDS
END
