; Listing generated by Microsoft (R) Optimizing Compiler Version 19.44.35219.0 

	TITLE	c:\anka2project\anka2project\source\binary\vs_files\userinterface\release\pythontexttailmodule.obj
	.686P
	.XMM
	include listing.inc
	.model	flat

INCLUDELIB OLDNAMES

PUBLIC	??_C@_0BC@HIDLOAIP@UpdateAllTextTail@		; `string'
PUBLIC	??_C@_0BG@LIPEMMLC@ShowCharacterTextTail@	; `string'
PUBLIC	??_C@_0BG@CGLFBHI@UpdateShowingTextTail@	; `string'
PUBLIC	??_C@_0M@GFJLCLIA@GetPosition@			; `string'
PUBLIC	??_C@_0BB@NMNDPCFJ@ShowItemTextTail@		; `string'
PUBLIC	??_C@_0BA@FCGIHNAB@ArrangeTextTail@		; `string'
PUBLIC	??_C@_06NNDBIPNE@IsChat@			; `string'
PUBLIC	??_C@_0BA@GALJFJJC@ShowAllTextTail@		; `string'
PUBLIC	??_C@_0BA@PONNLPCF@HideAllTextTail@		; `string'
PUBLIC	??_C@_0O@NECGPBDE@EnablePKTitle@		; `string'
PUBLIC	??_C@_0P@KGIJNKFO@SelectItemName@		; `string'
PUBLIC	??_C@_0BB@HKPOGMDA@RegisterChatTail@		; `string'
PUBLIC	??_C@_0BK@HJNOJEAA@RegisterCharacterTextTail@	; `string'
PUBLIC	??_C@_0M@INLHDDBB@AttachTitle@			; `string'
PUBLIC	??_C@_0BB@IFAJCDPP@RegisterInfoTail@		; `string'
PUBLIC	??_C@_08KDMBCLKF@textTail@			; `string'
;	COMDAT ?s_methods@?1??initTextTail@@YAXXZ@4PAUPyMethodDef@@A
_DATA	SEGMENT
?s_methods@?1??initTextTail@@YAXXZ@4PAUPyMethodDef@@A DD FLAT:??_C@_05MDNHABIA@Clear@ ; `initTextTail'::`2'::s_methods
	DD	FLAT:?textTailClear@@YAPAU_object@@PAU1@0@Z
	DD	01H
	ORG $+4
	DD	FLAT:??_C@_0BC@HIDLOAIP@UpdateAllTextTail@
	DD	FLAT:?textTailUpdateAllTextTail@@YAPAU_object@@PAU1@0@Z
	DD	01H
	ORG $+4
	DD	FLAT:??_C@_0BG@CGLFBHI@UpdateShowingTextTail@
	DD	FLAT:?textTailUpdateShowingTextTail@@YAPAU_object@@PAU1@0@Z
	DD	01H
	ORG $+4
	DD	FLAT:??_C@_06EPLDPNDB@Render@
	DD	FLAT:?textTailRender@@YAPAU_object@@PAU1@0@Z
	DD	01H
	ORG $+4
	DD	FLAT:??_C@_0BG@LIPEMMLC@ShowCharacterTextTail@
	DD	FLAT:?textTailShowCharacterTextTail@@YAPAU_object@@PAU1@0@Z
	DD	01H
	ORG $+4
	DD	FLAT:??_C@_0BB@NMNDPCFJ@ShowItemTextTail@
	DD	FLAT:?textTailShowItemTextTail@@YAPAU_object@@PAU1@0@Z
	DD	01H
	ORG $+4
	DD	FLAT:??_C@_0M@GFJLCLIA@GetPosition@
	DD	FLAT:?textTailGetPosition@@YAPAU_object@@PAU1@0@Z
	DD	01H
	ORG $+4
	DD	FLAT:??_C@_06NNDBIPNE@IsChat@
	DD	FLAT:?textTailIsChat@@YAPAU_object@@PAU1@0@Z
	DD	01H
	ORG $+4
	DD	FLAT:??_C@_0BA@FCGIHNAB@ArrangeTextTail@
	DD	FLAT:?textTailArrangeTextTail@@YAPAU_object@@PAU1@0@Z
	DD	01H
	ORG $+4
	DD	FLAT:??_C@_0BA@PONNLPCF@HideAllTextTail@
	DD	FLAT:?textTailHideAllTextTail@@YAPAU_object@@PAU1@0@Z
	DD	01H
	ORG $+4
	DD	FLAT:??_C@_0BA@GALJFJJC@ShowAllTextTail@
	DD	FLAT:?textTailShowAllTextTail@@YAPAU_object@@PAU1@0@Z
	DD	01H
	ORG $+4
	DD	FLAT:??_C@_04ILHILILF@Pick@
	DD	FLAT:?textTailPick@@YAPAU_object@@PAU1@0@Z
	DD	01H
	ORG $+4
	DD	FLAT:??_C@_0P@KGIJNKFO@SelectItemName@
	DD	FLAT:?textTailSelectItemName@@YAPAU_object@@PAU1@0@Z
	DD	01H
	ORG $+4
	DD	FLAT:??_C@_0O@NECGPBDE@EnablePKTitle@
	DD	FLAT:?textTailEnablePKTitle@@YAPAU_object@@PAU1@0@Z
	DD	01H
	ORG $+4
	DD	FLAT:??_C@_0BK@HJNOJEAA@RegisterCharacterTextTail@
	DD	FLAT:?textTailRegisterCharacterTextTail@@YAPAU_object@@PAU1@0@Z
	DD	01H
	ORG $+4
	DD	FLAT:??_C@_0BB@HKPOGMDA@RegisterChatTail@
	DD	FLAT:?textTailRegisterChatTail@@YAPAU_object@@PAU1@0@Z
	DD	01H
	ORG $+4
	DD	FLAT:??_C@_0BB@IFAJCDPP@RegisterInfoTail@
	DD	FLAT:?textTailRegisterInfoTail@@YAPAU_object@@PAU1@0@Z
	DD	01H
	ORG $+4
	DD	FLAT:??_C@_0M@INLHDDBB@AttachTitle@
	DD	FLAT:?textTailAttachTitle@@YAPAU_object@@PAU1@0@Z
	DD	01H
	ORG $+4
	DD	00H
	DD	00H
	ORG $+8
_DATA	ENDS
;	COMDAT ??_C@_08KDMBCLKF@textTail@
CONST	SEGMENT
??_C@_08KDMBCLKF@textTail@ DB 'textTail', 00H		; `string'
CONST	ENDS
;	COMDAT ??_C@_0BB@IFAJCDPP@RegisterInfoTail@
CONST	SEGMENT
??_C@_0BB@IFAJCDPP@RegisterInfoTail@ DB 'RegisterInfoTail', 00H ; `string'
CONST	ENDS
;	COMDAT ??_C@_0M@INLHDDBB@AttachTitle@
CONST	SEGMENT
??_C@_0M@INLHDDBB@AttachTitle@ DB 'AttachTitle', 00H	; `string'
CONST	ENDS
;	COMDAT ??_C@_0BK@HJNOJEAA@RegisterCharacterTextTail@
CONST	SEGMENT
??_C@_0BK@HJNOJEAA@RegisterCharacterTextTail@ DB 'RegisterCharacterTextTa'
	DB	'il', 00H					; `string'
CONST	ENDS
;	COMDAT ??_C@_0BB@HKPOGMDA@RegisterChatTail@
CONST	SEGMENT
??_C@_0BB@HKPOGMDA@RegisterChatTail@ DB 'RegisterChatTail', 00H ; `string'
CONST	ENDS
;	COMDAT ??_C@_0P@KGIJNKFO@SelectItemName@
CONST	SEGMENT
??_C@_0P@KGIJNKFO@SelectItemName@ DB 'SelectItemName', 00H ; `string'
CONST	ENDS
;	COMDAT ??_C@_0O@NECGPBDE@EnablePKTitle@
CONST	SEGMENT
??_C@_0O@NECGPBDE@EnablePKTitle@ DB 'EnablePKTitle', 00H ; `string'
CONST	ENDS
;	COMDAT ??_C@_0BA@PONNLPCF@HideAllTextTail@
CONST	SEGMENT
??_C@_0BA@PONNLPCF@HideAllTextTail@ DB 'HideAllTextTail', 00H ; `string'
CONST	ENDS
;	COMDAT ??_C@_0BA@GALJFJJC@ShowAllTextTail@
CONST	SEGMENT
??_C@_0BA@GALJFJJC@ShowAllTextTail@ DB 'ShowAllTextTail', 00H ; `string'
CONST	ENDS
;	COMDAT ??_C@_06NNDBIPNE@IsChat@
CONST	SEGMENT
??_C@_06NNDBIPNE@IsChat@ DB 'IsChat', 00H		; `string'
CONST	ENDS
;	COMDAT ??_C@_0BA@FCGIHNAB@ArrangeTextTail@
CONST	SEGMENT
??_C@_0BA@FCGIHNAB@ArrangeTextTail@ DB 'ArrangeTextTail', 00H ; `string'
CONST	ENDS
;	COMDAT ??_C@_0BB@NMNDPCFJ@ShowItemTextTail@
CONST	SEGMENT
??_C@_0BB@NMNDPCFJ@ShowItemTextTail@ DB 'ShowItemTextTail', 00H ; `string'
CONST	ENDS
;	COMDAT ??_C@_0M@GFJLCLIA@GetPosition@
CONST	SEGMENT
??_C@_0M@GFJLCLIA@GetPosition@ DB 'GetPosition', 00H	; `string'
CONST	ENDS
;	COMDAT ??_C@_0BG@CGLFBHI@UpdateShowingTextTail@
CONST	SEGMENT
??_C@_0BG@CGLFBHI@UpdateShowingTextTail@ DB 'UpdateShowingTextTail', 00H ; `string'
CONST	ENDS
;	COMDAT ??_C@_0BG@LIPEMMLC@ShowCharacterTextTail@
CONST	SEGMENT
??_C@_0BG@LIPEMMLC@ShowCharacterTextTail@ DB 'ShowCharacterTextTail', 00H ; `string'
CONST	ENDS
;	COMDAT ??_C@_0BC@HIDLOAIP@UpdateAllTextTail@
CONST	SEGMENT
??_C@_0BC@HIDLOAIP@UpdateAllTextTail@ DB 'UpdateAllTextTail', 00H ; `string'
PUBLIC	?initTextTail@@YAXXZ				; initTextTail
PUBLIC	?textTailEnablePKTitle@@YAPAU_object@@PAU1@0@Z	; textTailEnablePKTitle
PUBLIC	?textTailSelectItemName@@YAPAU_object@@PAU1@0@Z	; textTailSelectItemName
PUBLIC	?textTailPick@@YAPAU_object@@PAU1@0@Z		; textTailPick
PUBLIC	?textTailShowAllTextTail@@YAPAU_object@@PAU1@0@Z ; textTailShowAllTextTail
PUBLIC	?textTailHideAllTextTail@@YAPAU_object@@PAU1@0@Z ; textTailHideAllTextTail
PUBLIC	?textTailArrangeTextTail@@YAPAU_object@@PAU1@0@Z ; textTailArrangeTextTail
PUBLIC	?textTailShowItemTextTail@@YAPAU_object@@PAU1@0@Z ; textTailShowItemTextTail
PUBLIC	?textTailShowCharacterTextTail@@YAPAU_object@@PAU1@0@Z ; textTailShowCharacterTextTail
PUBLIC	?textTailAttachTitle@@YAPAU_object@@PAU1@0@Z	; textTailAttachTitle
PUBLIC	?textTailRegisterInfoTail@@YAPAU_object@@PAU1@0@Z ; textTailRegisterInfoTail
PUBLIC	?textTailRegisterChatTail@@YAPAU_object@@PAU1@0@Z ; textTailRegisterChatTail
PUBLIC	?textTailIsChat@@YAPAU_object@@PAU1@0@Z		; textTailIsChat
PUBLIC	?textTailGetPosition@@YAPAU_object@@PAU1@0@Z	; textTailGetPosition
PUBLIC	?textTailRegisterCharacterTextTail@@YAPAU_object@@PAU1@0@Z ; textTailRegisterCharacterTextTail
PUBLIC	?textTailRender@@YAPAU_object@@PAU1@0@Z		; textTailRender
PUBLIC	?textTailUpdateShowingTextTail@@YAPAU_object@@PAU1@0@Z ; textTailUpdateShowingTextTail
PUBLIC	?textTailUpdateAllTextTail@@YAPAU_object@@PAU1@0@Z ; textTailUpdateAllTextTail
PUBLIC	?textTailClear@@YAPAU_object@@PAU1@0@Z		; textTailClear
; Function compile flags: /Ogtp
; File C:\Anka2Project\Anka2Project\Source\Binary\source\UserInterface\PythonTextTailModule.cpp
; File C:\Anka2Project\Anka2Project\Source\Binary\source\eterBase\Singleton.h
; File C:\Anka2Project\Anka2Project\Source\Binary\source\UserInterface\PythonTextTailModule.cpp
; File C:\Anka2Project\Anka2Project\Source\Binary\source\eterBase\Singleton.h
; File C:\Anka2Project\Anka2Project\Source\Binary\source\UserInterface\PythonTextTailModule.cpp
; File C:\Anka2Project\Anka2Project\Source\Binary\source\eterBase\Singleton.h
; File C:\Anka2Project\Anka2Project\Source\Binary\source\UserInterface\PythonTextTailModule.cpp
; File C:\Anka2Project\Anka2Project\Source\Binary\source\eterBase\Singleton.h
; File C:\Anka2Project\Anka2Project\Source\Binary\source\UserInterface\PythonTextTailModule.cpp
; File C:\Anka2Project\Anka2Project\Source\Binary\source\eterBase\Singleton.h
; File C:\Anka2Project\Anka2Project\Source\Binary\source\UserInterface\PythonTextTailModule.cpp
;	COMDAT ?textTailGetPosition@@YAPAU_object@@PAU1@0@Z
_TEXT	SEGMENT
_y$ = -16						; size = 4
_x$ = -12						; size = 4
_z$ = -8						; size = 4
_VirtualID$ = -4					; size = 4
_poSelf$ = 8						; size = 4
_poArgs$ = 12						; size = 4
?textTailGetPosition@@YAPAU_object@@PAU1@0@Z PROC	; textTailGetPosition, COMDAT

; 53   : {

  00000	55		 push	 ebp
  00001	8b ec		 mov	 ebp, esp
  00003	83 e4 c0	 and	 esp, -64		; ffffffc0H
  00006	83 ec 3c	 sub	 esp, 60			; 0000003cH

; 54   : 	int VirtualID;
; 55   : 	if (!PyTuple_GetInteger(poArgs, 0, &VirtualID))

  00009	8d 44 24 38	 lea	 eax, DWORD PTR _VirtualID$[esp+60]
  0000d	56		 push	 esi
  0000e	50		 push	 eax
  0000f	6a 00		 push	 0
  00011	ff 75 0c	 push	 DWORD PTR _poArgs$[ebp]
  00014	e8 00 00 00 00	 call	 ?PyTuple_GetInteger@@YA_NPAU_object@@HPAH@Z ; PyTuple_GetInteger
  00019	83 c4 0c	 add	 esp, 12			; 0000000cH
  0001c	84 c0		 test	 al, al
  0001e	75 0f		 jne	 SHORT $LN2@textTailGe

; 56   : 		return Py_BuildException();

  00020	6a 00		 push	 0
  00022	e8 00 00 00 00	 call	 ?Py_BuildException@@YAPAU_object@@PBDZZ ; Py_BuildException
  00027	83 c4 04	 add	 esp, 4

; 74   : }

  0002a	5e		 pop	 esi
  0002b	8b e5		 mov	 esp, ebp
  0002d	5d		 pop	 ebp
  0002e	c3		 ret	 0
$LN2@textTailGe:
; File C:\Anka2Project\Anka2Project\Source\Binary\source\eterBase\Singleton.h

; 26   : 		assert(ms_singleton);

  0002f	8b 0d 00 00 00
	00		 mov	 ecx, DWORD PTR ?ms_singleton@?$CSingleton@VCPythonTextTail@@@@0PAVCPythonTextTail@@A ; CSingleton<CPythonTextTail>::ms_singleton
; File C:\Anka2Project\Anka2Project\Source\Binary\source\UserInterface\PythonTextTailModule.cpp

; 58   : 	float x=0.0f;

  00035	c7 44 24 34 00
	00 00 00	 mov	 DWORD PTR _x$[esp+64], 0

; 59   : 	float y=0.0f;

  0003d	c7 44 24 30 00
	00 00 00	 mov	 DWORD PTR _y$[esp+64], 0

; 60   : 	float z=0.0f;

  00045	c7 44 24 38 00
	00 00 00	 mov	 DWORD PTR _z$[esp+64], 0
; File C:\Anka2Project\Anka2Project\Source\Binary\source\eterBase\Singleton.h

; 26   : 		assert(ms_singleton);

  0004d	85 c9		 test	 ecx, ecx
  0004f	75 1a		 jne	 SHORT $LN8@textTailGe
  00051	6a 1a		 push	 26			; 0000001aH
  00053	68 00 00 00 00	 push	 OFFSET ??_C@_1IO@CAJLEEOI@?$AAC?$AA?3?$AA?2?$AAA?$AAn?$AAk?$AAa?$AA2?$AAP?$AAr?$AAo?$AAj?$AAe?$AAc?$AAt@
  00058	68 00 00 00 00	 push	 OFFSET ??_C@_1BK@FMEHPMFE@?$AAm?$AAs?$AA_?$AAs?$AAi?$AAn?$AAg?$AAl?$AAe?$AAt?$AAo?$AAn@
  0005d	e8 00 00 00 00	 call	 __wassert
  00062	8b 0d 00 00 00
	00		 mov	 ecx, DWORD PTR ?ms_singleton@?$CSingleton@VCPythonTextTail@@@@0PAVCPythonTextTail@@A ; CSingleton<CPythonTextTail>::ms_singleton
  00068	83 c4 0c	 add	 esp, 12			; 0000000cH
$LN8@textTailGe:
; File C:\Anka2Project\Anka2Project\Source\Binary\source\UserInterface\PythonTextTailModule.cpp

; 61   : 	bool isData=CPythonTextTail::Instance().GetTextTailPosition(VirtualID, &x, &y, &z);

  0006b	8d 44 24 38	 lea	 eax, DWORD PTR _z$[esp+64]
  0006f	50		 push	 eax
  00070	8d 44 24 34	 lea	 eax, DWORD PTR _y$[esp+68]
  00074	50		 push	 eax
  00075	8d 44 24 3c	 lea	 eax, DWORD PTR _x$[esp+72]
  00079	50		 push	 eax
  0007a	ff 74 24 48	 push	 DWORD PTR _VirtualID$[esp+76]
  0007e	e8 00 00 00 00	 call	 ?GetTextTailPosition@CPythonTextTail@@QAE_NKPAM00@Z ; CPythonTextTail::GetTextTailPosition

; 62   : 	if (!isData)

  00083	84 c0		 test	 al, al
  00085	0f 85 92 00 00
	00		 jne	 $LN4@textTailGe
; File C:\Anka2Project\Anka2Project\Source\Binary\source\eterBase\Singleton.h

; 26   : 		assert(ms_singleton);

  0008b	8b 0d 00 00 00
	00		 mov	 ecx, DWORD PTR ?ms_singleton@?$CSingleton@VCPythonCharacterManager@@@@0PAVCPythonCharacterManager@@A ; CSingleton<CPythonCharacterManager>::ms_singleton
  00091	85 c9		 test	 ecx, ecx
  00093	75 1a		 jne	 SHORT $LN11@textTailGe
  00095	6a 1a		 push	 26			; 0000001aH
  00097	68 00 00 00 00	 push	 OFFSET ??_C@_1IO@CAJLEEOI@?$AAC?$AA?3?$AA?2?$AAA?$AAn?$AAk?$AAa?$AA2?$AAP?$AAr?$AAo?$AAj?$AAe?$AAc?$AAt@
  0009c	68 00 00 00 00	 push	 OFFSET ??_C@_1BK@FMEHPMFE@?$AAm?$AAs?$AA_?$AAs?$AAi?$AAn?$AAg?$AAl?$AAe?$AAt?$AAo?$AAn@
  000a1	e8 00 00 00 00	 call	 __wassert
  000a6	8b 0d 00 00 00
	00		 mov	 ecx, DWORD PTR ?ms_singleton@?$CSingleton@VCPythonCharacterManager@@@@0PAVCPythonCharacterManager@@A ; CSingleton<CPythonCharacterManager>::ms_singleton
  000ac	83 c4 0c	 add	 esp, 12			; 0000000cH
$LN11@textTailGe:
; File C:\Anka2Project\Anka2Project\Source\Binary\source\UserInterface\PythonTextTailModule.cpp

; 65   : 		CInstanceBase* pkInstMain=rkChrMgr.GetMainInstancePtr();

  000af	e8 00 00 00 00	 call	 ?GetMainInstancePtr@CPythonCharacterManager@@QAEPAVCInstanceBase@@XZ ; CPythonCharacterManager::GetMainInstancePtr

; 66   : 		if (pkInstMain)

  000b4	85 c0		 test	 eax, eax
  000b6	74 65		 je	 SHORT $LN4@textTailGe

; 68   : 			const D3DXVECTOR3 & c_rv3Position = pkInstMain->GetGraphicThingInstanceRef().GetPosition();

  000b8	8b c8		 mov	 ecx, eax
  000ba	e8 00 00 00 00	 call	 ?GetGraphicThingInstanceRef@CInstanceBase@@QAEAAVCActorInstance@@XZ ; CInstanceBase::GetGraphicThingInstanceRef
  000bf	8b c8		 mov	 ecx, eax
  000c1	e8 00 00 00 00	 call	 ?GetPosition@CGraphicObjectInstance@@QBEABUD3DXVECTOR3@@XZ ; CGraphicObjectInstance::GetPosition
; File C:\Anka2Project\Anka2Project\Source\Binary\source\eterBase\Singleton.h

; 26   : 		assert(ms_singleton);

  000c6	8b 0d 00 00 00
	00		 mov	 ecx, DWORD PTR ?ms_singleton@?$CSingleton@VCPythonGraphic@@@@0PAVCPythonGraphic@@A ; CSingleton<CPythonGraphic>::ms_singleton
; File C:\Anka2Project\Anka2Project\Source\Binary\source\UserInterface\PythonTextTailModule.cpp

; 68   : 			const D3DXVECTOR3 & c_rv3Position = pkInstMain->GetGraphicThingInstanceRef().GetPosition();

  000cc	8b f0		 mov	 esi, eax
; File C:\Anka2Project\Anka2Project\Source\Binary\source\eterBase\Singleton.h

; 26   : 		assert(ms_singleton);

  000ce	85 c9		 test	 ecx, ecx
  000d0	75 1a		 jne	 SHORT $LN14@textTailGe
  000d2	6a 1a		 push	 26			; 0000001aH
  000d4	68 00 00 00 00	 push	 OFFSET ??_C@_1IO@CAJLEEOI@?$AAC?$AA?3?$AA?2?$AAA?$AAn?$AAk?$AAa?$AA2?$AAP?$AAr?$AAo?$AAj?$AAe?$AAc?$AAt@
  000d9	68 00 00 00 00	 push	 OFFSET ??_C@_1BK@FMEHPMFE@?$AAm?$AAs?$AA_?$AAs?$AAi?$AAn?$AAg?$AAl?$AAe?$AAt?$AAo?$AAn@
  000de	e8 00 00 00 00	 call	 __wassert
  000e3	8b 0d 00 00 00
	00		 mov	 ecx, DWORD PTR ?ms_singleton@?$CSingleton@VCPythonGraphic@@@@0PAVCPythonGraphic@@A ; CSingleton<CPythonGraphic>::ms_singleton
  000e9	83 c4 0c	 add	 esp, 12			; 0000000cH
$LN14@textTailGe:
; File C:\Anka2Project\Anka2Project\Source\Binary\source\UserInterface\PythonTextTailModule.cpp

; 69   : 			CPythonGraphic::Instance().ProjectPosition(c_rv3Position.x, c_rv3Position.y, c_rv3Position.z, &x, &y);	

  000ec	f3 0f 10 46 08	 movss	 xmm0, DWORD PTR [esi+8]
  000f1	8d 44 24 30	 lea	 eax, DWORD PTR _y$[esp+64]
  000f5	50		 push	 eax
  000f6	8d 44 24 38	 lea	 eax, DWORD PTR _x$[esp+68]
  000fa	50		 push	 eax
  000fb	83 ec 0c	 sub	 esp, 12			; 0000000cH
  000fe	f3 0f 11 44 24
	08		 movss	 DWORD PTR [esp+8], xmm0
  00104	f3 0f 10 46 04	 movss	 xmm0, DWORD PTR [esi+4]
  00109	f3 0f 11 44 24
	04		 movss	 DWORD PTR [esp+4], xmm0
  0010f	f3 0f 10 06	 movss	 xmm0, DWORD PTR [esi]
  00113	f3 0f 11 04 24	 movss	 DWORD PTR [esp], xmm0
  00118	e8 00 00 00 00	 call	 ?ProjectPosition@CScreen@@QAEXMMMPAM0@Z ; CScreen::ProjectPosition
$LN4@textTailGe:

; 70   : 		}
; 71   : 	}	
; 72   : 
; 73   : 	return Py_BuildValue("fff", x, y, z);

  0011d	f3 0f 10 44 24
	38		 movss	 xmm0, DWORD PTR _z$[esp+64]
  00123	83 ec 18	 sub	 esp, 24			; 00000018H
  00126	0f 5a c0	 cvtps2pd xmm0, xmm0
  00129	f2 0f 11 44 24
	10		 movsd	 QWORD PTR [esp+16], xmm0
  0012f	f3 0f 10 44 24
	48		 movss	 xmm0, DWORD PTR _y$[esp+88]
  00135	0f 5a c0	 cvtps2pd xmm0, xmm0
  00138	f2 0f 11 44 24
	08		 movsd	 QWORD PTR [esp+8], xmm0
  0013e	f3 0f 10 44 24
	4c		 movss	 xmm0, DWORD PTR _x$[esp+88]
  00144	0f 5a c0	 cvtps2pd xmm0, xmm0
  00147	f2 0f 11 04 24	 movsd	 QWORD PTR [esp], xmm0
  0014c	68 00 00 00 00	 push	 OFFSET ??_C@_03LPALPDIP@fff@
  00151	ff 15 00 00 00
	00		 call	 DWORD PTR __imp__Py_BuildValue
  00157	83 c4 1c	 add	 esp, 28			; 0000001cH

; 74   : }

  0015a	5e		 pop	 esi
  0015b	8b e5		 mov	 esp, ebp
  0015d	5d		 pop	 ebp
  0015e	c3		 ret	 0
?textTailGetPosition@@YAPAU_object@@PAU1@0@Z ENDP	; textTailGetPosition
_TEXT	ENDS
; Function compile flags: /Ogtp
; File C:\Anka2Project\Anka2Project\Source\Binary\source\UserInterface\PythonTextTailModule.cpp
; File C:\Anka2Project\Anka2Project\Source\Binary\source\eterBase\Singleton.h
; File C:\Anka2Project\Anka2Project\Source\Binary\source\UserInterface\PythonTextTailModule.cpp
;	COMDAT ?textTailIsChat@@YAPAU_object@@PAU1@0@Z
_TEXT	SEGMENT
_VirtualID$ = -4					; size = 4
_poSelf$ = 8						; size = 4
_poArgs$ = 12						; size = 4
?textTailIsChat@@YAPAU_object@@PAU1@0@Z PROC		; textTailIsChat, COMDAT

; 77   : {

  00000	55		 push	 ebp
  00001	8b ec		 mov	 ebp, esp
  00003	51		 push	 ecx

; 78   : 	int VirtualID;
; 79   : 	if (!PyTuple_GetInteger(poArgs, 0, &VirtualID))

  00004	8d 45 fc	 lea	 eax, DWORD PTR _VirtualID$[ebp]
  00007	50		 push	 eax
  00008	6a 00		 push	 0
  0000a	ff 75 0c	 push	 DWORD PTR _poArgs$[ebp]
  0000d	e8 00 00 00 00	 call	 ?PyTuple_GetInteger@@YA_NPAU_object@@HPAH@Z ; PyTuple_GetInteger
  00012	83 c4 0c	 add	 esp, 12			; 0000000cH
  00015	84 c0		 test	 al, al
  00017	75 0e		 jne	 SHORT $LN2@textTailIs

; 80   : 		return Py_BuildException();

  00019	6a 00		 push	 0
  0001b	e8 00 00 00 00	 call	 ?Py_BuildException@@YAPAU_object@@PBDZZ ; Py_BuildException
  00020	83 c4 04	 add	 esp, 4

; 83   : }

  00023	8b e5		 mov	 esp, ebp
  00025	5d		 pop	 ebp
  00026	c3		 ret	 0
$LN2@textTailIs:
; File C:\Anka2Project\Anka2Project\Source\Binary\source\eterBase\Singleton.h

; 26   : 		assert(ms_singleton);

  00027	8b 0d 00 00 00
	00		 mov	 ecx, DWORD PTR ?ms_singleton@?$CSingleton@VCPythonTextTail@@@@0PAVCPythonTextTail@@A ; CSingleton<CPythonTextTail>::ms_singleton
  0002d	85 c9		 test	 ecx, ecx
  0002f	75 1a		 jne	 SHORT $LN6@textTailIs
  00031	6a 1a		 push	 26			; 0000001aH
  00033	68 00 00 00 00	 push	 OFFSET ??_C@_1IO@CAJLEEOI@?$AAC?$AA?3?$AA?2?$AAA?$AAn?$AAk?$AAa?$AA2?$AAP?$AAr?$AAo?$AAj?$AAe?$AAc?$AAt@
  00038	68 00 00 00 00	 push	 OFFSET ??_C@_1BK@FMEHPMFE@?$AAm?$AAs?$AA_?$AAs?$AAi?$AAn?$AAg?$AAl?$AAe?$AAt?$AAo?$AAn@
  0003d	e8 00 00 00 00	 call	 __wassert
  00042	8b 0d 00 00 00
	00		 mov	 ecx, DWORD PTR ?ms_singleton@?$CSingleton@VCPythonTextTail@@@@0PAVCPythonTextTail@@A ; CSingleton<CPythonTextTail>::ms_singleton
  00048	83 c4 0c	 add	 esp, 12			; 0000000cH
$LN6@textTailIs:
; File C:\Anka2Project\Anka2Project\Source\Binary\source\UserInterface\PythonTextTailModule.cpp

; 82   : 	return Py_BuildValue("i", CPythonTextTail::Instance().IsChatTextTail(VirtualID));

  0004b	ff 75 fc	 push	 DWORD PTR _VirtualID$[ebp]
  0004e	e8 00 00 00 00	 call	 ?IsChatTextTail@CPythonTextTail@@QAE_NK@Z ; CPythonTextTail::IsChatTextTail
  00053	0f b6 c0	 movzx	 eax, al
  00056	50		 push	 eax
  00057	68 00 00 00 00	 push	 OFFSET ??_C@_01KBJDNOO@i@
  0005c	ff 15 00 00 00
	00		 call	 DWORD PTR __imp__Py_BuildValue
  00062	83 c4 08	 add	 esp, 8

; 83   : }

  00065	8b e5		 mov	 esp, ebp
  00067	5d		 pop	 ebp
  00068	c3		 ret	 0
?textTailIsChat@@YAPAU_object@@PAU1@0@Z ENDP		; textTailIsChat
_TEXT	ENDS
; Function compile flags: /Ogtp
; File C:\Anka2Project\Anka2Project\Source\Binary\source\UserInterface\PythonTextTailModule.cpp
; File C:\Anka2Project\Anka2Project\Source\Binary\source\eterBase\Singleton.h
; File C:\Anka2Project\Anka2Project\Source\Binary\source\UserInterface\PythonTextTailModule.cpp
;	COMDAT ?textTailPick@@YAPAU_object@@PAU1@0@Z
_TEXT	SEGMENT
_ix$ = -8						; size = 4
_iy$ = -4						; size = 4
_poSelf$ = 8						; size = 4
_poArgs$ = 12						; size = 4
?textTailPick@@YAPAU_object@@PAU1@0@Z PROC		; textTailPick, COMDAT

; 177  : {

  00000	55		 push	 ebp
  00001	8b ec		 mov	 ebp, esp
  00003	83 ec 08	 sub	 esp, 8

; 178  : 	int ix;
; 179  : 	if (!PyTuple_GetInteger(poArgs, 0, &ix))

  00006	8d 45 f8	 lea	 eax, DWORD PTR _ix$[ebp]
  00009	50		 push	 eax
  0000a	6a 00		 push	 0
  0000c	ff 75 0c	 push	 DWORD PTR _poArgs$[ebp]
  0000f	e8 00 00 00 00	 call	 ?PyTuple_GetInteger@@YA_NPAU_object@@HPAH@Z ; PyTuple_GetInteger
  00014	83 c4 0c	 add	 esp, 12			; 0000000cH
  00017	84 c0		 test	 al, al
  00019	75 0e		 jne	 SHORT $LN2@textTailPi
$LN8@textTailPi:

; 187  : }

  0001b	6a 00		 push	 0
  0001d	e8 00 00 00 00	 call	 ?Py_BuildException@@YAPAU_object@@PBDZZ ; Py_BuildException
  00022	83 c4 04	 add	 esp, 4
  00025	8b e5		 mov	 esp, ebp
  00027	5d		 pop	 ebp
  00028	c3		 ret	 0
$LN2@textTailPi:

; 180  : 		return Py_BuildException();
; 181  : 	int iy;
; 182  : 	if (!PyTuple_GetInteger(poArgs, 1, &iy))

  00029	8d 45 fc	 lea	 eax, DWORD PTR _iy$[ebp]
  0002c	50		 push	 eax
  0002d	6a 01		 push	 1
  0002f	ff 75 0c	 push	 DWORD PTR _poArgs$[ebp]
  00032	e8 00 00 00 00	 call	 ?PyTuple_GetInteger@@YA_NPAU_object@@HPAH@Z ; PyTuple_GetInteger
  00037	83 c4 0c	 add	 esp, 12			; 0000000cH
  0003a	84 c0		 test	 al, al
  0003c	74 dd		 je	 SHORT $LN8@textTailPi
; File C:\Anka2Project\Anka2Project\Source\Binary\source\eterBase\Singleton.h

; 26   : 		assert(ms_singleton);

  0003e	8b 0d 00 00 00
	00		 mov	 ecx, DWORD PTR ?ms_singleton@?$CSingleton@VCPythonTextTail@@@@0PAVCPythonTextTail@@A ; CSingleton<CPythonTextTail>::ms_singleton
  00044	85 c9		 test	 ecx, ecx
  00046	75 1a		 jne	 SHORT $LN7@textTailPi
  00048	6a 1a		 push	 26			; 0000001aH
  0004a	68 00 00 00 00	 push	 OFFSET ??_C@_1IO@CAJLEEOI@?$AAC?$AA?3?$AA?2?$AAA?$AAn?$AAk?$AAa?$AA2?$AAP?$AAr?$AAo?$AAj?$AAe?$AAc?$AAt@
  0004f	68 00 00 00 00	 push	 OFFSET ??_C@_1BK@FMEHPMFE@?$AAm?$AAs?$AA_?$AAs?$AAi?$AAn?$AAg?$AAl?$AAe?$AAt?$AAo?$AAn@
  00054	e8 00 00 00 00	 call	 __wassert
  00059	8b 0d 00 00 00
	00		 mov	 ecx, DWORD PTR ?ms_singleton@?$CSingleton@VCPythonTextTail@@@@0PAVCPythonTextTail@@A ; CSingleton<CPythonTextTail>::ms_singleton
  0005f	83 c4 0c	 add	 esp, 12			; 0000000cH
$LN7@textTailPi:
; File C:\Anka2Project\Anka2Project\Source\Binary\source\UserInterface\PythonTextTailModule.cpp

; 185  : 	int iValue = CPythonTextTail::Instance().Pick(ix, iy);

  00062	ff 75 fc	 push	 DWORD PTR _iy$[ebp]
  00065	ff 75 f8	 push	 DWORD PTR _ix$[ebp]
  00068	e8 00 00 00 00	 call	 ?Pick@CPythonTextTail@@QAEHHH@Z ; CPythonTextTail::Pick

; 186  : 	return Py_BuildValue("i", iValue);

  0006d	50		 push	 eax
  0006e	68 00 00 00 00	 push	 OFFSET ??_C@_01KBJDNOO@i@
  00073	ff 15 00 00 00
	00		 call	 DWORD PTR __imp__Py_BuildValue
  00079	83 c4 08	 add	 esp, 8

; 187  : }

  0007c	8b e5		 mov	 esp, ebp
  0007e	5d		 pop	 ebp
  0007f	c3		 ret	 0
?textTailPick@@YAPAU_object@@PAU1@0@Z ENDP		; textTailPick
_TEXT	ENDS
; Function compile flags: /Ogtp
; File C:\Anka2Project\Anka2Project\Source\Binary\source\UserInterface\PythonTextTailModule.cpp
;	COMDAT ?initTextTail@@YAXXZ
_TEXT	SEGMENT
?initTextTail@@YAXXZ PROC				; initTextTail, COMDAT

; 211  : 	static PyMethodDef s_methods[] =
; 212  : 	{
; 213  : 		{ "Clear",						textTailClear,						METH_VARARGS },
; 214  : 
; 215  : 		{ "UpdateAllTextTail",			textTailUpdateAllTextTail,			METH_VARARGS },
; 216  : 		{ "UpdateShowingTextTail",		textTailUpdateShowingTextTail,		METH_VARARGS },
; 217  : 		{ "Render",						textTailRender,						METH_VARARGS },
; 218  : 
; 219  : 		{ "ShowCharacterTextTail",		textTailShowCharacterTextTail,		METH_VARARGS },
; 220  : 		{ "ShowItemTextTail",			textTailShowItemTextTail,			METH_VARARGS },
; 221  : 
; 222  : 		{ "GetPosition",				textTailGetPosition,				METH_VARARGS },
; 223  : 		{ "IsChat",						textTailIsChat,						METH_VARARGS },
; 224  : 
; 225  : 		{ "ArrangeTextTail",			textTailArrangeTextTail,			METH_VARARGS },
; 226  : 		{ "HideAllTextTail",			textTailHideAllTextTail,			METH_VARARGS },
; 227  : 		{ "ShowAllTextTail",			textTailShowAllTextTail,			METH_VARARGS },
; 228  : 
; 229  : 		{ "Pick",						textTailPick,						METH_VARARGS },
; 230  : 		{ "SelectItemName",				textTailSelectItemName,				METH_VARARGS },
; 231  : 
; 232  : 		{ "EnablePKTitle",				textTailEnablePKTitle,				METH_VARARGS },
; 233  : 
; 234  : 		// For Test
; 235  : 		{ "RegisterCharacterTextTail",	textTailRegisterCharacterTextTail,	METH_VARARGS },
; 236  : 		{ "RegisterChatTail",			textTailRegisterChatTail,			METH_VARARGS },
; 237  : 		{ "RegisterInfoTail",			textTailRegisterInfoTail,			METH_VARARGS },
; 238  : 		{ "AttachTitle",				textTailAttachTitle,				METH_VARARGS },
; 239  : 
; 240  : 		{ nullptr, nullptr },
; 241  : 	};
; 242  : 
; 243  : 	Py_InitModule("textTail", s_methods);

  00000	68 f5 03 00 00	 push	 1013			; 000003f5H
  00005	6a 00		 push	 0
  00007	6a 00		 push	 0
  00009	68 00 00 00 00	 push	 OFFSET ?s_methods@?1??initTextTail@@YAXXZ@4PAUPyMethodDef@@A
  0000e	68 00 00 00 00	 push	 OFFSET ??_C@_08KDMBCLKF@textTail@
  00013	ff 15 00 00 00
	00		 call	 DWORD PTR __imp__Py_InitModule4
  00019	83 c4 14	 add	 esp, 20			; 00000014H

; 244  : }

  0001c	c3		 ret	 0
?initTextTail@@YAXXZ ENDP				; initTextTail
_TEXT	ENDS
END
