; Listing generated by Microsoft (R) Optimizing Compiler Version 19.44.35219.0 

	TITLE	c:\anka2project\anka2project\source\binary\vs_files\userinterface\release\pythoncharactermodule.obj
	.686P
	.XMM
	include listing.inc
	.model	flat

INCLUDELIB OLDNAMES

PUBLIC	??_C@_06LJIOOKLP@NONAME@			; `string'
PUBLIC	??_C@_05DOPDBCAL@horse@				; `string'
PUBLIC	??_C@_01FJMABOPO@x@				; `string'
PUBLIC	??_C@_01EANLCPLP@y@				; `string'
PUBLIC	??_C@_04OHJIHAFH@None@				; `string'
PUBLIC	??_C@_0O@HFPHAOI@DismountHorse@			; `string'
PUBLIC	??_C@_0L@LJFIMMEM@MountHorse@			; `string'
PUBLIC	??_C@_06HIPPCDGO@Deform@			; `string'
PUBLIC	??_C@_0P@PGGGILHJ@CreateInstance@		; `string'
PUBLIC	??_C@_0P@OKILCDFI@DeleteInstance@		; `string'
PUBLIC	??_C@_0BF@EFFECMK@DeleteInstanceByFade@		; `string'
PUBLIC	??_C@_0P@HKEJIIJD@SelectInstance@		; `string'
PUBLIC	??_C@_0M@OJLCDJBP@HasInstance@			; `string'
PUBLIC	??_C@_07LKBCPMOI@IsEnemy@			; `string'
PUBLIC	??_C@_05BEDLICJP@IsNPC@				; `string'
PUBLIC	??_C@_05BGFKCFHM@IsPet@				; `string'
PUBLIC	??_C@_07IMNAMALO@IsMount@			; `string'
PUBLIC	??_C@_0N@ICHIKNBJ@IsGameMaster@			; `string'
PUBLIC	??_C@_0O@FJCFNEGL@IsPartyMember@		; `string'
PUBLIC	??_C@_06HJGPBJLE@Select@			; `string'
PUBLIC	??_C@_0BB@FAHKALE@SetAddRenderMode@		; `string'
PUBLIC	??_C@_0BD@GJEGGPMO@SetBlendRenderMode@		; `string'
PUBLIC	??_C@_08DABDFNEI@Unselect@			; `string'
PUBLIC	??_C@_04EACEFPPN@Hide@				; `string'
PUBLIC	??_C@_04JLAJABDJ@Show@				; `string'
PUBLIC	??_C@_04ILHILILF@Pick@				; `string'
PUBLIC	??_C@_07BKHKMIHJ@PickAll@			; `string'
PUBLIC	??_C@_08CNNBONE@SetArmor@			; `string'
PUBLIC	??_C@_09LJGLIMMG@SetWeapon@			; `string'
PUBLIC	??_C@_0M@GMFNPFHE@ChangeShape@			; `string'
PUBLIC	??_C@_07JLBLBOHA@SetRace@			; `string'
PUBLIC	??_C@_07LJFPJABD@SetHair@			; `string'
PUBLIC	??_C@_07BGFCDLKJ@SetAcce@			; `string'
PUBLIC	??_C@_0L@DAKFNGKA@ChangeHair@			; `string'
PUBLIC	??_C@_0N@GNEKMNPE@SetVirtualID@			; `string'
PUBLIC	??_C@_0O@OBMFICKC@SetNameString@		; `string'
PUBLIC	??_C@_0BA@OIHHKEBP@SetInstanceType@		; `string'
PUBLIC	??_C@_0BB@PNLNCHED@SetPixelPosition@		; `string'
PUBLIC	??_C@_0N@JGECPEGH@SetDirection@			; `string'
PUBLIC	??_C@_07POIENIBA@Refresh@			; `string'
PUBLIC	??_C@_06PGKKGABA@Revive@			; `string'
PUBLIC	??_C@_03JFEBIAME@Die@				; `string'
PUBLIC	??_C@_0BB@NOBBHECI@AttachEffectByID@		; `string'
PUBLIC	??_C@_0BD@HHHMIBBD@AttachEffectByName@		; `string'
PUBLIC	??_C@_06NFNEEJJI@LookAt@			; `string'
PUBLIC	??_C@_0O@MFBHEMHB@SetMotionMode@		; `string'
PUBLIC	??_C@_0O@LMHNCNAM@SetLoopMotion@		; `string'
PUBLIC	??_C@_0BA@JHKNHNFN@BlendLoopMotion@		; `string'
PUBLIC	??_C@_0P@LIJFJIGO@PushOnceMotion@		; `string'
PUBLIC	??_C@_0P@BMNKFJAK@PushLoopMotion@		; `string'
PUBLIC	??_C@_0BB@JJOEJJPB@GetPixelPosition@		; `string'
PUBLIC	??_C@_0M@GNIHGJGG@SetRotation@			; `string'
PUBLIC	??_C@_0P@CAJEFICF@SetRotationAll@		; `string'
PUBLIC	??_C@_0O@MOMBDHP@BlendRotation@			; `string'
PUBLIC	??_C@_0M@GCJJLPOF@GetRotation@			; `string'
PUBLIC	??_C@_07GDOKCBKB@GetRace@			; `string'
PUBLIC	??_C@_0N@CEBOCFNC@GetNameByVID@			; `string'
PUBLIC	??_C@_0L@EAKBLDCO@GetGuildID@			; `string'
PUBLIC	??_C@_0BD@EDCEKIDC@GetProjectPosition@		; `string'
PUBLIC	??_C@_0BB@GEKGPEHG@GetVirtualNumber@		; `string'
PUBLIC	??_C@_0BA@NKGBNGAG@GetInstanceType@		; `string'
PUBLIC	??_C@_0BC@NEGEPOJK@GetBoundBoxOnlyXY@		; `string'
PUBLIC	??_C@_09BPCAHBN@RaceToJob@			; `string'
PUBLIC	??_C@_09JBFJGAAF@RaceToSex@			; `string'
PUBLIC	??_C@_0O@NGEBABJL@testGetPKData@		; `string'
PUBLIC	??_C@_09JMNILCLH@FaintTest@			; `string'
PUBLIC	??_C@_0N@NBFDNLFE@SetMoveSpeed@			; `string'
PUBLIC	??_C@_0P@HDBEGKGG@SetAttackSpeed@		; `string'
PUBLIC	??_C@_0BG@IFMOLBHG@WeaponTraceSetTexture@	; `string'
PUBLIC	??_C@_0BE@EGNCJJPB@WeaponTraceUseAlpha@		; `string'
PUBLIC	??_C@_0BG@PMHANMKI@WeaponTraceUseTexture@	; `string'
PUBLIC	??_C@_0BD@DOJIBHBJ@MoveToDestPosition@		; `string'
PUBLIC	??_C@_0BB@DPBIMGC@testSetComboType@		; `string'
PUBLIC	??_C@_0BF@KKAOKOCP@testSetAddRenderMode@	; `string'
PUBLIC	??_C@_0BK@MMJPLJAB@testSetModulateRenderMode@	; `string'
PUBLIC	??_C@_0BI@DCLDMMPM@testSetAddRenderModeRGB@	; `string'
PUBLIC	??_C@_0BN@ICOLIADE@testSetModulateRenderModeRGB@ ; `string'
PUBLIC	??_C@_0BK@PFCOBJBF@testSetSpecularRenderMode@	; `string'
PUBLIC	??_C@_0BL@IAFIJOID@testSetSpecularRenderMode2@	; `string'
PUBLIC	??_C@_0BG@PPLDMJLI@testRestoreRenderMode@	; `string'
PUBLIC	??_C@_0P@OHFCMBLI@testSetRideMan@		; `string'
PUBLIC	??_C@_07EBKOKPMC@GetHair@			; `string'
PUBLIC	??_C@_09GEPJFMPK@IsPremium@			; `string'
PUBLIC	??_C@_07BKKIDPKJ@SetAura@			; `string'
PUBLIC	??_C@_0BE@BCBGONIE@PLAYER_NAME_MAX_LEN@		; `string'
PUBLIC	??_C@_0M@GHHHCAEH@MOTION_NONE@			; `string'
PUBLIC	??_C@_0N@JMBMLHMG@MOTION_SPAWN@			; `string'
PUBLIC	??_C@_0M@LMMOJHBC@MOTION_WAIT@			; `string'
PUBLIC	??_C@_0M@HHFPFLGH@MOTION_WALK@			; `string'
PUBLIC	??_C@_0L@KHKCPAAF@MOTION_RUN@			; `string'
PUBLIC	??_C@_0BF@ICKHJCNJ@MOTION_CHANGE_WEAPON@	; `string'
PUBLIC	??_C@_0O@CKDFGNMB@MOTION_DAMAGE@		; `string'
PUBLIC	??_C@_0BF@LNCKFICM@MOTION_DAMAGE_FLYING@	; `string'
PUBLIC	??_C@_0BA@IDCGGFKN@MOTION_STAND_UP@		; `string'
PUBLIC	??_C@_0BD@MNOACOOC@MOTION_DAMAGE_BACK@		; `string'
PUBLIC	??_C@_0BK@PDCLNNIP@MOTION_DAMAGE_FLYING_BACK@	; `string'
PUBLIC	??_C@_0BF@DFDDIGMI@MOTION_STAND_UP_BACK@	; `string'
PUBLIC	??_C@_0M@FADNKOPO@MOTION_DEAD@			; `string'
PUBLIC	??_C@_0BB@FBKKIAJJ@MOTION_DEAD_BACK@		; `string'
PUBLIC	??_C@_0BF@PDLLCGCI@MOTION_NORMAL_ATTACK@	; `string'
PUBLIC	??_C@_0BG@NHAANOLG@MOTION_COMBO_ATTACK_1@	; `string'
PUBLIC	??_C@_0BG@PMCNINHF@MOTION_COMBO_ATTACK_2@	; `string'
PUBLIC	??_C@_0BG@OFDGLMDE@MOTION_COMBO_ATTACK_3@	; `string'
PUBLIC	??_C@_0BG@KKHHCKPD@MOTION_COMBO_ATTACK_4@	; `string'
PUBLIC	??_C@_0BG@LDGMBLLC@MOTION_COMBO_ATTACK_5@	; `string'
PUBLIC	??_C@_0BG@JIEBEIHB@MOTION_COMBO_ATTACK_6@	; `string'
PUBLIC	??_C@_0BG@IBFKHJDA@MOTION_COMBO_ATTACK_7@	; `string'
PUBLIC	??_C@_0BG@GMCGFPP@MOTION_COMBO_ATTACK_8@	; `string'
PUBLIC	??_C@_0BC@KGBJGDBO@MOTION_INTRO_WAIT@		; `string'
PUBLIC	??_C@_0BG@KEIOCEDJ@MOTION_INTRO_SELECTED@	; `string'
PUBLIC	??_C@_0BK@BEALLN@MOTION_INTRO_NOT_SELECTED@	; `string'
PUBLIC	??_C@_0BF@CHLKIEFK@MOTION_FISHING_THROW@	; `string'
PUBLIC	??_C@_0BE@MOCHIGHH@MOTION_FISHING_WAIT@		; `string'
PUBLIC	??_C@_0BE@DMIBDOKM@MOTION_FISHING_STOP@		; `string'
PUBLIC	??_C@_0BF@GJOIPBCA@MOTION_FISHING_REACT@	; `string'
PUBLIC	??_C@_0BF@NFFCHMCO@MOTION_FISHING_CATCH@	; `string'
PUBLIC	??_C@_0BE@BBLMKABM@MOTION_FISHING_FAIL@		; `string'
PUBLIC	??_C@_0M@EOGICPMJ@MOTION_STOP@			; `string'
PUBLIC	??_C@_0N@GMNNBHKJ@MOTION_SKILL@			; `string'
PUBLIC	??_C@_0M@LBLLOKDB@MOTION_CLAP@			; `string'
PUBLIC	??_C@_0P@GNPIAPBK@MOTION_DANCE_1@		; `string'
PUBLIC	??_C@_0P@EGNFFMNJ@MOTION_DANCE_2@		; `string'
PUBLIC	??_C@_0P@FPMOGNJI@MOTION_DANCE_3@		; `string'
PUBLIC	??_C@_0P@BAIPPLFP@MOTION_DANCE_4@		; `string'
PUBLIC	??_C@_0P@JJEMKBO@MOTION_DANCE_5@		; `string'
PUBLIC	??_C@_0P@CCLJJJNN@MOTION_DANCE_6@		; `string'
PUBLIC	??_C@_0BG@BMOIGNKG@MOTION_CONGRATULATION@	; `string'
PUBLIC	??_C@_0O@LJPELBJE@MOTION_SELFIE@		; `string'
PUBLIC	??_C@_0P@DLKCKIJM@MOTION_DANCE_7@		; `string'
PUBLIC	??_C@_0M@DGOIDDEK@MOTION_DOZE@			; `string'
PUBLIC	??_C@_0BA@HPGCODBP@MOTION_EXERCISE@		; `string'
PUBLIC	??_C@_0O@KLCMGCPC@MOTION_PUSHUP@		; `string'
PUBLIC	??_C@_0BB@MCHEDJEK@MOTION_EMOTION_1@		; `string'
PUBLIC	??_C@_0BB@OJFJGKIJ@MOTION_EMOTION_2@		; `string'
PUBLIC	??_C@_0BB@PAECFLMI@MOTION_EMOTION_3@		; `string'
PUBLIC	??_C@_0BB@LPADMNAP@MOTION_EMOTION_4@		; `string'
PUBLIC	??_C@_0BB@KGBIPMEO@MOTION_EMOTION_5@		; `string'
PUBLIC	??_C@_0BB@INDFKPIN@MOTION_EMOTION_6@		; `string'
PUBLIC	??_C@_0BB@JECOJOMM@MOTION_EMOTION_7@		; `string'
PUBLIC	??_C@_0BB@BDLGICAD@MOTION_EMOTION_8@		; `string'
PUBLIC	??_C@_0BB@KKNLDEC@MOTION_EMOTION_9@		; `string'
PUBLIC	??_C@_0BC@EJINOKEE@MOTION_EMOTION_10@		; `string'
PUBLIC	??_C@_0BC@FAJGNLAF@MOTION_EMOTION_11@		; `string'
PUBLIC	??_C@_0BC@HLLLIIMG@MOTION_EMOTION_12@		; `string'
PUBLIC	??_C@_0BC@GCKALJIH@MOTION_EMOTION_13@		; `string'
PUBLIC	??_C@_0BC@CNOBCPEA@MOTION_EMOTION_14@		; `string'
PUBLIC	??_C@_0BC@DEPKBOAB@MOTION_EMOTION_15@		; `string'
PUBLIC	??_C@_0BC@BPNHENMC@MOTION_EMOTION_16@		; `string'
PUBLIC	??_C@_0BC@GMMHMID@MOTION_EMOTION_17@		; `string'
PUBLIC	??_C@_0BC@IBFEGAEM@MOTION_EMOTION_18@		; `string'
PUBLIC	??_C@_0BC@JIEPFBAN@MOTION_EMOTION_19@		; `string'
PUBLIC	??_C@_0BC@ELMLFEBN@MOTION_EMOTION_20@		; `string'
PUBLIC	??_C@_0BC@FCNAGFFM@MOTION_EMOTION_21@		; `string'
PUBLIC	??_C@_0P@PACCCPNP@MOTION_FORGIVE@		; `string'
PUBLIC	??_C@_0N@CLPBCEBE@MOTION_ANGRY@			; `string'
PUBLIC	??_C@_0BC@MOMKLPKF@MOTION_ATTRACTIVE@		; `string'
PUBLIC	??_C@_0L@PONOHEEG@MOTION_SAD@			; `string'
PUBLIC	??_C@_0L@OGDCDNF@MOTION_SHY@			; `string'
PUBLIC	??_C@_0P@KLJNPGKF@MOTION_CHEERUP@		; `string'
PUBLIC	??_C@_0O@GPIFNFHO@MOTION_BANTER@		; `string'
PUBLIC	??_C@_0L@CGDNCNEF@MOTION_JOY@			; `string'
PUBLIC	??_C@_0BA@EOHNNFMC@MOTION_CHEERS_1@		; `string'
PUBLIC	??_C@_0BA@GFFAIGAB@MOTION_CHEERS_2@		; `string'
PUBLIC	??_C@_0BJ@BNMGACEI@MOTION_KISS_WITH_WARRIOR@	; `string'
PUBLIC	??_C@_0BK@PEHNDAJC@MOTION_KISS_WITH_ASSASSIN@	; `string'
PUBLIC	??_C@_0BG@FBINLMID@MOTION_KISS_WITH_SURA@	; `string'
PUBLIC	??_C@_0BI@BPAFKDHB@MOTION_KISS_WITH_SHAMAN@	; `string'
PUBLIC	??_C@_0CA@MCOGAAOA@MOTION_FRENCH_KISS_WITH_WARRIOR@ ; `string'
PUBLIC	??_C@_0CB@CMKPDLEK@MOTION_FRENCH_KISS_WITH_ASSASSI@ ; `string'
PUBLIC	??_C@_0BN@OJCLLFKP@MOTION_FRENCH_KISS_WITH_SURA@ ; `string'
PUBLIC	??_C@_0BP@FPOIMINN@MOTION_FRENCH_KISS_WITH_SHAMAN@ ; `string'
PUBLIC	??_C@_0BN@KKCFGBMO@MOTION_SLAP_HIT_WITH_WARRIOR@ ; `string'
PUBLIC	??_C@_0BO@PABBPFOE@MOTION_SLAP_HIT_WITH_ASSASSIN@ ; `string'
PUBLIC	??_C@_0BK@BLGFNMMI@MOTION_SLAP_HIT_WITH_SURA@	; `string'
PUBLIC	??_C@_0BM@EBDKBOAP@MOTION_SLAP_HIT_WITH_SHAMAN@	; `string'
PUBLIC	??_C@_0BO@ENJIKGO@MOTION_SLAP_HURT_WITH_WARRIOR@ ; `string'
PUBLIC	??_C@_0BP@CGGJKKOH@MOTION_SLAP_HURT_WITH_ASSASSIN@ ; `string'
PUBLIC	??_C@_0BL@MNIFOENP@MOTION_SLAP_HURT_WITH_SURA@	; `string'
PUBLIC	??_C@_0BN@GMLLPEOH@MOTION_SLAP_HURT_WITH_SHAMAN@ ; `string'
PUBLIC	??_C@_0L@BGCOBJBL@MOTION_DIG@			; `string'
PUBLIC	??_C@_0BF@JPHCAJND@MOTION_MODE_RESERVED@	; `string'
PUBLIC	??_C@_0BE@PPOENDHJ@MOTION_MODE_GENERAL@		; `string'
PUBLIC	??_C@_0BK@EGEANFHJ@MOTION_MODE_ONEHAND_SWORD@	; `string'
PUBLIC	??_C@_0BK@LGGPJGKL@MOTION_MODE_TWOHAND_SWORD@	; `string'
PUBLIC	??_C@_0BL@BILJFJA@MOTION_MODE_DUALHAND_SWORD@	; `string'
PUBLIC	??_C@_0BA@BFLJJHOH@MOTION_MODE_BOW@		; `string'
PUBLIC	??_C@_0BA@LEFIEKC@MOTION_MODE_FAN@		; `string'
PUBLIC	??_C@_0BB@BNHJGCLA@MOTION_MODE_BELL@		; `string'
PUBLIC	??_C@_0BE@NMIGCCAP@MOTION_MODE_FISHING@		; `string'
PUBLIC	??_C@_0BC@KOFIOII@MOTION_MODE_HORSE@		; `string'
PUBLIC	??_C@_0CA@LBDCIFIC@MOTION_MODE_HORSE_ONEHAND_SWORD@ ; `string'
PUBLIC	??_C@_0CA@EBBNMGFA@MOTION_MODE_HORSE_TWOHAND_SWORD@ ; `string'
PUBLIC	??_C@_0CB@CLBDMMFE@MOTION_MODE_HORSE_DUALHAND_SWOR@ ; `string'
PUBLIC	??_C@_0BG@FPIIPCL@MOTION_MODE_HORSE_BOW@	; `string'
PUBLIC	??_C@_0BG@BLAEJMGO@MOTION_MODE_HORSE_FAN@	; `string'
PUBLIC	??_C@_0BH@IPLLKNDD@MOTION_MODE_HORSE_BELL@	; `string'
PUBLIC	??_C@_0BK@EFEKGCKJ@MOTION_MODE_WEDDING_DRESS@	; `string'
PUBLIC	??_C@_09OGGLMICG@DIR_NORTH@			; `string'
PUBLIC	??_C@_0O@NGBDCCOD@DIR_NORTHEAST@		; `string'
PUBLIC	??_C@_08OGFOMCPI@DIR_EAST@			; `string'
PUBLIC	??_C@_0O@OIGCBKC@DIR_SOUTHEAST@			; `string'
PUBLIC	??_C@_09MEPEOBNK@DIR_SOUTH@			; `string'
PUBLIC	??_C@_0O@JLMEHCBH@DIR_SOUTHWEST@		; `string'
PUBLIC	??_C@_08HDBMJBEN@DIR_WEST@			; `string'
PUBLIC	??_C@_0O@EDFBHBFG@DIR_NORTHWEST@		; `string'
PUBLIC	??_C@_0BF@LBEOLJOH@INSTANCE_TYPE_PLAYER@	; `string'
PUBLIC	??_C@_0BC@HPKLHBPD@INSTANCE_TYPE_NPC@		; `string'
PUBLIC	??_C@_0BE@JLNEPCAN@INSTANCE_TYPE_ENEMY@		; `string'
PUBLIC	??_C@_0BH@FNPAMCND@INSTANCE_TYPE_BUILDING@	; `string'
PUBLIC	??_C@_0BF@CFBKDGLC@INSTANCE_TYPE_OBJECT@	; `string'
PUBLIC	??_C@_09HAMNFDMJ@PART_HEAD@			; `string'
PUBLIC	??_C@_09ECCJILEL@PART_ACCE@			; `string'
PUBLIC	??_C@_09EONDIPEL@PART_AURA@			; `string'
PUBLIC	??_C@_0O@FFCFHML@AFFECT_POISON@			; `string'
PUBLIC	??_C@_0M@LLKNMBHE@AFFECT_SLOW@			; `string'
PUBLIC	??_C@_0M@KELBDBLK@AFFECT_STUN@			; `string'
PUBLIC	??_C@_0BI@BEKPJJEK@AFFECT_MOV_SPEED_POTION@	; `string'
PUBLIC	??_C@_0BI@JFMNFFKJ@AFFECT_ATT_SPEED_POTION@	; `string'
PUBLIC	??_C@_0BB@HABGKKCK@AFFECT_FISH_MIND@		; `string'
PUBLIC	??_C@_0P@PMGJMPLA@AFFECT_JEONGWI@		; `string'
PUBLIC	??_C@_0BC@BPIBLGH@AFFECT_GEOMGYEONG@		; `string'
PUBLIC	??_C@_0BB@NMEHKBDD@AFFECT_CHEONGEUN@		; `string'
PUBLIC	??_C@_0BC@DNOFICLK@AFFECT_GYEONGGONG@		; `string'
PUBLIC	??_C@_0BB@NOAECAHF@AFFECT_EUNHYEONG@		; `string'
PUBLIC	??_C@_0P@JADECJKN@AFFECT_GWIGEOM@		; `string'
PUBLIC	??_C@_0O@MEBBDMFP@AFFECT_GONGPO@		; `string'
PUBLIC	??_C@_0P@NHIEBDHO@AFFECT_JUMAGAP@		; `string'
PUBLIC	??_C@_0N@BLOPJELK@AFFECT_HOSIN@			; `string'
PUBLIC	??_C@_0M@HDMMFOHE@AFFECT_BOHO@			; `string'
PUBLIC	??_C@_0P@HCCAECCK@AFFECT_KWAESOK@		; `string'
PUBLIC	??_C@_0P@FCGDLODF@AFFECT_HEUKSIN@		; `string'
PUBLIC	??_C@_0P@HLONBHGO@AFFECT_MUYEONG@		; `string'
PUBLIC	??_C@_0P@KPDDCJEK@AFFECT_GICHEON@		; `string'
PUBLIC	??_C@_0BC@HABANGHD@AFFECT_JEUNGRYEOK@		; `string'
PUBLIC	??_C@_0O@OJLLDADG@AFFECT_PABEOP@		; `string'
PUBLIC	??_C@_0BI@CFDHLOMB@AFFECT_FALLEN_CHEONGEUN@	; `string'
PUBLIC	??_C@_0BG@DFBDCPEK@AFFECT_CHINA_FIREWORK@	; `string'
PUBLIC	??_C@_0BG@MOOJPEIB@NEW_AFFECT_MULTI_FARM@	; `string'
PUBLIC	??_C@_0BL@EIEJCOMH@NEW_AFFECT_PREMIUM_ACCOUNT@	; `string'
PUBLIC	??_C@_0BF@EICDJDKA@NEW_AFFECT_AUTO_HUNT@	; `string'
PUBLIC	??_C@_0BA@DBLFIOAN@NEW_AFFECT_MALL@		; `string'
PUBLIC	??_C@_0BM@NOKMEHMP@NEW_AFFECT_NO_DEATH_PENALTY@	; `string'
PUBLIC	??_C@_0BM@ELPJNNPH@NEW_AFFECT_SKILL_BOOK_BONUS@	; `string'
PUBLIC	??_C@_0BP@ILCIKFOJ@NEW_AFFECT_SKILL_BOOK_NO_DELAY@ ; `string'
PUBLIC	??_C@_0BF@IGFBIBCE@NEW_AFFECT_EXP_BONUS@	; `string'
PUBLIC	??_C@_0BP@PLLCKPKL@NEW_AFFECT_EXP_BONUS_EURO_FREE@ ; `string'
PUBLIC	??_C@_0CI@CIBKFDJK@NEW_AFFECT_EXP_BONUS_EURO_FREE_@ ; `string'
PUBLIC	??_C@_0BG@GBJOJDKK@NEW_AFFECT_ITEM_BONUS@	; `string'
PUBLIC	??_C@_0BD@OLNAIOLN@NEW_AFFECT_SAFEBOX@		; `string'
PUBLIC	??_C@_0BE@OGKIHHNM@NEW_AFFECT_AUTOLOOT@		; `string'
PUBLIC	??_C@_0BF@LHIEHLCN@NEW_AFFECT_FISH_MIND@	; `string'
PUBLIC	??_C@_0BJ@DEPPJPLB@NEW_AFFECT_MARRIAGE_FAST@	; `string'
PUBLIC	??_C@_0BG@FPEKGPMD@NEW_AFFECT_GOLD_BONUS@	; `string'
PUBLIC	??_C@_0BM@DLPBDIOI@NEW_AFFECT_AUTO_HP_RECOVERY@	; `string'
PUBLIC	??_C@_0BM@EGHLHBBK@NEW_AFFECT_AUTO_SP_RECOVERY@	; `string'
PUBLIC	??_C@_0CB@MMNLNBEI@NEW_AFFECT_DRAGON_SOUL_QUALIFIE@ ; `string'
PUBLIC	??_C@_0BN@DIIGGCFL@NEW_AFFECT_DRAGON_SOUL_DECK1@ ; `string'
PUBLIC	??_C@_0BN@BDKLDBJI@NEW_AFFECT_DRAGON_SOUL_DECK2@ ; `string'
PUBLIC	??_C@_0BB@JNNPKOLC@NEW_AFFECT_BLEND@		; `string'
PUBLIC	??_C@_0BF@BPDGEOFA@NEW_AFFECT_MALL_PLUS@	; `string'
PUBLIC	??_C@_0BG@GKGBMDLI@NEW_AFFECT_BLEND_PLUS@	; `string'
PUBLIC	??_C@_0BG@NACAINHC@NEW_AFFECT_DECORATION@	; `string'
PUBLIC	??_C@_0BI@DDNPJENB@NEW_AFFECT_AUTO_PICK_UP@	; `string'
PUBLIC	??_C@_0BG@KIAGHMMH@PET_SKILL_AFFECT_NONE@	; `string'
PUBLIC	??_C@_0CB@HHEHDNB@PET_SKILL_AFFECT_JIJOONG_WARRIO@ ; `string'
PUBLIC	??_C@_0BO@BKIMMML@PET_SKILL_AFFECT_JIJOONG_SURA@ ; `string'
PUBLIC	??_C@_0CC@HNLEKJAD@PET_SKILL_AFFECT_JIJOONG_ASSASS@ ; `string'
PUBLIC	??_C@_0CA@HHKAEHGF@PET_SKILL_AFFECT_JIJOONG_SHAMAN@ ; `string'
PUBLIC	??_C@_0BJ@DKPPJMPA@PET_SKILL_AFFECT_PACHEON@	; `string'
PUBLIC	??_C@_0BH@DBAEALCF@PET_SKILL_AFFECT_BANYA@	; `string'
PUBLIC	??_C@_0BO@PCKIHOIK@PET_SKILL_AFFECT_CHOEHOENBIMU@ ; `string'
PUBLIC	??_C@_0BG@JCGFJFHH@PET_SKILL_AFFECT_HEAL@	; `string'
PUBLIC	??_C@_0BJ@PGNJMPMG@PET_SKILL_AFFECT_STEALHP@	; `string'
PUBLIC	??_C@_0BJ@PABCANCN@PET_SKILL_AFFECT_STEALMP@	; `string'
PUBLIC	??_C@_0BH@JKHGGGNN@PET_SKILL_AFFECT_BLOCK@	; `string'
PUBLIC	??_C@_0BP@CIKKIFNK@PET_SKILL_AFFECT_REFLECT_MELEE@ ; `string'
PUBLIC	??_C@_0BL@PABKFCJE@PET_SKILL_AFFECT_GOLD_DROP@	; `string'
PUBLIC	??_C@_0BO@GDCMHFIH@PET_SKILL_AFFECT_BOW_DISTANCE@ ; `string'
PUBLIC	??_C@_0BP@NIDNBKAK@PET_SKILL_AFFECT_INVINCIBILITY@ ; `string'
PUBLIC	??_C@_0BJ@HOLLLFAH@PET_SKILL_AFFECT_REMOVAL@	; `string'
PUBLIC	??_C@_0BI@JPFDKLOG@PET_SKILL_AFFECT_POTION@	; `string'
PUBLIC	??_C@_0BL@HPKAKFEN@PET_SKILL_AFFECT_MOB_BONUS@	; `string'
PUBLIC	??_C@_0BF@CDFLBDOA@PET_SKILL_HP_RECOVER@	; `string'
PUBLIC	??_C@_0BF@HNDMCKJJ@PET_SKILL_AFFECT_EXP@	; `string'
PUBLIC	??_C@_0BC@GKKKLICJ@PET_SKILL_FEATHER@		; `string'
PUBLIC	??_C@_0BF@GDKGBAIB@PET_SKILL_AFFECT_MAX@	; `string'
EXTRN	?UseAlphaWeaponTrace@CActorInstance@@QAEXXZ:PROC ; CActorInstance::UseAlphaWeaponTrace
EXTRN	?SetWeaponTraceTexture@CActorInstance@@QAEXPBD@Z:PROC ; CActorInstance::SetWeaponTraceTexture
EXTRN	?UseTextureWeaponTrace@CActorInstance@@QAEXXZ:PROC ; CActorInstance::UseTextureWeaponTrace
EXTRN	?IsFaint@CActorInstance@@QAEHXZ:PROC		; CActorInstance::IsFaint
EXTRN	?SetFaint@CActorInstance@@QAEX_N@Z:PROC		; CActorInstance::SetFaint
EXTRN	?SetSpecularInfo@CActorInstance@@QAEXHHM@Z:PROC	; CActorInstance::SetSpecularInfo
EXTRN	?SetSpecularInfoForce@CActorInstance@@QAEXHHM@Z:PROC ; CActorInstance::SetSpecularInfoForce
EXTRN	?SetXYRotation@CActorInstance@@QAEXMM@Z:PROC	; CActorInstance::SetXYRotation
EXTRN	?ProjectPosition@CScreen@@QAEXMMMPAM00@Z:PROC	; CScreen::ProjectPosition
EXTRN	__imp__PyLong_AsLong:PROC
EXTRN	__imp__PyDict_GetItemString:PROC
EXTRN	__imp__PyTuple_Size:PROC
;	COMDAT ?s_methods@?1??initchr@@YAXXZ@4PAUPyMethodDef@@A
_DATA	SEGMENT
?s_methods@?1??initchr@@YAXXZ@4PAUPyMethodDef@@A DD FLAT:??_C@_0O@HFPHAOI@DismountHorse@ ; `initchr'::`2'::s_methods
	DD	FLAT:?chrDismountHorse@@YAPAU_object@@PAU1@0@Z
	DD	01H
	ORG $+4
	DD	FLAT:??_C@_0L@LJFIMMEM@MountHorse@
	DD	FLAT:?chrMountHorse@@YAPAU_object@@PAU1@0@Z
	DD	01H
	ORG $+4
	DD	FLAT:??_C@_07BDCAJABG@Destroy@
	DD	FLAT:?chrDestroy@@YAPAU_object@@PAU1@0@Z
	DD	01H
	ORG $+4
	DD	FLAT:??_C@_06LMAGPFNF@Update@
	DD	FLAT:?chrUpdate@@YAPAU_object@@PAU1@0@Z
	DD	01H
	ORG $+4
	DD	FLAT:??_C@_06HIPPCDGO@Deform@
	DD	FLAT:?chrDeform@@YAPAU_object@@PAU1@0@Z
	DD	01H
	ORG $+4
	DD	FLAT:??_C@_06EPLDPNDB@Render@
	DD	FLAT:?chrRender@@YAPAU_object@@PAU1@0@Z
	DD	01H
	ORG $+4
	DD	FLAT:??_C@_0BA@OAOAOPAN@RenderCollision@
	DD	FLAT:?chrRenderCollision@@YAPAU_object@@PAU1@0@Z
	DD	01H
	ORG $+4
	DD	FLAT:??_C@_0P@PGGGILHJ@CreateInstance@
	DD	FLAT:?chrCreateInstance@@YAPAU_object@@PAU1@0@Z
	DD	01H
	ORG $+4
	DD	FLAT:??_C@_0P@OKILCDFI@DeleteInstance@
	DD	FLAT:?chrDeleteInstance@@YAPAU_object@@PAU1@0@Z
	DD	01H
	ORG $+4
	DD	FLAT:??_C@_0BF@EFFECMK@DeleteInstanceByFade@
	DD	FLAT:?chrDeleteInstanceByFade@@YAPAU_object@@PAU1@0@Z
	DD	01H
	ORG $+4
	DD	FLAT:??_C@_0P@HKEJIIJD@SelectInstance@
	DD	FLAT:?chrSelectInstance@@YAPAU_object@@PAU1@0@Z
	DD	01H
	ORG $+4
	DD	FLAT:??_C@_0M@OJLCDJBP@HasInstance@
	DD	FLAT:?chrHasInstance@@YAPAU_object@@PAU1@0@Z
	DD	01H
	ORG $+4
	DD	FLAT:??_C@_07LKBCPMOI@IsEnemy@
	DD	FLAT:?chrIsEnemy@@YAPAU_object@@PAU1@0@Z
	DD	01H
	ORG $+4
	DD	FLAT:??_C@_05BEDLICJP@IsNPC@
	DD	FLAT:?chrIsNPC@@YAPAU_object@@PAU1@0@Z
	DD	01H
	ORG $+4
	DD	FLAT:??_C@_05BGFKCFHM@IsPet@
	DD	FLAT:?chrIsPet@@YAPAU_object@@PAU1@0@Z
	DD	01H
	ORG $+4
	DD	FLAT:??_C@_07IMNAMALO@IsMount@
	DD	FLAT:?chrIsMount@@YAPAU_object@@PAU1@0@Z
	DD	01H
	ORG $+4
	DD	FLAT:??_C@_0N@ICHIKNBJ@IsGameMaster@
	DD	FLAT:?chrIsGameMaster@@YAPAU_object@@PAU1@0@Z
	DD	01H
	ORG $+4
	DD	FLAT:??_C@_0O@FJCFNEGL@IsPartyMember@
	DD	FLAT:?chrIsPartyMember@@YAPAU_object@@PAU1@0@Z
	DD	01H
	ORG $+4
	DD	FLAT:??_C@_06HJGPBJLE@Select@
	DD	FLAT:?chrSelect@@YAPAU_object@@PAU1@0@Z
	DD	01H
	ORG $+4
	DD	FLAT:??_C@_0BB@FAHKALE@SetAddRenderMode@
	DD	FLAT:?chrSetAddRenderMode@@YAPAU_object@@PAU1@0@Z
	DD	01H
	ORG $+4
	DD	FLAT:??_C@_0BD@GJEGGPMO@SetBlendRenderMode@
	DD	FLAT:?chrSetBlendRenderMode@@YAPAU_object@@PAU1@0@Z
	DD	01H
	ORG $+4
	DD	FLAT:??_C@_08DABDFNEI@Unselect@
	DD	FLAT:?chrUnselect@@YAPAU_object@@PAU1@0@Z
	DD	01H
	ORG $+4
	DD	FLAT:??_C@_04EACEFPPN@Hide@
	DD	FLAT:?chrHide@@YAPAU_object@@PAU1@0@Z
	DD	01H
	ORG $+4
	DD	FLAT:??_C@_04JLAJABDJ@Show@
	DD	FLAT:?chrShow@@YAPAU_object@@PAU1@0@Z
	DD	01H
	ORG $+4
	DD	FLAT:??_C@_04ILHILILF@Pick@
	DD	FLAT:?chrPick@@YAPAU_object@@PAU1@0@Z
	DD	01H
	ORG $+4
	DD	FLAT:??_C@_07BKHKMIHJ@PickAll@
	DD	FLAT:?chrPickAll@@YAPAU_object@@PAU1@0@Z
	DD	01H
	ORG $+4
	DD	FLAT:??_C@_08CNNBONE@SetArmor@
	DD	FLAT:?chrSetArmor@@YAPAU_object@@PAU1@0@Z
	DD	01H
	ORG $+4
	DD	FLAT:??_C@_09LJGLIMMG@SetWeapon@
	DD	FLAT:?chrSetWeapon@@YAPAU_object@@PAU1@0@Z
	DD	01H
	ORG $+4
	DD	FLAT:??_C@_0M@GMFNPFHE@ChangeShape@
	DD	FLAT:?chrChangeShape@@YAPAU_object@@PAU1@0@Z
	DD	01H
	ORG $+4
	DD	FLAT:??_C@_07JLBLBOHA@SetRace@
	DD	FLAT:?chrSetRace@@YAPAU_object@@PAU1@0@Z
	DD	01H
	ORG $+4
	DD	FLAT:??_C@_07LJFPJABD@SetHair@
	DD	FLAT:?chrSetHair@@YAPAU_object@@PAU1@0@Z
	DD	01H
	ORG $+4
	DD	FLAT:??_C@_07BGFCDLKJ@SetAcce@
	DD	FLAT:?chrSetAcce@@YAPAU_object@@PAU1@0@Z
	DD	01H
	ORG $+4
	DD	FLAT:??_C@_0L@DAKFNGKA@ChangeHair@
	DD	FLAT:?chrChangeHair@@YAPAU_object@@PAU1@0@Z
	DD	01H
	ORG $+4
	DD	FLAT:??_C@_0N@GNEKMNPE@SetVirtualID@
	DD	FLAT:?chrSetVirtualID@@YAPAU_object@@PAU1@0@Z
	DD	01H
	ORG $+4
	DD	FLAT:??_C@_0O@OBMFICKC@SetNameString@
	DD	FLAT:?chrSetNameString@@YAPAU_object@@PAU1@0@Z
	DD	01H
	ORG $+4
	DD	FLAT:??_C@_0BA@OIHHKEBP@SetInstanceType@
	DD	FLAT:?chrSetInstanceType@@YAPAU_object@@PAU1@0@Z
	DD	01H
	ORG $+4
	DD	FLAT:??_C@_0BB@PNLNCHED@SetPixelPosition@
	DD	FLAT:?chrSetPixelPosition@@YAPAU_object@@PAU1@0@Z
	DD	01H
	ORG $+4
	DD	FLAT:??_C@_0N@JGECPEGH@SetDirection@
	DD	FLAT:?chrSetDirection@@YAPAU_object@@PAU1@0@Z
	DD	01H
	ORG $+4
	DD	FLAT:??_C@_07POIENIBA@Refresh@
	DD	FLAT:?chrRefresh@@YAPAU_object@@PAU1@0@Z
	DD	01H
	ORG $+4
	DD	FLAT:??_C@_06PGKKGABA@Revive@
	DD	FLAT:?chrRevive@@YAPAU_object@@PAU1@0@Z
	DD	01H
	ORG $+4
	DD	FLAT:??_C@_03JFEBIAME@Die@
	DD	FLAT:?chrDie@@YAPAU_object@@PAU1@0@Z
	DD	01H
	ORG $+4
	DD	FLAT:??_C@_0BB@NOBBHECI@AttachEffectByID@
	DD	FLAT:?chrAttachEffectByID@@YAPAU_object@@PAU1@0@Z
	DD	01H
	ORG $+4
	DD	FLAT:??_C@_0BD@HHHMIBBD@AttachEffectByName@
	DD	FLAT:?chrAttachEffectByName@@YAPAU_object@@PAU1@0@Z
	DD	01H
	ORG $+4
	DD	FLAT:??_C@_06NFNEEJJI@LookAt@
	DD	FLAT:?chrLookAt@@YAPAU_object@@PAU1@0@Z
	DD	01H
	ORG $+4
	DD	FLAT:??_C@_0O@MFBHEMHB@SetMotionMode@
	DD	FLAT:?chrSetMotionMode@@YAPAU_object@@PAU1@0@Z
	DD	01H
	ORG $+4
	DD	FLAT:??_C@_0O@LMHNCNAM@SetLoopMotion@
	DD	FLAT:?chrSetLoopMotion@@YAPAU_object@@PAU1@0@Z
	DD	01H
	ORG $+4
	DD	FLAT:??_C@_0BA@JHKNHNFN@BlendLoopMotion@
	DD	FLAT:?chrBlendLoopMotion@@YAPAU_object@@PAU1@0@Z
	DD	01H
	ORG $+4
	DD	FLAT:??_C@_0P@LIJFJIGO@PushOnceMotion@
	DD	FLAT:?chrPushOnceMotion@@YAPAU_object@@PAU1@0@Z
	DD	01H
	ORG $+4
	DD	FLAT:??_C@_0P@BMNKFJAK@PushLoopMotion@
	DD	FLAT:?chrPushLoopMotion@@YAPAU_object@@PAU1@0@Z
	DD	01H
	ORG $+4
	DD	FLAT:??_C@_0BB@JJOEJJPB@GetPixelPosition@
	DD	FLAT:?chrGetPixelPosition@@YAPAU_object@@PAU1@0@Z
	DD	01H
	ORG $+4
	DD	FLAT:??_C@_0M@GNIHGJGG@SetRotation@
	DD	FLAT:?chrSetRotation@@YAPAU_object@@PAU1@0@Z
	DD	01H
	ORG $+4
	DD	FLAT:??_C@_0P@CAJEFICF@SetRotationAll@
	DD	FLAT:?chrSetRotationAll@@YAPAU_object@@PAU1@0@Z
	DD	01H
	ORG $+4
	DD	FLAT:??_C@_0O@MOMBDHP@BlendRotation@
	DD	FLAT:?chrBlendRotation@@YAPAU_object@@PAU1@0@Z
	DD	01H
	ORG $+4
	DD	FLAT:??_C@_0M@GCJJLPOF@GetRotation@
	DD	FLAT:?chrGetRotation@@YAPAU_object@@PAU1@0@Z
	DD	01H
	ORG $+4
	DD	FLAT:??_C@_07GDOKCBKB@GetRace@
	DD	FLAT:?chrGetRace@@YAPAU_object@@PAU1@0@Z
	DD	01H
	ORG $+4
	DD	FLAT:??_C@_07MMGEHGCI@GetName@
	DD	FLAT:?chrGetName@@YAPAU_object@@PAU1@0@Z
	DD	01H
	ORG $+4
	DD	FLAT:??_C@_0N@CEBOCFNC@GetNameByVID@
	DD	FLAT:?chrGetNameByVID@@YAPAU_object@@PAU1@0@Z
	DD	01H
	ORG $+4
	DD	FLAT:??_C@_0L@EAKBLDCO@GetGuildID@
	DD	FLAT:?chrGetGuildID@@YAPAU_object@@PAU1@0@Z
	DD	01H
	ORG $+4
	DD	FLAT:??_C@_0BD@EDCEKIDC@GetProjectPosition@
	DD	FLAT:?chrGetProjectPosition@@YAPAU_object@@PAU1@0@Z
	DD	01H
	ORG $+4
	DD	FLAT:??_C@_0BB@GEKGPEHG@GetVirtualNumber@
	DD	FLAT:?chrGetVirtualNumber@@YAPAU_object@@PAU1@0@Z
	DD	01H
	ORG $+4
	DD	FLAT:??_C@_0BA@NKGBNGAG@GetInstanceType@
	DD	FLAT:?chrGetInstanceType@@YAPAU_object@@PAU1@0@Z
	DD	01H
	ORG $+4
	DD	FLAT:??_C@_0BC@NEGEPOJK@GetBoundBoxOnlyXY@
	DD	FLAT:?chrGetBoundBoxOnlyXY@@YAPAU_object@@PAU1@0@Z
	DD	01H
	ORG $+4
	DD	FLAT:??_C@_09BPCAHBN@RaceToJob@
	DD	FLAT:?chrRaceToJob@@YAPAU_object@@PAU1@0@Z
	DD	01H
	ORG $+4
	DD	FLAT:??_C@_09JBFJGAAF@RaceToSex@
	DD	FLAT:?chrRaceToSex@@YAPAU_object@@PAU1@0@Z
	DD	01H
	ORG $+4
	DD	FLAT:??_C@_0O@NGEBABJL@testGetPKData@
	DD	FLAT:?chrtestGetPKData@@YAPAU_object@@PAU1@0@Z
	DD	01H
	ORG $+4
	DD	FLAT:??_C@_09JMNILCLH@FaintTest@
	DD	FLAT:?chrFaintTest@@YAPAU_object@@PAU1@0@Z
	DD	01H
	ORG $+4
	DD	FLAT:??_C@_0N@NBFDNLFE@SetMoveSpeed@
	DD	FLAT:?chrSetMoveSpeed@@YAPAU_object@@PAU1@0@Z
	DD	01H
	ORG $+4
	DD	FLAT:??_C@_0P@HDBEGKGG@SetAttackSpeed@
	DD	FLAT:?chrSetAttackSpeed@@YAPAU_object@@PAU1@0@Z
	DD	01H
	ORG $+4
	DD	FLAT:??_C@_0BG@IFMOLBHG@WeaponTraceSetTexture@
	DD	FLAT:?chrWeaponTraceSetTexture@@YAPAU_object@@PAU1@0@Z
	DD	01H
	ORG $+4
	DD	FLAT:??_C@_0BE@EGNCJJPB@WeaponTraceUseAlpha@
	DD	FLAT:?chrWeaponTraceUseAlpha@@YAPAU_object@@PAU1@0@Z
	DD	01H
	ORG $+4
	DD	FLAT:??_C@_0BG@PMHANMKI@WeaponTraceUseTexture@
	DD	FLAT:?chrWeaponTraceUseTexture@@YAPAU_object@@PAU1@0@Z
	DD	01H
	ORG $+4
	DD	FLAT:??_C@_0BD@DOJIBHBJ@MoveToDestPosition@
	DD	FLAT:?chrMoveToDestPosition@@YAPAU_object@@PAU1@0@Z
	DD	01H
	ORG $+4
	DD	FLAT:??_C@_0BB@DPBIMGC@testSetComboType@
	DD	FLAT:?chrtestSetComboType@@YAPAU_object@@PAU1@0@Z
	DD	01H
	ORG $+4
	DD	FLAT:??_C@_0BF@KKAOKOCP@testSetAddRenderMode@
	DD	FLAT:?chrtestSetAddRenderMode@@YAPAU_object@@PAU1@0@Z
	DD	01H
	ORG $+4
	DD	FLAT:??_C@_0BK@MMJPLJAB@testSetModulateRenderMode@
	DD	FLAT:?chrtestSetModulateRenderMode@@YAPAU_object@@PAU1@0@Z
	DD	01H
	ORG $+4
	DD	FLAT:??_C@_0BI@DCLDMMPM@testSetAddRenderModeRGB@
	DD	FLAT:?chrtestSetAddRenderModeRGB@@YAPAU_object@@PAU1@0@Z
	DD	01H
	ORG $+4
	DD	FLAT:??_C@_0BN@ICOLIADE@testSetModulateRenderModeRGB@
	DD	FLAT:?chrtestSetModulateRenderModeRGB@@YAPAU_object@@PAU1@0@Z
	DD	01H
	ORG $+4
	DD	FLAT:??_C@_0BK@PFCOBJBF@testSetSpecularRenderMode@
	DD	FLAT:?chrtestSetSpecularRenderMode@@YAPAU_object@@PAU1@0@Z
	DD	01H
	ORG $+4
	DD	FLAT:??_C@_0BL@IAFIJOID@testSetSpecularRenderMode2@
	DD	FLAT:?chrtestSetSpecularRenderMode2@@YAPAU_object@@PAU1@0@Z
	DD	01H
	ORG $+4
	DD	FLAT:??_C@_0BG@PPLDMJLI@testRestoreRenderMode@
	DD	FLAT:?chrtestRestoreRenderMode@@YAPAU_object@@PAU1@0@Z
	DD	01H
	ORG $+4
	DD	FLAT:??_C@_0P@OHFCMBLI@testSetRideMan@
	DD	FLAT:?chrtestSetRideMan@@YAPAU_object@@PAU1@0@Z
	DD	01H
	ORG $+4
	DD	FLAT:??_C@_07EBKOKPMC@GetHair@
	DD	FLAT:?chrGetHair@@YAPAU_object@@PAU1@0@Z
	DD	01H
	ORG $+4
	DD	FLAT:??_C@_09GEPJFMPK@IsPremium@
	DD	FLAT:?chrIsPremium@@YAPAU_object@@PAU1@0@Z
	DD	01H
	ORG $+4
	DD	FLAT:??_C@_07BKKIDPKJ@SetAura@
	DD	FLAT:?chrSetAura@@YAPAU_object@@PAU1@0@Z
	DD	01H
	ORG $+4
	DD	00H
	DD	00H
	DD	00H
	ORG $+4
_DATA	ENDS
;	COMDAT ??_C@_0BF@GDKGBAIB@PET_SKILL_AFFECT_MAX@
CONST	SEGMENT
??_C@_0BF@GDKGBAIB@PET_SKILL_AFFECT_MAX@ DB 'PET_SKILL_AFFECT_MAX', 00H ; `string'
CONST	ENDS
;	COMDAT ??_C@_0BC@GKKKLICJ@PET_SKILL_FEATHER@
CONST	SEGMENT
??_C@_0BC@GKKKLICJ@PET_SKILL_FEATHER@ DB 'PET_SKILL_FEATHER', 00H ; `string'
CONST	ENDS
;	COMDAT ??_C@_0BF@HNDMCKJJ@PET_SKILL_AFFECT_EXP@
CONST	SEGMENT
??_C@_0BF@HNDMCKJJ@PET_SKILL_AFFECT_EXP@ DB 'PET_SKILL_AFFECT_EXP', 00H ; `string'
CONST	ENDS
;	COMDAT ??_C@_0BF@CDFLBDOA@PET_SKILL_HP_RECOVER@
CONST	SEGMENT
??_C@_0BF@CDFLBDOA@PET_SKILL_HP_RECOVER@ DB 'PET_SKILL_HP_RECOVER', 00H ; `string'
CONST	ENDS
;	COMDAT ??_C@_0BL@HPKAKFEN@PET_SKILL_AFFECT_MOB_BONUS@
CONST	SEGMENT
??_C@_0BL@HPKAKFEN@PET_SKILL_AFFECT_MOB_BONUS@ DB 'PET_SKILL_AFFECT_MOB_B'
	DB	'ONUS', 00H					; `string'
CONST	ENDS
;	COMDAT ??_C@_0BI@JPFDKLOG@PET_SKILL_AFFECT_POTION@
CONST	SEGMENT
??_C@_0BI@JPFDKLOG@PET_SKILL_AFFECT_POTION@ DB 'PET_SKILL_AFFECT_POTION', 00H ; `string'
CONST	ENDS
;	COMDAT ??_C@_0BJ@HOLLLFAH@PET_SKILL_AFFECT_REMOVAL@
CONST	SEGMENT
??_C@_0BJ@HOLLLFAH@PET_SKILL_AFFECT_REMOVAL@ DB 'PET_SKILL_AFFECT_REMOVAL'
	DB	00H						; `string'
CONST	ENDS
;	COMDAT ??_C@_0BP@NIDNBKAK@PET_SKILL_AFFECT_INVINCIBILITY@
CONST	SEGMENT
??_C@_0BP@NIDNBKAK@PET_SKILL_AFFECT_INVINCIBILITY@ DB 'PET_SKILL_AFFECT_I'
	DB	'NVINCIBILITY', 00H				; `string'
CONST	ENDS
;	COMDAT ??_C@_0BO@GDCMHFIH@PET_SKILL_AFFECT_BOW_DISTANCE@
CONST	SEGMENT
??_C@_0BO@GDCMHFIH@PET_SKILL_AFFECT_BOW_DISTANCE@ DB 'PET_SKILL_AFFECT_BO'
	DB	'W_DISTANCE', 00H				; `string'
CONST	ENDS
;	COMDAT ??_C@_0BL@PABKFCJE@PET_SKILL_AFFECT_GOLD_DROP@
CONST	SEGMENT
??_C@_0BL@PABKFCJE@PET_SKILL_AFFECT_GOLD_DROP@ DB 'PET_SKILL_AFFECT_GOLD_'
	DB	'DROP', 00H					; `string'
CONST	ENDS
;	COMDAT ??_C@_0BP@CIKKIFNK@PET_SKILL_AFFECT_REFLECT_MELEE@
CONST	SEGMENT
??_C@_0BP@CIKKIFNK@PET_SKILL_AFFECT_REFLECT_MELEE@ DB 'PET_SKILL_AFFECT_R'
	DB	'EFLECT_MELEE', 00H				; `string'
CONST	ENDS
;	COMDAT ??_C@_0BH@JKHGGGNN@PET_SKILL_AFFECT_BLOCK@
CONST	SEGMENT
??_C@_0BH@JKHGGGNN@PET_SKILL_AFFECT_BLOCK@ DB 'PET_SKILL_AFFECT_BLOCK', 00H ; `string'
CONST	ENDS
;	COMDAT ??_C@_0BJ@PABCANCN@PET_SKILL_AFFECT_STEALMP@
CONST	SEGMENT
??_C@_0BJ@PABCANCN@PET_SKILL_AFFECT_STEALMP@ DB 'PET_SKILL_AFFECT_STEALMP'
	DB	00H						; `string'
CONST	ENDS
;	COMDAT ??_C@_0BJ@PGNJMPMG@PET_SKILL_AFFECT_STEALHP@
CONST	SEGMENT
??_C@_0BJ@PGNJMPMG@PET_SKILL_AFFECT_STEALHP@ DB 'PET_SKILL_AFFECT_STEALHP'
	DB	00H						; `string'
CONST	ENDS
;	COMDAT ??_C@_0BG@JCGFJFHH@PET_SKILL_AFFECT_HEAL@
CONST	SEGMENT
??_C@_0BG@JCGFJFHH@PET_SKILL_AFFECT_HEAL@ DB 'PET_SKILL_AFFECT_HEAL', 00H ; `string'
CONST	ENDS
;	COMDAT ??_C@_0BO@PCKIHOIK@PET_SKILL_AFFECT_CHOEHOENBIMU@
CONST	SEGMENT
??_C@_0BO@PCKIHOIK@PET_SKILL_AFFECT_CHOEHOENBIMU@ DB 'PET_SKILL_AFFECT_CH'
	DB	'OEHOENBIMU', 00H				; `string'
CONST	ENDS
;	COMDAT ??_C@_0BH@DBAEALCF@PET_SKILL_AFFECT_BANYA@
CONST	SEGMENT
??_C@_0BH@DBAEALCF@PET_SKILL_AFFECT_BANYA@ DB 'PET_SKILL_AFFECT_BANYA', 00H ; `string'
CONST	ENDS
;	COMDAT ??_C@_0BJ@DKPPJMPA@PET_SKILL_AFFECT_PACHEON@
CONST	SEGMENT
??_C@_0BJ@DKPPJMPA@PET_SKILL_AFFECT_PACHEON@ DB 'PET_SKILL_AFFECT_PACHEON'
	DB	00H						; `string'
CONST	ENDS
;	COMDAT ??_C@_0CA@HHKAEHGF@PET_SKILL_AFFECT_JIJOONG_SHAMAN@
CONST	SEGMENT
??_C@_0CA@HHKAEHGF@PET_SKILL_AFFECT_JIJOONG_SHAMAN@ DB 'PET_SKILL_AFFECT_'
	DB	'JIJOONG_SHAMAN', 00H			; `string'
CONST	ENDS
;	COMDAT ??_C@_0CC@HNLEKJAD@PET_SKILL_AFFECT_JIJOONG_ASSASS@
CONST	SEGMENT
??_C@_0CC@HNLEKJAD@PET_SKILL_AFFECT_JIJOONG_ASSASS@ DB 'PET_SKILL_AFFECT_'
	DB	'JIJOONG_ASSASSIN', 00H			; `string'
CONST	ENDS
;	COMDAT ??_C@_0BO@BKIMMML@PET_SKILL_AFFECT_JIJOONG_SURA@
CONST	SEGMENT
??_C@_0BO@BKIMMML@PET_SKILL_AFFECT_JIJOONG_SURA@ DB 'PET_SKILL_AFFECT_JIJ'
	DB	'OONG_SURA', 00H				; `string'
CONST	ENDS
;	COMDAT ??_C@_0CB@HHEHDNB@PET_SKILL_AFFECT_JIJOONG_WARRIO@
CONST	SEGMENT
??_C@_0CB@HHEHDNB@PET_SKILL_AFFECT_JIJOONG_WARRIO@ DB 'PET_SKILL_AFFECT_J'
	DB	'IJOONG_WARRIOR', 00H			; `string'
CONST	ENDS
;	COMDAT ??_C@_0BG@KIAGHMMH@PET_SKILL_AFFECT_NONE@
CONST	SEGMENT
??_C@_0BG@KIAGHMMH@PET_SKILL_AFFECT_NONE@ DB 'PET_SKILL_AFFECT_NONE', 00H ; `string'
CONST	ENDS
;	COMDAT ??_C@_0BI@DDNPJENB@NEW_AFFECT_AUTO_PICK_UP@
CONST	SEGMENT
??_C@_0BI@DDNPJENB@NEW_AFFECT_AUTO_PICK_UP@ DB 'NEW_AFFECT_AUTO_PICK_UP', 00H ; `string'
CONST	ENDS
;	COMDAT ??_C@_0BG@NACAINHC@NEW_AFFECT_DECORATION@
CONST	SEGMENT
??_C@_0BG@NACAINHC@NEW_AFFECT_DECORATION@ DB 'NEW_AFFECT_DECORATION', 00H ; `string'
CONST	ENDS
;	COMDAT ??_C@_0BG@GKGBMDLI@NEW_AFFECT_BLEND_PLUS@
CONST	SEGMENT
??_C@_0BG@GKGBMDLI@NEW_AFFECT_BLEND_PLUS@ DB 'NEW_AFFECT_BLEND_PLUS', 00H ; `string'
CONST	ENDS
;	COMDAT ??_C@_0BF@BPDGEOFA@NEW_AFFECT_MALL_PLUS@
CONST	SEGMENT
??_C@_0BF@BPDGEOFA@NEW_AFFECT_MALL_PLUS@ DB 'NEW_AFFECT_MALL_PLUS', 00H ; `string'
CONST	ENDS
;	COMDAT ??_C@_0BB@JNNPKOLC@NEW_AFFECT_BLEND@
CONST	SEGMENT
??_C@_0BB@JNNPKOLC@NEW_AFFECT_BLEND@ DB 'NEW_AFFECT_BLEND', 00H ; `string'
CONST	ENDS
;	COMDAT ??_C@_0BN@BDKLDBJI@NEW_AFFECT_DRAGON_SOUL_DECK2@
CONST	SEGMENT
??_C@_0BN@BDKLDBJI@NEW_AFFECT_DRAGON_SOUL_DECK2@ DB 'NEW_AFFECT_DRAGON_SO'
	DB	'UL_DECK2', 00H				; `string'
CONST	ENDS
;	COMDAT ??_C@_0BN@DIIGGCFL@NEW_AFFECT_DRAGON_SOUL_DECK1@
CONST	SEGMENT
??_C@_0BN@DIIGGCFL@NEW_AFFECT_DRAGON_SOUL_DECK1@ DB 'NEW_AFFECT_DRAGON_SO'
	DB	'UL_DECK1', 00H				; `string'
CONST	ENDS
;	COMDAT ??_C@_0CB@MMNLNBEI@NEW_AFFECT_DRAGON_SOUL_QUALIFIE@
CONST	SEGMENT
??_C@_0CB@MMNLNBEI@NEW_AFFECT_DRAGON_SOUL_QUALIFIE@ DB 'NEW_AFFECT_DRAGON'
	DB	'_SOUL_QUALIFIED', 00H			; `string'
CONST	ENDS
;	COMDAT ??_C@_0BM@EGHLHBBK@NEW_AFFECT_AUTO_SP_RECOVERY@
CONST	SEGMENT
??_C@_0BM@EGHLHBBK@NEW_AFFECT_AUTO_SP_RECOVERY@ DB 'NEW_AFFECT_AUTO_SP_RE'
	DB	'COVERY', 00H				; `string'
CONST	ENDS
;	COMDAT ??_C@_0BM@DLPBDIOI@NEW_AFFECT_AUTO_HP_RECOVERY@
CONST	SEGMENT
??_C@_0BM@DLPBDIOI@NEW_AFFECT_AUTO_HP_RECOVERY@ DB 'NEW_AFFECT_AUTO_HP_RE'
	DB	'COVERY', 00H				; `string'
CONST	ENDS
;	COMDAT ??_C@_0BG@FPEKGPMD@NEW_AFFECT_GOLD_BONUS@
CONST	SEGMENT
??_C@_0BG@FPEKGPMD@NEW_AFFECT_GOLD_BONUS@ DB 'NEW_AFFECT_GOLD_BONUS', 00H ; `string'
CONST	ENDS
;	COMDAT ??_C@_0BJ@DEPPJPLB@NEW_AFFECT_MARRIAGE_FAST@
CONST	SEGMENT
??_C@_0BJ@DEPPJPLB@NEW_AFFECT_MARRIAGE_FAST@ DB 'NEW_AFFECT_MARRIAGE_FAST'
	DB	00H						; `string'
CONST	ENDS
;	COMDAT ??_C@_0BF@LHIEHLCN@NEW_AFFECT_FISH_MIND@
CONST	SEGMENT
??_C@_0BF@LHIEHLCN@NEW_AFFECT_FISH_MIND@ DB 'NEW_AFFECT_FISH_MIND', 00H ; `string'
CONST	ENDS
;	COMDAT ??_C@_0BE@OGKIHHNM@NEW_AFFECT_AUTOLOOT@
CONST	SEGMENT
??_C@_0BE@OGKIHHNM@NEW_AFFECT_AUTOLOOT@ DB 'NEW_AFFECT_AUTOLOOT', 00H ; `string'
CONST	ENDS
;	COMDAT ??_C@_0BD@OLNAIOLN@NEW_AFFECT_SAFEBOX@
CONST	SEGMENT
??_C@_0BD@OLNAIOLN@NEW_AFFECT_SAFEBOX@ DB 'NEW_AFFECT_SAFEBOX', 00H ; `string'
CONST	ENDS
;	COMDAT ??_C@_0BG@GBJOJDKK@NEW_AFFECT_ITEM_BONUS@
CONST	SEGMENT
??_C@_0BG@GBJOJDKK@NEW_AFFECT_ITEM_BONUS@ DB 'NEW_AFFECT_ITEM_BONUS', 00H ; `string'
CONST	ENDS
;	COMDAT ??_C@_0CI@CIBKFDJK@NEW_AFFECT_EXP_BONUS_EURO_FREE_@
CONST	SEGMENT
??_C@_0CI@CIBKFDJK@NEW_AFFECT_EXP_BONUS_EURO_FREE_@ DB 'NEW_AFFECT_EXP_BO'
	DB	'NUS_EURO_FREE_UNDER_15', 00H		; `string'
CONST	ENDS
;	COMDAT ??_C@_0BP@PLLCKPKL@NEW_AFFECT_EXP_BONUS_EURO_FREE@
CONST	SEGMENT
??_C@_0BP@PLLCKPKL@NEW_AFFECT_EXP_BONUS_EURO_FREE@ DB 'NEW_AFFECT_EXP_BON'
	DB	'US_EURO_FREE', 00H				; `string'
CONST	ENDS
;	COMDAT ??_C@_0BF@IGFBIBCE@NEW_AFFECT_EXP_BONUS@
CONST	SEGMENT
??_C@_0BF@IGFBIBCE@NEW_AFFECT_EXP_BONUS@ DB 'NEW_AFFECT_EXP_BONUS', 00H ; `string'
CONST	ENDS
;	COMDAT ??_C@_0BP@ILCIKFOJ@NEW_AFFECT_SKILL_BOOK_NO_DELAY@
CONST	SEGMENT
??_C@_0BP@ILCIKFOJ@NEW_AFFECT_SKILL_BOOK_NO_DELAY@ DB 'NEW_AFFECT_SKILL_B'
	DB	'OOK_NO_DELAY', 00H				; `string'
CONST	ENDS
;	COMDAT ??_C@_0BM@ELPJNNPH@NEW_AFFECT_SKILL_BOOK_BONUS@
CONST	SEGMENT
??_C@_0BM@ELPJNNPH@NEW_AFFECT_SKILL_BOOK_BONUS@ DB 'NEW_AFFECT_SKILL_BOOK'
	DB	'_BONUS', 00H				; `string'
CONST	ENDS
;	COMDAT ??_C@_0BM@NOKMEHMP@NEW_AFFECT_NO_DEATH_PENALTY@
CONST	SEGMENT
??_C@_0BM@NOKMEHMP@NEW_AFFECT_NO_DEATH_PENALTY@ DB 'NEW_AFFECT_NO_DEATH_P'
	DB	'ENALTY', 00H				; `string'
CONST	ENDS
;	COMDAT ??_C@_0BA@DBLFIOAN@NEW_AFFECT_MALL@
CONST	SEGMENT
??_C@_0BA@DBLFIOAN@NEW_AFFECT_MALL@ DB 'NEW_AFFECT_MALL', 00H ; `string'
CONST	ENDS
;	COMDAT ??_C@_0BF@EICDJDKA@NEW_AFFECT_AUTO_HUNT@
CONST	SEGMENT
??_C@_0BF@EICDJDKA@NEW_AFFECT_AUTO_HUNT@ DB 'NEW_AFFECT_AUTO_HUNT', 00H ; `string'
CONST	ENDS
;	COMDAT ??_C@_0BL@EIEJCOMH@NEW_AFFECT_PREMIUM_ACCOUNT@
CONST	SEGMENT
??_C@_0BL@EIEJCOMH@NEW_AFFECT_PREMIUM_ACCOUNT@ DB 'NEW_AFFECT_PREMIUM_ACC'
	DB	'OUNT', 00H					; `string'
CONST	ENDS
;	COMDAT ??_C@_0BG@MOOJPEIB@NEW_AFFECT_MULTI_FARM@
CONST	SEGMENT
??_C@_0BG@MOOJPEIB@NEW_AFFECT_MULTI_FARM@ DB 'NEW_AFFECT_MULTI_FARM', 00H ; `string'
CONST	ENDS
;	COMDAT ??_C@_0BG@DFBDCPEK@AFFECT_CHINA_FIREWORK@
CONST	SEGMENT
??_C@_0BG@DFBDCPEK@AFFECT_CHINA_FIREWORK@ DB 'AFFECT_CHINA_FIREWORK', 00H ; `string'
CONST	ENDS
;	COMDAT ??_C@_0BI@CFDHLOMB@AFFECT_FALLEN_CHEONGEUN@
CONST	SEGMENT
??_C@_0BI@CFDHLOMB@AFFECT_FALLEN_CHEONGEUN@ DB 'AFFECT_FALLEN_CHEONGEUN', 00H ; `string'
CONST	ENDS
;	COMDAT ??_C@_0O@OJLLDADG@AFFECT_PABEOP@
CONST	SEGMENT
??_C@_0O@OJLLDADG@AFFECT_PABEOP@ DB 'AFFECT_PABEOP', 00H ; `string'
CONST	ENDS
;	COMDAT ??_C@_0BC@HABANGHD@AFFECT_JEUNGRYEOK@
CONST	SEGMENT
??_C@_0BC@HABANGHD@AFFECT_JEUNGRYEOK@ DB 'AFFECT_JEUNGRYEOK', 00H ; `string'
CONST	ENDS
;	COMDAT ??_C@_0P@KPDDCJEK@AFFECT_GICHEON@
CONST	SEGMENT
??_C@_0P@KPDDCJEK@AFFECT_GICHEON@ DB 'AFFECT_GICHEON', 00H ; `string'
CONST	ENDS
;	COMDAT ??_C@_0P@HLONBHGO@AFFECT_MUYEONG@
CONST	SEGMENT
??_C@_0P@HLONBHGO@AFFECT_MUYEONG@ DB 'AFFECT_MUYEONG', 00H ; `string'
CONST	ENDS
;	COMDAT ??_C@_0P@FCGDLODF@AFFECT_HEUKSIN@
CONST	SEGMENT
??_C@_0P@FCGDLODF@AFFECT_HEUKSIN@ DB 'AFFECT_HEUKSIN', 00H ; `string'
CONST	ENDS
;	COMDAT ??_C@_0P@HCCAECCK@AFFECT_KWAESOK@
CONST	SEGMENT
??_C@_0P@HCCAECCK@AFFECT_KWAESOK@ DB 'AFFECT_KWAESOK', 00H ; `string'
CONST	ENDS
;	COMDAT ??_C@_0M@HDMMFOHE@AFFECT_BOHO@
CONST	SEGMENT
??_C@_0M@HDMMFOHE@AFFECT_BOHO@ DB 'AFFECT_BOHO', 00H	; `string'
CONST	ENDS
;	COMDAT ??_C@_0N@BLOPJELK@AFFECT_HOSIN@
CONST	SEGMENT
??_C@_0N@BLOPJELK@AFFECT_HOSIN@ DB 'AFFECT_HOSIN', 00H	; `string'
CONST	ENDS
;	COMDAT ??_C@_0P@NHIEBDHO@AFFECT_JUMAGAP@
CONST	SEGMENT
??_C@_0P@NHIEBDHO@AFFECT_JUMAGAP@ DB 'AFFECT_JUMAGAP', 00H ; `string'
CONST	ENDS
;	COMDAT ??_C@_0O@MEBBDMFP@AFFECT_GONGPO@
CONST	SEGMENT
??_C@_0O@MEBBDMFP@AFFECT_GONGPO@ DB 'AFFECT_GONGPO', 00H ; `string'
CONST	ENDS
;	COMDAT ??_C@_0P@JADECJKN@AFFECT_GWIGEOM@
CONST	SEGMENT
??_C@_0P@JADECJKN@AFFECT_GWIGEOM@ DB 'AFFECT_GWIGEOM', 00H ; `string'
CONST	ENDS
;	COMDAT ??_C@_0BB@NOAECAHF@AFFECT_EUNHYEONG@
CONST	SEGMENT
??_C@_0BB@NOAECAHF@AFFECT_EUNHYEONG@ DB 'AFFECT_EUNHYEONG', 00H ; `string'
CONST	ENDS
;	COMDAT ??_C@_0BC@DNOFICLK@AFFECT_GYEONGGONG@
CONST	SEGMENT
??_C@_0BC@DNOFICLK@AFFECT_GYEONGGONG@ DB 'AFFECT_GYEONGGONG', 00H ; `string'
CONST	ENDS
;	COMDAT ??_C@_0BB@NMEHKBDD@AFFECT_CHEONGEUN@
CONST	SEGMENT
??_C@_0BB@NMEHKBDD@AFFECT_CHEONGEUN@ DB 'AFFECT_CHEONGEUN', 00H ; `string'
CONST	ENDS
;	COMDAT ??_C@_0BC@BPIBLGH@AFFECT_GEOMGYEONG@
CONST	SEGMENT
??_C@_0BC@BPIBLGH@AFFECT_GEOMGYEONG@ DB 'AFFECT_GEOMGYEONG', 00H ; `string'
CONST	ENDS
;	COMDAT ??_C@_0P@PMGJMPLA@AFFECT_JEONGWI@
CONST	SEGMENT
??_C@_0P@PMGJMPLA@AFFECT_JEONGWI@ DB 'AFFECT_JEONGWI', 00H ; `string'
CONST	ENDS
;	COMDAT ??_C@_0BB@HABGKKCK@AFFECT_FISH_MIND@
CONST	SEGMENT
??_C@_0BB@HABGKKCK@AFFECT_FISH_MIND@ DB 'AFFECT_FISH_MIND', 00H ; `string'
CONST	ENDS
;	COMDAT ??_C@_0BI@JFMNFFKJ@AFFECT_ATT_SPEED_POTION@
CONST	SEGMENT
??_C@_0BI@JFMNFFKJ@AFFECT_ATT_SPEED_POTION@ DB 'AFFECT_ATT_SPEED_POTION', 00H ; `string'
CONST	ENDS
;	COMDAT ??_C@_0BI@BEKPJJEK@AFFECT_MOV_SPEED_POTION@
CONST	SEGMENT
??_C@_0BI@BEKPJJEK@AFFECT_MOV_SPEED_POTION@ DB 'AFFECT_MOV_SPEED_POTION', 00H ; `string'
CONST	ENDS
;	COMDAT ??_C@_0M@KELBDBLK@AFFECT_STUN@
CONST	SEGMENT
??_C@_0M@KELBDBLK@AFFECT_STUN@ DB 'AFFECT_STUN', 00H	; `string'
CONST	ENDS
;	COMDAT ??_C@_0M@LLKNMBHE@AFFECT_SLOW@
CONST	SEGMENT
??_C@_0M@LLKNMBHE@AFFECT_SLOW@ DB 'AFFECT_SLOW', 00H	; `string'
CONST	ENDS
;	COMDAT ??_C@_0O@FFCFHML@AFFECT_POISON@
CONST	SEGMENT
??_C@_0O@FFCFHML@AFFECT_POISON@ DB 'AFFECT_POISON', 00H	; `string'
CONST	ENDS
;	COMDAT ??_C@_09EONDIPEL@PART_AURA@
CONST	SEGMENT
??_C@_09EONDIPEL@PART_AURA@ DB 'PART_AURA', 00H		; `string'
CONST	ENDS
;	COMDAT ??_C@_09ECCJILEL@PART_ACCE@
CONST	SEGMENT
??_C@_09ECCJILEL@PART_ACCE@ DB 'PART_ACCE', 00H		; `string'
CONST	ENDS
;	COMDAT ??_C@_09HAMNFDMJ@PART_HEAD@
CONST	SEGMENT
??_C@_09HAMNFDMJ@PART_HEAD@ DB 'PART_HEAD', 00H		; `string'
CONST	ENDS
;	COMDAT ??_C@_0BF@CFBKDGLC@INSTANCE_TYPE_OBJECT@
CONST	SEGMENT
??_C@_0BF@CFBKDGLC@INSTANCE_TYPE_OBJECT@ DB 'INSTANCE_TYPE_OBJECT', 00H ; `string'
CONST	ENDS
;	COMDAT ??_C@_0BH@FNPAMCND@INSTANCE_TYPE_BUILDING@
CONST	SEGMENT
??_C@_0BH@FNPAMCND@INSTANCE_TYPE_BUILDING@ DB 'INSTANCE_TYPE_BUILDING', 00H ; `string'
CONST	ENDS
;	COMDAT ??_C@_0BE@JLNEPCAN@INSTANCE_TYPE_ENEMY@
CONST	SEGMENT
??_C@_0BE@JLNEPCAN@INSTANCE_TYPE_ENEMY@ DB 'INSTANCE_TYPE_ENEMY', 00H ; `string'
CONST	ENDS
;	COMDAT ??_C@_0BC@HPKLHBPD@INSTANCE_TYPE_NPC@
CONST	SEGMENT
??_C@_0BC@HPKLHBPD@INSTANCE_TYPE_NPC@ DB 'INSTANCE_TYPE_NPC', 00H ; `string'
CONST	ENDS
;	COMDAT ??_C@_0BF@LBEOLJOH@INSTANCE_TYPE_PLAYER@
CONST	SEGMENT
??_C@_0BF@LBEOLJOH@INSTANCE_TYPE_PLAYER@ DB 'INSTANCE_TYPE_PLAYER', 00H ; `string'
CONST	ENDS
;	COMDAT ??_C@_0O@EDFBHBFG@DIR_NORTHWEST@
CONST	SEGMENT
??_C@_0O@EDFBHBFG@DIR_NORTHWEST@ DB 'DIR_NORTHWEST', 00H ; `string'
CONST	ENDS
;	COMDAT ??_C@_08HDBMJBEN@DIR_WEST@
CONST	SEGMENT
??_C@_08HDBMJBEN@DIR_WEST@ DB 'DIR_WEST', 00H		; `string'
CONST	ENDS
;	COMDAT ??_C@_0O@JLMEHCBH@DIR_SOUTHWEST@
CONST	SEGMENT
??_C@_0O@JLMEHCBH@DIR_SOUTHWEST@ DB 'DIR_SOUTHWEST', 00H ; `string'
CONST	ENDS
;	COMDAT ??_C@_09MEPEOBNK@DIR_SOUTH@
CONST	SEGMENT
??_C@_09MEPEOBNK@DIR_SOUTH@ DB 'DIR_SOUTH', 00H		; `string'
CONST	ENDS
;	COMDAT ??_C@_0O@OIGCBKC@DIR_SOUTHEAST@
CONST	SEGMENT
??_C@_0O@OIGCBKC@DIR_SOUTHEAST@ DB 'DIR_SOUTHEAST', 00H	; `string'
CONST	ENDS
;	COMDAT ??_C@_08OGFOMCPI@DIR_EAST@
CONST	SEGMENT
??_C@_08OGFOMCPI@DIR_EAST@ DB 'DIR_EAST', 00H		; `string'
CONST	ENDS
;	COMDAT ??_C@_0O@NGBDCCOD@DIR_NORTHEAST@
CONST	SEGMENT
??_C@_0O@NGBDCCOD@DIR_NORTHEAST@ DB 'DIR_NORTHEAST', 00H ; `string'
CONST	ENDS
;	COMDAT ??_C@_09OGGLMICG@DIR_NORTH@
CONST	SEGMENT
??_C@_09OGGLMICG@DIR_NORTH@ DB 'DIR_NORTH', 00H		; `string'
CONST	ENDS
;	COMDAT ??_C@_0BK@EFEKGCKJ@MOTION_MODE_WEDDING_DRESS@
CONST	SEGMENT
??_C@_0BK@EFEKGCKJ@MOTION_MODE_WEDDING_DRESS@ DB 'MOTION_MODE_WEDDING_DRE'
	DB	'SS', 00H					; `string'
CONST	ENDS
;	COMDAT ??_C@_0BH@IPLLKNDD@MOTION_MODE_HORSE_BELL@
CONST	SEGMENT
??_C@_0BH@IPLLKNDD@MOTION_MODE_HORSE_BELL@ DB 'MOTION_MODE_HORSE_BELL', 00H ; `string'
CONST	ENDS
;	COMDAT ??_C@_0BG@BLAEJMGO@MOTION_MODE_HORSE_FAN@
CONST	SEGMENT
??_C@_0BG@BLAEJMGO@MOTION_MODE_HORSE_FAN@ DB 'MOTION_MODE_HORSE_FAN', 00H ; `string'
CONST	ENDS
;	COMDAT ??_C@_0BG@FPIIPCL@MOTION_MODE_HORSE_BOW@
CONST	SEGMENT
??_C@_0BG@FPIIPCL@MOTION_MODE_HORSE_BOW@ DB 'MOTION_MODE_HORSE_BOW', 00H ; `string'
CONST	ENDS
;	COMDAT ??_C@_0CB@CLBDMMFE@MOTION_MODE_HORSE_DUALHAND_SWOR@
CONST	SEGMENT
??_C@_0CB@CLBDMMFE@MOTION_MODE_HORSE_DUALHAND_SWOR@ DB 'MOTION_MODE_HORSE'
	DB	'_DUALHAND_SWORD', 00H			; `string'
CONST	ENDS
;	COMDAT ??_C@_0CA@EBBNMGFA@MOTION_MODE_HORSE_TWOHAND_SWORD@
CONST	SEGMENT
??_C@_0CA@EBBNMGFA@MOTION_MODE_HORSE_TWOHAND_SWORD@ DB 'MOTION_MODE_HORSE'
	DB	'_TWOHAND_SWORD', 00H			; `string'
CONST	ENDS
;	COMDAT ??_C@_0CA@LBDCIFIC@MOTION_MODE_HORSE_ONEHAND_SWORD@
CONST	SEGMENT
??_C@_0CA@LBDCIFIC@MOTION_MODE_HORSE_ONEHAND_SWORD@ DB 'MOTION_MODE_HORSE'
	DB	'_ONEHAND_SWORD', 00H			; `string'
CONST	ENDS
;	COMDAT ??_C@_0BC@KOFIOII@MOTION_MODE_HORSE@
CONST	SEGMENT
??_C@_0BC@KOFIOII@MOTION_MODE_HORSE@ DB 'MOTION_MODE_HORSE', 00H ; `string'
CONST	ENDS
;	COMDAT ??_C@_0BE@NMIGCCAP@MOTION_MODE_FISHING@
CONST	SEGMENT
??_C@_0BE@NMIGCCAP@MOTION_MODE_FISHING@ DB 'MOTION_MODE_FISHING', 00H ; `string'
CONST	ENDS
;	COMDAT ??_C@_0BB@BNHJGCLA@MOTION_MODE_BELL@
CONST	SEGMENT
??_C@_0BB@BNHJGCLA@MOTION_MODE_BELL@ DB 'MOTION_MODE_BELL', 00H ; `string'
CONST	ENDS
;	COMDAT ??_C@_0BA@LEFIEKC@MOTION_MODE_FAN@
CONST	SEGMENT
??_C@_0BA@LEFIEKC@MOTION_MODE_FAN@ DB 'MOTION_MODE_FAN', 00H ; `string'
CONST	ENDS
;	COMDAT ??_C@_0BA@BFLJJHOH@MOTION_MODE_BOW@
CONST	SEGMENT
??_C@_0BA@BFLJJHOH@MOTION_MODE_BOW@ DB 'MOTION_MODE_BOW', 00H ; `string'
CONST	ENDS
;	COMDAT ??_C@_0BL@BILJFJA@MOTION_MODE_DUALHAND_SWORD@
CONST	SEGMENT
??_C@_0BL@BILJFJA@MOTION_MODE_DUALHAND_SWORD@ DB 'MOTION_MODE_DUALHAND_SW'
	DB	'ORD', 00H					; `string'
CONST	ENDS
;	COMDAT ??_C@_0BK@LGGPJGKL@MOTION_MODE_TWOHAND_SWORD@
CONST	SEGMENT
??_C@_0BK@LGGPJGKL@MOTION_MODE_TWOHAND_SWORD@ DB 'MOTION_MODE_TWOHAND_SWO'
	DB	'RD', 00H					; `string'
CONST	ENDS
;	COMDAT ??_C@_0BK@EGEANFHJ@MOTION_MODE_ONEHAND_SWORD@
CONST	SEGMENT
??_C@_0BK@EGEANFHJ@MOTION_MODE_ONEHAND_SWORD@ DB 'MOTION_MODE_ONEHAND_SWO'
	DB	'RD', 00H					; `string'
CONST	ENDS
;	COMDAT ??_C@_0BE@PPOENDHJ@MOTION_MODE_GENERAL@
CONST	SEGMENT
??_C@_0BE@PPOENDHJ@MOTION_MODE_GENERAL@ DB 'MOTION_MODE_GENERAL', 00H ; `string'
CONST	ENDS
;	COMDAT ??_C@_0BF@JPHCAJND@MOTION_MODE_RESERVED@
CONST	SEGMENT
??_C@_0BF@JPHCAJND@MOTION_MODE_RESERVED@ DB 'MOTION_MODE_RESERVED', 00H ; `string'
CONST	ENDS
;	COMDAT ??_C@_0L@BGCOBJBL@MOTION_DIG@
CONST	SEGMENT
??_C@_0L@BGCOBJBL@MOTION_DIG@ DB 'MOTION_DIG', 00H	; `string'
CONST	ENDS
;	COMDAT ??_C@_0BN@GMLLPEOH@MOTION_SLAP_HURT_WITH_SHAMAN@
CONST	SEGMENT
??_C@_0BN@GMLLPEOH@MOTION_SLAP_HURT_WITH_SHAMAN@ DB 'MOTION_SLAP_HURT_WIT'
	DB	'H_SHAMAN', 00H				; `string'
CONST	ENDS
;	COMDAT ??_C@_0BL@MNIFOENP@MOTION_SLAP_HURT_WITH_SURA@
CONST	SEGMENT
??_C@_0BL@MNIFOENP@MOTION_SLAP_HURT_WITH_SURA@ DB 'MOTION_SLAP_HURT_WITH_'
	DB	'SURA', 00H					; `string'
CONST	ENDS
;	COMDAT ??_C@_0BP@CGGJKKOH@MOTION_SLAP_HURT_WITH_ASSASSIN@
CONST	SEGMENT
??_C@_0BP@CGGJKKOH@MOTION_SLAP_HURT_WITH_ASSASSIN@ DB 'MOTION_SLAP_HURT_W'
	DB	'ITH_ASSASSIN', 00H				; `string'
CONST	ENDS
;	COMDAT ??_C@_0BO@ENJIKGO@MOTION_SLAP_HURT_WITH_WARRIOR@
CONST	SEGMENT
??_C@_0BO@ENJIKGO@MOTION_SLAP_HURT_WITH_WARRIOR@ DB 'MOTION_SLAP_HURT_WIT'
	DB	'H_WARRIOR', 00H				; `string'
CONST	ENDS
;	COMDAT ??_C@_0BM@EBDKBOAP@MOTION_SLAP_HIT_WITH_SHAMAN@
CONST	SEGMENT
??_C@_0BM@EBDKBOAP@MOTION_SLAP_HIT_WITH_SHAMAN@ DB 'MOTION_SLAP_HIT_WITH_'
	DB	'SHAMAN', 00H				; `string'
CONST	ENDS
;	COMDAT ??_C@_0BK@BLGFNMMI@MOTION_SLAP_HIT_WITH_SURA@
CONST	SEGMENT
??_C@_0BK@BLGFNMMI@MOTION_SLAP_HIT_WITH_SURA@ DB 'MOTION_SLAP_HIT_WITH_SU'
	DB	'RA', 00H					; `string'
CONST	ENDS
;	COMDAT ??_C@_0BO@PABBPFOE@MOTION_SLAP_HIT_WITH_ASSASSIN@
CONST	SEGMENT
??_C@_0BO@PABBPFOE@MOTION_SLAP_HIT_WITH_ASSASSIN@ DB 'MOTION_SLAP_HIT_WIT'
	DB	'H_ASSASSIN', 00H				; `string'
CONST	ENDS
;	COMDAT ??_C@_0BN@KKCFGBMO@MOTION_SLAP_HIT_WITH_WARRIOR@
CONST	SEGMENT
??_C@_0BN@KKCFGBMO@MOTION_SLAP_HIT_WITH_WARRIOR@ DB 'MOTION_SLAP_HIT_WITH'
	DB	'_WARRIOR', 00H				; `string'
CONST	ENDS
;	COMDAT ??_C@_0BP@FPOIMINN@MOTION_FRENCH_KISS_WITH_SHAMAN@
CONST	SEGMENT
??_C@_0BP@FPOIMINN@MOTION_FRENCH_KISS_WITH_SHAMAN@ DB 'MOTION_FRENCH_KISS'
	DB	'_WITH_SHAMAN', 00H				; `string'
CONST	ENDS
;	COMDAT ??_C@_0BN@OJCLLFKP@MOTION_FRENCH_KISS_WITH_SURA@
CONST	SEGMENT
??_C@_0BN@OJCLLFKP@MOTION_FRENCH_KISS_WITH_SURA@ DB 'MOTION_FRENCH_KISS_W'
	DB	'ITH_SURA', 00H				; `string'
CONST	ENDS
;	COMDAT ??_C@_0CB@CMKPDLEK@MOTION_FRENCH_KISS_WITH_ASSASSI@
CONST	SEGMENT
??_C@_0CB@CMKPDLEK@MOTION_FRENCH_KISS_WITH_ASSASSI@ DB 'MOTION_FRENCH_KIS'
	DB	'S_WITH_ASSASSIN', 00H			; `string'
CONST	ENDS
;	COMDAT ??_C@_0CA@MCOGAAOA@MOTION_FRENCH_KISS_WITH_WARRIOR@
CONST	SEGMENT
??_C@_0CA@MCOGAAOA@MOTION_FRENCH_KISS_WITH_WARRIOR@ DB 'MOTION_FRENCH_KIS'
	DB	'S_WITH_WARRIOR', 00H			; `string'
CONST	ENDS
;	COMDAT ??_C@_0BI@BPAFKDHB@MOTION_KISS_WITH_SHAMAN@
CONST	SEGMENT
??_C@_0BI@BPAFKDHB@MOTION_KISS_WITH_SHAMAN@ DB 'MOTION_KISS_WITH_SHAMAN', 00H ; `string'
CONST	ENDS
;	COMDAT ??_C@_0BG@FBINLMID@MOTION_KISS_WITH_SURA@
CONST	SEGMENT
??_C@_0BG@FBINLMID@MOTION_KISS_WITH_SURA@ DB 'MOTION_KISS_WITH_SURA', 00H ; `string'
CONST	ENDS
;	COMDAT ??_C@_0BK@PEHNDAJC@MOTION_KISS_WITH_ASSASSIN@
CONST	SEGMENT
??_C@_0BK@PEHNDAJC@MOTION_KISS_WITH_ASSASSIN@ DB 'MOTION_KISS_WITH_ASSASS'
	DB	'IN', 00H					; `string'
CONST	ENDS
;	COMDAT ??_C@_0BJ@BNMGACEI@MOTION_KISS_WITH_WARRIOR@
CONST	SEGMENT
??_C@_0BJ@BNMGACEI@MOTION_KISS_WITH_WARRIOR@ DB 'MOTION_KISS_WITH_WARRIOR'
	DB	00H						; `string'
CONST	ENDS
;	COMDAT ??_C@_0BA@GFFAIGAB@MOTION_CHEERS_2@
CONST	SEGMENT
??_C@_0BA@GFFAIGAB@MOTION_CHEERS_2@ DB 'MOTION_CHEERS_2', 00H ; `string'
CONST	ENDS
;	COMDAT ??_C@_0BA@EOHNNFMC@MOTION_CHEERS_1@
CONST	SEGMENT
??_C@_0BA@EOHNNFMC@MOTION_CHEERS_1@ DB 'MOTION_CHEERS_1', 00H ; `string'
CONST	ENDS
;	COMDAT ??_C@_0L@CGDNCNEF@MOTION_JOY@
CONST	SEGMENT
??_C@_0L@CGDNCNEF@MOTION_JOY@ DB 'MOTION_JOY', 00H	; `string'
CONST	ENDS
;	COMDAT ??_C@_0O@GPIFNFHO@MOTION_BANTER@
CONST	SEGMENT
??_C@_0O@GPIFNFHO@MOTION_BANTER@ DB 'MOTION_BANTER', 00H ; `string'
CONST	ENDS
;	COMDAT ??_C@_0P@KLJNPGKF@MOTION_CHEERUP@
CONST	SEGMENT
??_C@_0P@KLJNPGKF@MOTION_CHEERUP@ DB 'MOTION_CHEERUP', 00H ; `string'
CONST	ENDS
;	COMDAT ??_C@_0L@OGDCDNF@MOTION_SHY@
CONST	SEGMENT
??_C@_0L@OGDCDNF@MOTION_SHY@ DB 'MOTION_SHY', 00H	; `string'
CONST	ENDS
;	COMDAT ??_C@_0L@PONOHEEG@MOTION_SAD@
CONST	SEGMENT
??_C@_0L@PONOHEEG@MOTION_SAD@ DB 'MOTION_SAD', 00H	; `string'
CONST	ENDS
;	COMDAT ??_C@_0BC@MOMKLPKF@MOTION_ATTRACTIVE@
CONST	SEGMENT
??_C@_0BC@MOMKLPKF@MOTION_ATTRACTIVE@ DB 'MOTION_ATTRACTIVE', 00H ; `string'
CONST	ENDS
;	COMDAT ??_C@_0N@CLPBCEBE@MOTION_ANGRY@
CONST	SEGMENT
??_C@_0N@CLPBCEBE@MOTION_ANGRY@ DB 'MOTION_ANGRY', 00H	; `string'
CONST	ENDS
;	COMDAT ??_C@_0P@PACCCPNP@MOTION_FORGIVE@
CONST	SEGMENT
??_C@_0P@PACCCPNP@MOTION_FORGIVE@ DB 'MOTION_FORGIVE', 00H ; `string'
CONST	ENDS
;	COMDAT ??_C@_0BC@FCNAGFFM@MOTION_EMOTION_21@
CONST	SEGMENT
??_C@_0BC@FCNAGFFM@MOTION_EMOTION_21@ DB 'MOTION_EMOTION_21', 00H ; `string'
CONST	ENDS
;	COMDAT ??_C@_0BC@ELMLFEBN@MOTION_EMOTION_20@
CONST	SEGMENT
??_C@_0BC@ELMLFEBN@MOTION_EMOTION_20@ DB 'MOTION_EMOTION_20', 00H ; `string'
CONST	ENDS
;	COMDAT ??_C@_0BC@JIEPFBAN@MOTION_EMOTION_19@
CONST	SEGMENT
??_C@_0BC@JIEPFBAN@MOTION_EMOTION_19@ DB 'MOTION_EMOTION_19', 00H ; `string'
CONST	ENDS
;	COMDAT ??_C@_0BC@IBFEGAEM@MOTION_EMOTION_18@
CONST	SEGMENT
??_C@_0BC@IBFEGAEM@MOTION_EMOTION_18@ DB 'MOTION_EMOTION_18', 00H ; `string'
CONST	ENDS
;	COMDAT ??_C@_0BC@GMMHMID@MOTION_EMOTION_17@
CONST	SEGMENT
??_C@_0BC@GMMHMID@MOTION_EMOTION_17@ DB 'MOTION_EMOTION_17', 00H ; `string'
CONST	ENDS
;	COMDAT ??_C@_0BC@BPNHENMC@MOTION_EMOTION_16@
CONST	SEGMENT
??_C@_0BC@BPNHENMC@MOTION_EMOTION_16@ DB 'MOTION_EMOTION_16', 00H ; `string'
CONST	ENDS
;	COMDAT ??_C@_0BC@DEPKBOAB@MOTION_EMOTION_15@
CONST	SEGMENT
??_C@_0BC@DEPKBOAB@MOTION_EMOTION_15@ DB 'MOTION_EMOTION_15', 00H ; `string'
CONST	ENDS
;	COMDAT ??_C@_0BC@CNOBCPEA@MOTION_EMOTION_14@
CONST	SEGMENT
??_C@_0BC@CNOBCPEA@MOTION_EMOTION_14@ DB 'MOTION_EMOTION_14', 00H ; `string'
CONST	ENDS
;	COMDAT ??_C@_0BC@GCKALJIH@MOTION_EMOTION_13@
CONST	SEGMENT
??_C@_0BC@GCKALJIH@MOTION_EMOTION_13@ DB 'MOTION_EMOTION_13', 00H ; `string'
CONST	ENDS
;	COMDAT ??_C@_0BC@HLLLIIMG@MOTION_EMOTION_12@
CONST	SEGMENT
??_C@_0BC@HLLLIIMG@MOTION_EMOTION_12@ DB 'MOTION_EMOTION_12', 00H ; `string'
CONST	ENDS
;	COMDAT ??_C@_0BC@FAJGNLAF@MOTION_EMOTION_11@
CONST	SEGMENT
??_C@_0BC@FAJGNLAF@MOTION_EMOTION_11@ DB 'MOTION_EMOTION_11', 00H ; `string'
CONST	ENDS
;	COMDAT ??_C@_0BC@EJINOKEE@MOTION_EMOTION_10@
CONST	SEGMENT
??_C@_0BC@EJINOKEE@MOTION_EMOTION_10@ DB 'MOTION_EMOTION_10', 00H ; `string'
CONST	ENDS
;	COMDAT ??_C@_0BB@KKNLDEC@MOTION_EMOTION_9@
CONST	SEGMENT
??_C@_0BB@KKNLDEC@MOTION_EMOTION_9@ DB 'MOTION_EMOTION_9', 00H ; `string'
CONST	ENDS
;	COMDAT ??_C@_0BB@BDLGICAD@MOTION_EMOTION_8@
CONST	SEGMENT
??_C@_0BB@BDLGICAD@MOTION_EMOTION_8@ DB 'MOTION_EMOTION_8', 00H ; `string'
CONST	ENDS
;	COMDAT ??_C@_0BB@JECOJOMM@MOTION_EMOTION_7@
CONST	SEGMENT
??_C@_0BB@JECOJOMM@MOTION_EMOTION_7@ DB 'MOTION_EMOTION_7', 00H ; `string'
CONST	ENDS
;	COMDAT ??_C@_0BB@INDFKPIN@MOTION_EMOTION_6@
CONST	SEGMENT
??_C@_0BB@INDFKPIN@MOTION_EMOTION_6@ DB 'MOTION_EMOTION_6', 00H ; `string'
CONST	ENDS
;	COMDAT ??_C@_0BB@KGBIPMEO@MOTION_EMOTION_5@
CONST	SEGMENT
??_C@_0BB@KGBIPMEO@MOTION_EMOTION_5@ DB 'MOTION_EMOTION_5', 00H ; `string'
CONST	ENDS
;	COMDAT ??_C@_0BB@LPADMNAP@MOTION_EMOTION_4@
CONST	SEGMENT
??_C@_0BB@LPADMNAP@MOTION_EMOTION_4@ DB 'MOTION_EMOTION_4', 00H ; `string'
CONST	ENDS
;	COMDAT ??_C@_0BB@PAECFLMI@MOTION_EMOTION_3@
CONST	SEGMENT
??_C@_0BB@PAECFLMI@MOTION_EMOTION_3@ DB 'MOTION_EMOTION_3', 00H ; `string'
CONST	ENDS
;	COMDAT ??_C@_0BB@OJFJGKIJ@MOTION_EMOTION_2@
CONST	SEGMENT
??_C@_0BB@OJFJGKIJ@MOTION_EMOTION_2@ DB 'MOTION_EMOTION_2', 00H ; `string'
CONST	ENDS
;	COMDAT ??_C@_0BB@MCHEDJEK@MOTION_EMOTION_1@
CONST	SEGMENT
??_C@_0BB@MCHEDJEK@MOTION_EMOTION_1@ DB 'MOTION_EMOTION_1', 00H ; `string'
CONST	ENDS
;	COMDAT ??_C@_0O@KLCMGCPC@MOTION_PUSHUP@
CONST	SEGMENT
??_C@_0O@KLCMGCPC@MOTION_PUSHUP@ DB 'MOTION_PUSHUP', 00H ; `string'
CONST	ENDS
;	COMDAT ??_C@_0BA@HPGCODBP@MOTION_EXERCISE@
CONST	SEGMENT
??_C@_0BA@HPGCODBP@MOTION_EXERCISE@ DB 'MOTION_EXERCISE', 00H ; `string'
CONST	ENDS
;	COMDAT ??_C@_0M@DGOIDDEK@MOTION_DOZE@
CONST	SEGMENT
??_C@_0M@DGOIDDEK@MOTION_DOZE@ DB 'MOTION_DOZE', 00H	; `string'
CONST	ENDS
;	COMDAT ??_C@_0P@DLKCKIJM@MOTION_DANCE_7@
CONST	SEGMENT
??_C@_0P@DLKCKIJM@MOTION_DANCE_7@ DB 'MOTION_DANCE_7', 00H ; `string'
CONST	ENDS
;	COMDAT ??_C@_0O@LJPELBJE@MOTION_SELFIE@
CONST	SEGMENT
??_C@_0O@LJPELBJE@MOTION_SELFIE@ DB 'MOTION_SELFIE', 00H ; `string'
CONST	ENDS
;	COMDAT ??_C@_0BG@BMOIGNKG@MOTION_CONGRATULATION@
CONST	SEGMENT
??_C@_0BG@BMOIGNKG@MOTION_CONGRATULATION@ DB 'MOTION_CONGRATULATION', 00H ; `string'
CONST	ENDS
;	COMDAT ??_C@_0P@CCLJJJNN@MOTION_DANCE_6@
CONST	SEGMENT
??_C@_0P@CCLJJJNN@MOTION_DANCE_6@ DB 'MOTION_DANCE_6', 00H ; `string'
CONST	ENDS
;	COMDAT ??_C@_0P@JJEMKBO@MOTION_DANCE_5@
CONST	SEGMENT
??_C@_0P@JJEMKBO@MOTION_DANCE_5@ DB 'MOTION_DANCE_5', 00H ; `string'
CONST	ENDS
;	COMDAT ??_C@_0P@BAIPPLFP@MOTION_DANCE_4@
CONST	SEGMENT
??_C@_0P@BAIPPLFP@MOTION_DANCE_4@ DB 'MOTION_DANCE_4', 00H ; `string'
CONST	ENDS
;	COMDAT ??_C@_0P@FPMOGNJI@MOTION_DANCE_3@
CONST	SEGMENT
??_C@_0P@FPMOGNJI@MOTION_DANCE_3@ DB 'MOTION_DANCE_3', 00H ; `string'
CONST	ENDS
;	COMDAT ??_C@_0P@EGNFFMNJ@MOTION_DANCE_2@
CONST	SEGMENT
??_C@_0P@EGNFFMNJ@MOTION_DANCE_2@ DB 'MOTION_DANCE_2', 00H ; `string'
CONST	ENDS
;	COMDAT ??_C@_0P@GNPIAPBK@MOTION_DANCE_1@
CONST	SEGMENT
??_C@_0P@GNPIAPBK@MOTION_DANCE_1@ DB 'MOTION_DANCE_1', 00H ; `string'
CONST	ENDS
;	COMDAT ??_C@_0M@LBLLOKDB@MOTION_CLAP@
CONST	SEGMENT
??_C@_0M@LBLLOKDB@MOTION_CLAP@ DB 'MOTION_CLAP', 00H	; `string'
CONST	ENDS
;	COMDAT ??_C@_0N@GMNNBHKJ@MOTION_SKILL@
CONST	SEGMENT
??_C@_0N@GMNNBHKJ@MOTION_SKILL@ DB 'MOTION_SKILL', 00H	; `string'
CONST	ENDS
;	COMDAT ??_C@_0M@EOGICPMJ@MOTION_STOP@
CONST	SEGMENT
??_C@_0M@EOGICPMJ@MOTION_STOP@ DB 'MOTION_STOP', 00H	; `string'
CONST	ENDS
;	COMDAT ??_C@_0BE@BBLMKABM@MOTION_FISHING_FAIL@
CONST	SEGMENT
??_C@_0BE@BBLMKABM@MOTION_FISHING_FAIL@ DB 'MOTION_FISHING_FAIL', 00H ; `string'
CONST	ENDS
;	COMDAT ??_C@_0BF@NFFCHMCO@MOTION_FISHING_CATCH@
CONST	SEGMENT
??_C@_0BF@NFFCHMCO@MOTION_FISHING_CATCH@ DB 'MOTION_FISHING_CATCH', 00H ; `string'
CONST	ENDS
;	COMDAT ??_C@_0BF@GJOIPBCA@MOTION_FISHING_REACT@
CONST	SEGMENT
??_C@_0BF@GJOIPBCA@MOTION_FISHING_REACT@ DB 'MOTION_FISHING_REACT', 00H ; `string'
CONST	ENDS
;	COMDAT ??_C@_0BE@DMIBDOKM@MOTION_FISHING_STOP@
CONST	SEGMENT
??_C@_0BE@DMIBDOKM@MOTION_FISHING_STOP@ DB 'MOTION_FISHING_STOP', 00H ; `string'
CONST	ENDS
;	COMDAT ??_C@_0BE@MOCHIGHH@MOTION_FISHING_WAIT@
CONST	SEGMENT
??_C@_0BE@MOCHIGHH@MOTION_FISHING_WAIT@ DB 'MOTION_FISHING_WAIT', 00H ; `string'
CONST	ENDS
;	COMDAT ??_C@_0BF@CHLKIEFK@MOTION_FISHING_THROW@
CONST	SEGMENT
??_C@_0BF@CHLKIEFK@MOTION_FISHING_THROW@ DB 'MOTION_FISHING_THROW', 00H ; `string'
CONST	ENDS
;	COMDAT ??_C@_0BK@BEALLN@MOTION_INTRO_NOT_SELECTED@
CONST	SEGMENT
??_C@_0BK@BEALLN@MOTION_INTRO_NOT_SELECTED@ DB 'MOTION_INTRO_NOT_SELECTED'
	DB	00H						; `string'
CONST	ENDS
;	COMDAT ??_C@_0BG@KEIOCEDJ@MOTION_INTRO_SELECTED@
CONST	SEGMENT
??_C@_0BG@KEIOCEDJ@MOTION_INTRO_SELECTED@ DB 'MOTION_INTRO_SELECTED', 00H ; `string'
CONST	ENDS
;	COMDAT ??_C@_0BC@KGBJGDBO@MOTION_INTRO_WAIT@
CONST	SEGMENT
??_C@_0BC@KGBJGDBO@MOTION_INTRO_WAIT@ DB 'MOTION_INTRO_WAIT', 00H ; `string'
CONST	ENDS
;	COMDAT ??_C@_0BG@GMCGFPP@MOTION_COMBO_ATTACK_8@
CONST	SEGMENT
??_C@_0BG@GMCGFPP@MOTION_COMBO_ATTACK_8@ DB 'MOTION_COMBO_ATTACK_8', 00H ; `string'
CONST	ENDS
;	COMDAT ??_C@_0BG@IBFKHJDA@MOTION_COMBO_ATTACK_7@
CONST	SEGMENT
??_C@_0BG@IBFKHJDA@MOTION_COMBO_ATTACK_7@ DB 'MOTION_COMBO_ATTACK_7', 00H ; `string'
CONST	ENDS
;	COMDAT ??_C@_0BG@JIEBEIHB@MOTION_COMBO_ATTACK_6@
CONST	SEGMENT
??_C@_0BG@JIEBEIHB@MOTION_COMBO_ATTACK_6@ DB 'MOTION_COMBO_ATTACK_6', 00H ; `string'
CONST	ENDS
;	COMDAT ??_C@_0BG@LDGMBLLC@MOTION_COMBO_ATTACK_5@
CONST	SEGMENT
??_C@_0BG@LDGMBLLC@MOTION_COMBO_ATTACK_5@ DB 'MOTION_COMBO_ATTACK_5', 00H ; `string'
CONST	ENDS
;	COMDAT ??_C@_0BG@KKHHCKPD@MOTION_COMBO_ATTACK_4@
CONST	SEGMENT
??_C@_0BG@KKHHCKPD@MOTION_COMBO_ATTACK_4@ DB 'MOTION_COMBO_ATTACK_4', 00H ; `string'
CONST	ENDS
;	COMDAT ??_C@_0BG@OFDGLMDE@MOTION_COMBO_ATTACK_3@
CONST	SEGMENT
??_C@_0BG@OFDGLMDE@MOTION_COMBO_ATTACK_3@ DB 'MOTION_COMBO_ATTACK_3', 00H ; `string'
CONST	ENDS
;	COMDAT ??_C@_0BG@PMCNINHF@MOTION_COMBO_ATTACK_2@
CONST	SEGMENT
??_C@_0BG@PMCNINHF@MOTION_COMBO_ATTACK_2@ DB 'MOTION_COMBO_ATTACK_2', 00H ; `string'
CONST	ENDS
;	COMDAT ??_C@_0BG@NHAANOLG@MOTION_COMBO_ATTACK_1@
CONST	SEGMENT
??_C@_0BG@NHAANOLG@MOTION_COMBO_ATTACK_1@ DB 'MOTION_COMBO_ATTACK_1', 00H ; `string'
CONST	ENDS
;	COMDAT ??_C@_0BF@PDLLCGCI@MOTION_NORMAL_ATTACK@
CONST	SEGMENT
??_C@_0BF@PDLLCGCI@MOTION_NORMAL_ATTACK@ DB 'MOTION_NORMAL_ATTACK', 00H ; `string'
CONST	ENDS
;	COMDAT ??_C@_0BB@FBKKIAJJ@MOTION_DEAD_BACK@
CONST	SEGMENT
??_C@_0BB@FBKKIAJJ@MOTION_DEAD_BACK@ DB 'MOTION_DEAD_BACK', 00H ; `string'
CONST	ENDS
;	COMDAT ??_C@_0M@FADNKOPO@MOTION_DEAD@
CONST	SEGMENT
??_C@_0M@FADNKOPO@MOTION_DEAD@ DB 'MOTION_DEAD', 00H	; `string'
CONST	ENDS
;	COMDAT ??_C@_0BF@DFDDIGMI@MOTION_STAND_UP_BACK@
CONST	SEGMENT
??_C@_0BF@DFDDIGMI@MOTION_STAND_UP_BACK@ DB 'MOTION_STAND_UP_BACK', 00H ; `string'
CONST	ENDS
;	COMDAT ??_C@_0BK@PDCLNNIP@MOTION_DAMAGE_FLYING_BACK@
CONST	SEGMENT
??_C@_0BK@PDCLNNIP@MOTION_DAMAGE_FLYING_BACK@ DB 'MOTION_DAMAGE_FLYING_BA'
	DB	'CK', 00H					; `string'
CONST	ENDS
;	COMDAT ??_C@_0BD@MNOACOOC@MOTION_DAMAGE_BACK@
CONST	SEGMENT
??_C@_0BD@MNOACOOC@MOTION_DAMAGE_BACK@ DB 'MOTION_DAMAGE_BACK', 00H ; `string'
CONST	ENDS
;	COMDAT ??_C@_0BA@IDCGGFKN@MOTION_STAND_UP@
CONST	SEGMENT
??_C@_0BA@IDCGGFKN@MOTION_STAND_UP@ DB 'MOTION_STAND_UP', 00H ; `string'
CONST	ENDS
;	COMDAT ??_C@_0BF@LNCKFICM@MOTION_DAMAGE_FLYING@
CONST	SEGMENT
??_C@_0BF@LNCKFICM@MOTION_DAMAGE_FLYING@ DB 'MOTION_DAMAGE_FLYING', 00H ; `string'
CONST	ENDS
;	COMDAT ??_C@_0O@CKDFGNMB@MOTION_DAMAGE@
CONST	SEGMENT
??_C@_0O@CKDFGNMB@MOTION_DAMAGE@ DB 'MOTION_DAMAGE', 00H ; `string'
CONST	ENDS
;	COMDAT ??_C@_0BF@ICKHJCNJ@MOTION_CHANGE_WEAPON@
CONST	SEGMENT
??_C@_0BF@ICKHJCNJ@MOTION_CHANGE_WEAPON@ DB 'MOTION_CHANGE_WEAPON', 00H ; `string'
CONST	ENDS
;	COMDAT ??_C@_0L@KHKCPAAF@MOTION_RUN@
CONST	SEGMENT
??_C@_0L@KHKCPAAF@MOTION_RUN@ DB 'MOTION_RUN', 00H	; `string'
CONST	ENDS
;	COMDAT ??_C@_0M@HHFPFLGH@MOTION_WALK@
CONST	SEGMENT
??_C@_0M@HHFPFLGH@MOTION_WALK@ DB 'MOTION_WALK', 00H	; `string'
CONST	ENDS
;	COMDAT ??_C@_0M@LMMOJHBC@MOTION_WAIT@
CONST	SEGMENT
??_C@_0M@LMMOJHBC@MOTION_WAIT@ DB 'MOTION_WAIT', 00H	; `string'
CONST	ENDS
;	COMDAT ??_C@_0N@JMBMLHMG@MOTION_SPAWN@
CONST	SEGMENT
??_C@_0N@JMBMLHMG@MOTION_SPAWN@ DB 'MOTION_SPAWN', 00H	; `string'
CONST	ENDS
;	COMDAT ??_C@_0M@GHHHCAEH@MOTION_NONE@
CONST	SEGMENT
??_C@_0M@GHHHCAEH@MOTION_NONE@ DB 'MOTION_NONE', 00H	; `string'
CONST	ENDS
;	COMDAT ??_C@_0BE@BCBGONIE@PLAYER_NAME_MAX_LEN@
CONST	SEGMENT
??_C@_0BE@BCBGONIE@PLAYER_NAME_MAX_LEN@ DB 'PLAYER_NAME_MAX_LEN', 00H ; `string'
CONST	ENDS
;	COMDAT ??_C@_07BKKIDPKJ@SetAura@
CONST	SEGMENT
??_C@_07BKKIDPKJ@SetAura@ DB 'SetAura', 00H		; `string'
CONST	ENDS
;	COMDAT ??_C@_09GEPJFMPK@IsPremium@
CONST	SEGMENT
??_C@_09GEPJFMPK@IsPremium@ DB 'IsPremium', 00H		; `string'
CONST	ENDS
;	COMDAT ??_C@_07EBKOKPMC@GetHair@
CONST	SEGMENT
??_C@_07EBKOKPMC@GetHair@ DB 'GetHair', 00H		; `string'
CONST	ENDS
;	COMDAT ??_C@_0P@OHFCMBLI@testSetRideMan@
CONST	SEGMENT
??_C@_0P@OHFCMBLI@testSetRideMan@ DB 'testSetRideMan', 00H ; `string'
CONST	ENDS
;	COMDAT ??_C@_0BG@PPLDMJLI@testRestoreRenderMode@
CONST	SEGMENT
??_C@_0BG@PPLDMJLI@testRestoreRenderMode@ DB 'testRestoreRenderMode', 00H ; `string'
CONST	ENDS
;	COMDAT ??_C@_0BL@IAFIJOID@testSetSpecularRenderMode2@
CONST	SEGMENT
??_C@_0BL@IAFIJOID@testSetSpecularRenderMode2@ DB 'testSetSpecularRenderM'
	DB	'ode2', 00H					; `string'
CONST	ENDS
;	COMDAT ??_C@_0BK@PFCOBJBF@testSetSpecularRenderMode@
CONST	SEGMENT
??_C@_0BK@PFCOBJBF@testSetSpecularRenderMode@ DB 'testSetSpecularRenderMo'
	DB	'de', 00H					; `string'
CONST	ENDS
;	COMDAT ??_C@_0BN@ICOLIADE@testSetModulateRenderModeRGB@
CONST	SEGMENT
??_C@_0BN@ICOLIADE@testSetModulateRenderModeRGB@ DB 'testSetModulateRende'
	DB	'rModeRGB', 00H				; `string'
CONST	ENDS
;	COMDAT ??_C@_0BI@DCLDMMPM@testSetAddRenderModeRGB@
CONST	SEGMENT
??_C@_0BI@DCLDMMPM@testSetAddRenderModeRGB@ DB 'testSetAddRenderModeRGB', 00H ; `string'
CONST	ENDS
;	COMDAT ??_C@_0BK@MMJPLJAB@testSetModulateRenderMode@
CONST	SEGMENT
??_C@_0BK@MMJPLJAB@testSetModulateRenderMode@ DB 'testSetModulateRenderMo'
	DB	'de', 00H					; `string'
CONST	ENDS
;	COMDAT ??_C@_0BF@KKAOKOCP@testSetAddRenderMode@
CONST	SEGMENT
??_C@_0BF@KKAOKOCP@testSetAddRenderMode@ DB 'testSetAddRenderMode', 00H ; `string'
CONST	ENDS
;	COMDAT ??_C@_0BB@DPBIMGC@testSetComboType@
CONST	SEGMENT
??_C@_0BB@DPBIMGC@testSetComboType@ DB 'testSetComboType', 00H ; `string'
CONST	ENDS
;	COMDAT ??_C@_0BD@DOJIBHBJ@MoveToDestPosition@
CONST	SEGMENT
??_C@_0BD@DOJIBHBJ@MoveToDestPosition@ DB 'MoveToDestPosition', 00H ; `string'
CONST	ENDS
;	COMDAT ??_C@_0BG@PMHANMKI@WeaponTraceUseTexture@
CONST	SEGMENT
??_C@_0BG@PMHANMKI@WeaponTraceUseTexture@ DB 'WeaponTraceUseTexture', 00H ; `string'
CONST	ENDS
;	COMDAT ??_C@_0BE@EGNCJJPB@WeaponTraceUseAlpha@
CONST	SEGMENT
??_C@_0BE@EGNCJJPB@WeaponTraceUseAlpha@ DB 'WeaponTraceUseAlpha', 00H ; `string'
CONST	ENDS
;	COMDAT ??_C@_0BG@IFMOLBHG@WeaponTraceSetTexture@
CONST	SEGMENT
??_C@_0BG@IFMOLBHG@WeaponTraceSetTexture@ DB 'WeaponTraceSetTexture', 00H ; `string'
CONST	ENDS
;	COMDAT ??_C@_0P@HDBEGKGG@SetAttackSpeed@
CONST	SEGMENT
??_C@_0P@HDBEGKGG@SetAttackSpeed@ DB 'SetAttackSpeed', 00H ; `string'
CONST	ENDS
;	COMDAT ??_C@_0N@NBFDNLFE@SetMoveSpeed@
CONST	SEGMENT
??_C@_0N@NBFDNLFE@SetMoveSpeed@ DB 'SetMoveSpeed', 00H	; `string'
CONST	ENDS
;	COMDAT ??_C@_09JMNILCLH@FaintTest@
CONST	SEGMENT
??_C@_09JMNILCLH@FaintTest@ DB 'FaintTest', 00H		; `string'
CONST	ENDS
;	COMDAT ??_C@_0O@NGEBABJL@testGetPKData@
CONST	SEGMENT
??_C@_0O@NGEBABJL@testGetPKData@ DB 'testGetPKData', 00H ; `string'
CONST	ENDS
;	COMDAT ??_C@_09JBFJGAAF@RaceToSex@
CONST	SEGMENT
??_C@_09JBFJGAAF@RaceToSex@ DB 'RaceToSex', 00H		; `string'
CONST	ENDS
;	COMDAT ??_C@_09BPCAHBN@RaceToJob@
CONST	SEGMENT
??_C@_09BPCAHBN@RaceToJob@ DB 'RaceToJob', 00H		; `string'
CONST	ENDS
;	COMDAT ??_C@_0BC@NEGEPOJK@GetBoundBoxOnlyXY@
CONST	SEGMENT
??_C@_0BC@NEGEPOJK@GetBoundBoxOnlyXY@ DB 'GetBoundBoxOnlyXY', 00H ; `string'
CONST	ENDS
;	COMDAT ??_C@_0BA@NKGBNGAG@GetInstanceType@
CONST	SEGMENT
??_C@_0BA@NKGBNGAG@GetInstanceType@ DB 'GetInstanceType', 00H ; `string'
CONST	ENDS
;	COMDAT ??_C@_0BB@GEKGPEHG@GetVirtualNumber@
CONST	SEGMENT
??_C@_0BB@GEKGPEHG@GetVirtualNumber@ DB 'GetVirtualNumber', 00H ; `string'
CONST	ENDS
;	COMDAT ??_C@_0BD@EDCEKIDC@GetProjectPosition@
CONST	SEGMENT
??_C@_0BD@EDCEKIDC@GetProjectPosition@ DB 'GetProjectPosition', 00H ; `string'
CONST	ENDS
;	COMDAT ??_C@_0L@EAKBLDCO@GetGuildID@
CONST	SEGMENT
??_C@_0L@EAKBLDCO@GetGuildID@ DB 'GetGuildID', 00H	; `string'
CONST	ENDS
;	COMDAT ??_C@_0N@CEBOCFNC@GetNameByVID@
CONST	SEGMENT
??_C@_0N@CEBOCFNC@GetNameByVID@ DB 'GetNameByVID', 00H	; `string'
CONST	ENDS
;	COMDAT ??_C@_07GDOKCBKB@GetRace@
CONST	SEGMENT
??_C@_07GDOKCBKB@GetRace@ DB 'GetRace', 00H		; `string'
CONST	ENDS
;	COMDAT ??_C@_0M@GCJJLPOF@GetRotation@
CONST	SEGMENT
??_C@_0M@GCJJLPOF@GetRotation@ DB 'GetRotation', 00H	; `string'
CONST	ENDS
;	COMDAT ??_C@_0O@MOMBDHP@BlendRotation@
CONST	SEGMENT
??_C@_0O@MOMBDHP@BlendRotation@ DB 'BlendRotation', 00H	; `string'
CONST	ENDS
;	COMDAT ??_C@_0P@CAJEFICF@SetRotationAll@
CONST	SEGMENT
??_C@_0P@CAJEFICF@SetRotationAll@ DB 'SetRotationAll', 00H ; `string'
CONST	ENDS
;	COMDAT ??_C@_0M@GNIHGJGG@SetRotation@
CONST	SEGMENT
??_C@_0M@GNIHGJGG@SetRotation@ DB 'SetRotation', 00H	; `string'
CONST	ENDS
;	COMDAT ??_C@_0BB@JJOEJJPB@GetPixelPosition@
CONST	SEGMENT
??_C@_0BB@JJOEJJPB@GetPixelPosition@ DB 'GetPixelPosition', 00H ; `string'
CONST	ENDS
;	COMDAT ??_C@_0P@BMNKFJAK@PushLoopMotion@
CONST	SEGMENT
??_C@_0P@BMNKFJAK@PushLoopMotion@ DB 'PushLoopMotion', 00H ; `string'
CONST	ENDS
;	COMDAT ??_C@_0P@LIJFJIGO@PushOnceMotion@
CONST	SEGMENT
??_C@_0P@LIJFJIGO@PushOnceMotion@ DB 'PushOnceMotion', 00H ; `string'
CONST	ENDS
;	COMDAT ??_C@_0BA@JHKNHNFN@BlendLoopMotion@
CONST	SEGMENT
??_C@_0BA@JHKNHNFN@BlendLoopMotion@ DB 'BlendLoopMotion', 00H ; `string'
CONST	ENDS
;	COMDAT ??_C@_0O@LMHNCNAM@SetLoopMotion@
CONST	SEGMENT
??_C@_0O@LMHNCNAM@SetLoopMotion@ DB 'SetLoopMotion', 00H ; `string'
CONST	ENDS
;	COMDAT ??_C@_0O@MFBHEMHB@SetMotionMode@
CONST	SEGMENT
??_C@_0O@MFBHEMHB@SetMotionMode@ DB 'SetMotionMode', 00H ; `string'
CONST	ENDS
;	COMDAT ??_C@_06NFNEEJJI@LookAt@
CONST	SEGMENT
??_C@_06NFNEEJJI@LookAt@ DB 'LookAt', 00H		; `string'
CONST	ENDS
;	COMDAT ??_C@_0BD@HHHMIBBD@AttachEffectByName@
CONST	SEGMENT
??_C@_0BD@HHHMIBBD@AttachEffectByName@ DB 'AttachEffectByName', 00H ; `string'
CONST	ENDS
;	COMDAT ??_C@_0BB@NOBBHECI@AttachEffectByID@
CONST	SEGMENT
??_C@_0BB@NOBBHECI@AttachEffectByID@ DB 'AttachEffectByID', 00H ; `string'
CONST	ENDS
;	COMDAT ??_C@_03JFEBIAME@Die@
CONST	SEGMENT
??_C@_03JFEBIAME@Die@ DB 'Die', 00H			; `string'
CONST	ENDS
;	COMDAT ??_C@_06PGKKGABA@Revive@
CONST	SEGMENT
??_C@_06PGKKGABA@Revive@ DB 'Revive', 00H		; `string'
CONST	ENDS
;	COMDAT ??_C@_07POIENIBA@Refresh@
CONST	SEGMENT
??_C@_07POIENIBA@Refresh@ DB 'Refresh', 00H		; `string'
CONST	ENDS
;	COMDAT ??_C@_0N@JGECPEGH@SetDirection@
CONST	SEGMENT
??_C@_0N@JGECPEGH@SetDirection@ DB 'SetDirection', 00H	; `string'
CONST	ENDS
;	COMDAT ??_C@_0BB@PNLNCHED@SetPixelPosition@
CONST	SEGMENT
??_C@_0BB@PNLNCHED@SetPixelPosition@ DB 'SetPixelPosition', 00H ; `string'
CONST	ENDS
;	COMDAT ??_C@_0BA@OIHHKEBP@SetInstanceType@
CONST	SEGMENT
??_C@_0BA@OIHHKEBP@SetInstanceType@ DB 'SetInstanceType', 00H ; `string'
CONST	ENDS
;	COMDAT ??_C@_0O@OBMFICKC@SetNameString@
CONST	SEGMENT
??_C@_0O@OBMFICKC@SetNameString@ DB 'SetNameString', 00H ; `string'
CONST	ENDS
;	COMDAT ??_C@_0N@GNEKMNPE@SetVirtualID@
CONST	SEGMENT
??_C@_0N@GNEKMNPE@SetVirtualID@ DB 'SetVirtualID', 00H	; `string'
CONST	ENDS
;	COMDAT ??_C@_0L@DAKFNGKA@ChangeHair@
CONST	SEGMENT
??_C@_0L@DAKFNGKA@ChangeHair@ DB 'ChangeHair', 00H	; `string'
CONST	ENDS
;	COMDAT ??_C@_07BGFCDLKJ@SetAcce@
CONST	SEGMENT
??_C@_07BGFCDLKJ@SetAcce@ DB 'SetAcce', 00H		; `string'
CONST	ENDS
;	COMDAT ??_C@_07LJFPJABD@SetHair@
CONST	SEGMENT
??_C@_07LJFPJABD@SetHair@ DB 'SetHair', 00H		; `string'
CONST	ENDS
;	COMDAT ??_C@_07JLBLBOHA@SetRace@
CONST	SEGMENT
??_C@_07JLBLBOHA@SetRace@ DB 'SetRace', 00H		; `string'
CONST	ENDS
;	COMDAT ??_C@_0M@GMFNPFHE@ChangeShape@
CONST	SEGMENT
??_C@_0M@GMFNPFHE@ChangeShape@ DB 'ChangeShape', 00H	; `string'
CONST	ENDS
;	COMDAT ??_C@_09LJGLIMMG@SetWeapon@
CONST	SEGMENT
??_C@_09LJGLIMMG@SetWeapon@ DB 'SetWeapon', 00H		; `string'
CONST	ENDS
;	COMDAT ??_C@_08CNNBONE@SetArmor@
CONST	SEGMENT
??_C@_08CNNBONE@SetArmor@ DB 'SetArmor', 00H		; `string'
CONST	ENDS
;	COMDAT ??_C@_07BKHKMIHJ@PickAll@
CONST	SEGMENT
??_C@_07BKHKMIHJ@PickAll@ DB 'PickAll', 00H		; `string'
CONST	ENDS
;	COMDAT ??_C@_04ILHILILF@Pick@
CONST	SEGMENT
??_C@_04ILHILILF@Pick@ DB 'Pick', 00H			; `string'
CONST	ENDS
;	COMDAT ??_C@_04JLAJABDJ@Show@
CONST	SEGMENT
??_C@_04JLAJABDJ@Show@ DB 'Show', 00H			; `string'
CONST	ENDS
;	COMDAT ??_C@_04EACEFPPN@Hide@
CONST	SEGMENT
??_C@_04EACEFPPN@Hide@ DB 'Hide', 00H			; `string'
CONST	ENDS
;	COMDAT ??_C@_08DABDFNEI@Unselect@
CONST	SEGMENT
??_C@_08DABDFNEI@Unselect@ DB 'Unselect', 00H		; `string'
CONST	ENDS
;	COMDAT ??_C@_0BD@GJEGGPMO@SetBlendRenderMode@
CONST	SEGMENT
??_C@_0BD@GJEGGPMO@SetBlendRenderMode@ DB 'SetBlendRenderMode', 00H ; `string'
CONST	ENDS
;	COMDAT ??_C@_0BB@FAHKALE@SetAddRenderMode@
CONST	SEGMENT
??_C@_0BB@FAHKALE@SetAddRenderMode@ DB 'SetAddRenderMode', 00H ; `string'
CONST	ENDS
;	COMDAT ??_C@_06HJGPBJLE@Select@
CONST	SEGMENT
??_C@_06HJGPBJLE@Select@ DB 'Select', 00H		; `string'
CONST	ENDS
;	COMDAT ??_C@_0O@FJCFNEGL@IsPartyMember@
CONST	SEGMENT
??_C@_0O@FJCFNEGL@IsPartyMember@ DB 'IsPartyMember', 00H ; `string'
CONST	ENDS
;	COMDAT ??_C@_0N@ICHIKNBJ@IsGameMaster@
CONST	SEGMENT
??_C@_0N@ICHIKNBJ@IsGameMaster@ DB 'IsGameMaster', 00H	; `string'
CONST	ENDS
;	COMDAT ??_C@_07IMNAMALO@IsMount@
CONST	SEGMENT
??_C@_07IMNAMALO@IsMount@ DB 'IsMount', 00H		; `string'
CONST	ENDS
;	COMDAT ??_C@_05BGFKCFHM@IsPet@
CONST	SEGMENT
??_C@_05BGFKCFHM@IsPet@ DB 'IsPet', 00H			; `string'
CONST	ENDS
;	COMDAT ??_C@_05BEDLICJP@IsNPC@
CONST	SEGMENT
??_C@_05BEDLICJP@IsNPC@ DB 'IsNPC', 00H			; `string'
CONST	ENDS
;	COMDAT ??_C@_07LKBCPMOI@IsEnemy@
CONST	SEGMENT
??_C@_07LKBCPMOI@IsEnemy@ DB 'IsEnemy', 00H		; `string'
CONST	ENDS
;	COMDAT ??_C@_0M@OJLCDJBP@HasInstance@
CONST	SEGMENT
??_C@_0M@OJLCDJBP@HasInstance@ DB 'HasInstance', 00H	; `string'
CONST	ENDS
;	COMDAT ??_C@_0P@HKEJIIJD@SelectInstance@
CONST	SEGMENT
??_C@_0P@HKEJIIJD@SelectInstance@ DB 'SelectInstance', 00H ; `string'
CONST	ENDS
;	COMDAT ??_C@_0BF@EFFECMK@DeleteInstanceByFade@
CONST	SEGMENT
??_C@_0BF@EFFECMK@DeleteInstanceByFade@ DB 'DeleteInstanceByFade', 00H ; `string'
CONST	ENDS
;	COMDAT ??_C@_0P@OKILCDFI@DeleteInstance@
CONST	SEGMENT
??_C@_0P@OKILCDFI@DeleteInstance@ DB 'DeleteInstance', 00H ; `string'
CONST	ENDS
;	COMDAT ??_C@_0P@PGGGILHJ@CreateInstance@
CONST	SEGMENT
??_C@_0P@PGGGILHJ@CreateInstance@ DB 'CreateInstance', 00H ; `string'
CONST	ENDS
;	COMDAT ??_C@_06HIPPCDGO@Deform@
CONST	SEGMENT
??_C@_06HIPPCDGO@Deform@ DB 'Deform', 00H		; `string'
CONST	ENDS
;	COMDAT ??_C@_0L@LJFIMMEM@MountHorse@
CONST	SEGMENT
??_C@_0L@LJFIMMEM@MountHorse@ DB 'MountHorse', 00H	; `string'
CONST	ENDS
;	COMDAT ??_C@_0O@HFPHAOI@DismountHorse@
CONST	SEGMENT
??_C@_0O@HFPHAOI@DismountHorse@ DB 'DismountHorse', 00H	; `string'
CONST	ENDS
;	COMDAT ??_C@_04OHJIHAFH@None@
CONST	SEGMENT
??_C@_04OHJIHAFH@None@ DB 'None', 00H			; `string'
CONST	ENDS
;	COMDAT ??_C@_01EANLCPLP@y@
CONST	SEGMENT
??_C@_01EANLCPLP@y@ DB 'y', 00H				; `string'
CONST	ENDS
;	COMDAT ??_C@_01FJMABOPO@x@
CONST	SEGMENT
??_C@_01FJMABOPO@x@ DB 'x', 00H				; `string'
CONST	ENDS
;	COMDAT ??_C@_05DOPDBCAL@horse@
CONST	SEGMENT
??_C@_05DOPDBCAL@horse@ DB 'horse', 00H			; `string'
CONST	ENDS
;	COMDAT ??_C@_06LJIOOKLP@NONAME@
CONST	SEGMENT
??_C@_06LJIOOKLP@NONAME@ DB 'NONAME', 00H		; `string'
PUBLIC	?fmod@@YAMMM@Z					; fmod
PUBLIC	?initchr@@YAXXZ					; initchr
PUBLIC	?chrSetAura@@YAPAU_object@@PAU1@0@Z		; chrSetAura
PUBLIC	?chrIsPremium@@YAPAU_object@@PAU1@0@Z		; chrIsPremium
PUBLIC	?chrGetHair@@YAPAU_object@@PAU1@0@Z		; chrGetHair
PUBLIC	?chrSetAcce@@YAPAU_object@@PAU1@0@Z		; chrSetAcce
PUBLIC	?chrtestSetRideMan@@YAPAU_object@@PAU1@0@Z	; chrtestSetRideMan
PUBLIC	?chrMoveToDestPosition@@YAPAU_object@@PAU1@0@Z	; chrMoveToDestPosition
PUBLIC	?chrWeaponTraceUseAlpha@@YAPAU_object@@PAU1@0@Z	; chrWeaponTraceUseAlpha
PUBLIC	?chrWeaponTraceUseTexture@@YAPAU_object@@PAU1@0@Z ; chrWeaponTraceUseTexture
PUBLIC	?chrWeaponTraceSetTexture@@YAPAU_object@@PAU1@0@Z ; chrWeaponTraceSetTexture
PUBLIC	?chrSetAttackSpeed@@YAPAU_object@@PAU1@0@Z	; chrSetAttackSpeed
PUBLIC	?chrSetMoveSpeed@@YAPAU_object@@PAU1@0@Z	; chrSetMoveSpeed
PUBLIC	?chrFaintTest@@YAPAU_object@@PAU1@0@Z		; chrFaintTest
PUBLIC	?chrtestRestoreRenderMode@@YAPAU_object@@PAU1@0@Z ; chrtestRestoreRenderMode
PUBLIC	?chrtestSetSpecularRenderMode2@@YAPAU_object@@PAU1@0@Z ; chrtestSetSpecularRenderMode2
PUBLIC	?chrtestSetSpecularRenderMode@@YAPAU_object@@PAU1@0@Z ; chrtestSetSpecularRenderMode
PUBLIC	?chrtestSetModulateRenderModeRGB@@YAPAU_object@@PAU1@0@Z ; chrtestSetModulateRenderModeRGB
PUBLIC	?chrtestSetAddRenderModeRGB@@YAPAU_object@@PAU1@0@Z ; chrtestSetAddRenderModeRGB
PUBLIC	?chrtestSetModulateRenderMode@@YAPAU_object@@PAU1@0@Z ; chrtestSetModulateRenderMode
PUBLIC	?chrtestSetAddRenderMode@@YAPAU_object@@PAU1@0@Z ; chrtestSetAddRenderMode
PUBLIC	?chrtestSetComboType@@YAPAU_object@@PAU1@0@Z	; chrtestSetComboType
PUBLIC	?chrtestGetPKData@@YAPAU_object@@PAU1@0@Z	; chrtestGetPKData
PUBLIC	?chrGetBoundBoxOnlyXY@@YAPAU_object@@PAU1@0@Z	; chrGetBoundBoxOnlyXY
PUBLIC	?chrGetInstanceType@@YAPAU_object@@PAU1@0@Z	; chrGetInstanceType
PUBLIC	?chrGetVirtualNumber@@YAPAU_object@@PAU1@0@Z	; chrGetVirtualNumber
PUBLIC	?chrGetProjectPosition@@YAPAU_object@@PAU1@0@Z	; chrGetProjectPosition
PUBLIC	?chrGetGuildID@@YAPAU_object@@PAU1@0@Z		; chrGetGuildID
PUBLIC	?chrGetNameByVID@@YAPAU_object@@PAU1@0@Z	; chrGetNameByVID
PUBLIC	?chrGetName@@YAPAU_object@@PAU1@0@Z		; chrGetName
PUBLIC	?chrGetRace@@YAPAU_object@@PAU1@0@Z		; chrGetRace
PUBLIC	?chrGetRotation@@YAPAU_object@@PAU1@0@Z		; chrGetRotation
PUBLIC	?chrBlendRotation@@YAPAU_object@@PAU1@0@Z	; chrBlendRotation
PUBLIC	?chrSetRotationAll@@YAPAU_object@@PAU1@0@Z	; chrSetRotationAll
PUBLIC	?chrSetRotation@@YAPAU_object@@PAU1@0@Z		; chrSetRotation
PUBLIC	?chrGetPixelPosition@@YAPAU_object@@PAU1@0@Z	; chrGetPixelPosition
PUBLIC	?chrSetDirection@@YAPAU_object@@PAU1@0@Z	; chrSetDirection
PUBLIC	?chrSetPixelPosition@@YAPAU_object@@PAU1@0@Z	; chrSetPixelPosition
PUBLIC	?chrPushLoopMotion@@YAPAU_object@@PAU1@0@Z	; chrPushLoopMotion
PUBLIC	?chrPushOnceMotion@@YAPAU_object@@PAU1@0@Z	; chrPushOnceMotion
PUBLIC	?chrBlendLoopMotion@@YAPAU_object@@PAU1@0@Z	; chrBlendLoopMotion
PUBLIC	?chrSetLoopMotion@@YAPAU_object@@PAU1@0@Z	; chrSetLoopMotion
PUBLIC	?chrSetMotionMode@@YAPAU_object@@PAU1@0@Z	; chrSetMotionMode
PUBLIC	?chrLookAt@@YAPAU_object@@PAU1@0@Z		; chrLookAt
PUBLIC	?chrDie@@YAPAU_object@@PAU1@0@Z			; chrDie
PUBLIC	?chrRevive@@YAPAU_object@@PAU1@0@Z		; chrRevive
PUBLIC	?chrDismountHorse@@YAPAU_object@@PAU1@0@Z	; chrDismountHorse
PUBLIC	?chrMountHorse@@YAPAU_object@@PAU1@0@Z		; chrMountHorse
PUBLIC	?chrRefresh@@YAPAU_object@@PAU1@0@Z		; chrRefresh
PUBLIC	?chrAttachEffectByID@@YAPAU_object@@PAU1@0@Z	; chrAttachEffectByID
PUBLIC	?chrAttachEffectByName@@YAPAU_object@@PAU1@0@Z	; chrAttachEffectByName
PUBLIC	?chrSetInstanceType@@YAPAU_object@@PAU1@0@Z	; chrSetInstanceType
PUBLIC	?chrSetNameString@@YAPAU_object@@PAU1@0@Z	; chrSetNameString
PUBLIC	?chrSetVirtualID@@YAPAU_object@@PAU1@0@Z	; chrSetVirtualID
PUBLIC	?chrSetWeapon@@YAPAU_object@@PAU1@0@Z		; chrSetWeapon
PUBLIC	?chrChangeShape@@YAPAU_object@@PAU1@0@Z		; chrChangeShape
PUBLIC	?chrSetArmor@@YAPAU_object@@PAU1@0@Z		; chrSetArmor
PUBLIC	?chrChangeHair@@YAPAU_object@@PAU1@0@Z		; chrChangeHair
PUBLIC	?chrSetHair@@YAPAU_object@@PAU1@0@Z		; chrSetHair
PUBLIC	?chrSetRace@@YAPAU_object@@PAU1@0@Z		; chrSetRace
PUBLIC	?chrPickAll@@YAPAU_object@@PAU1@0@Z		; chrPickAll
PUBLIC	?chrShow@@YAPAU_object@@PAU1@0@Z		; chrShow
PUBLIC	?chrHide@@YAPAU_object@@PAU1@0@Z		; chrHide
PUBLIC	?chrPick@@YAPAU_object@@PAU1@0@Z		; chrPick
PUBLIC	?chrUnselect@@YAPAU_object@@PAU1@0@Z		; chrUnselect
PUBLIC	?chrSetBlendRenderMode@@YAPAU_object@@PAU1@0@Z	; chrSetBlendRenderMode
PUBLIC	?chrSetAddRenderMode@@YAPAU_object@@PAU1@0@Z	; chrSetAddRenderMode
PUBLIC	?chrSelect@@YAPAU_object@@PAU1@0@Z		; chrSelect
PUBLIC	?chrIsPartyMember@@YAPAU_object@@PAU1@0@Z	; chrIsPartyMember
PUBLIC	?chrIsGameMaster@@YAPAU_object@@PAU1@0@Z	; chrIsGameMaster
PUBLIC	?chrIsMount@@YAPAU_object@@PAU1@0@Z		; chrIsMount
PUBLIC	?chrIsPet@@YAPAU_object@@PAU1@0@Z		; chrIsPet
PUBLIC	?chrIsNPC@@YAPAU_object@@PAU1@0@Z		; chrIsNPC
PUBLIC	?chrIsEnemy@@YAPAU_object@@PAU1@0@Z		; chrIsEnemy
PUBLIC	?chrHasInstance@@YAPAU_object@@PAU1@0@Z		; chrHasInstance
PUBLIC	?chrSelectInstance@@YAPAU_object@@PAU1@0@Z	; chrSelectInstance
PUBLIC	?chrDeleteInstanceByFade@@YAPAU_object@@PAU1@0@Z ; chrDeleteInstanceByFade
PUBLIC	?chrDeleteInstance@@YAPAU_object@@PAU1@0@Z	; chrDeleteInstance
PUBLIC	?chrCreateInstance@@YAPAU_object@@PAU1@0@Z	; chrCreateInstance
PUBLIC	?chrRenderCollision@@YAPAU_object@@PAU1@0@Z	; chrRenderCollision
PUBLIC	?chrRender@@YAPAU_object@@PAU1@0@Z		; chrRender
PUBLIC	?chrDeform@@YAPAU_object@@PAU1@0@Z		; chrDeform
PUBLIC	?chrUpdate@@YAPAU_object@@PAU1@0@Z		; chrUpdate
PUBLIC	?chrDestroy@@YAPAU_object@@PAU1@0@Z		; chrDestroy
PUBLIC	?chrRaceToSex@@YAPAU_object@@PAU1@0@Z		; chrRaceToSex
PUBLIC	?chrRaceToJob@@YAPAU_object@@PAU1@0@Z		; chrRaceToJob
;	COMDAT xdata$x
xdata$x	SEGMENT
__ehfuncinfo$?chrCreateInstance@@YAPAU_object@@PAU1@0@Z DD 019930522H
	DD	01H
	DD	FLAT:__unwindtable$?chrCreateInstance@@YAPAU_object@@PAU1@0@Z
	DD	2 DUP(00H)
	DD	2 DUP(00H)
	DD	00H
	DD	01H
__unwindtable$?chrCreateInstance@@YAPAU_object@@PAU1@0@Z DD 0ffffffffH
	DD	FLAT:__unwindfunclet$?chrCreateInstance@@YAPAU_object@@PAU1@0@Z$0
xdata$x	ENDS
;	COMDAT xdata$x
xdata$x	SEGMENT
__ehfuncinfo$?chrtestSetRideMan@@YAPAU_object@@PAU1@0@Z DQ 00000000119930522r ; 2.33398e-314
	DD	FLAT:__unwindtable$?chrtestSetRideMan@@YAPAU_object@@PAU1@0@Z
	DQ	00000000000000000r		; 0
	DQ	00000000000000000r		; 0
	DQ	00000000100000000r		; 2.122e-314
__unwindtable$?chrtestSetRideMan@@YAPAU_object@@PAU1@0@Z DD 0ffffffffH
	DD	FLAT:__unwindfunclet$?chrtestSetRideMan@@YAPAU_object@@PAU1@0@Z$0
; Function compile flags: /Ogtp
; File C:\Anka2Project\Anka2Project\Source\Binary\source\UserInterface\PythonCharacterModule.cpp
; File C:\Anka2Project\Anka2Project\Source\Binary\source\UserInterface\InstanceBase.h
; File C:\Anka2Project\Anka2Project\Source\Binary\source\UserInterface\PythonCharacterModule.cpp
;	COMDAT ?chrRaceToJob@@YAPAU_object@@PAU1@0@Z
_TEXT	SEGMENT
_race$ = -4						; size = 4
_poSelf$ = 8						; size = 4
_poArgs$ = 12						; size = 4
?chrRaceToJob@@YAPAU_object@@PAU1@0@Z PROC		; chrRaceToJob, COMDAT

; 10   : {

  00000	55		 push	 ebp
  00001	8b ec		 mov	 ebp, esp
  00003	51		 push	 ecx

; 11   : 	int race;
; 12   : 	if (!PyTuple_GetInteger(poArgs, 0, &race))

  00004	8d 45 fc	 lea	 eax, DWORD PTR _race$[ebp]
  00007	50		 push	 eax
  00008	6a 00		 push	 0
  0000a	ff 75 0c	 push	 DWORD PTR _poArgs$[ebp]
  0000d	e8 00 00 00 00	 call	 ?PyTuple_GetInteger@@YA_NPAU_object@@HPAH@Z ; PyTuple_GetInteger
  00012	83 c4 0c	 add	 esp, 12			; 0000000cH
  00015	84 c0		 test	 al, al
  00017	75 0e		 jne	 SHORT $LN2@chrRaceToJ

; 13   : 		return Py_BuildException();

  00019	6a 00		 push	 0
  0001b	e8 00 00 00 00	 call	 ?Py_BuildException@@YAPAU_object@@PBDZZ ; Py_BuildException
  00020	83 c4 04	 add	 esp, 4

; 16   : }

  00023	8b e5		 mov	 esp, ebp
  00025	5d		 pop	 ebp
  00026	c3		 ret	 0
$LN2@chrRaceToJ:
; File C:\Anka2Project\Anka2Project\Source\Binary\source\UserInterface\InstanceBase.h

; 1425 : 	return race % JOB_NUM;

  00027	8b 45 fc	 mov	 eax, DWORD PTR _race$[ebp]
  0002a	25 03 00 00 80	 and	 eax, -2147483645	; 80000003H
  0002f	79 05		 jns	 SHORT $LN6@chrRaceToJ
  00031	48		 dec	 eax
  00032	83 c8 fc	 or	 eax, -4			; fffffffcH
  00035	40		 inc	 eax
$LN6@chrRaceToJ:
; File C:\Anka2Project\Anka2Project\Source\Binary\source\UserInterface\PythonCharacterModule.cpp

; 15   : 	return Py_BuildValue("i", RaceToJob(race));

  00036	50		 push	 eax
  00037	68 00 00 00 00	 push	 OFFSET ??_C@_01KBJDNOO@i@
  0003c	ff 15 00 00 00
	00		 call	 DWORD PTR __imp__Py_BuildValue
  00042	83 c4 08	 add	 esp, 8

; 16   : }

  00045	8b e5		 mov	 esp, ebp
  00047	5d		 pop	 ebp
  00048	c3		 ret	 0
?chrRaceToJob@@YAPAU_object@@PAU1@0@Z ENDP		; chrRaceToJob
_TEXT	ENDS
; Function compile flags: /Ogtp
; File C:\Anka2Project\Anka2Project\Source\Binary\source\UserInterface\PythonCharacterModule.cpp
; File C:\Anka2Project\Anka2Project\Source\Binary\source\UserInterface\InstanceBase.h
; File C:\Anka2Project\Anka2Project\Source\Binary\source\UserInterface\PythonCharacterModule.cpp
;	COMDAT ?chrRaceToSex@@YAPAU_object@@PAU1@0@Z
_TEXT	SEGMENT
_race$ = -4						; size = 4
_poSelf$ = 8						; size = 4
_poArgs$ = 12						; size = 4
?chrRaceToSex@@YAPAU_object@@PAU1@0@Z PROC		; chrRaceToSex, COMDAT

; 19   : {

  00000	55		 push	 ebp
  00001	8b ec		 mov	 ebp, esp
  00003	51		 push	 ecx

; 20   : 	int race;
; 21   : 	if (!PyTuple_GetInteger(poArgs, 0, &race))

  00004	8d 45 fc	 lea	 eax, DWORD PTR _race$[ebp]
  00007	50		 push	 eax
  00008	6a 00		 push	 0
  0000a	ff 75 0c	 push	 DWORD PTR _poArgs$[ebp]
  0000d	e8 00 00 00 00	 call	 ?PyTuple_GetInteger@@YA_NPAU_object@@HPAH@Z ; PyTuple_GetInteger
  00012	83 c4 0c	 add	 esp, 12			; 0000000cH
  00015	84 c0		 test	 al, al
  00017	75 0e		 jne	 SHORT $LN2@chrRaceToS

; 22   : 		return Py_BuildException();

  00019	6a 00		 push	 0
  0001b	e8 00 00 00 00	 call	 ?Py_BuildException@@YAPAU_object@@PBDZZ ; Py_BuildException
  00020	83 c4 04	 add	 esp, 4

; 25   : }

  00023	8b e5		 mov	 esp, ebp
  00025	5d		 pop	 ebp
  00026	c3		 ret	 0
$LN2@chrRaceToS:
; File C:\Anka2Project\Anka2Project\Source\Binary\source\UserInterface\InstanceBase.h

; 1430 : 	switch (race)

  00027	8b 45 fc	 mov	 eax, DWORD PTR _race$[ebp]
  0002a	83 f8 07	 cmp	 eax, 7
  0002d	77 26		 ja	 SHORT $LN5@chrRaceToS
  0002f	0f b6 80 00 00
	00 00		 movzx	 eax, BYTE PTR $LN16@chrRaceToS[eax]
  00036	ff 24 85 00 00
	00 00		 jmp	 DWORD PTR $LN17@chrRaceToS[eax*4]
$LN7@chrRaceToS:

; 1431 : 	{
; 1432 : 		case 0:
; 1433 : 		case 2:
; 1434 : 		case 5:
; 1435 : 		case 7:
; 1436 : 			return 1;

  0003d	b8 01 00 00 00	 mov	 eax, 1
; File C:\Anka2Project\Anka2Project\Source\Binary\source\UserInterface\PythonCharacterModule.cpp

; 24   : 	return Py_BuildValue("i", RaceToSex(race));

  00042	50		 push	 eax
  00043	68 00 00 00 00	 push	 OFFSET ??_C@_01KBJDNOO@i@
  00048	ff 15 00 00 00
	00		 call	 DWORD PTR __imp__Py_BuildValue
  0004e	83 c4 08	 add	 esp, 8

; 25   : }

  00051	8b e5		 mov	 esp, ebp
  00053	5d		 pop	 ebp
  00054	c3		 ret	 0
$LN5@chrRaceToS:

; 24   : 	return Py_BuildValue("i", RaceToSex(race));

  00055	33 c0		 xor	 eax, eax
  00057	50		 push	 eax
  00058	68 00 00 00 00	 push	 OFFSET ??_C@_01KBJDNOO@i@
  0005d	ff 15 00 00 00
	00		 call	 DWORD PTR __imp__Py_BuildValue
  00063	83 c4 08	 add	 esp, 8

; 25   : }

  00066	8b e5		 mov	 esp, ebp
  00068	5d		 pop	 ebp
  00069	c3		 ret	 0
  0006a	66 90		 npad	 2
$LN17@chrRaceToS:
  0006c	00 00 00 00	 DD	 $LN7@chrRaceToS
  00070	00 00 00 00	 DD	 $LN5@chrRaceToS
$LN16@chrRaceToS:
  00074	00		 DB	 0
  00075	01		 DB	 1
  00076	00		 DB	 0
  00077	01		 DB	 1
  00078	01		 DB	 1
  00079	00		 DB	 0
  0007a	01		 DB	 1
  0007b	00		 DB	 0
?chrRaceToSex@@YAPAU_object@@PAU1@0@Z ENDP		; chrRaceToSex
_TEXT	ENDS
; Function compile flags: /Ogtp
; File C:\Anka2Project\Anka2Project\Source\Binary\source\UserInterface\PythonCharacterModule.cpp
; File C:\Anka2Project\Anka2Project\Source\Binary\source\eterBase\Singleton.h
; File C:\Anka2Project\Anka2Project\Source\Binary\source\UserInterface\PythonCharacterModule.cpp
;	COMDAT ?chrDestroy@@YAPAU_object@@PAU1@0@Z
_TEXT	SEGMENT
_poSelf$ = 8						; size = 4
_poArgs$ = 12						; size = 4
?chrDestroy@@YAPAU_object@@PAU1@0@Z PROC		; chrDestroy, COMDAT
; File C:\Anka2Project\Anka2Project\Source\Binary\source\eterBase\Singleton.h

; 26   : 		assert(ms_singleton);

  00000	8b 0d 00 00 00
	00		 mov	 ecx, DWORD PTR ?ms_singleton@?$CSingleton@VCPythonCharacterManager@@@@0PAVCPythonCharacterManager@@A ; CSingleton<CPythonCharacterManager>::ms_singleton
  00006	85 c9		 test	 ecx, ecx
  00008	75 1a		 jne	 SHORT $LN5@chrDestroy
  0000a	6a 1a		 push	 26			; 0000001aH
  0000c	68 00 00 00 00	 push	 OFFSET ??_C@_1IO@CAJLEEOI@?$AAC?$AA?3?$AA?2?$AAA?$AAn?$AAk?$AAa?$AA2?$AAP?$AAr?$AAo?$AAj?$AAe?$AAc?$AAt@
  00011	68 00 00 00 00	 push	 OFFSET ??_C@_1BK@FMEHPMFE@?$AAm?$AAs?$AA_?$AAs?$AAi?$AAn?$AAg?$AAl?$AAe?$AAt?$AAo?$AAn@
  00016	e8 00 00 00 00	 call	 __wassert
  0001b	8b 0d 00 00 00
	00		 mov	 ecx, DWORD PTR ?ms_singleton@?$CSingleton@VCPythonCharacterManager@@@@0PAVCPythonCharacterManager@@A ; CSingleton<CPythonCharacterManager>::ms_singleton
  00021	83 c4 0c	 add	 esp, 12			; 0000000cH
$LN5@chrDestroy:
; File C:\Anka2Project\Anka2Project\Source\Binary\source\UserInterface\PythonCharacterModule.cpp

; 29   : 	CPythonCharacterManager::Instance().Destroy();

  00024	8b 41 04	 mov	 eax, DWORD PTR [ecx+4]
  00027	83 c1 04	 add	 ecx, 4
  0002a	ff 50 04	 call	 DWORD PTR [eax+4]

; 30   : 	return Py_BuildNone();

  0002d	e9 00 00 00 00	 jmp	 ?Py_BuildNone@@YAPAU_object@@XZ ; Py_BuildNone
?chrDestroy@@YAPAU_object@@PAU1@0@Z ENDP		; chrDestroy
_TEXT	ENDS
; Function compile flags: /Ogtp
; File C:\Anka2Project\Anka2Project\Source\Binary\source\UserInterface\PythonCharacterModule.cpp
; File C:\Program Files\Microsoft Visual Studio\2022\Community\VC\Tools\MSVC\14.44.35207\include\xstring
; File C:\Anka2Project\Anka2Project\Source\Binary\source\UserInterface\PythonCharacterModule.cpp
; File C:\Program Files\Microsoft Visual Studio\2022\Community\VC\Tools\MSVC\14.44.35207\include\__msvc_string_view.hpp
; File C:\Anka2Project\Anka2Project\Source\Binary\source\UserInterface\PythonCharacterModule.cpp
; File C:\Program Files\Microsoft Visual Studio\2022\Community\VC\Tools\MSVC\14.44.35207\include\xstring
; File C:\Anka2Project\Anka2Project\Source\Binary\source\UserInterface\PythonCharacterModule.cpp
; File C:\Anka2Project\Anka2Project\Source\Binary\source\eterBase\Singleton.h
; File C:\Anka2Project\Anka2Project\Source\Binary\source\UserInterface\PythonCharacterModule.cpp
; File C:\Program Files\Microsoft Visual Studio\2022\Community\VC\Tools\MSVC\14.44.35207\include\xstring
; File C:\Anka2Project\Anka2Project\Source\Binary\source\UserInterface\PythonCharacterModule.cpp
; File C:\Program Files\Microsoft Visual Studio\2022\Community\VC\Tools\MSVC\14.44.35207\include\xstring
; File C:\Anka2Project\Anka2Project\Source\Binary\source\UserInterface\PythonCharacterModule.cpp
; File C:\Anka2Project\Anka2Project\Source\Binary\source\eterBase\Singleton.h
; File C:\Anka2Project\Anka2Project\Source\Binary\source\UserInterface\PythonCharacterModule.cpp
;	COMDAT ?chrCreateInstance@@YAPAU_object@@PAU1@0@Z
_TEXT	SEGMENT
_iVirtualID$ = -396					; size = 4
_kCreateData$32 = -392					; size = 364
__$ArrayPad$ = -20					; size = 4
__$EHRec$ = -12						; size = 12
_poSelf$ = 8						; size = 4
_poArgs$ = 12						; size = 4
?chrCreateInstance@@YAPAU_object@@PAU1@0@Z PROC		; chrCreateInstance, COMDAT

; 59   : {

  00000	53		 push	 ebx
  00001	8b dc		 mov	 ebx, esp
  00003	83 ec 08	 sub	 esp, 8
  00006	83 e4 f8	 and	 esp, -8			; fffffff8H
  00009	83 c4 04	 add	 esp, 4
  0000c	55		 push	 ebp
  0000d	8b 6b 04	 mov	 ebp, DWORD PTR [ebx+4]
  00010	89 6c 24 04	 mov	 DWORD PTR [esp+4], ebp
  00014	8b ec		 mov	 ebp, esp
  00016	6a ff		 push	 -1
  00018	68 00 00 00 00	 push	 __ehhandler$?chrCreateInstance@@YAPAU_object@@PAU1@0@Z
  0001d	64 a1 00 00 00
	00		 mov	 eax, DWORD PTR fs:0
  00023	50		 push	 eax
  00024	53		 push	 ebx
  00025	81 ec 80 01 00
	00		 sub	 esp, 384		; 00000180H
  0002b	a1 00 00 00 00	 mov	 eax, DWORD PTR ___security_cookie
  00030	33 c5		 xor	 eax, ebp
  00032	89 45 ec	 mov	 DWORD PTR __$ArrayPad$[ebp], eax
  00035	56		 push	 esi
  00036	57		 push	 edi
  00037	50		 push	 eax
  00038	8d 45 f4	 lea	 eax, DWORD PTR __$EHRec$[ebp]
  0003b	64 a3 00 00 00
	00		 mov	 DWORD PTR fs:0, eax
  00041	8b 73 0c	 mov	 esi, DWORD PTR _poArgs$[ebx]

; 60   : 	int iVirtualID;
; 61   : 	if (!PyTuple_GetInteger(poArgs, 0, &iVirtualID))

  00044	8d 85 74 fe ff
	ff		 lea	 eax, DWORD PTR _iVirtualID$[ebp]
  0004a	50		 push	 eax
  0004b	6a 00		 push	 0
  0004d	56		 push	 esi
  0004e	e8 00 00 00 00	 call	 ?PyTuple_GetInteger@@YA_NPAU_object@@HPAH@Z ; PyTuple_GetInteger
  00053	83 c4 0c	 add	 esp, 12			; 0000000cH
  00056	84 c0		 test	 al, al
  00058	75 0f		 jne	 SHORT $LN2@chrCreateI
$LN174@chrCreateI:

; 122  : }

  0005a	6a 00		 push	 0
  0005c	e8 00 00 00 00	 call	 ?Py_BuildException@@YAPAU_object@@PBDZZ ; Py_BuildException
  00061	83 c4 04	 add	 esp, 4
  00064	e9 fd 01 00 00	 jmp	 $LN1@chrCreateI
$LN2@chrCreateI:

; 62   : 		return Py_BuildException();
; 63   : 
; 64   : 	if (PyTuple_Size(poArgs)==2)

  00069	56		 push	 esi
  0006a	ff 15 00 00 00
	00		 call	 DWORD PTR __imp__PyTuple_Size
  00070	83 c4 04	 add	 esp, 4
  00073	83 f8 02	 cmp	 eax, 2
  00076	0f 85 b6 01 00
	00		 jne	 $LN3@chrCreateI

; 65   : 	{
; 66   : 		PyObject *poDict=PyTuple_GetItem(poArgs, 1);

  0007c	6a 01		 push	 1
  0007e	56		 push	 esi
  0007f	ff 15 00 00 00
	00		 call	 DWORD PTR __imp__PyTuple_GetItem
  00085	8b f0		 mov	 esi, eax
  00087	83 c4 08	 add	 esp, 8

; 67   : 		if (!PyDict_Check(poDict))

  0008a	8b 4e 04	 mov	 ecx, DWORD PTR [esi+4]
  0008d	f7 41 54 00 00
	00 20		 test	 DWORD PTR [ecx+84], 536870912 ; 20000000H
  00094	74 c4		 je	 SHORT $LN174@chrCreateI
  00096	8d 4d bb	 lea	 ecx, DWORD PTR _kCreateData$32[ebp+323]
  00099	e8 00 00 00 00	 call	 ??0CAffectFlagContainer@@QAE@XZ ; CAffectFlagContainer::CAffectFlagContainer
  0009e	0f 57 c0	 xorps	 xmm0, xmm0
; File C:\Program Files\Microsoft Visual Studio\2022\Community\VC\Tools\MSVC\14.44.35207\include\xstring

; 861  :         _My_data._Myres  = _Small_string_capacity;

  000a1	c7 45 d8 0f 00
	00 00		 mov	 DWORD PTR _kCreateData$32[ebp+352], 15 ; 0000000fH

; 493  :         _CONSTEXPR20 _Bxty() noexcept : _Buf() {} // user-provided, for fancy pointers

  000a8	0f 11 45 c4	 movups	 XMMWORD PTR _kCreateData$32[ebp+332], xmm0

; 865  :         _Traits::assign(_My_data._Bx._Buf[0], _Elem());

  000ac	c6 45 c4 00	 mov	 BYTE PTR _kCreateData$32[ebp+332], 0
; File C:\Anka2Project\Anka2Project\Source\Binary\source\UserInterface\PythonCharacterModule.cpp

; 70   : 		CInstanceBase::SCreateData kCreateData;

  000b0	c7 45 fc 00 00
	00 00		 mov	 DWORD PTR __$EHRec$[ebp+8], 0

; 89   : #endif
; 90   : 		kCreateData.m_kAffectFlags.Clear();

  000b7	8d 4d bb	 lea	 ecx, DWORD PTR _kCreateData$32[ebp+323]
  000ba	8b 85 74 fe ff
	ff		 mov	 eax, DWORD PTR _iVirtualID$[ebp]
  000c0	89 85 90 fe ff
	ff		 mov	 DWORD PTR _kCreateData$32[ebp+24], eax
; File C:\Program Files\Microsoft Visual Studio\2022\Community\VC\Tools\MSVC\14.44.35207\include\__msvc_string_view.hpp

; 174  :         _CSTD memmove(_First1, _First2, _Count * sizeof(_Elem));

  000c6	a1 00 00 00 00	 mov	 eax, DWORD PTR ??_C@_06LJIOOKLP@NONAME@
  000cb	89 45 c4	 mov	 DWORD PTR _kCreateData$32[ebp+332], eax
  000ce	66 a1 04 00 00
	00		 mov	 ax, WORD PTR ??_C@_06LJIOOKLP@NONAME@+4
  000d4	66 89 45 c8	 mov	 WORD PTR _kCreateData$32[ebp+336], ax
; File C:\Anka2Project\Anka2Project\Source\Binary\source\UserInterface\PythonCharacterModule.cpp

; 85   : 		kCreateData.m_sAlignment = 0;

  000d8	33 c0		 xor	 eax, eax
  000da	c6 85 78 fe ff
	ff 06		 mov	 BYTE PTR _kCreateData$32[ebp], 6
  000e1	c7 85 88 fe ff
	ff 00 00 00 00	 mov	 DWORD PTR _kCreateData$32[ebp+16], 0
  000eb	c7 85 84 fe ff
	ff 00 00 00 00	 mov	 DWORD PTR _kCreateData$32[ebp+12], 0
  000f5	c7 85 80 fe ff
	ff 00 00 00 00	 mov	 DWORD PTR _kCreateData$32[ebp+8], 0
  000ff	c7 85 c0 fe ff
	ff 00 00 00 00	 mov	 DWORD PTR _kCreateData$32[ebp+72], 0
  00109	c7 85 94 fe ff
	ff 00 00 00 00	 mov	 DWORD PTR _kCreateData$32[ebp+28], 0
  00113	c7 85 a8 fe ff
	ff 00 00 00 00	 mov	 DWORD PTR _kCreateData$32[ebp+48], 0
  0011d	c7 85 a0 fe ff
	ff 00 00 00 00	 mov	 DWORD PTR _kCreateData$32[ebp+40], 0
  00127	c7 85 a4 fe ff
	ff 00 00 00 00	 mov	 DWORD PTR _kCreateData$32[ebp+44], 0
; File C:\Program Files\Microsoft Visual Studio\2022\Community\VC\Tools\MSVC\14.44.35207\include\xstring

; 1621 :             _Mypair._Myval2._Mysize = _Count;

  00131	c7 45 d4 06 00
	00 00		 mov	 DWORD PTR _kCreateData$32[ebp+348], 6

; 1622 :             _Traits::move(_Old_ptr, _Ptr, _Count);
; 1623 :             _Traits::assign(_Old_ptr[_Count], _Elem());

  00138	c6 45 ca 00	 mov	 BYTE PTR _kCreateData$32[ebp+338], 0
; File C:\Anka2Project\Anka2Project\Source\Binary\source\UserInterface\PythonCharacterModule.cpp

; 82   : 		kCreateData.m_dwStateFlags = 0;

  0013c	c7 85 7c fe ff
	ff 00 00 00 00	 mov	 DWORD PTR _kCreateData$32[ebp+4], 0

; 83   : 		kCreateData.m_dwMovSpd = 100;

  00146	c7 85 98 fe ff
	ff 64 00 00 00	 mov	 DWORD PTR _kCreateData$32[ebp+32], 100 ; 00000064H

; 84   : 		kCreateData.m_dwAtkSpd = 100;

  00150	c7 85 9c fe ff
	ff 64 00 00 00	 mov	 DWORD PTR _kCreateData$32[ebp+36], 100 ; 00000064H

; 85   : 		kCreateData.m_sAlignment = 0;

  0015a	66 89 45 b8	 mov	 WORD PTR _kCreateData$32[ebp+320], ax

; 86   : 		kCreateData.m_byPKMode = 0;

  0015e	88 45 ba	 mov	 BYTE PTR _kCreateData$32[ebp+322], al

; 87   : #ifdef ENABLE_TITLE_SYSTEM
; 88   : 		kCreateData.m_iTitleID = 0;

  00161	89 45 dc	 mov	 DWORD PTR _kCreateData$32[ebp+356], eax

; 89   : #endif
; 90   : 		kCreateData.m_kAffectFlags.Clear();

  00164	e8 00 00 00 00	 call	 ?Clear@CAffectFlagContainer@@QAEXXZ ; CAffectFlagContainer::Clear

; 91   : 		kCreateData.m_dwArmor = 8;
; 92   : 		kCreateData.m_dwWeapon = 0;
; 93   : 		kCreateData.m_dwHair = 0;
; 94   : #ifdef ENABLE_ACCE_COSTUME_SYSTEM
; 95   : 		kCreateData.m_dwAcce = 0;
; 96   : #endif
; 97   : #ifdef ENABLE_AURA_COSTUME_SYSTEM
; 98   : 		kCreateData.m_dwAura = 0;
; 99   : #endif
; 100  : 		kCreateData.m_isMain = false;
; 101  : 
; 102  : 		PyObject *poHorse=PyDict_GetItemString(poDict, "horse");

  00169	68 00 00 00 00	 push	 OFFSET ??_C@_05DOPDBCAL@horse@
  0016e	56		 push	 esi
  0016f	c7 85 ac fe ff
	ff 08 00 00 00	 mov	 DWORD PTR _kCreateData$32[ebp+52], 8
  00179	89 85 b0 fe ff
	ff		 mov	 DWORD PTR _kCreateData$32[ebp+56], eax
  0017f	89 85 b4 fe ff
	ff		 mov	 DWORD PTR _kCreateData$32[ebp+60], eax
  00185	89 85 b8 fe ff
	ff		 mov	 DWORD PTR _kCreateData$32[ebp+64], eax
  0018b	89 85 bc fe ff
	ff		 mov	 DWORD PTR _kCreateData$32[ebp+68], eax
  00191	88 45 e1	 mov	 BYTE PTR _kCreateData$32[ebp+361], al
  00194	ff 15 00 00 00
	00		 call	 DWORD PTR __imp__PyDict_GetItemString

; 103  : 		if (poHorse)

  0019a	8b 3d 00 00 00
	00		 mov	 edi, DWORD PTR __imp__PyLong_AsLong
  001a0	83 c4 08	 add	 esp, 8
  001a3	85 c0		 test	 eax, eax
  001a5	74 0c		 je	 SHORT $LN6@chrCreateI

; 104  : 			kCreateData.m_dwMountVnum=PyLong_AsLong(poHorse);

  001a7	50		 push	 eax
  001a8	ff d7		 call	 edi
  001aa	83 c4 04	 add	 esp, 4
  001ad	89 85 c0 fe ff
	ff		 mov	 DWORD PTR _kCreateData$32[ebp+72], eax
$LN6@chrCreateI:

; 105  : 
; 106  : 		PyObject *poX=PyDict_GetItemString(poDict, "x");

  001b3	68 00 00 00 00	 push	 OFFSET ??_C@_01FJMABOPO@x@
  001b8	56		 push	 esi
  001b9	ff 15 00 00 00
	00		 call	 DWORD PTR __imp__PyDict_GetItemString
  001bf	83 c4 08	 add	 esp, 8

; 107  : 		if (poX)

  001c2	85 c0		 test	 eax, eax
  001c4	74 0c		 je	 SHORT $LN7@chrCreateI

; 108  : 			kCreateData.m_lPosX=PyLong_AsLong(poX);

  001c6	50		 push	 eax
  001c7	ff d7		 call	 edi
  001c9	83 c4 04	 add	 esp, 4
  001cc	89 85 a0 fe ff
	ff		 mov	 DWORD PTR _kCreateData$32[ebp+40], eax
$LN7@chrCreateI:

; 109  : 
; 110  : 		PyObject *poY=PyDict_GetItemString(poDict, "y");

  001d2	68 00 00 00 00	 push	 OFFSET ??_C@_01EANLCPLP@y@
  001d7	56		 push	 esi
  001d8	ff 15 00 00 00
	00		 call	 DWORD PTR __imp__PyDict_GetItemString
  001de	83 c4 08	 add	 esp, 8

; 111  : 		if (poY)

  001e1	85 c0		 test	 eax, eax
  001e3	74 0c		 je	 SHORT $LN8@chrCreateI

; 112  : 			kCreateData.m_lPosX=PyLong_AsLong(poY);

  001e5	50		 push	 eax
  001e6	ff d7		 call	 edi
  001e8	83 c4 04	 add	 esp, 4
  001eb	89 85 a0 fe ff
	ff		 mov	 DWORD PTR _kCreateData$32[ebp+40], eax
$LN8@chrCreateI:
; File C:\Anka2Project\Anka2Project\Source\Binary\source\eterBase\Singleton.h

; 26   : 		assert(ms_singleton);

  001f1	8b 0d 00 00 00
	00		 mov	 ecx, DWORD PTR ?ms_singleton@?$CSingleton@VCPythonCharacterManager@@@@0PAVCPythonCharacterManager@@A ; CSingleton<CPythonCharacterManager>::ms_singleton
  001f7	85 c9		 test	 ecx, ecx
  001f9	75 1a		 jne	 SHORT $LN138@chrCreateI
  001fb	6a 1a		 push	 26			; 0000001aH
  001fd	68 00 00 00 00	 push	 OFFSET ??_C@_1IO@CAJLEEOI@?$AAC?$AA?3?$AA?2?$AAA?$AAn?$AAk?$AAa?$AA2?$AAP?$AAr?$AAo?$AAj?$AAe?$AAc?$AAt@
  00202	68 00 00 00 00	 push	 OFFSET ??_C@_1BK@FMEHPMFE@?$AAm?$AAs?$AA_?$AAs?$AAi?$AAn?$AAg?$AAl?$AAe?$AAt?$AAo?$AAn@
  00207	e8 00 00 00 00	 call	 __wassert
  0020c	8b 0d 00 00 00
	00		 mov	 ecx, DWORD PTR ?ms_singleton@?$CSingleton@VCPythonCharacterManager@@@@0PAVCPythonCharacterManager@@A ; CSingleton<CPythonCharacterManager>::ms_singleton
  00212	83 c4 0c	 add	 esp, 12			; 0000000cH
$LN138@chrCreateI:
; File C:\Anka2Project\Anka2Project\Source\Binary\source\UserInterface\PythonCharacterModule.cpp

; 114  : 		CPythonCharacterManager::Instance().CreateInstance(kCreateData);

  00215	8d 85 78 fe ff
	ff		 lea	 eax, DWORD PTR _kCreateData$32[ebp]
  0021b	50		 push	 eax
  0021c	e8 00 00 00 00	 call	 ?CreateInstance@CPythonCharacterManager@@QAEPAVCInstanceBase@@ABUSCreateData@2@@Z ; CPythonCharacterManager::CreateInstance
; File C:\Program Files\Microsoft Visual Studio\2022\Community\VC\Tools\MSVC\14.44.35207\include\xstring

; 1383 :         _Tidy_deallocate();

  00221	8d 4d c4	 lea	 ecx, DWORD PTR _kCreateData$32[ebp+332]
; File C:\Anka2Project\Anka2Project\Source\Binary\source\UserInterface\PythonCharacterModule.cpp

; 115  : 	}

  00224	c7 45 fc ff ff
	ff ff		 mov	 DWORD PTR __$EHRec$[ebp+8], -1
; File C:\Program Files\Microsoft Visual Studio\2022\Community\VC\Tools\MSVC\14.44.35207\include\xstring

; 1383 :         _Tidy_deallocate();

  0022b	e8 00 00 00 00	 call	 ?_Tidy_deallocate@?$basic_string@DU?$char_traits@D@std@@V?$allocator@D@2@@std@@AAEXXZ ; std::basic_string<char,std::char_traits<char>,std::allocator<char> >::_Tidy_deallocate
; File C:\Anka2Project\Anka2Project\Source\Binary\source\UserInterface\PythonCharacterModule.cpp

; 115  : 	}

  00230	eb 2f		 jmp	 SHORT $LN4@chrCreateI
$LN3@chrCreateI:
; File C:\Anka2Project\Anka2Project\Source\Binary\source\eterBase\Singleton.h

; 26   : 		assert(ms_singleton);

  00232	8b 0d 00 00 00
	00		 mov	 ecx, DWORD PTR ?ms_singleton@?$CSingleton@VCPythonCharacterManager@@@@0PAVCPythonCharacterManager@@A ; CSingleton<CPythonCharacterManager>::ms_singleton
  00238	85 c9		 test	 ecx, ecx
  0023a	75 1a		 jne	 SHORT $LN151@chrCreateI
  0023c	6a 1a		 push	 26			; 0000001aH
  0023e	68 00 00 00 00	 push	 OFFSET ??_C@_1IO@CAJLEEOI@?$AAC?$AA?3?$AA?2?$AAA?$AAn?$AAk?$AAa?$AA2?$AAP?$AAr?$AAo?$AAj?$AAe?$AAc?$AAt@
  00243	68 00 00 00 00	 push	 OFFSET ??_C@_1BK@FMEHPMFE@?$AAm?$AAs?$AA_?$AAs?$AAi?$AAn?$AAg?$AAl?$AAe?$AAt?$AAo?$AAn@
  00248	e8 00 00 00 00	 call	 __wassert
  0024d	8b 0d 00 00 00
	00		 mov	 ecx, DWORD PTR ?ms_singleton@?$CSingleton@VCPythonCharacterManager@@@@0PAVCPythonCharacterManager@@A ; CSingleton<CPythonCharacterManager>::ms_singleton
  00253	83 c4 0c	 add	 esp, 12			; 0000000cH
$LN151@chrCreateI:
; File C:\Anka2Project\Anka2Project\Source\Binary\source\UserInterface\PythonCharacterModule.cpp

; 118  : 		CPythonCharacterManager::Instance().RegisterInstance(iVirtualID);

  00256	ff b5 74 fe ff
	ff		 push	 DWORD PTR _iVirtualID$[ebp]
  0025c	e8 00 00 00 00	 call	 ?RegisterInstance@CPythonCharacterManager@@QAEPAVCInstanceBase@@K@Z ; CPythonCharacterManager::RegisterInstance
$LN4@chrCreateI:

; 119  : 	}
; 120  : 
; 121  : 	return Py_BuildNone();

  00261	e8 00 00 00 00	 call	 ?Py_BuildNone@@YAPAU_object@@XZ ; Py_BuildNone
$LN1@chrCreateI:

; 122  : }

  00266	8b 4d f4	 mov	 ecx, DWORD PTR __$EHRec$[ebp]
  00269	64 89 0d 00 00
	00 00		 mov	 DWORD PTR fs:0, ecx
  00270	59		 pop	 ecx
  00271	5f		 pop	 edi
  00272	5e		 pop	 esi
  00273	8b 4d ec	 mov	 ecx, DWORD PTR __$ArrayPad$[ebp]
  00276	33 cd		 xor	 ecx, ebp
  00278	e8 00 00 00 00	 call	 @__security_check_cookie@4
  0027d	8b e5		 mov	 esp, ebp
  0027f	5d		 pop	 ebp
  00280	8b e3		 mov	 esp, ebx
  00282	5b		 pop	 ebx
  00283	c3		 ret	 0
_TEXT	ENDS
;	COMDAT text$x
text$x	SEGMENT
__unwindfunclet$?chrCreateInstance@@YAPAU_object@@PAU1@0@Z$0:
  00000	8d 8d 78 fe ff
	ff		 lea	 ecx, DWORD PTR _kCreateData$32[ebp]
  00006	e9 00 00 00 00	 jmp	 ??1SCreateData@CInstanceBase@@QAE@XZ
  0000b	cc		 int	 3
  0000c	cc		 int	 3
  0000d	cc		 int	 3
  0000e	cc		 int	 3
  0000f	cc		 int	 3
__ehhandler$?chrCreateInstance@@YAPAU_object@@PAU1@0@Z:
  00010	90		 npad	 1
  00011	90		 npad	 1
  00012	8b 54 24 08	 mov	 edx, DWORD PTR [esp+8]
  00016	8d 42 0c	 lea	 eax, DWORD PTR [edx+12]
  00019	8b 8a 70 fe ff
	ff		 mov	 ecx, DWORD PTR [edx-400]
  0001f	33 c8		 xor	 ecx, eax
  00021	e8 00 00 00 00	 call	 @__security_check_cookie@4
  00026	8b 4a f8	 mov	 ecx, DWORD PTR [edx-8]
  00029	33 c8		 xor	 ecx, eax
  0002b	e8 00 00 00 00	 call	 @__security_check_cookie@4
  00030	b8 00 00 00 00	 mov	 eax, OFFSET __ehfuncinfo$?chrCreateInstance@@YAPAU_object@@PAU1@0@Z
  00035	e9 00 00 00 00	 jmp	 ___CxxFrameHandler3
text$x	ENDS
?chrCreateInstance@@YAPAU_object@@PAU1@0@Z ENDP		; chrCreateInstance
; Function compile flags: /Ogtp
; File C:\Anka2Project\Anka2Project\Source\Binary\source\UserInterface\PythonCharacterModule.cpp
; File C:\Anka2Project\Anka2Project\Source\Binary\source\eterBase\Singleton.h
; File C:\Anka2Project\Anka2Project\Source\Binary\source\UserInterface\PythonCharacterModule.cpp
;	COMDAT ?chrHasInstance@@YAPAU_object@@PAU1@0@Z
_TEXT	SEGMENT
_iVirtualID$ = -4					; size = 4
_poSelf$ = 8						; size = 4
_poArgs$ = 12						; size = 4
?chrHasInstance@@YAPAU_object@@PAU1@0@Z PROC		; chrHasInstance, COMDAT

; 155  : {

  00000	55		 push	 ebp
  00001	8b ec		 mov	 ebp, esp
  00003	51		 push	 ecx

; 156  : 	int iVirtualID;
; 157  : 	if (!PyTuple_GetInteger(poArgs, 0, &iVirtualID))

  00004	8d 45 fc	 lea	 eax, DWORD PTR _iVirtualID$[ebp]
  00007	50		 push	 eax
  00008	6a 00		 push	 0
  0000a	ff 75 0c	 push	 DWORD PTR _poArgs$[ebp]
  0000d	e8 00 00 00 00	 call	 ?PyTuple_GetInteger@@YA_NPAU_object@@HPAH@Z ; PyTuple_GetInteger
  00012	83 c4 0c	 add	 esp, 12			; 0000000cH
  00015	84 c0		 test	 al, al
  00017	75 0e		 jne	 SHORT $LN2@chrHasInst

; 158  : 		return Py_BuildException();

  00019	6a 00		 push	 0
  0001b	e8 00 00 00 00	 call	 ?Py_BuildException@@YAPAU_object@@PBDZZ ; Py_BuildException
  00020	83 c4 04	 add	 esp, 4

; 162  : }

  00023	8b e5		 mov	 esp, ebp
  00025	5d		 pop	 ebp
  00026	c3		 ret	 0
$LN2@chrHasInst:
; File C:\Anka2Project\Anka2Project\Source\Binary\source\eterBase\Singleton.h

; 26   : 		assert(ms_singleton);

  00027	8b 0d 00 00 00
	00		 mov	 ecx, DWORD PTR ?ms_singleton@?$CSingleton@VCPythonCharacterManager@@@@0PAVCPythonCharacterManager@@A ; CSingleton<CPythonCharacterManager>::ms_singleton
  0002d	85 c9		 test	 ecx, ecx
  0002f	75 1a		 jne	 SHORT $LN6@chrHasInst
  00031	6a 1a		 push	 26			; 0000001aH
  00033	68 00 00 00 00	 push	 OFFSET ??_C@_1IO@CAJLEEOI@?$AAC?$AA?3?$AA?2?$AAA?$AAn?$AAk?$AAa?$AA2?$AAP?$AAr?$AAo?$AAj?$AAe?$AAc?$AAt@
  00038	68 00 00 00 00	 push	 OFFSET ??_C@_1BK@FMEHPMFE@?$AAm?$AAs?$AA_?$AAs?$AAi?$AAn?$AAg?$AAl?$AAe?$AAt?$AAo?$AAn@
  0003d	e8 00 00 00 00	 call	 __wassert
  00042	8b 0d 00 00 00
	00		 mov	 ecx, DWORD PTR ?ms_singleton@?$CSingleton@VCPythonCharacterManager@@@@0PAVCPythonCharacterManager@@A ; CSingleton<CPythonCharacterManager>::ms_singleton
  00048	83 c4 0c	 add	 esp, 12			; 0000000cH
$LN6@chrHasInst:
; File C:\Anka2Project\Anka2Project\Source\Binary\source\UserInterface\PythonCharacterModule.cpp

; 160  : 	bool bFlag = CPythonCharacterManager::Instance().GetInstancePtr(iVirtualID) ? TRUE : FALSE;

  0004b	8b 41 04	 mov	 eax, DWORD PTR [ecx+4]
  0004e	83 c1 04	 add	 ecx, 4
  00051	ff 75 fc	 push	 DWORD PTR _iVirtualID$[ebp]
  00054	ff 50 08	 call	 DWORD PTR [eax+8]

; 161  : 	return Py_BuildValue("i", bFlag);

  00057	33 c9		 xor	 ecx, ecx
  00059	85 c0		 test	 eax, eax
  0005b	0f 95 c1	 setne	 cl
  0005e	51		 push	 ecx
  0005f	68 00 00 00 00	 push	 OFFSET ??_C@_01KBJDNOO@i@
  00064	ff 15 00 00 00
	00		 call	 DWORD PTR __imp__Py_BuildValue
  0006a	83 c4 08	 add	 esp, 8

; 162  : }

  0006d	8b e5		 mov	 esp, ebp
  0006f	5d		 pop	 ebp
  00070	c3		 ret	 0
?chrHasInstance@@YAPAU_object@@PAU1@0@Z ENDP		; chrHasInstance
_TEXT	ENDS
; Function compile flags: /Ogtp
; File C:\Anka2Project\Anka2Project\Source\Binary\source\UserInterface\PythonCharacterModule.cpp
; File C:\Anka2Project\Anka2Project\Source\Binary\source\eterBase\Singleton.h
; File C:\Anka2Project\Anka2Project\Source\Binary\source\UserInterface\PythonCharacterModule.cpp
;	COMDAT ?chrIsEnemy@@YAPAU_object@@PAU1@0@Z
_TEXT	SEGMENT
_iVirtualID$ = -4					; size = 4
_poSelf$ = 8						; size = 4
_poArgs$ = 12						; size = 4
?chrIsEnemy@@YAPAU_object@@PAU1@0@Z PROC		; chrIsEnemy, COMDAT

; 165  : {

  00000	55		 push	 ebp
  00001	8b ec		 mov	 ebp, esp
  00003	51		 push	 ecx

; 166  : 	int iVirtualID;
; 167  : 	if (!PyTuple_GetInteger(poArgs, 0, &iVirtualID))

  00004	8d 45 fc	 lea	 eax, DWORD PTR _iVirtualID$[ebp]
  00007	50		 push	 eax
  00008	6a 00		 push	 0
  0000a	ff 75 0c	 push	 DWORD PTR _poArgs$[ebp]
  0000d	e8 00 00 00 00	 call	 ?PyTuple_GetInteger@@YA_NPAU_object@@HPAH@Z ; PyTuple_GetInteger
  00012	83 c4 0c	 add	 esp, 12			; 0000000cH
  00015	84 c0		 test	 al, al
  00017	75 0e		 jne	 SHORT $LN2@chrIsEnemy

; 168  : 		return Py_BuildException();

  00019	6a 00		 push	 0
  0001b	e8 00 00 00 00	 call	 ?Py_BuildException@@YAPAU_object@@PBDZZ ; Py_BuildException
  00020	83 c4 04	 add	 esp, 4

; 175  : }

  00023	8b e5		 mov	 esp, ebp
  00025	5d		 pop	 ebp
  00026	c3		 ret	 0
$LN2@chrIsEnemy:
; File C:\Anka2Project\Anka2Project\Source\Binary\source\eterBase\Singleton.h

; 26   : 		assert(ms_singleton);

  00027	8b 0d 00 00 00
	00		 mov	 ecx, DWORD PTR ?ms_singleton@?$CSingleton@VCPythonCharacterManager@@@@0PAVCPythonCharacterManager@@A ; CSingleton<CPythonCharacterManager>::ms_singleton
  0002d	85 c9		 test	 ecx, ecx
  0002f	75 1a		 jne	 SHORT $LN7@chrIsEnemy
  00031	6a 1a		 push	 26			; 0000001aH
  00033	68 00 00 00 00	 push	 OFFSET ??_C@_1IO@CAJLEEOI@?$AAC?$AA?3?$AA?2?$AAA?$AAn?$AAk?$AAa?$AA2?$AAP?$AAr?$AAo?$AAj?$AAe?$AAc?$AAt@
  00038	68 00 00 00 00	 push	 OFFSET ??_C@_1BK@FMEHPMFE@?$AAm?$AAs?$AA_?$AAs?$AAi?$AAn?$AAg?$AAl?$AAe?$AAt?$AAo?$AAn@
  0003d	e8 00 00 00 00	 call	 __wassert
  00042	8b 0d 00 00 00
	00		 mov	 ecx, DWORD PTR ?ms_singleton@?$CSingleton@VCPythonCharacterManager@@@@0PAVCPythonCharacterManager@@A ; CSingleton<CPythonCharacterManager>::ms_singleton
  00048	83 c4 0c	 add	 esp, 12			; 0000000cH
$LN7@chrIsEnemy:
; File C:\Anka2Project\Anka2Project\Source\Binary\source\UserInterface\PythonCharacterModule.cpp

; 170  : 	CInstanceBase * pInstance = CPythonCharacterManager::Instance().GetInstancePtr(iVirtualID);

  0004b	8b 41 04	 mov	 eax, DWORD PTR [ecx+4]
  0004e	83 c1 04	 add	 ecx, 4
  00051	ff 75 fc	 push	 DWORD PTR _iVirtualID$[ebp]
  00054	ff 50 08	 call	 DWORD PTR [eax+8]

; 171  : 	if (!pInstance)

  00057	85 c0		 test	 eax, eax
  00059	75 13		 jne	 SHORT $LN3@chrIsEnemy

; 172  : 		return Py_BuildValue("i", 0);

  0005b	50		 push	 eax

; 175  : }

  0005c	68 00 00 00 00	 push	 OFFSET ??_C@_01KBJDNOO@i@
  00061	ff 15 00 00 00
	00		 call	 DWORD PTR __imp__Py_BuildValue
  00067	83 c4 08	 add	 esp, 8
  0006a	8b e5		 mov	 esp, ebp
  0006c	5d		 pop	 ebp
  0006d	c3		 ret	 0
$LN3@chrIsEnemy:

; 173  : 
; 174  : 	return Py_BuildValue("i", pInstance->IsEnemy());

  0006e	8b c8		 mov	 ecx, eax
  00070	e8 00 00 00 00	 call	 ?IsEnemy@CInstanceBase@@QAEHXZ ; CInstanceBase::IsEnemy
  00075	50		 push	 eax

; 175  : }

  00076	68 00 00 00 00	 push	 OFFSET ??_C@_01KBJDNOO@i@
  0007b	ff 15 00 00 00
	00		 call	 DWORD PTR __imp__Py_BuildValue
  00081	83 c4 08	 add	 esp, 8
  00084	8b e5		 mov	 esp, ebp
  00086	5d		 pop	 ebp
  00087	c3		 ret	 0
?chrIsEnemy@@YAPAU_object@@PAU1@0@Z ENDP		; chrIsEnemy
_TEXT	ENDS
; Function compile flags: /Ogtp
; File C:\Anka2Project\Anka2Project\Source\Binary\source\UserInterface\PythonCharacterModule.cpp
; File C:\Anka2Project\Anka2Project\Source\Binary\source\eterBase\Singleton.h
; File C:\Anka2Project\Anka2Project\Source\Binary\source\UserInterface\PythonCharacterModule.cpp
;	COMDAT ?chrIsNPC@@YAPAU_object@@PAU1@0@Z
_TEXT	SEGMENT
_iVirtualID$ = -4					; size = 4
_poSelf$ = 8						; size = 4
_poArgs$ = 12						; size = 4
?chrIsNPC@@YAPAU_object@@PAU1@0@Z PROC			; chrIsNPC, COMDAT

; 178  : {

  00000	55		 push	 ebp
  00001	8b ec		 mov	 ebp, esp
  00003	51		 push	 ecx

; 179  : 	int iVirtualID;
; 180  : 	if (!PyTuple_GetInteger(poArgs, 0, &iVirtualID))

  00004	8d 45 fc	 lea	 eax, DWORD PTR _iVirtualID$[ebp]
  00007	50		 push	 eax
  00008	6a 00		 push	 0
  0000a	ff 75 0c	 push	 DWORD PTR _poArgs$[ebp]
  0000d	e8 00 00 00 00	 call	 ?PyTuple_GetInteger@@YA_NPAU_object@@HPAH@Z ; PyTuple_GetInteger
  00012	83 c4 0c	 add	 esp, 12			; 0000000cH
  00015	84 c0		 test	 al, al
  00017	75 0e		 jne	 SHORT $LN2@chrIsNPC

; 181  : 		return Py_BuildException();

  00019	6a 00		 push	 0
  0001b	e8 00 00 00 00	 call	 ?Py_BuildException@@YAPAU_object@@PBDZZ ; Py_BuildException
  00020	83 c4 04	 add	 esp, 4

; 188  : }

  00023	8b e5		 mov	 esp, ebp
  00025	5d		 pop	 ebp
  00026	c3		 ret	 0
$LN2@chrIsNPC:
; File C:\Anka2Project\Anka2Project\Source\Binary\source\eterBase\Singleton.h

; 26   : 		assert(ms_singleton);

  00027	8b 0d 00 00 00
	00		 mov	 ecx, DWORD PTR ?ms_singleton@?$CSingleton@VCPythonCharacterManager@@@@0PAVCPythonCharacterManager@@A ; CSingleton<CPythonCharacterManager>::ms_singleton
  0002d	85 c9		 test	 ecx, ecx
  0002f	75 1a		 jne	 SHORT $LN7@chrIsNPC
  00031	6a 1a		 push	 26			; 0000001aH
  00033	68 00 00 00 00	 push	 OFFSET ??_C@_1IO@CAJLEEOI@?$AAC?$AA?3?$AA?2?$AAA?$AAn?$AAk?$AAa?$AA2?$AAP?$AAr?$AAo?$AAj?$AAe?$AAc?$AAt@
  00038	68 00 00 00 00	 push	 OFFSET ??_C@_1BK@FMEHPMFE@?$AAm?$AAs?$AA_?$AAs?$AAi?$AAn?$AAg?$AAl?$AAe?$AAt?$AAo?$AAn@
  0003d	e8 00 00 00 00	 call	 __wassert
  00042	8b 0d 00 00 00
	00		 mov	 ecx, DWORD PTR ?ms_singleton@?$CSingleton@VCPythonCharacterManager@@@@0PAVCPythonCharacterManager@@A ; CSingleton<CPythonCharacterManager>::ms_singleton
  00048	83 c4 0c	 add	 esp, 12			; 0000000cH
$LN7@chrIsNPC:
; File C:\Anka2Project\Anka2Project\Source\Binary\source\UserInterface\PythonCharacterModule.cpp

; 183  : 	CInstanceBase * pInstance = CPythonCharacterManager::Instance().GetInstancePtr(iVirtualID);

  0004b	8b 41 04	 mov	 eax, DWORD PTR [ecx+4]
  0004e	83 c1 04	 add	 ecx, 4
  00051	ff 75 fc	 push	 DWORD PTR _iVirtualID$[ebp]
  00054	ff 50 08	 call	 DWORD PTR [eax+8]

; 184  : 	if (!pInstance)

  00057	85 c0		 test	 eax, eax
  00059	75 13		 jne	 SHORT $LN3@chrIsNPC

; 185  : 		return Py_BuildValue("i", 0);

  0005b	50		 push	 eax

; 188  : }

  0005c	68 00 00 00 00	 push	 OFFSET ??_C@_01KBJDNOO@i@
  00061	ff 15 00 00 00
	00		 call	 DWORD PTR __imp__Py_BuildValue
  00067	83 c4 08	 add	 esp, 8
  0006a	8b e5		 mov	 esp, ebp
  0006c	5d		 pop	 ebp
  0006d	c3		 ret	 0
$LN3@chrIsNPC:

; 186  : 
; 187  : 	return Py_BuildValue("i", pInstance->IsNPC());

  0006e	8b c8		 mov	 ecx, eax
  00070	e8 00 00 00 00	 call	 ?IsNPC@CInstanceBase@@QAEHXZ ; CInstanceBase::IsNPC
  00075	50		 push	 eax

; 188  : }

  00076	68 00 00 00 00	 push	 OFFSET ??_C@_01KBJDNOO@i@
  0007b	ff 15 00 00 00
	00		 call	 DWORD PTR __imp__Py_BuildValue
  00081	83 c4 08	 add	 esp, 8
  00084	8b e5		 mov	 esp, ebp
  00086	5d		 pop	 ebp
  00087	c3		 ret	 0
?chrIsNPC@@YAPAU_object@@PAU1@0@Z ENDP			; chrIsNPC
_TEXT	ENDS
; Function compile flags: /Ogtp
; File C:\Anka2Project\Anka2Project\Source\Binary\source\UserInterface\PythonCharacterModule.cpp
; File C:\Anka2Project\Anka2Project\Source\Binary\source\eterBase\Singleton.h
; File C:\Anka2Project\Anka2Project\Source\Binary\source\UserInterface\PythonCharacterModule.cpp
;	COMDAT ?chrIsPet@@YAPAU_object@@PAU1@0@Z
_TEXT	SEGMENT
_iVirtualID$ = -4					; size = 4
_poSelf$ = 8						; size = 4
_poArgs$ = 12						; size = 4
?chrIsPet@@YAPAU_object@@PAU1@0@Z PROC			; chrIsPet, COMDAT

; 191  : {

  00000	55		 push	 ebp
  00001	8b ec		 mov	 ebp, esp
  00003	51		 push	 ecx

; 192  : 	int iVirtualID;
; 193  : 	if (!PyTuple_GetInteger(poArgs, 0, &iVirtualID))

  00004	8d 45 fc	 lea	 eax, DWORD PTR _iVirtualID$[ebp]
  00007	50		 push	 eax
  00008	6a 00		 push	 0
  0000a	ff 75 0c	 push	 DWORD PTR _poArgs$[ebp]
  0000d	e8 00 00 00 00	 call	 ?PyTuple_GetInteger@@YA_NPAU_object@@HPAH@Z ; PyTuple_GetInteger
  00012	83 c4 0c	 add	 esp, 12			; 0000000cH
  00015	84 c0		 test	 al, al
  00017	75 0e		 jne	 SHORT $LN2@chrIsPet

; 194  : 		return Py_BuildException();

  00019	6a 00		 push	 0
  0001b	e8 00 00 00 00	 call	 ?Py_BuildException@@YAPAU_object@@PBDZZ ; Py_BuildException
  00020	83 c4 04	 add	 esp, 4

; 201  : }

  00023	8b e5		 mov	 esp, ebp
  00025	5d		 pop	 ebp
  00026	c3		 ret	 0
$LN2@chrIsPet:
; File C:\Anka2Project\Anka2Project\Source\Binary\source\eterBase\Singleton.h

; 26   : 		assert(ms_singleton);

  00027	8b 0d 00 00 00
	00		 mov	 ecx, DWORD PTR ?ms_singleton@?$CSingleton@VCPythonCharacterManager@@@@0PAVCPythonCharacterManager@@A ; CSingleton<CPythonCharacterManager>::ms_singleton
  0002d	85 c9		 test	 ecx, ecx
  0002f	75 1a		 jne	 SHORT $LN7@chrIsPet
  00031	6a 1a		 push	 26			; 0000001aH
  00033	68 00 00 00 00	 push	 OFFSET ??_C@_1IO@CAJLEEOI@?$AAC?$AA?3?$AA?2?$AAA?$AAn?$AAk?$AAa?$AA2?$AAP?$AAr?$AAo?$AAj?$AAe?$AAc?$AAt@
  00038	68 00 00 00 00	 push	 OFFSET ??_C@_1BK@FMEHPMFE@?$AAm?$AAs?$AA_?$AAs?$AAi?$AAn?$AAg?$AAl?$AAe?$AAt?$AAo?$AAn@
  0003d	e8 00 00 00 00	 call	 __wassert
  00042	8b 0d 00 00 00
	00		 mov	 ecx, DWORD PTR ?ms_singleton@?$CSingleton@VCPythonCharacterManager@@@@0PAVCPythonCharacterManager@@A ; CSingleton<CPythonCharacterManager>::ms_singleton
  00048	83 c4 0c	 add	 esp, 12			; 0000000cH
$LN7@chrIsPet:
; File C:\Anka2Project\Anka2Project\Source\Binary\source\UserInterface\PythonCharacterModule.cpp

; 196  : 	CInstanceBase* pInstance = CPythonCharacterManager::Instance().GetInstancePtr(iVirtualID);

  0004b	8b 41 04	 mov	 eax, DWORD PTR [ecx+4]
  0004e	83 c1 04	 add	 ecx, 4
  00051	ff 75 fc	 push	 DWORD PTR _iVirtualID$[ebp]
  00054	ff 50 08	 call	 DWORD PTR [eax+8]

; 197  : 	if (!pInstance)

  00057	85 c0		 test	 eax, eax
  00059	75 13		 jne	 SHORT $LN3@chrIsPet

; 198  : 		return Py_BuildValue("i", 0);

  0005b	50		 push	 eax

; 201  : }

  0005c	68 00 00 00 00	 push	 OFFSET ??_C@_01KBJDNOO@i@
  00061	ff 15 00 00 00
	00		 call	 DWORD PTR __imp__Py_BuildValue
  00067	83 c4 08	 add	 esp, 8
  0006a	8b e5		 mov	 esp, ebp
  0006c	5d		 pop	 ebp
  0006d	c3		 ret	 0
$LN3@chrIsPet:

; 199  : 
; 200  : 	return Py_BuildValue("i", pInstance->IsPet());

  0006e	8b c8		 mov	 ecx, eax
  00070	e8 00 00 00 00	 call	 ?IsPet@CInstanceBase@@QAEHXZ ; CInstanceBase::IsPet
  00075	50		 push	 eax

; 201  : }

  00076	68 00 00 00 00	 push	 OFFSET ??_C@_01KBJDNOO@i@
  0007b	ff 15 00 00 00
	00		 call	 DWORD PTR __imp__Py_BuildValue
  00081	83 c4 08	 add	 esp, 8
  00084	8b e5		 mov	 esp, ebp
  00086	5d		 pop	 ebp
  00087	c3		 ret	 0
?chrIsPet@@YAPAU_object@@PAU1@0@Z ENDP			; chrIsPet
_TEXT	ENDS
; Function compile flags: /Ogtp
; File C:\Anka2Project\Anka2Project\Source\Binary\source\UserInterface\PythonCharacterModule.cpp
; File C:\Anka2Project\Anka2Project\Source\Binary\source\eterBase\Singleton.h
; File C:\Anka2Project\Anka2Project\Source\Binary\source\UserInterface\PythonCharacterModule.cpp
;	COMDAT ?chrIsMount@@YAPAU_object@@PAU1@0@Z
_TEXT	SEGMENT
_iVirtualID$ = -4					; size = 4
_poSelf$ = 8						; size = 4
_poArgs$ = 12						; size = 4
?chrIsMount@@YAPAU_object@@PAU1@0@Z PROC		; chrIsMount, COMDAT

; 204  : {

  00000	55		 push	 ebp
  00001	8b ec		 mov	 ebp, esp
  00003	51		 push	 ecx

; 205  : 	int iVirtualID;
; 206  : 	if (!PyTuple_GetInteger(poArgs, 0, &iVirtualID))

  00004	8d 45 fc	 lea	 eax, DWORD PTR _iVirtualID$[ebp]
  00007	50		 push	 eax
  00008	6a 00		 push	 0
  0000a	ff 75 0c	 push	 DWORD PTR _poArgs$[ebp]
  0000d	e8 00 00 00 00	 call	 ?PyTuple_GetInteger@@YA_NPAU_object@@HPAH@Z ; PyTuple_GetInteger
  00012	83 c4 0c	 add	 esp, 12			; 0000000cH
  00015	84 c0		 test	 al, al
  00017	75 0e		 jne	 SHORT $LN2@chrIsMount

; 207  : 		return Py_BuildException();

  00019	6a 00		 push	 0
  0001b	e8 00 00 00 00	 call	 ?Py_BuildException@@YAPAU_object@@PBDZZ ; Py_BuildException
  00020	83 c4 04	 add	 esp, 4

; 214  : }

  00023	8b e5		 mov	 esp, ebp
  00025	5d		 pop	 ebp
  00026	c3		 ret	 0
$LN2@chrIsMount:
; File C:\Anka2Project\Anka2Project\Source\Binary\source\eterBase\Singleton.h

; 26   : 		assert(ms_singleton);

  00027	8b 0d 00 00 00
	00		 mov	 ecx, DWORD PTR ?ms_singleton@?$CSingleton@VCPythonCharacterManager@@@@0PAVCPythonCharacterManager@@A ; CSingleton<CPythonCharacterManager>::ms_singleton
  0002d	85 c9		 test	 ecx, ecx
  0002f	75 1a		 jne	 SHORT $LN7@chrIsMount
  00031	6a 1a		 push	 26			; 0000001aH
  00033	68 00 00 00 00	 push	 OFFSET ??_C@_1IO@CAJLEEOI@?$AAC?$AA?3?$AA?2?$AAA?$AAn?$AAk?$AAa?$AA2?$AAP?$AAr?$AAo?$AAj?$AAe?$AAc?$AAt@
  00038	68 00 00 00 00	 push	 OFFSET ??_C@_1BK@FMEHPMFE@?$AAm?$AAs?$AA_?$AAs?$AAi?$AAn?$AAg?$AAl?$AAe?$AAt?$AAo?$AAn@
  0003d	e8 00 00 00 00	 call	 __wassert
  00042	8b 0d 00 00 00
	00		 mov	 ecx, DWORD PTR ?ms_singleton@?$CSingleton@VCPythonCharacterManager@@@@0PAVCPythonCharacterManager@@A ; CSingleton<CPythonCharacterManager>::ms_singleton
  00048	83 c4 0c	 add	 esp, 12			; 0000000cH
$LN7@chrIsMount:
; File C:\Anka2Project\Anka2Project\Source\Binary\source\UserInterface\PythonCharacterModule.cpp

; 209  : 	CInstanceBase* pInstance = CPythonCharacterManager::Instance().GetInstancePtr(iVirtualID);

  0004b	8b 41 04	 mov	 eax, DWORD PTR [ecx+4]
  0004e	83 c1 04	 add	 ecx, 4
  00051	ff 75 fc	 push	 DWORD PTR _iVirtualID$[ebp]
  00054	ff 50 08	 call	 DWORD PTR [eax+8]

; 210  : 	if (!pInstance)

  00057	85 c0		 test	 eax, eax
  00059	75 13		 jne	 SHORT $LN3@chrIsMount

; 211  : 		return Py_BuildValue("i", 0);

  0005b	50		 push	 eax

; 214  : }

  0005c	68 00 00 00 00	 push	 OFFSET ??_C@_01KBJDNOO@i@
  00061	ff 15 00 00 00
	00		 call	 DWORD PTR __imp__Py_BuildValue
  00067	83 c4 08	 add	 esp, 8
  0006a	8b e5		 mov	 esp, ebp
  0006c	5d		 pop	 ebp
  0006d	c3		 ret	 0
$LN3@chrIsMount:

; 212  : 
; 213  : 	return Py_BuildValue("i", pInstance->IsMount());

  0006e	8b c8		 mov	 ecx, eax
  00070	e8 00 00 00 00	 call	 ?IsMount@CInstanceBase@@QAEHXZ ; CInstanceBase::IsMount
  00075	50		 push	 eax

; 214  : }

  00076	68 00 00 00 00	 push	 OFFSET ??_C@_01KBJDNOO@i@
  0007b	ff 15 00 00 00
	00		 call	 DWORD PTR __imp__Py_BuildValue
  00081	83 c4 08	 add	 esp, 8
  00084	8b e5		 mov	 esp, ebp
  00086	5d		 pop	 ebp
  00087	c3		 ret	 0
?chrIsMount@@YAPAU_object@@PAU1@0@Z ENDP		; chrIsMount
_TEXT	ENDS
; Function compile flags: /Ogtp
; File C:\Anka2Project\Anka2Project\Source\Binary\source\UserInterface\PythonCharacterModule.cpp
; File C:\Anka2Project\Anka2Project\Source\Binary\source\eterBase\Singleton.h
; File C:\Anka2Project\Anka2Project\Source\Binary\source\UserInterface\PythonCharacterModule.cpp
;	COMDAT ?chrIsGameMaster@@YAPAU_object@@PAU1@0@Z
_TEXT	SEGMENT
_iVirtualID$ = -4					; size = 4
_poSelf$ = 8						; size = 4
_poArgs$ = 12						; size = 4
?chrIsGameMaster@@YAPAU_object@@PAU1@0@Z PROC		; chrIsGameMaster, COMDAT

; 217  : {

  00000	55		 push	 ebp
  00001	8b ec		 mov	 ebp, esp
  00003	51		 push	 ecx

; 218  : 	int iVirtualID;
; 219  : 	if (!PyTuple_GetInteger(poArgs, 0, &iVirtualID))

  00004	8d 45 fc	 lea	 eax, DWORD PTR _iVirtualID$[ebp]
  00007	50		 push	 eax
  00008	6a 00		 push	 0
  0000a	ff 75 0c	 push	 DWORD PTR _poArgs$[ebp]
  0000d	e8 00 00 00 00	 call	 ?PyTuple_GetInteger@@YA_NPAU_object@@HPAH@Z ; PyTuple_GetInteger
  00012	83 c4 0c	 add	 esp, 12			; 0000000cH
  00015	84 c0		 test	 al, al
  00017	75 0e		 jne	 SHORT $LN2@chrIsGameM

; 220  : 		return Py_BuildException();

  00019	6a 00		 push	 0
  0001b	e8 00 00 00 00	 call	 ?Py_BuildException@@YAPAU_object@@PBDZZ ; Py_BuildException
  00020	83 c4 04	 add	 esp, 4

; 227  : }

  00023	8b e5		 mov	 esp, ebp
  00025	5d		 pop	 ebp
  00026	c3		 ret	 0
$LN2@chrIsGameM:
; File C:\Anka2Project\Anka2Project\Source\Binary\source\eterBase\Singleton.h

; 26   : 		assert(ms_singleton);

  00027	8b 0d 00 00 00
	00		 mov	 ecx, DWORD PTR ?ms_singleton@?$CSingleton@VCPythonCharacterManager@@@@0PAVCPythonCharacterManager@@A ; CSingleton<CPythonCharacterManager>::ms_singleton
  0002d	85 c9		 test	 ecx, ecx
  0002f	75 1a		 jne	 SHORT $LN7@chrIsGameM
  00031	6a 1a		 push	 26			; 0000001aH
  00033	68 00 00 00 00	 push	 OFFSET ??_C@_1IO@CAJLEEOI@?$AAC?$AA?3?$AA?2?$AAA?$AAn?$AAk?$AAa?$AA2?$AAP?$AAr?$AAo?$AAj?$AAe?$AAc?$AAt@
  00038	68 00 00 00 00	 push	 OFFSET ??_C@_1BK@FMEHPMFE@?$AAm?$AAs?$AA_?$AAs?$AAi?$AAn?$AAg?$AAl?$AAe?$AAt?$AAo?$AAn@
  0003d	e8 00 00 00 00	 call	 __wassert
  00042	8b 0d 00 00 00
	00		 mov	 ecx, DWORD PTR ?ms_singleton@?$CSingleton@VCPythonCharacterManager@@@@0PAVCPythonCharacterManager@@A ; CSingleton<CPythonCharacterManager>::ms_singleton
  00048	83 c4 0c	 add	 esp, 12			; 0000000cH
$LN7@chrIsGameM:
; File C:\Anka2Project\Anka2Project\Source\Binary\source\UserInterface\PythonCharacterModule.cpp

; 222  : 	CInstanceBase * pInstance = CPythonCharacterManager::Instance().GetInstancePtr(iVirtualID);

  0004b	8b 41 04	 mov	 eax, DWORD PTR [ecx+4]
  0004e	83 c1 04	 add	 ecx, 4
  00051	ff 75 fc	 push	 DWORD PTR _iVirtualID$[ebp]
  00054	ff 50 08	 call	 DWORD PTR [eax+8]

; 223  : 	if (!pInstance)

  00057	85 c0		 test	 eax, eax
  00059	75 13		 jne	 SHORT $LN3@chrIsGameM

; 224  : 		return Py_BuildValue("i", 0);

  0005b	50		 push	 eax

; 227  : }

  0005c	68 00 00 00 00	 push	 OFFSET ??_C@_01KBJDNOO@i@
  00061	ff 15 00 00 00
	00		 call	 DWORD PTR __imp__Py_BuildValue
  00067	83 c4 08	 add	 esp, 8
  0006a	8b e5		 mov	 esp, ebp
  0006c	5d		 pop	 ebp
  0006d	c3		 ret	 0
$LN3@chrIsGameM:

; 225  : 
; 226  : 	return Py_BuildValue("i", pInstance->IsGameMaster());

  0006e	8b c8		 mov	 ecx, eax
  00070	e8 00 00 00 00	 call	 ?IsGameMaster@CInstanceBase@@QAEHXZ ; CInstanceBase::IsGameMaster
  00075	50		 push	 eax

; 227  : }

  00076	68 00 00 00 00	 push	 OFFSET ??_C@_01KBJDNOO@i@
  0007b	ff 15 00 00 00
	00		 call	 DWORD PTR __imp__Py_BuildValue
  00081	83 c4 08	 add	 esp, 8
  00084	8b e5		 mov	 esp, ebp
  00086	5d		 pop	 ebp
  00087	c3		 ret	 0
?chrIsGameMaster@@YAPAU_object@@PAU1@0@Z ENDP		; chrIsGameMaster
_TEXT	ENDS
; Function compile flags: /Ogtp
; File C:\Anka2Project\Anka2Project\Source\Binary\source\UserInterface\PythonCharacterModule.cpp
; File C:\Anka2Project\Anka2Project\Source\Binary\source\eterBase\Singleton.h
; File C:\Anka2Project\Anka2Project\Source\Binary\source\UserInterface\PythonCharacterModule.cpp
;	COMDAT ?chrIsPartyMember@@YAPAU_object@@PAU1@0@Z
_TEXT	SEGMENT
_iVirtualID$ = -4					; size = 4
_poSelf$ = 8						; size = 4
_poArgs$ = 12						; size = 4
?chrIsPartyMember@@YAPAU_object@@PAU1@0@Z PROC		; chrIsPartyMember, COMDAT

; 230  : {

  00000	55		 push	 ebp
  00001	8b ec		 mov	 ebp, esp
  00003	51		 push	 ecx

; 231  : 	int iVirtualID;
; 232  : 	if (!PyTuple_GetInteger(poArgs, 0, &iVirtualID))

  00004	8d 45 fc	 lea	 eax, DWORD PTR _iVirtualID$[ebp]
  00007	50		 push	 eax
  00008	6a 00		 push	 0
  0000a	ff 75 0c	 push	 DWORD PTR _poArgs$[ebp]
  0000d	e8 00 00 00 00	 call	 ?PyTuple_GetInteger@@YA_NPAU_object@@HPAH@Z ; PyTuple_GetInteger
  00012	83 c4 0c	 add	 esp, 12			; 0000000cH
  00015	84 c0		 test	 al, al
  00017	75 0e		 jne	 SHORT $LN2@chrIsParty

; 233  : 		return Py_BuildException();

  00019	6a 00		 push	 0
  0001b	e8 00 00 00 00	 call	 ?Py_BuildException@@YAPAU_object@@PBDZZ ; Py_BuildException
  00020	83 c4 04	 add	 esp, 4

; 240  : }

  00023	8b e5		 mov	 esp, ebp
  00025	5d		 pop	 ebp
  00026	c3		 ret	 0
$LN2@chrIsParty:
; File C:\Anka2Project\Anka2Project\Source\Binary\source\eterBase\Singleton.h

; 26   : 		assert(ms_singleton);

  00027	8b 0d 00 00 00
	00		 mov	 ecx, DWORD PTR ?ms_singleton@?$CSingleton@VCPythonCharacterManager@@@@0PAVCPythonCharacterManager@@A ; CSingleton<CPythonCharacterManager>::ms_singleton
  0002d	85 c9		 test	 ecx, ecx
  0002f	75 1a		 jne	 SHORT $LN7@chrIsParty
  00031	6a 1a		 push	 26			; 0000001aH
  00033	68 00 00 00 00	 push	 OFFSET ??_C@_1IO@CAJLEEOI@?$AAC?$AA?3?$AA?2?$AAA?$AAn?$AAk?$AAa?$AA2?$AAP?$AAr?$AAo?$AAj?$AAe?$AAc?$AAt@
  00038	68 00 00 00 00	 push	 OFFSET ??_C@_1BK@FMEHPMFE@?$AAm?$AAs?$AA_?$AAs?$AAi?$AAn?$AAg?$AAl?$AAe?$AAt?$AAo?$AAn@
  0003d	e8 00 00 00 00	 call	 __wassert
  00042	8b 0d 00 00 00
	00		 mov	 ecx, DWORD PTR ?ms_singleton@?$CSingleton@VCPythonCharacterManager@@@@0PAVCPythonCharacterManager@@A ; CSingleton<CPythonCharacterManager>::ms_singleton
  00048	83 c4 0c	 add	 esp, 12			; 0000000cH
$LN7@chrIsParty:
; File C:\Anka2Project\Anka2Project\Source\Binary\source\UserInterface\PythonCharacterModule.cpp

; 235  : 	CInstanceBase * pInstance = CPythonCharacterManager::Instance().GetInstancePtr(iVirtualID);

  0004b	8b 41 04	 mov	 eax, DWORD PTR [ecx+4]
  0004e	83 c1 04	 add	 ecx, 4
  00051	ff 75 fc	 push	 DWORD PTR _iVirtualID$[ebp]
  00054	ff 50 08	 call	 DWORD PTR [eax+8]

; 236  : 	if (!pInstance)

  00057	85 c0		 test	 eax, eax
  00059	75 13		 jne	 SHORT $LN3@chrIsParty

; 237  : 		return Py_BuildValue("i", 0);

  0005b	50		 push	 eax

; 240  : }

  0005c	68 00 00 00 00	 push	 OFFSET ??_C@_01KBJDNOO@i@
  00061	ff 15 00 00 00
	00		 call	 DWORD PTR __imp__Py_BuildValue
  00067	83 c4 08	 add	 esp, 8
  0006a	8b e5		 mov	 esp, ebp
  0006c	5d		 pop	 ebp
  0006d	c3		 ret	 0
$LN3@chrIsParty:

; 238  : 
; 239  : 	return Py_BuildValue("i", pInstance->IsPartyMember());

  0006e	8b c8		 mov	 ecx, eax
  00070	e8 00 00 00 00	 call	 ?IsPartyMember@CInstanceBase@@QAE_NXZ ; CInstanceBase::IsPartyMember
  00075	0f b6 c0	 movzx	 eax, al
  00078	50		 push	 eax

; 240  : }

  00079	68 00 00 00 00	 push	 OFFSET ??_C@_01KBJDNOO@i@
  0007e	ff 15 00 00 00
	00		 call	 DWORD PTR __imp__Py_BuildValue
  00084	83 c4 08	 add	 esp, 8
  00087	8b e5		 mov	 esp, ebp
  00089	5d		 pop	 ebp
  0008a	c3		 ret	 0
?chrIsPartyMember@@YAPAU_object@@PAU1@0@Z ENDP		; chrIsPartyMember
_TEXT	ENDS
; Function compile flags: /Ogtp
; File C:\Anka2Project\Anka2Project\Source\Binary\source\UserInterface\PythonCharacterModule.cpp
; File C:\Anka2Project\Anka2Project\Source\Binary\source\eterBase\Singleton.h
; File C:\Anka2Project\Anka2Project\Source\Binary\source\UserInterface\PythonCharacterModule.cpp
; File C:\Anka2Project\Anka2Project\Source\Binary\source\eterBase\Singleton.h
; File C:\Anka2Project\Anka2Project\Source\Binary\source\UserInterface\PythonCharacterModule.cpp
; File C:\Anka2Project\Anka2Project\Source\Binary\extern\include\d3dx8math.inl
; File C:\Anka2Project\Anka2Project\Source\Binary\source\UserInterface\PythonCharacterModule.cpp
; File C:\Anka2Project\Anka2Project\Source\Binary\extern\include\d3dx8math.inl
; File C:\Anka2Project\Anka2Project\Source\Binary\source\UserInterface\PythonCharacterModule.cpp
;	COMDAT ?chrSelect@@YAPAU_object@@PAU1@0@Z
_TEXT	SEGMENT
$T3 = -20						; size = 16
_iVirtualID$ = -4					; size = 4
_poSelf$ = 8						; size = 4
_poArgs$ = 12						; size = 4
?chrSelect@@YAPAU_object@@PAU1@0@Z PROC			; chrSelect, COMDAT

; 243  : {

  00000	55		 push	 ebp
  00001	8b ec		 mov	 ebp, esp
  00003	83 ec 14	 sub	 esp, 20			; 00000014H

; 244  : 	int iVirtualID;
; 245  : 	if (!PyTuple_GetInteger(poArgs, 0, &iVirtualID))

  00006	8d 45 fc	 lea	 eax, DWORD PTR _iVirtualID$[ebp]
  00009	56		 push	 esi
  0000a	50		 push	 eax
  0000b	6a 00		 push	 0
  0000d	ff 75 0c	 push	 DWORD PTR _poArgs$[ebp]
  00010	e8 00 00 00 00	 call	 ?PyTuple_GetInteger@@YA_NPAU_object@@HPAH@Z ; PyTuple_GetInteger
  00015	83 c4 0c	 add	 esp, 12			; 0000000cH
  00018	84 c0		 test	 al, al
  0001a	75 0f		 jne	 SHORT $LN4@chrSelect

; 246  : 		return Py_BuildException();

  0001c	6a 00		 push	 0
  0001e	e8 00 00 00 00	 call	 ?Py_BuildException@@YAPAU_object@@PBDZZ ; Py_BuildException
  00023	83 c4 04	 add	 esp, 4

; 258  : 			break;
; 259  : 
; 260  : 		default:
; 261  : 			break;
; 262  : 	}
; 263  : 
; 264  : 	return Py_BuildNone();
; 265  : }

  00026	5e		 pop	 esi
  00027	8b e5		 mov	 esp, ebp
  00029	5d		 pop	 ebp
  0002a	c3		 ret	 0
$LN4@chrSelect:
; File C:\Anka2Project\Anka2Project\Source\Binary\source\eterBase\Singleton.h

; 26   : 		assert(ms_singleton);

  0002b	8b 0d 00 00 00
	00		 mov	 ecx, DWORD PTR ?ms_singleton@?$CSingleton@VCPythonCharacterManager@@@@0PAVCPythonCharacterManager@@A ; CSingleton<CPythonCharacterManager>::ms_singleton
  00031	85 c9		 test	 ecx, ecx
  00033	75 1a		 jne	 SHORT $LN11@chrSelect
  00035	6a 1a		 push	 26			; 0000001aH
  00037	68 00 00 00 00	 push	 OFFSET ??_C@_1IO@CAJLEEOI@?$AAC?$AA?3?$AA?2?$AAA?$AAn?$AAk?$AAa?$AA2?$AAP?$AAr?$AAo?$AAj?$AAe?$AAc?$AAt@
  0003c	68 00 00 00 00	 push	 OFFSET ??_C@_1BK@FMEHPMFE@?$AAm?$AAs?$AA_?$AAs?$AAi?$AAn?$AAg?$AAl?$AAe?$AAt?$AAo?$AAn@
  00041	e8 00 00 00 00	 call	 __wassert
  00046	8b 0d 00 00 00
	00		 mov	 ecx, DWORD PTR ?ms_singleton@?$CSingleton@VCPythonCharacterManager@@@@0PAVCPythonCharacterManager@@A ; CSingleton<CPythonCharacterManager>::ms_singleton
  0004c	83 c4 0c	 add	 esp, 12			; 0000000cH
$LN11@chrSelect:
; File C:\Anka2Project\Anka2Project\Source\Binary\source\UserInterface\PythonCharacterModule.cpp

; 248  : 	CInstanceBase * pkInst = CPythonCharacterManager::Instance().GetInstancePtr(iVirtualID);

  0004f	8b 41 04	 mov	 eax, DWORD PTR [ecx+4]
  00052	83 c1 04	 add	 ecx, 4
  00055	ff 75 fc	 push	 DWORD PTR _iVirtualID$[ebp]
  00058	ff 50 08	 call	 DWORD PTR [eax+8]
  0005b	8b f0		 mov	 esi, eax

; 249  : 
; 250  : 	if (!pkInst)

  0005d	85 f6		 test	 esi, esi
  0005f	74 58		 je	 SHORT $LN7@chrSelect
; File C:\Anka2Project\Anka2Project\Source\Binary\source\eterBase\Singleton.h

; 26   : 		assert(ms_singleton);

  00061	8b 15 00 00 00
	00		 mov	 edx, DWORD PTR ?ms_singleton@?$CSingleton@VCPythonNonPlayer@@@@0PAVCPythonNonPlayer@@A ; CSingleton<CPythonNonPlayer>::ms_singleton
  00067	85 d2		 test	 edx, edx
  00069	75 1a		 jne	 SHORT $LN14@chrSelect
  0006b	6a 1a		 push	 26			; 0000001aH
  0006d	68 00 00 00 00	 push	 OFFSET ??_C@_1IO@CAJLEEOI@?$AAC?$AA?3?$AA?2?$AAA?$AAn?$AAk?$AAa?$AA2?$AAP?$AAr?$AAo?$AAj?$AAe?$AAc?$AAt@
  00072	68 00 00 00 00	 push	 OFFSET ??_C@_1BK@FMEHPMFE@?$AAm?$AAs?$AA_?$AAs?$AAi?$AAn?$AAg?$AAl?$AAe?$AAt?$AAo?$AAn@
  00077	e8 00 00 00 00	 call	 __wassert
  0007c	8b 15 00 00 00
	00		 mov	 edx, DWORD PTR ?ms_singleton@?$CSingleton@VCPythonNonPlayer@@@@0PAVCPythonNonPlayer@@A ; CSingleton<CPythonNonPlayer>::ms_singleton
  00082	83 c4 0c	 add	 esp, 12			; 0000000cH
$LN14@chrSelect:
; File C:\Anka2Project\Anka2Project\Source\Binary\source\UserInterface\PythonCharacterModule.cpp

; 253  : 	switch (CPythonNonPlayer::Instance().GetEventType(pkInst->GetVirtualNumber()))

  00085	8b ce		 mov	 ecx, esi
  00087	e8 00 00 00 00	 call	 ?GetVirtualNumber@CInstanceBase@@QAEKXZ ; CInstanceBase::GetVirtualNumber
  0008c	50		 push	 eax
  0008d	8b ca		 mov	 ecx, edx
  0008f	e8 00 00 00 00	 call	 ?GetEventType@CPythonNonPlayer@@QAEEK@Z ; CPythonNonPlayer::GetEventType
  00094	0f b6 c0	 movzx	 eax, al
  00097	83 e8 02	 sub	 eax, 2
  0009a	75 1d		 jne	 SHORT $LN7@chrSelect

; 254  : 	{
; 255  : 		case CPythonNonPlayer::ON_CLICK_EVENT_SHOP:
; 256  : 			pkInst->SetAddRenderMode();

  0009c	8b ce		 mov	 ecx, esi
  0009e	e8 00 00 00 00	 call	 ?SetAddRenderMode@CInstanceBase@@QAEXXZ ; CInstanceBase::SetAddRenderMode
; File C:\Anka2Project\Anka2Project\Source\Binary\extern\include\d3dx8math.inl

; 920  :     r = fr;

  000a3	0f 28 05 00 00
	00 00		 movaps	 xmm0, XMMWORD PTR __xmm@3f800000000000003e99999a00000000
; File C:\Anka2Project\Anka2Project\Source\Binary\source\UserInterface\PythonCharacterModule.cpp

; 257  : 			pkInst->SetAddColor(D3DXCOLOR(0.0f, 0.3f, 0.0f, 1.0f));

  000aa	8d 45 ec	 lea	 eax, DWORD PTR $T3[ebp]
  000ad	50		 push	 eax
  000ae	8b ce		 mov	 ecx, esi
; File C:\Anka2Project\Anka2Project\Source\Binary\extern\include\d3dx8math.inl

; 920  :     r = fr;

  000b0	0f 11 45 ec	 movups	 XMMWORD PTR $T3[ebp], xmm0
; File C:\Anka2Project\Anka2Project\Source\Binary\source\UserInterface\PythonCharacterModule.cpp

; 257  : 			pkInst->SetAddColor(D3DXCOLOR(0.0f, 0.3f, 0.0f, 1.0f));

  000b4	e8 00 00 00 00	 call	 ?SetAddColor@CInstanceBase@@QAEXABUD3DXCOLOR@@@Z ; CInstanceBase::SetAddColor
$LN7@chrSelect:

; 258  : 			break;
; 259  : 
; 260  : 		default:
; 261  : 			break;
; 262  : 	}
; 263  : 
; 264  : 	return Py_BuildNone();
; 265  : }

  000b9	e8 00 00 00 00	 call	 ?Py_BuildNone@@YAPAU_object@@XZ ; Py_BuildNone
  000be	5e		 pop	 esi
  000bf	8b e5		 mov	 esp, ebp
  000c1	5d		 pop	 ebp
  000c2	c3		 ret	 0
?chrSelect@@YAPAU_object@@PAU1@0@Z ENDP			; chrSelect
_TEXT	ENDS
; Function compile flags: /Ogtp
; File C:\Anka2Project\Anka2Project\Source\Binary\source\UserInterface\PythonCharacterModule.cpp
; File C:\Anka2Project\Anka2Project\Source\Binary\source\eterBase\Singleton.h
; File C:\Anka2Project\Anka2Project\Source\Binary\source\UserInterface\PythonCharacterModule.cpp
; File C:\Anka2Project\Anka2Project\Source\Binary\extern\include\d3dx8math.inl
; File C:\Anka2Project\Anka2Project\Source\Binary\source\UserInterface\PythonCharacterModule.cpp
; File C:\Anka2Project\Anka2Project\Source\Binary\extern\include\d3dx8math.inl
; File C:\Anka2Project\Anka2Project\Source\Binary\source\UserInterface\PythonCharacterModule.cpp
; File C:\Anka2Project\Anka2Project\Source\Binary\extern\include\d3dx8math.inl
; File C:\Anka2Project\Anka2Project\Source\Binary\source\UserInterface\PythonCharacterModule.cpp
; File C:\Anka2Project\Anka2Project\Source\Binary\extern\include\d3dx8math.inl
; File C:\Anka2Project\Anka2Project\Source\Binary\source\UserInterface\PythonCharacterModule.cpp
;	COMDAT ?chrSetAddRenderMode@@YAPAU_object@@PAU1@0@Z
_TEXT	SEGMENT
$T2 = -32						; size = 16
_fb$ = -16						; size = 4
_fg$ = -12						; size = 4
_fr$ = -8						; size = 4
_iVirtualID$ = -4					; size = 4
_poSelf$ = 8						; size = 4
_poArgs$ = 12						; size = 4
?chrSetAddRenderMode@@YAPAU_object@@PAU1@0@Z PROC	; chrSetAddRenderMode, COMDAT

; 268  : {

  00000	55		 push	 ebp
  00001	8b ec		 mov	 ebp, esp
  00003	83 ec 24	 sub	 esp, 36			; 00000024H

; 269  : 	int iVirtualID;
; 270  : 	if (!PyTuple_GetInteger(poArgs, 0, &iVirtualID))

  00006	8d 45 fc	 lea	 eax, DWORD PTR _iVirtualID$[ebp]
  00009	56		 push	 esi
  0000a	8b 75 0c	 mov	 esi, DWORD PTR _poArgs$[ebp]
  0000d	50		 push	 eax
  0000e	6a 00		 push	 0
  00010	56		 push	 esi
  00011	e8 00 00 00 00	 call	 ?PyTuple_GetInteger@@YA_NPAU_object@@HPAH@Z ; PyTuple_GetInteger
  00016	83 c4 0c	 add	 esp, 12			; 0000000cH
  00019	84 c0		 test	 al, al
  0001b	75 0f		 jne	 SHORT $LN2@chrSetAddR
$LN14@chrSetAddR:

; 290  : 
; 291  : 	return Py_BuildNone();
; 292  : }

  0001d	6a 00		 push	 0
  0001f	e8 00 00 00 00	 call	 ?Py_BuildException@@YAPAU_object@@PBDZZ ; Py_BuildException
  00024	83 c4 04	 add	 esp, 4
  00027	5e		 pop	 esi
  00028	8b e5		 mov	 esp, ebp
  0002a	5d		 pop	 ebp
  0002b	c3		 ret	 0
$LN2@chrSetAddR:

; 271  : 		return Py_BuildException();
; 272  : 
; 273  : 	float fr;
; 274  : 	if (!PyTuple_GetFloat(poArgs, 1, &fr))

  0002c	8d 45 f8	 lea	 eax, DWORD PTR _fr$[ebp]
  0002f	50		 push	 eax
  00030	6a 01		 push	 1
  00032	56		 push	 esi
  00033	e8 00 00 00 00	 call	 ?PyTuple_GetFloat@@YA_NPAU_object@@HPAM@Z ; PyTuple_GetFloat
  00038	83 c4 0c	 add	 esp, 12			; 0000000cH
  0003b	84 c0		 test	 al, al
  0003d	74 de		 je	 SHORT $LN14@chrSetAddR

; 275  : 		return Py_BuildException();
; 276  : 	float fg;
; 277  : 	if (!PyTuple_GetFloat(poArgs, 2, &fg))

  0003f	8d 45 f4	 lea	 eax, DWORD PTR _fg$[ebp]
  00042	50		 push	 eax
  00043	6a 02		 push	 2
  00045	56		 push	 esi
  00046	e8 00 00 00 00	 call	 ?PyTuple_GetFloat@@YA_NPAU_object@@HPAM@Z ; PyTuple_GetFloat
  0004b	83 c4 0c	 add	 esp, 12			; 0000000cH
  0004e	84 c0		 test	 al, al
  00050	74 cb		 je	 SHORT $LN14@chrSetAddR

; 278  : 		return Py_BuildException();
; 279  : 	float fb;
; 280  : 	if (!PyTuple_GetFloat(poArgs, 3, &fb))

  00052	8d 45 f0	 lea	 eax, DWORD PTR _fb$[ebp]
  00055	50		 push	 eax
  00056	6a 03		 push	 3
  00058	56		 push	 esi
  00059	e8 00 00 00 00	 call	 ?PyTuple_GetFloat@@YA_NPAU_object@@HPAM@Z ; PyTuple_GetFloat
  0005e	83 c4 0c	 add	 esp, 12			; 0000000cH
  00061	84 c0		 test	 al, al
  00063	74 b8		 je	 SHORT $LN14@chrSetAddR
; File C:\Anka2Project\Anka2Project\Source\Binary\source\eterBase\Singleton.h

; 26   : 		assert(ms_singleton);

  00065	8b 0d 00 00 00
	00		 mov	 ecx, DWORD PTR ?ms_singleton@?$CSingleton@VCPythonCharacterManager@@@@0PAVCPythonCharacterManager@@A ; CSingleton<CPythonCharacterManager>::ms_singleton
  0006b	85 c9		 test	 ecx, ecx
  0006d	75 1a		 jne	 SHORT $LN10@chrSetAddR
  0006f	6a 1a		 push	 26			; 0000001aH
  00071	68 00 00 00 00	 push	 OFFSET ??_C@_1IO@CAJLEEOI@?$AAC?$AA?3?$AA?2?$AAA?$AAn?$AAk?$AAa?$AA2?$AAP?$AAr?$AAo?$AAj?$AAe?$AAc?$AAt@
  00076	68 00 00 00 00	 push	 OFFSET ??_C@_1BK@FMEHPMFE@?$AAm?$AAs?$AA_?$AAs?$AAi?$AAn?$AAg?$AAl?$AAe?$AAt?$AAo?$AAn@
  0007b	e8 00 00 00 00	 call	 __wassert
  00080	8b 0d 00 00 00
	00		 mov	 ecx, DWORD PTR ?ms_singleton@?$CSingleton@VCPythonCharacterManager@@@@0PAVCPythonCharacterManager@@A ; CSingleton<CPythonCharacterManager>::ms_singleton
  00086	83 c4 0c	 add	 esp, 12			; 0000000cH
$LN10@chrSetAddR:
; File C:\Anka2Project\Anka2Project\Source\Binary\source\UserInterface\PythonCharacterModule.cpp

; 283  : 	CInstanceBase * pkInst = CPythonCharacterManager::Instance().GetInstancePtr(iVirtualID);

  00089	8b 41 04	 mov	 eax, DWORD PTR [ecx+4]
  0008c	83 c1 04	 add	 ecx, 4
  0008f	ff 75 fc	 push	 DWORD PTR _iVirtualID$[ebp]
  00092	ff 50 08	 call	 DWORD PTR [eax+8]
  00095	8b f0		 mov	 esi, eax

; 284  : 
; 285  : 	if (!pkInst)

  00097	85 f6		 test	 esi, esi
  00099	74 37		 je	 SHORT $LN13@chrSetAddR

; 286  : 		return Py_BuildNone();
; 287  : 
; 288  : 	pkInst->SetAddRenderMode();

  0009b	8b ce		 mov	 ecx, esi
  0009d	e8 00 00 00 00	 call	 ?SetAddRenderMode@CInstanceBase@@QAEXXZ ; CInstanceBase::SetAddRenderMode
; File C:\Anka2Project\Anka2Project\Source\Binary\extern\include\d3dx8math.inl

; 920  :     r = fr;

  000a2	f3 0f 10 45 f8	 movss	 xmm0, DWORD PTR _fr$[ebp]
; File C:\Anka2Project\Anka2Project\Source\Binary\source\UserInterface\PythonCharacterModule.cpp

; 289  : 	pkInst->SetAddColor(D3DXCOLOR(fr, fg, fb, 1.0f));

  000a7	8d 45 e0	 lea	 eax, DWORD PTR $T2[ebp]
; File C:\Anka2Project\Anka2Project\Source\Binary\extern\include\d3dx8math.inl

; 920  :     r = fr;

  000aa	f3 0f 11 45 e0	 movss	 DWORD PTR $T2[ebp], xmm0
; File C:\Anka2Project\Anka2Project\Source\Binary\source\UserInterface\PythonCharacterModule.cpp

; 289  : 	pkInst->SetAddColor(D3DXCOLOR(fr, fg, fb, 1.0f));

  000af	8b ce		 mov	 ecx, esi
; File C:\Anka2Project\Anka2Project\Source\Binary\extern\include\d3dx8math.inl

; 921  :     g = fg;

  000b1	f3 0f 10 45 f4	 movss	 xmm0, DWORD PTR _fg$[ebp]
  000b6	f3 0f 11 45 e4	 movss	 DWORD PTR $T2[ebp+4], xmm0

; 922  :     b = fb;

  000bb	f3 0f 10 45 f0	 movss	 xmm0, DWORD PTR _fb$[ebp]
; File C:\Anka2Project\Anka2Project\Source\Binary\source\UserInterface\PythonCharacterModule.cpp

; 289  : 	pkInst->SetAddColor(D3DXCOLOR(fr, fg, fb, 1.0f));

  000c0	50		 push	 eax
; File C:\Anka2Project\Anka2Project\Source\Binary\extern\include\d3dx8math.inl

; 922  :     b = fb;

  000c1	f3 0f 11 45 e8	 movss	 DWORD PTR $T2[ebp+8], xmm0

; 923  :     a = fa;

  000c6	c7 45 ec 00 00
	80 3f		 mov	 DWORD PTR $T2[ebp+12], 1065353216 ; 3f800000H
; File C:\Anka2Project\Anka2Project\Source\Binary\source\UserInterface\PythonCharacterModule.cpp

; 289  : 	pkInst->SetAddColor(D3DXCOLOR(fr, fg, fb, 1.0f));

  000cd	e8 00 00 00 00	 call	 ?SetAddColor@CInstanceBase@@QAEXABUD3DXCOLOR@@@Z ; CInstanceBase::SetAddColor
$LN13@chrSetAddR:

; 290  : 
; 291  : 	return Py_BuildNone();
; 292  : }

  000d2	e8 00 00 00 00	 call	 ?Py_BuildNone@@YAPAU_object@@XZ ; Py_BuildNone
  000d7	5e		 pop	 esi
  000d8	8b e5		 mov	 esp, ebp
  000da	5d		 pop	 ebp
  000db	c3		 ret	 0
?chrSetAddRenderMode@@YAPAU_object@@PAU1@0@Z ENDP	; chrSetAddRenderMode
_TEXT	ENDS
; Function compile flags: /Ogtp
; File C:\Anka2Project\Anka2Project\Source\Binary\source\UserInterface\PythonCharacterModule.cpp
; File C:\Anka2Project\Anka2Project\Source\Binary\source\eterBase\Singleton.h
; File C:\Anka2Project\Anka2Project\Source\Binary\source\UserInterface\PythonCharacterModule.cpp
;	COMDAT ?chrSetBlendRenderMode@@YAPAU_object@@PAU1@0@Z
_TEXT	SEGMENT
_fAlpha$ = -8						; size = 4
_iVirtualID$ = -4					; size = 4
_poSelf$ = 8						; size = 4
_poArgs$ = 12						; size = 4
?chrSetBlendRenderMode@@YAPAU_object@@PAU1@0@Z PROC	; chrSetBlendRenderMode, COMDAT

; 295  : {

  00000	55		 push	 ebp
  00001	8b ec		 mov	 ebp, esp
  00003	83 ec 08	 sub	 esp, 8

; 296  : 	int iVirtualID;
; 297  : 	if (!PyTuple_GetInteger(poArgs, 0, &iVirtualID))

  00006	8d 45 fc	 lea	 eax, DWORD PTR _iVirtualID$[ebp]
  00009	50		 push	 eax
  0000a	6a 00		 push	 0
  0000c	ff 75 0c	 push	 DWORD PTR _poArgs$[ebp]
  0000f	e8 00 00 00 00	 call	 ?PyTuple_GetInteger@@YA_NPAU_object@@HPAH@Z ; PyTuple_GetInteger
  00014	83 c4 0c	 add	 esp, 12			; 0000000cH
  00017	84 c0		 test	 al, al
  00019	75 0e		 jne	 SHORT $LN2@chrSetBlen
$LN10@chrSetBlen:

; 310  : 	
; 311  : 	return Py_BuildNone();
; 312  : }

  0001b	6a 00		 push	 0
  0001d	e8 00 00 00 00	 call	 ?Py_BuildException@@YAPAU_object@@PBDZZ ; Py_BuildException
  00022	83 c4 04	 add	 esp, 4
  00025	8b e5		 mov	 esp, ebp
  00027	5d		 pop	 ebp
  00028	c3		 ret	 0
$LN2@chrSetBlen:

; 298  : 		return Py_BuildException();
; 299  : 
; 300  : 	float fAlpha;
; 301  : 	if (!PyTuple_GetFloat(poArgs, 1, &fAlpha))

  00029	8d 45 f8	 lea	 eax, DWORD PTR _fAlpha$[ebp]
  0002c	50		 push	 eax
  0002d	6a 01		 push	 1
  0002f	ff 75 0c	 push	 DWORD PTR _poArgs$[ebp]
  00032	e8 00 00 00 00	 call	 ?PyTuple_GetFloat@@YA_NPAU_object@@HPAM@Z ; PyTuple_GetFloat
  00037	83 c4 0c	 add	 esp, 12			; 0000000cH
  0003a	84 c0		 test	 al, al
  0003c	74 dd		 je	 SHORT $LN10@chrSetBlen
; File C:\Anka2Project\Anka2Project\Source\Binary\source\eterBase\Singleton.h

; 26   : 		assert(ms_singleton);

  0003e	8b 0d 00 00 00
	00		 mov	 ecx, DWORD PTR ?ms_singleton@?$CSingleton@VCPythonCharacterManager@@@@0PAVCPythonCharacterManager@@A ; CSingleton<CPythonCharacterManager>::ms_singleton
  00044	85 c9		 test	 ecx, ecx
  00046	75 1a		 jne	 SHORT $LN8@chrSetBlen
  00048	6a 1a		 push	 26			; 0000001aH
  0004a	68 00 00 00 00	 push	 OFFSET ??_C@_1IO@CAJLEEOI@?$AAC?$AA?3?$AA?2?$AAA?$AAn?$AAk?$AAa?$AA2?$AAP?$AAr?$AAo?$AAj?$AAe?$AAc?$AAt@
  0004f	68 00 00 00 00	 push	 OFFSET ??_C@_1BK@FMEHPMFE@?$AAm?$AAs?$AA_?$AAs?$AAi?$AAn?$AAg?$AAl?$AAe?$AAt?$AAo?$AAn@
  00054	e8 00 00 00 00	 call	 __wassert
  00059	8b 0d 00 00 00
	00		 mov	 ecx, DWORD PTR ?ms_singleton@?$CSingleton@VCPythonCharacterManager@@@@0PAVCPythonCharacterManager@@A ; CSingleton<CPythonCharacterManager>::ms_singleton
  0005f	83 c4 0c	 add	 esp, 12			; 0000000cH
$LN8@chrSetBlen:
; File C:\Anka2Project\Anka2Project\Source\Binary\source\UserInterface\PythonCharacterModule.cpp

; 304  : 	CInstanceBase * pkInst = CPythonCharacterManager::Instance().GetInstancePtr(iVirtualID);

  00062	8b 41 04	 mov	 eax, DWORD PTR [ecx+4]
  00065	83 c1 04	 add	 ecx, 4
  00068	ff 75 fc	 push	 DWORD PTR _iVirtualID$[ebp]
  0006b	ff 50 08	 call	 DWORD PTR [eax+8]

; 305  : 
; 306  : 	if (!pkInst)

  0006e	85 c0		 test	 eax, eax
  00070	74 0c		 je	 SHORT $LN9@chrSetBlen

; 307  : 		return Py_BuildNone();
; 308  : 
; 309  : 	pkInst->SetAlpha(fAlpha);

  00072	f3 0f 10 4d f8	 movss	 xmm1, DWORD PTR _fAlpha$[ebp]
  00077	8b c8		 mov	 ecx, eax
  00079	e8 00 00 00 00	 call	 ?SetAlpha@CInstanceBase@@QAEXM@Z ; CInstanceBase::SetAlpha
$LN9@chrSetBlen:

; 310  : 	
; 311  : 	return Py_BuildNone();
; 312  : }

  0007e	e8 00 00 00 00	 call	 ?Py_BuildNone@@YAPAU_object@@XZ ; Py_BuildNone
  00083	8b e5		 mov	 esp, ebp
  00085	5d		 pop	 ebp
  00086	c3		 ret	 0
?chrSetBlendRenderMode@@YAPAU_object@@PAU1@0@Z ENDP	; chrSetBlendRenderMode
_TEXT	ENDS
; Function compile flags: /Ogtp
; File C:\Anka2Project\Anka2Project\Source\Binary\source\UserInterface\PythonCharacterModule.cpp
; File C:\Anka2Project\Anka2Project\Source\Binary\source\eterBase\Singleton.h
; File C:\Anka2Project\Anka2Project\Source\Binary\source\UserInterface\PythonCharacterModule.cpp
;	COMDAT ?chrUnselect@@YAPAU_object@@PAU1@0@Z
_TEXT	SEGMENT
_iVirtualID$ = -4					; size = 4
_poSelf$ = 8						; size = 4
_poArgs$ = 12						; size = 4
?chrUnselect@@YAPAU_object@@PAU1@0@Z PROC		; chrUnselect, COMDAT

; 315  : {

  00000	55		 push	 ebp
  00001	8b ec		 mov	 ebp, esp
  00003	51		 push	 ecx

; 316  : 	int iVirtualID;
; 317  : 	if (!PyTuple_GetInteger(poArgs, 0, &iVirtualID))

  00004	8d 45 fc	 lea	 eax, DWORD PTR _iVirtualID$[ebp]
  00007	50		 push	 eax
  00008	6a 00		 push	 0
  0000a	ff 75 0c	 push	 DWORD PTR _poArgs$[ebp]
  0000d	e8 00 00 00 00	 call	 ?PyTuple_GetInteger@@YA_NPAU_object@@HPAH@Z ; PyTuple_GetInteger
  00012	83 c4 0c	 add	 esp, 12			; 0000000cH
  00015	84 c0		 test	 al, al
  00017	75 0e		 jne	 SHORT $LN2@chrUnselec

; 318  : 		return Py_BuildException();

  00019	6a 00		 push	 0
  0001b	e8 00 00 00 00	 call	 ?Py_BuildException@@YAPAU_object@@PBDZZ ; Py_BuildException
  00020	83 c4 04	 add	 esp, 4

; 325  : 	return Py_BuildNone();
; 326  : }

  00023	8b e5		 mov	 esp, ebp
  00025	5d		 pop	 ebp
  00026	c3		 ret	 0
$LN2@chrUnselec:
; File C:\Anka2Project\Anka2Project\Source\Binary\source\eterBase\Singleton.h

; 26   : 		assert(ms_singleton);

  00027	8b 0d 00 00 00
	00		 mov	 ecx, DWORD PTR ?ms_singleton@?$CSingleton@VCPythonCharacterManager@@@@0PAVCPythonCharacterManager@@A ; CSingleton<CPythonCharacterManager>::ms_singleton
  0002d	85 c9		 test	 ecx, ecx
  0002f	75 1a		 jne	 SHORT $LN7@chrUnselec
  00031	6a 1a		 push	 26			; 0000001aH
  00033	68 00 00 00 00	 push	 OFFSET ??_C@_1IO@CAJLEEOI@?$AAC?$AA?3?$AA?2?$AAA?$AAn?$AAk?$AAa?$AA2?$AAP?$AAr?$AAo?$AAj?$AAe?$AAc?$AAt@
  00038	68 00 00 00 00	 push	 OFFSET ??_C@_1BK@FMEHPMFE@?$AAm?$AAs?$AA_?$AAs?$AAi?$AAn?$AAg?$AAl?$AAe?$AAt?$AAo?$AAn@
  0003d	e8 00 00 00 00	 call	 __wassert
  00042	8b 0d 00 00 00
	00		 mov	 ecx, DWORD PTR ?ms_singleton@?$CSingleton@VCPythonCharacterManager@@@@0PAVCPythonCharacterManager@@A ; CSingleton<CPythonCharacterManager>::ms_singleton
  00048	83 c4 0c	 add	 esp, 12			; 0000000cH
$LN7@chrUnselec:
; File C:\Anka2Project\Anka2Project\Source\Binary\source\UserInterface\PythonCharacterModule.cpp

; 320  : 	CInstanceBase * pkInst = CPythonCharacterManager::Instance().GetInstancePtr(iVirtualID);

  0004b	8b 41 04	 mov	 eax, DWORD PTR [ecx+4]
  0004e	83 c1 04	 add	 ecx, 4
  00051	ff 75 fc	 push	 DWORD PTR _iVirtualID$[ebp]
  00054	ff 50 08	 call	 DWORD PTR [eax+8]

; 321  : 	if (!pkInst)

  00057	85 c0		 test	 eax, eax
  00059	74 07		 je	 SHORT $LN8@chrUnselec

; 322  : 		return Py_BuildNone();
; 323  : 
; 324  : 	pkInst->RestoreRenderMode();

  0005b	8b c8		 mov	 ecx, eax
  0005d	e8 00 00 00 00	 call	 ?RestoreRenderMode@CInstanceBase@@QAEXXZ ; CInstanceBase::RestoreRenderMode
$LN8@chrUnselec:

; 325  : 	return Py_BuildNone();
; 326  : }

  00062	e8 00 00 00 00	 call	 ?Py_BuildNone@@YAPAU_object@@XZ ; Py_BuildNone
  00067	8b e5		 mov	 esp, ebp
  00069	5d		 pop	 ebp
  0006a	c3		 ret	 0
?chrUnselect@@YAPAU_object@@PAU1@0@Z ENDP		; chrUnselect
_TEXT	ENDS
; Function compile flags: /Ogtp
; File C:\Anka2Project\Anka2Project\Source\Binary\source\UserInterface\PythonCharacterModule.cpp
; File C:\Anka2Project\Anka2Project\Source\Binary\source\eterBase\Singleton.h
; File C:\Anka2Project\Anka2Project\Source\Binary\source\UserInterface\PythonCharacterModule.cpp
; File C:\Anka2Project\Anka2Project\Source\Binary\source\eterBase\Singleton.h
; File C:\Anka2Project\Anka2Project\Source\Binary\source\UserInterface\PythonCharacterModule.cpp
;	COMDAT ?chrPick@@YAPAU_object@@PAU1@0@Z
_TEXT	SEGMENT
_VirtualID$ = -4					; size = 4
_poSelf$ = 8						; size = 4
_poArgs$ = 12						; size = 4
?chrPick@@YAPAU_object@@PAU1@0@Z PROC			; chrPick, COMDAT

; 329  : {

  00000	55		 push	 ebp
  00001	8b ec		 mov	 ebp, esp
  00003	51		 push	 ecx
; File C:\Anka2Project\Anka2Project\Source\Binary\source\eterBase\Singleton.h

; 26   : 		assert(ms_singleton);

  00004	8b 0d 00 00 00
	00		 mov	 ecx, DWORD PTR ?ms_singleton@?$CSingleton@VCPythonCharacterManager@@@@0PAVCPythonCharacterManager@@A ; CSingleton<CPythonCharacterManager>::ms_singleton
; File C:\Anka2Project\Anka2Project\Source\Binary\source\UserInterface\PythonCharacterModule.cpp

; 330  : 	DWORD VirtualID = 0;

  0000a	c7 45 fc 00 00
	00 00		 mov	 DWORD PTR _VirtualID$[ebp], 0
; File C:\Anka2Project\Anka2Project\Source\Binary\source\eterBase\Singleton.h

; 26   : 		assert(ms_singleton);

  00011	85 c9		 test	 ecx, ecx
  00013	75 1a		 jne	 SHORT $LN7@chrPick
  00015	6a 1a		 push	 26			; 0000001aH
  00017	68 00 00 00 00	 push	 OFFSET ??_C@_1IO@CAJLEEOI@?$AAC?$AA?3?$AA?2?$AAA?$AAn?$AAk?$AAa?$AA2?$AAP?$AAr?$AAo?$AAj?$AAe?$AAc?$AAt@
  0001c	68 00 00 00 00	 push	 OFFSET ??_C@_1BK@FMEHPMFE@?$AAm?$AAs?$AA_?$AAs?$AAi?$AAn?$AAg?$AAl?$AAe?$AAt?$AAo?$AAn@
  00021	e8 00 00 00 00	 call	 __wassert
  00026	8b 0d 00 00 00
	00		 mov	 ecx, DWORD PTR ?ms_singleton@?$CSingleton@VCPythonCharacterManager@@@@0PAVCPythonCharacterManager@@A ; CSingleton<CPythonCharacterManager>::ms_singleton
  0002c	83 c4 0c	 add	 esp, 12			; 0000000cH
$LN7@chrPick:
; File C:\Anka2Project\Anka2Project\Source\Binary\source\UserInterface\PythonCharacterModule.cpp

; 331  : 	if (CPythonCharacterManager::Instance().OLD_GetPickedInstanceVID(&VirtualID))

  0002f	8d 45 fc	 lea	 eax, DWORD PTR _VirtualID$[ebp]
  00032	50		 push	 eax
  00033	e8 00 00 00 00	 call	 ?OLD_GetPickedInstanceVID@CPythonCharacterManager@@QAE_NPAK@Z ; CPythonCharacterManager::OLD_GetPickedInstanceVID
  00038	84 c0		 test	 al, al
  0003a	74 15		 je	 SHORT $LN2@chrPick

; 332  : 		return Py_BuildValue("i", VirtualID);

  0003c	ff 75 fc	 push	 DWORD PTR _VirtualID$[ebp]

; 335  : }

  0003f	68 00 00 00 00	 push	 OFFSET ??_C@_01KBJDNOO@i@
  00044	ff 15 00 00 00
	00		 call	 DWORD PTR __imp__Py_BuildValue
  0004a	83 c4 08	 add	 esp, 8
  0004d	8b e5		 mov	 esp, ebp
  0004f	5d		 pop	 ebp
  00050	c3		 ret	 0
$LN2@chrPick:

; 333  : 	else
; 334  : 		return Py_BuildValue("i", -1);

  00051	6a ff		 push	 -1

; 335  : }

  00053	68 00 00 00 00	 push	 OFFSET ??_C@_01KBJDNOO@i@
  00058	ff 15 00 00 00
	00		 call	 DWORD PTR __imp__Py_BuildValue
  0005e	83 c4 08	 add	 esp, 8
  00061	8b e5		 mov	 esp, ebp
  00063	5d		 pop	 ebp
  00064	c3		 ret	 0
?chrPick@@YAPAU_object@@PAU1@0@Z ENDP			; chrPick
_TEXT	ENDS
; Function compile flags: /Ogtp
; File C:\Anka2Project\Anka2Project\Source\Binary\source\UserInterface\PythonCharacterModule.cpp
; File C:\Anka2Project\Anka2Project\Source\Binary\source\eterBase\Singleton.h
; File C:\Anka2Project\Anka2Project\Source\Binary\source\UserInterface\PythonCharacterModule.cpp
;	COMDAT ?chrPickAll@@YAPAU_object@@PAU1@0@Z
_TEXT	SEGMENT
_poSelf$ = 8						; size = 4
_poArgs$ = 12						; size = 4
?chrPickAll@@YAPAU_object@@PAU1@0@Z PROC		; chrPickAll, COMDAT
; File C:\Anka2Project\Anka2Project\Source\Binary\source\eterBase\Singleton.h

; 26   : 		assert(ms_singleton);

  00000	8b 0d 00 00 00
	00		 mov	 ecx, DWORD PTR ?ms_singleton@?$CSingleton@VCPythonCharacterManager@@@@0PAVCPythonCharacterManager@@A ; CSingleton<CPythonCharacterManager>::ms_singleton
  00006	85 c9		 test	 ecx, ecx
  00008	75 1a		 jne	 SHORT $LN5@chrPickAll
  0000a	6a 1a		 push	 26			; 0000001aH
  0000c	68 00 00 00 00	 push	 OFFSET ??_C@_1IO@CAJLEEOI@?$AAC?$AA?3?$AA?2?$AAA?$AAn?$AAk?$AAa?$AA2?$AAP?$AAr?$AAo?$AAj?$AAe?$AAc?$AAt@
  00011	68 00 00 00 00	 push	 OFFSET ??_C@_1BK@FMEHPMFE@?$AAm?$AAs?$AA_?$AAs?$AAi?$AAn?$AAg?$AAl?$AAe?$AAt?$AAo?$AAn@
  00016	e8 00 00 00 00	 call	 __wassert
  0001b	8b 0d 00 00 00
	00		 mov	 ecx, DWORD PTR ?ms_singleton@?$CSingleton@VCPythonCharacterManager@@@@0PAVCPythonCharacterManager@@A ; CSingleton<CPythonCharacterManager>::ms_singleton
  00021	83 c4 0c	 add	 esp, 12			; 0000000cH
$LN5@chrPickAll:
; File C:\Anka2Project\Anka2Project\Source\Binary\source\UserInterface\PythonCharacterModule.cpp

; 359  : 	DWORD VirtualID = CPythonCharacterManager::Instance().PickAll();

  00024	e8 00 00 00 00	 call	 ?PickAll@CPythonCharacterManager@@QAEHXZ ; CPythonCharacterManager::PickAll

; 360  : 	return Py_BuildValue("i", VirtualID);

  00029	50		 push	 eax
  0002a	68 00 00 00 00	 push	 OFFSET ??_C@_01KBJDNOO@i@
  0002f	ff 15 00 00 00
	00		 call	 DWORD PTR __imp__Py_BuildValue
  00035	83 c4 08	 add	 esp, 8

; 361  : }

  00038	c3		 ret	 0
?chrPickAll@@YAPAU_object@@PAU1@0@Z ENDP		; chrPickAll
_TEXT	ENDS
; Function compile flags: /Ogtp
; File C:\Anka2Project\Anka2Project\Source\Binary\source\UserInterface\PythonCharacterModule.cpp
; File C:\Anka2Project\Anka2Project\Source\Binary\source\eterBase\Singleton.h
; File C:\Anka2Project\Anka2Project\Source\Binary\source\UserInterface\PythonCharacterModule.cpp
;	COMDAT ?chrAttachEffectByName@@YAPAU_object@@PAU1@0@Z
_TEXT	SEGMENT
_pszEffectName$ = -16					; size = 4
_iParentPartIndex$ = -12				; size = 4
_iLife$ = -8						; size = 4
_pszBoneName$ = -4					; size = 4
_poSelf$ = 8						; size = 4
_poArgs$ = 12						; size = 4
?chrAttachEffectByName@@YAPAU_object@@PAU1@0@Z PROC	; chrAttachEffectByName, COMDAT

; 493  : {

  00000	55		 push	 ebp
  00001	8b ec		 mov	 ebp, esp
  00003	83 ec 10	 sub	 esp, 16			; 00000010H

; 494  : 	int iParentPartIndex;
; 495  : 	if (!PyTuple_GetInteger(poArgs, 0, &iParentPartIndex))

  00006	8d 45 f4	 lea	 eax, DWORD PTR _iParentPartIndex$[ebp]
  00009	56		 push	 esi
  0000a	8b 75 0c	 mov	 esi, DWORD PTR _poArgs$[ebp]
  0000d	50		 push	 eax
  0000e	6a 00		 push	 0
  00010	56		 push	 esi
  00011	e8 00 00 00 00	 call	 ?PyTuple_GetInteger@@YA_NPAU_object@@HPAH@Z ; PyTuple_GetInteger
  00016	83 c4 0c	 add	 esp, 12			; 0000000cH
  00019	84 c0		 test	 al, al
  0001b	75 0f		 jne	 SHORT $LN2@chrAttachE
$LN19@chrAttachE:

; 517  : 
; 518  : 	if (!pkInst)
; 519  : 		return Py_BuildNone();
; 520  : 
; 521  : 	return Py_BuildNone();
; 522  : }

  0001d	6a 00		 push	 0
  0001f	e8 00 00 00 00	 call	 ?Py_BuildException@@YAPAU_object@@PBDZZ ; Py_BuildException
  00024	83 c4 04	 add	 esp, 4
  00027	5e		 pop	 esi
  00028	8b e5		 mov	 esp, ebp
  0002a	5d		 pop	 ebp
  0002b	c3		 ret	 0
$LN2@chrAttachE:

; 496  : 		return Py_BuildException();
; 497  : 
; 498  : 	char *pszBoneName;
; 499  : 	if (!PyTuple_GetString(poArgs, 1, &pszBoneName))

  0002c	8d 45 fc	 lea	 eax, DWORD PTR _pszBoneName$[ebp]
  0002f	50		 push	 eax
  00030	6a 01		 push	 1
  00032	56		 push	 esi
  00033	e8 00 00 00 00	 call	 ?PyTuple_GetString@@YA_NPAU_object@@HPAPAD@Z ; PyTuple_GetString
  00038	83 c4 0c	 add	 esp, 12			; 0000000cH
  0003b	84 c0		 test	 al, al
  0003d	75 07		 jne	 SHORT $LN3@chrAttachE

; 500  : 	{
; 501  : 		pszBoneName = nullptr;

  0003f	c7 45 fc 00 00
	00 00		 mov	 DWORD PTR _pszBoneName$[ebp], 0
$LN3@chrAttachE:

; 502  : 	}
; 503  : 
; 504  : 	char *pszEffectName;
; 505  : 	if (!PyTuple_GetString(poArgs, 2, &pszEffectName))

  00046	8d 45 f0	 lea	 eax, DWORD PTR _pszEffectName$[ebp]
  00049	50		 push	 eax
  0004a	6a 02		 push	 2
  0004c	56		 push	 esi
  0004d	e8 00 00 00 00	 call	 ?PyTuple_GetString@@YA_NPAU_object@@HPAPAD@Z ; PyTuple_GetString
  00052	83 c4 0c	 add	 esp, 12			; 0000000cH
  00055	84 c0		 test	 al, al
  00057	74 c4		 je	 SHORT $LN19@chrAttachE

; 506  : 		return Py_BuildException();
; 507  : 
; 508  : 	int iLife = CActorInstance::EFFECT_LIFE_INFINITE;
; 509  : 
; 510  : 	if (PyTuple_Size(poArgs)==4)

  00059	56		 push	 esi
  0005a	c7 45 f8 01 00
	00 00		 mov	 DWORD PTR _iLife$[ebp], 1
  00061	ff 15 00 00 00
	00		 call	 DWORD PTR __imp__PyTuple_Size
  00067	83 c4 04	 add	 esp, 4
  0006a	83 f8 04	 cmp	 eax, 4
  0006d	75 13		 jne	 SHORT $LN6@chrAttachE

; 511  : 	{
; 512  : 		if (!PyTuple_GetInteger(poArgs, 3, &iLife))

  0006f	8d 45 f8	 lea	 eax, DWORD PTR _iLife$[ebp]
  00072	50		 push	 eax
  00073	6a 03		 push	 3
  00075	56		 push	 esi
  00076	e8 00 00 00 00	 call	 ?PyTuple_GetInteger@@YA_NPAU_object@@HPAH@Z ; PyTuple_GetInteger
  0007b	83 c4 0c	 add	 esp, 12			; 0000000cH
  0007e	84 c0		 test	 al, al
  00080	74 9b		 je	 SHORT $LN19@chrAttachE
$LN6@chrAttachE:
; File C:\Anka2Project\Anka2Project\Source\Binary\source\eterBase\Singleton.h

; 26   : 		assert(ms_singleton);

  00082	8b 0d 00 00 00
	00		 mov	 ecx, DWORD PTR ?ms_singleton@?$CSingleton@VCPythonCharacterManager@@@@0PAVCPythonCharacterManager@@A ; CSingleton<CPythonCharacterManager>::ms_singleton
  00088	85 c9		 test	 ecx, ecx
  0008a	75 1a		 jne	 SHORT $LN11@chrAttachE
  0008c	6a 1a		 push	 26			; 0000001aH
  0008e	68 00 00 00 00	 push	 OFFSET ??_C@_1IO@CAJLEEOI@?$AAC?$AA?3?$AA?2?$AAA?$AAn?$AAk?$AAa?$AA2?$AAP?$AAr?$AAo?$AAj?$AAe?$AAc?$AAt@
  00093	68 00 00 00 00	 push	 OFFSET ??_C@_1BK@FMEHPMFE@?$AAm?$AAs?$AA_?$AAs?$AAi?$AAn?$AAg?$AAl?$AAe?$AAt?$AAo?$AAn@
  00098	e8 00 00 00 00	 call	 __wassert
  0009d	8b 0d 00 00 00
	00		 mov	 ecx, DWORD PTR ?ms_singleton@?$CSingleton@VCPythonCharacterManager@@@@0PAVCPythonCharacterManager@@A ; CSingleton<CPythonCharacterManager>::ms_singleton
  000a3	83 c4 0c	 add	 esp, 12			; 0000000cH
$LN11@chrAttachE:
; File C:\Anka2Project\Anka2Project\Source\Binary\source\UserInterface\PythonCharacterModule.cpp

; 516  : 	CInstanceBase * pkInst = CPythonCharacterManager::Instance().GetSelectedInstancePtr();

  000a6	e8 00 00 00 00	 call	 ?GetSelectedInstancePtr@CPythonCharacterManager@@QAEPAVCInstanceBase@@XZ ; CPythonCharacterManager::GetSelectedInstancePtr

; 517  : 
; 518  : 	if (!pkInst)
; 519  : 		return Py_BuildNone();
; 520  : 
; 521  : 	return Py_BuildNone();
; 522  : }

  000ab	e8 00 00 00 00	 call	 ?Py_BuildNone@@YAPAU_object@@XZ ; Py_BuildNone
  000b0	5e		 pop	 esi
  000b1	8b e5		 mov	 esp, ebp
  000b3	5d		 pop	 ebp
  000b4	c3		 ret	 0
?chrAttachEffectByName@@YAPAU_object@@PAU1@0@Z ENDP	; chrAttachEffectByName
_TEXT	ENDS
; Function compile flags: /Ogtp
; File C:\Anka2Project\Anka2Project\Source\Binary\source\UserInterface\PythonCharacterModule.cpp
; File C:\Anka2Project\Anka2Project\Source\Binary\source\eterBase\Singleton.h
; File C:\Anka2Project\Anka2Project\Source\Binary\source\UserInterface\PythonCharacterModule.cpp
;	COMDAT ?chrAttachEffectByID@@YAPAU_object@@PAU1@0@Z
_TEXT	SEGMENT
_iEffectID$ = -16					; size = 4
_iParentPartIndex$ = -12				; size = 4
_iLife$ = -8						; size = 4
_pszBoneName$ = -4					; size = 4
_poSelf$ = 8						; size = 4
_poArgs$ = 12						; size = 4
?chrAttachEffectByID@@YAPAU_object@@PAU1@0@Z PROC	; chrAttachEffectByID, COMDAT

; 525  : {

  00000	55		 push	 ebp
  00001	8b ec		 mov	 ebp, esp
  00003	83 ec 10	 sub	 esp, 16			; 00000010H

; 526  : 	int iParentPartIndex;
; 527  : 	if (!PyTuple_GetInteger(poArgs, 0, &iParentPartIndex))

  00006	8d 45 f4	 lea	 eax, DWORD PTR _iParentPartIndex$[ebp]
  00009	56		 push	 esi
  0000a	8b 75 0c	 mov	 esi, DWORD PTR _poArgs$[ebp]
  0000d	50		 push	 eax
  0000e	6a 00		 push	 0
  00010	56		 push	 esi
  00011	e8 00 00 00 00	 call	 ?PyTuple_GetInteger@@YA_NPAU_object@@HPAH@Z ; PyTuple_GetInteger
  00016	83 c4 0c	 add	 esp, 12			; 0000000cH
  00019	84 c0		 test	 al, al
  0001b	75 0f		 jne	 SHORT $LN2@chrAttachE
$LN19@chrAttachE:

; 549  : 
; 550  : 	if (!pkInst)
; 551  : 		return Py_BuildNone();
; 552  : 
; 553  : 	return Py_BuildNone();
; 554  : }

  0001d	6a 00		 push	 0
  0001f	e8 00 00 00 00	 call	 ?Py_BuildException@@YAPAU_object@@PBDZZ ; Py_BuildException
  00024	83 c4 04	 add	 esp, 4
  00027	5e		 pop	 esi
  00028	8b e5		 mov	 esp, ebp
  0002a	5d		 pop	 ebp
  0002b	c3		 ret	 0
$LN2@chrAttachE:

; 528  : 		return Py_BuildException();
; 529  : 
; 530  : 	char *pszBoneName;
; 531  : 	if (!PyTuple_GetString(poArgs, 1, &pszBoneName))

  0002c	8d 45 fc	 lea	 eax, DWORD PTR _pszBoneName$[ebp]
  0002f	50		 push	 eax
  00030	6a 01		 push	 1
  00032	56		 push	 esi
  00033	e8 00 00 00 00	 call	 ?PyTuple_GetString@@YA_NPAU_object@@HPAPAD@Z ; PyTuple_GetString
  00038	83 c4 0c	 add	 esp, 12			; 0000000cH
  0003b	84 c0		 test	 al, al
  0003d	75 07		 jne	 SHORT $LN3@chrAttachE

; 532  : 	{
; 533  : 		pszBoneName = nullptr;

  0003f	c7 45 fc 00 00
	00 00		 mov	 DWORD PTR _pszBoneName$[ebp], 0
$LN3@chrAttachE:

; 534  : 	}
; 535  : 
; 536  : 	int iEffectID;
; 537  : 	if (!PyTuple_GetInteger(poArgs, 2, &iEffectID))

  00046	8d 45 f0	 lea	 eax, DWORD PTR _iEffectID$[ebp]
  00049	50		 push	 eax
  0004a	6a 02		 push	 2
  0004c	56		 push	 esi
  0004d	e8 00 00 00 00	 call	 ?PyTuple_GetInteger@@YA_NPAU_object@@HPAH@Z ; PyTuple_GetInteger
  00052	83 c4 0c	 add	 esp, 12			; 0000000cH
  00055	84 c0		 test	 al, al
  00057	74 c4		 je	 SHORT $LN19@chrAttachE

; 538  : 		return Py_BuildException();
; 539  : 
; 540  : 	int iLife = CActorInstance::EFFECT_LIFE_INFINITE;
; 541  : 
; 542  : 	if (PyTuple_Size(poArgs)==4)

  00059	56		 push	 esi
  0005a	c7 45 f8 01 00
	00 00		 mov	 DWORD PTR _iLife$[ebp], 1
  00061	ff 15 00 00 00
	00		 call	 DWORD PTR __imp__PyTuple_Size
  00067	83 c4 04	 add	 esp, 4
  0006a	83 f8 04	 cmp	 eax, 4
  0006d	75 13		 jne	 SHORT $LN6@chrAttachE

; 543  : 	{
; 544  : 		if (!PyTuple_GetInteger(poArgs, 3, &iLife))

  0006f	8d 45 f8	 lea	 eax, DWORD PTR _iLife$[ebp]
  00072	50		 push	 eax
  00073	6a 03		 push	 3
  00075	56		 push	 esi
  00076	e8 00 00 00 00	 call	 ?PyTuple_GetInteger@@YA_NPAU_object@@HPAH@Z ; PyTuple_GetInteger
  0007b	83 c4 0c	 add	 esp, 12			; 0000000cH
  0007e	84 c0		 test	 al, al
  00080	74 9b		 je	 SHORT $LN19@chrAttachE
$LN6@chrAttachE:
; File C:\Anka2Project\Anka2Project\Source\Binary\source\eterBase\Singleton.h

; 26   : 		assert(ms_singleton);

  00082	8b 0d 00 00 00
	00		 mov	 ecx, DWORD PTR ?ms_singleton@?$CSingleton@VCPythonCharacterManager@@@@0PAVCPythonCharacterManager@@A ; CSingleton<CPythonCharacterManager>::ms_singleton
  00088	85 c9		 test	 ecx, ecx
  0008a	75 1a		 jne	 SHORT $LN11@chrAttachE
  0008c	6a 1a		 push	 26			; 0000001aH
  0008e	68 00 00 00 00	 push	 OFFSET ??_C@_1IO@CAJLEEOI@?$AAC?$AA?3?$AA?2?$AAA?$AAn?$AAk?$AAa?$AA2?$AAP?$AAr?$AAo?$AAj?$AAe?$AAc?$AAt@
  00093	68 00 00 00 00	 push	 OFFSET ??_C@_1BK@FMEHPMFE@?$AAm?$AAs?$AA_?$AAs?$AAi?$AAn?$AAg?$AAl?$AAe?$AAt?$AAo?$AAn@
  00098	e8 00 00 00 00	 call	 __wassert
  0009d	8b 0d 00 00 00
	00		 mov	 ecx, DWORD PTR ?ms_singleton@?$CSingleton@VCPythonCharacterManager@@@@0PAVCPythonCharacterManager@@A ; CSingleton<CPythonCharacterManager>::ms_singleton
  000a3	83 c4 0c	 add	 esp, 12			; 0000000cH
$LN11@chrAttachE:
; File C:\Anka2Project\Anka2Project\Source\Binary\source\UserInterface\PythonCharacterModule.cpp

; 548  : 	CInstanceBase * pkInst = CPythonCharacterManager::Instance().GetSelectedInstancePtr();

  000a6	e8 00 00 00 00	 call	 ?GetSelectedInstancePtr@CPythonCharacterManager@@QAEPAVCInstanceBase@@XZ ; CPythonCharacterManager::GetSelectedInstancePtr

; 549  : 
; 550  : 	if (!pkInst)
; 551  : 		return Py_BuildNone();
; 552  : 
; 553  : 	return Py_BuildNone();
; 554  : }

  000ab	e8 00 00 00 00	 call	 ?Py_BuildNone@@YAPAU_object@@XZ ; Py_BuildNone
  000b0	5e		 pop	 esi
  000b1	8b e5		 mov	 esp, ebp
  000b3	5d		 pop	 ebp
  000b4	c3		 ret	 0
?chrAttachEffectByID@@YAPAU_object@@PAU1@0@Z ENDP	; chrAttachEffectByID
_TEXT	ENDS
; Function compile flags: /Ogtp
; File C:\Anka2Project\Anka2Project\Source\Binary\source\UserInterface\PythonCharacterModule.cpp
; File C:\Anka2Project\Anka2Project\Source\Binary\source\eterBase\Singleton.h
; File C:\Anka2Project\Anka2Project\Source\Binary\source\UserInterface\PythonCharacterModule.cpp
;	COMDAT ?chrGetPixelPosition@@YAPAU_object@@PAU1@0@Z
_TEXT	SEGMENT
_iVirtualID$ = -16					; size = 4
_PixelPosition$ = -12					; size = 12
_poSelf$ = 8						; size = 4
_poArgs$ = 12						; size = 4
?chrGetPixelPosition@@YAPAU_object@@PAU1@0@Z PROC	; chrGetPixelPosition, COMDAT

; 741  : {

  00000	55		 push	 ebp
  00001	8b ec		 mov	 ebp, esp
  00003	83 e4 c0	 and	 esp, -64		; ffffffc0H
  00006	83 ec 40	 sub	 esp, 64			; 00000040H

; 742  : 	int iVirtualID;
; 743  : 	if (!PyTuple_GetInteger(poArgs, 0, &iVirtualID))

  00009	8d 44 24 30	 lea	 eax, DWORD PTR _iVirtualID$[esp+64]
  0000d	50		 push	 eax
  0000e	6a 00		 push	 0
  00010	ff 75 0c	 push	 DWORD PTR _poArgs$[ebp]
  00013	e8 00 00 00 00	 call	 ?PyTuple_GetInteger@@YA_NPAU_object@@HPAH@Z ; PyTuple_GetInteger
  00018	83 c4 0c	 add	 esp, 12			; 0000000cH
  0001b	84 c0		 test	 al, al
  0001d	75 0e		 jne	 SHORT $LN2@chrGetPixe
$LN8@chrGetPixe:

; 755  : }

  0001f	6a 00		 push	 0
  00021	e8 00 00 00 00	 call	 ?Py_BuildException@@YAPAU_object@@PBDZZ ; Py_BuildException
  00026	83 c4 04	 add	 esp, 4
  00029	8b e5		 mov	 esp, ebp
  0002b	5d		 pop	 ebp
  0002c	c3		 ret	 0
$LN2@chrGetPixe:
; File C:\Anka2Project\Anka2Project\Source\Binary\source\eterBase\Singleton.h

; 26   : 		assert(ms_singleton);

  0002d	8b 0d 00 00 00
	00		 mov	 ecx, DWORD PTR ?ms_singleton@?$CSingleton@VCPythonCharacterManager@@@@0PAVCPythonCharacterManager@@A ; CSingleton<CPythonCharacterManager>::ms_singleton
  00033	85 c9		 test	 ecx, ecx
  00035	75 1a		 jne	 SHORT $LN7@chrGetPixe
  00037	6a 1a		 push	 26			; 0000001aH
  00039	68 00 00 00 00	 push	 OFFSET ??_C@_1IO@CAJLEEOI@?$AAC?$AA?3?$AA?2?$AAA?$AAn?$AAk?$AAa?$AA2?$AAP?$AAr?$AAo?$AAj?$AAe?$AAc?$AAt@
  0003e	68 00 00 00 00	 push	 OFFSET ??_C@_1BK@FMEHPMFE@?$AAm?$AAs?$AA_?$AAs?$AAi?$AAn?$AAg?$AAl?$AAe?$AAt?$AAo?$AAn@
  00043	e8 00 00 00 00	 call	 __wassert
  00048	8b 0d 00 00 00
	00		 mov	 ecx, DWORD PTR ?ms_singleton@?$CSingleton@VCPythonCharacterManager@@@@0PAVCPythonCharacterManager@@A ; CSingleton<CPythonCharacterManager>::ms_singleton
  0004e	83 c4 0c	 add	 esp, 12			; 0000000cH
$LN7@chrGetPixe:
; File C:\Anka2Project\Anka2Project\Source\Binary\source\UserInterface\PythonCharacterModule.cpp

; 746  : 	CInstanceBase * pkInst = CPythonCharacterManager::Instance().GetInstancePtr(iVirtualID);

  00051	8b 41 04	 mov	 eax, DWORD PTR [ecx+4]
  00054	83 c1 04	 add	 ecx, 4
  00057	ff 74 24 30	 push	 DWORD PTR _iVirtualID$[esp+64]
  0005b	ff 50 08	 call	 DWORD PTR [eax+8]

; 747  : 
; 748  : 	if (!pkInst)

  0005e	85 c0		 test	 eax, eax
  00060	74 bd		 je	 SHORT $LN8@chrGetPixe

; 749  : 		return Py_BuildException();
; 750  : 
; 751  : 	TPixelPosition PixelPosition;
; 752  : 	pkInst->NEW_GetPixelPosition(&PixelPosition);

  00062	8d 4c 24 34	 lea	 ecx, DWORD PTR _PixelPosition$[esp+64]
  00066	51		 push	 ecx
  00067	8b c8		 mov	 ecx, eax
  00069	e8 00 00 00 00	 call	 ?NEW_GetPixelPosition@CInstanceBase@@QAEXPAUD3DXVECTOR3@@@Z ; CInstanceBase::NEW_GetPixelPosition
  0006e	f3 0f 10 44 24
	3c		 movss	 xmm0, DWORD PTR _PixelPosition$[esp+72]

; 753  : 
; 754  : 	return Py_BuildValue("fff", PixelPosition.x, PixelPosition.y, PixelPosition.z);

  00074	83 ec 18	 sub	 esp, 24			; 00000018H
  00077	0f 5a c0	 cvtps2pd xmm0, xmm0
  0007a	f2 0f 11 44 24
	10		 movsd	 QWORD PTR [esp+16], xmm0
  00080	f3 0f 10 44 24
	50		 movss	 xmm0, DWORD PTR _PixelPosition$[esp+92]
  00086	0f 5a c0	 cvtps2pd xmm0, xmm0
  00089	f2 0f 11 44 24
	08		 movsd	 QWORD PTR [esp+8], xmm0
  0008f	f3 0f 10 44 24
	4c		 movss	 xmm0, DWORD PTR _PixelPosition$[esp+88]
  00095	0f 5a c0	 cvtps2pd xmm0, xmm0
  00098	f2 0f 11 04 24	 movsd	 QWORD PTR [esp], xmm0
  0009d	68 00 00 00 00	 push	 OFFSET ??_C@_03LPALPDIP@fff@
  000a2	ff 15 00 00 00
	00		 call	 DWORD PTR __imp__Py_BuildValue
  000a8	83 c4 1c	 add	 esp, 28			; 0000001cH

; 755  : }

  000ab	8b e5		 mov	 esp, ebp
  000ad	5d		 pop	 ebp
  000ae	c3		 ret	 0
?chrGetPixelPosition@@YAPAU_object@@PAU1@0@Z ENDP	; chrGetPixelPosition
_TEXT	ENDS
; Function compile flags: /Ogtp
; File C:\Anka2Project\Anka2Project\Source\Binary\source\UserInterface\PythonCharacterModule.cpp
; File C:\Anka2Project\Anka2Project\Source\Binary\source\eterBase\Singleton.h
; File C:\Anka2Project\Anka2Project\Source\Binary\source\UserInterface\PythonCharacterModule.cpp
;	COMDAT ?chrGetRotation@@YAPAU_object@@PAU1@0@Z
_TEXT	SEGMENT
_poSelf$ = 8						; size = 4
_poArgs$ = 12						; size = 4
?chrGetRotation@@YAPAU_object@@PAU1@0@Z PROC		; chrGetRotation, COMDAT

; 816  : {

  00000	55		 push	 ebp
  00001	8b ec		 mov	 ebp, esp
  00003	83 e4 c0	 and	 esp, -64		; ffffffc0H
; File C:\Anka2Project\Anka2Project\Source\Binary\source\eterBase\Singleton.h

; 26   : 		assert(ms_singleton);

  00006	8b 0d 00 00 00
	00		 mov	 ecx, DWORD PTR ?ms_singleton@?$CSingleton@VCPythonCharacterManager@@@@0PAVCPythonCharacterManager@@A ; CSingleton<CPythonCharacterManager>::ms_singleton
  0000c	85 c9		 test	 ecx, ecx
  0000e	75 1a		 jne	 SHORT $LN6@chrGetRota
  00010	6a 1a		 push	 26			; 0000001aH
  00012	68 00 00 00 00	 push	 OFFSET ??_C@_1IO@CAJLEEOI@?$AAC?$AA?3?$AA?2?$AAA?$AAn?$AAk?$AAa?$AA2?$AAP?$AAr?$AAo?$AAj?$AAe?$AAc?$AAt@
  00017	68 00 00 00 00	 push	 OFFSET ??_C@_1BK@FMEHPMFE@?$AAm?$AAs?$AA_?$AAs?$AAi?$AAn?$AAg?$AAl?$AAe?$AAt?$AAo?$AAn@
  0001c	e8 00 00 00 00	 call	 __wassert
  00021	8b 0d 00 00 00
	00		 mov	 ecx, DWORD PTR ?ms_singleton@?$CSingleton@VCPythonCharacterManager@@@@0PAVCPythonCharacterManager@@A ; CSingleton<CPythonCharacterManager>::ms_singleton
  00027	83 c4 0c	 add	 esp, 12			; 0000000cH
$LN6@chrGetRota:
; File C:\Anka2Project\Anka2Project\Source\Binary\source\UserInterface\PythonCharacterModule.cpp

; 817  : 	CInstanceBase * pCharacterInstance = CPythonCharacterManager::Instance().GetSelectedInstancePtr();

  0002a	e8 00 00 00 00	 call	 ?GetSelectedInstancePtr@CPythonCharacterManager@@QAEPAVCInstanceBase@@XZ ; CPythonCharacterManager::GetSelectedInstancePtr

; 818  : 
; 819  : 	if (!pCharacterInstance)

  0002f	85 c0		 test	 eax, eax
  00031	75 05		 jne	 SHORT $LN2@chrGetRota

; 820  : 		return Py_BuildValue("f", 0.0f);

  00033	0f 57 c0	 xorps	 xmm0, xmm0
  00036	eb 16		 jmp	 SHORT $LN7@chrGetRota
$LN2@chrGetRota:

; 821  : 
; 822  : 	float fRotation = pCharacterInstance->GetRotation();

  00038	8b c8		 mov	 ecx, eax
  0003a	e8 00 00 00 00	 call	 ?GetRotation@CInstanceBase@@QAEMXZ ; CInstanceBase::GetRotation

; 823  : 
; 824  : 	return Py_BuildValue("f", 360.0f - fRotation);

  0003f	f3 0f 10 0d 00
	00 00 00	 movss	 xmm1, DWORD PTR __real@43b40000
  00047	f3 0f 5c c8	 subss	 xmm1, xmm0
  0004b	0f 5a c1	 cvtps2pd xmm0, xmm1
$LN7@chrGetRota:

; 825  : }

  0004e	83 ec 08	 sub	 esp, 8
  00051	f2 0f 11 04 24	 movsd	 QWORD PTR [esp], xmm0
  00056	68 00 00 00 00	 push	 OFFSET ??_C@_01INIBCBCB@f@
  0005b	ff 15 00 00 00
	00		 call	 DWORD PTR __imp__Py_BuildValue
  00061	83 c4 0c	 add	 esp, 12			; 0000000cH
  00064	8b e5		 mov	 esp, ebp
  00066	5d		 pop	 ebp
  00067	c3		 ret	 0
?chrGetRotation@@YAPAU_object@@PAU1@0@Z ENDP		; chrGetRotation
_TEXT	ENDS
; Function compile flags: /Ogtp
; File C:\Anka2Project\Anka2Project\Source\Binary\source\UserInterface\PythonCharacterModule.cpp
; File C:\Anka2Project\Anka2Project\Source\Binary\source\eterBase\Singleton.h
; File C:\Anka2Project\Anka2Project\Source\Binary\source\UserInterface\PythonCharacterModule.cpp
;	COMDAT ?chrGetRace@@YAPAU_object@@PAU1@0@Z
_TEXT	SEGMENT
_poSelf$ = 8						; size = 4
_poArgs$ = 12						; size = 4
?chrGetRace@@YAPAU_object@@PAU1@0@Z PROC		; chrGetRace, COMDAT
; File C:\Anka2Project\Anka2Project\Source\Binary\source\eterBase\Singleton.h

; 26   : 		assert(ms_singleton);

  00000	8b 0d 00 00 00
	00		 mov	 ecx, DWORD PTR ?ms_singleton@?$CSingleton@VCPythonCharacterManager@@@@0PAVCPythonCharacterManager@@A ; CSingleton<CPythonCharacterManager>::ms_singleton
  00006	85 c9		 test	 ecx, ecx
  00008	75 1a		 jne	 SHORT $LN6@chrGetRace
  0000a	6a 1a		 push	 26			; 0000001aH
  0000c	68 00 00 00 00	 push	 OFFSET ??_C@_1IO@CAJLEEOI@?$AAC?$AA?3?$AA?2?$AAA?$AAn?$AAk?$AAa?$AA2?$AAP?$AAr?$AAo?$AAj?$AAe?$AAc?$AAt@
  00011	68 00 00 00 00	 push	 OFFSET ??_C@_1BK@FMEHPMFE@?$AAm?$AAs?$AA_?$AAs?$AAi?$AAn?$AAg?$AAl?$AAe?$AAt?$AAo?$AAn@
  00016	e8 00 00 00 00	 call	 __wassert
  0001b	8b 0d 00 00 00
	00		 mov	 ecx, DWORD PTR ?ms_singleton@?$CSingleton@VCPythonCharacterManager@@@@0PAVCPythonCharacterManager@@A ; CSingleton<CPythonCharacterManager>::ms_singleton
  00021	83 c4 0c	 add	 esp, 12			; 0000000cH
$LN6@chrGetRace:
; File C:\Anka2Project\Anka2Project\Source\Binary\source\UserInterface\PythonCharacterModule.cpp

; 829  : 	CInstanceBase * pCharacterInstance = CPythonCharacterManager::Instance().GetSelectedInstancePtr();

  00024	e8 00 00 00 00	 call	 ?GetSelectedInstancePtr@CPythonCharacterManager@@QAEPAVCInstanceBase@@XZ ; CPythonCharacterManager::GetSelectedInstancePtr

; 830  : 
; 831  : 	if (!pCharacterInstance)

  00029	85 c0		 test	 eax, eax
  0002b	75 10		 jne	 SHORT $LN2@chrGetRace

; 832  : 		return Py_BuildValue("i", 0);

  0002d	50		 push	 eax

; 835  : }

  0002e	68 00 00 00 00	 push	 OFFSET ??_C@_01KBJDNOO@i@
  00033	ff 15 00 00 00
	00		 call	 DWORD PTR __imp__Py_BuildValue
  00039	83 c4 08	 add	 esp, 8
  0003c	c3		 ret	 0
$LN2@chrGetRace:

; 833  : 
; 834  : 	return Py_BuildValue("i", pCharacterInstance->GetRace());

  0003d	8b c8		 mov	 ecx, eax
  0003f	e8 00 00 00 00	 call	 ?GetRace@CInstanceBase@@QAEKXZ ; CInstanceBase::GetRace
  00044	50		 push	 eax

; 835  : }

  00045	68 00 00 00 00	 push	 OFFSET ??_C@_01KBJDNOO@i@
  0004a	ff 15 00 00 00
	00		 call	 DWORD PTR __imp__Py_BuildValue
  00050	83 c4 08	 add	 esp, 8
  00053	c3		 ret	 0
?chrGetRace@@YAPAU_object@@PAU1@0@Z ENDP		; chrGetRace
_TEXT	ENDS
; Function compile flags: /Ogtp
; File C:\Anka2Project\Anka2Project\Source\Binary\source\UserInterface\PythonCharacterModule.cpp
; File C:\Anka2Project\Anka2Project\Source\Binary\source\eterBase\Singleton.h
; File C:\Anka2Project\Anka2Project\Source\Binary\source\UserInterface\PythonCharacterModule.cpp
;	COMDAT ?chrGetName@@YAPAU_object@@PAU1@0@Z
_TEXT	SEGMENT
_poSelf$ = 8						; size = 4
_poArgs$ = 12						; size = 4
?chrGetName@@YAPAU_object@@PAU1@0@Z PROC		; chrGetName, COMDAT
; File C:\Anka2Project\Anka2Project\Source\Binary\source\eterBase\Singleton.h

; 26   : 		assert(ms_singleton);

  00000	8b 0d 00 00 00
	00		 mov	 ecx, DWORD PTR ?ms_singleton@?$CSingleton@VCPythonCharacterManager@@@@0PAVCPythonCharacterManager@@A ; CSingleton<CPythonCharacterManager>::ms_singleton
  00006	85 c9		 test	 ecx, ecx
  00008	75 1a		 jne	 SHORT $LN6@chrGetName
  0000a	6a 1a		 push	 26			; 0000001aH
  0000c	68 00 00 00 00	 push	 OFFSET ??_C@_1IO@CAJLEEOI@?$AAC?$AA?3?$AA?2?$AAA?$AAn?$AAk?$AAa?$AA2?$AAP?$AAr?$AAo?$AAj?$AAe?$AAc?$AAt@
  00011	68 00 00 00 00	 push	 OFFSET ??_C@_1BK@FMEHPMFE@?$AAm?$AAs?$AA_?$AAs?$AAi?$AAn?$AAg?$AAl?$AAe?$AAt?$AAo?$AAn@
  00016	e8 00 00 00 00	 call	 __wassert
  0001b	8b 0d 00 00 00
	00		 mov	 ecx, DWORD PTR ?ms_singleton@?$CSingleton@VCPythonCharacterManager@@@@0PAVCPythonCharacterManager@@A ; CSingleton<CPythonCharacterManager>::ms_singleton
  00021	83 c4 0c	 add	 esp, 12			; 0000000cH
$LN6@chrGetName:
; File C:\Anka2Project\Anka2Project\Source\Binary\source\UserInterface\PythonCharacterModule.cpp

; 839  : 	CInstanceBase * pCharacterInstance = CPythonCharacterManager::Instance().GetSelectedInstancePtr();

  00024	e8 00 00 00 00	 call	 ?GetSelectedInstancePtr@CPythonCharacterManager@@QAEPAVCInstanceBase@@XZ ; CPythonCharacterManager::GetSelectedInstancePtr

; 840  : 
; 841  : 	if (!pCharacterInstance)

  00029	85 c0		 test	 eax, eax
  0002b	75 10		 jne	 SHORT $LN2@chrGetName

; 842  : 		return Py_BuildValue("i", 0);

  0002d	50		 push	 eax
  0002e	68 00 00 00 00	 push	 OFFSET ??_C@_01KBJDNOO@i@

; 845  : }

  00033	ff 15 00 00 00
	00		 call	 DWORD PTR __imp__Py_BuildValue
  00039	83 c4 08	 add	 esp, 8
  0003c	c3		 ret	 0
$LN2@chrGetName:

; 843  : 
; 844  : 	return Py_BuildValue("s", pCharacterInstance->GetNameString());

  0003d	8b c8		 mov	 ecx, eax
  0003f	e8 00 00 00 00	 call	 ?GetNameString@CInstanceBase@@QAEPBDXZ ; CInstanceBase::GetNameString
  00044	50		 push	 eax
  00045	68 00 00 00 00	 push	 OFFSET ??_C@_01LKDEMHDF@s@

; 845  : }

  0004a	ff 15 00 00 00
	00		 call	 DWORD PTR __imp__Py_BuildValue
  00050	83 c4 08	 add	 esp, 8
  00053	c3		 ret	 0
?chrGetName@@YAPAU_object@@PAU1@0@Z ENDP		; chrGetName
_TEXT	ENDS
; Function compile flags: /Ogtp
; File C:\Anka2Project\Anka2Project\Source\Binary\source\UserInterface\PythonCharacterModule.cpp
; File C:\Anka2Project\Anka2Project\Source\Binary\source\eterBase\Singleton.h
; File C:\Anka2Project\Anka2Project\Source\Binary\source\UserInterface\PythonCharacterModule.cpp
;	COMDAT ?chrGetNameByVID@@YAPAU_object@@PAU1@0@Z
_TEXT	SEGMENT
_iVirtualID$ = -4					; size = 4
_poSelf$ = 8						; size = 4
_poArgs$ = 12						; size = 4
?chrGetNameByVID@@YAPAU_object@@PAU1@0@Z PROC		; chrGetNameByVID, COMDAT

; 848  : {

  00000	55		 push	 ebp
  00001	8b ec		 mov	 ebp, esp
  00003	51		 push	 ecx

; 849  : 	int iVirtualID;
; 850  : 	if (!PyTuple_GetInteger(poArgs, 0, &iVirtualID))

  00004	8d 45 fc	 lea	 eax, DWORD PTR _iVirtualID$[ebp]
  00007	50		 push	 eax
  00008	6a 00		 push	 0
  0000a	ff 75 0c	 push	 DWORD PTR _poArgs$[ebp]
  0000d	e8 00 00 00 00	 call	 ?PyTuple_GetInteger@@YA_NPAU_object@@HPAH@Z ; PyTuple_GetInteger
  00012	83 c4 0c	 add	 esp, 12			; 0000000cH
  00015	84 c0		 test	 al, al
  00017	75 0e		 jne	 SHORT $LN2@chrGetName

; 851  : 		return Py_BuildException();

  00019	6a 00		 push	 0
  0001b	e8 00 00 00 00	 call	 ?Py_BuildException@@YAPAU_object@@PBDZZ ; Py_BuildException
  00020	83 c4 04	 add	 esp, 4

; 859  : }

  00023	8b e5		 mov	 esp, ebp
  00025	5d		 pop	 ebp
  00026	c3		 ret	 0
$LN2@chrGetName:
; File C:\Anka2Project\Anka2Project\Source\Binary\source\eterBase\Singleton.h

; 26   : 		assert(ms_singleton);

  00027	8b 0d 00 00 00
	00		 mov	 ecx, DWORD PTR ?ms_singleton@?$CSingleton@VCPythonCharacterManager@@@@0PAVCPythonCharacterManager@@A ; CSingleton<CPythonCharacterManager>::ms_singleton
  0002d	85 c9		 test	 ecx, ecx
  0002f	75 1a		 jne	 SHORT $LN7@chrGetName
  00031	6a 1a		 push	 26			; 0000001aH
  00033	68 00 00 00 00	 push	 OFFSET ??_C@_1IO@CAJLEEOI@?$AAC?$AA?3?$AA?2?$AAA?$AAn?$AAk?$AAa?$AA2?$AAP?$AAr?$AAo?$AAj?$AAe?$AAc?$AAt@
  00038	68 00 00 00 00	 push	 OFFSET ??_C@_1BK@FMEHPMFE@?$AAm?$AAs?$AA_?$AAs?$AAi?$AAn?$AAg?$AAl?$AAe?$AAt?$AAo?$AAn@
  0003d	e8 00 00 00 00	 call	 __wassert
  00042	8b 0d 00 00 00
	00		 mov	 ecx, DWORD PTR ?ms_singleton@?$CSingleton@VCPythonCharacterManager@@@@0PAVCPythonCharacterManager@@A ; CSingleton<CPythonCharacterManager>::ms_singleton
  00048	83 c4 0c	 add	 esp, 12			; 0000000cH
$LN7@chrGetName:
; File C:\Anka2Project\Anka2Project\Source\Binary\source\UserInterface\PythonCharacterModule.cpp

; 853  : 	CInstanceBase * pInstance = CPythonCharacterManager::Instance().GetInstancePtr(iVirtualID);

  0004b	8b 41 04	 mov	 eax, DWORD PTR [ecx+4]
  0004e	83 c1 04	 add	 ecx, 4
  00051	ff 75 fc	 push	 DWORD PTR _iVirtualID$[ebp]
  00054	ff 50 08	 call	 DWORD PTR [eax+8]

; 854  : 
; 855  : 	if (!pInstance)

  00057	85 c0		 test	 eax, eax
  00059	75 17		 jne	 SHORT $LN3@chrGetName

; 856  : 		return Py_BuildValue("s", "None");

  0005b	68 00 00 00 00	 push	 OFFSET ??_C@_04OHJIHAFH@None@

; 859  : }

  00060	68 00 00 00 00	 push	 OFFSET ??_C@_01LKDEMHDF@s@
  00065	ff 15 00 00 00
	00		 call	 DWORD PTR __imp__Py_BuildValue
  0006b	83 c4 08	 add	 esp, 8
  0006e	8b e5		 mov	 esp, ebp
  00070	5d		 pop	 ebp
  00071	c3		 ret	 0
$LN3@chrGetName:

; 857  : 
; 858  : 	return Py_BuildValue("s", pInstance->GetNameString());

  00072	8b c8		 mov	 ecx, eax
  00074	e8 00 00 00 00	 call	 ?GetNameString@CInstanceBase@@QAEPBDXZ ; CInstanceBase::GetNameString
  00079	50		 push	 eax

; 859  : }

  0007a	68 00 00 00 00	 push	 OFFSET ??_C@_01LKDEMHDF@s@
  0007f	ff 15 00 00 00
	00		 call	 DWORD PTR __imp__Py_BuildValue
  00085	83 c4 08	 add	 esp, 8
  00088	8b e5		 mov	 esp, ebp
  0008a	5d		 pop	 ebp
  0008b	c3		 ret	 0
?chrGetNameByVID@@YAPAU_object@@PAU1@0@Z ENDP		; chrGetNameByVID
_TEXT	ENDS
; Function compile flags: /Ogtp
; File C:\Anka2Project\Anka2Project\Source\Binary\source\UserInterface\PythonCharacterModule.cpp
; File C:\Anka2Project\Anka2Project\Source\Binary\source\eterBase\Singleton.h
; File C:\Anka2Project\Anka2Project\Source\Binary\source\UserInterface\PythonCharacterModule.cpp
;	COMDAT ?chrGetGuildID@@YAPAU_object@@PAU1@0@Z
_TEXT	SEGMENT
_iVirtualID$ = -4					; size = 4
_poSelf$ = 8						; size = 4
_poArgs$ = 12						; size = 4
?chrGetGuildID@@YAPAU_object@@PAU1@0@Z PROC		; chrGetGuildID, COMDAT

; 862  : {

  00000	55		 push	 ebp
  00001	8b ec		 mov	 ebp, esp
  00003	51		 push	 ecx

; 863  : 	int iVirtualID;
; 864  : 	if (!PyTuple_GetInteger(poArgs, 0, &iVirtualID))

  00004	8d 45 fc	 lea	 eax, DWORD PTR _iVirtualID$[ebp]
  00007	50		 push	 eax
  00008	6a 00		 push	 0
  0000a	ff 75 0c	 push	 DWORD PTR _poArgs$[ebp]
  0000d	e8 00 00 00 00	 call	 ?PyTuple_GetInteger@@YA_NPAU_object@@HPAH@Z ; PyTuple_GetInteger
  00012	83 c4 0c	 add	 esp, 12			; 0000000cH
  00015	84 c0		 test	 al, al
  00017	75 0e		 jne	 SHORT $LN2@chrGetGuil

; 865  : 		return Py_BuildException();

  00019	6a 00		 push	 0
  0001b	e8 00 00 00 00	 call	 ?Py_BuildException@@YAPAU_object@@PBDZZ ; Py_BuildException
  00020	83 c4 04	 add	 esp, 4

; 873  : }

  00023	8b e5		 mov	 esp, ebp
  00025	5d		 pop	 ebp
  00026	c3		 ret	 0
$LN2@chrGetGuil:
; File C:\Anka2Project\Anka2Project\Source\Binary\source\eterBase\Singleton.h

; 26   : 		assert(ms_singleton);

  00027	8b 0d 00 00 00
	00		 mov	 ecx, DWORD PTR ?ms_singleton@?$CSingleton@VCPythonCharacterManager@@@@0PAVCPythonCharacterManager@@A ; CSingleton<CPythonCharacterManager>::ms_singleton
  0002d	85 c9		 test	 ecx, ecx
  0002f	75 1a		 jne	 SHORT $LN7@chrGetGuil
  00031	6a 1a		 push	 26			; 0000001aH
  00033	68 00 00 00 00	 push	 OFFSET ??_C@_1IO@CAJLEEOI@?$AAC?$AA?3?$AA?2?$AAA?$AAn?$AAk?$AAa?$AA2?$AAP?$AAr?$AAo?$AAj?$AAe?$AAc?$AAt@
  00038	68 00 00 00 00	 push	 OFFSET ??_C@_1BK@FMEHPMFE@?$AAm?$AAs?$AA_?$AAs?$AAi?$AAn?$AAg?$AAl?$AAe?$AAt?$AAo?$AAn@
  0003d	e8 00 00 00 00	 call	 __wassert
  00042	8b 0d 00 00 00
	00		 mov	 ecx, DWORD PTR ?ms_singleton@?$CSingleton@VCPythonCharacterManager@@@@0PAVCPythonCharacterManager@@A ; CSingleton<CPythonCharacterManager>::ms_singleton
  00048	83 c4 0c	 add	 esp, 12			; 0000000cH
$LN7@chrGetGuil:
; File C:\Anka2Project\Anka2Project\Source\Binary\source\UserInterface\PythonCharacterModule.cpp

; 867  : 	CInstanceBase * pInstance = CPythonCharacterManager::Instance().GetInstancePtr(iVirtualID);

  0004b	8b 41 04	 mov	 eax, DWORD PTR [ecx+4]
  0004e	83 c1 04	 add	 ecx, 4
  00051	ff 75 fc	 push	 DWORD PTR _iVirtualID$[ebp]
  00054	ff 50 08	 call	 DWORD PTR [eax+8]

; 868  : 
; 869  : 	if (!pInstance)

  00057	85 c0		 test	 eax, eax
  00059	75 13		 jne	 SHORT $LN3@chrGetGuil

; 870  : 		return Py_BuildValue("i", 0);

  0005b	50		 push	 eax

; 873  : }

  0005c	68 00 00 00 00	 push	 OFFSET ??_C@_01KBJDNOO@i@
  00061	ff 15 00 00 00
	00		 call	 DWORD PTR __imp__Py_BuildValue
  00067	83 c4 08	 add	 esp, 8
  0006a	8b e5		 mov	 esp, ebp
  0006c	5d		 pop	 ebp
  0006d	c3		 ret	 0
$LN3@chrGetGuil:

; 871  : 
; 872  : 	return Py_BuildValue("i", pInstance->GetGuildID());

  0006e	8b c8		 mov	 ecx, eax
  00070	e8 00 00 00 00	 call	 ?GetGuildID@CInstanceBase@@QAEKXZ ; CInstanceBase::GetGuildID
  00075	50		 push	 eax

; 873  : }

  00076	68 00 00 00 00	 push	 OFFSET ??_C@_01KBJDNOO@i@
  0007b	ff 15 00 00 00
	00		 call	 DWORD PTR __imp__Py_BuildValue
  00081	83 c4 08	 add	 esp, 8
  00084	8b e5		 mov	 esp, ebp
  00086	5d		 pop	 ebp
  00087	c3		 ret	 0
?chrGetGuildID@@YAPAU_object@@PAU1@0@Z ENDP		; chrGetGuildID
_TEXT	ENDS
; Function compile flags: /Ogtp
; File C:\Anka2Project\Anka2Project\Source\Binary\source\UserInterface\PythonCharacterModule.cpp
; File C:\Anka2Project\Anka2Project\Source\Binary\source\eterBase\Singleton.h
; File C:\Anka2Project\Anka2Project\Source\Binary\source\UserInterface\PythonCharacterModule.cpp
; File C:\Anka2Project\Anka2Project\Source\Binary\source\eterBase\Singleton.h
; File C:\Anka2Project\Anka2Project\Source\Binary\source\UserInterface\PythonCharacterModule.cpp
;	COMDAT ?chrGetProjectPosition@@YAPAU_object@@PAU1@0@Z
_TEXT	SEGMENT
_PixelPosition$ = -32					; size = 12
_fx$ = -20						; size = 4
_fy$ = -16						; size = 4
_fz$ = -12						; size = 4
_iHeight$ = -8						; size = 4
_iVirtualID$ = -4					; size = 4
_poSelf$ = 8						; size = 4
_poArgs$ = 12						; size = 4
?chrGetProjectPosition@@YAPAU_object@@PAU1@0@Z PROC	; chrGetProjectPosition, COMDAT

; 876  : {

  00000	55		 push	 ebp
  00001	8b ec		 mov	 ebp, esp
  00003	83 ec 20	 sub	 esp, 32			; 00000020H

; 877  : 	int iVirtualID;
; 878  : 	if (!PyTuple_GetInteger(poArgs, 0, &iVirtualID))

  00006	8d 45 fc	 lea	 eax, DWORD PTR _iVirtualID$[ebp]
  00009	50		 push	 eax
  0000a	6a 00		 push	 0
  0000c	ff 75 0c	 push	 DWORD PTR _poArgs$[ebp]
  0000f	e8 00 00 00 00	 call	 ?PyTuple_GetInteger@@YA_NPAU_object@@HPAH@Z ; PyTuple_GetInteger
  00014	83 c4 0c	 add	 esp, 12			; 0000000cH
  00017	84 c0		 test	 al, al
  00019	75 0e		 jne	 SHORT $LN2@chrGetProj
$LN15@chrGetProj:

; 901  : }

  0001b	6a 00		 push	 0
  0001d	e8 00 00 00 00	 call	 ?Py_BuildException@@YAPAU_object@@PBDZZ ; Py_BuildException
  00022	83 c4 04	 add	 esp, 4
  00025	8b e5		 mov	 esp, ebp
  00027	5d		 pop	 ebp
  00028	c3		 ret	 0
$LN2@chrGetProj:

; 879  : 		return Py_BuildException();
; 880  : 	int iHeight;
; 881  : 	if (!PyTuple_GetInteger(poArgs, 1, &iHeight))

  00029	8d 45 f8	 lea	 eax, DWORD PTR _iHeight$[ebp]
  0002c	50		 push	 eax
  0002d	6a 01		 push	 1
  0002f	ff 75 0c	 push	 DWORD PTR _poArgs$[ebp]
  00032	e8 00 00 00 00	 call	 ?PyTuple_GetInteger@@YA_NPAU_object@@HPAH@Z ; PyTuple_GetInteger
  00037	83 c4 0c	 add	 esp, 12			; 0000000cH
  0003a	84 c0		 test	 al, al
  0003c	74 dd		 je	 SHORT $LN15@chrGetProj
; File C:\Anka2Project\Anka2Project\Source\Binary\source\eterBase\Singleton.h

; 26   : 		assert(ms_singleton);

  0003e	8b 0d 00 00 00
	00		 mov	 ecx, DWORD PTR ?ms_singleton@?$CSingleton@VCPythonCharacterManager@@@@0PAVCPythonCharacterManager@@A ; CSingleton<CPythonCharacterManager>::ms_singleton
  00044	85 c9		 test	 ecx, ecx
  00046	75 1a		 jne	 SHORT $LN9@chrGetProj
  00048	6a 1a		 push	 26			; 0000001aH
  0004a	68 00 00 00 00	 push	 OFFSET ??_C@_1IO@CAJLEEOI@?$AAC?$AA?3?$AA?2?$AAA?$AAn?$AAk?$AAa?$AA2?$AAP?$AAr?$AAo?$AAj?$AAe?$AAc?$AAt@
  0004f	68 00 00 00 00	 push	 OFFSET ??_C@_1BK@FMEHPMFE@?$AAm?$AAs?$AA_?$AAs?$AAi?$AAn?$AAg?$AAl?$AAe?$AAt?$AAo?$AAn@
  00054	e8 00 00 00 00	 call	 __wassert
  00059	8b 0d 00 00 00
	00		 mov	 ecx, DWORD PTR ?ms_singleton@?$CSingleton@VCPythonCharacterManager@@@@0PAVCPythonCharacterManager@@A ; CSingleton<CPythonCharacterManager>::ms_singleton
  0005f	83 c4 0c	 add	 esp, 12			; 0000000cH
$LN9@chrGetProj:
; File C:\Anka2Project\Anka2Project\Source\Binary\source\UserInterface\PythonCharacterModule.cpp

; 884  : 	CInstanceBase * pInstance = CPythonCharacterManager::Instance().GetInstancePtr(iVirtualID);

  00062	8b 41 04	 mov	 eax, DWORD PTR [ecx+4]
  00065	83 c1 04	 add	 ecx, 4
  00068	ff 75 fc	 push	 DWORD PTR _iVirtualID$[ebp]
  0006b	8b 40 08	 mov	 eax, DWORD PTR [eax+8]
  0006e	ff d0		 call	 eax

; 885  : 
; 886  : 	if (!pInstance)

  00070	85 c0		 test	 eax, eax
  00072	75 16		 jne	 SHORT $LN4@chrGetProj
$LN14@chrGetProj:

; 901  : }

  00074	6a 9c		 push	 -100			; ffffff9cH
  00076	6a 9c		 push	 -100			; ffffff9cH
  00078	68 00 00 00 00	 push	 OFFSET ??_C@_02PDIHAGKM@ii@
  0007d	ff 15 00 00 00
	00		 call	 DWORD PTR __imp__Py_BuildValue
  00083	83 c4 0c	 add	 esp, 12			; 0000000cH
  00086	8b e5		 mov	 esp, ebp
  00088	5d		 pop	 ebp
  00089	c3		 ret	 0
$LN4@chrGetProj:

; 887  : 		return Py_BuildValue("ii", -100, -100);
; 888  : 
; 889  : 	TPixelPosition PixelPosition;
; 890  : 	pInstance->NEW_GetPixelPosition(&PixelPosition);

  0008a	8d 4d e0	 lea	 ecx, DWORD PTR _PixelPosition$[ebp]
  0008d	51		 push	 ecx
  0008e	8b c8		 mov	 ecx, eax
  00090	e8 00 00 00 00	 call	 ?NEW_GetPixelPosition@CInstanceBase@@QAEXPAUD3DXVECTOR3@@@Z ; CInstanceBase::NEW_GetPixelPosition
; File C:\Anka2Project\Anka2Project\Source\Binary\source\eterBase\Singleton.h

; 26   : 		assert(ms_singleton);

  00095	8b 0d 00 00 00
	00		 mov	 ecx, DWORD PTR ?ms_singleton@?$CSingleton@VCPythonGraphic@@@@0PAVCPythonGraphic@@A ; CSingleton<CPythonGraphic>::ms_singleton
  0009b	85 c9		 test	 ecx, ecx
  0009d	75 1a		 jne	 SHORT $LN12@chrGetProj
  0009f	6a 1a		 push	 26			; 0000001aH
  000a1	68 00 00 00 00	 push	 OFFSET ??_C@_1IO@CAJLEEOI@?$AAC?$AA?3?$AA?2?$AAA?$AAn?$AAk?$AAa?$AA2?$AAP?$AAr?$AAo?$AAj?$AAe?$AAc?$AAt@
  000a6	68 00 00 00 00	 push	 OFFSET ??_C@_1BK@FMEHPMFE@?$AAm?$AAs?$AA_?$AAs?$AAi?$AAn?$AAg?$AAl?$AAe?$AAt?$AAo?$AAn@
  000ab	e8 00 00 00 00	 call	 __wassert
  000b0	8b 0d 00 00 00
	00		 mov	 ecx, DWORD PTR ?ms_singleton@?$CSingleton@VCPythonGraphic@@@@0PAVCPythonGraphic@@A ; CSingleton<CPythonGraphic>::ms_singleton
  000b6	83 c4 0c	 add	 esp, 12			; 0000000cH
$LN12@chrGetProj:
  000b9	66 0f 6e 45 f8	 movd	 xmm0, DWORD PTR _iHeight$[ebp]
; File C:\Anka2Project\Anka2Project\Source\Binary\source\UserInterface\PythonCharacterModule.cpp

; 895  : 	rpyGraphic.ProjectPosition(PixelPosition.x, -PixelPosition.y, PixelPosition.z + float(iHeight), &fx, &fy, &fz);

  000be	8d 45 f4	 lea	 eax, DWORD PTR _fz$[ebp]
  000c1	50		 push	 eax
  000c2	0f 5b c0	 cvtdq2ps xmm0, xmm0
  000c5	8d 45 f0	 lea	 eax, DWORD PTR _fy$[ebp]
  000c8	50		 push	 eax
  000c9	8d 45 ec	 lea	 eax, DWORD PTR _fx$[ebp]
  000cc	50		 push	 eax
  000cd	83 ec 0c	 sub	 esp, 12			; 0000000cH
  000d0	f3 0f 58 45 e8	 addss	 xmm0, DWORD PTR _PixelPosition$[ebp+8]
  000d5	f3 0f 11 44 24
	08		 movss	 DWORD PTR [esp+8], xmm0
  000db	f3 0f 10 45 e4	 movss	 xmm0, DWORD PTR _PixelPosition$[ebp+4]
  000e0	0f 57 05 00 00
	00 00		 xorps	 xmm0, DWORD PTR __xmm@80000000800000008000000080000000
  000e7	f3 0f 11 44 24
	04		 movss	 DWORD PTR [esp+4], xmm0
  000ed	f3 0f 10 45 e0	 movss	 xmm0, DWORD PTR _PixelPosition$[ebp]
  000f2	f3 0f 11 04 24	 movss	 DWORD PTR [esp], xmm0
  000f7	e8 00 00 00 00	 call	 ?ProjectPosition@CScreen@@QAEXMMMPAM00@Z ; CScreen::ProjectPosition

; 896  : 
; 897  : 	if (1 == int(fz))

  000fc	f3 0f 2c 45 f4	 cvttss2si eax, DWORD PTR _fz$[ebp]
  00101	83 f8 01	 cmp	 eax, 1
  00104	0f 84 6a ff ff
	ff		 je	 $LN14@chrGetProj

; 898  : 		return Py_BuildValue("ii", -100, -100);
; 899  : 
; 900  : 	return Py_BuildValue("ii", int(fx), int(fy));

  0010a	f3 0f 2c 45 f0	 cvttss2si eax, DWORD PTR _fy$[ebp]
  0010f	50		 push	 eax
  00110	f3 0f 2c 45 ec	 cvttss2si eax, DWORD PTR _fx$[ebp]
  00115	50		 push	 eax

; 901  : }

  00116	68 00 00 00 00	 push	 OFFSET ??_C@_02PDIHAGKM@ii@
  0011b	ff 15 00 00 00
	00		 call	 DWORD PTR __imp__Py_BuildValue
  00121	83 c4 0c	 add	 esp, 12			; 0000000cH
  00124	8b e5		 mov	 esp, ebp
  00126	5d		 pop	 ebp
  00127	c3		 ret	 0
?chrGetProjectPosition@@YAPAU_object@@PAU1@0@Z ENDP	; chrGetProjectPosition
_TEXT	ENDS
; Function compile flags: /Ogtp
; File C:\Anka2Project\Anka2Project\Source\Binary\source\UserInterface\PythonCharacterModule.cpp
; File C:\Anka2Project\Anka2Project\Source\Binary\source\eterBase\Singleton.h
; File C:\Anka2Project\Anka2Project\Source\Binary\source\UserInterface\PythonCharacterModule.cpp
;	COMDAT ?chrGetVirtualNumber@@YAPAU_object@@PAU1@0@Z
_TEXT	SEGMENT
_iVirtualID$ = -4					; size = 4
_poSelf$ = 8						; size = 4
_poArgs$ = 12						; size = 4
?chrGetVirtualNumber@@YAPAU_object@@PAU1@0@Z PROC	; chrGetVirtualNumber, COMDAT

; 904  : {

  00000	55		 push	 ebp
  00001	8b ec		 mov	 ebp, esp
  00003	51		 push	 ecx

; 905  : 	int iVirtualID;
; 906  : 	if (!PyTuple_GetInteger(poArgs, 0, &iVirtualID))

  00004	8d 45 fc	 lea	 eax, DWORD PTR _iVirtualID$[ebp]
  00007	50		 push	 eax
  00008	6a 00		 push	 0
  0000a	ff 75 0c	 push	 DWORD PTR _poArgs$[ebp]
  0000d	e8 00 00 00 00	 call	 ?PyTuple_GetInteger@@YA_NPAU_object@@HPAH@Z ; PyTuple_GetInteger
  00012	83 c4 0c	 add	 esp, 12			; 0000000cH
  00015	84 c0		 test	 al, al
  00017	75 0e		 jne	 SHORT $LN2@chrGetVirt

; 907  : 		return Py_BuildException();

  00019	6a 00		 push	 0
  0001b	e8 00 00 00 00	 call	 ?Py_BuildException@@YAPAU_object@@PBDZZ ; Py_BuildException
  00020	83 c4 04	 add	 esp, 4

; 915  : }

  00023	8b e5		 mov	 esp, ebp
  00025	5d		 pop	 ebp
  00026	c3		 ret	 0
$LN2@chrGetVirt:
; File C:\Anka2Project\Anka2Project\Source\Binary\source\eterBase\Singleton.h

; 26   : 		assert(ms_singleton);

  00027	8b 0d 00 00 00
	00		 mov	 ecx, DWORD PTR ?ms_singleton@?$CSingleton@VCPythonCharacterManager@@@@0PAVCPythonCharacterManager@@A ; CSingleton<CPythonCharacterManager>::ms_singleton
  0002d	85 c9		 test	 ecx, ecx
  0002f	75 1a		 jne	 SHORT $LN7@chrGetVirt
  00031	6a 1a		 push	 26			; 0000001aH
  00033	68 00 00 00 00	 push	 OFFSET ??_C@_1IO@CAJLEEOI@?$AAC?$AA?3?$AA?2?$AAA?$AAn?$AAk?$AAa?$AA2?$AAP?$AAr?$AAo?$AAj?$AAe?$AAc?$AAt@
  00038	68 00 00 00 00	 push	 OFFSET ??_C@_1BK@FMEHPMFE@?$AAm?$AAs?$AA_?$AAs?$AAi?$AAn?$AAg?$AAl?$AAe?$AAt?$AAo?$AAn@
  0003d	e8 00 00 00 00	 call	 __wassert
  00042	8b 0d 00 00 00
	00		 mov	 ecx, DWORD PTR ?ms_singleton@?$CSingleton@VCPythonCharacterManager@@@@0PAVCPythonCharacterManager@@A ; CSingleton<CPythonCharacterManager>::ms_singleton
  00048	83 c4 0c	 add	 esp, 12			; 0000000cH
$LN7@chrGetVirt:
; File C:\Anka2Project\Anka2Project\Source\Binary\source\UserInterface\PythonCharacterModule.cpp

; 909  : 	CInstanceBase * pkInst = CPythonCharacterManager::Instance().GetInstancePtr(iVirtualID);

  0004b	8b 41 04	 mov	 eax, DWORD PTR [ecx+4]
  0004e	83 c1 04	 add	 ecx, 4
  00051	ff 75 fc	 push	 DWORD PTR _iVirtualID$[ebp]
  00054	ff 50 08	 call	 DWORD PTR [eax+8]

; 910  : 
; 911  : 	if (NULL != pkInst)

  00057	85 c0		 test	 eax, eax
  00059	74 1a		 je	 SHORT $LN3@chrGetVirt

; 912  : 		return Py_BuildValue("i", pkInst->GetVirtualNumber());

  0005b	8b c8		 mov	 ecx, eax
  0005d	e8 00 00 00 00	 call	 ?GetVirtualNumber@CInstanceBase@@QAEKXZ ; CInstanceBase::GetVirtualNumber
  00062	50		 push	 eax

; 915  : }

  00063	68 00 00 00 00	 push	 OFFSET ??_C@_01KBJDNOO@i@
  00068	ff 15 00 00 00
	00		 call	 DWORD PTR __imp__Py_BuildValue
  0006e	83 c4 08	 add	 esp, 8
  00071	8b e5		 mov	 esp, ebp
  00073	5d		 pop	 ebp
  00074	c3		 ret	 0
$LN3@chrGetVirt:

; 913  : 
; 914  : 	return Py_BuildValue("i", CActorInstance::TYPE_PC);

  00075	6a 06		 push	 6

; 915  : }

  00077	68 00 00 00 00	 push	 OFFSET ??_C@_01KBJDNOO@i@
  0007c	ff 15 00 00 00
	00		 call	 DWORD PTR __imp__Py_BuildValue
  00082	83 c4 08	 add	 esp, 8
  00085	8b e5		 mov	 esp, ebp
  00087	5d		 pop	 ebp
  00088	c3		 ret	 0
?chrGetVirtualNumber@@YAPAU_object@@PAU1@0@Z ENDP	; chrGetVirtualNumber
_TEXT	ENDS
; Function compile flags: /Ogtp
; File C:\Anka2Project\Anka2Project\Source\Binary\source\UserInterface\PythonCharacterModule.cpp
; File C:\Anka2Project\Anka2Project\Source\Binary\source\eterBase\Singleton.h
; File C:\Anka2Project\Anka2Project\Source\Binary\source\UserInterface\PythonCharacterModule.cpp
;	COMDAT ?chrGetInstanceType@@YAPAU_object@@PAU1@0@Z
_TEXT	SEGMENT
_iVirtualID$ = -4					; size = 4
_poSelf$ = 8						; size = 4
_poArgs$ = 12						; size = 4
?chrGetInstanceType@@YAPAU_object@@PAU1@0@Z PROC	; chrGetInstanceType, COMDAT

; 918  : {

  00000	55		 push	 ebp
  00001	8b ec		 mov	 ebp, esp
  00003	51		 push	 ecx

; 919  : 	int iVirtualID;
; 920  : 	if (!PyTuple_GetInteger(poArgs, 0, &iVirtualID))

  00004	8d 45 fc	 lea	 eax, DWORD PTR _iVirtualID$[ebp]
  00007	50		 push	 eax
  00008	6a 00		 push	 0
  0000a	ff 75 0c	 push	 DWORD PTR _poArgs$[ebp]
  0000d	e8 00 00 00 00	 call	 ?PyTuple_GetInteger@@YA_NPAU_object@@HPAH@Z ; PyTuple_GetInteger
  00012	83 c4 0c	 add	 esp, 12			; 0000000cH
  00015	84 c0		 test	 al, al
  00017	75 0e		 jne	 SHORT $LN2@chrGetInst

; 921  : 		return Py_BuildException();

  00019	6a 00		 push	 0
  0001b	e8 00 00 00 00	 call	 ?Py_BuildException@@YAPAU_object@@PBDZZ ; Py_BuildException
  00020	83 c4 04	 add	 esp, 4

; 929  : }

  00023	8b e5		 mov	 esp, ebp
  00025	5d		 pop	 ebp
  00026	c3		 ret	 0
$LN2@chrGetInst:
; File C:\Anka2Project\Anka2Project\Source\Binary\source\eterBase\Singleton.h

; 26   : 		assert(ms_singleton);

  00027	8b 0d 00 00 00
	00		 mov	 ecx, DWORD PTR ?ms_singleton@?$CSingleton@VCPythonCharacterManager@@@@0PAVCPythonCharacterManager@@A ; CSingleton<CPythonCharacterManager>::ms_singleton
  0002d	85 c9		 test	 ecx, ecx
  0002f	75 1a		 jne	 SHORT $LN7@chrGetInst
  00031	6a 1a		 push	 26			; 0000001aH
  00033	68 00 00 00 00	 push	 OFFSET ??_C@_1IO@CAJLEEOI@?$AAC?$AA?3?$AA?2?$AAA?$AAn?$AAk?$AAa?$AA2?$AAP?$AAr?$AAo?$AAj?$AAe?$AAc?$AAt@
  00038	68 00 00 00 00	 push	 OFFSET ??_C@_1BK@FMEHPMFE@?$AAm?$AAs?$AA_?$AAs?$AAi?$AAn?$AAg?$AAl?$AAe?$AAt?$AAo?$AAn@
  0003d	e8 00 00 00 00	 call	 __wassert
  00042	8b 0d 00 00 00
	00		 mov	 ecx, DWORD PTR ?ms_singleton@?$CSingleton@VCPythonCharacterManager@@@@0PAVCPythonCharacterManager@@A ; CSingleton<CPythonCharacterManager>::ms_singleton
  00048	83 c4 0c	 add	 esp, 12			; 0000000cH
$LN7@chrGetInst:
; File C:\Anka2Project\Anka2Project\Source\Binary\source\UserInterface\PythonCharacterModule.cpp

; 923  : 	CInstanceBase * pkInst = CPythonCharacterManager::Instance().GetInstancePtr(iVirtualID);

  0004b	8b 41 04	 mov	 eax, DWORD PTR [ecx+4]
  0004e	83 c1 04	 add	 ecx, 4
  00051	ff 75 fc	 push	 DWORD PTR _iVirtualID$[ebp]
  00054	ff 50 08	 call	 DWORD PTR [eax+8]

; 924  : 
; 925  : 	if (NULL != pkInst)

  00057	85 c0		 test	 eax, eax
  00059	74 1a		 je	 SHORT $LN3@chrGetInst

; 926  : 		return Py_BuildValue("i", pkInst->GetInstanceType());

  0005b	8b c8		 mov	 ecx, eax
  0005d	e8 00 00 00 00	 call	 ?GetInstanceType@CInstanceBase@@QAEHXZ ; CInstanceBase::GetInstanceType
  00062	50		 push	 eax

; 929  : }

  00063	68 00 00 00 00	 push	 OFFSET ??_C@_01KBJDNOO@i@
  00068	ff 15 00 00 00
	00		 call	 DWORD PTR __imp__Py_BuildValue
  0006e	83 c4 08	 add	 esp, 8
  00071	8b e5		 mov	 esp, ebp
  00073	5d		 pop	 ebp
  00074	c3		 ret	 0
$LN3@chrGetInst:

; 927  : 
; 928  : 	return Py_BuildValue("i", CActorInstance::TYPE_PC);

  00075	6a 06		 push	 6

; 929  : }

  00077	68 00 00 00 00	 push	 OFFSET ??_C@_01KBJDNOO@i@
  0007c	ff 15 00 00 00
	00		 call	 DWORD PTR __imp__Py_BuildValue
  00082	83 c4 08	 add	 esp, 8
  00085	8b e5		 mov	 esp, ebp
  00087	5d		 pop	 ebp
  00088	c3		 ret	 0
?chrGetInstanceType@@YAPAU_object@@PAU1@0@Z ENDP	; chrGetInstanceType
_TEXT	ENDS
; Function compile flags: /Ogtp
; File C:\Anka2Project\Anka2Project\Source\Binary\source\UserInterface\PythonCharacterModule.cpp
; File C:\Anka2Project\Anka2Project\Source\Binary\source\eterBase\Singleton.h
; File C:\Anka2Project\Anka2Project\Source\Binary\source\UserInterface\PythonCharacterModule.cpp
;	COMDAT ?chrGetBoundBoxOnlyXY@@YAPAU_object@@PAU1@0@Z
_TEXT	SEGMENT
_v3Max$ = -28						; size = 12
_v3Min$ = -16						; size = 12
__$ArrayPad$ = -4					; size = 4
_poSelf$ = 8						; size = 4
_poArgs$ = 12						; size = 4
?chrGetBoundBoxOnlyXY@@YAPAU_object@@PAU1@0@Z PROC	; chrGetBoundBoxOnlyXY, COMDAT

; 932  : {

  00000	55		 push	 ebp
  00001	8b ec		 mov	 ebp, esp
  00003	83 e4 c0	 and	 esp, -64		; ffffffc0H
  00006	83 ec 40	 sub	 esp, 64			; 00000040H
  00009	a1 00 00 00 00	 mov	 eax, DWORD PTR ___security_cookie
  0000e	33 c4		 xor	 eax, esp
  00010	89 44 24 3c	 mov	 DWORD PTR __$ArrayPad$[esp+64], eax
; File C:\Anka2Project\Anka2Project\Source\Binary\source\eterBase\Singleton.h

; 26   : 		assert(ms_singleton);

  00014	8b 0d 00 00 00
	00		 mov	 ecx, DWORD PTR ?ms_singleton@?$CSingleton@VCPythonCharacterManager@@@@0PAVCPythonCharacterManager@@A ; CSingleton<CPythonCharacterManager>::ms_singleton
  0001a	85 c9		 test	 ecx, ecx
  0001c	75 1a		 jne	 SHORT $LN6@chrGetBoun
  0001e	6a 1a		 push	 26			; 0000001aH
  00020	68 00 00 00 00	 push	 OFFSET ??_C@_1IO@CAJLEEOI@?$AAC?$AA?3?$AA?2?$AAA?$AAn?$AAk?$AAa?$AA2?$AAP?$AAr?$AAo?$AAj?$AAe?$AAc?$AAt@
  00025	68 00 00 00 00	 push	 OFFSET ??_C@_1BK@FMEHPMFE@?$AAm?$AAs?$AA_?$AAs?$AAi?$AAn?$AAg?$AAl?$AAe?$AAt?$AAo?$AAn@
  0002a	e8 00 00 00 00	 call	 __wassert
  0002f	8b 0d 00 00 00
	00		 mov	 ecx, DWORD PTR ?ms_singleton@?$CSingleton@VCPythonCharacterManager@@@@0PAVCPythonCharacterManager@@A ; CSingleton<CPythonCharacterManager>::ms_singleton
  00035	83 c4 0c	 add	 esp, 12			; 0000000cH
$LN6@chrGetBoun:
; File C:\Anka2Project\Anka2Project\Source\Binary\source\UserInterface\PythonCharacterModule.cpp

; 933  : 	CInstanceBase * pkInst = CPythonCharacterManager::Instance().GetSelectedInstancePtr();

  00038	e8 00 00 00 00	 call	 ?GetSelectedInstancePtr@CPythonCharacterManager@@QAEPAVCInstanceBase@@XZ ; CPythonCharacterManager::GetSelectedInstancePtr

; 934  : 
; 935  : 	if (!pkInst)

  0003d	85 c0		 test	 eax, eax
  0003f	75 11		 jne	 SHORT $LN2@chrGetBoun

; 936  : 		return Py_BuildValue("ffff", 0.0f, 0.0f, 0.0f, 0.0f);

  00041	83 ec 20	 sub	 esp, 32			; 00000020H
  00044	0f 57 c0	 xorps	 xmm0, xmm0
  00047	0f 11 44 24 10	 movups	 XMMWORD PTR [esp+16], xmm0
  0004c	0f 11 04 24	 movups	 XMMWORD PTR [esp], xmm0
  00050	eb 4f		 jmp	 SHORT $LN7@chrGetBoun
$LN2@chrGetBoun:

; 937  : 
; 938  : 	D3DXVECTOR3 v3Min, v3Max;
; 939  : 	pkInst->GetBoundBox(&v3Min, &v3Max);

  00052	8d 4c 24 24	 lea	 ecx, DWORD PTR _v3Max$[esp+64]
  00056	51		 push	 ecx
  00057	8d 4c 24 34	 lea	 ecx, DWORD PTR _v3Min$[esp+68]
  0005b	51		 push	 ecx
  0005c	8b c8		 mov	 ecx, eax
  0005e	e8 00 00 00 00	 call	 ?GetBoundBox@CInstanceBase@@QAEXPAUD3DXVECTOR3@@0@Z ; CInstanceBase::GetBoundBox
  00063	f3 0f 10 44 24
	28		 movss	 xmm0, DWORD PTR _v3Max$[esp+68]

; 940  : 
; 941  : 	return Py_BuildValue("ffff", v3Min.x, v3Min.y, v3Max.x, v3Max.y);

  00069	83 ec 20	 sub	 esp, 32			; 00000020H
  0006c	0f 5a c0	 cvtps2pd xmm0, xmm0
  0006f	f2 0f 11 44 24
	18		 movsd	 QWORD PTR [esp+24], xmm0
  00075	f3 0f 10 44 24
	44		 movss	 xmm0, DWORD PTR _v3Max$[esp+96]
  0007b	0f 5a c0	 cvtps2pd xmm0, xmm0
  0007e	f2 0f 11 44 24
	10		 movsd	 QWORD PTR [esp+16], xmm0
  00084	f3 0f 10 44 24
	54		 movss	 xmm0, DWORD PTR _v3Min$[esp+100]
  0008a	0f 5a c0	 cvtps2pd xmm0, xmm0
  0008d	f2 0f 11 44 24
	08		 movsd	 QWORD PTR [esp+8], xmm0
  00093	f3 0f 10 44 24
	50		 movss	 xmm0, DWORD PTR _v3Min$[esp+96]
  00099	0f 5a c0	 cvtps2pd xmm0, xmm0
  0009c	f2 0f 11 04 24	 movsd	 QWORD PTR [esp], xmm0
$LN7@chrGetBoun:

; 942  : }

  000a1	68 00 00 00 00	 push	 OFFSET ??_C@_04EOBPFJGD@ffff@
  000a6	ff 15 00 00 00
	00		 call	 DWORD PTR __imp__Py_BuildValue
  000ac	8b 4c 24 60	 mov	 ecx, DWORD PTR __$ArrayPad$[esp+100]
  000b0	83 c4 24	 add	 esp, 36			; 00000024H
  000b3	33 cc		 xor	 ecx, esp
  000b5	e8 00 00 00 00	 call	 @__security_check_cookie@4
  000ba	8b e5		 mov	 esp, ebp
  000bc	5d		 pop	 ebp
  000bd	c3		 ret	 0
?chrGetBoundBoxOnlyXY@@YAPAU_object@@PAU1@0@Z ENDP	; chrGetBoundBoxOnlyXY
_TEXT	ENDS
; Function compile flags: /Ogtp
; File C:\Anka2Project\Anka2Project\Source\Binary\source\UserInterface\PythonCharacterModule.cpp
; File C:\Anka2Project\Anka2Project\Source\Binary\source\eterBase\Singleton.h
; File C:\Anka2Project\Anka2Project\Source\Binary\source\UserInterface\PythonCharacterModule.cpp
;	COMDAT ?chrtestGetPKData@@YAPAU_object@@PAU1@0@Z
_TEXT	SEGMENT
_poSelf$ = 8						; size = 4
_poArgs$ = 12						; size = 4
?chrtestGetPKData@@YAPAU_object@@PAU1@0@Z PROC		; chrtestGetPKData, COMDAT
; File C:\Anka2Project\Anka2Project\Source\Binary\source\eterBase\Singleton.h

; 26   : 		assert(ms_singleton);

  00000	8b 0d 00 00 00
	00		 mov	 ecx, DWORD PTR ?ms_singleton@?$CSingleton@VCPythonCharacterManager@@@@0PAVCPythonCharacterManager@@A ; CSingleton<CPythonCharacterManager>::ms_singleton
  00006	85 c9		 test	 ecx, ecx
  00008	75 1a		 jne	 SHORT $LN6@chrtestGet
  0000a	6a 1a		 push	 26			; 0000001aH
  0000c	68 00 00 00 00	 push	 OFFSET ??_C@_1IO@CAJLEEOI@?$AAC?$AA?3?$AA?2?$AAA?$AAn?$AAk?$AAa?$AA2?$AAP?$AAr?$AAo?$AAj?$AAe?$AAc?$AAt@
  00011	68 00 00 00 00	 push	 OFFSET ??_C@_1BK@FMEHPMFE@?$AAm?$AAs?$AA_?$AAs?$AAi?$AAn?$AAg?$AAl?$AAe?$AAt?$AAo?$AAn@
  00016	e8 00 00 00 00	 call	 __wassert
  0001b	8b 0d 00 00 00
	00		 mov	 ecx, DWORD PTR ?ms_singleton@?$CSingleton@VCPythonCharacterManager@@@@0PAVCPythonCharacterManager@@A ; CSingleton<CPythonCharacterManager>::ms_singleton
  00021	83 c4 0c	 add	 esp, 12			; 0000000cH
$LN6@chrtestGet:
  00024	56		 push	 esi
; File C:\Anka2Project\Anka2Project\Source\Binary\source\UserInterface\PythonCharacterModule.cpp

; 946  : 	CInstanceBase * pkInst = CPythonCharacterManager::Instance().GetSelectedInstancePtr();

  00025	e8 00 00 00 00	 call	 ?GetSelectedInstancePtr@CPythonCharacterManager@@QAEPAVCInstanceBase@@XZ ; CPythonCharacterManager::GetSelectedInstancePtr
  0002a	8b f0		 mov	 esi, eax

; 947  : 
; 948  : 	if (!pkInst)

  0002c	85 f6		 test	 esi, esi
  0002e	75 13		 jne	 SHORT $LN2@chrtestGet

; 949  : 		return Py_BuildValue("ii", 0, 4);

  00030	6a 04		 push	 4
  00032	50		 push	 eax

; 952  : }

  00033	68 00 00 00 00	 push	 OFFSET ??_C@_02PDIHAGKM@ii@
  00038	ff 15 00 00 00
	00		 call	 DWORD PTR __imp__Py_BuildValue
  0003e	83 c4 0c	 add	 esp, 12			; 0000000cH
  00041	5e		 pop	 esi
  00042	c3		 ret	 0
$LN2@chrtestGet:

; 950  : 
; 951  : 	return Py_BuildValue("ii", pkInst->GetAlignment(), pkInst->GetAlignmentGrade());

  00043	8b ce		 mov	 ecx, esi
  00045	e8 00 00 00 00	 call	 ?GetAlignmentGrade@CInstanceBase@@QAEIXZ ; CInstanceBase::GetAlignmentGrade
  0004a	8b ce		 mov	 ecx, esi
  0004c	8b d0		 mov	 edx, eax
  0004e	e8 00 00 00 00	 call	 ?GetAlignment@CInstanceBase@@QAEHXZ ; CInstanceBase::GetAlignment
  00053	52		 push	 edx
  00054	50		 push	 eax

; 952  : }

  00055	68 00 00 00 00	 push	 OFFSET ??_C@_02PDIHAGKM@ii@
  0005a	ff 15 00 00 00
	00		 call	 DWORD PTR __imp__Py_BuildValue
  00060	83 c4 0c	 add	 esp, 12			; 0000000cH
  00063	5e		 pop	 esi
  00064	c3		 ret	 0
?chrtestGetPKData@@YAPAU_object@@PAU1@0@Z ENDP		; chrtestGetPKData
_TEXT	ENDS
; Function compile flags: /Ogtp
; File C:\Anka2Project\Anka2Project\Source\Binary\source\UserInterface\PythonCharacterModule.cpp
; File C:\Anka2Project\Anka2Project\Source\Binary\source\eterBase\Singleton.h
; File C:\Anka2Project\Anka2Project\Source\Binary\source\UserInterface\PythonCharacterModule.cpp
; File C:\Anka2Project\Anka2Project\Source\Binary\extern\include\d3dx8math.inl
; File C:\Anka2Project\Anka2Project\Source\Binary\source\UserInterface\PythonCharacterModule.cpp
; File C:\Anka2Project\Anka2Project\Source\Binary\extern\include\d3dx8math.inl
; File C:\Anka2Project\Anka2Project\Source\Binary\source\UserInterface\PythonCharacterModule.cpp
; File C:\Anka2Project\Anka2Project\Source\Binary\extern\include\d3dx8math.inl
; File C:\Anka2Project\Anka2Project\Source\Binary\source\UserInterface\PythonCharacterModule.cpp
; File C:\Anka2Project\Anka2Project\Source\Binary\extern\include\d3dx8math.inl
; File C:\Anka2Project\Anka2Project\Source\Binary\source\UserInterface\PythonCharacterModule.cpp
; File C:\Anka2Project\Anka2Project\Source\Binary\extern\include\d3dx8math.inl
; File C:\Anka2Project\Anka2Project\Source\Binary\source\UserInterface\PythonCharacterModule.cpp
;	COMDAT ?chrtestSetAddRenderMode@@YAPAU_object@@PAU1@0@Z
_TEXT	SEGMENT
$T2 = -24						; size = 16
_iColor$ = -8						; size = 4
_iVirtualID$ = -4					; size = 4
_poSelf$ = 8						; size = 4
_poArgs$ = 12						; size = 4
?chrtestSetAddRenderMode@@YAPAU_object@@PAU1@0@Z PROC	; chrtestSetAddRenderMode, COMDAT

; 970  : {

  00000	55		 push	 ebp
  00001	8b ec		 mov	 ebp, esp
  00003	83 ec 1c	 sub	 esp, 28			; 0000001cH

; 971  : 	int iVirtualID;
; 972  : 	if (!PyTuple_GetInteger(poArgs, 0, &iVirtualID))

  00006	8d 45 fc	 lea	 eax, DWORD PTR _iVirtualID$[ebp]
  00009	56		 push	 esi
  0000a	8b 75 0c	 mov	 esi, DWORD PTR _poArgs$[ebp]
  0000d	50		 push	 eax
  0000e	6a 00		 push	 0
  00010	56		 push	 esi
  00011	e8 00 00 00 00	 call	 ?PyTuple_GetInteger@@YA_NPAU_object@@HPAH@Z ; PyTuple_GetInteger
  00016	83 c4 0c	 add	 esp, 12			; 0000000cH
  00019	84 c0		 test	 al, al
  0001b	75 0f		 jne	 SHORT $LN2@chrtestSet
$LN11@chrtestSet:

; 986  : }

  0001d	6a 00		 push	 0
  0001f	e8 00 00 00 00	 call	 ?Py_BuildException@@YAPAU_object@@PBDZZ ; Py_BuildException
  00024	83 c4 04	 add	 esp, 4
  00027	5e		 pop	 esi
  00028	8b e5		 mov	 esp, ebp
  0002a	5d		 pop	 ebp
  0002b	c3		 ret	 0
$LN2@chrtestSet:

; 973  : 		return Py_BuildException();
; 974  : 	int iColor;
; 975  : 	if (!PyTuple_GetInteger(poArgs, 1, &iColor))

  0002c	8d 45 f8	 lea	 eax, DWORD PTR _iColor$[ebp]
  0002f	50		 push	 eax
  00030	6a 01		 push	 1
  00032	56		 push	 esi
  00033	e8 00 00 00 00	 call	 ?PyTuple_GetInteger@@YA_NPAU_object@@HPAH@Z ; PyTuple_GetInteger
  00038	83 c4 0c	 add	 esp, 12			; 0000000cH
  0003b	84 c0		 test	 al, al
  0003d	74 de		 je	 SHORT $LN11@chrtestSet
; File C:\Anka2Project\Anka2Project\Source\Binary\source\eterBase\Singleton.h

; 26   : 		assert(ms_singleton);

  0003f	8b 0d 00 00 00
	00		 mov	 ecx, DWORD PTR ?ms_singleton@?$CSingleton@VCPythonCharacterManager@@@@0PAVCPythonCharacterManager@@A ; CSingleton<CPythonCharacterManager>::ms_singleton
  00045	85 c9		 test	 ecx, ecx
  00047	75 1a		 jne	 SHORT $LN8@chrtestSet
  00049	6a 1a		 push	 26			; 0000001aH
  0004b	68 00 00 00 00	 push	 OFFSET ??_C@_1IO@CAJLEEOI@?$AAC?$AA?3?$AA?2?$AAA?$AAn?$AAk?$AAa?$AA2?$AAP?$AAr?$AAo?$AAj?$AAe?$AAc?$AAt@
  00050	68 00 00 00 00	 push	 OFFSET ??_C@_1BK@FMEHPMFE@?$AAm?$AAs?$AA_?$AAs?$AAi?$AAn?$AAg?$AAl?$AAe?$AAt?$AAo?$AAn@
  00055	e8 00 00 00 00	 call	 __wassert
  0005a	8b 0d 00 00 00
	00		 mov	 ecx, DWORD PTR ?ms_singleton@?$CSingleton@VCPythonCharacterManager@@@@0PAVCPythonCharacterManager@@A ; CSingleton<CPythonCharacterManager>::ms_singleton
  00060	83 c4 0c	 add	 esp, 12			; 0000000cH
$LN8@chrtestSet:
; File C:\Anka2Project\Anka2Project\Source\Binary\source\UserInterface\PythonCharacterModule.cpp

; 978  : 	CInstanceBase * pkInst = CPythonCharacterManager::Instance().GetInstancePtr(iVirtualID);

  00063	8b 41 04	 mov	 eax, DWORD PTR [ecx+4]
  00066	83 c1 04	 add	 ecx, 4
  00069	ff 75 fc	 push	 DWORD PTR _iVirtualID$[ebp]
  0006c	ff 50 08	 call	 DWORD PTR [eax+8]
  0006f	8b f0		 mov	 esi, eax

; 979  : 	if (pkInst)

  00071	85 f6		 test	 esi, esi
  00073	74 79		 je	 SHORT $LN4@chrtestSet

; 980  : 	{
; 981  : 		pkInst->SetAddRenderMode();

  00075	8b ce		 mov	 ecx, esi
  00077	e8 00 00 00 00	 call	 ?SetAddRenderMode@CInstanceBase@@QAEXXZ ; CInstanceBase::SetAddRenderMode

; 982  : 		pkInst->SetAddColor(0xff000000 | iColor);

  0007c	8b 55 f8	 mov	 edx, DWORD PTR _iColor$[ebp]
; File C:\Anka2Project\Anka2Project\Source\Binary\extern\include\d3dx8math.inl

; 888  :     r = f * (FLOAT) (unsigned char) (dw >> 16);

  0007f	f3 0f 10 0d 00
	00 00 00	 movss	 xmm1, DWORD PTR __real@3b808081
; File C:\Anka2Project\Anka2Project\Source\Binary\source\UserInterface\PythonCharacterModule.cpp

; 982  : 		pkInst->SetAddColor(0xff000000 | iColor);

  00087	81 ca 00 00 00
	ff		 or	 edx, -16777216		; ff000000H
; File C:\Anka2Project\Anka2Project\Source\Binary\extern\include\d3dx8math.inl

; 888  :     r = f * (FLOAT) (unsigned char) (dw >> 16);

  0008d	8b ca		 mov	 ecx, edx
  0008f	c1 e9 10	 shr	 ecx, 16			; 00000010H
  00092	0f b6 c1	 movzx	 eax, cl
; File C:\Anka2Project\Anka2Project\Source\Binary\source\UserInterface\PythonCharacterModule.cpp

; 982  : 		pkInst->SetAddColor(0xff000000 | iColor);

  00095	8b ce		 mov	 ecx, esi
  00097	66 0f 6e c0	 movd	 xmm0, eax
; File C:\Anka2Project\Anka2Project\Source\Binary\extern\include\d3dx8math.inl

; 889  :     g = f * (FLOAT) (unsigned char) (dw >>  8);

  0009b	8b c2		 mov	 eax, edx
  0009d	0f 5b c0	 cvtdq2ps xmm0, xmm0
  000a0	c1 e8 08	 shr	 eax, 8
  000a3	0f b6 c0	 movzx	 eax, al
  000a6	f3 0f 59 c1	 mulss	 xmm0, xmm1
  000aa	f3 0f 11 45 e8	 movss	 DWORD PTR $T2[ebp], xmm0
  000af	66 0f 6e c0	 movd	 xmm0, eax
  000b3	0f 5b c0	 cvtdq2ps xmm0, xmm0

; 890  :     b = f * (FLOAT) (unsigned char) (dw >>  0);

  000b6	0f b6 c2	 movzx	 eax, dl

; 891  :     a = f * (FLOAT) (unsigned char) (dw >> 24);

  000b9	c1 ea 18	 shr	 edx, 24			; 00000018H
  000bc	f3 0f 59 c1	 mulss	 xmm0, xmm1
  000c0	f3 0f 11 45 ec	 movss	 DWORD PTR $T2[ebp+4], xmm0
  000c5	66 0f 6e c0	 movd	 xmm0, eax
; File C:\Anka2Project\Anka2Project\Source\Binary\source\UserInterface\PythonCharacterModule.cpp

; 982  : 		pkInst->SetAddColor(0xff000000 | iColor);

  000c9	8d 45 e8	 lea	 eax, DWORD PTR $T2[ebp]
; File C:\Anka2Project\Anka2Project\Source\Binary\extern\include\d3dx8math.inl

; 890  :     b = f * (FLOAT) (unsigned char) (dw >>  0);

  000cc	0f 5b c0	 cvtdq2ps xmm0, xmm0
; File C:\Anka2Project\Anka2Project\Source\Binary\source\UserInterface\PythonCharacterModule.cpp

; 982  : 		pkInst->SetAddColor(0xff000000 | iColor);

  000cf	50		 push	 eax
; File C:\Anka2Project\Anka2Project\Source\Binary\extern\include\d3dx8math.inl

; 890  :     b = f * (FLOAT) (unsigned char) (dw >>  0);

  000d0	f3 0f 59 c1	 mulss	 xmm0, xmm1
  000d4	f3 0f 11 45 f0	 movss	 DWORD PTR $T2[ebp+8], xmm0
  000d9	66 0f 6e c2	 movd	 xmm0, edx

; 891  :     a = f * (FLOAT) (unsigned char) (dw >> 24);

  000dd	0f 5b c0	 cvtdq2ps xmm0, xmm0
  000e0	f3 0f 59 c1	 mulss	 xmm0, xmm1
  000e4	f3 0f 11 45 f4	 movss	 DWORD PTR $T2[ebp+12], xmm0
; File C:\Anka2Project\Anka2Project\Source\Binary\source\UserInterface\PythonCharacterModule.cpp

; 982  : 		pkInst->SetAddColor(0xff000000 | iColor);

  000e9	e8 00 00 00 00	 call	 ?SetAddColor@CInstanceBase@@QAEXABUD3DXCOLOR@@@Z ; CInstanceBase::SetAddColor
$LN4@chrtestSet:

; 983  : 	}
; 984  : 
; 985  : 	return Py_BuildNone();

  000ee	e8 00 00 00 00	 call	 ?Py_BuildNone@@YAPAU_object@@XZ ; Py_BuildNone

; 986  : }

  000f3	5e		 pop	 esi
  000f4	8b e5		 mov	 esp, ebp
  000f6	5d		 pop	 ebp
  000f7	c3		 ret	 0
?chrtestSetAddRenderMode@@YAPAU_object@@PAU1@0@Z ENDP	; chrtestSetAddRenderMode
_TEXT	ENDS
; Function compile flags: /Ogtp
; File C:\Anka2Project\Anka2Project\Source\Binary\source\UserInterface\PythonCharacterModule.cpp
; File C:\Anka2Project\Anka2Project\Source\Binary\source\eterBase\Singleton.h
; File C:\Anka2Project\Anka2Project\Source\Binary\source\UserInterface\PythonCharacterModule.cpp
; File C:\Anka2Project\Anka2Project\Source\Binary\extern\include\d3dx8math.inl
; File C:\Anka2Project\Anka2Project\Source\Binary\source\UserInterface\PythonCharacterModule.cpp
; File C:\Anka2Project\Anka2Project\Source\Binary\extern\include\d3dx8math.inl
; File C:\Anka2Project\Anka2Project\Source\Binary\source\UserInterface\PythonCharacterModule.cpp
; File C:\Anka2Project\Anka2Project\Source\Binary\extern\include\d3dx8math.inl
; File C:\Anka2Project\Anka2Project\Source\Binary\source\UserInterface\PythonCharacterModule.cpp
; File C:\Anka2Project\Anka2Project\Source\Binary\extern\include\d3dx8math.inl
; File C:\Anka2Project\Anka2Project\Source\Binary\source\UserInterface\PythonCharacterModule.cpp
; File C:\Anka2Project\Anka2Project\Source\Binary\extern\include\d3dx8math.inl
; File C:\Anka2Project\Anka2Project\Source\Binary\source\UserInterface\PythonCharacterModule.cpp
;	COMDAT ?chrtestSetModulateRenderMode@@YAPAU_object@@PAU1@0@Z
_TEXT	SEGMENT
$T2 = -24						; size = 16
_iColor$ = -8						; size = 4
_iVirtualID$ = -4					; size = 4
_poSelf$ = 8						; size = 4
_poArgs$ = 12						; size = 4
?chrtestSetModulateRenderMode@@YAPAU_object@@PAU1@0@Z PROC ; chrtestSetModulateRenderMode, COMDAT

; 989  : {

  00000	55		 push	 ebp
  00001	8b ec		 mov	 ebp, esp
  00003	83 ec 1c	 sub	 esp, 28			; 0000001cH

; 990  : 	int iVirtualID;
; 991  : 	if (!PyTuple_GetInteger(poArgs, 0, &iVirtualID))

  00006	8d 45 fc	 lea	 eax, DWORD PTR _iVirtualID$[ebp]
  00009	56		 push	 esi
  0000a	8b 75 0c	 mov	 esi, DWORD PTR _poArgs$[ebp]
  0000d	50		 push	 eax
  0000e	6a 00		 push	 0
  00010	56		 push	 esi
  00011	e8 00 00 00 00	 call	 ?PyTuple_GetInteger@@YA_NPAU_object@@HPAH@Z ; PyTuple_GetInteger
  00016	83 c4 0c	 add	 esp, 12			; 0000000cH
  00019	84 c0		 test	 al, al
  0001b	75 0f		 jne	 SHORT $LN2@chrtestSet
$LN11@chrtestSet:

; 1005 : }

  0001d	6a 00		 push	 0
  0001f	e8 00 00 00 00	 call	 ?Py_BuildException@@YAPAU_object@@PBDZZ ; Py_BuildException
  00024	83 c4 04	 add	 esp, 4
  00027	5e		 pop	 esi
  00028	8b e5		 mov	 esp, ebp
  0002a	5d		 pop	 ebp
  0002b	c3		 ret	 0
$LN2@chrtestSet:

; 992  : 		return Py_BuildException();
; 993  : 	int iColor;
; 994  : 	if (!PyTuple_GetInteger(poArgs, 1, &iColor))

  0002c	8d 45 f8	 lea	 eax, DWORD PTR _iColor$[ebp]
  0002f	50		 push	 eax
  00030	6a 01		 push	 1
  00032	56		 push	 esi
  00033	e8 00 00 00 00	 call	 ?PyTuple_GetInteger@@YA_NPAU_object@@HPAH@Z ; PyTuple_GetInteger
  00038	83 c4 0c	 add	 esp, 12			; 0000000cH
  0003b	84 c0		 test	 al, al
  0003d	74 de		 je	 SHORT $LN11@chrtestSet
; File C:\Anka2Project\Anka2Project\Source\Binary\source\eterBase\Singleton.h

; 26   : 		assert(ms_singleton);

  0003f	8b 0d 00 00 00
	00		 mov	 ecx, DWORD PTR ?ms_singleton@?$CSingleton@VCPythonCharacterManager@@@@0PAVCPythonCharacterManager@@A ; CSingleton<CPythonCharacterManager>::ms_singleton
  00045	85 c9		 test	 ecx, ecx
  00047	75 1a		 jne	 SHORT $LN8@chrtestSet
  00049	6a 1a		 push	 26			; 0000001aH
  0004b	68 00 00 00 00	 push	 OFFSET ??_C@_1IO@CAJLEEOI@?$AAC?$AA?3?$AA?2?$AAA?$AAn?$AAk?$AAa?$AA2?$AAP?$AAr?$AAo?$AAj?$AAe?$AAc?$AAt@
  00050	68 00 00 00 00	 push	 OFFSET ??_C@_1BK@FMEHPMFE@?$AAm?$AAs?$AA_?$AAs?$AAi?$AAn?$AAg?$AAl?$AAe?$AAt?$AAo?$AAn@
  00055	e8 00 00 00 00	 call	 __wassert
  0005a	8b 0d 00 00 00
	00		 mov	 ecx, DWORD PTR ?ms_singleton@?$CSingleton@VCPythonCharacterManager@@@@0PAVCPythonCharacterManager@@A ; CSingleton<CPythonCharacterManager>::ms_singleton
  00060	83 c4 0c	 add	 esp, 12			; 0000000cH
$LN8@chrtestSet:
; File C:\Anka2Project\Anka2Project\Source\Binary\source\UserInterface\PythonCharacterModule.cpp

; 997  : 	CInstanceBase * pkInst = CPythonCharacterManager::Instance().GetInstancePtr(iVirtualID);

  00063	8b 41 04	 mov	 eax, DWORD PTR [ecx+4]
  00066	83 c1 04	 add	 ecx, 4
  00069	ff 75 fc	 push	 DWORD PTR _iVirtualID$[ebp]
  0006c	ff 50 08	 call	 DWORD PTR [eax+8]
  0006f	8b f0		 mov	 esi, eax

; 998  : 	if (pkInst)

  00071	85 f6		 test	 esi, esi
  00073	74 79		 je	 SHORT $LN4@chrtestSet

; 999  : 	{
; 1000 : 		pkInst->SetModulateRenderMode();

  00075	8b ce		 mov	 ecx, esi
  00077	e8 00 00 00 00	 call	 ?SetModulateRenderMode@CInstanceBase@@QAEXXZ ; CInstanceBase::SetModulateRenderMode

; 1001 : 		pkInst->SetAddColor(0xff000000 | iColor);

  0007c	8b 55 f8	 mov	 edx, DWORD PTR _iColor$[ebp]
; File C:\Anka2Project\Anka2Project\Source\Binary\extern\include\d3dx8math.inl

; 888  :     r = f * (FLOAT) (unsigned char) (dw >> 16);

  0007f	f3 0f 10 0d 00
	00 00 00	 movss	 xmm1, DWORD PTR __real@3b808081
; File C:\Anka2Project\Anka2Project\Source\Binary\source\UserInterface\PythonCharacterModule.cpp

; 1001 : 		pkInst->SetAddColor(0xff000000 | iColor);

  00087	81 ca 00 00 00
	ff		 or	 edx, -16777216		; ff000000H
; File C:\Anka2Project\Anka2Project\Source\Binary\extern\include\d3dx8math.inl

; 888  :     r = f * (FLOAT) (unsigned char) (dw >> 16);

  0008d	8b ca		 mov	 ecx, edx
  0008f	c1 e9 10	 shr	 ecx, 16			; 00000010H
  00092	0f b6 c1	 movzx	 eax, cl
; File C:\Anka2Project\Anka2Project\Source\Binary\source\UserInterface\PythonCharacterModule.cpp

; 1001 : 		pkInst->SetAddColor(0xff000000 | iColor);

  00095	8b ce		 mov	 ecx, esi
  00097	66 0f 6e c0	 movd	 xmm0, eax
; File C:\Anka2Project\Anka2Project\Source\Binary\extern\include\d3dx8math.inl

; 889  :     g = f * (FLOAT) (unsigned char) (dw >>  8);

  0009b	8b c2		 mov	 eax, edx
  0009d	0f 5b c0	 cvtdq2ps xmm0, xmm0
  000a0	c1 e8 08	 shr	 eax, 8
  000a3	0f b6 c0	 movzx	 eax, al
  000a6	f3 0f 59 c1	 mulss	 xmm0, xmm1
  000aa	f3 0f 11 45 e8	 movss	 DWORD PTR $T2[ebp], xmm0
  000af	66 0f 6e c0	 movd	 xmm0, eax
  000b3	0f 5b c0	 cvtdq2ps xmm0, xmm0

; 890  :     b = f * (FLOAT) (unsigned char) (dw >>  0);

  000b6	0f b6 c2	 movzx	 eax, dl

; 891  :     a = f * (FLOAT) (unsigned char) (dw >> 24);

  000b9	c1 ea 18	 shr	 edx, 24			; 00000018H
  000bc	f3 0f 59 c1	 mulss	 xmm0, xmm1
  000c0	f3 0f 11 45 ec	 movss	 DWORD PTR $T2[ebp+4], xmm0
  000c5	66 0f 6e c0	 movd	 xmm0, eax
; File C:\Anka2Project\Anka2Project\Source\Binary\source\UserInterface\PythonCharacterModule.cpp

; 1001 : 		pkInst->SetAddColor(0xff000000 | iColor);

  000c9	8d 45 e8	 lea	 eax, DWORD PTR $T2[ebp]
; File C:\Anka2Project\Anka2Project\Source\Binary\extern\include\d3dx8math.inl

; 890  :     b = f * (FLOAT) (unsigned char) (dw >>  0);

  000cc	0f 5b c0	 cvtdq2ps xmm0, xmm0
; File C:\Anka2Project\Anka2Project\Source\Binary\source\UserInterface\PythonCharacterModule.cpp

; 1001 : 		pkInst->SetAddColor(0xff000000 | iColor);

  000cf	50		 push	 eax
; File C:\Anka2Project\Anka2Project\Source\Binary\extern\include\d3dx8math.inl

; 890  :     b = f * (FLOAT) (unsigned char) (dw >>  0);

  000d0	f3 0f 59 c1	 mulss	 xmm0, xmm1
  000d4	f3 0f 11 45 f0	 movss	 DWORD PTR $T2[ebp+8], xmm0
  000d9	66 0f 6e c2	 movd	 xmm0, edx

; 891  :     a = f * (FLOAT) (unsigned char) (dw >> 24);

  000dd	0f 5b c0	 cvtdq2ps xmm0, xmm0
  000e0	f3 0f 59 c1	 mulss	 xmm0, xmm1
  000e4	f3 0f 11 45 f4	 movss	 DWORD PTR $T2[ebp+12], xmm0
; File C:\Anka2Project\Anka2Project\Source\Binary\source\UserInterface\PythonCharacterModule.cpp

; 1001 : 		pkInst->SetAddColor(0xff000000 | iColor);

  000e9	e8 00 00 00 00	 call	 ?SetAddColor@CInstanceBase@@QAEXABUD3DXCOLOR@@@Z ; CInstanceBase::SetAddColor
$LN4@chrtestSet:

; 1002 : 	}
; 1003 : 
; 1004 : 	return Py_BuildNone();

  000ee	e8 00 00 00 00	 call	 ?Py_BuildNone@@YAPAU_object@@XZ ; Py_BuildNone

; 1005 : }

  000f3	5e		 pop	 esi
  000f4	8b e5		 mov	 esp, ebp
  000f6	5d		 pop	 ebp
  000f7	c3		 ret	 0
?chrtestSetModulateRenderMode@@YAPAU_object@@PAU1@0@Z ENDP ; chrtestSetModulateRenderMode
_TEXT	ENDS
; Function compile flags: /Ogtp
; File C:\Anka2Project\Anka2Project\Source\Binary\source\UserInterface\PythonCharacterModule.cpp
; File C:\Anka2Project\Anka2Project\Source\Binary\source\eterBase\Singleton.h
; File C:\Anka2Project\Anka2Project\Source\Binary\source\UserInterface\PythonCharacterModule.cpp
; File C:\Anka2Project\Anka2Project\Source\Binary\extern\include\d3dx8math.inl
; File C:\Anka2Project\Anka2Project\Source\Binary\source\UserInterface\PythonCharacterModule.cpp
; File C:\Anka2Project\Anka2Project\Source\Binary\extern\include\d3dx8math.inl
; File C:\Anka2Project\Anka2Project\Source\Binary\source\UserInterface\PythonCharacterModule.cpp
; File C:\Anka2Project\Anka2Project\Source\Binary\extern\include\d3dx8math.inl
; File C:\Anka2Project\Anka2Project\Source\Binary\source\UserInterface\PythonCharacterModule.cpp
; File C:\Anka2Project\Anka2Project\Source\Binary\extern\include\d3dx8math.inl
; File C:\Anka2Project\Anka2Project\Source\Binary\source\UserInterface\PythonCharacterModule.cpp
;	COMDAT ?chrtestSetAddRenderModeRGB@@YAPAU_object@@PAU1@0@Z
_TEXT	SEGMENT
$T2 = -32						; size = 16
_fb$ = -16						; size = 4
_fg$ = -12						; size = 4
_fr$ = -8						; size = 4
_iVirtualID$ = -4					; size = 4
_poSelf$ = 8						; size = 4
_poArgs$ = 12						; size = 4
?chrtestSetAddRenderModeRGB@@YAPAU_object@@PAU1@0@Z PROC ; chrtestSetAddRenderModeRGB, COMDAT

; 1008 : {

  00000	55		 push	 ebp
  00001	8b ec		 mov	 ebp, esp
  00003	83 ec 24	 sub	 esp, 36			; 00000024H

; 1009 : 	int iVirtualID;
; 1010 : 	if (!PyTuple_GetInteger(poArgs, 0, &iVirtualID))

  00006	8d 45 fc	 lea	 eax, DWORD PTR _iVirtualID$[ebp]
  00009	56		 push	 esi
  0000a	8b 75 0c	 mov	 esi, DWORD PTR _poArgs$[ebp]
  0000d	50		 push	 eax
  0000e	6a 00		 push	 0
  00010	56		 push	 esi
  00011	e8 00 00 00 00	 call	 ?PyTuple_GetInteger@@YA_NPAU_object@@HPAH@Z ; PyTuple_GetInteger
  00016	83 c4 0c	 add	 esp, 12			; 0000000cH
  00019	84 c0		 test	 al, al
  0001b	75 0f		 jne	 SHORT $LN2@chrtestSet
$LN13@chrtestSet:

; 1030 : }

  0001d	6a 00		 push	 0
  0001f	e8 00 00 00 00	 call	 ?Py_BuildException@@YAPAU_object@@PBDZZ ; Py_BuildException
  00024	83 c4 04	 add	 esp, 4
  00027	5e		 pop	 esi
  00028	8b e5		 mov	 esp, ebp
  0002a	5d		 pop	 ebp
  0002b	c3		 ret	 0
$LN2@chrtestSet:

; 1011 : 		return Py_BuildException();
; 1012 : 	float fr;
; 1013 : 	if (!PyTuple_GetFloat(poArgs, 1, &fr))

  0002c	8d 45 f8	 lea	 eax, DWORD PTR _fr$[ebp]
  0002f	50		 push	 eax
  00030	6a 01		 push	 1
  00032	56		 push	 esi
  00033	e8 00 00 00 00	 call	 ?PyTuple_GetFloat@@YA_NPAU_object@@HPAM@Z ; PyTuple_GetFloat
  00038	83 c4 0c	 add	 esp, 12			; 0000000cH
  0003b	84 c0		 test	 al, al
  0003d	74 de		 je	 SHORT $LN13@chrtestSet

; 1014 : 		return Py_BuildException();
; 1015 : 	float fg;
; 1016 : 	if (!PyTuple_GetFloat(poArgs, 2, &fg))

  0003f	8d 45 f4	 lea	 eax, DWORD PTR _fg$[ebp]
  00042	50		 push	 eax
  00043	6a 02		 push	 2
  00045	56		 push	 esi
  00046	e8 00 00 00 00	 call	 ?PyTuple_GetFloat@@YA_NPAU_object@@HPAM@Z ; PyTuple_GetFloat
  0004b	83 c4 0c	 add	 esp, 12			; 0000000cH
  0004e	84 c0		 test	 al, al
  00050	74 cb		 je	 SHORT $LN13@chrtestSet

; 1017 : 		return Py_BuildException();
; 1018 : 	float fb;
; 1019 : 	if (!PyTuple_GetFloat(poArgs, 3, &fb))

  00052	8d 45 f0	 lea	 eax, DWORD PTR _fb$[ebp]
  00055	50		 push	 eax
  00056	6a 03		 push	 3
  00058	56		 push	 esi
  00059	e8 00 00 00 00	 call	 ?PyTuple_GetFloat@@YA_NPAU_object@@HPAM@Z ; PyTuple_GetFloat
  0005e	83 c4 0c	 add	 esp, 12			; 0000000cH
  00061	84 c0		 test	 al, al
  00063	74 b8		 je	 SHORT $LN13@chrtestSet
; File C:\Anka2Project\Anka2Project\Source\Binary\source\eterBase\Singleton.h

; 26   : 		assert(ms_singleton);

  00065	8b 0d 00 00 00
	00		 mov	 ecx, DWORD PTR ?ms_singleton@?$CSingleton@VCPythonCharacterManager@@@@0PAVCPythonCharacterManager@@A ; CSingleton<CPythonCharacterManager>::ms_singleton
  0006b	85 c9		 test	 ecx, ecx
  0006d	75 1a		 jne	 SHORT $LN10@chrtestSet
  0006f	6a 1a		 push	 26			; 0000001aH
  00071	68 00 00 00 00	 push	 OFFSET ??_C@_1IO@CAJLEEOI@?$AAC?$AA?3?$AA?2?$AAA?$AAn?$AAk?$AAa?$AA2?$AAP?$AAr?$AAo?$AAj?$AAe?$AAc?$AAt@
  00076	68 00 00 00 00	 push	 OFFSET ??_C@_1BK@FMEHPMFE@?$AAm?$AAs?$AA_?$AAs?$AAi?$AAn?$AAg?$AAl?$AAe?$AAt?$AAo?$AAn@
  0007b	e8 00 00 00 00	 call	 __wassert
  00080	8b 0d 00 00 00
	00		 mov	 ecx, DWORD PTR ?ms_singleton@?$CSingleton@VCPythonCharacterManager@@@@0PAVCPythonCharacterManager@@A ; CSingleton<CPythonCharacterManager>::ms_singleton
  00086	83 c4 0c	 add	 esp, 12			; 0000000cH
$LN10@chrtestSet:
; File C:\Anka2Project\Anka2Project\Source\Binary\source\UserInterface\PythonCharacterModule.cpp

; 1022 : 	CInstanceBase * pkInst = CPythonCharacterManager::Instance().GetInstancePtr(iVirtualID);

  00089	8b 41 04	 mov	 eax, DWORD PTR [ecx+4]
  0008c	83 c1 04	 add	 ecx, 4
  0008f	ff 75 fc	 push	 DWORD PTR _iVirtualID$[ebp]
  00092	ff 50 08	 call	 DWORD PTR [eax+8]
  00095	8b f0		 mov	 esi, eax

; 1023 : 	if (pkInst)

  00097	85 f6		 test	 esi, esi
  00099	74 37		 je	 SHORT $LN6@chrtestSet

; 1024 : 	{
; 1025 : 		pkInst->SetAddRenderMode();

  0009b	8b ce		 mov	 ecx, esi
  0009d	e8 00 00 00 00	 call	 ?SetAddRenderMode@CInstanceBase@@QAEXXZ ; CInstanceBase::SetAddRenderMode
; File C:\Anka2Project\Anka2Project\Source\Binary\extern\include\d3dx8math.inl

; 920  :     r = fr;

  000a2	f3 0f 10 45 f8	 movss	 xmm0, DWORD PTR _fr$[ebp]
; File C:\Anka2Project\Anka2Project\Source\Binary\source\UserInterface\PythonCharacterModule.cpp

; 1026 : 		pkInst->SetAddColor(D3DXCOLOR(fr, fg, fb, 1.0f));

  000a7	8d 45 e0	 lea	 eax, DWORD PTR $T2[ebp]
; File C:\Anka2Project\Anka2Project\Source\Binary\extern\include\d3dx8math.inl

; 920  :     r = fr;

  000aa	f3 0f 11 45 e0	 movss	 DWORD PTR $T2[ebp], xmm0
; File C:\Anka2Project\Anka2Project\Source\Binary\source\UserInterface\PythonCharacterModule.cpp

; 1026 : 		pkInst->SetAddColor(D3DXCOLOR(fr, fg, fb, 1.0f));

  000af	8b ce		 mov	 ecx, esi
; File C:\Anka2Project\Anka2Project\Source\Binary\extern\include\d3dx8math.inl

; 921  :     g = fg;

  000b1	f3 0f 10 45 f4	 movss	 xmm0, DWORD PTR _fg$[ebp]
  000b6	f3 0f 11 45 e4	 movss	 DWORD PTR $T2[ebp+4], xmm0

; 922  :     b = fb;

  000bb	f3 0f 10 45 f0	 movss	 xmm0, DWORD PTR _fb$[ebp]
; File C:\Anka2Project\Anka2Project\Source\Binary\source\UserInterface\PythonCharacterModule.cpp

; 1026 : 		pkInst->SetAddColor(D3DXCOLOR(fr, fg, fb, 1.0f));

  000c0	50		 push	 eax
; File C:\Anka2Project\Anka2Project\Source\Binary\extern\include\d3dx8math.inl

; 922  :     b = fb;

  000c1	f3 0f 11 45 e8	 movss	 DWORD PTR $T2[ebp+8], xmm0

; 923  :     a = fa;

  000c6	c7 45 ec 00 00
	80 3f		 mov	 DWORD PTR $T2[ebp+12], 1065353216 ; 3f800000H
; File C:\Anka2Project\Anka2Project\Source\Binary\source\UserInterface\PythonCharacterModule.cpp

; 1026 : 		pkInst->SetAddColor(D3DXCOLOR(fr, fg, fb, 1.0f));

  000cd	e8 00 00 00 00	 call	 ?SetAddColor@CInstanceBase@@QAEXABUD3DXCOLOR@@@Z ; CInstanceBase::SetAddColor
$LN6@chrtestSet:

; 1027 : 	}
; 1028 : 
; 1029 : 	return Py_BuildNone();

  000d2	e8 00 00 00 00	 call	 ?Py_BuildNone@@YAPAU_object@@XZ ; Py_BuildNone

; 1030 : }

  000d7	5e		 pop	 esi
  000d8	8b e5		 mov	 esp, ebp
  000da	5d		 pop	 ebp
  000db	c3		 ret	 0
?chrtestSetAddRenderModeRGB@@YAPAU_object@@PAU1@0@Z ENDP ; chrtestSetAddRenderModeRGB
_TEXT	ENDS
; Function compile flags: /Ogtp
; File C:\Anka2Project\Anka2Project\Source\Binary\source\UserInterface\PythonCharacterModule.cpp
; File C:\Anka2Project\Anka2Project\Source\Binary\source\eterBase\Singleton.h
; File C:\Anka2Project\Anka2Project\Source\Binary\source\UserInterface\PythonCharacterModule.cpp
; File C:\Anka2Project\Anka2Project\Source\Binary\extern\include\d3dx8math.inl
; File C:\Anka2Project\Anka2Project\Source\Binary\source\UserInterface\PythonCharacterModule.cpp
; File C:\Anka2Project\Anka2Project\Source\Binary\extern\include\d3dx8math.inl
; File C:\Anka2Project\Anka2Project\Source\Binary\source\UserInterface\PythonCharacterModule.cpp
; File C:\Anka2Project\Anka2Project\Source\Binary\extern\include\d3dx8math.inl
; File C:\Anka2Project\Anka2Project\Source\Binary\source\UserInterface\PythonCharacterModule.cpp
; File C:\Anka2Project\Anka2Project\Source\Binary\extern\include\d3dx8math.inl
; File C:\Anka2Project\Anka2Project\Source\Binary\source\UserInterface\PythonCharacterModule.cpp
;	COMDAT ?chrtestSetModulateRenderModeRGB@@YAPAU_object@@PAU1@0@Z
_TEXT	SEGMENT
$T2 = -32						; size = 16
_fb$ = -16						; size = 4
_fg$ = -12						; size = 4
_fr$ = -8						; size = 4
_iVirtualID$ = -4					; size = 4
_poSelf$ = 8						; size = 4
_poArgs$ = 12						; size = 4
?chrtestSetModulateRenderModeRGB@@YAPAU_object@@PAU1@0@Z PROC ; chrtestSetModulateRenderModeRGB, COMDAT

; 1033 : {

  00000	55		 push	 ebp
  00001	8b ec		 mov	 ebp, esp
  00003	83 ec 24	 sub	 esp, 36			; 00000024H

; 1034 : 	int iVirtualID;
; 1035 : 	if (!PyTuple_GetInteger(poArgs, 0, &iVirtualID))

  00006	8d 45 fc	 lea	 eax, DWORD PTR _iVirtualID$[ebp]
  00009	56		 push	 esi
  0000a	8b 75 0c	 mov	 esi, DWORD PTR _poArgs$[ebp]
  0000d	50		 push	 eax
  0000e	6a 00		 push	 0
  00010	56		 push	 esi
  00011	e8 00 00 00 00	 call	 ?PyTuple_GetInteger@@YA_NPAU_object@@HPAH@Z ; PyTuple_GetInteger
  00016	83 c4 0c	 add	 esp, 12			; 0000000cH
  00019	84 c0		 test	 al, al
  0001b	75 0f		 jne	 SHORT $LN2@chrtestSet
$LN13@chrtestSet:

; 1055 : }

  0001d	6a 00		 push	 0
  0001f	e8 00 00 00 00	 call	 ?Py_BuildException@@YAPAU_object@@PBDZZ ; Py_BuildException
  00024	83 c4 04	 add	 esp, 4
  00027	5e		 pop	 esi
  00028	8b e5		 mov	 esp, ebp
  0002a	5d		 pop	 ebp
  0002b	c3		 ret	 0
$LN2@chrtestSet:

; 1036 : 		return Py_BuildException();
; 1037 : 	float fr;
; 1038 : 	if (!PyTuple_GetFloat(poArgs, 1, &fr))

  0002c	8d 45 f8	 lea	 eax, DWORD PTR _fr$[ebp]
  0002f	50		 push	 eax
  00030	6a 01		 push	 1
  00032	56		 push	 esi
  00033	e8 00 00 00 00	 call	 ?PyTuple_GetFloat@@YA_NPAU_object@@HPAM@Z ; PyTuple_GetFloat
  00038	83 c4 0c	 add	 esp, 12			; 0000000cH
  0003b	84 c0		 test	 al, al
  0003d	74 de		 je	 SHORT $LN13@chrtestSet

; 1039 : 		return Py_BuildException();
; 1040 : 	float fg;
; 1041 : 	if (!PyTuple_GetFloat(poArgs, 2, &fg))

  0003f	8d 45 f4	 lea	 eax, DWORD PTR _fg$[ebp]
  00042	50		 push	 eax
  00043	6a 02		 push	 2
  00045	56		 push	 esi
  00046	e8 00 00 00 00	 call	 ?PyTuple_GetFloat@@YA_NPAU_object@@HPAM@Z ; PyTuple_GetFloat
  0004b	83 c4 0c	 add	 esp, 12			; 0000000cH
  0004e	84 c0		 test	 al, al
  00050	74 cb		 je	 SHORT $LN13@chrtestSet

; 1042 : 		return Py_BuildException();
; 1043 : 	float fb;
; 1044 : 	if (!PyTuple_GetFloat(poArgs, 3, &fb))

  00052	8d 45 f0	 lea	 eax, DWORD PTR _fb$[ebp]
  00055	50		 push	 eax
  00056	6a 03		 push	 3
  00058	56		 push	 esi
  00059	e8 00 00 00 00	 call	 ?PyTuple_GetFloat@@YA_NPAU_object@@HPAM@Z ; PyTuple_GetFloat
  0005e	83 c4 0c	 add	 esp, 12			; 0000000cH
  00061	84 c0		 test	 al, al
  00063	74 b8		 je	 SHORT $LN13@chrtestSet
; File C:\Anka2Project\Anka2Project\Source\Binary\source\eterBase\Singleton.h

; 26   : 		assert(ms_singleton);

  00065	8b 0d 00 00 00
	00		 mov	 ecx, DWORD PTR ?ms_singleton@?$CSingleton@VCPythonCharacterManager@@@@0PAVCPythonCharacterManager@@A ; CSingleton<CPythonCharacterManager>::ms_singleton
  0006b	85 c9		 test	 ecx, ecx
  0006d	75 1a		 jne	 SHORT $LN10@chrtestSet
  0006f	6a 1a		 push	 26			; 0000001aH
  00071	68 00 00 00 00	 push	 OFFSET ??_C@_1IO@CAJLEEOI@?$AAC?$AA?3?$AA?2?$AAA?$AAn?$AAk?$AAa?$AA2?$AAP?$AAr?$AAo?$AAj?$AAe?$AAc?$AAt@
  00076	68 00 00 00 00	 push	 OFFSET ??_C@_1BK@FMEHPMFE@?$AAm?$AAs?$AA_?$AAs?$AAi?$AAn?$AAg?$AAl?$AAe?$AAt?$AAo?$AAn@
  0007b	e8 00 00 00 00	 call	 __wassert
  00080	8b 0d 00 00 00
	00		 mov	 ecx, DWORD PTR ?ms_singleton@?$CSingleton@VCPythonCharacterManager@@@@0PAVCPythonCharacterManager@@A ; CSingleton<CPythonCharacterManager>::ms_singleton
  00086	83 c4 0c	 add	 esp, 12			; 0000000cH
$LN10@chrtestSet:
; File C:\Anka2Project\Anka2Project\Source\Binary\source\UserInterface\PythonCharacterModule.cpp

; 1047 : 	CInstanceBase * pkInst = CPythonCharacterManager::Instance().GetInstancePtr(iVirtualID);

  00089	8b 41 04	 mov	 eax, DWORD PTR [ecx+4]
  0008c	83 c1 04	 add	 ecx, 4
  0008f	ff 75 fc	 push	 DWORD PTR _iVirtualID$[ebp]
  00092	ff 50 08	 call	 DWORD PTR [eax+8]
  00095	8b f0		 mov	 esi, eax

; 1048 : 	if (pkInst)

  00097	85 f6		 test	 esi, esi
  00099	74 37		 je	 SHORT $LN6@chrtestSet

; 1049 : 	{
; 1050 : 		pkInst->SetModulateRenderMode();

  0009b	8b ce		 mov	 ecx, esi
  0009d	e8 00 00 00 00	 call	 ?SetModulateRenderMode@CInstanceBase@@QAEXXZ ; CInstanceBase::SetModulateRenderMode
; File C:\Anka2Project\Anka2Project\Source\Binary\extern\include\d3dx8math.inl

; 920  :     r = fr;

  000a2	f3 0f 10 45 f8	 movss	 xmm0, DWORD PTR _fr$[ebp]
; File C:\Anka2Project\Anka2Project\Source\Binary\source\UserInterface\PythonCharacterModule.cpp

; 1051 : 		pkInst->SetAddColor(D3DXCOLOR(fr, fg, fb, 1.0f));

  000a7	8d 45 e0	 lea	 eax, DWORD PTR $T2[ebp]
; File C:\Anka2Project\Anka2Project\Source\Binary\extern\include\d3dx8math.inl

; 920  :     r = fr;

  000aa	f3 0f 11 45 e0	 movss	 DWORD PTR $T2[ebp], xmm0
; File C:\Anka2Project\Anka2Project\Source\Binary\source\UserInterface\PythonCharacterModule.cpp

; 1051 : 		pkInst->SetAddColor(D3DXCOLOR(fr, fg, fb, 1.0f));

  000af	8b ce		 mov	 ecx, esi
; File C:\Anka2Project\Anka2Project\Source\Binary\extern\include\d3dx8math.inl

; 921  :     g = fg;

  000b1	f3 0f 10 45 f4	 movss	 xmm0, DWORD PTR _fg$[ebp]
  000b6	f3 0f 11 45 e4	 movss	 DWORD PTR $T2[ebp+4], xmm0

; 922  :     b = fb;

  000bb	f3 0f 10 45 f0	 movss	 xmm0, DWORD PTR _fb$[ebp]
; File C:\Anka2Project\Anka2Project\Source\Binary\source\UserInterface\PythonCharacterModule.cpp

; 1051 : 		pkInst->SetAddColor(D3DXCOLOR(fr, fg, fb, 1.0f));

  000c0	50		 push	 eax
; File C:\Anka2Project\Anka2Project\Source\Binary\extern\include\d3dx8math.inl

; 922  :     b = fb;

  000c1	f3 0f 11 45 e8	 movss	 DWORD PTR $T2[ebp+8], xmm0

; 923  :     a = fa;

  000c6	c7 45 ec 00 00
	80 3f		 mov	 DWORD PTR $T2[ebp+12], 1065353216 ; 3f800000H
; File C:\Anka2Project\Anka2Project\Source\Binary\source\UserInterface\PythonCharacterModule.cpp

; 1051 : 		pkInst->SetAddColor(D3DXCOLOR(fr, fg, fb, 1.0f));

  000cd	e8 00 00 00 00	 call	 ?SetAddColor@CInstanceBase@@QAEXABUD3DXCOLOR@@@Z ; CInstanceBase::SetAddColor
$LN6@chrtestSet:

; 1052 : 	}
; 1053 : 
; 1054 : 	return Py_BuildNone();

  000d2	e8 00 00 00 00	 call	 ?Py_BuildNone@@YAPAU_object@@XZ ; Py_BuildNone

; 1055 : }

  000d7	5e		 pop	 esi
  000d8	8b e5		 mov	 esp, ebp
  000da	5d		 pop	 ebp
  000db	c3		 ret	 0
?chrtestSetModulateRenderModeRGB@@YAPAU_object@@PAU1@0@Z ENDP ; chrtestSetModulateRenderModeRGB
_TEXT	ENDS
; Function compile flags: /Ogtp
; File C:\Anka2Project\Anka2Project\Source\Binary\source\UserInterface\PythonCharacterModule.cpp
; File C:\Anka2Project\Anka2Project\Source\Binary\source\eterBase\Singleton.h
; File C:\Anka2Project\Anka2Project\Source\Binary\source\UserInterface\PythonCharacterModule.cpp
;	COMDAT ?chrtestSetSpecularRenderMode@@YAPAU_object@@PAU1@0@Z
_TEXT	SEGMENT
_iPart$ = -12						; size = 4
_fAlpha$ = -8						; size = 4
_iVirtualID$ = -4					; size = 4
_poSelf$ = 8						; size = 4
_poArgs$ = 12						; size = 4
?chrtestSetSpecularRenderMode@@YAPAU_object@@PAU1@0@Z PROC ; chrtestSetSpecularRenderMode, COMDAT

; 1058 : {

  00000	55		 push	 ebp
  00001	8b ec		 mov	 ebp, esp
  00003	83 ec 0c	 sub	 esp, 12			; 0000000cH

; 1059 : 	int iVirtualID;
; 1060 : 	if (!PyTuple_GetInteger(poArgs, 0, &iVirtualID))

  00006	8d 45 fc	 lea	 eax, DWORD PTR _iVirtualID$[ebp]
  00009	56		 push	 esi
  0000a	8b 75 0c	 mov	 esi, DWORD PTR _poArgs$[ebp]
  0000d	50		 push	 eax
  0000e	6a 00		 push	 0
  00010	56		 push	 esi
  00011	e8 00 00 00 00	 call	 ?PyTuple_GetInteger@@YA_NPAU_object@@HPAH@Z ; PyTuple_GetInteger
  00016	83 c4 0c	 add	 esp, 12			; 0000000cH
  00019	84 c0		 test	 al, al
  0001b	75 0f		 jne	 SHORT $LN2@chrtestSet
$LN15@chrtestSet:

; 1076 : }

  0001d	6a 00		 push	 0
  0001f	e8 00 00 00 00	 call	 ?Py_BuildException@@YAPAU_object@@PBDZZ ; Py_BuildException
  00024	83 c4 04	 add	 esp, 4
  00027	5e		 pop	 esi
  00028	8b e5		 mov	 esp, ebp
  0002a	5d		 pop	 ebp
  0002b	c3		 ret	 0
$LN2@chrtestSet:

; 1061 : 		return Py_BuildException();
; 1062 : 	int iPart;
; 1063 : 	if (!PyTuple_GetInteger(poArgs, 1, &iPart))

  0002c	8d 45 f4	 lea	 eax, DWORD PTR _iPart$[ebp]
  0002f	50		 push	 eax
  00030	6a 01		 push	 1
  00032	56		 push	 esi
  00033	e8 00 00 00 00	 call	 ?PyTuple_GetInteger@@YA_NPAU_object@@HPAH@Z ; PyTuple_GetInteger
  00038	83 c4 0c	 add	 esp, 12			; 0000000cH
  0003b	84 c0		 test	 al, al
  0003d	74 de		 je	 SHORT $LN15@chrtestSet

; 1064 : 		return Py_BuildException();
; 1065 : 	float fAlpha;
; 1066 : 	if (!PyTuple_GetFloat(poArgs, 2, &fAlpha))

  0003f	8d 45 f8	 lea	 eax, DWORD PTR _fAlpha$[ebp]
  00042	50		 push	 eax
  00043	6a 02		 push	 2
  00045	56		 push	 esi
  00046	e8 00 00 00 00	 call	 ?PyTuple_GetFloat@@YA_NPAU_object@@HPAM@Z ; PyTuple_GetFloat
  0004b	83 c4 0c	 add	 esp, 12			; 0000000cH
  0004e	84 c0		 test	 al, al
  00050	74 cb		 je	 SHORT $LN15@chrtestSet
; File C:\Anka2Project\Anka2Project\Source\Binary\source\eterBase\Singleton.h

; 26   : 		assert(ms_singleton);

  00052	8b 0d 00 00 00
	00		 mov	 ecx, DWORD PTR ?ms_singleton@?$CSingleton@VCPythonCharacterManager@@@@0PAVCPythonCharacterManager@@A ; CSingleton<CPythonCharacterManager>::ms_singleton
  00058	85 c9		 test	 ecx, ecx
  0005a	75 1a		 jne	 SHORT $LN9@chrtestSet
  0005c	6a 1a		 push	 26			; 0000001aH
  0005e	68 00 00 00 00	 push	 OFFSET ??_C@_1IO@CAJLEEOI@?$AAC?$AA?3?$AA?2?$AAA?$AAn?$AAk?$AAa?$AA2?$AAP?$AAr?$AAo?$AAj?$AAe?$AAc?$AAt@
  00063	68 00 00 00 00	 push	 OFFSET ??_C@_1BK@FMEHPMFE@?$AAm?$AAs?$AA_?$AAs?$AAi?$AAn?$AAg?$AAl?$AAe?$AAt?$AAo?$AAn@
  00068	e8 00 00 00 00	 call	 __wassert
  0006d	8b 0d 00 00 00
	00		 mov	 ecx, DWORD PTR ?ms_singleton@?$CSingleton@VCPythonCharacterManager@@@@0PAVCPythonCharacterManager@@A ; CSingleton<CPythonCharacterManager>::ms_singleton
  00073	83 c4 0c	 add	 esp, 12			; 0000000cH
$LN9@chrtestSet:
; File C:\Anka2Project\Anka2Project\Source\Binary\source\UserInterface\PythonCharacterModule.cpp

; 1069 : 	CInstanceBase * pkInst = CPythonCharacterManager::Instance().GetInstancePtr(iVirtualID);

  00076	8b 41 04	 mov	 eax, DWORD PTR [ecx+4]
  00079	83 c1 04	 add	 ecx, 4
  0007c	ff 75 fc	 push	 DWORD PTR _iVirtualID$[ebp]
  0007f	ff 50 08	 call	 DWORD PTR [eax+8]

; 1070 : 	if (pkInst)

  00082	85 c0		 test	 eax, eax
  00084	74 1e		 je	 SHORT $LN5@chrtestSet

; 1071 : 	{
; 1072 : 		pkInst->GetGraphicThingInstanceRef().SetSpecularInfo(TRUE, iPart, fAlpha);

  00086	f3 0f 10 45 f8	 movss	 xmm0, DWORD PTR _fAlpha$[ebp]
  0008b	51		 push	 ecx
  0008c	f3 0f 11 04 24	 movss	 DWORD PTR [esp], xmm0
  00091	8b c8		 mov	 ecx, eax
  00093	ff 75 f4	 push	 DWORD PTR _iPart$[ebp]
  00096	6a 01		 push	 1
  00098	e8 00 00 00 00	 call	 ?GetGraphicThingInstanceRef@CInstanceBase@@QAEAAVCActorInstance@@XZ ; CInstanceBase::GetGraphicThingInstanceRef
  0009d	8b c8		 mov	 ecx, eax
  0009f	e8 00 00 00 00	 call	 ?SetSpecularInfo@CActorInstance@@QAEXHHM@Z ; CActorInstance::SetSpecularInfo
$LN5@chrtestSet:

; 1073 : 	}
; 1074 : 
; 1075 : 	return Py_BuildNone();

  000a4	e8 00 00 00 00	 call	 ?Py_BuildNone@@YAPAU_object@@XZ ; Py_BuildNone
  000a9	5e		 pop	 esi

; 1076 : }

  000aa	8b e5		 mov	 esp, ebp
  000ac	5d		 pop	 ebp
  000ad	c3		 ret	 0
?chrtestSetSpecularRenderMode@@YAPAU_object@@PAU1@0@Z ENDP ; chrtestSetSpecularRenderMode
_TEXT	ENDS
; Function compile flags: /Ogtp
; File C:\Anka2Project\Anka2Project\Source\Binary\source\UserInterface\PythonCharacterModule.cpp
; File C:\Anka2Project\Anka2Project\Source\Binary\source\eterBase\Singleton.h
; File C:\Anka2Project\Anka2Project\Source\Binary\source\UserInterface\PythonCharacterModule.cpp
;	COMDAT ?chrtestSetSpecularRenderMode2@@YAPAU_object@@PAU1@0@Z
_TEXT	SEGMENT
_iPart$ = -12						; size = 4
_fAlpha$ = -8						; size = 4
_iVirtualID$ = -4					; size = 4
_poSelf$ = 8						; size = 4
_poArgs$ = 12						; size = 4
?chrtestSetSpecularRenderMode2@@YAPAU_object@@PAU1@0@Z PROC ; chrtestSetSpecularRenderMode2, COMDAT

; 1079 : {

  00000	55		 push	 ebp
  00001	8b ec		 mov	 ebp, esp
  00003	83 ec 0c	 sub	 esp, 12			; 0000000cH

; 1080 : 	int iVirtualID;
; 1081 : 	if (!PyTuple_GetInteger(poArgs, 0, &iVirtualID))

  00006	8d 45 fc	 lea	 eax, DWORD PTR _iVirtualID$[ebp]
  00009	56		 push	 esi
  0000a	8b 75 0c	 mov	 esi, DWORD PTR _poArgs$[ebp]
  0000d	50		 push	 eax
  0000e	6a 00		 push	 0
  00010	56		 push	 esi
  00011	e8 00 00 00 00	 call	 ?PyTuple_GetInteger@@YA_NPAU_object@@HPAH@Z ; PyTuple_GetInteger
  00016	83 c4 0c	 add	 esp, 12			; 0000000cH
  00019	84 c0		 test	 al, al
  0001b	75 0f		 jne	 SHORT $LN2@chrtestSet
$LN15@chrtestSet:

; 1097 : }

  0001d	6a 00		 push	 0
  0001f	e8 00 00 00 00	 call	 ?Py_BuildException@@YAPAU_object@@PBDZZ ; Py_BuildException
  00024	83 c4 04	 add	 esp, 4
  00027	5e		 pop	 esi
  00028	8b e5		 mov	 esp, ebp
  0002a	5d		 pop	 ebp
  0002b	c3		 ret	 0
$LN2@chrtestSet:

; 1082 : 		return Py_BuildException();
; 1083 : 	int iPart;
; 1084 : 	if (!PyTuple_GetInteger(poArgs, 1, &iPart))

  0002c	8d 45 f4	 lea	 eax, DWORD PTR _iPart$[ebp]
  0002f	50		 push	 eax
  00030	6a 01		 push	 1
  00032	56		 push	 esi
  00033	e8 00 00 00 00	 call	 ?PyTuple_GetInteger@@YA_NPAU_object@@HPAH@Z ; PyTuple_GetInteger
  00038	83 c4 0c	 add	 esp, 12			; 0000000cH
  0003b	84 c0		 test	 al, al
  0003d	74 de		 je	 SHORT $LN15@chrtestSet

; 1085 : 		return Py_BuildException();
; 1086 : 	float fAlpha;
; 1087 : 	if (!PyTuple_GetFloat(poArgs, 2, &fAlpha))

  0003f	8d 45 f8	 lea	 eax, DWORD PTR _fAlpha$[ebp]
  00042	50		 push	 eax
  00043	6a 02		 push	 2
  00045	56		 push	 esi
  00046	e8 00 00 00 00	 call	 ?PyTuple_GetFloat@@YA_NPAU_object@@HPAM@Z ; PyTuple_GetFloat
  0004b	83 c4 0c	 add	 esp, 12			; 0000000cH
  0004e	84 c0		 test	 al, al
  00050	74 cb		 je	 SHORT $LN15@chrtestSet
; File C:\Anka2Project\Anka2Project\Source\Binary\source\eterBase\Singleton.h

; 26   : 		assert(ms_singleton);

  00052	8b 0d 00 00 00
	00		 mov	 ecx, DWORD PTR ?ms_singleton@?$CSingleton@VCPythonCharacterManager@@@@0PAVCPythonCharacterManager@@A ; CSingleton<CPythonCharacterManager>::ms_singleton
  00058	85 c9		 test	 ecx, ecx
  0005a	75 1a		 jne	 SHORT $LN9@chrtestSet
  0005c	6a 1a		 push	 26			; 0000001aH
  0005e	68 00 00 00 00	 push	 OFFSET ??_C@_1IO@CAJLEEOI@?$AAC?$AA?3?$AA?2?$AAA?$AAn?$AAk?$AAa?$AA2?$AAP?$AAr?$AAo?$AAj?$AAe?$AAc?$AAt@
  00063	68 00 00 00 00	 push	 OFFSET ??_C@_1BK@FMEHPMFE@?$AAm?$AAs?$AA_?$AAs?$AAi?$AAn?$AAg?$AAl?$AAe?$AAt?$AAo?$AAn@
  00068	e8 00 00 00 00	 call	 __wassert
  0006d	8b 0d 00 00 00
	00		 mov	 ecx, DWORD PTR ?ms_singleton@?$CSingleton@VCPythonCharacterManager@@@@0PAVCPythonCharacterManager@@A ; CSingleton<CPythonCharacterManager>::ms_singleton
  00073	83 c4 0c	 add	 esp, 12			; 0000000cH
$LN9@chrtestSet:
; File C:\Anka2Project\Anka2Project\Source\Binary\source\UserInterface\PythonCharacterModule.cpp

; 1090 : 	CInstanceBase * pkInst = CPythonCharacterManager::Instance().GetInstancePtr(iVirtualID);

  00076	8b 41 04	 mov	 eax, DWORD PTR [ecx+4]
  00079	83 c1 04	 add	 ecx, 4
  0007c	ff 75 fc	 push	 DWORD PTR _iVirtualID$[ebp]
  0007f	ff 50 08	 call	 DWORD PTR [eax+8]

; 1091 : 	if (pkInst)

  00082	85 c0		 test	 eax, eax
  00084	74 1e		 je	 SHORT $LN5@chrtestSet

; 1092 : 	{
; 1093 : 		pkInst->GetGraphicThingInstanceRef().SetSpecularInfoForce(TRUE, iPart, fAlpha);

  00086	f3 0f 10 45 f8	 movss	 xmm0, DWORD PTR _fAlpha$[ebp]
  0008b	51		 push	 ecx
  0008c	f3 0f 11 04 24	 movss	 DWORD PTR [esp], xmm0
  00091	8b c8		 mov	 ecx, eax
  00093	ff 75 f4	 push	 DWORD PTR _iPart$[ebp]
  00096	6a 01		 push	 1
  00098	e8 00 00 00 00	 call	 ?GetGraphicThingInstanceRef@CInstanceBase@@QAEAAVCActorInstance@@XZ ; CInstanceBase::GetGraphicThingInstanceRef
  0009d	8b c8		 mov	 ecx, eax
  0009f	e8 00 00 00 00	 call	 ?SetSpecularInfoForce@CActorInstance@@QAEXHHM@Z ; CActorInstance::SetSpecularInfoForce
$LN5@chrtestSet:

; 1094 : 	}
; 1095 : 
; 1096 : 	return Py_BuildNone();

  000a4	e8 00 00 00 00	 call	 ?Py_BuildNone@@YAPAU_object@@XZ ; Py_BuildNone
  000a9	5e		 pop	 esi

; 1097 : }

  000aa	8b e5		 mov	 esp, ebp
  000ac	5d		 pop	 ebp
  000ad	c3		 ret	 0
?chrtestSetSpecularRenderMode2@@YAPAU_object@@PAU1@0@Z ENDP ; chrtestSetSpecularRenderMode2
_TEXT	ENDS
; Function compile flags: /Ogtp
; File C:\Anka2Project\Anka2Project\Source\Binary\source\UserInterface\PythonCharacterModule.cpp
; File C:\Anka2Project\Anka2Project\Source\Binary\source\eterBase\Singleton.h
; File C:\Anka2Project\Anka2Project\Source\Binary\source\UserInterface\PythonCharacterModule.cpp
;	COMDAT ?chrtestRestoreRenderMode@@YAPAU_object@@PAU1@0@Z
_TEXT	SEGMENT
_iVirtualID$ = -4					; size = 4
_poSelf$ = 8						; size = 4
_poArgs$ = 12						; size = 4
?chrtestRestoreRenderMode@@YAPAU_object@@PAU1@0@Z PROC	; chrtestRestoreRenderMode, COMDAT

; 1100 : {

  00000	55		 push	 ebp
  00001	8b ec		 mov	 ebp, esp
  00003	51		 push	 ecx

; 1101 : 	int iVirtualID;
; 1102 : 	if (!PyTuple_GetInteger(poArgs, 0, &iVirtualID))

  00004	8d 45 fc	 lea	 eax, DWORD PTR _iVirtualID$[ebp]
  00007	50		 push	 eax
  00008	6a 00		 push	 0
  0000a	ff 75 0c	 push	 DWORD PTR _poArgs$[ebp]
  0000d	e8 00 00 00 00	 call	 ?PyTuple_GetInteger@@YA_NPAU_object@@HPAH@Z ; PyTuple_GetInteger
  00012	83 c4 0c	 add	 esp, 12			; 0000000cH
  00015	84 c0		 test	 al, al
  00017	75 0e		 jne	 SHORT $LN2@chrtestRes

; 1103 : 		return Py_BuildException();

  00019	6a 00		 push	 0
  0001b	e8 00 00 00 00	 call	 ?Py_BuildException@@YAPAU_object@@PBDZZ ; Py_BuildException
  00020	83 c4 04	 add	 esp, 4

; 1112 : }

  00023	8b e5		 mov	 esp, ebp
  00025	5d		 pop	 ebp
  00026	c3		 ret	 0
$LN2@chrtestRes:
; File C:\Anka2Project\Anka2Project\Source\Binary\source\eterBase\Singleton.h

; 26   : 		assert(ms_singleton);

  00027	8b 0d 00 00 00
	00		 mov	 ecx, DWORD PTR ?ms_singleton@?$CSingleton@VCPythonCharacterManager@@@@0PAVCPythonCharacterManager@@A ; CSingleton<CPythonCharacterManager>::ms_singleton
  0002d	85 c9		 test	 ecx, ecx
  0002f	75 1a		 jne	 SHORT $LN7@chrtestRes
  00031	6a 1a		 push	 26			; 0000001aH
  00033	68 00 00 00 00	 push	 OFFSET ??_C@_1IO@CAJLEEOI@?$AAC?$AA?3?$AA?2?$AAA?$AAn?$AAk?$AAa?$AA2?$AAP?$AAr?$AAo?$AAj?$AAe?$AAc?$AAt@
  00038	68 00 00 00 00	 push	 OFFSET ??_C@_1BK@FMEHPMFE@?$AAm?$AAs?$AA_?$AAs?$AAi?$AAn?$AAg?$AAl?$AAe?$AAt?$AAo?$AAn@
  0003d	e8 00 00 00 00	 call	 __wassert
  00042	8b 0d 00 00 00
	00		 mov	 ecx, DWORD PTR ?ms_singleton@?$CSingleton@VCPythonCharacterManager@@@@0PAVCPythonCharacterManager@@A ; CSingleton<CPythonCharacterManager>::ms_singleton
  00048	83 c4 0c	 add	 esp, 12			; 0000000cH
$LN7@chrtestRes:
; File C:\Anka2Project\Anka2Project\Source\Binary\source\UserInterface\PythonCharacterModule.cpp

; 1105 : 	CInstanceBase * pkInst = CPythonCharacterManager::Instance().GetInstancePtr(iVirtualID);

  0004b	8b 41 04	 mov	 eax, DWORD PTR [ecx+4]
  0004e	83 c1 04	 add	 ecx, 4
  00051	ff 75 fc	 push	 DWORD PTR _iVirtualID$[ebp]
  00054	ff 50 08	 call	 DWORD PTR [eax+8]

; 1106 : 	if (pkInst)

  00057	85 c0		 test	 eax, eax
  00059	74 07		 je	 SHORT $LN3@chrtestRes

; 1107 : 	{
; 1108 : 		pkInst->RestoreRenderMode();

  0005b	8b c8		 mov	 ecx, eax
  0005d	e8 00 00 00 00	 call	 ?RestoreRenderMode@CInstanceBase@@QAEXXZ ; CInstanceBase::RestoreRenderMode
$LN3@chrtestRes:

; 1109 : 	}
; 1110 : 
; 1111 : 	return Py_BuildNone();

  00062	e8 00 00 00 00	 call	 ?Py_BuildNone@@YAPAU_object@@XZ ; Py_BuildNone

; 1112 : }

  00067	8b e5		 mov	 esp, ebp
  00069	5d		 pop	 ebp
  0006a	c3		 ret	 0
?chrtestRestoreRenderMode@@YAPAU_object@@PAU1@0@Z ENDP	; chrtestRestoreRenderMode
_TEXT	ENDS
; Function compile flags: /Ogtp
; File C:\Anka2Project\Anka2Project\Source\Binary\source\UserInterface\PythonCharacterModule.cpp
; File C:\Anka2Project\Anka2Project\Source\Binary\source\eterBase\Singleton.h
; File C:\Anka2Project\Anka2Project\Source\Binary\source\UserInterface\PythonCharacterModule.cpp
; File C:\Anka2Project\Anka2Project\Source\Binary\extern\include\d3dx8math.inl
; File C:\Anka2Project\Anka2Project\Source\Binary\source\UserInterface\PythonCharacterModule.cpp
; File C:\Anka2Project\Anka2Project\Source\Binary\extern\include\d3dx8math.inl
; File C:\Anka2Project\Anka2Project\Source\Binary\source\UserInterface\PythonCharacterModule.cpp
;	COMDAT ?chrMoveToDestPosition@@YAPAU_object@@PAU1@0@Z
_TEXT	SEGMENT
_iy$ = -28						; size = 4
_ix$ = -24						; size = 4
_iVID$ = -20						; size = 4
$T2 = -16						; size = 12
__$ArrayPad$ = -4					; size = 4
_poSelf$ = 8						; size = 4
_poArgs$ = 12						; size = 4
?chrMoveToDestPosition@@YAPAU_object@@PAU1@0@Z PROC	; chrMoveToDestPosition, COMDAT

; 1180 : {

  00000	55		 push	 ebp
  00001	8b ec		 mov	 ebp, esp
  00003	83 ec 1c	 sub	 esp, 28			; 0000001cH
  00006	a1 00 00 00 00	 mov	 eax, DWORD PTR ___security_cookie
  0000b	33 c5		 xor	 eax, ebp
  0000d	89 45 fc	 mov	 DWORD PTR __$ArrayPad$[ebp], eax
  00010	56		 push	 esi
  00011	8b 75 0c	 mov	 esi, DWORD PTR _poArgs$[ebp]

; 1181 : 	int iVID;
; 1182 : 	if (!PyTuple_GetInteger(poArgs, 0, &iVID))

  00014	8d 45 ec	 lea	 eax, DWORD PTR _iVID$[ebp]
  00017	50		 push	 eax
  00018	6a 00		 push	 0
  0001a	56		 push	 esi
  0001b	e8 00 00 00 00	 call	 ?PyTuple_GetInteger@@YA_NPAU_object@@HPAH@Z ; PyTuple_GetInteger
  00020	83 c4 0c	 add	 esp, 12			; 0000000cH
  00023	84 c0		 test	 al, al
  00025	75 14		 jne	 SHORT $LN2@chrMoveToD
$LN13@chrMoveToD:

; 1197 : 
; 1198 : 	return Py_BuildNone();
; 1199 : }

  00027	e8 00 00 00 00	 call	 ?Py_BadArgument@@YAPAU_object@@XZ ; Py_BadArgument
  0002c	5e		 pop	 esi
  0002d	8b 4d fc	 mov	 ecx, DWORD PTR __$ArrayPad$[ebp]
  00030	33 cd		 xor	 ecx, ebp
  00032	e8 00 00 00 00	 call	 @__security_check_cookie@4
  00037	8b e5		 mov	 esp, ebp
  00039	5d		 pop	 ebp
  0003a	c3		 ret	 0
$LN2@chrMoveToD:

; 1183 : 		return Py_BadArgument();
; 1184 : 
; 1185 : 	int ix;
; 1186 : 	if (!PyTuple_GetInteger(poArgs, 1, &ix))

  0003b	8d 45 e8	 lea	 eax, DWORD PTR _ix$[ebp]
  0003e	50		 push	 eax
  0003f	6a 01		 push	 1
  00041	56		 push	 esi
  00042	e8 00 00 00 00	 call	 ?PyTuple_GetInteger@@YA_NPAU_object@@HPAH@Z ; PyTuple_GetInteger
  00047	83 c4 0c	 add	 esp, 12			; 0000000cH
  0004a	84 c0		 test	 al, al
  0004c	74 d9		 je	 SHORT $LN13@chrMoveToD

; 1187 : 		return Py_BadArgument();
; 1188 : 	int iy;
; 1189 : 	if (!PyTuple_GetInteger(poArgs, 2, &iy))

  0004e	8d 45 e4	 lea	 eax, DWORD PTR _iy$[ebp]
  00051	50		 push	 eax
  00052	6a 02		 push	 2
  00054	56		 push	 esi
  00055	e8 00 00 00 00	 call	 ?PyTuple_GetInteger@@YA_NPAU_object@@HPAH@Z ; PyTuple_GetInteger
  0005a	83 c4 0c	 add	 esp, 12			; 0000000cH
  0005d	84 c0		 test	 al, al
  0005f	74 c6		 je	 SHORT $LN13@chrMoveToD
; File C:\Anka2Project\Anka2Project\Source\Binary\source\eterBase\Singleton.h

; 26   : 		assert(ms_singleton);

  00061	8b 0d 00 00 00
	00		 mov	 ecx, DWORD PTR ?ms_singleton@?$CSingleton@VCPythonCharacterManager@@@@0PAVCPythonCharacterManager@@A ; CSingleton<CPythonCharacterManager>::ms_singleton
  00067	85 c9		 test	 ecx, ecx
  00069	75 1a		 jne	 SHORT $LN9@chrMoveToD
  0006b	6a 1a		 push	 26			; 0000001aH
  0006d	68 00 00 00 00	 push	 OFFSET ??_C@_1IO@CAJLEEOI@?$AAC?$AA?3?$AA?2?$AAA?$AAn?$AAk?$AAa?$AA2?$AAP?$AAr?$AAo?$AAj?$AAe?$AAc?$AAt@
  00072	68 00 00 00 00	 push	 OFFSET ??_C@_1BK@FMEHPMFE@?$AAm?$AAs?$AA_?$AAs?$AAi?$AAn?$AAg?$AAl?$AAe?$AAt?$AAo?$AAn@
  00077	e8 00 00 00 00	 call	 __wassert
  0007c	8b 0d 00 00 00
	00		 mov	 ecx, DWORD PTR ?ms_singleton@?$CSingleton@VCPythonCharacterManager@@@@0PAVCPythonCharacterManager@@A ; CSingleton<CPythonCharacterManager>::ms_singleton
  00082	83 c4 0c	 add	 esp, 12			; 0000000cH
$LN9@chrMoveToD:
; File C:\Anka2Project\Anka2Project\Source\Binary\source\UserInterface\PythonCharacterModule.cpp

; 1192 : 	CInstanceBase * pCharacterInstance = CPythonCharacterManager::Instance().GetInstancePtr(iVID);

  00085	8b 41 04	 mov	 eax, DWORD PTR [ecx+4]
  00088	83 c1 04	 add	 ecx, 4
  0008b	ff 75 ec	 push	 DWORD PTR _iVID$[ebp]
  0008e	ff 50 08	 call	 DWORD PTR [eax+8]

; 1193 : 	if (!pCharacterInstance)

  00091	85 c0		 test	 eax, eax
  00093	74 2c		 je	 SHORT $LN12@chrMoveToD

; 1196 : 	pCharacterInstance->NEW_MoveToDestPixelPositionDirection(TPixelPosition(ix, iy, 0.0f));

  00095	66 0f 6e 45 e8	 movd	 xmm0, DWORD PTR _ix$[ebp]
  0009a	8d 4d f0	 lea	 ecx, DWORD PTR $T2[ebp]
  0009d	0f 5b c0	 cvtdq2ps xmm0, xmm0
  000a0	51		 push	 ecx
  000a1	8b c8		 mov	 ecx, eax
; File C:\Anka2Project\Anka2Project\Source\Binary\extern\include\d3dx8math.inl

; 182  :     z = fz;

  000a3	c7 45 f8 00 00
	00 00		 mov	 DWORD PTR $T2[ebp+8], 0
  000aa	f3 0f 11 45 f0	 movss	 DWORD PTR $T2[ebp], xmm0
  000af	66 0f 6e 45 e4	 movd	 xmm0, DWORD PTR _iy$[ebp]
; File C:\Anka2Project\Anka2Project\Source\Binary\source\UserInterface\PythonCharacterModule.cpp

; 1196 : 	pCharacterInstance->NEW_MoveToDestPixelPositionDirection(TPixelPosition(ix, iy, 0.0f));

  000b4	0f 5b c0	 cvtdq2ps xmm0, xmm0
; File C:\Anka2Project\Anka2Project\Source\Binary\extern\include\d3dx8math.inl

; 181  :     y = fy;

  000b7	f3 0f 11 45 f4	 movss	 DWORD PTR $T2[ebp+4], xmm0
; File C:\Anka2Project\Anka2Project\Source\Binary\source\UserInterface\PythonCharacterModule.cpp

; 1196 : 	pCharacterInstance->NEW_MoveToDestPixelPositionDirection(TPixelPosition(ix, iy, 0.0f));

  000bc	e8 00 00 00 00	 call	 ?NEW_MoveToDestPixelPositionDirection@CInstanceBase@@QAE_NABUD3DXVECTOR3@@@Z ; CInstanceBase::NEW_MoveToDestPixelPositionDirection
$LN12@chrMoveToD:

; 1197 : 
; 1198 : 	return Py_BuildNone();
; 1199 : }

  000c1	e8 00 00 00 00	 call	 ?Py_BuildNone@@YAPAU_object@@XZ ; Py_BuildNone
  000c6	8b 4d fc	 mov	 ecx, DWORD PTR __$ArrayPad$[ebp]
  000c9	33 cd		 xor	 ecx, ebp
  000cb	5e		 pop	 esi
  000cc	e8 00 00 00 00	 call	 @__security_check_cookie@4
  000d1	8b e5		 mov	 esp, ebp
  000d3	5d		 pop	 ebp
  000d4	c3		 ret	 0
?chrMoveToDestPosition@@YAPAU_object@@PAU1@0@Z ENDP	; chrMoveToDestPosition
_TEXT	ENDS
; Function compile flags: /Ogtp
; File C:\Anka2Project\Anka2Project\Source\Binary\source\UserInterface\PythonCharacterModule.cpp
; File C:\Anka2Project\Anka2Project\Source\Binary\source\eterBase\Singleton.h
; File C:\Anka2Project\Anka2Project\Source\Binary\source\UserInterface\PythonCharacterModule.cpp
;	COMDAT ?chrGetHair@@YAPAU_object@@PAU1@0@Z
_TEXT	SEGMENT
_poSelf$ = 8						; size = 4
_poArgs$ = 12						; size = 4
?chrGetHair@@YAPAU_object@@PAU1@0@Z PROC		; chrGetHair, COMDAT
; File C:\Anka2Project\Anka2Project\Source\Binary\source\eterBase\Singleton.h

; 26   : 		assert(ms_singleton);

  00000	8b 0d 00 00 00
	00		 mov	 ecx, DWORD PTR ?ms_singleton@?$CSingleton@VCPythonCharacterManager@@@@0PAVCPythonCharacterManager@@A ; CSingleton<CPythonCharacterManager>::ms_singleton
  00006	85 c9		 test	 ecx, ecx
  00008	75 1a		 jne	 SHORT $LN6@chrGetHair
  0000a	6a 1a		 push	 26			; 0000001aH
  0000c	68 00 00 00 00	 push	 OFFSET ??_C@_1IO@CAJLEEOI@?$AAC?$AA?3?$AA?2?$AAA?$AAn?$AAk?$AAa?$AA2?$AAP?$AAr?$AAo?$AAj?$AAe?$AAc?$AAt@
  00011	68 00 00 00 00	 push	 OFFSET ??_C@_1BK@FMEHPMFE@?$AAm?$AAs?$AA_?$AAs?$AAi?$AAn?$AAg?$AAl?$AAe?$AAt?$AAo?$AAn@
  00016	e8 00 00 00 00	 call	 __wassert
  0001b	8b 0d 00 00 00
	00		 mov	 ecx, DWORD PTR ?ms_singleton@?$CSingleton@VCPythonCharacterManager@@@@0PAVCPythonCharacterManager@@A ; CSingleton<CPythonCharacterManager>::ms_singleton
  00021	83 c4 0c	 add	 esp, 12			; 0000000cH
$LN6@chrGetHair:
; File C:\Anka2Project\Anka2Project\Source\Binary\source\UserInterface\PythonCharacterModule.cpp

; 1251 : 	CInstanceBase * pkInst = CPythonCharacterManager::Instance().GetSelectedInstancePtr();

  00024	e8 00 00 00 00	 call	 ?GetSelectedInstancePtr@CPythonCharacterManager@@QAEPAVCInstanceBase@@XZ ; CPythonCharacterManager::GetSelectedInstancePtr

; 1252 : 	if (!pkInst)

  00029	85 c0		 test	 eax, eax
  0002b	75 10		 jne	 SHORT $LN2@chrGetHair

; 1253 : 		return Py_BuildValue("i", 0);

  0002d	50		 push	 eax

; 1256 : }

  0002e	68 00 00 00 00	 push	 OFFSET ??_C@_01KBJDNOO@i@
  00033	ff 15 00 00 00
	00		 call	 DWORD PTR __imp__Py_BuildValue
  00039	83 c4 08	 add	 esp, 8
  0003c	c3		 ret	 0
$LN2@chrGetHair:

; 1254 : 
; 1255 : 	return Py_BuildValue("i", pkInst->GetHair());

  0003d	8b c8		 mov	 ecx, eax
  0003f	e8 00 00 00 00	 call	 ?GetHair@CInstanceBase@@QAEKXZ ; CInstanceBase::GetHair
  00044	50		 push	 eax

; 1256 : }

  00045	68 00 00 00 00	 push	 OFFSET ??_C@_01KBJDNOO@i@
  0004a	ff 15 00 00 00
	00		 call	 DWORD PTR __imp__Py_BuildValue
  00050	83 c4 08	 add	 esp, 8
  00053	c3		 ret	 0
?chrGetHair@@YAPAU_object@@PAU1@0@Z ENDP		; chrGetHair
_TEXT	ENDS
; Function compile flags: /Ogtp
; File C:\Anka2Project\Anka2Project\Source\Binary\source\UserInterface\PythonCharacterModule.cpp
; File C:\Anka2Project\Anka2Project\Source\Binary\source\eterBase\Singleton.h
; File C:\Anka2Project\Anka2Project\Source\Binary\source\UserInterface\PythonCharacterModule.cpp
;	COMDAT ?chrIsPremium@@YAPAU_object@@PAU1@0@Z
_TEXT	SEGMENT
_iVirtualID$ = -4					; size = 4
_poSelf$ = 8						; size = 4
_poArgs$ = 12						; size = 4
?chrIsPremium@@YAPAU_object@@PAU1@0@Z PROC		; chrIsPremium, COMDAT

; 1261 : {

  00000	55		 push	 ebp
  00001	8b ec		 mov	 ebp, esp
  00003	51		 push	 ecx

; 1262 : 	int iVirtualID;
; 1263 : 	if (!PyTuple_GetInteger(poArgs, 0, &iVirtualID))

  00004	8d 45 fc	 lea	 eax, DWORD PTR _iVirtualID$[ebp]
  00007	50		 push	 eax
  00008	6a 00		 push	 0
  0000a	ff 75 0c	 push	 DWORD PTR _poArgs$[ebp]
  0000d	e8 00 00 00 00	 call	 ?PyTuple_GetInteger@@YA_NPAU_object@@HPAH@Z ; PyTuple_GetInteger
  00012	83 c4 0c	 add	 esp, 12			; 0000000cH
  00015	84 c0		 test	 al, al
  00017	75 0e		 jne	 SHORT $LN2@chrIsPremi

; 1264 : 		return Py_BuildException();

  00019	6a 00		 push	 0
  0001b	e8 00 00 00 00	 call	 ?Py_BuildException@@YAPAU_object@@PBDZZ ; Py_BuildException
  00020	83 c4 04	 add	 esp, 4

; 1271 : }

  00023	8b e5		 mov	 esp, ebp
  00025	5d		 pop	 ebp
  00026	c3		 ret	 0
$LN2@chrIsPremi:
; File C:\Anka2Project\Anka2Project\Source\Binary\source\eterBase\Singleton.h

; 26   : 		assert(ms_singleton);

  00027	8b 0d 00 00 00
	00		 mov	 ecx, DWORD PTR ?ms_singleton@?$CSingleton@VCPythonCharacterManager@@@@0PAVCPythonCharacterManager@@A ; CSingleton<CPythonCharacterManager>::ms_singleton
  0002d	85 c9		 test	 ecx, ecx
  0002f	75 1a		 jne	 SHORT $LN7@chrIsPremi
  00031	6a 1a		 push	 26			; 0000001aH
  00033	68 00 00 00 00	 push	 OFFSET ??_C@_1IO@CAJLEEOI@?$AAC?$AA?3?$AA?2?$AAA?$AAn?$AAk?$AAa?$AA2?$AAP?$AAr?$AAo?$AAj?$AAe?$AAc?$AAt@
  00038	68 00 00 00 00	 push	 OFFSET ??_C@_1BK@FMEHPMFE@?$AAm?$AAs?$AA_?$AAs?$AAi?$AAn?$AAg?$AAl?$AAe?$AAt?$AAo?$AAn@
  0003d	e8 00 00 00 00	 call	 __wassert
  00042	8b 0d 00 00 00
	00		 mov	 ecx, DWORD PTR ?ms_singleton@?$CSingleton@VCPythonCharacterManager@@@@0PAVCPythonCharacterManager@@A ; CSingleton<CPythonCharacterManager>::ms_singleton
  00048	83 c4 0c	 add	 esp, 12			; 0000000cH
$LN7@chrIsPremi:
; File C:\Anka2Project\Anka2Project\Source\Binary\source\UserInterface\PythonCharacterModule.cpp

; 1266 : 	CInstanceBase * pInstance = CPythonCharacterManager::Instance().GetInstancePtr(iVirtualID);

  0004b	8b 41 04	 mov	 eax, DWORD PTR [ecx+4]
  0004e	83 c1 04	 add	 ecx, 4
  00051	ff 75 fc	 push	 DWORD PTR _iVirtualID$[ebp]
  00054	ff 50 08	 call	 DWORD PTR [eax+8]

; 1267 : 	if (!pInstance)

  00057	85 c0		 test	 eax, eax
  00059	75 13		 jne	 SHORT $LN3@chrIsPremi

; 1268 : 		return Py_BuildValue("i", 0);

  0005b	50		 push	 eax

; 1271 : }

  0005c	68 00 00 00 00	 push	 OFFSET ??_C@_01KBJDNOO@i@
  00061	ff 15 00 00 00
	00		 call	 DWORD PTR __imp__Py_BuildValue
  00067	83 c4 08	 add	 esp, 8
  0006a	8b e5		 mov	 esp, ebp
  0006c	5d		 pop	 ebp
  0006d	c3		 ret	 0
$LN3@chrIsPremi:

; 1269 : 
; 1270 : 	return Py_BuildValue("i", pInstance->IsPremium());

  0006e	8b c8		 mov	 ecx, eax
  00070	e8 00 00 00 00	 call	 ?IsPremium@CInstanceBase@@QAEHXZ ; CInstanceBase::IsPremium
  00075	50		 push	 eax

; 1271 : }

  00076	68 00 00 00 00	 push	 OFFSET ??_C@_01KBJDNOO@i@
  0007b	ff 15 00 00 00
	00		 call	 DWORD PTR __imp__Py_BuildValue
  00081	83 c4 08	 add	 esp, 8
  00084	8b e5		 mov	 esp, ebp
  00086	5d		 pop	 ebp
  00087	c3		 ret	 0
?chrIsPremium@@YAPAU_object@@PAU1@0@Z ENDP		; chrIsPremium
_TEXT	ENDS
; Function compile flags: /Ogtp
; File C:\Anka2Project\Anka2Project\Source\Binary\source\UserInterface\PythonCharacterModule.cpp
; File C:\Program Files\Microsoft Visual Studio\2022\Community\VC\Tools\MSVC\14.44.35207\include\xstring
; File C:\Anka2Project\Anka2Project\Source\Binary\source\UserInterface\PythonCharacterModule.cpp
; File C:\Program Files\Microsoft Visual Studio\2022\Community\VC\Tools\MSVC\14.44.35207\include\xstring
; File C:\Anka2Project\Anka2Project\Source\Binary\source\UserInterface\PythonCharacterModule.cpp
; File C:\Program Files\Microsoft Visual Studio\2022\Community\VC\Tools\MSVC\14.44.35207\include\xstring
; File C:\Anka2Project\Anka2Project\Source\Binary\source\UserInterface\PythonCharacterModule.cpp
;	COMDAT ?initchr@@YAXXZ
_TEXT	SEGMENT
$T1 = -28						; size = 24
__$ArrayPad$ = -4					; size = 4
?initchr@@YAXXZ PROC					; initchr, COMDAT

; 1290 : {

  00000	55		 push	 ebp
  00001	8b ec		 mov	 ebp, esp
  00003	83 ec 20	 sub	 esp, 32			; 00000020H
  00006	a1 00 00 00 00	 mov	 eax, DWORD PTR ___security_cookie
  0000b	33 c5		 xor	 eax, ebp
  0000d	89 45 fc	 mov	 DWORD PTR __$ArrayPad$[ebp], eax
  00010	56		 push	 esi
  00011	57		 push	 edi

; 1407 : 	PyObject *poModule = Py_InitModule(GetModuleName(CHR_MODULE).c_str(), s_methods);

  00012	8d 45 e4	 lea	 eax, DWORD PTR $T1[ebp]
  00015	6a 01		 push	 1
  00017	50		 push	 eax
  00018	e8 00 00 00 00	 call	 ?GetModuleName@@YA?AV?$basic_string@DU?$char_traits@D@std@@V?$allocator@D@2@@std@@H@Z ; GetModuleName
  0001d	83 c4 08	 add	 esp, 8
; File C:\Program Files\Microsoft Visual Studio\2022\Community\VC\Tools\MSVC\14.44.35207\include\xstring

; 453  :         return _Myres > _Small_string_capacity;

  00020	83 78 14 0f	 cmp	 DWORD PTR [eax+20], 15	; 0000000fH

; 445  :         if (_Large_mode_engaged()) {

  00024	76 02		 jbe	 SHORT $LN8@initchr

; 446  :             _Result = _Unfancy(_Bx._Ptr);

  00026	8b 00		 mov	 eax, DWORD PTR [eax]
$LN8@initchr:
; File C:\Anka2Project\Anka2Project\Source\Binary\source\UserInterface\PythonCharacterModule.cpp

; 1407 : 	PyObject *poModule = Py_InitModule(GetModuleName(CHR_MODULE).c_str(), s_methods);

  00028	68 f5 03 00 00	 push	 1013			; 000003f5H
  0002d	6a 00		 push	 0
  0002f	6a 00		 push	 0
  00031	68 00 00 00 00	 push	 OFFSET ?s_methods@?1??initchr@@YAXXZ@4PAUPyMethodDef@@A
  00036	50		 push	 eax
  00037	ff 15 00 00 00
	00		 call	 DWORD PTR __imp__Py_InitModule4
  0003d	83 c4 14	 add	 esp, 20			; 00000014H
; File C:\Program Files\Microsoft Visual Studio\2022\Community\VC\Tools\MSVC\14.44.35207\include\xstring

; 1383 :         _Tidy_deallocate();

  00040	8d 4d e4	 lea	 ecx, DWORD PTR $T1[ebp]
; File C:\Anka2Project\Anka2Project\Source\Binary\source\UserInterface\PythonCharacterModule.cpp

; 1407 : 	PyObject *poModule = Py_InitModule(GetModuleName(CHR_MODULE).c_str(), s_methods);

  00043	8b f8		 mov	 edi, eax
; File C:\Program Files\Microsoft Visual Studio\2022\Community\VC\Tools\MSVC\14.44.35207\include\xstring

; 1383 :         _Tidy_deallocate();

  00045	e8 00 00 00 00	 call	 ?_Tidy_deallocate@?$basic_string@DU?$char_traits@D@std@@V?$allocator@D@2@@std@@AAEXXZ ; std::basic_string<char,std::char_traits<char>,std::allocator<char> >::_Tidy_deallocate
; File C:\Anka2Project\Anka2Project\Source\Binary\source\UserInterface\PythonCharacterModule.cpp

; 1412 : 	PyModule_AddIntConstant(poModule, "PLAYER_NAME_MAX_LEN", PLAYER_NAME_MAX_LEN);

  0004a	8b 35 00 00 00
	00		 mov	 esi, DWORD PTR __imp__PyModule_AddIntConstant
  00050	6a 0c		 push	 12			; 0000000cH
  00052	68 00 00 00 00	 push	 OFFSET ??_C@_0BE@BCBGONIE@PLAYER_NAME_MAX_LEN@
  00057	57		 push	 edi
  00058	ff d6		 call	 esi
  0005a	83 c4 0c	 add	 esp, 12			; 0000000cH

; 1413 : 
; 1414 : 	PyModule_AddIntConstant(poModule, "MOTION_NONE", CRaceMotionData::NAME_NONE);

  0005d	6a 00		 push	 0
  0005f	68 00 00 00 00	 push	 OFFSET ??_C@_0M@GHHHCAEH@MOTION_NONE@
  00064	57		 push	 edi
  00065	ff d6		 call	 esi
  00067	83 c4 0c	 add	 esp, 12			; 0000000cH

; 1415 : 
; 1416 : 	PyModule_AddIntConstant(poModule, "MOTION_SPAWN", CRaceMotionData::NAME_SPAWN);

  0006a	6a 19		 push	 25			; 00000019H
  0006c	68 00 00 00 00	 push	 OFFSET ??_C@_0N@JMBMLHMG@MOTION_SPAWN@
  00071	57		 push	 edi
  00072	ff d6		 call	 esi
  00074	83 c4 0c	 add	 esp, 12			; 0000000cH

; 1417 : 	PyModule_AddIntConstant(poModule, "MOTION_WAIT", CRaceMotionData::NAME_WAIT);

  00077	6a 01		 push	 1
  00079	68 00 00 00 00	 push	 OFFSET ??_C@_0M@LMMOJHBC@MOTION_WAIT@
  0007e	57		 push	 edi
  0007f	ff d6		 call	 esi
  00081	83 c4 0c	 add	 esp, 12			; 0000000cH

; 1418 : 	PyModule_AddIntConstant(poModule, "MOTION_WALK", CRaceMotionData::NAME_WALK);

  00084	6a 02		 push	 2
  00086	68 00 00 00 00	 push	 OFFSET ??_C@_0M@HHFPFLGH@MOTION_WALK@
  0008b	57		 push	 edi
  0008c	ff d6		 call	 esi
  0008e	83 c4 0c	 add	 esp, 12			; 0000000cH

; 1419 : 	PyModule_AddIntConstant(poModule, "MOTION_RUN", CRaceMotionData::NAME_RUN);

  00091	6a 03		 push	 3
  00093	68 00 00 00 00	 push	 OFFSET ??_C@_0L@KHKCPAAF@MOTION_RUN@
  00098	57		 push	 edi
  00099	ff d6		 call	 esi
  0009b	83 c4 0c	 add	 esp, 12			; 0000000cH

; 1420 : 	PyModule_AddIntConstant(poModule, "MOTION_CHANGE_WEAPON", CRaceMotionData::NAME_CHANGE_WEAPON);

  0009e	6a 04		 push	 4
  000a0	68 00 00 00 00	 push	 OFFSET ??_C@_0BF@ICKHJCNJ@MOTION_CHANGE_WEAPON@
  000a5	57		 push	 edi
  000a6	ff d6		 call	 esi
  000a8	83 c4 0c	 add	 esp, 12			; 0000000cH

; 1421 : 	PyModule_AddIntConstant(poModule, "MOTION_DAMAGE", CRaceMotionData::NAME_DAMAGE);

  000ab	6a 05		 push	 5
  000ad	68 00 00 00 00	 push	 OFFSET ??_C@_0O@CKDFGNMB@MOTION_DAMAGE@
  000b2	57		 push	 edi
  000b3	ff d6		 call	 esi
  000b5	83 c4 0c	 add	 esp, 12			; 0000000cH

; 1422 : 	PyModule_AddIntConstant(poModule, "MOTION_DAMAGE_FLYING", CRaceMotionData::NAME_DAMAGE_FLYING);

  000b8	6a 06		 push	 6
  000ba	68 00 00 00 00	 push	 OFFSET ??_C@_0BF@LNCKFICM@MOTION_DAMAGE_FLYING@
  000bf	57		 push	 edi
  000c0	ff d6		 call	 esi
  000c2	83 c4 0c	 add	 esp, 12			; 0000000cH

; 1423 : 	PyModule_AddIntConstant(poModule, "MOTION_STAND_UP", CRaceMotionData::NAME_STAND_UP);

  000c5	6a 07		 push	 7
  000c7	68 00 00 00 00	 push	 OFFSET ??_C@_0BA@IDCGGFKN@MOTION_STAND_UP@
  000cc	57		 push	 edi
  000cd	ff d6		 call	 esi
  000cf	83 c4 0c	 add	 esp, 12			; 0000000cH

; 1424 : 	PyModule_AddIntConstant(poModule, "MOTION_DAMAGE_BACK", CRaceMotionData::NAME_DAMAGE_BACK);

  000d2	6a 08		 push	 8
  000d4	68 00 00 00 00	 push	 OFFSET ??_C@_0BD@MNOACOOC@MOTION_DAMAGE_BACK@
  000d9	57		 push	 edi
  000da	ff d6		 call	 esi
  000dc	83 c4 0c	 add	 esp, 12			; 0000000cH

; 1425 : 	PyModule_AddIntConstant(poModule, "MOTION_DAMAGE_FLYING_BACK", CRaceMotionData::NAME_DAMAGE_FLYING_BACK);

  000df	6a 09		 push	 9
  000e1	68 00 00 00 00	 push	 OFFSET ??_C@_0BK@PDCLNNIP@MOTION_DAMAGE_FLYING_BACK@
  000e6	57		 push	 edi
  000e7	ff d6		 call	 esi
  000e9	83 c4 0c	 add	 esp, 12			; 0000000cH

; 1426 : 	PyModule_AddIntConstant(poModule, "MOTION_STAND_UP_BACK", CRaceMotionData::NAME_STAND_UP_BACK);

  000ec	6a 0a		 push	 10			; 0000000aH
  000ee	68 00 00 00 00	 push	 OFFSET ??_C@_0BF@DFDDIGMI@MOTION_STAND_UP_BACK@
  000f3	57		 push	 edi
  000f4	ff d6		 call	 esi
  000f6	83 c4 0c	 add	 esp, 12			; 0000000cH

; 1427 : 	PyModule_AddIntConstant(poModule, "MOTION_DEAD", CRaceMotionData::NAME_DEAD);

  000f9	6a 0b		 push	 11			; 0000000bH
  000fb	68 00 00 00 00	 push	 OFFSET ??_C@_0M@FADNKOPO@MOTION_DEAD@
  00100	57		 push	 edi
  00101	ff d6		 call	 esi
  00103	83 c4 0c	 add	 esp, 12			; 0000000cH

; 1428 : 	PyModule_AddIntConstant(poModule, "MOTION_DEAD_BACK", CRaceMotionData::NAME_DEAD_BACK);

  00106	6a 0c		 push	 12			; 0000000cH
  00108	68 00 00 00 00	 push	 OFFSET ??_C@_0BB@FBKKIAJJ@MOTION_DEAD_BACK@
  0010d	57		 push	 edi
  0010e	ff d6		 call	 esi
  00110	83 c4 0c	 add	 esp, 12			; 0000000cH

; 1429 : 	PyModule_AddIntConstant(poModule, "MOTION_NORMAL_ATTACK", CRaceMotionData::NAME_NORMAL_ATTACK);

  00113	6a 0d		 push	 13			; 0000000dH
  00115	68 00 00 00 00	 push	 OFFSET ??_C@_0BF@PDLLCGCI@MOTION_NORMAL_ATTACK@
  0011a	57		 push	 edi
  0011b	ff d6		 call	 esi
  0011d	83 c4 0c	 add	 esp, 12			; 0000000cH

; 1430 : 	PyModule_AddIntConstant(poModule, "MOTION_COMBO_ATTACK_1", CRaceMotionData::NAME_COMBO_ATTACK_1);

  00120	6a 0e		 push	 14			; 0000000eH
  00122	68 00 00 00 00	 push	 OFFSET ??_C@_0BG@NHAANOLG@MOTION_COMBO_ATTACK_1@
  00127	57		 push	 edi
  00128	ff d6		 call	 esi
  0012a	83 c4 0c	 add	 esp, 12			; 0000000cH

; 1431 : 	PyModule_AddIntConstant(poModule, "MOTION_COMBO_ATTACK_2", CRaceMotionData::NAME_COMBO_ATTACK_2);

  0012d	6a 0f		 push	 15			; 0000000fH
  0012f	68 00 00 00 00	 push	 OFFSET ??_C@_0BG@PMCNINHF@MOTION_COMBO_ATTACK_2@
  00134	57		 push	 edi
  00135	ff d6		 call	 esi
  00137	83 c4 0c	 add	 esp, 12			; 0000000cH

; 1432 : 	PyModule_AddIntConstant(poModule, "MOTION_COMBO_ATTACK_3", CRaceMotionData::NAME_COMBO_ATTACK_3);

  0013a	6a 10		 push	 16			; 00000010H
  0013c	68 00 00 00 00	 push	 OFFSET ??_C@_0BG@OFDGLMDE@MOTION_COMBO_ATTACK_3@
  00141	57		 push	 edi
  00142	ff d6		 call	 esi
  00144	83 c4 0c	 add	 esp, 12			; 0000000cH

; 1433 : 	PyModule_AddIntConstant(poModule, "MOTION_COMBO_ATTACK_4", CRaceMotionData::NAME_COMBO_ATTACK_4);

  00147	6a 11		 push	 17			; 00000011H
  00149	68 00 00 00 00	 push	 OFFSET ??_C@_0BG@KKHHCKPD@MOTION_COMBO_ATTACK_4@
  0014e	57		 push	 edi
  0014f	ff d6		 call	 esi
  00151	83 c4 0c	 add	 esp, 12			; 0000000cH

; 1434 : 	PyModule_AddIntConstant(poModule, "MOTION_COMBO_ATTACK_5", CRaceMotionData::NAME_COMBO_ATTACK_5);

  00154	6a 12		 push	 18			; 00000012H
  00156	68 00 00 00 00	 push	 OFFSET ??_C@_0BG@LDGMBLLC@MOTION_COMBO_ATTACK_5@
  0015b	57		 push	 edi
  0015c	ff d6		 call	 esi
  0015e	83 c4 0c	 add	 esp, 12			; 0000000cH

; 1435 : 	PyModule_AddIntConstant(poModule, "MOTION_COMBO_ATTACK_6", CRaceMotionData::NAME_COMBO_ATTACK_6);

  00161	6a 13		 push	 19			; 00000013H
  00163	68 00 00 00 00	 push	 OFFSET ??_C@_0BG@JIEBEIHB@MOTION_COMBO_ATTACK_6@
  00168	57		 push	 edi
  00169	ff d6		 call	 esi
  0016b	83 c4 0c	 add	 esp, 12			; 0000000cH

; 1436 : 	PyModule_AddIntConstant(poModule, "MOTION_COMBO_ATTACK_7", CRaceMotionData::NAME_COMBO_ATTACK_7);

  0016e	6a 14		 push	 20			; 00000014H
  00170	68 00 00 00 00	 push	 OFFSET ??_C@_0BG@IBFKHJDA@MOTION_COMBO_ATTACK_7@
  00175	57		 push	 edi
  00176	ff d6		 call	 esi
  00178	83 c4 0c	 add	 esp, 12			; 0000000cH

; 1437 : 	PyModule_AddIntConstant(poModule, "MOTION_COMBO_ATTACK_8", CRaceMotionData::NAME_COMBO_ATTACK_8);

  0017b	6a 15		 push	 21			; 00000015H
  0017d	68 00 00 00 00	 push	 OFFSET ??_C@_0BG@GMCGFPP@MOTION_COMBO_ATTACK_8@
  00182	57		 push	 edi
  00183	ff d6		 call	 esi
  00185	83 c4 0c	 add	 esp, 12			; 0000000cH

; 1438 : 	PyModule_AddIntConstant(poModule, "MOTION_INTRO_WAIT", CRaceMotionData::NAME_INTRO_WAIT);

  00188	6a 16		 push	 22			; 00000016H
  0018a	68 00 00 00 00	 push	 OFFSET ??_C@_0BC@KGBJGDBO@MOTION_INTRO_WAIT@
  0018f	57		 push	 edi
  00190	ff d6		 call	 esi
  00192	83 c4 0c	 add	 esp, 12			; 0000000cH

; 1439 : 	PyModule_AddIntConstant(poModule, "MOTION_INTRO_SELECTED", CRaceMotionData::NAME_INTRO_SELECTED);

  00195	6a 17		 push	 23			; 00000017H
  00197	68 00 00 00 00	 push	 OFFSET ??_C@_0BG@KEIOCEDJ@MOTION_INTRO_SELECTED@
  0019c	57		 push	 edi
  0019d	ff d6		 call	 esi
  0019f	83 c4 0c	 add	 esp, 12			; 0000000cH

; 1440 : 	PyModule_AddIntConstant(poModule, "MOTION_INTRO_NOT_SELECTED", CRaceMotionData::NAME_INTRO_NOT_SELECTED);

  001a2	6a 18		 push	 24			; 00000018H
  001a4	68 00 00 00 00	 push	 OFFSET ??_C@_0BK@BEALLN@MOTION_INTRO_NOT_SELECTED@
  001a9	57		 push	 edi
  001aa	ff d6		 call	 esi
  001ac	83 c4 0c	 add	 esp, 12			; 0000000cH

; 1441 : 	PyModule_AddIntConstant(poModule, "MOTION_FISHING_THROW", CRaceMotionData::NAME_FISHING_THROW);

  001af	6a 1a		 push	 26			; 0000001aH
  001b1	68 00 00 00 00	 push	 OFFSET ??_C@_0BF@CHLKIEFK@MOTION_FISHING_THROW@
  001b6	57		 push	 edi
  001b7	ff d6		 call	 esi
  001b9	83 c4 0c	 add	 esp, 12			; 0000000cH

; 1442 : 	PyModule_AddIntConstant(poModule, "MOTION_FISHING_WAIT", CRaceMotionData::NAME_FISHING_WAIT);

  001bc	6a 1b		 push	 27			; 0000001bH
  001be	68 00 00 00 00	 push	 OFFSET ??_C@_0BE@MOCHIGHH@MOTION_FISHING_WAIT@
  001c3	57		 push	 edi
  001c4	ff d6		 call	 esi
  001c6	83 c4 0c	 add	 esp, 12			; 0000000cH

; 1443 : 	PyModule_AddIntConstant(poModule, "MOTION_FISHING_STOP", CRaceMotionData::NAME_FISHING_STOP);

  001c9	6a 1c		 push	 28			; 0000001cH
  001cb	68 00 00 00 00	 push	 OFFSET ??_C@_0BE@DMIBDOKM@MOTION_FISHING_STOP@
  001d0	57		 push	 edi
  001d1	ff d6		 call	 esi
  001d3	83 c4 0c	 add	 esp, 12			; 0000000cH

; 1444 : 	PyModule_AddIntConstant(poModule, "MOTION_FISHING_REACT", CRaceMotionData::NAME_FISHING_REACT);

  001d6	6a 1d		 push	 29			; 0000001dH
  001d8	68 00 00 00 00	 push	 OFFSET ??_C@_0BF@GJOIPBCA@MOTION_FISHING_REACT@
  001dd	57		 push	 edi
  001de	ff d6		 call	 esi
  001e0	83 c4 0c	 add	 esp, 12			; 0000000cH

; 1445 : 	PyModule_AddIntConstant(poModule, "MOTION_FISHING_CATCH", CRaceMotionData::NAME_FISHING_CATCH);

  001e3	6a 1e		 push	 30			; 0000001eH
  001e5	68 00 00 00 00	 push	 OFFSET ??_C@_0BF@NFFCHMCO@MOTION_FISHING_CATCH@
  001ea	57		 push	 edi
  001eb	ff d6		 call	 esi
  001ed	83 c4 0c	 add	 esp, 12			; 0000000cH

; 1446 : 	PyModule_AddIntConstant(poModule, "MOTION_FISHING_FAIL", CRaceMotionData::NAME_FISHING_FAIL);

  001f0	6a 1f		 push	 31			; 0000001fH
  001f2	68 00 00 00 00	 push	 OFFSET ??_C@_0BE@BBLMKABM@MOTION_FISHING_FAIL@
  001f7	57		 push	 edi
  001f8	ff d6		 call	 esi
  001fa	83 c4 0c	 add	 esp, 12			; 0000000cH

; 1447 : 	PyModule_AddIntConstant(poModule, "MOTION_STOP", CRaceMotionData::NAME_STOP);

  001fd	6a 20		 push	 32			; 00000020H
  001ff	68 00 00 00 00	 push	 OFFSET ??_C@_0M@EOGICPMJ@MOTION_STOP@
  00204	57		 push	 edi
  00205	ff d6		 call	 esi
  00207	83 c4 0c	 add	 esp, 12			; 0000000cH

; 1448 : 	PyModule_AddIntConstant(poModule, "MOTION_SKILL", CRaceMotionData::NAME_SKILL);

  0020a	6a 32		 push	 50			; 00000032H
  0020c	68 00 00 00 00	 push	 OFFSET ??_C@_0N@GMNNBHKJ@MOTION_SKILL@
  00211	57		 push	 edi
  00212	ff d6		 call	 esi
  00214	83 c4 0c	 add	 esp, 12			; 0000000cH

; 1449 : 	PyModule_AddIntConstant(poModule, "MOTION_CLAP", CRaceMotionData::NAME_CLAP);

  00217	68 32 01 00 00	 push	 306			; 00000132H
  0021c	68 00 00 00 00	 push	 OFFSET ??_C@_0M@LBLLOKDB@MOTION_CLAP@
  00221	57		 push	 edi
  00222	ff d6		 call	 esi
  00224	83 c4 0c	 add	 esp, 12			; 0000000cH

; 1450 : 	PyModule_AddIntConstant(poModule, "MOTION_DANCE_1", CRaceMotionData::NAME_DANCE_1);

  00227	68 46 01 00 00	 push	 326			; 00000146H
  0022c	68 00 00 00 00	 push	 OFFSET ??_C@_0P@GNPIAPBK@MOTION_DANCE_1@
  00231	57		 push	 edi
  00232	ff d6		 call	 esi
  00234	83 c4 0c	 add	 esp, 12			; 0000000cH

; 1451 : 	PyModule_AddIntConstant(poModule, "MOTION_DANCE_2", CRaceMotionData::NAME_DANCE_2);

  00237	68 47 01 00 00	 push	 327			; 00000147H
  0023c	68 00 00 00 00	 push	 OFFSET ??_C@_0P@EGNFFMNJ@MOTION_DANCE_2@
  00241	57		 push	 edi
  00242	ff d6		 call	 esi
  00244	83 c4 0c	 add	 esp, 12			; 0000000cH

; 1452 : 
; 1453 : 	PyModule_AddIntConstant(poModule, "MOTION_DANCE_3", CRaceMotionData::NAME_DANCE_3);

  00247	68 48 01 00 00	 push	 328			; 00000148H
  0024c	68 00 00 00 00	 push	 OFFSET ??_C@_0P@FPMOGNJI@MOTION_DANCE_3@
  00251	57		 push	 edi
  00252	ff d6		 call	 esi
  00254	83 c4 0c	 add	 esp, 12			; 0000000cH

; 1454 : 	PyModule_AddIntConstant(poModule, "MOTION_DANCE_4", CRaceMotionData::NAME_DANCE_4);

  00257	68 49 01 00 00	 push	 329			; 00000149H
  0025c	68 00 00 00 00	 push	 OFFSET ??_C@_0P@BAIPPLFP@MOTION_DANCE_4@
  00261	57		 push	 edi
  00262	ff d6		 call	 esi
  00264	83 c4 0c	 add	 esp, 12			; 0000000cH

; 1455 : 	PyModule_AddIntConstant(poModule, "MOTION_DANCE_5", CRaceMotionData::NAME_DANCE_5);

  00267	68 4a 01 00 00	 push	 330			; 0000014aH
  0026c	68 00 00 00 00	 push	 OFFSET ??_C@_0P@JJEMKBO@MOTION_DANCE_5@
  00271	57		 push	 edi
  00272	ff d6		 call	 esi
  00274	83 c4 0c	 add	 esp, 12			; 0000000cH

; 1456 : 	PyModule_AddIntConstant(poModule, "MOTION_DANCE_6", CRaceMotionData::NAME_DANCE_6);

  00277	68 4b 01 00 00	 push	 331			; 0000014bH
  0027c	68 00 00 00 00	 push	 OFFSET ??_C@_0P@CCLJJJNN@MOTION_DANCE_6@
  00281	57		 push	 edi
  00282	ff d6		 call	 esi
  00284	83 c4 0c	 add	 esp, 12			; 0000000cH

; 1457 : 	PyModule_AddIntConstant(poModule, "MOTION_CONGRATULATION", CRaceMotionData::NAME_CONGRATULATION);

  00287	68 57 01 00 00	 push	 343			; 00000157H
  0028c	68 00 00 00 00	 push	 OFFSET ??_C@_0BG@BMOIGNKG@MOTION_CONGRATULATION@
  00291	57		 push	 edi
  00292	ff d6		 call	 esi
  00294	83 c4 0c	 add	 esp, 12			; 0000000cH

; 1458 : 	PyModule_AddIntConstant(poModule, "MOTION_SELFIE", CRaceMotionData::NAME_SELFIE);

  00297	68 59 01 00 00	 push	 345			; 00000159H
  0029c	68 00 00 00 00	 push	 OFFSET ??_C@_0O@LJPELBJE@MOTION_SELFIE@
  002a1	57		 push	 edi
  002a2	ff d6		 call	 esi
  002a4	83 c4 0c	 add	 esp, 12			; 0000000cH

; 1459 : 	PyModule_AddIntConstant(poModule, "MOTION_DANCE_7", CRaceMotionData::NAME_DANCE_7);

  002a7	68 58 01 00 00	 push	 344			; 00000158H
  002ac	68 00 00 00 00	 push	 OFFSET ??_C@_0P@DLKCKIJM@MOTION_DANCE_7@
  002b1	57		 push	 edi
  002b2	ff d6		 call	 esi
  002b4	83 c4 0c	 add	 esp, 12			; 0000000cH

; 1460 : 	PyModule_AddIntConstant(poModule, "MOTION_DOZE", CRaceMotionData::NAME_DOZE);

  002b7	68 5a 01 00 00	 push	 346			; 0000015aH
  002bc	68 00 00 00 00	 push	 OFFSET ??_C@_0M@DGOIDDEK@MOTION_DOZE@
  002c1	57		 push	 edi
  002c2	ff d6		 call	 esi
  002c4	83 c4 0c	 add	 esp, 12			; 0000000cH

; 1461 : 	PyModule_AddIntConstant(poModule, "MOTION_EXERCISE", CRaceMotionData::NAME_EXERCISE);

  002c7	68 5b 01 00 00	 push	 347			; 0000015bH
  002cc	68 00 00 00 00	 push	 OFFSET ??_C@_0BA@HPGCODBP@MOTION_EXERCISE@
  002d1	57		 push	 edi
  002d2	ff d6		 call	 esi
  002d4	83 c4 0c	 add	 esp, 12			; 0000000cH

; 1462 : 	PyModule_AddIntConstant(poModule, "MOTION_PUSHUP", CRaceMotionData::NAME_PUSHUP);

  002d7	68 5c 01 00 00	 push	 348			; 0000015cH
  002dc	68 00 00 00 00	 push	 OFFSET ??_C@_0O@KLCMGCPC@MOTION_PUSHUP@
  002e1	57		 push	 edi
  002e2	ff d6		 call	 esi
  002e4	83 c4 0c	 add	 esp, 12			; 0000000cH

; 1463 : 	PyModule_AddIntConstant(poModule, "MOTION_EMOTION_1", CRaceMotionData::NAME_EMOTION_1);

  002e7	68 5d 01 00 00	 push	 349			; 0000015dH
  002ec	68 00 00 00 00	 push	 OFFSET ??_C@_0BB@MCHEDJEK@MOTION_EMOTION_1@
  002f1	57		 push	 edi
  002f2	ff d6		 call	 esi
  002f4	83 c4 0c	 add	 esp, 12			; 0000000cH

; 1464 : 	PyModule_AddIntConstant(poModule, "MOTION_EMOTION_2", CRaceMotionData::NAME_EMOTION_2);

  002f7	68 5e 01 00 00	 push	 350			; 0000015eH
  002fc	68 00 00 00 00	 push	 OFFSET ??_C@_0BB@OJFJGKIJ@MOTION_EMOTION_2@
  00301	57		 push	 edi
  00302	ff d6		 call	 esi
  00304	83 c4 0c	 add	 esp, 12			; 0000000cH

; 1465 : 	PyModule_AddIntConstant(poModule, "MOTION_EMOTION_3", CRaceMotionData::NAME_EMOTION_3);

  00307	68 5f 01 00 00	 push	 351			; 0000015fH
  0030c	68 00 00 00 00	 push	 OFFSET ??_C@_0BB@PAECFLMI@MOTION_EMOTION_3@
  00311	57		 push	 edi
  00312	ff d6		 call	 esi
  00314	83 c4 0c	 add	 esp, 12			; 0000000cH

; 1466 : 	PyModule_AddIntConstant(poModule, "MOTION_EMOTION_4", CRaceMotionData::NAME_EMOTION_4);

  00317	68 60 01 00 00	 push	 352			; 00000160H
  0031c	68 00 00 00 00	 push	 OFFSET ??_C@_0BB@LPADMNAP@MOTION_EMOTION_4@
  00321	57		 push	 edi
  00322	ff d6		 call	 esi
  00324	83 c4 0c	 add	 esp, 12			; 0000000cH

; 1467 : 	PyModule_AddIntConstant(poModule, "MOTION_EMOTION_5", CRaceMotionData::NAME_EMOTION_5);

  00327	68 61 01 00 00	 push	 353			; 00000161H
  0032c	68 00 00 00 00	 push	 OFFSET ??_C@_0BB@KGBIPMEO@MOTION_EMOTION_5@
  00331	57		 push	 edi
  00332	ff d6		 call	 esi
  00334	83 c4 0c	 add	 esp, 12			; 0000000cH

; 1468 : 	PyModule_AddIntConstant(poModule, "MOTION_EMOTION_6", CRaceMotionData::NAME_EMOTION_6);

  00337	68 62 01 00 00	 push	 354			; 00000162H
  0033c	68 00 00 00 00	 push	 OFFSET ??_C@_0BB@INDFKPIN@MOTION_EMOTION_6@
  00341	57		 push	 edi
  00342	ff d6		 call	 esi
  00344	83 c4 0c	 add	 esp, 12			; 0000000cH

; 1469 : 	PyModule_AddIntConstant(poModule, "MOTION_EMOTION_7", CRaceMotionData::NAME_EMOTION_7);

  00347	68 63 01 00 00	 push	 355			; 00000163H
  0034c	68 00 00 00 00	 push	 OFFSET ??_C@_0BB@JECOJOMM@MOTION_EMOTION_7@
  00351	57		 push	 edi
  00352	ff d6		 call	 esi
  00354	83 c4 0c	 add	 esp, 12			; 0000000cH

; 1470 : 	PyModule_AddIntConstant(poModule, "MOTION_EMOTION_8", CRaceMotionData::NAME_EMOTION_8);

  00357	68 64 01 00 00	 push	 356			; 00000164H
  0035c	68 00 00 00 00	 push	 OFFSET ??_C@_0BB@BDLGICAD@MOTION_EMOTION_8@
  00361	57		 push	 edi
  00362	ff d6		 call	 esi
  00364	83 c4 0c	 add	 esp, 12			; 0000000cH

; 1471 : 	PyModule_AddIntConstant(poModule, "MOTION_EMOTION_9", CRaceMotionData::NAME_EMOTION_9);

  00367	68 65 01 00 00	 push	 357			; 00000165H
  0036c	68 00 00 00 00	 push	 OFFSET ??_C@_0BB@KKNLDEC@MOTION_EMOTION_9@
  00371	57		 push	 edi
  00372	ff d6		 call	 esi
  00374	83 c4 0c	 add	 esp, 12			; 0000000cH

; 1472 : 	PyModule_AddIntConstant(poModule, "MOTION_EMOTION_10", CRaceMotionData::NAME_EMOTION_10);

  00377	68 66 01 00 00	 push	 358			; 00000166H
  0037c	68 00 00 00 00	 push	 OFFSET ??_C@_0BC@EJINOKEE@MOTION_EMOTION_10@
  00381	57		 push	 edi
  00382	ff d6		 call	 esi
  00384	83 c4 0c	 add	 esp, 12			; 0000000cH

; 1473 : 	PyModule_AddIntConstant(poModule, "MOTION_EMOTION_11", CRaceMotionData::NAME_EMOTION_11);

  00387	68 67 01 00 00	 push	 359			; 00000167H
  0038c	68 00 00 00 00	 push	 OFFSET ??_C@_0BC@FAJGNLAF@MOTION_EMOTION_11@
  00391	57		 push	 edi
  00392	ff d6		 call	 esi
  00394	83 c4 0c	 add	 esp, 12			; 0000000cH

; 1474 : 	PyModule_AddIntConstant(poModule, "MOTION_EMOTION_12", CRaceMotionData::NAME_EMOTION_12);

  00397	68 68 01 00 00	 push	 360			; 00000168H
  0039c	68 00 00 00 00	 push	 OFFSET ??_C@_0BC@HLLLIIMG@MOTION_EMOTION_12@
  003a1	57		 push	 edi
  003a2	ff d6		 call	 esi
  003a4	83 c4 0c	 add	 esp, 12			; 0000000cH

; 1475 : 	
; 1476 : 	PyModule_AddIntConstant(poModule, "MOTION_EMOTION_13", CRaceMotionData::NAME_EMOTION_13);

  003a7	68 69 01 00 00	 push	 361			; 00000169H
  003ac	68 00 00 00 00	 push	 OFFSET ??_C@_0BC@GCKALJIH@MOTION_EMOTION_13@
  003b1	57		 push	 edi
  003b2	ff d6		 call	 esi
  003b4	83 c4 0c	 add	 esp, 12			; 0000000cH

; 1477 : 	PyModule_AddIntConstant(poModule, "MOTION_EMOTION_14", CRaceMotionData::NAME_EMOTION_14);

  003b7	68 6a 01 00 00	 push	 362			; 0000016aH
  003bc	68 00 00 00 00	 push	 OFFSET ??_C@_0BC@CNOBCPEA@MOTION_EMOTION_14@
  003c1	57		 push	 edi
  003c2	ff d6		 call	 esi
  003c4	83 c4 0c	 add	 esp, 12			; 0000000cH

; 1478 : 	PyModule_AddIntConstant(poModule, "MOTION_EMOTION_15", CRaceMotionData::NAME_EMOTION_15);

  003c7	68 6b 01 00 00	 push	 363			; 0000016bH
  003cc	68 00 00 00 00	 push	 OFFSET ??_C@_0BC@DEPKBOAB@MOTION_EMOTION_15@
  003d1	57		 push	 edi
  003d2	ff d6		 call	 esi
  003d4	83 c4 0c	 add	 esp, 12			; 0000000cH

; 1479 : 	PyModule_AddIntConstant(poModule, "MOTION_EMOTION_16", CRaceMotionData::NAME_EMOTION_16);

  003d7	68 6c 01 00 00	 push	 364			; 0000016cH
  003dc	68 00 00 00 00	 push	 OFFSET ??_C@_0BC@BPNHENMC@MOTION_EMOTION_16@
  003e1	57		 push	 edi
  003e2	ff d6		 call	 esi
  003e4	83 c4 0c	 add	 esp, 12			; 0000000cH

; 1480 : 	PyModule_AddIntConstant(poModule, "MOTION_EMOTION_17", CRaceMotionData::NAME_EMOTION_17);

  003e7	68 6d 01 00 00	 push	 365			; 0000016dH
  003ec	68 00 00 00 00	 push	 OFFSET ??_C@_0BC@GMMHMID@MOTION_EMOTION_17@
  003f1	57		 push	 edi
  003f2	ff d6		 call	 esi
  003f4	83 c4 0c	 add	 esp, 12			; 0000000cH

; 1481 : 	PyModule_AddIntConstant(poModule, "MOTION_EMOTION_18", CRaceMotionData::NAME_EMOTION_18);

  003f7	68 6e 01 00 00	 push	 366			; 0000016eH
  003fc	68 00 00 00 00	 push	 OFFSET ??_C@_0BC@IBFEGAEM@MOTION_EMOTION_18@
  00401	57		 push	 edi
  00402	ff d6		 call	 esi
  00404	83 c4 0c	 add	 esp, 12			; 0000000cH

; 1482 : 	PyModule_AddIntConstant(poModule, "MOTION_EMOTION_19", CRaceMotionData::NAME_EMOTION_19);

  00407	68 6f 01 00 00	 push	 367			; 0000016fH
  0040c	68 00 00 00 00	 push	 OFFSET ??_C@_0BC@JIEPFBAN@MOTION_EMOTION_19@
  00411	57		 push	 edi
  00412	ff d6		 call	 esi
  00414	83 c4 0c	 add	 esp, 12			; 0000000cH

; 1483 : 	PyModule_AddIntConstant(poModule, "MOTION_EMOTION_20", CRaceMotionData::NAME_EMOTION_20);

  00417	68 70 01 00 00	 push	 368			; 00000170H
  0041c	68 00 00 00 00	 push	 OFFSET ??_C@_0BC@ELMLFEBN@MOTION_EMOTION_20@
  00421	57		 push	 edi
  00422	ff d6		 call	 esi
  00424	83 c4 0c	 add	 esp, 12			; 0000000cH

; 1484 : 	PyModule_AddIntConstant(poModule, "MOTION_EMOTION_21", CRaceMotionData::NAME_EMOTION_21);

  00427	68 71 01 00 00	 push	 369			; 00000171H
  0042c	68 00 00 00 00	 push	 OFFSET ??_C@_0BC@FCNAGFFM@MOTION_EMOTION_21@
  00431	57		 push	 edi
  00432	ff d6		 call	 esi
  00434	83 c4 0c	 add	 esp, 12			; 0000000cH

; 1485 : 	PyModule_AddIntConstant(poModule, "MOTION_FORGIVE", CRaceMotionData::NAME_FORGIVE);

  00437	68 72 01 00 00	 push	 370			; 00000172H
  0043c	68 00 00 00 00	 push	 OFFSET ??_C@_0P@PACCCPNP@MOTION_FORGIVE@
  00441	57		 push	 edi
  00442	ff d6		 call	 esi
  00444	83 c4 0c	 add	 esp, 12			; 0000000cH

; 1486 : 	PyModule_AddIntConstant(poModule, "MOTION_ANGRY", CRaceMotionData::NAME_ANGRY);

  00447	68 73 01 00 00	 push	 371			; 00000173H
  0044c	68 00 00 00 00	 push	 OFFSET ??_C@_0N@CLPBCEBE@MOTION_ANGRY@
  00451	57		 push	 edi
  00452	ff d6		 call	 esi
  00454	83 c4 0c	 add	 esp, 12			; 0000000cH

; 1487 : 	PyModule_AddIntConstant(poModule, "MOTION_ATTRACTIVE", CRaceMotionData::NAME_ATTRACTIVE);

  00457	68 74 01 00 00	 push	 372			; 00000174H
  0045c	68 00 00 00 00	 push	 OFFSET ??_C@_0BC@MOMKLPKF@MOTION_ATTRACTIVE@
  00461	57		 push	 edi
  00462	ff d6		 call	 esi
  00464	83 c4 0c	 add	 esp, 12			; 0000000cH

; 1488 : 	PyModule_AddIntConstant(poModule, "MOTION_SAD", CRaceMotionData::NAME_SAD);

  00467	68 75 01 00 00	 push	 373			; 00000175H
  0046c	68 00 00 00 00	 push	 OFFSET ??_C@_0L@PONOHEEG@MOTION_SAD@
  00471	57		 push	 edi
  00472	ff d6		 call	 esi
  00474	83 c4 0c	 add	 esp, 12			; 0000000cH

; 1489 : 	PyModule_AddIntConstant(poModule, "MOTION_SHY", CRaceMotionData::NAME_SHY);

  00477	68 76 01 00 00	 push	 374			; 00000176H
  0047c	68 00 00 00 00	 push	 OFFSET ??_C@_0L@OGDCDNF@MOTION_SHY@
  00481	57		 push	 edi
  00482	ff d6		 call	 esi
  00484	83 c4 0c	 add	 esp, 12			; 0000000cH

; 1490 : 	PyModule_AddIntConstant(poModule, "MOTION_CHEERUP", CRaceMotionData::NAME_CHEERUP);

  00487	68 77 01 00 00	 push	 375			; 00000177H
  0048c	68 00 00 00 00	 push	 OFFSET ??_C@_0P@KLJNPGKF@MOTION_CHEERUP@
  00491	57		 push	 edi
  00492	ff d6		 call	 esi
  00494	83 c4 0c	 add	 esp, 12			; 0000000cH

; 1491 : 	PyModule_AddIntConstant(poModule, "MOTION_BANTER", CRaceMotionData::NAME_BANTER);

  00497	68 78 01 00 00	 push	 376			; 00000178H
  0049c	68 00 00 00 00	 push	 OFFSET ??_C@_0O@GPIFNFHO@MOTION_BANTER@
  004a1	57		 push	 edi
  004a2	ff d6		 call	 esi
  004a4	83 c4 0c	 add	 esp, 12			; 0000000cH

; 1492 : 	PyModule_AddIntConstant(poModule, "MOTION_JOY", CRaceMotionData::NAME_JOY);

  004a7	68 79 01 00 00	 push	 377			; 00000179H
  004ac	68 00 00 00 00	 push	 OFFSET ??_C@_0L@CGDNCNEF@MOTION_JOY@
  004b1	57		 push	 edi
  004b2	ff d6		 call	 esi
  004b4	83 c4 0c	 add	 esp, 12			; 0000000cH

; 1493 : 	
; 1494 : 
; 1495 : 	PyModule_AddIntConstant(poModule, "MOTION_CHEERS_1", CRaceMotionData::NAME_CHEERS_1);

  004b7	68 33 01 00 00	 push	 307			; 00000133H
  004bc	68 00 00 00 00	 push	 OFFSET ??_C@_0BA@EOHNNFMC@MOTION_CHEERS_1@
  004c1	57		 push	 edi
  004c2	ff d6		 call	 esi
  004c4	83 c4 0c	 add	 esp, 12			; 0000000cH

; 1496 : 	PyModule_AddIntConstant(poModule, "MOTION_CHEERS_2", CRaceMotionData::NAME_CHEERS_2);

  004c7	68 34 01 00 00	 push	 308			; 00000134H
  004cc	68 00 00 00 00	 push	 OFFSET ??_C@_0BA@GFFAIGAB@MOTION_CHEERS_2@
  004d1	57		 push	 edi
  004d2	ff d6		 call	 esi
  004d4	83 c4 0c	 add	 esp, 12			; 0000000cH

; 1497 : 	PyModule_AddIntConstant(poModule, "MOTION_KISS_WITH_WARRIOR", CRaceMotionData::NAME_KISS_WITH_WARRIOR);

  004d7	68 35 01 00 00	 push	 309			; 00000135H
  004dc	68 00 00 00 00	 push	 OFFSET ??_C@_0BJ@BNMGACEI@MOTION_KISS_WITH_WARRIOR@
  004e1	57		 push	 edi
  004e2	ff d6		 call	 esi
  004e4	83 c4 0c	 add	 esp, 12			; 0000000cH

; 1498 : 	PyModule_AddIntConstant(poModule, "MOTION_KISS_WITH_ASSASSIN", CRaceMotionData::NAME_KISS_WITH_ASSASSIN);

  004e7	68 36 01 00 00	 push	 310			; 00000136H
  004ec	68 00 00 00 00	 push	 OFFSET ??_C@_0BK@PEHNDAJC@MOTION_KISS_WITH_ASSASSIN@
  004f1	57		 push	 edi
  004f2	ff d6		 call	 esi
  004f4	83 c4 0c	 add	 esp, 12			; 0000000cH

; 1499 : 	PyModule_AddIntConstant(poModule, "MOTION_KISS_WITH_SURA", CRaceMotionData::NAME_KISS_WITH_SURA);

  004f7	68 37 01 00 00	 push	 311			; 00000137H
  004fc	68 00 00 00 00	 push	 OFFSET ??_C@_0BG@FBINLMID@MOTION_KISS_WITH_SURA@
  00501	57		 push	 edi
  00502	ff d6		 call	 esi
  00504	83 c4 0c	 add	 esp, 12			; 0000000cH

; 1500 : 	PyModule_AddIntConstant(poModule, "MOTION_KISS_WITH_SHAMAN", CRaceMotionData::NAME_KISS_WITH_SHAMAN);

  00507	68 38 01 00 00	 push	 312			; 00000138H
  0050c	68 00 00 00 00	 push	 OFFSET ??_C@_0BI@BPAFKDHB@MOTION_KISS_WITH_SHAMAN@
  00511	57		 push	 edi
  00512	ff d6		 call	 esi
  00514	83 c4 0c	 add	 esp, 12			; 0000000cH

; 1501 : 	PyModule_AddIntConstant(poModule, "MOTION_FRENCH_KISS_WITH_WARRIOR", CRaceMotionData::NAME_FRENCH_KISS_WITH_WARRIOR);

  00517	68 39 01 00 00	 push	 313			; 00000139H
  0051c	68 00 00 00 00	 push	 OFFSET ??_C@_0CA@MCOGAAOA@MOTION_FRENCH_KISS_WITH_WARRIOR@
  00521	57		 push	 edi
  00522	ff d6		 call	 esi
  00524	83 c4 0c	 add	 esp, 12			; 0000000cH

; 1502 : 	PyModule_AddIntConstant(poModule, "MOTION_FRENCH_KISS_WITH_ASSASSIN", CRaceMotionData::NAME_FRENCH_KISS_WITH_ASSASSIN);

  00527	68 3a 01 00 00	 push	 314			; 0000013aH
  0052c	68 00 00 00 00	 push	 OFFSET ??_C@_0CB@CMKPDLEK@MOTION_FRENCH_KISS_WITH_ASSASSI@
  00531	57		 push	 edi
  00532	ff d6		 call	 esi
  00534	83 c4 0c	 add	 esp, 12			; 0000000cH

; 1503 : 	PyModule_AddIntConstant(poModule, "MOTION_FRENCH_KISS_WITH_SURA", CRaceMotionData::NAME_FRENCH_KISS_WITH_SURA);

  00537	68 3b 01 00 00	 push	 315			; 0000013bH
  0053c	68 00 00 00 00	 push	 OFFSET ??_C@_0BN@OJCLLFKP@MOTION_FRENCH_KISS_WITH_SURA@
  00541	57		 push	 edi
  00542	ff d6		 call	 esi
  00544	83 c4 0c	 add	 esp, 12			; 0000000cH

; 1504 : 	PyModule_AddIntConstant(poModule, "MOTION_FRENCH_KISS_WITH_SHAMAN", CRaceMotionData::NAME_FRENCH_KISS_WITH_SHAMAN);

  00547	68 3c 01 00 00	 push	 316			; 0000013cH
  0054c	68 00 00 00 00	 push	 OFFSET ??_C@_0BP@FPOIMINN@MOTION_FRENCH_KISS_WITH_SHAMAN@
  00551	57		 push	 edi
  00552	ff d6		 call	 esi
  00554	83 c4 0c	 add	 esp, 12			; 0000000cH

; 1505 : 	PyModule_AddIntConstant(poModule, "MOTION_SLAP_HIT_WITH_WARRIOR", CRaceMotionData::NAME_SLAP_HIT_WITH_WARRIOR);

  00557	68 3d 01 00 00	 push	 317			; 0000013dH
  0055c	68 00 00 00 00	 push	 OFFSET ??_C@_0BN@KKCFGBMO@MOTION_SLAP_HIT_WITH_WARRIOR@
  00561	57		 push	 edi
  00562	ff d6		 call	 esi
  00564	83 c4 0c	 add	 esp, 12			; 0000000cH

; 1506 : 	PyModule_AddIntConstant(poModule, "MOTION_SLAP_HIT_WITH_ASSASSIN", CRaceMotionData::NAME_SLAP_HIT_WITH_ASSASSIN);

  00567	68 3e 01 00 00	 push	 318			; 0000013eH
  0056c	68 00 00 00 00	 push	 OFFSET ??_C@_0BO@PABBPFOE@MOTION_SLAP_HIT_WITH_ASSASSIN@
  00571	57		 push	 edi
  00572	ff d6		 call	 esi
  00574	83 c4 0c	 add	 esp, 12			; 0000000cH

; 1507 : 	PyModule_AddIntConstant(poModule, "MOTION_SLAP_HIT_WITH_SURA", CRaceMotionData::NAME_SLAP_HIT_WITH_SURA);

  00577	68 3f 01 00 00	 push	 319			; 0000013fH
  0057c	68 00 00 00 00	 push	 OFFSET ??_C@_0BK@BLGFNMMI@MOTION_SLAP_HIT_WITH_SURA@
  00581	57		 push	 edi
  00582	ff d6		 call	 esi
  00584	83 c4 0c	 add	 esp, 12			; 0000000cH

; 1508 : 	PyModule_AddIntConstant(poModule, "MOTION_SLAP_HIT_WITH_SHAMAN", CRaceMotionData::NAME_SLAP_HIT_WITH_SHAMAN);

  00587	68 40 01 00 00	 push	 320			; 00000140H
  0058c	68 00 00 00 00	 push	 OFFSET ??_C@_0BM@EBDKBOAP@MOTION_SLAP_HIT_WITH_SHAMAN@
  00591	57		 push	 edi
  00592	ff d6		 call	 esi
  00594	83 c4 0c	 add	 esp, 12			; 0000000cH

; 1509 : 	PyModule_AddIntConstant(poModule, "MOTION_SLAP_HURT_WITH_WARRIOR", CRaceMotionData::NAME_SLAP_HURT_WITH_WARRIOR);

  00597	68 41 01 00 00	 push	 321			; 00000141H
  0059c	68 00 00 00 00	 push	 OFFSET ??_C@_0BO@ENJIKGO@MOTION_SLAP_HURT_WITH_WARRIOR@
  005a1	57		 push	 edi
  005a2	ff d6		 call	 esi
  005a4	83 c4 0c	 add	 esp, 12			; 0000000cH

; 1510 : 	PyModule_AddIntConstant(poModule, "MOTION_SLAP_HURT_WITH_ASSASSIN", CRaceMotionData::NAME_SLAP_HURT_WITH_ASSASSIN);

  005a7	68 42 01 00 00	 push	 322			; 00000142H
  005ac	68 00 00 00 00	 push	 OFFSET ??_C@_0BP@CGGJKKOH@MOTION_SLAP_HURT_WITH_ASSASSIN@
  005b1	57		 push	 edi
  005b2	ff d6		 call	 esi
  005b4	83 c4 0c	 add	 esp, 12			; 0000000cH

; 1511 : 	PyModule_AddIntConstant(poModule, "MOTION_SLAP_HURT_WITH_SURA", CRaceMotionData::NAME_SLAP_HURT_WITH_SURA);

  005b7	68 43 01 00 00	 push	 323			; 00000143H
  005bc	68 00 00 00 00	 push	 OFFSET ??_C@_0BL@MNIFOENP@MOTION_SLAP_HURT_WITH_SURA@
  005c1	57		 push	 edi
  005c2	ff d6		 call	 esi
  005c4	83 c4 0c	 add	 esp, 12			; 0000000cH

; 1512 : 	PyModule_AddIntConstant(poModule, "MOTION_SLAP_HURT_WITH_SHAMAN", CRaceMotionData::NAME_SLAP_HURT_WITH_SHAMAN);

  005c7	68 44 01 00 00	 push	 324			; 00000144H
  005cc	68 00 00 00 00	 push	 OFFSET ??_C@_0BN@GMLLPEOH@MOTION_SLAP_HURT_WITH_SHAMAN@
  005d1	57		 push	 edi
  005d2	ff d6		 call	 esi
  005d4	83 c4 0c	 add	 esp, 12			; 0000000cH

; 1513 : 	PyModule_AddIntConstant(poModule, "MOTION_DIG", CRaceMotionData::NAME_DIG);

  005d7	68 45 01 00 00	 push	 325			; 00000145H
  005dc	68 00 00 00 00	 push	 OFFSET ??_C@_0L@BGCOBJBL@MOTION_DIG@
  005e1	57		 push	 edi
  005e2	ff d6		 call	 esi
  005e4	83 c4 0c	 add	 esp, 12			; 0000000cH

; 1514 : 
; 1515 : 	PyModule_AddIntConstant(poModule, "MOTION_MODE_RESERVED", CRaceMotionData::MODE_RESERVED);

  005e7	6a 00		 push	 0
  005e9	68 00 00 00 00	 push	 OFFSET ??_C@_0BF@JPHCAJND@MOTION_MODE_RESERVED@
  005ee	57		 push	 edi
  005ef	ff d6		 call	 esi
  005f1	83 c4 0c	 add	 esp, 12			; 0000000cH

; 1516 : 	PyModule_AddIntConstant(poModule, "MOTION_MODE_GENERAL", CRaceMotionData::MODE_GENERAL);

  005f4	6a 01		 push	 1
  005f6	68 00 00 00 00	 push	 OFFSET ??_C@_0BE@PPOENDHJ@MOTION_MODE_GENERAL@
  005fb	57		 push	 edi
  005fc	ff d6		 call	 esi
  005fe	83 c4 0c	 add	 esp, 12			; 0000000cH

; 1517 : 	PyModule_AddIntConstant(poModule, "MOTION_MODE_ONEHAND_SWORD", CRaceMotionData::MODE_ONEHAND_SWORD);

  00601	6a 02		 push	 2
  00603	68 00 00 00 00	 push	 OFFSET ??_C@_0BK@EGEANFHJ@MOTION_MODE_ONEHAND_SWORD@
  00608	57		 push	 edi
  00609	ff d6		 call	 esi
  0060b	83 c4 0c	 add	 esp, 12			; 0000000cH

; 1518 : 	PyModule_AddIntConstant(poModule, "MOTION_MODE_TWOHAND_SWORD", CRaceMotionData::MODE_TWOHAND_SWORD);

  0060e	6a 03		 push	 3
  00610	68 00 00 00 00	 push	 OFFSET ??_C@_0BK@LGGPJGKL@MOTION_MODE_TWOHAND_SWORD@
  00615	57		 push	 edi
  00616	ff d6		 call	 esi
  00618	83 c4 0c	 add	 esp, 12			; 0000000cH

; 1519 : 	PyModule_AddIntConstant(poModule, "MOTION_MODE_DUALHAND_SWORD", CRaceMotionData::MODE_DUALHAND_SWORD);

  0061b	6a 04		 push	 4
  0061d	68 00 00 00 00	 push	 OFFSET ??_C@_0BL@BILJFJA@MOTION_MODE_DUALHAND_SWORD@
  00622	57		 push	 edi
  00623	ff d6		 call	 esi
  00625	83 c4 0c	 add	 esp, 12			; 0000000cH

; 1520 : 	PyModule_AddIntConstant(poModule, "MOTION_MODE_BOW", CRaceMotionData::MODE_BOW);

  00628	6a 05		 push	 5
  0062a	68 00 00 00 00	 push	 OFFSET ??_C@_0BA@BFLJJHOH@MOTION_MODE_BOW@
  0062f	57		 push	 edi
  00630	ff d6		 call	 esi
  00632	83 c4 0c	 add	 esp, 12			; 0000000cH

; 1521 : 	PyModule_AddIntConstant(poModule, "MOTION_MODE_FAN", CRaceMotionData::MODE_FAN);

  00635	6a 07		 push	 7
  00637	68 00 00 00 00	 push	 OFFSET ??_C@_0BA@LEFIEKC@MOTION_MODE_FAN@
  0063c	57		 push	 edi
  0063d	ff d6		 call	 esi
  0063f	83 c4 0c	 add	 esp, 12			; 0000000cH

; 1522 : 	PyModule_AddIntConstant(poModule, "MOTION_MODE_BELL", CRaceMotionData::MODE_BELL);

  00642	6a 08		 push	 8
  00644	68 00 00 00 00	 push	 OFFSET ??_C@_0BB@BNHJGCLA@MOTION_MODE_BELL@
  00649	57		 push	 edi
  0064a	ff d6		 call	 esi
  0064c	83 c4 0c	 add	 esp, 12			; 0000000cH

; 1523 : 	PyModule_AddIntConstant(poModule, "MOTION_MODE_FISHING", CRaceMotionData::MODE_FISHING);

  0064f	6a 09		 push	 9
  00651	68 00 00 00 00	 push	 OFFSET ??_C@_0BE@NMIGCCAP@MOTION_MODE_FISHING@
  00656	57		 push	 edi
  00657	ff d6		 call	 esi
  00659	83 c4 0c	 add	 esp, 12			; 0000000cH

; 1524 : 	PyModule_AddIntConstant(poModule, "MOTION_MODE_HORSE", CRaceMotionData::MODE_HORSE);

  0065c	6a 0a		 push	 10			; 0000000aH
  0065e	68 00 00 00 00	 push	 OFFSET ??_C@_0BC@KOFIOII@MOTION_MODE_HORSE@
  00663	57		 push	 edi
  00664	ff d6		 call	 esi
  00666	83 c4 0c	 add	 esp, 12			; 0000000cH

; 1525 : 	PyModule_AddIntConstant(poModule, "MOTION_MODE_HORSE_ONEHAND_SWORD", CRaceMotionData::MODE_HORSE_ONEHAND_SWORD);

  00669	6a 0b		 push	 11			; 0000000bH
  0066b	68 00 00 00 00	 push	 OFFSET ??_C@_0CA@LBDCIFIC@MOTION_MODE_HORSE_ONEHAND_SWORD@
  00670	57		 push	 edi
  00671	ff d6		 call	 esi
  00673	83 c4 0c	 add	 esp, 12			; 0000000cH

; 1526 : 	PyModule_AddIntConstant(poModule, "MOTION_MODE_HORSE_TWOHAND_SWORD", CRaceMotionData::MODE_HORSE_TWOHAND_SWORD);

  00676	6a 0c		 push	 12			; 0000000cH
  00678	68 00 00 00 00	 push	 OFFSET ??_C@_0CA@EBBNMGFA@MOTION_MODE_HORSE_TWOHAND_SWORD@
  0067d	57		 push	 edi
  0067e	ff d6		 call	 esi
  00680	83 c4 0c	 add	 esp, 12			; 0000000cH

; 1527 : 	PyModule_AddIntConstant(poModule, "MOTION_MODE_HORSE_DUALHAND_SWORD", CRaceMotionData::MODE_HORSE_DUALHAND_SWORD);

  00683	6a 0d		 push	 13			; 0000000dH
  00685	68 00 00 00 00	 push	 OFFSET ??_C@_0CB@CLBDMMFE@MOTION_MODE_HORSE_DUALHAND_SWOR@
  0068a	57		 push	 edi
  0068b	ff d6		 call	 esi
  0068d	83 c4 0c	 add	 esp, 12			; 0000000cH

; 1528 : 	PyModule_AddIntConstant(poModule, "MOTION_MODE_HORSE_BOW", CRaceMotionData::MODE_HORSE_BOW);

  00690	6a 0e		 push	 14			; 0000000eH
  00692	68 00 00 00 00	 push	 OFFSET ??_C@_0BG@FPIIPCL@MOTION_MODE_HORSE_BOW@
  00697	57		 push	 edi
  00698	ff d6		 call	 esi
  0069a	83 c4 0c	 add	 esp, 12			; 0000000cH

; 1529 : 	PyModule_AddIntConstant(poModule, "MOTION_MODE_HORSE_FAN", CRaceMotionData::MODE_HORSE_FAN);

  0069d	6a 0f		 push	 15			; 0000000fH
  0069f	68 00 00 00 00	 push	 OFFSET ??_C@_0BG@BLAEJMGO@MOTION_MODE_HORSE_FAN@
  006a4	57		 push	 edi
  006a5	ff d6		 call	 esi
  006a7	83 c4 0c	 add	 esp, 12			; 0000000cH

; 1530 : 	PyModule_AddIntConstant(poModule, "MOTION_MODE_HORSE_BELL", CRaceMotionData::MODE_HORSE_BELL);

  006aa	6a 10		 push	 16			; 00000010H
  006ac	68 00 00 00 00	 push	 OFFSET ??_C@_0BH@IPLLKNDD@MOTION_MODE_HORSE_BELL@
  006b1	57		 push	 edi
  006b2	ff d6		 call	 esi
  006b4	83 c4 0c	 add	 esp, 12			; 0000000cH

; 1531 : 	PyModule_AddIntConstant(poModule, "MOTION_MODE_WEDDING_DRESS", CRaceMotionData::MODE_WEDDING_DRESS);

  006b7	6a 19		 push	 25			; 00000019H
  006b9	68 00 00 00 00	 push	 OFFSET ??_C@_0BK@EFEKGCKJ@MOTION_MODE_WEDDING_DRESS@
  006be	57		 push	 edi
  006bf	ff d6		 call	 esi
  006c1	83 c4 0c	 add	 esp, 12			; 0000000cH

; 1532 : 
; 1533 : 	PyModule_AddIntConstant(poModule, "DIR_NORTH", CInstanceBase::DIR_NORTH);

  006c4	6a 00		 push	 0
  006c6	68 00 00 00 00	 push	 OFFSET ??_C@_09OGGLMICG@DIR_NORTH@
  006cb	57		 push	 edi
  006cc	ff d6		 call	 esi
  006ce	83 c4 0c	 add	 esp, 12			; 0000000cH

; 1534 : 	PyModule_AddIntConstant(poModule, "DIR_NORTHEAST", CInstanceBase::DIR_NORTHEAST);

  006d1	6a 01		 push	 1
  006d3	68 00 00 00 00	 push	 OFFSET ??_C@_0O@NGBDCCOD@DIR_NORTHEAST@
  006d8	57		 push	 edi
  006d9	ff d6		 call	 esi
  006db	83 c4 0c	 add	 esp, 12			; 0000000cH

; 1535 : 	PyModule_AddIntConstant(poModule, "DIR_EAST", CInstanceBase::DIR_EAST);

  006de	6a 02		 push	 2
  006e0	68 00 00 00 00	 push	 OFFSET ??_C@_08OGFOMCPI@DIR_EAST@
  006e5	57		 push	 edi
  006e6	ff d6		 call	 esi
  006e8	83 c4 0c	 add	 esp, 12			; 0000000cH

; 1536 : 	PyModule_AddIntConstant(poModule, "DIR_SOUTHEAST", CInstanceBase::DIR_SOUTHEAST);

  006eb	6a 03		 push	 3
  006ed	68 00 00 00 00	 push	 OFFSET ??_C@_0O@OIGCBKC@DIR_SOUTHEAST@
  006f2	57		 push	 edi
  006f3	ff d6		 call	 esi
  006f5	83 c4 0c	 add	 esp, 12			; 0000000cH

; 1537 : 	PyModule_AddIntConstant(poModule, "DIR_SOUTH", CInstanceBase::DIR_SOUTH);

  006f8	6a 04		 push	 4
  006fa	68 00 00 00 00	 push	 OFFSET ??_C@_09MEPEOBNK@DIR_SOUTH@
  006ff	57		 push	 edi
  00700	ff d6		 call	 esi
  00702	83 c4 0c	 add	 esp, 12			; 0000000cH

; 1538 : 	PyModule_AddIntConstant(poModule, "DIR_SOUTHWEST", CInstanceBase::DIR_SOUTHWEST);

  00705	6a 05		 push	 5
  00707	68 00 00 00 00	 push	 OFFSET ??_C@_0O@JLMEHCBH@DIR_SOUTHWEST@
  0070c	57		 push	 edi
  0070d	ff d6		 call	 esi
  0070f	83 c4 0c	 add	 esp, 12			; 0000000cH

; 1539 : 	PyModule_AddIntConstant(poModule, "DIR_WEST", CInstanceBase::DIR_WEST);

  00712	6a 06		 push	 6
  00714	68 00 00 00 00	 push	 OFFSET ??_C@_08HDBMJBEN@DIR_WEST@
  00719	57		 push	 edi
  0071a	ff d6		 call	 esi
  0071c	83 c4 0c	 add	 esp, 12			; 0000000cH

; 1540 : 	PyModule_AddIntConstant(poModule, "DIR_NORTHWEST", CInstanceBase::DIR_NORTHWEST);

  0071f	6a 07		 push	 7
  00721	68 00 00 00 00	 push	 OFFSET ??_C@_0O@EDFBHBFG@DIR_NORTHWEST@
  00726	57		 push	 edi
  00727	ff d6		 call	 esi
  00729	83 c4 0c	 add	 esp, 12			; 0000000cH

; 1541 : 
; 1542 : 	PyModule_AddIntConstant(poModule, "INSTANCE_TYPE_PLAYER", CActorInstance::TYPE_PC);

  0072c	6a 06		 push	 6
  0072e	68 00 00 00 00	 push	 OFFSET ??_C@_0BF@LBEOLJOH@INSTANCE_TYPE_PLAYER@
  00733	57		 push	 edi
  00734	ff d6		 call	 esi
  00736	83 c4 0c	 add	 esp, 12			; 0000000cH

; 1543 : 	PyModule_AddIntConstant(poModule, "INSTANCE_TYPE_NPC", CActorInstance::TYPE_NPC);

  00739	6a 01		 push	 1
  0073b	68 00 00 00 00	 push	 OFFSET ??_C@_0BC@HPKLHBPD@INSTANCE_TYPE_NPC@
  00740	57		 push	 edi
  00741	ff d6		 call	 esi
  00743	83 c4 0c	 add	 esp, 12			; 0000000cH

; 1544 : 	PyModule_AddIntConstant(poModule, "INSTANCE_TYPE_ENEMY", CActorInstance::TYPE_ENEMY);

  00746	6a 00		 push	 0
  00748	68 00 00 00 00	 push	 OFFSET ??_C@_0BE@JLNEPCAN@INSTANCE_TYPE_ENEMY@
  0074d	57		 push	 edi
  0074e	ff d6		 call	 esi
  00750	83 c4 0c	 add	 esp, 12			; 0000000cH

; 1545 : 	PyModule_AddIntConstant(poModule, "INSTANCE_TYPE_BUILDING", CActorInstance::TYPE_BUILDING);

  00753	6a 05		 push	 5
  00755	68 00 00 00 00	 push	 OFFSET ??_C@_0BH@FNPAMCND@INSTANCE_TYPE_BUILDING@
  0075a	57		 push	 edi
  0075b	ff d6		 call	 esi
  0075d	83 c4 0c	 add	 esp, 12			; 0000000cH

; 1546 : 	PyModule_AddIntConstant(poModule, "INSTANCE_TYPE_OBJECT", CActorInstance::TYPE_OBJECT);

  00760	6a 0d		 push	 13			; 0000000dH
  00762	68 00 00 00 00	 push	 OFFSET ??_C@_0BF@CFBKDGLC@INSTANCE_TYPE_OBJECT@
  00767	57		 push	 edi
  00768	ff d6		 call	 esi
  0076a	83 c4 0c	 add	 esp, 12			; 0000000cH

; 1547 : 
; 1548 : 	PyModule_AddIntConstant(poModule, "PART_WEAPON", CRaceData::PART_WEAPON);

  0076d	6a 01		 push	 1
  0076f	68 00 00 00 00	 push	 OFFSET ??_C@_0M@LDILJIBN@PART_WEAPON@
  00774	57		 push	 edi
  00775	ff d6		 call	 esi
  00777	83 c4 0c	 add	 esp, 12			; 0000000cH

; 1549 : 	PyModule_AddIntConstant(poModule, "PART_HEAD", CRaceData::PART_HEAD);

  0077a	6a 02		 push	 2
  0077c	68 00 00 00 00	 push	 OFFSET ??_C@_09HAMNFDMJ@PART_HEAD@
  00781	57		 push	 edi
  00782	ff d6		 call	 esi
  00784	83 c4 0c	 add	 esp, 12			; 0000000cH

; 1550 : 	PyModule_AddIntConstant(poModule, "PART_WEAPON_LEFT", CRaceData::PART_WEAPON_LEFT);

  00787	6a 03		 push	 3
  00789	68 00 00 00 00	 push	 OFFSET ??_C@_0BB@KENNFNCF@PART_WEAPON_LEFT@
  0078e	57		 push	 edi
  0078f	ff d6		 call	 esi
  00791	83 c4 0c	 add	 esp, 12			; 0000000cH

; 1551 : #ifdef ENABLE_ACCE_COSTUME_SYSTEM
; 1552 : 	PyModule_AddIntConstant(poModule, "PART_ACCE", CRaceData::PART_ACCE);

  00794	6a 05		 push	 5
  00796	68 00 00 00 00	 push	 OFFSET ??_C@_09ECCJILEL@PART_ACCE@
  0079b	57		 push	 edi
  0079c	ff d6		 call	 esi
  0079e	83 c4 0c	 add	 esp, 12			; 0000000cH

; 1553 : #endif
; 1554 : #ifdef ENABLE_AURA_COSTUME_SYSTEM
; 1555 : 	PyModule_AddIntConstant(poModule, "PART_AURA", CRaceData::PART_AURA);

  007a1	6a 06		 push	 6
  007a3	68 00 00 00 00	 push	 OFFSET ??_C@_09EONDIPEL@PART_AURA@
  007a8	57		 push	 edi
  007a9	ff d6		 call	 esi
  007ab	83 c4 0c	 add	 esp, 12			; 0000000cH

; 1556 : #endif
; 1557 : 
; 1558 : 	PyModule_AddIntConstant(poModule, "AFFECT_POISON", CInstanceBase::AFFECT_POISON);

  007ae	6a 03		 push	 3
  007b0	68 00 00 00 00	 push	 OFFSET ??_C@_0O@FFCFHML@AFFECT_POISON@
  007b5	57		 push	 edi
  007b6	ff d6		 call	 esi
  007b8	83 c4 0c	 add	 esp, 12			; 0000000cH

; 1559 : 	PyModule_AddIntConstant(poModule, "AFFECT_SLOW", CInstanceBase::AFFECT_SLOW);

  007bb	6a 04		 push	 4
  007bd	68 00 00 00 00	 push	 OFFSET ??_C@_0M@LLKNMBHE@AFFECT_SLOW@
  007c2	57		 push	 edi
  007c3	ff d6		 call	 esi
  007c5	83 c4 0c	 add	 esp, 12			; 0000000cH

; 1560 : 	PyModule_AddIntConstant(poModule, "AFFECT_STUN", CInstanceBase::AFFECT_STUN);

  007c8	6a 05		 push	 5
  007ca	68 00 00 00 00	 push	 OFFSET ??_C@_0M@KELBDBLK@AFFECT_STUN@
  007cf	57		 push	 edi
  007d0	ff d6		 call	 esi
  007d2	83 c4 0c	 add	 esp, 12			; 0000000cH

; 1561 : 	PyModule_AddIntConstant(poModule, "AFFECT_MOV_SPEED_POTION", CInstanceBase::AFFECT_MOV_SPEED_POTION);

  007d5	6a 0b		 push	 11			; 0000000bH
  007d7	68 00 00 00 00	 push	 OFFSET ??_C@_0BI@BEKPJJEK@AFFECT_MOV_SPEED_POTION@
  007dc	57		 push	 edi
  007dd	ff d6		 call	 esi
  007df	83 c4 0c	 add	 esp, 12			; 0000000cH

; 1562 : 	PyModule_AddIntConstant(poModule, "AFFECT_ATT_SPEED_POTION", CInstanceBase::AFFECT_ATT_SPEED_POTION);

  007e2	6a 0c		 push	 12			; 0000000cH
  007e4	68 00 00 00 00	 push	 OFFSET ??_C@_0BI@JFMNFFKJ@AFFECT_ATT_SPEED_POTION@
  007e9	57		 push	 edi
  007ea	ff d6		 call	 esi
  007ec	83 c4 0c	 add	 esp, 12			; 0000000cH

; 1563 : 	PyModule_AddIntConstant(poModule, "AFFECT_FISH_MIND", CInstanceBase::AFFECT_FISH_MIND);

  007ef	6a 0d		 push	 13			; 0000000dH
  007f1	68 00 00 00 00	 push	 OFFSET ??_C@_0BB@HABGKKCK@AFFECT_FISH_MIND@
  007f6	57		 push	 edi
  007f7	ff d6		 call	 esi
  007f9	83 c4 0c	 add	 esp, 12			; 0000000cH

; 1564 : 
; 1565 : 	PyModule_AddIntConstant(poModule, "AFFECT_JEONGWI", CInstanceBase::AFFECT_JEONGWI);

  007fc	6a 0e		 push	 14			; 0000000eH
  007fe	68 00 00 00 00	 push	 OFFSET ??_C@_0P@PMGJMPLA@AFFECT_JEONGWI@
  00803	57		 push	 edi
  00804	ff d6		 call	 esi
  00806	83 c4 0c	 add	 esp, 12			; 0000000cH

; 1566 : 	PyModule_AddIntConstant(poModule, "AFFECT_GEOMGYEONG", CInstanceBase::AFFECT_GEOMGYEONG);

  00809	6a 0f		 push	 15			; 0000000fH
  0080b	68 00 00 00 00	 push	 OFFSET ??_C@_0BC@BPIBLGH@AFFECT_GEOMGYEONG@
  00810	57		 push	 edi
  00811	ff d6		 call	 esi
  00813	83 c4 0c	 add	 esp, 12			; 0000000cH

; 1567 : 	PyModule_AddIntConstant(poModule, "AFFECT_CHEONGEUN", CInstanceBase::AFFECT_CHEONGEUN);

  00816	6a 10		 push	 16			; 00000010H
  00818	68 00 00 00 00	 push	 OFFSET ??_C@_0BB@NMEHKBDD@AFFECT_CHEONGEUN@
  0081d	57		 push	 edi
  0081e	ff d6		 call	 esi
  00820	83 c4 0c	 add	 esp, 12			; 0000000cH

; 1568 : 	PyModule_AddIntConstant(poModule, "AFFECT_GYEONGGONG", CInstanceBase::AFFECT_GYEONGGONG);

  00823	6a 11		 push	 17			; 00000011H
  00825	68 00 00 00 00	 push	 OFFSET ??_C@_0BC@DNOFICLK@AFFECT_GYEONGGONG@
  0082a	57		 push	 edi
  0082b	ff d6		 call	 esi
  0082d	83 c4 0c	 add	 esp, 12			; 0000000cH

; 1569 : 	PyModule_AddIntConstant(poModule, "AFFECT_EUNHYEONG", CInstanceBase::AFFECT_EUNHYEONG);

  00830	6a 12		 push	 18			; 00000012H
  00832	68 00 00 00 00	 push	 OFFSET ??_C@_0BB@NOAECAHF@AFFECT_EUNHYEONG@
  00837	57		 push	 edi
  00838	ff d6		 call	 esi
  0083a	83 c4 0c	 add	 esp, 12			; 0000000cH

; 1570 : 	PyModule_AddIntConstant(poModule, "AFFECT_GWIGEOM", CInstanceBase::AFFECT_GWIGEOM);

  0083d	6a 13		 push	 19			; 00000013H
  0083f	68 00 00 00 00	 push	 OFFSET ??_C@_0P@JADECJKN@AFFECT_GWIGEOM@
  00844	57		 push	 edi
  00845	ff d6		 call	 esi
  00847	83 c4 0c	 add	 esp, 12			; 0000000cH

; 1571 : 	PyModule_AddIntConstant(poModule, "AFFECT_GONGPO", CInstanceBase::AFFECT_GONGPO);

  0084a	6a 14		 push	 20			; 00000014H
  0084c	68 00 00 00 00	 push	 OFFSET ??_C@_0O@MEBBDMFP@AFFECT_GONGPO@
  00851	57		 push	 edi
  00852	ff d6		 call	 esi
  00854	83 c4 0c	 add	 esp, 12			; 0000000cH

; 1572 : 	PyModule_AddIntConstant(poModule, "AFFECT_JUMAGAP", CInstanceBase::AFFECT_JUMAGAP);

  00857	6a 15		 push	 21			; 00000015H
  00859	68 00 00 00 00	 push	 OFFSET ??_C@_0P@NHIEBDHO@AFFECT_JUMAGAP@
  0085e	57		 push	 edi
  0085f	ff d6		 call	 esi
  00861	83 c4 0c	 add	 esp, 12			; 0000000cH

; 1573 : 	PyModule_AddIntConstant(poModule, "AFFECT_HOSIN", CInstanceBase::AFFECT_HOSIN);

  00864	6a 16		 push	 22			; 00000016H
  00866	68 00 00 00 00	 push	 OFFSET ??_C@_0N@BLOPJELK@AFFECT_HOSIN@
  0086b	57		 push	 edi
  0086c	ff d6		 call	 esi
  0086e	83 c4 0c	 add	 esp, 12			; 0000000cH

; 1574 : 	PyModule_AddIntConstant(poModule, "AFFECT_BOHO", CInstanceBase::AFFECT_BOHO);

  00871	6a 17		 push	 23			; 00000017H
  00873	68 00 00 00 00	 push	 OFFSET ??_C@_0M@HDMMFOHE@AFFECT_BOHO@
  00878	57		 push	 edi
  00879	ff d6		 call	 esi
  0087b	83 c4 0c	 add	 esp, 12			; 0000000cH

; 1575 : 	PyModule_AddIntConstant(poModule, "AFFECT_KWAESOK", CInstanceBase::AFFECT_KWAESOK);

  0087e	6a 18		 push	 24			; 00000018H
  00880	68 00 00 00 00	 push	 OFFSET ??_C@_0P@HCCAECCK@AFFECT_KWAESOK@
  00885	57		 push	 edi
  00886	ff d6		 call	 esi
  00888	83 c4 0c	 add	 esp, 12			; 0000000cH

; 1576 : 	PyModule_AddIntConstant(poModule, "AFFECT_HEUKSIN", CInstanceBase::AFFECT_HEUKSIN);

  0088b	6a 19		 push	 25			; 00000019H
  0088d	68 00 00 00 00	 push	 OFFSET ??_C@_0P@FCGDLODF@AFFECT_HEUKSIN@
  00892	57		 push	 edi
  00893	ff d6		 call	 esi
  00895	83 c4 0c	 add	 esp, 12			; 0000000cH

; 1577 : 	PyModule_AddIntConstant(poModule, "AFFECT_MUYEONG", CInstanceBase::AFFECT_MUYEONG);

  00898	6a 1a		 push	 26			; 0000001aH
  0089a	68 00 00 00 00	 push	 OFFSET ??_C@_0P@HLONBHGO@AFFECT_MUYEONG@
  0089f	57		 push	 edi
  008a0	ff d6		 call	 esi
  008a2	83 c4 0c	 add	 esp, 12			; 0000000cH

; 1578 : 	PyModule_AddIntConstant(poModule, "AFFECT_GICHEON", CInstanceBase::AFFECT_GICHEON);

  008a5	6a 1d		 push	 29			; 0000001dH
  008a7	68 00 00 00 00	 push	 OFFSET ??_C@_0P@KPDDCJEK@AFFECT_GICHEON@
  008ac	57		 push	 edi
  008ad	ff d6		 call	 esi
  008af	83 c4 0c	 add	 esp, 12			; 0000000cH

; 1579 : 	PyModule_AddIntConstant(poModule, "AFFECT_JEUNGRYEOK", CInstanceBase::AFFECT_JEUNGRYEOK);

  008b2	6a 1e		 push	 30			; 0000001eH
  008b4	68 00 00 00 00	 push	 OFFSET ??_C@_0BC@HABANGHD@AFFECT_JEUNGRYEOK@
  008b9	57		 push	 edi
  008ba	ff d6		 call	 esi
  008bc	83 c4 0c	 add	 esp, 12			; 0000000cH

; 1580 : 	PyModule_AddIntConstant(poModule, "AFFECT_PABEOP", CInstanceBase::AFFECT_PABEOP);

  008bf	6a 20		 push	 32			; 00000020H
  008c1	68 00 00 00 00	 push	 OFFSET ??_C@_0O@OJLLDADG@AFFECT_PABEOP@
  008c6	57		 push	 edi
  008c7	ff d6		 call	 esi
  008c9	83 c4 0c	 add	 esp, 12			; 0000000cH

; 1581 : 	PyModule_AddIntConstant(poModule, "AFFECT_FALLEN_CHEONGEUN", CInstanceBase::AFFECT_FALLEN_CHEONGEUN);

  008cc	6a 21		 push	 33			; 00000021H
  008ce	68 00 00 00 00	 push	 OFFSET ??_C@_0BI@CFDHLOMB@AFFECT_FALLEN_CHEONGEUN@
  008d3	57		 push	 edi
  008d4	ff d6		 call	 esi
  008d6	83 c4 0c	 add	 esp, 12			; 0000000cH

; 1582 : 	PyModule_AddIntConstant(poModule, "AFFECT_CHINA_FIREWORK", CInstanceBase::AFFECT_CHINA_FIREWORK);

  008d9	6a 26		 push	 38			; 00000026H
  008db	68 00 00 00 00	 push	 OFFSET ??_C@_0BG@DFBDCPEK@AFFECT_CHINA_FIREWORK@
  008e0	57		 push	 edi
  008e1	ff d6		 call	 esi
  008e3	83 c4 0c	 add	 esp, 12			; 0000000cH

; 1583 : #ifdef ENABLE_MULTI_FARM_BLOCK
; 1584 : 	PyModule_AddIntConstant(poModule, "NEW_AFFECT_MULTI_FARM", CInstanceBase::NEW_AFFECT_MULTI_FARM);

  008e6	68 c0 02 00 00	 push	 704			; 000002c0H
  008eb	68 00 00 00 00	 push	 OFFSET ??_C@_0BG@MOOJPEIB@NEW_AFFECT_MULTI_FARM@
  008f0	57		 push	 edi
  008f1	ff d6		 call	 esi
  008f3	83 c4 0c	 add	 esp, 12			; 0000000cH

; 1585 : #endif
; 1586 : #ifdef ENABLE_RENEWAL_PREMIUM_SYSTEM
; 1587 : 	PyModule_AddIntConstant(poModule, "NEW_AFFECT_PREMIUM_ACCOUNT", CInstanceBase::NEW_AFFECT_PREMIUM_ACCOUNT);

  008f6	68 c1 02 00 00	 push	 705			; 000002c1H
  008fb	68 00 00 00 00	 push	 OFFSET ??_C@_0BL@EIEJCOMH@NEW_AFFECT_PREMIUM_ACCOUNT@
  00900	57		 push	 edi
  00901	ff d6		 call	 esi
  00903	83 c4 0c	 add	 esp, 12			; 0000000cH

; 1588 : #endif
; 1589 : #ifdef __AUTO_HUNT__
; 1590 : 	PyModule_AddIntConstant(poModule, "NEW_AFFECT_AUTO_HUNT", CInstanceBase::NEW_AFFECT_AUTO_HUNT);

  00906	68 3e 03 00 00	 push	 830			; 0000033eH
  0090b	68 00 00 00 00	 push	 OFFSET ??_C@_0BF@EICDJDKA@NEW_AFFECT_AUTO_HUNT@
  00910	57		 push	 edi
  00911	ff d6		 call	 esi
  00913	83 c4 0c	 add	 esp, 12			; 0000000cH

; 1591 : #endif
; 1592 : 
; 1593 : 	PyModule_AddIntConstant(poModule, "NEW_AFFECT_MALL", CInstanceBase::NEW_AFFECT_MALL);

  00916	68 fe 01 00 00	 push	 510			; 000001feH
  0091b	68 00 00 00 00	 push	 OFFSET ??_C@_0BA@DBLFIOAN@NEW_AFFECT_MALL@
  00920	57		 push	 edi
  00921	ff d6		 call	 esi
  00923	83 c4 0c	 add	 esp, 12			; 0000000cH

; 1594 : 	PyModule_AddIntConstant(poModule, "NEW_AFFECT_NO_DEATH_PENALTY", CInstanceBase::NEW_AFFECT_NO_DEATH_PENALTY);

  00926	68 ff 01 00 00	 push	 511			; 000001ffH
  0092b	68 00 00 00 00	 push	 OFFSET ??_C@_0BM@NOKMEHMP@NEW_AFFECT_NO_DEATH_PENALTY@
  00930	57		 push	 edi
  00931	ff d6		 call	 esi
  00933	83 c4 0c	 add	 esp, 12			; 0000000cH

; 1595 : 	PyModule_AddIntConstant(poModule, "NEW_AFFECT_SKILL_BOOK_BONUS", CInstanceBase::NEW_AFFECT_SKILL_BOOK_BONUS);

  00936	68 00 02 00 00	 push	 512			; 00000200H
  0093b	68 00 00 00 00	 push	 OFFSET ??_C@_0BM@ELPJNNPH@NEW_AFFECT_SKILL_BOOK_BONUS@
  00940	57		 push	 edi
  00941	ff d6		 call	 esi
  00943	83 c4 0c	 add	 esp, 12			; 0000000cH

; 1596 : 	PyModule_AddIntConstant(poModule, "NEW_AFFECT_SKILL_BOOK_NO_DELAY", CInstanceBase::NEW_AFFECT_SKILL_BOOK_NO_DELAY);

  00946	68 01 02 00 00	 push	 513			; 00000201H
  0094b	68 00 00 00 00	 push	 OFFSET ??_C@_0BP@ILCIKFOJ@NEW_AFFECT_SKILL_BOOK_NO_DELAY@
  00950	57		 push	 edi
  00951	ff d6		 call	 esi
  00953	83 c4 0c	 add	 esp, 12			; 0000000cH

; 1597 : 	PyModule_AddIntConstant(poModule, "NEW_AFFECT_EXP_BONUS", CInstanceBase::NEW_AFFECT_EXP_BONUS);

  00956	68 f4 01 00 00	 push	 500			; 000001f4H
  0095b	68 00 00 00 00	 push	 OFFSET ??_C@_0BF@IGFBIBCE@NEW_AFFECT_EXP_BONUS@
  00960	57		 push	 edi
  00961	ff d6		 call	 esi
  00963	83 c4 0c	 add	 esp, 12			; 0000000cH

; 1598 : 	PyModule_AddIntConstant(poModule, "NEW_AFFECT_EXP_BONUS_EURO_FREE", CInstanceBase::NEW_AFFECT_EXP_BONUS_EURO_FREE);

  00966	68 04 02 00 00	 push	 516			; 00000204H
  0096b	68 00 00 00 00	 push	 OFFSET ??_C@_0BP@PLLCKPKL@NEW_AFFECT_EXP_BONUS_EURO_FREE@
  00970	57		 push	 edi
  00971	ff d6		 call	 esi
  00973	83 c4 0c	 add	 esp, 12			; 0000000cH

; 1599 : 	PyModule_AddIntConstant(poModule, "NEW_AFFECT_EXP_BONUS_EURO_FREE_UNDER_15",CInstanceBase::NEW_AFFECT_EXP_BONUS_EURO_FREE_UNDER_15);

  00976	68 05 02 00 00	 push	 517			; 00000205H
  0097b	68 00 00 00 00	 push	 OFFSET ??_C@_0CI@CIBKFDJK@NEW_AFFECT_EXP_BONUS_EURO_FREE_@
  00980	57		 push	 edi
  00981	ff d6		 call	 esi
  00983	83 c4 0c	 add	 esp, 12			; 0000000cH

; 1600 : 
; 1601 : 	PyModule_AddIntConstant(poModule, "NEW_AFFECT_ITEM_BONUS", CInstanceBase::NEW_AFFECT_ITEM_BONUS);

  00986	68 f5 01 00 00	 push	 501			; 000001f5H
  0098b	68 00 00 00 00	 push	 OFFSET ??_C@_0BG@GBJOJDKK@NEW_AFFECT_ITEM_BONUS@
  00990	57		 push	 edi
  00991	ff d6		 call	 esi
  00993	83 c4 0c	 add	 esp, 12			; 0000000cH

; 1602 : 	PyModule_AddIntConstant(poModule, "NEW_AFFECT_SAFEBOX", CInstanceBase::NEW_AFFECT_SAFEBOX);

  00996	68 f6 01 00 00	 push	 502			; 000001f6H
  0099b	68 00 00 00 00	 push	 OFFSET ??_C@_0BD@OLNAIOLN@NEW_AFFECT_SAFEBOX@
  009a0	57		 push	 edi
  009a1	ff d6		 call	 esi
  009a3	83 c4 0c	 add	 esp, 12			; 0000000cH

; 1603 : 	PyModule_AddIntConstant(poModule, "NEW_AFFECT_AUTOLOOT", CInstanceBase::NEW_AFFECT_AUTOLOOT);

  009a6	68 f7 01 00 00	 push	 503			; 000001f7H
  009ab	68 00 00 00 00	 push	 OFFSET ??_C@_0BE@OGKIHHNM@NEW_AFFECT_AUTOLOOT@
  009b0	57		 push	 edi
  009b1	ff d6		 call	 esi
  009b3	83 c4 0c	 add	 esp, 12			; 0000000cH

; 1604 : 	PyModule_AddIntConstant(poModule, "NEW_AFFECT_FISH_MIND", CInstanceBase::NEW_AFFECT_FISH_MIND);

  009b6	68 f8 01 00 00	 push	 504			; 000001f8H
  009bb	68 00 00 00 00	 push	 OFFSET ??_C@_0BF@LHIEHLCN@NEW_AFFECT_FISH_MIND@
  009c0	57		 push	 edi
  009c1	ff d6		 call	 esi
  009c3	83 c4 0c	 add	 esp, 12			; 0000000cH

; 1605 : 	PyModule_AddIntConstant(poModule, "NEW_AFFECT_MARRIAGE_FAST", CInstanceBase::NEW_AFFECT_MARRIAGE_FAST);

  009c6	68 f9 01 00 00	 push	 505			; 000001f9H
  009cb	68 00 00 00 00	 push	 OFFSET ??_C@_0BJ@DEPPJPLB@NEW_AFFECT_MARRIAGE_FAST@
  009d0	57		 push	 edi
  009d1	ff d6		 call	 esi
  009d3	83 c4 0c	 add	 esp, 12			; 0000000cH

; 1606 : 	PyModule_AddIntConstant(poModule, "NEW_AFFECT_GOLD_BONUS", CInstanceBase::NEW_AFFECT_GOLD_BONUS);

  009d6	68 fa 01 00 00	 push	 506			; 000001faH
  009db	68 00 00 00 00	 push	 OFFSET ??_C@_0BG@FPEKGPMD@NEW_AFFECT_GOLD_BONUS@
  009e0	57		 push	 edi
  009e1	ff d6		 call	 esi
  009e3	83 c4 0c	 add	 esp, 12			; 0000000cH

; 1607 : 	PyModule_AddIntConstant(poModule, "NEW_AFFECT_AUTO_HP_RECOVERY", CInstanceBase::NEW_AFFECT_AUTO_HP_RECOVERY);

  009e6	68 16 02 00 00	 push	 534			; 00000216H
  009eb	68 00 00 00 00	 push	 OFFSET ??_C@_0BM@DLPBDIOI@NEW_AFFECT_AUTO_HP_RECOVERY@
  009f0	57		 push	 edi
  009f1	ff d6		 call	 esi
  009f3	83 c4 0c	 add	 esp, 12			; 0000000cH

; 1608 : 	PyModule_AddIntConstant(poModule, "NEW_AFFECT_AUTO_SP_RECOVERY", CInstanceBase::NEW_AFFECT_AUTO_SP_RECOVERY);

  009f6	68 17 02 00 00	 push	 535			; 00000217H
  009fb	68 00 00 00 00	 push	 OFFSET ??_C@_0BM@EGHLHBBK@NEW_AFFECT_AUTO_SP_RECOVERY@
  00a00	57		 push	 edi
  00a01	ff d6		 call	 esi
  00a03	83 c4 0c	 add	 esp, 12			; 0000000cH

; 1609 : 
; 1610 : 	PyModule_AddIntConstant(poModule, "NEW_AFFECT_DRAGON_SOUL_QUALIFIED", CInstanceBase::NEW_AFFECT_DRAGON_SOUL_QUALIFIED);

  00a06	68 1c 02 00 00	 push	 540			; 0000021cH
  00a0b	68 00 00 00 00	 push	 OFFSET ??_C@_0CB@MMNLNBEI@NEW_AFFECT_DRAGON_SOUL_QUALIFIE@
  00a10	57		 push	 edi
  00a11	ff d6		 call	 esi
  00a13	83 c4 0c	 add	 esp, 12			; 0000000cH

; 1611 : 
; 1612 : 	PyModule_AddIntConstant(poModule, "NEW_AFFECT_DRAGON_SOUL_DECK1", CInstanceBase::NEW_AFFECT_DRAGON_SOUL_DECK1);

  00a16	68 1d 02 00 00	 push	 541			; 0000021dH
  00a1b	68 00 00 00 00	 push	 OFFSET ??_C@_0BN@DIIGGCFL@NEW_AFFECT_DRAGON_SOUL_DECK1@
  00a20	57		 push	 edi
  00a21	ff d6		 call	 esi
  00a23	83 c4 0c	 add	 esp, 12			; 0000000cH

; 1613 : 	PyModule_AddIntConstant(poModule, "NEW_AFFECT_DRAGON_SOUL_DECK2", CInstanceBase::NEW_AFFECT_DRAGON_SOUL_DECK2);

  00a26	68 1e 02 00 00	 push	 542			; 0000021eH
  00a2b	68 00 00 00 00	 push	 OFFSET ??_C@_0BN@BDKLDBJI@NEW_AFFECT_DRAGON_SOUL_DECK2@
  00a30	57		 push	 edi
  00a31	ff d6		 call	 esi
  00a33	83 c4 0c	 add	 esp, 12			; 0000000cH

; 1614 : 
; 1615 : #ifdef ENABLE_RENEWAL_AFFECT
; 1616 : 	PyModule_AddIntConstant(poModule, "NEW_AFFECT_BLEND", CInstanceBase::NEW_AFFECT_BLEND);

  00a36	68 24 02 00 00	 push	 548			; 00000224H
  00a3b	68 00 00 00 00	 push	 OFFSET ??_C@_0BB@JNNPKOLC@NEW_AFFECT_BLEND@
  00a40	57		 push	 edi
  00a41	ff d6		 call	 esi
  00a43	83 c4 0c	 add	 esp, 12			; 0000000cH

; 1617 : 	PyModule_AddIntConstant(poModule, "NEW_AFFECT_MALL_PLUS", CInstanceBase::NEW_AFFECT_MALL_PLUS);

  00a46	68 25 02 00 00	 push	 549			; 00000225H
  00a4b	68 00 00 00 00	 push	 OFFSET ??_C@_0BF@BPDGEOFA@NEW_AFFECT_MALL_PLUS@
  00a50	57		 push	 edi
  00a51	ff d6		 call	 esi
  00a53	83 c4 0c	 add	 esp, 12			; 0000000cH

; 1618 : 	PyModule_AddIntConstant(poModule, "NEW_AFFECT_BLEND_PLUS", CInstanceBase::NEW_AFFECT_BLEND_PLUS);

  00a56	68 26 02 00 00	 push	 550			; 00000226H
  00a5b	68 00 00 00 00	 push	 OFFSET ??_C@_0BG@GKGBMDLI@NEW_AFFECT_BLEND_PLUS@
  00a60	57		 push	 edi
  00a61	ff d6		 call	 esi
  00a63	83 c4 0c	 add	 esp, 12			; 0000000cH

; 1619 : #endif
; 1620 : 
; 1621 : #ifdef ENABLE_RENEWAL_OFFLINESHOP
; 1622 : 	PyModule_AddIntConstant(poModule, "NEW_AFFECT_DECORATION", CInstanceBase::NEW_AFFECT_DECORATION);

  00a66	68 bf 02 00 00	 push	 703			; 000002bfH
  00a6b	68 00 00 00 00	 push	 OFFSET ??_C@_0BG@NACAINHC@NEW_AFFECT_DECORATION@
  00a70	57		 push	 edi
  00a71	ff d6		 call	 esi
  00a73	83 c4 0c	 add	 esp, 12			; 0000000cH

; 1623 : #endif
; 1624 : 
; 1625 : #ifdef ENABLE_AUTOMATIC_PICK_UP_SYSTEM
; 1626 : 	PyModule_AddIntConstant(poModule, "NEW_AFFECT_AUTO_PICK_UP", CInstanceBase::NEW_AFFECT_AUTO_PICK_UP);

  00a76	68 c2 02 00 00	 push	 706			; 000002c2H
  00a7b	68 00 00 00 00	 push	 OFFSET ??_C@_0BI@DDNPJENB@NEW_AFFECT_AUTO_PICK_UP@
  00a80	57		 push	 edi
  00a81	ff d6		 call	 esi
  00a83	83 c4 0c	 add	 esp, 12			; 0000000cH

; 1627 : #endif
; 1628 : 
; 1629 : #ifdef ENABLE_GROWTH_PET_SYSTEM
; 1630 : 	PyModule_AddIntConstant(poModule, "PET_SKILL_AFFECT_NONE", CInstanceBase::PET_SKILL_AFFECT_NONE);

  00a86	6a 00		 push	 0
  00a88	68 00 00 00 00	 push	 OFFSET ??_C@_0BG@KIAGHMMH@PET_SKILL_AFFECT_NONE@
  00a8d	57		 push	 edi
  00a8e	ff d6		 call	 esi
  00a90	83 c4 0c	 add	 esp, 12			; 0000000cH

; 1631 : 	PyModule_AddIntConstant(poModule, "PET_SKILL_AFFECT_JIJOONG_WARRIOR", CInstanceBase::PET_SKILL_AFFECT_JIJOONG_WARRIOR);

  00a93	6a 01		 push	 1
  00a95	68 00 00 00 00	 push	 OFFSET ??_C@_0CB@HHEHDNB@PET_SKILL_AFFECT_JIJOONG_WARRIO@
  00a9a	57		 push	 edi
  00a9b	ff d6		 call	 esi
  00a9d	83 c4 0c	 add	 esp, 12			; 0000000cH

; 1632 : 	PyModule_AddIntConstant(poModule, "PET_SKILL_AFFECT_JIJOONG_SURA", CInstanceBase::PET_SKILL_AFFECT_JIJOONG_SURA);

  00aa0	6a 02		 push	 2
  00aa2	68 00 00 00 00	 push	 OFFSET ??_C@_0BO@BKIMMML@PET_SKILL_AFFECT_JIJOONG_SURA@
  00aa7	57		 push	 edi
  00aa8	ff d6		 call	 esi
  00aaa	83 c4 0c	 add	 esp, 12			; 0000000cH

; 1633 : 	PyModule_AddIntConstant(poModule, "PET_SKILL_AFFECT_JIJOONG_ASSASSIN", CInstanceBase::PET_SKILL_AFFECT_JIJOONG_ASSASSIN);

  00aad	6a 03		 push	 3
  00aaf	68 00 00 00 00	 push	 OFFSET ??_C@_0CC@HNLEKJAD@PET_SKILL_AFFECT_JIJOONG_ASSASS@
  00ab4	57		 push	 edi
  00ab5	ff d6		 call	 esi
  00ab7	83 c4 0c	 add	 esp, 12			; 0000000cH

; 1634 : 	PyModule_AddIntConstant(poModule, "PET_SKILL_AFFECT_JIJOONG_SHAMAN", CInstanceBase::PET_SKILL_AFFECT_JIJOONG_SHAMAN);

  00aba	6a 04		 push	 4
  00abc	68 00 00 00 00	 push	 OFFSET ??_C@_0CA@HHKAEHGF@PET_SKILL_AFFECT_JIJOONG_SHAMAN@
  00ac1	57		 push	 edi
  00ac2	ff d6		 call	 esi
  00ac4	83 c4 0c	 add	 esp, 12			; 0000000cH

; 1635 : 	PyModule_AddIntConstant(poModule, "PET_SKILL_AFFECT_PACHEON", CInstanceBase::PET_SKILL_AFFECT_PACHEON);

  00ac7	6a 05		 push	 5
  00ac9	68 00 00 00 00	 push	 OFFSET ??_C@_0BJ@DKPPJMPA@PET_SKILL_AFFECT_PACHEON@
  00ace	57		 push	 edi
  00acf	ff d6		 call	 esi
  00ad1	83 c4 0c	 add	 esp, 12			; 0000000cH

; 1636 : 	PyModule_AddIntConstant(poModule, "PET_SKILL_AFFECT_BANYA", CInstanceBase::PET_SKILL_AFFECT_BANYA);

  00ad4	6a 06		 push	 6
  00ad6	68 00 00 00 00	 push	 OFFSET ??_C@_0BH@DBAEALCF@PET_SKILL_AFFECT_BANYA@
  00adb	57		 push	 edi
  00adc	ff d6		 call	 esi
  00ade	83 c4 0c	 add	 esp, 12			; 0000000cH

; 1637 : 	PyModule_AddIntConstant(poModule, "PET_SKILL_AFFECT_CHOEHOENBIMU", CInstanceBase::PET_SKILL_AFFECT_CHOEHOENBIMU);

  00ae1	6a 07		 push	 7
  00ae3	68 00 00 00 00	 push	 OFFSET ??_C@_0BO@PCKIHOIK@PET_SKILL_AFFECT_CHOEHOENBIMU@
  00ae8	57		 push	 edi
  00ae9	ff d6		 call	 esi
  00aeb	83 c4 0c	 add	 esp, 12			; 0000000cH

; 1638 : 	PyModule_AddIntConstant(poModule, "PET_SKILL_AFFECT_HEAL", CInstanceBase::PET_SKILL_AFFECT_HEAL);

  00aee	6a 08		 push	 8
  00af0	68 00 00 00 00	 push	 OFFSET ??_C@_0BG@JCGFJFHH@PET_SKILL_AFFECT_HEAL@
  00af5	57		 push	 edi
  00af6	ff d6		 call	 esi
  00af8	83 c4 0c	 add	 esp, 12			; 0000000cH

; 1639 : 	PyModule_AddIntConstant(poModule, "PET_SKILL_AFFECT_STEALHP", CInstanceBase::PET_SKILL_AFFECT_STEALHP);

  00afb	6a 09		 push	 9
  00afd	68 00 00 00 00	 push	 OFFSET ??_C@_0BJ@PGNJMPMG@PET_SKILL_AFFECT_STEALHP@
  00b02	57		 push	 edi
  00b03	ff d6		 call	 esi
  00b05	83 c4 0c	 add	 esp, 12			; 0000000cH

; 1640 : 	PyModule_AddIntConstant(poModule, "PET_SKILL_AFFECT_STEALMP", CInstanceBase::PET_SKILL_AFFECT_STEALMP);

  00b08	6a 0a		 push	 10			; 0000000aH
  00b0a	68 00 00 00 00	 push	 OFFSET ??_C@_0BJ@PABCANCN@PET_SKILL_AFFECT_STEALMP@
  00b0f	57		 push	 edi
  00b10	ff d6		 call	 esi
  00b12	83 c4 0c	 add	 esp, 12			; 0000000cH

; 1641 : 	PyModule_AddIntConstant(poModule, "PET_SKILL_AFFECT_BLOCK", CInstanceBase::PET_SKILL_AFFECT_BLOCK);

  00b15	6a 0b		 push	 11			; 0000000bH
  00b17	68 00 00 00 00	 push	 OFFSET ??_C@_0BH@JKHGGGNN@PET_SKILL_AFFECT_BLOCK@
  00b1c	57		 push	 edi
  00b1d	ff d6		 call	 esi
  00b1f	83 c4 0c	 add	 esp, 12			; 0000000cH

; 1642 : 	PyModule_AddIntConstant(poModule, "PET_SKILL_AFFECT_REFLECT_MELEE", CInstanceBase::PET_SKILL_AFFECT_REFLECT_MELEE);

  00b22	6a 0c		 push	 12			; 0000000cH
  00b24	68 00 00 00 00	 push	 OFFSET ??_C@_0BP@CIKKIFNK@PET_SKILL_AFFECT_REFLECT_MELEE@
  00b29	57		 push	 edi
  00b2a	ff d6		 call	 esi
  00b2c	83 c4 0c	 add	 esp, 12			; 0000000cH

; 1643 : 	PyModule_AddIntConstant(poModule, "PET_SKILL_AFFECT_GOLD_DROP", CInstanceBase::PET_SKILL_AFFECT_GOLD_DROP);

  00b2f	6a 0d		 push	 13			; 0000000dH
  00b31	68 00 00 00 00	 push	 OFFSET ??_C@_0BL@PABKFCJE@PET_SKILL_AFFECT_GOLD_DROP@
  00b36	57		 push	 edi
  00b37	ff d6		 call	 esi
  00b39	83 c4 0c	 add	 esp, 12			; 0000000cH

; 1644 : 	PyModule_AddIntConstant(poModule, "PET_SKILL_AFFECT_BOW_DISTANCE", CInstanceBase::PET_SKILL_AFFECT_BOW_DISTANCE);

  00b3c	6a 0e		 push	 14			; 0000000eH
  00b3e	68 00 00 00 00	 push	 OFFSET ??_C@_0BO@GDCMHFIH@PET_SKILL_AFFECT_BOW_DISTANCE@
  00b43	57		 push	 edi
  00b44	ff d6		 call	 esi
  00b46	83 c4 0c	 add	 esp, 12			; 0000000cH

; 1645 : 	PyModule_AddIntConstant(poModule, "PET_SKILL_AFFECT_INVINCIBILITY", CInstanceBase::PET_SKILL_AFFECT_INVINCIBILITY);

  00b49	6a 0f		 push	 15			; 0000000fH
  00b4b	68 00 00 00 00	 push	 OFFSET ??_C@_0BP@NIDNBKAK@PET_SKILL_AFFECT_INVINCIBILITY@
  00b50	57		 push	 edi
  00b51	ff d6		 call	 esi
  00b53	83 c4 0c	 add	 esp, 12			; 0000000cH

; 1646 : 	PyModule_AddIntConstant(poModule, "PET_SKILL_AFFECT_REMOVAL", CInstanceBase::PET_SKILL_AFFECT_REMOVAL);

  00b56	6a 10		 push	 16			; 00000010H
  00b58	68 00 00 00 00	 push	 OFFSET ??_C@_0BJ@HOLLLFAH@PET_SKILL_AFFECT_REMOVAL@
  00b5d	57		 push	 edi
  00b5e	ff d6		 call	 esi
  00b60	83 c4 0c	 add	 esp, 12			; 0000000cH

; 1647 : 	PyModule_AddIntConstant(poModule, "PET_SKILL_AFFECT_POTION", CInstanceBase::PET_SKILL_AFFECT_POTION);

  00b63	6a 11		 push	 17			; 00000011H
  00b65	68 00 00 00 00	 push	 OFFSET ??_C@_0BI@JPFDKLOG@PET_SKILL_AFFECT_POTION@
  00b6a	57		 push	 edi
  00b6b	ff d6		 call	 esi
  00b6d	83 c4 0c	 add	 esp, 12			; 0000000cH

; 1648 : 	PyModule_AddIntConstant(poModule, "PET_SKILL_AFFECT_MOB_BONUS", CInstanceBase::PET_SKILL_AFFECT_MOB_BONUS);

  00b70	6a 12		 push	 18			; 00000012H
  00b72	68 00 00 00 00	 push	 OFFSET ??_C@_0BL@HPKAKFEN@PET_SKILL_AFFECT_MOB_BONUS@
  00b77	57		 push	 edi
  00b78	ff d6		 call	 esi
  00b7a	83 c4 0c	 add	 esp, 12			; 0000000cH

; 1649 : 	PyModule_AddIntConstant(poModule, "PET_SKILL_HP_RECOVER", CInstanceBase::PET_SKILL_HP_RECOVER);

  00b7d	6a 13		 push	 19			; 00000013H
  00b7f	68 00 00 00 00	 push	 OFFSET ??_C@_0BF@CDFLBDOA@PET_SKILL_HP_RECOVER@
  00b84	57		 push	 edi
  00b85	ff d6		 call	 esi
  00b87	83 c4 0c	 add	 esp, 12			; 0000000cH

; 1650 : 	PyModule_AddIntConstant(poModule, "PET_SKILL_AFFECT_EXP", CInstanceBase::PET_SKILL_AFFECT_EXP);

  00b8a	6a 14		 push	 20			; 00000014H
  00b8c	68 00 00 00 00	 push	 OFFSET ??_C@_0BF@HNDMCKJJ@PET_SKILL_AFFECT_EXP@
  00b91	57		 push	 edi
  00b92	ff d6		 call	 esi
  00b94	83 c4 0c	 add	 esp, 12			; 0000000cH

; 1651 : 	PyModule_AddIntConstant(poModule, "PET_SKILL_FEATHER", CInstanceBase::PET_SKILL_FEATHER);

  00b97	6a 15		 push	 21			; 00000015H
  00b99	68 00 00 00 00	 push	 OFFSET ??_C@_0BC@GKKKLICJ@PET_SKILL_FEATHER@
  00b9e	57		 push	 edi
  00b9f	ff d6		 call	 esi
  00ba1	83 c4 0c	 add	 esp, 12			; 0000000cH

; 1652 : 	PyModule_AddIntConstant(poModule, "PET_SKILL_AFFECT_MAX", CInstanceBase::PET_SKILL_AFFECT_MAX);

  00ba4	6a 16		 push	 22			; 00000016H
  00ba6	68 00 00 00 00	 push	 OFFSET ??_C@_0BF@GDKGBAIB@PET_SKILL_AFFECT_MAX@
  00bab	57		 push	 edi
  00bac	ff d6		 call	 esi

; 1653 : #endif
; 1654 : }

  00bae	8b 4d fc	 mov	 ecx, DWORD PTR __$ArrayPad$[ebp]
  00bb1	83 c4 0c	 add	 esp, 12			; 0000000cH
  00bb4	33 cd		 xor	 ecx, ebp
  00bb6	5f		 pop	 edi
  00bb7	5e		 pop	 esi
  00bb8	e8 00 00 00 00	 call	 @__security_check_cookie@4
  00bbd	8b e5		 mov	 esp, ebp
  00bbf	5d		 pop	 ebp
  00bc0	c3		 ret	 0
?initchr@@YAXXZ ENDP					; initchr
_TEXT	ENDS
END
