; Listing generated by Microsoft (R) Optimizing Compiler Version 19.44.35219.0 

	TITLE	c:\anka2project\anka2project\source\binary\vs_files\userinterface\release\pythonguildranking.obj
	.686P
	.XMM
	include listing.inc
	.model	flat

INCLUDELIB OLDNAMES

PUBLIC	??_C@_0CA@PHNKPBOI@Failed?5to?5find?5rank?5by?5index?5?$CFd@ ; `string'
PUBLIC	??_C@_08BIKHFDAN@issiiiii@			; `string'
PUBLIC	??_C@_0BC@EJCCEIEM@GetGuildRankCount@		; `string'
PUBLIC	??_C@_0BD@DEAGJOML@GetGuildRankByLine@		; `string'
PUBLIC	??_C@_0BD@MCEOOOCC@GetGuildRankMyLine@		; `string'
PUBLIC	??_C@_0P@GEOKHHAK@GuildRankClear@		; `string'
PUBLIC	??_C@_0N@OPFMFFHN@guildranking@			; `string'
PUBLIC	??_C@_0BI@ODECEHOG@GUILD_RANK_PAGE_MAX_NUM@	; `string'
PUBLIC	??_C@_0BG@NJCJHFNH@GUILD_RANK_SHOW_COUNT@	; `string'
PUBLIC	??_R2?$_Ref_count_obj2@USRankingData@CPythonGuildRanking@@@std@@8 ; std::_Ref_count_obj2<CPythonGuildRanking::SRankingData>::`RTTI Base Class Array'
PUBLIC	??_R2CPythonGuildRanking@@8			; CPythonGuildRanking::`RTTI Base Class Array'
PUBLIC	??_R2?$CSingleton@VCPythonGuildRanking@@@@8	; CSingleton<CPythonGuildRanking>::`RTTI Base Class Array'
PUBLIC	??_R0?AV_Ref_count_base@std@@@8			; std::_Ref_count_base `RTTI Type Descriptor'
PUBLIC	??_R2_Ref_count_base@std@@8			; std::_Ref_count_base::`RTTI Base Class Array'
PUBLIC	??_R3_Ref_count_base@std@@8			; std::_Ref_count_base::`RTTI Class Hierarchy Descriptor'
PUBLIC	??_R1A@?0A@EA@_Ref_count_base@std@@8		; std::_Ref_count_base::`RTTI Base Class Descriptor at (0,-1,0,64)'
PUBLIC	??_R1A@?0A@EA@?$_Ref_count_obj2@USRankingData@CPythonGuildRanking@@@std@@8 ; std::_Ref_count_obj2<CPythonGuildRanking::SRankingData>::`RTTI Base Class Descriptor at (0,-1,0,64)'
PUBLIC	??_R1A@?0A@EA@CPythonGuildRanking@@8		; CPythonGuildRanking::`RTTI Base Class Descriptor at (0,-1,0,64)'
PUBLIC	??_R1A@?0A@EA@?$CSingleton@VCPythonGuildRanking@@@@8 ; CSingleton<CPythonGuildRanking>::`RTTI Base Class Descriptor at (0,-1,0,64)'
PUBLIC	??_R3?$_Ref_count_obj2@USRankingData@CPythonGuildRanking@@@std@@8 ; std::_Ref_count_obj2<CPythonGuildRanking::SRankingData>::`RTTI Class Hierarchy Descriptor'
PUBLIC	??_R0?AV?$_Ref_count_obj2@USRankingData@CPythonGuildRanking@@@std@@@8 ; std::_Ref_count_obj2<CPythonGuildRanking::SRankingData> `RTTI Type Descriptor'
PUBLIC	??_R3?$CSingleton@VCPythonGuildRanking@@@@8	; CSingleton<CPythonGuildRanking>::`RTTI Class Hierarchy Descriptor'
PUBLIC	??_R0?AV?$CSingleton@VCPythonGuildRanking@@@@@8	; CSingleton<CPythonGuildRanking> `RTTI Type Descriptor'
PUBLIC	??_R3CPythonGuildRanking@@8			; CPythonGuildRanking::`RTTI Class Hierarchy Descriptor'
PUBLIC	??_R0?AVCPythonGuildRanking@@@8			; CPythonGuildRanking `RTTI Type Descriptor'
PUBLIC	??_R4?$_Ref_count_obj2@USRankingData@CPythonGuildRanking@@@std@@6B@ ; std::_Ref_count_obj2<CPythonGuildRanking::SRankingData>::`RTTI Complete Object Locator'
PUBLIC	??_R4?$CSingleton@VCPythonGuildRanking@@@@6B@	; CSingleton<CPythonGuildRanking>::`RTTI Complete Object Locator'
PUBLIC	??_R4CPythonGuildRanking@@6B@			; CPythonGuildRanking::`RTTI Complete Object Locator'
PUBLIC	??_7?$_Ref_count_obj2@USRankingData@CPythonGuildRanking@@@std@@6B@ ; std::_Ref_count_obj2<CPythonGuildRanking::SRankingData>::`vftable'
PUBLIC	??_7?$CSingleton@VCPythonGuildRanking@@@@6B@	; CSingleton<CPythonGuildRanking>::`vftable'
PUBLIC	?ms_singleton@?$CSingleton@VCPythonGuildRanking@@@@0PAVCPythonGuildRanking@@A ; CSingleton<CPythonGuildRanking>::ms_singleton
PUBLIC	??_7CPythonGuildRanking@@6B@			; CPythonGuildRanking::`vftable'
;	COMDAT ?ms_singleton@?$CSingleton@VCPythonGuildRanking@@@@0PAVCPythonGuildRanking@@A
_BSS	SEGMENT
?ms_singleton@?$CSingleton@VCPythonGuildRanking@@@@0PAVCPythonGuildRanking@@A DD 01H DUP (?) ; CSingleton<CPythonGuildRanking>::ms_singleton
_BSS	ENDS
;	COMDAT ??_7CPythonGuildRanking@@6B@
CONST	SEGMENT
??_7CPythonGuildRanking@@6B@ DD FLAT:??_R4CPythonGuildRanking@@6B@ ; CPythonGuildRanking::`vftable'
	DD	FLAT:??_ECPythonGuildRanking@@UAEPAXI@Z
CONST	ENDS
;	COMDAT ?s_methods@?1??initguildranking@@YAXXZ@4PAUPyMethodDef@@A
_DATA	SEGMENT
?s_methods@?1??initguildranking@@YAXXZ@4PAUPyMethodDef@@A DD FLAT:??_C@_0BC@EJCCEIEM@GetGuildRankCount@ ; `initguildranking'::`2'::s_methods
	DD	FLAT:?GuildRankingGetRankCount@@YAPAU_object@@PAU1@0@Z
	DD	01H
	ORG $+4
	DD	FLAT:??_C@_0BD@DEAGJOML@GetGuildRankByLine@
	DD	FLAT:?GuildRankingGetRankByLine@@YAPAU_object@@PAU1@0@Z
	DD	01H
	ORG $+4
	DD	FLAT:??_C@_0BD@MCEOOOCC@GetGuildRankMyLine@
	DD	FLAT:?GuildRankingGetRankMyLine@@YAPAU_object@@PAU1@0@Z
	DD	01H
	ORG $+4
	DD	FLAT:??_C@_0P@GEOKHHAK@GuildRankClear@
	DD	FLAT:?GuildRankingClear@@YAPAU_object@@PAU1@0@Z
	DD	01H
	ORG $+4
	DD	00H
	DD	00H
	ORG $+8
_DATA	ENDS
;	COMDAT ??_7?$CSingleton@VCPythonGuildRanking@@@@6B@
CONST	SEGMENT
??_7?$CSingleton@VCPythonGuildRanking@@@@6B@ DD FLAT:??_R4?$CSingleton@VCPythonGuildRanking@@@@6B@ ; CSingleton<CPythonGuildRanking>::`vftable'
	DD	FLAT:??_E?$CSingleton@VCPythonGuildRanking@@@@UAEPAXI@Z
CONST	ENDS
;	COMDAT ??_7?$_Ref_count_obj2@USRankingData@CPythonGuildRanking@@@std@@6B@
CONST	SEGMENT
??_7?$_Ref_count_obj2@USRankingData@CPythonGuildRanking@@@std@@6B@ DD FLAT:??_R4?$_Ref_count_obj2@USRankingData@CPythonGuildRanking@@@std@@6B@ ; std::_Ref_count_obj2<CPythonGuildRanking::SRankingData>::`vftable'
	DD	FLAT:?_Destroy@?$_Ref_count_obj2@USRankingData@CPythonGuildRanking@@@std@@EAEXXZ
	DD	FLAT:?_Delete_this@?$_Ref_count_obj2@USRankingData@CPythonGuildRanking@@@std@@EAEXXZ
	DD	FLAT:??_E?$_Ref_count_obj2@USRankingData@CPythonGuildRanking@@@std@@UAEPAXI@Z
	DD	FLAT:?_Get_deleter@_Ref_count_base@std@@UBEPAXABVtype_info@@@Z
CONST	ENDS
;	COMDAT ??_R4CPythonGuildRanking@@6B@
rdata$r	SEGMENT
??_R4CPythonGuildRanking@@6B@ DD 00H			; CPythonGuildRanking::`RTTI Complete Object Locator'
	DD	00H
	DD	00H
	DD	FLAT:??_R0?AVCPythonGuildRanking@@@8
	DD	FLAT:??_R3CPythonGuildRanking@@8
rdata$r	ENDS
;	COMDAT ??_R4?$CSingleton@VCPythonGuildRanking@@@@6B@
rdata$r	SEGMENT
??_R4?$CSingleton@VCPythonGuildRanking@@@@6B@ DD 00H	; CSingleton<CPythonGuildRanking>::`RTTI Complete Object Locator'
	DD	00H
	DD	00H
	DD	FLAT:??_R0?AV?$CSingleton@VCPythonGuildRanking@@@@@8
	DD	FLAT:??_R3?$CSingleton@VCPythonGuildRanking@@@@8
rdata$r	ENDS
;	COMDAT ??_R4?$_Ref_count_obj2@USRankingData@CPythonGuildRanking@@@std@@6B@
rdata$r	SEGMENT
??_R4?$_Ref_count_obj2@USRankingData@CPythonGuildRanking@@@std@@6B@ DD 00H ; std::_Ref_count_obj2<CPythonGuildRanking::SRankingData>::`RTTI Complete Object Locator'
	DD	00H
	DD	00H
	DD	FLAT:??_R0?AV?$_Ref_count_obj2@USRankingData@CPythonGuildRanking@@@std@@@8
	DD	FLAT:??_R3?$_Ref_count_obj2@USRankingData@CPythonGuildRanking@@@std@@8
rdata$r	ENDS
;	COMDAT ??_R0?AVCPythonGuildRanking@@@8
data$rs	SEGMENT
??_R0?AVCPythonGuildRanking@@@8 DD FLAT:??_7type_info@@6B@ ; CPythonGuildRanking `RTTI Type Descriptor'
	DD	00H
	DB	'.?AVCPythonGuildRanking@@', 00H
data$rs	ENDS
;	COMDAT ??_R3CPythonGuildRanking@@8
rdata$r	SEGMENT
??_R3CPythonGuildRanking@@8 DD 00H			; CPythonGuildRanking::`RTTI Class Hierarchy Descriptor'
	DD	00H
	DD	02H
	DD	FLAT:??_R2CPythonGuildRanking@@8
rdata$r	ENDS
;	COMDAT ??_R0?AV?$CSingleton@VCPythonGuildRanking@@@@@8
data$rs	SEGMENT
??_R0?AV?$CSingleton@VCPythonGuildRanking@@@@@8 DD FLAT:??_7type_info@@6B@ ; CSingleton<CPythonGuildRanking> `RTTI Type Descriptor'
	DD	00H
	DB	'.?AV?$CSingleton@VCPythonGuildRanking@@@@', 00H
data$rs	ENDS
;	COMDAT ??_R3?$CSingleton@VCPythonGuildRanking@@@@8
rdata$r	SEGMENT
??_R3?$CSingleton@VCPythonGuildRanking@@@@8 DD 00H	; CSingleton<CPythonGuildRanking>::`RTTI Class Hierarchy Descriptor'
	DD	00H
	DD	01H
	DD	FLAT:??_R2?$CSingleton@VCPythonGuildRanking@@@@8
rdata$r	ENDS
;	COMDAT ??_R0?AV?$_Ref_count_obj2@USRankingData@CPythonGuildRanking@@@std@@@8
data$rs	SEGMENT
??_R0?AV?$_Ref_count_obj2@USRankingData@CPythonGuildRanking@@@std@@@8 DD FLAT:??_7type_info@@6B@ ; std::_Ref_count_obj2<CPythonGuildRanking::SRankingData> `RTTI Type Descriptor'
	DD	00H
	DB	'.?AV?$_Ref_count_obj2@USRankingData@CPythonGuildRanking@'
	DB	'@@std@@', 00H
data$rs	ENDS
;	COMDAT ??_R3?$_Ref_count_obj2@USRankingData@CPythonGuildRanking@@@std@@8
rdata$r	SEGMENT
??_R3?$_Ref_count_obj2@USRankingData@CPythonGuildRanking@@@std@@8 DD 00H ; std::_Ref_count_obj2<CPythonGuildRanking::SRankingData>::`RTTI Class Hierarchy Descriptor'
	DD	00H
	DD	02H
	DD	FLAT:??_R2?$_Ref_count_obj2@USRankingData@CPythonGuildRanking@@@std@@8
rdata$r	ENDS
;	COMDAT ??_R1A@?0A@EA@?$CSingleton@VCPythonGuildRanking@@@@8
rdata$r	SEGMENT
??_R1A@?0A@EA@?$CSingleton@VCPythonGuildRanking@@@@8 DD FLAT:??_R0?AV?$CSingleton@VCPythonGuildRanking@@@@@8 ; CSingleton<CPythonGuildRanking>::`RTTI Base Class Descriptor at (0,-1,0,64)'
	DD	00H
	DD	00H
	DD	0ffffffffH
	DD	00H
	DD	040H
	DD	FLAT:??_R3?$CSingleton@VCPythonGuildRanking@@@@8
rdata$r	ENDS
;	COMDAT ??_R1A@?0A@EA@CPythonGuildRanking@@8
rdata$r	SEGMENT
??_R1A@?0A@EA@CPythonGuildRanking@@8 DD FLAT:??_R0?AVCPythonGuildRanking@@@8 ; CPythonGuildRanking::`RTTI Base Class Descriptor at (0,-1,0,64)'
	DD	01H
	DD	00H
	DD	0ffffffffH
	DD	00H
	DD	040H
	DD	FLAT:??_R3CPythonGuildRanking@@8
rdata$r	ENDS
;	COMDAT ??_R1A@?0A@EA@?$_Ref_count_obj2@USRankingData@CPythonGuildRanking@@@std@@8
rdata$r	SEGMENT
??_R1A@?0A@EA@?$_Ref_count_obj2@USRankingData@CPythonGuildRanking@@@std@@8 DD FLAT:??_R0?AV?$_Ref_count_obj2@USRankingData@CPythonGuildRanking@@@std@@@8 ; std::_Ref_count_obj2<CPythonGuildRanking::SRankingData>::`RTTI Base Class Descriptor at (0,-1,0,64)'
	DD	01H
	DD	00H
	DD	0ffffffffH
	DD	00H
	DD	040H
	DD	FLAT:??_R3?$_Ref_count_obj2@USRankingData@CPythonGuildRanking@@@std@@8
rdata$r	ENDS
;	COMDAT ??_R1A@?0A@EA@_Ref_count_base@std@@8
rdata$r	SEGMENT
??_R1A@?0A@EA@_Ref_count_base@std@@8 DD FLAT:??_R0?AV_Ref_count_base@std@@@8 ; std::_Ref_count_base::`RTTI Base Class Descriptor at (0,-1,0,64)'
	DD	00H
	DD	00H
	DD	0ffffffffH
	DD	00H
	DD	040H
	DD	FLAT:??_R3_Ref_count_base@std@@8
rdata$r	ENDS
;	COMDAT ??_R3_Ref_count_base@std@@8
rdata$r	SEGMENT
??_R3_Ref_count_base@std@@8 DD 00H			; std::_Ref_count_base::`RTTI Class Hierarchy Descriptor'
	DD	00H
	DD	01H
	DD	FLAT:??_R2_Ref_count_base@std@@8
rdata$r	ENDS
;	COMDAT ??_R2_Ref_count_base@std@@8
rdata$r	SEGMENT
??_R2_Ref_count_base@std@@8 DD FLAT:??_R1A@?0A@EA@_Ref_count_base@std@@8 ; std::_Ref_count_base::`RTTI Base Class Array'
rdata$r	ENDS
;	COMDAT ??_R0?AV_Ref_count_base@std@@@8
data$rs	SEGMENT
??_R0?AV_Ref_count_base@std@@@8 DD FLAT:??_7type_info@@6B@ ; std::_Ref_count_base `RTTI Type Descriptor'
	DD	00H
	DB	'.?AV_Ref_count_base@std@@', 00H
data$rs	ENDS
;	COMDAT ??_R2?$CSingleton@VCPythonGuildRanking@@@@8
rdata$r	SEGMENT
??_R2?$CSingleton@VCPythonGuildRanking@@@@8 DD FLAT:??_R1A@?0A@EA@?$CSingleton@VCPythonGuildRanking@@@@8 ; CSingleton<CPythonGuildRanking>::`RTTI Base Class Array'
rdata$r	ENDS
;	COMDAT ??_R2CPythonGuildRanking@@8
rdata$r	SEGMENT
??_R2CPythonGuildRanking@@8 DD FLAT:??_R1A@?0A@EA@CPythonGuildRanking@@8 ; CPythonGuildRanking::`RTTI Base Class Array'
	DD	FLAT:??_R1A@?0A@EA@?$CSingleton@VCPythonGuildRanking@@@@8
rdata$r	ENDS
;	COMDAT ??_R2?$_Ref_count_obj2@USRankingData@CPythonGuildRanking@@@std@@8
rdata$r	SEGMENT
??_R2?$_Ref_count_obj2@USRankingData@CPythonGuildRanking@@@std@@8 DD FLAT:??_R1A@?0A@EA@?$_Ref_count_obj2@USRankingData@CPythonGuildRanking@@@std@@8 ; std::_Ref_count_obj2<CPythonGuildRanking::SRankingData>::`RTTI Base Class Array'
	DD	FLAT:??_R1A@?0A@EA@_Ref_count_base@std@@8
rdata$r	ENDS
;	COMDAT ??_C@_0BG@NJCJHFNH@GUILD_RANK_SHOW_COUNT@
CONST	SEGMENT
??_C@_0BG@NJCJHFNH@GUILD_RANK_SHOW_COUNT@ DB 'GUILD_RANK_SHOW_COUNT', 00H ; `string'
CONST	ENDS
;	COMDAT ??_C@_0BI@ODECEHOG@GUILD_RANK_PAGE_MAX_NUM@
CONST	SEGMENT
??_C@_0BI@ODECEHOG@GUILD_RANK_PAGE_MAX_NUM@ DB 'GUILD_RANK_PAGE_MAX_NUM', 00H ; `string'
CONST	ENDS
;	COMDAT ??_C@_0N@OPFMFFHN@guildranking@
CONST	SEGMENT
??_C@_0N@OPFMFFHN@guildranking@ DB 'guildranking', 00H	; `string'
CONST	ENDS
;	COMDAT ??_C@_0P@GEOKHHAK@GuildRankClear@
CONST	SEGMENT
??_C@_0P@GEOKHHAK@GuildRankClear@ DB 'GuildRankClear', 00H ; `string'
CONST	ENDS
;	COMDAT ??_C@_0BD@MCEOOOCC@GetGuildRankMyLine@
CONST	SEGMENT
??_C@_0BD@MCEOOOCC@GetGuildRankMyLine@ DB 'GetGuildRankMyLine', 00H ; `string'
CONST	ENDS
;	COMDAT ??_C@_0BD@DEAGJOML@GetGuildRankByLine@
CONST	SEGMENT
??_C@_0BD@DEAGJOML@GetGuildRankByLine@ DB 'GetGuildRankByLine', 00H ; `string'
CONST	ENDS
;	COMDAT ??_C@_0BC@EJCCEIEM@GetGuildRankCount@
CONST	SEGMENT
??_C@_0BC@EJCCEIEM@GetGuildRankCount@ DB 'GetGuildRankCount', 00H ; `string'
CONST	ENDS
;	COMDAT ??_C@_08BIKHFDAN@issiiiii@
CONST	SEGMENT
??_C@_08BIKHFDAN@issiiiii@ DB 'issiiiii', 00H		; `string'
CONST	ENDS
;	COMDAT ??_C@_0CA@PHNKPBOI@Failed?5to?5find?5rank?5by?5index?5?$CFd@
CONST	SEGMENT
??_C@_0CA@PHNKPBOI@Failed?5to?5find?5rank?5by?5index?5?$CFd@ DB 'Failed t'
	DB	'o find rank by index %d', 00H		; `string'
PUBLIC	??0_Ref_count_base@std@@IAE@XZ			; std::_Ref_count_base::_Ref_count_base
PUBLIC	??1_Ref_count_base@std@@UAE@XZ			; std::_Ref_count_base::~_Ref_count_base
PUBLIC	?_Decref@_Ref_count_base@std@@QAEXXZ		; std::_Ref_count_base::_Decref
PUBLIC	?_Decwref@_Ref_count_base@std@@QAEXXZ		; std::_Ref_count_base::_Decwref
PUBLIC	?_Get_deleter@_Ref_count_base@std@@UBEPAXABVtype_info@@@Z ; std::_Ref_count_base::_Get_deleter
PUBLIC	??$construct_at@V?$shared_ptr@USRankingData@CPythonGuildRanking@@@std@@V12@@std@@YAPAV?$shared_ptr@USRankingData@CPythonGuildRanking@@@0@QAV10@$$QAV10@@Z ; std::construct_at<std::shared_ptr<CPythonGuildRanking::SRankingData>,std::shared_ptr<CPythonGuildRanking::SRankingData> >
PUBLIC	??$addressof@V?$shared_ptr@USRankingData@CPythonGuildRanking@@@std@@@std@@YAPAV?$shared_ptr@USRankingData@CPythonGuildRanking@@@0@AAV10@@Z ; std::addressof<std::shared_ptr<CPythonGuildRanking::SRankingData> >
PUBLIC	??_G?$shared_ptr@USRankingData@CPythonGuildRanking@@@std@@QAEPAXI@Z ; std::shared_ptr<CPythonGuildRanking::SRankingData>::`scalar deleting destructor'
PUBLIC	?allocate@?$allocator@V?$shared_ptr@USRankingData@CPythonGuildRanking@@@std@@@std@@QAEPAV?$shared_ptr@USRankingData@CPythonGuildRanking@@@2@I@Z ; std::allocator<std::shared_ptr<CPythonGuildRanking::SRankingData> >::allocate
PUBLIC	?_Calculate_growth@?$vector@V?$shared_ptr@USRankingData@CPythonGuildRanking@@@std@@V?$allocator@V?$shared_ptr@USRankingData@CPythonGuildRanking@@@std@@@2@@std@@ABEII@Z ; std::vector<std::shared_ptr<CPythonGuildRanking::SRankingData>,std::allocator<std::shared_ptr<CPythonGuildRanking::SRankingData> > >::_Calculate_growth
PUBLIC	?_Orphan_range@?$vector@V?$shared_ptr@USRankingData@CPythonGuildRanking@@@std@@V?$allocator@V?$shared_ptr@USRankingData@CPythonGuildRanking@@@std@@@2@@std@@ABEXPAV?$shared_ptr@USRankingData@CPythonGuildRanking@@@2@0@Z ; std::vector<std::shared_ptr<CPythonGuildRanking::SRankingData>,std::allocator<std::shared_ptr<CPythonGuildRanking::SRankingData> > >::_Orphan_range
PUBLIC	??1_Reallocation_guard@?$vector@V?$shared_ptr@USRankingData@CPythonGuildRanking@@@std@@V?$allocator@V?$shared_ptr@USRankingData@CPythonGuildRanking@@@std@@@2@@std@@QAE@XZ ; std::vector<std::shared_ptr<CPythonGuildRanking::SRankingData>,std::allocator<std::shared_ptr<CPythonGuildRanking::SRankingData> > >::_Reallocation_guard::~_Reallocation_guard
PUBLIC	?_Get_first@?$_Compressed_pair@V?$allocator@V?$shared_ptr@USRankingData@CPythonGuildRanking@@@std@@@std@@V?$_Vector_val@U?$_Simple_types@V?$shared_ptr@USRankingData@CPythonGuildRanking@@@std@@@std@@@2@$00@std@@QBEABV?$allocator@V?$shared_ptr@USRankingData@CPythonGuildRanking@@@std@@@2@XZ ; std::_Compressed_pair<std::allocator<std::shared_ptr<CPythonGuildRanking::SRankingData> >,std::_Vector_val<std::_Simple_types<std::shared_ptr<CPythonGuildRanking::SRankingData> > >,1>::_Get_first
PUBLIC	??0?$_Uninitialized_backout_al@V?$allocator@V?$shared_ptr@USRankingData@CPythonGuildRanking@@@std@@@std@@@std@@QAE@PAV?$shared_ptr@USRankingData@CPythonGuildRanking@@@1@AAV?$allocator@V?$shared_ptr@USRankingData@CPythonGuildRanking@@@std@@@1@@Z ; std::_Uninitialized_backout_al<std::allocator<std::shared_ptr<CPythonGuildRanking::SRankingData> > >::_Uninitialized_backout_al<std::allocator<std::shared_ptr<CPythonGuildRanking::SRankingData> > >
PUBLIC	??1?$_Uninitialized_backout_al@V?$allocator@V?$shared_ptr@USRankingData@CPythonGuildRanking@@@std@@@std@@@std@@QAE@XZ ; std::_Uninitialized_backout_al<std::allocator<std::shared_ptr<CPythonGuildRanking::SRankingData> > >::~_Uninitialized_backout_al<std::allocator<std::shared_ptr<CPythonGuildRanking::SRankingData> > >
PUBLIC	?_Release@?$_Uninitialized_backout_al@V?$allocator@V?$shared_ptr@USRankingData@CPythonGuildRanking@@@std@@@std@@@std@@QAEPAV?$shared_ptr@USRankingData@CPythonGuildRanking@@@2@XZ ; std::_Uninitialized_backout_al<std::allocator<std::shared_ptr<CPythonGuildRanking::SRankingData> > >::_Release
PUBLIC	??$_Refancy_maybe_null@PAV?$shared_ptr@USRankingData@CPythonGuildRanking@@@std@@$0A@@std@@YAPAV?$shared_ptr@USRankingData@CPythonGuildRanking@@@0@PAV10@@Z ; std::_Refancy_maybe_null<std::shared_ptr<CPythonGuildRanking::SRankingData> *,0>
PUBLIC	??$_Emplace_back@V?$shared_ptr@USRankingData@CPythonGuildRanking@@@std@@@?$_Uninitialized_backout_al@V?$allocator@V?$shared_ptr@USRankingData@CPythonGuildRanking@@@std@@@std@@@std@@QAEX$$QAV?$shared_ptr@USRankingData@CPythonGuildRanking@@@1@@Z ; std::_Uninitialized_backout_al<std::allocator<std::shared_ptr<CPythonGuildRanking::SRankingData> > >::_Emplace_back<std::shared_ptr<CPythonGuildRanking::SRankingData> >
PUBLIC	??$destroy_at@V?$shared_ptr@USRankingData@CPythonGuildRanking@@@std@@@std@@YAXQAV?$shared_ptr@USRankingData@CPythonGuildRanking@@@0@@Z ; std::destroy_at<std::shared_ptr<CPythonGuildRanking::SRankingData> >
PUBLIC	??$construct@V?$shared_ptr@USRankingData@CPythonGuildRanking@@@std@@V12@@?$_Default_allocator_traits@V?$allocator@V?$shared_ptr@USRankingData@CPythonGuildRanking@@@std@@@std@@@std@@SAXAAV?$allocator@V?$shared_ptr@USRankingData@CPythonGuildRanking@@@std@@@1@QAV?$shared_ptr@USRankingData@CPythonGuildRanking@@@1@$$QAV31@@Z ; std::_Default_allocator_traits<std::allocator<std::shared_ptr<CPythonGuildRanking::SRankingData> > >::construct<std::shared_ptr<CPythonGuildRanking::SRankingData>,std::shared_ptr<CPythonGuildRanking::SRankingData> >
PUBLIC	??$_Construct_in_place@V?$shared_ptr@USRankingData@CPythonGuildRanking@@@std@@V12@@std@@YAXAAV?$shared_ptr@USRankingData@CPythonGuildRanking@@@0@$$QAV10@@Z ; std::_Construct_in_place<std::shared_ptr<CPythonGuildRanking::SRankingData>,std::shared_ptr<CPythonGuildRanking::SRankingData> >
PUBLIC	??$construct_at@USRankingData@CPythonGuildRanking@@AAHAAPBDAAPBDAAHAAHAAHAAHAAH@std@@YAPAUSRankingData@CPythonGuildRanking@@QAU12@AAHAAPBD211111@Z ; std::construct_at<CPythonGuildRanking::SRankingData,int &,char const * &,char const * &,int &,int &,int &,int &,int &>
PUBLIC	??_GSRankingData@CPythonGuildRanking@@QAEPAXI@Z	; CPythonGuildRanking::SRankingData::`scalar deleting destructor'
PUBLIC	??0?$allocator@V?$shared_ptr@USRankingData@CPythonGuildRanking@@@std@@@std@@QAE@XZ ; std::allocator<std::shared_ptr<CPythonGuildRanking::SRankingData> >::allocator<std::shared_ptr<CPythonGuildRanking::SRankingData> >
PUBLIC	?deallocate@?$allocator@V?$shared_ptr@USRankingData@CPythonGuildRanking@@@std@@@std@@QAEXQAV?$shared_ptr@USRankingData@CPythonGuildRanking@@@2@I@Z ; std::allocator<std::shared_ptr<CPythonGuildRanking::SRankingData> >::deallocate
PUBLIC	?_Change_array@?$vector@V?$shared_ptr@USRankingData@CPythonGuildRanking@@@std@@V?$allocator@V?$shared_ptr@USRankingData@CPythonGuildRanking@@@std@@@2@@std@@AAEXQAV?$shared_ptr@USRankingData@CPythonGuildRanking@@@2@II@Z ; std::vector<std::shared_ptr<CPythonGuildRanking::SRankingData>,std::allocator<std::shared_ptr<CPythonGuildRanking::SRankingData> > >::_Change_array
PUBLIC	?_Getal@?$vector@V?$shared_ptr@USRankingData@CPythonGuildRanking@@@std@@V?$allocator@V?$shared_ptr@USRankingData@CPythonGuildRanking@@@std@@@2@@std@@ABEABV?$allocator@V?$shared_ptr@USRankingData@CPythonGuildRanking@@@std@@@2@XZ ; std::vector<std::shared_ptr<CPythonGuildRanking::SRankingData>,std::allocator<std::shared_ptr<CPythonGuildRanking::SRankingData> > >::_Getal
PUBLIC	?max_size@?$_Default_allocator_traits@V?$allocator@V?$shared_ptr@USRankingData@CPythonGuildRanking@@@std@@@std@@@std@@SAIABV?$allocator@V?$shared_ptr@USRankingData@CPythonGuildRanking@@@std@@@2@@Z ; std::_Default_allocator_traits<std::allocator<std::shared_ptr<CPythonGuildRanking::SRankingData> > >::max_size
PUBLIC	??0?$_Vector_val@U?$_Simple_types@V?$shared_ptr@USRankingData@CPythonGuildRanking@@@std@@@std@@@std@@QAE@XZ ; std::_Vector_val<std::_Simple_types<std::shared_ptr<CPythonGuildRanking::SRankingData> > >::_Vector_val<std::_Simple_types<std::shared_ptr<CPythonGuildRanking::SRankingData> > >
PUBLIC	??1_Simple_reallocation_guard@?$vector@V?$shared_ptr@USRankingData@CPythonGuildRanking@@@std@@V?$allocator@V?$shared_ptr@USRankingData@CPythonGuildRanking@@@std@@@2@@std@@QAE@XZ ; std::vector<std::shared_ptr<CPythonGuildRanking::SRankingData>,std::allocator<std::shared_ptr<CPythonGuildRanking::SRankingData> > >::_Simple_reallocation_guard::~_Simple_reallocation_guard
PUBLIC	?_Seek_to@?$_Vector_const_iterator@V?$_Vector_val@U?$_Simple_types@V?$shared_ptr@USRankingData@CPythonGuildRanking@@@std@@@std@@@std@@@std@@QAEXPBV?$shared_ptr@USRankingData@CPythonGuildRanking@@@2@@Z ; std::_Vector_const_iterator<std::_Vector_val<std::_Simple_types<std::shared_ptr<CPythonGuildRanking::SRankingData> > > >::_Seek_to
PUBLIC	?_Get_first@?$_Compressed_pair@V?$allocator@V?$shared_ptr@USRankingData@CPythonGuildRanking@@@std@@@std@@V?$_Vector_val@U?$_Simple_types@V?$shared_ptr@USRankingData@CPythonGuildRanking@@@std@@@std@@@2@$00@std@@QAEAAV?$allocator@V?$shared_ptr@USRankingData@CPythonGuildRanking@@@std@@@2@XZ ; std::_Compressed_pair<std::allocator<std::shared_ptr<CPythonGuildRanking::SRankingData> >,std::_Vector_val<std::_Simple_types<std::shared_ptr<CPythonGuildRanking::SRankingData> > >,1>::_Get_first
PUBLIC	??$_Move_construct_from@USRankingData@CPythonGuildRanking@@@?$_Ptr_base@USRankingData@CPythonGuildRanking@@@std@@IAEX$$QAV01@@Z ; std::_Ptr_base<CPythonGuildRanking::SRankingData>::_Move_construct_from<CPythonGuildRanking::SRankingData>
PUBLIC	??$move@AAV?$shared_ptr@USRankingData@CPythonGuildRanking@@@std@@@std@@YA$$QAV?$shared_ptr@USRankingData@CPythonGuildRanking@@@0@AAV10@@Z ; std::move<std::shared_ptr<CPythonGuildRanking::SRankingData> &>
PUBLIC	??1SRankingData@CPythonGuildRanking@@QAE@XZ	; CPythonGuildRanking::SRankingData::~SRankingData
PUBLIC	??$_Destroy_in_place@USRankingData@CPythonGuildRanking@@@std@@YAXAAUSRankingData@CPythonGuildRanking@@@Z ; std::_Destroy_in_place<CPythonGuildRanking::SRankingData>
PUBLIC	??$_Uninitialized_move@PAV?$shared_ptr@USRankingData@CPythonGuildRanking@@@std@@V?$allocator@V?$shared_ptr@USRankingData@CPythonGuildRanking@@@std@@@2@@std@@YAPAV?$shared_ptr@USRankingData@CPythonGuildRanking@@@0@QAV10@0PAV10@AAV?$allocator@V?$shared_ptr@USRankingData@CPythonGuildRanking@@@std@@@0@@Z ; std::_Uninitialized_move<std::shared_ptr<CPythonGuildRanking::SRankingData> *,std::allocator<std::shared_ptr<CPythonGuildRanking::SRankingData> > >
PUBLIC	??$_Get_unwrapped@ABQAV?$shared_ptr@USRankingData@CPythonGuildRanking@@@std@@@std@@YA?A_TABQAV?$shared_ptr@USRankingData@CPythonGuildRanking@@@0@@Z ; std::_Get_unwrapped<std::shared_ptr<CPythonGuildRanking::SRankingData> * const &>
PUBLIC	??$_Allocate_at_least_helper@V?$allocator@V?$shared_ptr@USRankingData@CPythonGuildRanking@@@std@@@std@@@std@@YAPAV?$shared_ptr@USRankingData@CPythonGuildRanking@@@0@AAV?$allocator@V?$shared_ptr@USRankingData@CPythonGuildRanking@@@std@@@0@AAI@Z ; std::_Allocate_at_least_helper<std::allocator<std::shared_ptr<CPythonGuildRanking::SRankingData> > >
PUBLIC	??$destroy@V?$shared_ptr@USRankingData@CPythonGuildRanking@@@std@@@?$_Default_allocator_traits@V?$allocator@V?$shared_ptr@USRankingData@CPythonGuildRanking@@@std@@@std@@@std@@SAXAAV?$allocator@V?$shared_ptr@USRankingData@CPythonGuildRanking@@@std@@@1@QAV?$shared_ptr@USRankingData@CPythonGuildRanking@@@1@@Z ; std::_Default_allocator_traits<std::allocator<std::shared_ptr<CPythonGuildRanking::SRankingData> > >::destroy<std::shared_ptr<CPythonGuildRanking::SRankingData> >
PUBLIC	??$_Unfancy@V?$shared_ptr@USRankingData@CPythonGuildRanking@@@std@@@std@@YAPAV?$shared_ptr@USRankingData@CPythonGuildRanking@@@0@PAV10@@Z ; std::_Unfancy<std::shared_ptr<CPythonGuildRanking::SRankingData> >
PUBLIC	??$forward@AAPBV?$shared_ptr@USRankingData@CPythonGuildRanking@@@std@@@std@@YAAAPBV?$shared_ptr@USRankingData@CPythonGuildRanking@@@0@AAPBV10@@Z ; std::forward<std::shared_ptr<CPythonGuildRanking::SRankingData> const * &>
PUBLIC	??$_Emplace_reallocate@V?$shared_ptr@USRankingData@CPythonGuildRanking@@@std@@@?$vector@V?$shared_ptr@USRankingData@CPythonGuildRanking@@@std@@V?$allocator@V?$shared_ptr@USRankingData@CPythonGuildRanking@@@std@@@2@@std@@AAEPAV?$shared_ptr@USRankingData@CPythonGuildRanking@@@1@QAV21@$$QAV21@@Z ; std::vector<std::shared_ptr<CPythonGuildRanking::SRankingData>,std::allocator<std::shared_ptr<CPythonGuildRanking::SRankingData> > >::_Emplace_reallocate<std::shared_ptr<CPythonGuildRanking::SRankingData> >
PUBLIC	??$_Emplace_back_with_unused_capacity@V?$shared_ptr@USRankingData@CPythonGuildRanking@@@std@@@?$vector@V?$shared_ptr@USRankingData@CPythonGuildRanking@@@std@@V?$allocator@V?$shared_ptr@USRankingData@CPythonGuildRanking@@@std@@@2@@std@@AAEAAV?$shared_ptr@USRankingData@CPythonGuildRanking@@@1@$$QAV21@@Z ; std::vector<std::shared_ptr<CPythonGuildRanking::SRankingData>,std::allocator<std::shared_ptr<CPythonGuildRanking::SRankingData> > >::_Emplace_back_with_unused_capacity<std::shared_ptr<CPythonGuildRanking::SRankingData> >
PUBLIC	??$_Construct_in_place@USRankingData@CPythonGuildRanking@@AAHAAPBDAAPBDAAHAAHAAHAAHAAH@std@@YAXAAUSRankingData@CPythonGuildRanking@@AAHAAPBD211111@Z ; std::_Construct_in_place<CPythonGuildRanking::SRankingData,int &,char const * &,char const * &,int &,int &,int &,int &,int &>
PUBLIC	??_G?$_Ref_count_obj2@USRankingData@CPythonGuildRanking@@@std@@UAEPAXI@Z ; std::_Ref_count_obj2<CPythonGuildRanking::SRankingData>::`scalar deleting destructor'
PUBLIC	??0?$shared_ptr@USRankingData@CPythonGuildRanking@@@std@@QAE@$$QAV01@@Z ; std::shared_ptr<CPythonGuildRanking::SRankingData>::shared_ptr<CPythonGuildRanking::SRankingData>
PUBLIC	?max_size@?$vector@V?$shared_ptr@USRankingData@CPythonGuildRanking@@@std@@V?$allocator@V?$shared_ptr@USRankingData@CPythonGuildRanking@@@std@@@2@@std@@QBEIXZ ; std::vector<std::shared_ptr<CPythonGuildRanking::SRankingData>,std::allocator<std::shared_ptr<CPythonGuildRanking::SRankingData> > >::max_size
PUBLIC	?capacity@?$vector@V?$shared_ptr@USRankingData@CPythonGuildRanking@@@std@@V?$allocator@V?$shared_ptr@USRankingData@CPythonGuildRanking@@@std@@@2@@std@@QBEIXZ ; std::vector<std::shared_ptr<CPythonGuildRanking::SRankingData>,std::allocator<std::shared_ptr<CPythonGuildRanking::SRankingData> > >::capacity
PUBLIC	?_Tidy@?$vector@V?$shared_ptr@USRankingData@CPythonGuildRanking@@@std@@V?$allocator@V?$shared_ptr@USRankingData@CPythonGuildRanking@@@std@@@2@@std@@AAEXXZ ; std::vector<std::shared_ptr<CPythonGuildRanking::SRankingData>,std::allocator<std::shared_ptr<CPythonGuildRanking::SRankingData> > >::_Tidy
PUBLIC	?_Xlength@?$vector@V?$shared_ptr@USRankingData@CPythonGuildRanking@@@std@@V?$allocator@V?$shared_ptr@USRankingData@CPythonGuildRanking@@@std@@@2@@std@@CAXXZ ; std::vector<std::shared_ptr<CPythonGuildRanking::SRankingData>,std::allocator<std::shared_ptr<CPythonGuildRanking::SRankingData> > >::_Xlength
PUBLIC	?_Xrange@?$vector@V?$shared_ptr@USRankingData@CPythonGuildRanking@@@std@@V?$allocator@V?$shared_ptr@USRankingData@CPythonGuildRanking@@@std@@@2@@std@@CAXXZ ; std::vector<std::shared_ptr<CPythonGuildRanking::SRankingData>,std::allocator<std::shared_ptr<CPythonGuildRanking::SRankingData> > >::_Xrange
PUBLIC	?_Getal@?$vector@V?$shared_ptr@USRankingData@CPythonGuildRanking@@@std@@V?$allocator@V?$shared_ptr@USRankingData@CPythonGuildRanking@@@std@@@2@@std@@AAEAAV?$allocator@V?$shared_ptr@USRankingData@CPythonGuildRanking@@@std@@@2@XZ ; std::vector<std::shared_ptr<CPythonGuildRanking::SRankingData>,std::allocator<std::shared_ptr<CPythonGuildRanking::SRankingData> > >::_Getal
PUBLIC	??0?$_Vector_const_iterator@V?$_Vector_val@U?$_Simple_types@V?$shared_ptr@USRankingData@CPythonGuildRanking@@@std@@@std@@@std@@@std@@QAE@PAV?$shared_ptr@USRankingData@CPythonGuildRanking@@@1@PBU_Container_base0@1@@Z ; std::_Vector_const_iterator<std::_Vector_val<std::_Simple_types<std::shared_ptr<CPythonGuildRanking::SRankingData> > > >::_Vector_const_iterator<std::_Vector_val<std::_Simple_types<std::shared_ptr<CPythonGuildRanking::SRankingData> > > >
PUBLIC	??G?$_Vector_const_iterator@V?$_Vector_val@U?$_Simple_types@V?$shared_ptr@USRankingData@CPythonGuildRanking@@@std@@@std@@@std@@@std@@QBEHABV01@@Z ; std::_Vector_const_iterator<std::_Vector_val<std::_Simple_types<std::shared_ptr<CPythonGuildRanking::SRankingData> > > >::operator-
PUBLIC	?_Compat@?$_Vector_const_iterator@V?$_Vector_val@U?$_Simple_types@V?$shared_ptr@USRankingData@CPythonGuildRanking@@@std@@@std@@@std@@@std@@QBEXABV12@@Z ; std::_Vector_const_iterator<std::_Vector_val<std::_Simple_types<std::shared_ptr<CPythonGuildRanking::SRankingData> > > >::_Compat
PUBLIC	?_Decref@?$_Ptr_base@USRankingData@CPythonGuildRanking@@@std@@IAEXXZ ; std::_Ptr_base<CPythonGuildRanking::SRankingData>::_Decref
PUBLIC	??1?$_Ref_count_obj2@USRankingData@CPythonGuildRanking@@@std@@UAE@XZ ; std::_Ref_count_obj2<CPythonGuildRanking::SRankingData>::~_Ref_count_obj2<CPythonGuildRanking::SRankingData>
PUBLIC	?_Destroy@?$_Ref_count_obj2@USRankingData@CPythonGuildRanking@@@std@@EAEXXZ ; std::_Ref_count_obj2<CPythonGuildRanking::SRankingData>::_Destroy
PUBLIC	?_Delete_this@?$_Ref_count_obj2@USRankingData@CPythonGuildRanking@@@std@@EAEXXZ ; std::_Ref_count_obj2<CPythonGuildRanking::SRankingData>::_Delete_this
PUBLIC	??$?0$$V@?$_Compressed_pair@V?$allocator@V?$shared_ptr@USRankingData@CPythonGuildRanking@@@std@@@std@@V?$_Vector_val@U?$_Simple_types@V?$shared_ptr@USRankingData@CPythonGuildRanking@@@std@@@std@@@2@$00@std@@QAE@U_Zero_then_variadic_args_t@1@@Z ; std::_Compressed_pair<std::allocator<std::shared_ptr<CPythonGuildRanking::SRankingData> >,std::_Vector_val<std::_Simple_types<std::shared_ptr<CPythonGuildRanking::SRankingData> > >,1>::_Compressed_pair<std::allocator<std::shared_ptr<CPythonGuildRanking::SRankingData> >,std::_Vector_val<std::_Simple_types<std::shared_ptr<CPythonGuildRanking::SRankingData> > >,1><>
PUBLIC	??$_Reallocate@$0A@@?$vector@V?$shared_ptr@USRankingData@CPythonGuildRanking@@@std@@V?$allocator@V?$shared_ptr@USRankingData@CPythonGuildRanking@@@std@@@2@@std@@AAEXAAI@Z ; std::vector<std::shared_ptr<CPythonGuildRanking::SRankingData>,std::allocator<std::shared_ptr<CPythonGuildRanking::SRankingData> > >::_Reallocate<0>
PUBLIC	??$_Destroy_range@V?$allocator@V?$shared_ptr@USRankingData@CPythonGuildRanking@@@std@@@std@@@std@@YAXPAV?$shared_ptr@USRankingData@CPythonGuildRanking@@@0@QAV10@AAV?$allocator@V?$shared_ptr@USRankingData@CPythonGuildRanking@@@std@@@0@@Z ; std::_Destroy_range<std::allocator<std::shared_ptr<CPythonGuildRanking::SRankingData> > >
PUBLIC	??$addressof@$$CBV?$_Vector_val@U?$_Simple_types@V?$shared_ptr@USRankingData@CPythonGuildRanking@@@std@@@std@@@std@@@std@@YAPBV?$_Vector_val@U?$_Simple_types@V?$shared_ptr@USRankingData@CPythonGuildRanking@@@std@@@std@@@0@ABV10@@Z ; std::addressof<std::_Vector_val<std::_Simple_types<std::shared_ptr<CPythonGuildRanking::SRankingData> > > const >
PUBLIC	??$_Seek_wrapped@V?$_Vector_const_iterator@V?$_Vector_val@U?$_Simple_types@V?$shared_ptr@USRankingData@CPythonGuildRanking@@@std@@@std@@@std@@@std@@AAPBV?$shared_ptr@USRankingData@CPythonGuildRanking@@@2@@std@@YAXAAV?$_Vector_const_iterator@V?$_Vector_val@U?$_Simple_types@V?$shared_ptr@USRankingData@CPythonGuildRanking@@@std@@@std@@@std@@@0@AAPBV?$shared_ptr@USRankingData@CPythonGuildRanking@@@0@@Z ; std::_Seek_wrapped<std::_Vector_const_iterator<std::_Vector_val<std::_Simple_types<std::shared_ptr<CPythonGuildRanking::SRankingData> > > >,std::shared_ptr<CPythonGuildRanking::SRankingData> const * &>
PUBLIC	??$_Unfancy_maybe_null@V?$shared_ptr@USRankingData@CPythonGuildRanking@@@std@@@std@@YAPAV?$shared_ptr@USRankingData@CPythonGuildRanking@@@0@PAV10@@Z ; std::_Unfancy_maybe_null<std::shared_ptr<CPythonGuildRanking::SRankingData> >
PUBLIC	??$_Adl_verify_range@V?$_Vector_const_iterator@V?$_Vector_val@U?$_Simple_types@V?$shared_ptr@USRankingData@CPythonGuildRanking@@@std@@@std@@@std@@@std@@V12@@std@@YAXABV?$_Vector_const_iterator@V?$_Vector_val@U?$_Simple_types@V?$shared_ptr@USRankingData@CPythonGuildRanking@@@std@@@std@@@std@@@0@0@Z ; std::_Adl_verify_range<std::_Vector_const_iterator<std::_Vector_val<std::_Simple_types<std::shared_ptr<CPythonGuildRanking::SRankingData> > > >,std::_Vector_const_iterator<std::_Vector_val<std::_Simple_types<std::shared_ptr<CPythonGuildRanking::SRankingData> > > > >
PUBLIC	??$_Emplace_one_at_back@V?$shared_ptr@USRankingData@CPythonGuildRanking@@@std@@@?$vector@V?$shared_ptr@USRankingData@CPythonGuildRanking@@@std@@V?$allocator@V?$shared_ptr@USRankingData@CPythonGuildRanking@@@std@@@2@@std@@AAEAAV?$shared_ptr@USRankingData@CPythonGuildRanking@@@1@$$QAV21@@Z ; std::vector<std::shared_ptr<CPythonGuildRanking::SRankingData>,std::allocator<std::shared_ptr<CPythonGuildRanking::SRankingData> > >::_Emplace_one_at_back<std::shared_ptr<CPythonGuildRanking::SRankingData> >
PUBLIC	??$forward@V?$shared_ptr@USRankingData@CPythonGuildRanking@@@std@@@std@@YA$$QAV?$shared_ptr@USRankingData@CPythonGuildRanking@@@0@AAV10@@Z ; std::forward<std::shared_ptr<CPythonGuildRanking::SRankingData> >
PUBLIC	??$_Set_ptr_rep_and_enable_shared@USRankingData@CPythonGuildRanking@@@?$shared_ptr@USRankingData@CPythonGuildRanking@@@std@@AAEXQAUSRankingData@CPythonGuildRanking@@QAV_Ref_count_base@1@@Z ; std::shared_ptr<CPythonGuildRanking::SRankingData>::_Set_ptr_rep_and_enable_shared<CPythonGuildRanking::SRankingData>
PUBLIC	??$addressof@USRankingData@CPythonGuildRanking@@@std@@YAPAUSRankingData@CPythonGuildRanking@@AAU12@@Z ; std::addressof<CPythonGuildRanking::SRankingData>
PUBLIC	??$?0AAHAAPBDAAPBDAAHAAHAAHAAHAAH@?$_Ref_count_obj2@USRankingData@CPythonGuildRanking@@@std@@QAE@AAHAAPBD100000@Z ; std::_Ref_count_obj2<CPythonGuildRanking::SRankingData>::_Ref_count_obj2<CPythonGuildRanking::SRankingData><int &,char const * &,char const * &,int &,int &,int &,int &,int &>
PUBLIC	??_G?$CSingleton@VCPythonGuildRanking@@@@UAEPAXI@Z ; CSingleton<CPythonGuildRanking>::`scalar deleting destructor'
PUBLIC	??0?$_Ptr_base@USRankingData@CPythonGuildRanking@@@std@@IAE@XZ ; std::_Ptr_base<CPythonGuildRanking::SRankingData>::_Ptr_base<CPythonGuildRanking::SRankingData>
PUBLIC	??0?$shared_ptr@USRankingData@CPythonGuildRanking@@@std@@QAE@XZ ; std::shared_ptr<CPythonGuildRanking::SRankingData>::shared_ptr<CPythonGuildRanking::SRankingData>
PUBLIC	??0?$CSingleton@VCPythonGuildRanking@@@@QAE@XZ	; CSingleton<CPythonGuildRanking>::CSingleton<CPythonGuildRanking>
PUBLIC	??1?$CSingleton@VCPythonGuildRanking@@@@UAE@XZ	; CSingleton<CPythonGuildRanking>::~CSingleton<CPythonGuildRanking>
PUBLIC	?Instance@?$CSingleton@VCPythonGuildRanking@@@@SAAAVCPythonGuildRanking@@XZ ; CSingleton<CPythonGuildRanking>::Instance
PUBLIC	??1?$shared_ptr@USRankingData@CPythonGuildRanking@@@std@@QAE@XZ ; std::shared_ptr<CPythonGuildRanking::SRankingData>::~shared_ptr<CPythonGuildRanking::SRankingData>
PUBLIC	??0?$vector@V?$shared_ptr@USRankingData@CPythonGuildRanking@@@std@@V?$allocator@V?$shared_ptr@USRankingData@CPythonGuildRanking@@@std@@@2@@std@@QAE@XZ ; std::vector<std::shared_ptr<CPythonGuildRanking::SRankingData>,std::allocator<std::shared_ptr<CPythonGuildRanking::SRankingData> > >::vector<std::shared_ptr<CPythonGuildRanking::SRankingData>,std::allocator<std::shared_ptr<CPythonGuildRanking::SRankingData> > >
PUBLIC	??1?$vector@V?$shared_ptr@USRankingData@CPythonGuildRanking@@@std@@V?$allocator@V?$shared_ptr@USRankingData@CPythonGuildRanking@@@std@@@2@@std@@QAE@XZ ; std::vector<std::shared_ptr<CPythonGuildRanking::SRankingData>,std::allocator<std::shared_ptr<CPythonGuildRanking::SRankingData> > >::~vector<std::shared_ptr<CPythonGuildRanking::SRankingData>,std::allocator<std::shared_ptr<CPythonGuildRanking::SRankingData> > >
PUBLIC	?reserve@?$vector@V?$shared_ptr@USRankingData@CPythonGuildRanking@@@std@@V?$allocator@V?$shared_ptr@USRankingData@CPythonGuildRanking@@@std@@@2@@std@@QAEXI@Z ; std::vector<std::shared_ptr<CPythonGuildRanking::SRankingData>,std::allocator<std::shared_ptr<CPythonGuildRanking::SRankingData> > >::reserve
PUBLIC	?clear@?$vector@V?$shared_ptr@USRankingData@CPythonGuildRanking@@@std@@V?$allocator@V?$shared_ptr@USRankingData@CPythonGuildRanking@@@std@@@2@@std@@QAEXXZ ; std::vector<std::shared_ptr<CPythonGuildRanking::SRankingData>,std::allocator<std::shared_ptr<CPythonGuildRanking::SRankingData> > >::clear
PUBLIC	?begin@?$vector@V?$shared_ptr@USRankingData@CPythonGuildRanking@@@std@@V?$allocator@V?$shared_ptr@USRankingData@CPythonGuildRanking@@@std@@@2@@std@@QBE?AV?$_Vector_const_iterator@V?$_Vector_val@U?$_Simple_types@V?$shared_ptr@USRankingData@CPythonGuildRanking@@@std@@@std@@@std@@@2@XZ ; std::vector<std::shared_ptr<CPythonGuildRanking::SRankingData>,std::allocator<std::shared_ptr<CPythonGuildRanking::SRankingData> > >::begin
PUBLIC	?end@?$vector@V?$shared_ptr@USRankingData@CPythonGuildRanking@@@std@@V?$allocator@V?$shared_ptr@USRankingData@CPythonGuildRanking@@@std@@@2@@std@@QBE?AV?$_Vector_const_iterator@V?$_Vector_val@U?$_Simple_types@V?$shared_ptr@USRankingData@CPythonGuildRanking@@@std@@@std@@@std@@@2@XZ ; std::vector<std::shared_ptr<CPythonGuildRanking::SRankingData>,std::allocator<std::shared_ptr<CPythonGuildRanking::SRankingData> > >::end
PUBLIC	?size@?$vector@V?$shared_ptr@USRankingData@CPythonGuildRanking@@@std@@V?$allocator@V?$shared_ptr@USRankingData@CPythonGuildRanking@@@std@@@2@@std@@QBEIXZ ; std::vector<std::shared_ptr<CPythonGuildRanking::SRankingData>,std::allocator<std::shared_ptr<CPythonGuildRanking::SRankingData> > >::size
PUBLIC	?at@?$vector@V?$shared_ptr@USRankingData@CPythonGuildRanking@@@std@@V?$allocator@V?$shared_ptr@USRankingData@CPythonGuildRanking@@@std@@@2@@std@@QBEABV?$shared_ptr@USRankingData@CPythonGuildRanking@@@2@I@Z ; std::vector<std::shared_ptr<CPythonGuildRanking::SRankingData>,std::allocator<std::shared_ptr<CPythonGuildRanking::SRankingData> > >::at
PUBLIC	??8?$_Vector_const_iterator@V?$_Vector_val@U?$_Simple_types@V?$shared_ptr@USRankingData@CPythonGuildRanking@@@std@@@std@@@std@@@std@@QBE_NABV01@@Z ; std::_Vector_const_iterator<std::_Vector_val<std::_Simple_types<std::shared_ptr<CPythonGuildRanking::SRankingData> > > >::operator==
PUBLIC	?get@?$_Ptr_base@USRankingData@CPythonGuildRanking@@@std@@IBEPAUSRankingData@CPythonGuildRanking@@XZ ; std::_Ptr_base<CPythonGuildRanking::SRankingData>::get
PUBLIC	??$distance@V?$_Vector_const_iterator@V?$_Vector_val@U?$_Simple_types@V?$shared_ptr@USRankingData@CPythonGuildRanking@@@std@@@std@@@std@@@std@@@std@@YAHV?$_Vector_const_iterator@V?$_Vector_val@U?$_Simple_types@V?$shared_ptr@USRankingData@CPythonGuildRanking@@@std@@@std@@@std@@@0@0@Z ; std::distance<std::_Vector_const_iterator<std::_Vector_val<std::_Simple_types<std::shared_ptr<CPythonGuildRanking::SRankingData> > > > >
PUBLIC	?_Unwrapped@?$_Vector_const_iterator@V?$_Vector_val@U?$_Simple_types@V?$shared_ptr@USRankingData@CPythonGuildRanking@@@std@@@std@@@std@@@std@@QBEPBV?$shared_ptr@USRankingData@CPythonGuildRanking@@@2@XZ ; std::_Vector_const_iterator<std::_Vector_val<std::_Simple_types<std::shared_ptr<CPythonGuildRanking::SRankingData> > > >::_Unwrapped
PUBLIC	??$_Get_unwrapped@ABV?$_Vector_const_iterator@V?$_Vector_val@U?$_Simple_types@V?$shared_ptr@USRankingData@CPythonGuildRanking@@@std@@@std@@@std@@@std@@@std@@YA?A_TABV?$_Vector_const_iterator@V?$_Vector_val@U?$_Simple_types@V?$shared_ptr@USRankingData@CPythonGuildRanking@@@std@@@std@@@std@@@0@@Z ; std::_Get_unwrapped<std::_Vector_const_iterator<std::_Vector_val<std::_Simple_types<std::shared_ptr<CPythonGuildRanking::SRankingData> > > > const &>
PUBLIC	??$_Get_unwrapped@AAV?$_Vector_const_iterator@V?$_Vector_val@U?$_Simple_types@V?$shared_ptr@USRankingData@CPythonGuildRanking@@@std@@@std@@@std@@@std@@@std@@YA?A_TAAV?$_Vector_const_iterator@V?$_Vector_val@U?$_Simple_types@V?$shared_ptr@USRankingData@CPythonGuildRanking@@@std@@@std@@@std@@@0@@Z ; std::_Get_unwrapped<std::_Vector_const_iterator<std::_Vector_val<std::_Simple_types<std::shared_ptr<CPythonGuildRanking::SRankingData> > > > &>
PUBLIC	??$?CUSRankingData@CPythonGuildRanking@@$0A@@?$shared_ptr@USRankingData@CPythonGuildRanking@@@std@@QBEPAUSRankingData@CPythonGuildRanking@@XZ ; std::shared_ptr<CPythonGuildRanking::SRankingData>::operator-><CPythonGuildRanking::SRankingData,0>
PUBLIC	??$emplace_back@V?$shared_ptr@USRankingData@CPythonGuildRanking@@@std@@@?$vector@V?$shared_ptr@USRankingData@CPythonGuildRanking@@@std@@V?$allocator@V?$shared_ptr@USRankingData@CPythonGuildRanking@@@std@@@2@@std@@QAEAAV?$shared_ptr@USRankingData@CPythonGuildRanking@@@1@$$QAV21@@Z ; std::vector<std::shared_ptr<CPythonGuildRanking::SRankingData>,std::allocator<std::shared_ptr<CPythonGuildRanking::SRankingData> > >::emplace_back<std::shared_ptr<CPythonGuildRanking::SRankingData> >
PUBLIC	??$make_shared@USRankingData@CPythonGuildRanking@@AAHAAPBDAAPBDAAHAAHAAHAAHAAH@std@@YA?AV?$shared_ptr@USRankingData@CPythonGuildRanking@@@0@AAHAAPBD100000@Z ; std::make_shared<CPythonGuildRanking::SRankingData,int &,char const * &,char const * &,int &,int &,int &,int &,int &>
PUBLIC	?initguildranking@@YAXXZ			; initguildranking
PUBLIC	?GuildRankingClear@@YAPAU_object@@PAU1@0@Z	; GuildRankingClear
PUBLIC	?GuildRankingGetRankMyLine@@YAPAU_object@@PAU1@0@Z ; GuildRankingGetRankMyLine
PUBLIC	?GuildRankingGetRankByLine@@YAPAU_object@@PAU1@0@Z ; GuildRankingGetRankByLine
PUBLIC	?GuildRankingGetRankCount@@YAPAU_object@@PAU1@0@Z ; GuildRankingGetRankCount
PUBLIC	??_GCPythonGuildRanking@@UAEPAXI@Z		; CPythonGuildRanking::`scalar deleting destructor'
PUBLIC	?GetRankMyLine@CPythonGuildRanking@@QBEGXZ	; CPythonGuildRanking::GetRankMyLine
PUBLIC	?GetRankByLine@CPythonGuildRanking@@QBEPAUSRankingData@1@G@Z ; CPythonGuildRanking::GetRankByLine
PUBLIC	?GetRankCount@CPythonGuildRanking@@QBEIXZ	; CPythonGuildRanking::GetRankCount
PUBLIC	?ClearRankData@CPythonGuildRanking@@QAEXXZ	; CPythonGuildRanking::ClearRankData
PUBLIC	?RegisterRankingData@CPythonGuildRanking@@QAEXHPBD0HHHHH@Z ; CPythonGuildRanking::RegisterRankingData
PUBLIC	??0SRankingData@CPythonGuildRanking@@QAE@HPBD0HHHHH@Z ; CPythonGuildRanking::SRankingData::SRankingData
PUBLIC	??0CPythonGuildRanking@@QAE@XZ			; CPythonGuildRanking::CPythonGuildRanking
PUBLIC	??1CPythonGuildRanking@@UAE@XZ			; CPythonGuildRanking::~CPythonGuildRanking
EXTRN	??_ECPythonGuildRanking@@UAEPAXI@Z:PROC		; CPythonGuildRanking::`vector deleting destructor'
EXTRN	??_E?$CSingleton@VCPythonGuildRanking@@@@UAEPAXI@Z:PROC ; CSingleton<CPythonGuildRanking>::`vector deleting destructor'
EXTRN	??_E?$_Ref_count_obj2@USRankingData@CPythonGuildRanking@@@std@@UAEPAXI@Z:PROC ; std::_Ref_count_obj2<CPythonGuildRanking::SRankingData>::`vector deleting destructor'
;	COMDAT xdata$x
xdata$x	SEGMENT
__ehfuncinfo$??0CPythonGuildRanking@@QAE@XZ DQ 00000000219930522r ; 4.45598e-314
	DD	FLAT:__unwindtable$??0CPythonGuildRanking@@QAE@XZ
	DQ	00000000000000000r		; 0
	DQ	00000000000000000r		; 0
	DQ	00000000100000000r		; 2.122e-314
__unwindtable$??0CPythonGuildRanking@@QAE@XZ DD 0ffffffffH
	DD	FLAT:__unwindfunclet$??0CPythonGuildRanking@@QAE@XZ$0
	DD	00H
	DD	FLAT:__unwindfunclet$??0CPythonGuildRanking@@QAE@XZ$1
xdata$x	ENDS
;	COMDAT xdata$x
xdata$x	SEGMENT
__ehfuncinfo$??0SRankingData@CPythonGuildRanking@@QAE@HPBD0HHHHH@Z DQ 00000000119930522r ; 2.33398e-314
	DD	FLAT:__unwindtable$??0SRankingData@CPythonGuildRanking@@QAE@HPBD0HHHHH@Z
	DQ	00000000000000000r		; 0
	DQ	00000000000000000r		; 0
	DQ	00000000100000000r		; 2.122e-314
__unwindtable$??0SRankingData@CPythonGuildRanking@@QAE@HPBD0HHHHH@Z DD 0ffffffffH
	DD	FLAT:__unwindfunclet$??0SRankingData@CPythonGuildRanking@@QAE@HPBD0HHHHH@Z$0
xdata$x	ENDS
;	COMDAT xdata$x
xdata$x	SEGMENT
__ehfuncinfo$?RegisterRankingData@CPythonGuildRanking@@QAEXHPBD0HHHHH@Z DQ 00000000219930522r ; 4.45598e-314
	DD	FLAT:__unwindtable$?RegisterRankingData@CPythonGuildRanking@@QAEXHPBD0HHHHH@Z
	DQ	00000000000000000r		; 0
	DQ	00000000000000000r		; 0
	DQ	00000000100000000r		; 2.122e-314
__unwindtable$?RegisterRankingData@CPythonGuildRanking@@QAEXHPBD0HHHHH@Z DD 0ffffffffH
	DD	FLAT:__unwindfunclet$?RegisterRankingData@CPythonGuildRanking@@QAEXHPBD0HHHHH@Z$1
	DD	0ffffffffH
	DD	FLAT:__unwindfunclet$?RegisterRankingData@CPythonGuildRanking@@QAEXHPBD0HHHHH@Z$0
xdata$x	ENDS
;	COMDAT xdata$x
xdata$x	SEGMENT
__ehfuncinfo$??$make_shared@USRankingData@CPythonGuildRanking@@AAHAAPBDAAPBDAAHAAHAAHAAHAAH@std@@YA?AV?$shared_ptr@USRankingData@CPythonGuildRanking@@@0@AAHAAPBD100000@Z DQ 00000000119930522r ; 2.33398e-314
	DD	FLAT:__unwindtable$??$make_shared@USRankingData@CPythonGuildRanking@@AAHAAPBDAAPBDAAHAAHAAHAAHAAH@std@@YA?AV?$shared_ptr@USRankingData@CPythonGuildRanking@@@0@AAHAAPBD100000@Z
	DQ	00000000000000000r		; 0
	DQ	00000000000000000r		; 0
	DQ	00000000100000000r		; 2.122e-314
__unwindtable$??$make_shared@USRankingData@CPythonGuildRanking@@AAHAAPBDAAPBDAAHAAHAAHAAHAAH@std@@YA?AV?$shared_ptr@USRankingData@CPythonGuildRanking@@@0@AAHAAPBD100000@Z DD 0ffffffffH
	DD	FLAT:__unwindfunclet$??$make_shared@USRankingData@CPythonGuildRanking@@AAHAAPBDAAPBDAAHAAHAAHAAHAAH@std@@YA?AV?$shared_ptr@USRankingData@CPythonGuildRanking@@@0@AAHAAPBD100000@Z$0
; Function compile flags: /Ogtp
; File C:\Anka2Project\Anka2Project\Source\Binary\source\UserInterface\PythonGuildRanking.cpp
; File C:\Anka2Project\Anka2Project\Source\Binary\source\UserInterface\AbstractSingleton.h
; File C:\Anka2Project\Anka2Project\Source\Binary\source\UserInterface\PythonGuildRanking.cpp
; File C:\Anka2Project\Anka2Project\Source\Binary\source\UserInterface\AbstractSingleton.h
; File C:\Anka2Project\Anka2Project\Source\Binary\source\UserInterface\PythonGuildRanking.cpp
;	COMDAT ??R<lambda_1>@?1??GetRankMyLine@CPythonGuildRanking@@QBEGXZ@QBE@ABV?$shared_ptr@USRankingData@CPythonGuildRanking@@@std@@@Z
_TEXT	SEGMENT
_r$ = 8							; size = 4
??R<lambda_1>@?1??GetRankMyLine@CPythonGuildRanking@@QBEGXZ@QBE@ABV?$shared_ptr@USRankingData@CPythonGuildRanking@@@std@@@Z PROC ; `CPythonGuildRanking::GetRankMyLine'::`2'::<lambda_1>::operator(), COMDAT
; _this$dead$ = ecx

; 34   : 	{

  00000	55		 push	 ebp
  00001	8b ec		 mov	 ebp, esp

; 35   : 		return (!r->id != IAbstractPlayer::GetSingleton().GetGuildID());

  00003	8b 45 08	 mov	 eax, DWORD PTR _r$[ebp]
; File C:\Anka2Project\Anka2Project\Source\Binary\source\UserInterface\AbstractSingleton.h

; 24   : 		assert(ms_singleton!=nullptr);

  00006	8b 0d 00 00 00
	00		 mov	 ecx, DWORD PTR ?ms_singleton@?$TAbstractSingleton@VIAbstractPlayer@@@@0PAVIAbstractPlayer@@A ; TAbstractSingleton<IAbstractPlayer>::ms_singleton
; File C:\Anka2Project\Anka2Project\Source\Binary\source\UserInterface\PythonGuildRanking.cpp

; 34   : 	{

  0000c	53		 push	 ebx

; 35   : 		return (!r->id != IAbstractPlayer::GetSingleton().GetGuildID());

  0000d	33 db		 xor	 ebx, ebx
  0000f	8b 00		 mov	 eax, DWORD PTR [eax]
  00011	39 58 30	 cmp	 DWORD PTR [eax+48], ebx
  00014	0f 94 c3	 sete	 bl
; File C:\Anka2Project\Anka2Project\Source\Binary\source\UserInterface\AbstractSingleton.h

; 24   : 		assert(ms_singleton!=nullptr);

  00017	85 c9		 test	 ecx, ecx
  00019	75 1a		 jne	 SHORT $LN5@operator
  0001b	6a 18		 push	 24			; 00000018H
  0001d	68 00 00 00 00	 push	 OFFSET ??_C@_1KI@FIPHLMOB@?$AAC?$AA?3?$AA?2?$AAA?$AAn?$AAk?$AAa?$AA2?$AAP?$AAr?$AAo?$AAj?$AAe?$AAc?$AAt@
  00022	68 00 00 00 00	 push	 OFFSET ??_C@_1CM@FPMBEAEA@?$AAm?$AAs?$AA_?$AAs?$AAi?$AAn?$AAg?$AAl?$AAe?$AAt?$AAo?$AAn?$AA?$CB?$AA?$DN?$AAn@
  00027	e8 00 00 00 00	 call	 __wassert
  0002c	8b 0d 00 00 00
	00		 mov	 ecx, DWORD PTR ?ms_singleton@?$TAbstractSingleton@VIAbstractPlayer@@@@0PAVIAbstractPlayer@@A ; TAbstractSingleton<IAbstractPlayer>::ms_singleton
  00032	83 c4 0c	 add	 esp, 12			; 0000000cH
$LN5@operator:
; File C:\Anka2Project\Anka2Project\Source\Binary\source\UserInterface\PythonGuildRanking.cpp

; 35   : 		return (!r->id != IAbstractPlayer::GetSingleton().GetGuildID());

  00035	8b 01		 mov	 eax, DWORD PTR [ecx]
  00037	ff 50 18	 call	 DWORD PTR [eax+24]
  0003a	3b d8		 cmp	 ebx, eax
  0003c	5b		 pop	 ebx
  0003d	0f 95 c0	 setne	 al

; 36   : 	});

  00040	5d		 pop	 ebp
  00041	c2 04 00	 ret	 4
??R<lambda_1>@?1??GetRankMyLine@CPythonGuildRanking@@QBEGXZ@QBE@ABV?$shared_ptr@USRankingData@CPythonGuildRanking@@@std@@@Z ENDP ; `CPythonGuildRanking::GetRankMyLine'::`2'::<lambda_1>::operator()
_TEXT	ENDS
; Function compile flags: /Ogtp
; File C:\Anka2Project\Anka2Project\Source\Binary\source\UserInterface\PythonGuildRanking.cpp
; File C:\Anka2Project\Anka2Project\Source\Binary\source\eterBase\Singleton.h
; File C:\Anka2Project\Anka2Project\Source\Binary\source\UserInterface\PythonGuildRanking.cpp
;	COMDAT ?GuildRankingGetRankCount@@YAPAU_object@@PAU1@0@Z
_TEXT	SEGMENT
_poSelf$ = 8						; size = 4
_poArgs$ = 12						; size = 4
?GuildRankingGetRankCount@@YAPAU_object@@PAU1@0@Z PROC	; GuildRankingGetRankCount, COMDAT
; File C:\Anka2Project\Anka2Project\Source\Binary\source\eterBase\Singleton.h

; 26   : 		assert(ms_singleton);

  00000	8b 0d 00 00 00
	00		 mov	 ecx, DWORD PTR ?ms_singleton@?$CSingleton@VCPythonGuildRanking@@@@0PAVCPythonGuildRanking@@A ; CSingleton<CPythonGuildRanking>::ms_singleton
  00006	85 c9		 test	 ecx, ecx
  00008	75 1a		 jne	 SHORT $LN5@GuildRanki
  0000a	6a 1a		 push	 26			; 0000001aH
  0000c	68 00 00 00 00	 push	 OFFSET ??_C@_1IO@CAJLEEOI@?$AAC?$AA?3?$AA?2?$AAA?$AAn?$AAk?$AAa?$AA2?$AAP?$AAr?$AAo?$AAj?$AAe?$AAc?$AAt@
  00011	68 00 00 00 00	 push	 OFFSET ??_C@_1BK@FMEHPMFE@?$AAm?$AAs?$AA_?$AAs?$AAi?$AAn?$AAg?$AAl?$AAe?$AAt?$AAo?$AAn@
  00016	e8 00 00 00 00	 call	 __wassert
  0001b	8b 0d 00 00 00
	00		 mov	 ecx, DWORD PTR ?ms_singleton@?$CSingleton@VCPythonGuildRanking@@@@0PAVCPythonGuildRanking@@A ; CSingleton<CPythonGuildRanking>::ms_singleton
  00021	83 c4 0c	 add	 esp, 12			; 0000000cH
$LN5@GuildRanki:
; File C:\Anka2Project\Anka2Project\Source\Binary\source\UserInterface\PythonGuildRanking.cpp

; 58   : 	return Py_BuildValue("i", CPythonGuildRanking::Instance().GetRankCount());

  00024	e8 00 00 00 00	 call	 ?GetRankCount@CPythonGuildRanking@@QBEIXZ ; CPythonGuildRanking::GetRankCount
  00029	50		 push	 eax
  0002a	68 00 00 00 00	 push	 OFFSET ??_C@_01KBJDNOO@i@
  0002f	ff 15 00 00 00
	00		 call	 DWORD PTR __imp__Py_BuildValue
  00035	83 c4 08	 add	 esp, 8

; 59   : }

  00038	c3		 ret	 0
?GuildRankingGetRankCount@@YAPAU_object@@PAU1@0@Z ENDP	; GuildRankingGetRankCount
_TEXT	ENDS
; Function compile flags: /Ogtp
; File C:\Anka2Project\Anka2Project\Source\Binary\source\UserInterface\PythonGuildRanking.cpp
; File C:\Anka2Project\Anka2Project\Source\Binary\source\eterBase\Singleton.h
; File C:\Anka2Project\Anka2Project\Source\Binary\source\UserInterface\PythonGuildRanking.cpp
; File C:\Program Files\Microsoft Visual Studio\2022\Community\VC\Tools\MSVC\14.44.35207\include\xstring
; File C:\Anka2Project\Anka2Project\Source\Binary\source\UserInterface\PythonGuildRanking.cpp
;	COMDAT ?GuildRankingGetRankByLine@@YAPAU_object@@PAU1@0@Z
_TEXT	SEGMENT
_iIndex$ = -4						; size = 4
_poSelf$ = 8						; size = 4
_poArgs$ = 12						; size = 4
?GuildRankingGetRankByLine@@YAPAU_object@@PAU1@0@Z PROC	; GuildRankingGetRankByLine, COMDAT

; 62   : {

  00000	55		 push	 ebp
  00001	8b ec		 mov	 ebp, esp
  00003	51		 push	 ecx

; 63   : 	int iIndex;
; 64   : 	if (!PyTuple_GetInteger(poArgs, 0, &iIndex))

  00004	8d 45 fc	 lea	 eax, DWORD PTR _iIndex$[ebp]
  00007	50		 push	 eax
  00008	6a 00		 push	 0
  0000a	ff 75 0c	 push	 DWORD PTR _poArgs$[ebp]
  0000d	e8 00 00 00 00	 call	 ?PyTuple_GetInteger@@YA_NPAU_object@@HPAH@Z ; PyTuple_GetInteger
  00012	83 c4 0c	 add	 esp, 12			; 0000000cH
  00015	84 c0		 test	 al, al
  00017	75 09		 jne	 SHORT $LN2@GuildRanki

; 65   : 		return Py_BadArgument();

  00019	e8 00 00 00 00	 call	 ?Py_BadArgument@@YAPAU_object@@XZ ; Py_BadArgument

; 72   : }

  0001e	8b e5		 mov	 esp, ebp
  00020	5d		 pop	 ebp
  00021	c3		 ret	 0
$LN2@GuildRanki:
; File C:\Anka2Project\Anka2Project\Source\Binary\source\eterBase\Singleton.h

; 26   : 		assert(ms_singleton);

  00022	8b 0d 00 00 00
	00		 mov	 ecx, DWORD PTR ?ms_singleton@?$CSingleton@VCPythonGuildRanking@@@@0PAVCPythonGuildRanking@@A ; CSingleton<CPythonGuildRanking>::ms_singleton
  00028	85 c9		 test	 ecx, ecx
  0002a	75 1a		 jne	 SHORT $LN7@GuildRanki
  0002c	6a 1a		 push	 26			; 0000001aH
  0002e	68 00 00 00 00	 push	 OFFSET ??_C@_1IO@CAJLEEOI@?$AAC?$AA?3?$AA?2?$AAA?$AAn?$AAk?$AAa?$AA2?$AAP?$AAr?$AAo?$AAj?$AAe?$AAc?$AAt@
  00033	68 00 00 00 00	 push	 OFFSET ??_C@_1BK@FMEHPMFE@?$AAm?$AAs?$AA_?$AAs?$AAi?$AAn?$AAg?$AAl?$AAe?$AAt?$AAo?$AAn@
  00038	e8 00 00 00 00	 call	 __wassert
  0003d	8b 0d 00 00 00
	00		 mov	 ecx, DWORD PTR ?ms_singleton@?$CSingleton@VCPythonGuildRanking@@@@0PAVCPythonGuildRanking@@A ; CSingleton<CPythonGuildRanking>::ms_singleton
  00043	83 c4 0c	 add	 esp, 12			; 0000000cH
$LN7@GuildRanki:
; File C:\Anka2Project\Anka2Project\Source\Binary\source\UserInterface\PythonGuildRanking.cpp

; 67   : 	const auto Rank = CPythonGuildRanking::Instance().GetRankByLine(iIndex);

  00046	ff 75 fc	 push	 DWORD PTR _iIndex$[ebp]
  00049	e8 00 00 00 00	 call	 ?GetRankByLine@CPythonGuildRanking@@QBEPAUSRankingData@1@G@Z ; CPythonGuildRanking::GetRankByLine

; 68   : 	if (!Rank)

  0004e	85 c0		 test	 eax, eax
  00050	75 14		 jne	 SHORT $LN3@GuildRanki

; 69   : 		return Py_BuildException("Failed to find rank by index %d", iIndex);

  00052	ff 75 fc	 push	 DWORD PTR _iIndex$[ebp]
  00055	68 00 00 00 00	 push	 OFFSET ??_C@_0CA@PHNKPBOI@Failed?5to?5find?5rank?5by?5index?5?$CFd@
  0005a	e8 00 00 00 00	 call	 ?Py_BuildException@@YAPAU_object@@PBDZZ ; Py_BuildException
  0005f	83 c4 08	 add	 esp, 8

; 72   : }

  00062	8b e5		 mov	 esp, ebp
  00064	5d		 pop	 ebp
  00065	c3		 ret	 0
$LN3@GuildRanki:
; File C:\Program Files\Microsoft Visual Studio\2022\Community\VC\Tools\MSVC\14.44.35207\include\xstring

; 453  :         return _Myres > _Small_string_capacity;

  00066	83 78 2c 0f	 cmp	 DWORD PTR [eax+44], 15	; 0000000fH

; 2356 :         return _Mypair._Myval2._Myptr();

  0006a	8d 48 18	 lea	 ecx, DWORD PTR [eax+24]

; 445  :         if (_Large_mode_engaged()) {

  0006d	76 02		 jbe	 SHORT $LN12@GuildRanki

; 446  :             _Result = _Unfancy(_Bx._Ptr);

  0006f	8b 09		 mov	 ecx, DWORD PTR [ecx]
$LN12@GuildRanki:

; 453  :         return _Myres > _Small_string_capacity;

  00071	83 78 14 0f	 cmp	 DWORD PTR [eax+20], 15	; 0000000fH

; 444  :         const value_type* _Result = _Bx._Buf;

  00075	8b d0		 mov	 edx, eax

; 445  :         if (_Large_mode_engaged()) {

  00077	76 02		 jbe	 SHORT $LN22@GuildRanki

; 446  :             _Result = _Unfancy(_Bx._Ptr);

  00079	8b 10		 mov	 edx, DWORD PTR [eax]
$LN22@GuildRanki:
; File C:\Anka2Project\Anka2Project\Source\Binary\source\UserInterface\PythonGuildRanking.cpp

; 71   : 	return Py_BuildValue("issiiiii", Rank->id, Rank->guild.c_str(), Rank->name.c_str(), Rank->level, Rank->point, Rank->win, Rank->draw, Rank->loss);

  0007b	ff 70 44	 push	 DWORD PTR [eax+68]
  0007e	ff 70 40	 push	 DWORD PTR [eax+64]
  00081	ff 70 3c	 push	 DWORD PTR [eax+60]
  00084	ff 70 38	 push	 DWORD PTR [eax+56]
  00087	ff 70 34	 push	 DWORD PTR [eax+52]
  0008a	51		 push	 ecx
  0008b	52		 push	 edx
  0008c	ff 70 30	 push	 DWORD PTR [eax+48]
  0008f	68 00 00 00 00	 push	 OFFSET ??_C@_08BIKHFDAN@issiiiii@
  00094	ff 15 00 00 00
	00		 call	 DWORD PTR __imp__Py_BuildValue
  0009a	83 c4 24	 add	 esp, 36			; 00000024H

; 72   : }

  0009d	8b e5		 mov	 esp, ebp
  0009f	5d		 pop	 ebp
  000a0	c3		 ret	 0
?GuildRankingGetRankByLine@@YAPAU_object@@PAU1@0@Z ENDP	; GuildRankingGetRankByLine
_TEXT	ENDS
; Function compile flags: /Ogtp
; File C:\Anka2Project\Anka2Project\Source\Binary\source\UserInterface\PythonGuildRanking.cpp
; File C:\Anka2Project\Anka2Project\Source\Binary\source\eterBase\Singleton.h
; File C:\Anka2Project\Anka2Project\Source\Binary\source\UserInterface\PythonGuildRanking.cpp
;	COMDAT ?GuildRankingGetRankMyLine@@YAPAU_object@@PAU1@0@Z
_TEXT	SEGMENT
_poSelf$ = 8						; size = 4
_poArgs$ = 12						; size = 4
?GuildRankingGetRankMyLine@@YAPAU_object@@PAU1@0@Z PROC	; GuildRankingGetRankMyLine, COMDAT
; File C:\Anka2Project\Anka2Project\Source\Binary\source\eterBase\Singleton.h

; 26   : 		assert(ms_singleton);

  00000	8b 0d 00 00 00
	00		 mov	 ecx, DWORD PTR ?ms_singleton@?$CSingleton@VCPythonGuildRanking@@@@0PAVCPythonGuildRanking@@A ; CSingleton<CPythonGuildRanking>::ms_singleton
  00006	85 c9		 test	 ecx, ecx
  00008	75 1a		 jne	 SHORT $LN5@GuildRanki
  0000a	6a 1a		 push	 26			; 0000001aH
  0000c	68 00 00 00 00	 push	 OFFSET ??_C@_1IO@CAJLEEOI@?$AAC?$AA?3?$AA?2?$AAA?$AAn?$AAk?$AAa?$AA2?$AAP?$AAr?$AAo?$AAj?$AAe?$AAc?$AAt@
  00011	68 00 00 00 00	 push	 OFFSET ??_C@_1BK@FMEHPMFE@?$AAm?$AAs?$AA_?$AAs?$AAi?$AAn?$AAg?$AAl?$AAe?$AAt?$AAo?$AAn@
  00016	e8 00 00 00 00	 call	 __wassert
  0001b	8b 0d 00 00 00
	00		 mov	 ecx, DWORD PTR ?ms_singleton@?$CSingleton@VCPythonGuildRanking@@@@0PAVCPythonGuildRanking@@A ; CSingleton<CPythonGuildRanking>::ms_singleton
  00021	83 c4 0c	 add	 esp, 12			; 0000000cH
$LN5@GuildRanki:
; File C:\Anka2Project\Anka2Project\Source\Binary\source\UserInterface\PythonGuildRanking.cpp

; 76   : 	return Py_BuildValue("i", CPythonGuildRanking::Instance().GetRankMyLine());

  00024	e8 00 00 00 00	 call	 ?GetRankMyLine@CPythonGuildRanking@@QBEGXZ ; CPythonGuildRanking::GetRankMyLine
  00029	0f b7 c0	 movzx	 eax, ax
  0002c	50		 push	 eax
  0002d	68 00 00 00 00	 push	 OFFSET ??_C@_01KBJDNOO@i@
  00032	ff 15 00 00 00
	00		 call	 DWORD PTR __imp__Py_BuildValue
  00038	83 c4 08	 add	 esp, 8

; 77   : }

  0003b	c3		 ret	 0
?GuildRankingGetRankMyLine@@YAPAU_object@@PAU1@0@Z ENDP	; GuildRankingGetRankMyLine
_TEXT	ENDS
; Function compile flags: /Ogtp
; File C:\Anka2Project\Anka2Project\Source\Binary\source\UserInterface\PythonGuildRanking.cpp
;	COMDAT ?initguildranking@@YAXXZ
_TEXT	SEGMENT
?initguildranking@@YAXXZ PROC				; initguildranking, COMDAT

; 86   : {

  00000	57		 push	 edi

; 87   : 	static PyMethodDef s_methods[] =
; 88   : 	{
; 89   : 		{ "GetGuildRankCount", GuildRankingGetRankCount, METH_VARARGS },
; 90   : 		{ "GetGuildRankByLine", GuildRankingGetRankByLine, METH_VARARGS },
; 91   : 		{ "GetGuildRankMyLine", GuildRankingGetRankMyLine, METH_VARARGS },
; 92   : 		{ "GuildRankClear", GuildRankingClear, METH_VARARGS },
; 93   : 		{ nullptr, nullptr }
; 94   : 	};
; 95   : 
; 96   : 	PyObject *poModule = Py_InitModule("guildranking", s_methods);

  00001	68 f5 03 00 00	 push	 1013			; 000003f5H
  00006	6a 00		 push	 0
  00008	6a 00		 push	 0
  0000a	68 00 00 00 00	 push	 OFFSET ?s_methods@?1??initguildranking@@YAXXZ@4PAUPyMethodDef@@A
  0000f	68 00 00 00 00	 push	 OFFSET ??_C@_0N@OPFMFFHN@guildranking@
  00014	ff 15 00 00 00
	00		 call	 DWORD PTR __imp__Py_InitModule4

; 97   : 	PyModule_AddIntConstant(poModule, "GUILD_RANK_PAGE_MAX_NUM", CPythonGuildRanking::GUILD_RANK_PAGE_MAX_NUM);

  0001a	6a 0a		 push	 10			; 0000000aH
  0001c	8b f8		 mov	 edi, eax
  0001e	68 00 00 00 00	 push	 OFFSET ??_C@_0BI@ODECEHOG@GUILD_RANK_PAGE_MAX_NUM@
  00023	57		 push	 edi
  00024	ff 15 00 00 00
	00		 call	 DWORD PTR __imp__PyModule_AddIntConstant

; 98   : 	PyModule_AddIntConstant(poModule, "GUILD_RANK_SHOW_COUNT", CPythonGuildRanking::GUILD_RANK_SHOW_COUNT);

  0002a	6a 32		 push	 50			; 00000032H
  0002c	68 00 00 00 00	 push	 OFFSET ??_C@_0BG@NJCJHFNH@GUILD_RANK_SHOW_COUNT@
  00031	57		 push	 edi
  00032	ff 15 00 00 00
	00		 call	 DWORD PTR __imp__PyModule_AddIntConstant
  00038	83 c4 2c	 add	 esp, 44			; 0000002cH
  0003b	5f		 pop	 edi

; 99   : }

  0003c	c3		 ret	 0
?initguildranking@@YAXXZ ENDP				; initguildranking
_TEXT	ENDS
; Function compile flags: /Ogtp
; File C:\Program Files\Microsoft Visual Studio\2022\Community\VC\Tools\MSVC\14.44.35207\include\memory
;	COMDAT ?_Delete_this@?$_Ref_count_obj2@USRankingData@CPythonGuildRanking@@@std@@EAEXXZ
_TEXT	SEGMENT
?_Delete_this@?$_Ref_count_obj2@USRankingData@CPythonGuildRanking@@@std@@EAEXXZ PROC ; std::_Ref_count_obj2<CPythonGuildRanking::SRankingData>::_Delete_this, COMDAT
; _this$ = ecx

; 2122 :         delete this;

  00000	85 c9		 test	 ecx, ecx
  00002	74 07		 je	 SHORT $LN3@Delete_thi
  00004	8b 01		 mov	 eax, DWORD PTR [ecx]
  00006	6a 01		 push	 1
  00008	ff 50 08	 call	 DWORD PTR [eax+8]
$LN3@Delete_thi:

; 2123 :     }

  0000b	c3		 ret	 0
?_Delete_this@?$_Ref_count_obj2@USRankingData@CPythonGuildRanking@@@std@@EAEXXZ ENDP ; std::_Ref_count_obj2<CPythonGuildRanking::SRankingData>::_Delete_this
_TEXT	ENDS
END
