; Listing generated by Microsoft (R) Optimizing Compiler Version 19.44.35219.0 

	TITLE	c:\anka2project\anka2project\source\binary\vs_files\userinterface\release\pythonplayermodule.obj
	.686P
	.XMM
	include listing.inc
	.model	flat

INCLUDELIB OLDNAMES

PUBLIC	??_C@_0DF@ILFGGFEI@CPythonPlayer?3?3RegisterEffect?$CIe@ ; `string'
PUBLIC	??_C@_0EJ@BNKMOLIP@playerSetSingleDIKKeyState?$CIeDIK@ ; `string'
PUBLIC	??_C@_0EA@OHLDKNFC@playerSetAttackKeyState?$CIisPress@ ; `string'
PUBLIC	??_C@_02HPEDFNFO@ff@				; `string'
PUBLIC	??_C@_0EK@IDBGKDBN@playerSetSingleDIKKeyState?$CIeDIK@ ; `string'
PUBLIC	??_C@_0BK@MCOKCAKI@?5?$HMh?$HMr?$FL?$CFs?$FN?$HMcffffc700?$HMH?$CFs?$HMh@ ; `string'
PUBLIC	??_C@_01HHGOMJKL@l@				; `string'
PUBLIC	??_C@_0BK@MGKBEPOF@?5?$HMh?$HMr?$FL?$CFs?$FN?$HMcfff1e6c0?$HMH?$CFs?$HMh@ ; `string'
PUBLIC	??_C@_06FAMCNHHL@?3?$CFx?3?$CFd@		; `string'
PUBLIC	??_C@_0BF@IBGKLIMC@can?8t?5find?5item?5data@	; `string'
PUBLIC	??_C@_0BF@BGKCJNBK@Can?8t?5find?5item?5data@	; `string'
PUBLIC	??_C@_04GPDILEAH@biii@				; `string'
PUBLIC	??_C@_07EFJJEBFG@iiiiiii@			; `string'
PUBLIC	??_C@_0L@LNJHJPCL@iiiiiiiiii@			; `string'
PUBLIC	??_C@_05EAPDINDK@iiiii@				; `string'
PUBLIC	??_C@_07LLGOIFNB@iiisfff@			; `string'
PUBLIC	??_C@_09BOADOOAM@iiiiiiiii@			; `string'
PUBLIC	??_C@_0BC@CILJOCG@SetAutoPotionInfo@		; `string'
PUBLIC	??_C@_0BC@CHIABFDI@GetAutoPotionInfo@		; `string'
PUBLIC	??_C@_0BE@EFMODMFG@PickCloseItemVector@		; `string'
PUBLIC	??_C@_0O@MAEJALBO@PickCloseItem@		; `string'
PUBLIC	??_C@_0O@MNPFFDEJ@SetGameWindow@		; `string'
PUBLIC	??_C@_0BI@JOKOCOKN@PickCloseItemAutoVector@	; `string'
PUBLIC	??_C@_0N@LEJNPCGM@SetMouseFunc@			; `string'
PUBLIC	??_C@_0O@HDELDAFI@SetMouseState@		; `string'
PUBLIC	??_C@_0BK@JBJLNCBH@SetMouseMiddleButtonState@	; `string'
PUBLIC	??_C@_0N@MACDDOCA@GetMouseFunc@			; `string'
PUBLIC	??_C@_0BG@GHIKDJGB@GetMainCharacterIndex@	; `string'
PUBLIC	??_C@_0BG@JCNMOACA@SetMainCharacterIndex@	; `string'
PUBLIC	??_C@_0BJ@GIKFEPMH@GetMainCharacterPosition@	; `string'
PUBLIC	??_C@_0BF@OMDPKDFM@GetMainCharacterName@	; `string'
PUBLIC	??_C@_0BC@FLPEGJDD@CanAttackInstance@		; `string'
PUBLIC	??_C@_0BF@GALHNOAL@IsMainCharacterIndex@	; `string'
PUBLIC	??_C@_0O@ECCODAC@IsPVPInstance@			; `string'
PUBLIC	??_C@_0BA@ODCBPOEF@IsActingEmotion@		; `string'
PUBLIC	??_C@_0BE@FOIPHJLO@IsChallengeInstance@		; `string'
PUBLIC	??_C@_0N@CBEDFALN@IsSameEmpire@			; `string'
PUBLIC	??_C@_0BE@HJOMPGKI@IsCantFightInstance@		; `string'
PUBLIC	??_C@_0BC@IKOEAPGC@IsRevengeInstance@		; `string'
PUBLIC	??_C@_0N@IKPCBCPA@IsInSafeArea@			; `string'
PUBLIC	??_C@_0BF@DABJOKIF@GetCharacterDistance@	; `string'
PUBLIC	??_C@_0P@LDENHACE@IsObserverMode@		; `string'
PUBLIC	??_C@_0BA@GFJLKENO@IsMountingHorse@		; `string'
PUBLIC	??_C@_0L@CPMIOCIM@ShowPlayer@			; `string'
PUBLIC	??_C@_0L@JEBGMNAH@ActEmotion@			; `string'
PUBLIC	??_C@_0M@GOCDIKPN@ComboAttack@			; `string'
PUBLIC	??_C@_0L@PBBGGCLG@HidePlayer@			; `string'
PUBLIC	??_C@_0BC@DAIEHFBH@SetAttackKeyState@		; `string'
PUBLIC	??_C@_0BL@IEKDAKHC@SetAutoCameraRotationSpeed@	; `string'
PUBLIC	??_C@_0BJ@HGLJKHIH@EndKeyWalkingImmediately@	; `string'
PUBLIC	??_C@_0BF@PNJNANBI@SetSingleDIKKeyState@	; `string'
PUBLIC	??_C@_0BA@JEOKFDLP@EndMouseWalking@		; `string'
PUBLIC	??_C@_0BC@NCHFPCDM@StartMouseWalking@		; `string'
PUBLIC	??_C@_0BD@DPHLFGPP@SetQuickCameraMode@		; `string'
PUBLIC	??_C@_0BE@MCFGJOPA@ResetCameraRotation@		; `string'
PUBLIC	??_C@_0BC@HNJMANI@GetSkillSlotIndex@		; `string'
PUBLIC	??_C@_08HIFGFOGG@SetSkill@			; `string'
PUBLIC	??_C@_0CD@EFGGIKHI@GetSkillCurrentEfficientPercent@ ; `string'
PUBLIC	??_C@_0O@IIOIANPE@GetSkillGrade@		; `string'
PUBLIC	??_C@_0P@IGNHDBHH@ClickSkillSlot@		; `string'
PUBLIC	??_C@_0CA@JHGONPGM@GetSkillNextEfficientPercentage@ ; `string'
PUBLIC	??_C@_0P@MJOJKOJJ@ClearSkillDict@		; `string'
PUBLIC	??_C@_0BN@BPJDEKED@ChangeCurrentSkillNumberOnly@ ; `string'
PUBLIC	??_C@_0N@GABOCBEH@GetItemIndex@			; `string'
PUBLIC	??_C@_0BD@GCOFLJAB@DisableToggleSkill@		; `string'
PUBLIC	??_C@_0N@LEKALLIG@GetItemCount@			; `string'
PUBLIC	??_C@_0N@DMCGDNGF@GetItemFlags@			; `string'
PUBLIC	??_C@_0BD@JBOBKHIE@GetItemMetinSocket@		; `string'
PUBLIC	??_C@_0BD@DBLILMFK@GetItemCountByVnum@		; `string'
PUBLIC	??_C@_08MHJANHDM@MoveItem@			; `string'
PUBLIC	??_C@_0BB@GOKPPDHH@GetItemAttribute@		; `string'
PUBLIC	??_C@_06FHLNIOPB@GetJob@			; `string'
PUBLIC	??_C@_0BE@DBIFLBAC@SendClickItemPacket@		; `string'
PUBLIC	??_C@_0M@DGCMFHDN@SetPlayTime@			; `string'
PUBLIC	??_C@_0M@DJDCIBLO@GetPlayTime@			; `string'
PUBLIC	??_C@_0BB@CNGGKNGL@GetSkillCoolTime@		; `string'
PUBLIC	??_C@_0BA@FOPKKJJD@IsSkillCoolTime@		; `string'
PUBLIC	??_C@_0O@HHBOBCLE@UseGuildSkill@		; `string'
PUBLIC	??_C@_0O@IAPCJJAC@IsSkillActive@		; `string'
PUBLIC	??_C@_06MDIKDJMD@GetEXP@			; `string'
PUBLIC	??_C@_0BI@JIGEMOFF@AffectIndexToSkillIndex@	; `string'
PUBLIC	??_C@_09MKFEIFJE@GetStatus@			; `string'
PUBLIC	??_C@_08MDGBDPHC@GetLevel@			; `string'
PUBLIC	??_C@_06NMFKJLLH@GetElk@			; `string'
PUBLIC	??_C@_09OEBBKEAG@SetStatus@			; `string'
PUBLIC	??_C@_08LBPCDDLA@GetCoins@			; `string'
PUBLIC	??_C@_08OAJFGNBC@GetMoney@			; `string'
PUBLIC	??_C@_0BJ@DNLGAMEO@RequestAddLocalQuickSlot@	; `string'
PUBLIC	??_C@_0BB@LANDCIKG@GetAlignmentData@		; `string'
PUBLIC	??_C@_0BN@NACLJDMA@RequestDeleteGlobalQuickSlot@ ; `string'
PUBLIC	??_C@_0CA@JMFCJJPL@RequestAddToEmptyLocalQuickSlot@ ; `string'
PUBLIC	??_C@_0BJ@IBBGPDPH@RequestUseLocalQuickSlot@	; `string'
PUBLIC	??_C@_0CL@IEMBKGLN@RequestMoveGlobalQuickSlotToLoc@ ; `string'
PUBLIC	??_C@_0BB@JKIMCMDG@IsAntiFlagBySlot@		; `string'
PUBLIC	??_C@_0CK@GNGKFIDB@LocalQuickSlotIndexToGlobalQuic@ ; `string'
PUBLIC	??_C@_0BF@HFKGNAOK@GetItemSubTypeBySlot@	; `string'
PUBLIC	??_C@_0BC@PGIBMCKF@GetItemTypeBySlot@		; `string'
PUBLIC	??_C@_0N@NLMPHAJA@GetQuickPage@			; `string'
PUBLIC	??_C@_0P@HAJODJLN@IsSameItemVnum@		; `string'
PUBLIC	??_C@_0BC@LNKMMBDG@GetLocalQuickSlot@		; `string'
PUBLIC	??_C@_0N@KPHBLMNM@SetQuickPage@			; `string'
PUBLIC	??_C@_0BH@JNCIKJMC@RemoveQuickSlotByValue@	; `string'
PUBLIC	??_C@_0BD@ECGPDHPA@GetGlobalQuickSlot@		; `string'
PUBLIC	??_C@_0BA@EMKHGGAL@IsEquipmentSlot@		; `string'
PUBLIC	??_C@_06NOPKEHAK@isItem@			; `string'
PUBLIC	??_C@_0O@KCAGNEAI@IsCostumeSlot@		; `string'
PUBLIC	??_C@_0BC@DDCIGDKO@IsDSEquipmentSlot@		; `string'
PUBLIC	??_C@_0BC@DCFDMADN@IsOpenPrivateShop@		; `string'
PUBLIC	??_C@_0P@LAJFBPPH@IsValuableItem@		; `string'
PUBLIC	??_C@_0BA@OBALOJLG@IsEquippingBelt@		; `string'
PUBLIC	??_C@_0BE@HECMLJG@IsBeltInventorySlot@		; `string'
PUBLIC	??_C@_0BJ@CPJJHAGD@IsSkillBookInventorySlot@	; `string'
PUBLIC	??_C@_0BN@DKGNHJIB@IsAvailableBeltInventoryCell@ ; `string'
PUBLIC	??_C@_0BF@LJHNJJLN@IsStoneInventorySlot@	; `string'
PUBLIC	??_C@_0BM@FCEMHHI@IsUpgradeItemsInventorySlot@	; `string'
PUBLIC	??_C@_0BI@FMKBEPGC@IsChangersInventorySlot@	; `string'
PUBLIC	??_C@_0BH@IDMOLEIA@IsGiftBoxInventorySlot@	; `string'
PUBLIC	??_C@_09BGNCJJP@CanRefine@			; `string'
PUBLIC	??_C@_0N@DGHEMMKN@GetItemGrade@			; `string'
PUBLIC	??_C@_09FHINBOHC@CanUnlock@			; `string'
PUBLIC	??_C@_09GHIBIBHI@CanDetach@			; `string'
PUBLIC	??_C@_0BE@ELNKJPMC@IsRefineGradeScroll@		; `string'
PUBLIC	??_C@_0P@BLOGPKFO@CanAttachMetin@		; `string'
PUBLIC	??_C@_09EECGCJDE@SetTarget@			; `string'
PUBLIC	??_C@_0M@DPCEEMCG@ClearTarget@			; `string'
PUBLIC	??_C@_0O@BPMJGNAC@IsPartyLeader@		; `string'
PUBLIC	??_C@_0BC@HAEJEFBP@OpenCharacterMenu@		; `string'
PUBLIC	??_C@_0BL@EPAFEFHI@GetPartyMemberHPPercentage@	; `string'
PUBLIC	??_C@_0BD@HGKJMFNK@IsPartyLeaderByPID@		; `string'
PUBLIC	??_C@_0BG@EEFAFMJC@GetPartyMemberAffects@	; `string'
PUBLIC	??_C@_0BE@HKIJMBKK@GetPartyMemberState@		; `string'
PUBLIC	??_C@_09IMMFEEHK@GetPKMode@			; `string'
PUBLIC	??_C@_09DMPBEJCG@ExitParty@			; `string'
PUBLIC	??_C@_0BE@FELKHKJF@GetEmotionIconImage@		; `string'
PUBLIC	??_C@_0BE@PMDABIKP@RegisterEmotionIcon@		; `string'
PUBLIC	??_C@_0P@ILOOLMDH@ToggleCoolTime@		; `string'
PUBLIC	??_C@_0BJ@CFCMHNHB@SetWeaponAttackBonusFlag@	; `string'
PUBLIC	??_C@_0N@MEKPPHGC@GetTargetVID@			; `string'
PUBLIC	??_C@_0BB@DJKKOCLB@ToggleLevelLimit@		; `string'
PUBLIC	??_C@_0BD@GLMLJBGM@SetItemMetinSocket@		; `string'
PUBLIC	??_C@_0M@CHNGAPIB@SetItemData@			; `string'
PUBLIC	??_C@_0N@MABOHHMK@SetItemCount@			; `string'
PUBLIC	??_C@_0BB@KPGENMF@SetItemAttribute@		; `string'
PUBLIC	??_C@_0BE@IOMKCPHN@SlotTypeToInvenType@		; `string'
PUBLIC	??_C@_0M@DGFCHEAA@GetItemLink@			; `string'
PUBLIC	??_C@_0BN@OIIJKMFD@ClearAutoAttackTargetActorID@ ; `string'
PUBLIC	??_C@_0BF@PLGNHJMH@SendDragonSoulRefine@	; `string'
PUBLIC	??_C@_0BF@HHEMENOC@GetMainCharacterPart@	; `string'
PUBLIC	??_C@_04PPEDCFAC@NPOS@				; `string'
PUBLIC	??_C@_0M@GLKHKGON@CanInteract@			; `string'
PUBLIC	??_C@_0BB@NAJMCHBK@GetItemSlotIndex@		; `string'
PUBLIC	??_C@_0O@PKLBMAM@SetSkillColor@			; `string'
PUBLIC	??_C@_0BH@KNFAMLNM@GetPremiumBattlePassID@	; `string'
PUBLIC	??_C@_0O@MJPCFPJK@GetAuraItemID@		; `string'
PUBLIC	??_C@_0O@HALFKPHL@GetSkillColor@		; `string'
PUBLIC	??_C@_0BH@EEMJAALJ@GetAuraItemMetinSocket@	; `string'
PUBLIC	??_C@_0BB@NMGFNIEB@GetAuraItemCount@		; `string'
PUBLIC	??_C@_0BI@PBPNGBAE@IsAuraRefineWindowEmpty@	; `string'
PUBLIC	??_C@_0BF@DKEAJKNA@GetAuraItemAttribute@	; `string'
PUBLIC	??_C@_0BH@ECFJIDOK@IsAuraRefineWindowOpen@	; `string'
PUBLIC	??_C@_0BM@BKGGJDBO@GetAuraCurrentItemSlotCount@	; `string'
PUBLIC	??_C@_0BF@DGBJCLPP@FineMoveAuraItemSlot@	; `string'
PUBLIC	??_C@_0BI@HAAECBGI@GetAuraRefineWindowType@	; `string'
PUBLIC	??_C@_0BG@EEFNBJPF@FindActivatedAuraSlot@	; `string'
PUBLIC	??_C@_0BJ@FDMBJLDG@SetAuraActivatedItemSlot@	; `string'
PUBLIC	??_C@_0BC@GPJMKBHD@GetAuraRefineInfo@		; `string'
PUBLIC	??_C@_0BC@FMKOGNDO@FindUsingAuraSlot@		; `string'
PUBLIC	??_C@_0BH@LNIBDCIJ@GetAuraRefineInfoLevel@	; `string'
PUBLIC	??_C@_0BI@OEGEDDOI@GetAuraRefineInfoExpPer@	; `string'
PUBLIC	??_C@_0BL@CJGAAMKA@SetOpenPetNameChangeWindow@	; `string'
PUBLIC	??_C@_0BJ@OLOKCKBJ@SetOpenPetHatchingWindow@	; `string'
PUBLIC	??_C@_0BI@EEFHCAEH@IsOpenPetHatchingWindow@	; `string'
PUBLIC	??_C@_0BF@LBMFBLG@SetOpenPetFeedWindow@		; `string'
PUBLIC	??_C@_0BK@ONINDKNJ@IsOpenPetNameChangeWindow@	; `string'
PUBLIC	??_C@_0BE@CCCDEOF@IsOpenPetFeedWindow@		; `string'
PUBLIC	??_C@_0P@DGCGCCCO@SetOpenSafeBox@		; `string'
PUBLIC	??_C@_0M@PMJJOEKL@SetOpenMall@			; `string'
PUBLIC	??_C@_0BD@FFNGMGDE@GetActivePetItemId@		; `string'
PUBLIC	??_C@_0L@MJHEBNLN@IsOpenMall@			; `string'
PUBLIC	??_C@_0M@EGNNPBIF@GetPetSkill@			; `string'
PUBLIC	??_C@_0BE@HIAGDJGO@GetPetItemVNumInBag@		; `string'
PUBLIC	??_C@_0BF@GGHLDBPM@GetActivePetItemVNum@	; `string'
PUBLIC	??_C@_0BD@MKFJOLGB@GetPetSkillByIndex@		; `string'
PUBLIC	??_C@_0L@MCGANBBD@GetPetItem@			; `string'
PUBLIC	??_C@_0BA@OIMHGHDP@GetPetExpPoints@		; `string'
PUBLIC	??_C@_0BJ@DBAIPPKB@CanUseGrowthPetQuickSlot@	; `string'
PUBLIC	??_C@_0P@HNNKIABL@GetPetLifeTime@		; `string'
PUBLIC	??_C@_0BC@LHBNPKGI@GetChangeLookVnum@		; `string'
PUBLIC	??_C@_0N@GALPMGNA@LoadNewRegen@			; `string'
PUBLIC	??_C@_0BI@PJOOIALB@GetChangeLookWindowOpen@	; `string'
PUBLIC	??_C@_0BE@KMNILMPF@SetChangeLookWindow@		; `string'
PUBLIC	??_C@_0BE@EICJCLKG@GetChangeLookItemID@		; `string'
PUBLIC	??_C@_0BI@HMKCDAJK@SetChangeLookWindowType@	; `string'
PUBLIC	??_C@_0BM@DIBDFBNF@GetChangeLookFreeYangItemID@	; `string'
PUBLIC	??_C@_0BL@ELGKHOAL@GetChangeLookItemInvenSlot@	; `string'
PUBLIC	??_C@_0BH@BELNGOAK@CanChangeLookClearItem@	; `string'
PUBLIC	??_C@_0CC@EICEGDNO@GetChangeLookFreeYangInvenSlotP@ ; `string'
PUBLIC	??_C@_0BJ@NKLEKMEH@GetChangeChangeLookPrice@	; `string'
PUBLIC	??_C@_0BO@IEIPICAI@GetChangeWIndowChangeLookVnum@ ; `string'
PUBLIC	??_C@_05FHIHOFEA@VOICE@				; `string'
PUBLIC	??_C@_05GCEPFMCO@LEVEL@				; `string'
PUBLIC	??_C@_08CHGDMADF@NEXT_EXP@			; `string'
PUBLIC	??_C@_03KKGFKKLA@EXP@				; `string'
PUBLIC	??_C@_06NMHEPHCD@MAX_HP@			; `string'
PUBLIC	??_C@_02MEIMKHMB@HP@				; `string'
PUBLIC	??_C@_06MMAHLLLC@MAX_SP@			; `string'
PUBLIC	??_C@_02NEPPOLFA@SP@				; `string'
PUBLIC	??_C@_0M@CHCGLEDD@MAX_STAMINA@			; `string'
PUBLIC	??_C@_07IHPDJFBP@STAMINA@			; `string'
PUBLIC	??_C@_02LAJDCOFE@ST@				; `string'
PUBLIC	??_C@_03BIHMGKIG@ELK@				; `string'
PUBLIC	??_C@_02FEPNEKN@DX@				; `string'
PUBLIC	??_C@_02KAOAGCMF@HT@				; `string'
PUBLIC	??_C@_09DIGJAPIG@ATT_POWER@			; `string'
PUBLIC	??_C@_02NMFFPMLH@IQ@				; `string'
PUBLIC	??_C@_07OPGIINPB@ATT_MAX@			; `string'
PUBLIC	??_C@_07PNODGJJO@ATT_MIN@			; `string'
PUBLIC	??_C@_0O@JAPECJBK@MAX_MAGIC_WEP@		; `string'
PUBLIC	??_C@_0O@CJNCLCGL@MIN_MAGIC_WEP@		; `string'
PUBLIC	??_C@_09FOFLCGDC@ATT_BONUS@			; `string'
PUBLIC	??_C@_09LKMFFHLI@ATT_SPEED@			; `string'
PUBLIC	??_C@_0N@KGGLAJKM@MOVING_SPEED@			; `string'
PUBLIC	??_C@_0L@IPHIKIMB@EVADE_RATE@			; `string'
PUBLIC	??_C@_09DNFHINBC@DEF_BONUS@			; `string'
PUBLIC	??_C@_09KMPFCDFE@DEF_GRADE@			; `string'
PUBLIC	??_C@_07PEONMKMN@MAG_ATT@			; `string'
PUBLIC	??_C@_0O@IOLIEEIE@CASTING_SPEED@		; `string'
PUBLIC	??_C@_0N@JIFCAIPA@EMPIRE_POINT@			; `string'
PUBLIC	??_C@_07KGCDIDGL@MAG_DEF@			; `string'
PUBLIC	??_C@_0O@DGEPJFAK@SKILL_PASSIVE@		; `string'
PUBLIC	??_C@_04KNIOFKKL@STAT@				; `string'
PUBLIC	??_C@_0N@DNBJLBPA@SKILL_ACTIVE@			; `string'
PUBLIC	??_C@_0O@JLNOPGFK@SKILL_SUPPORT@		; `string'
PUBLIC	??_C@_08CKIIBBI@PLAYTIME@			; `string'
PUBLIC	??_C@_0M@HAFIBGFL@SKILL_HORSE@			; `string'
PUBLIC	??_C@_0M@CLAIAEPM@HP_RECOVERY@			; `string'
PUBLIC	??_C@_0N@KHDDEEFG@BOW_DISTANCE@			; `string'
PUBLIC	??_C@_0P@GAAMLPFK@ATTACKER_BONUS@		; `string'
PUBLIC	??_C@_0M@FGICENAO@SP_RECOVERY@			; `string'
PUBLIC	??_C@_0BD@CPEECKKP@POINT_CRITICAL_PCT@		; `string'
PUBLIC	??_C@_07MEMMKJPK@MAX_NUM@			; `string'
PUBLIC	??_C@_0BE@FDGMKOPN@POINT_MALL_ATTBONUS@		; `string'
PUBLIC	??_C@_0BE@BGNEFMNJ@POINT_PENETRATE_PCT@		; `string'
PUBLIC	??_C@_0BE@KNGAMOKN@POINT_MALL_EXPBONUS@		; `string'
PUBLIC	??_C@_0BE@FJKLFHOA@POINT_MALL_DEFBONUS@		; `string'
PUBLIC	??_C@_0BF@LPKHMJJF@POINT_MALL_GOLDBONUS@	; `string'
PUBLIC	??_C@_0BF@FCMHLHC@POINT_MALL_ITEMBONUS@		; `string'
PUBLIC	??_C@_0BB@IHDKAICM@POINT_MAX_SP_PCT@		; `string'
PUBLIC	??_C@_0BB@OCODMABI@POINT_MAX_HP_PCT@		; `string'
PUBLIC	??_C@_0BJ@PGEFOCDG@POINT_SKILL_DAMAGE_BONUS@	; `string'
PUBLIC	??_C@_0BA@HLPPKIKO@POINT_ATT_BONUS@		; `string'
PUBLIC	??_C@_0BJ@LPIAEILC@POINT_SKILL_DEFEND_BONUS@	; `string'
PUBLIC	??_C@_0BO@GNDIKOOF@POINT_NORMAL_HIT_DAMAGE_BONUS@ ; `string'
PUBLIC	??_C@_0N@IJMJNHHP@RESIST_MAGIC@			; `string'
PUBLIC	??_C@_0BO@CEPNAEGB@POINT_NORMAL_HIT_DEFEND_BONUS@ ; `string'
PUBLIC	??_C@_06KOEJHMAL@ENERGY@			; `string'
PUBLIC	??_C@_0BH@PDEJPPI@POINT_ATTBONUS_MONSTER@	; `string'
PUBLIC	??_C@_0BJ@PLDLOAKE@POINT_COSTUME_ATTR_BONUS@	; `string'
PUBLIC	??_C@_0BA@PIHNCBED@ENERGY_END_TIME@		; `string'
PUBLIC	??_C@_0CA@GOGOBLID@POINT_MELEE_MAGIC_ATT_BONUS_PER@ ; `string'
PUBLIC	??_C@_0BK@IHLHEPKN@POINT_MAGIC_ATT_BONUS_PER@	; `string'
PUBLIC	??_C@_0BD@HIHOAICI@SKILL_GRADE_MASTER@		; `string'
PUBLIC	??_C@_0BD@LAKFNFGD@SKILL_GRADE_NORMAL@		; `string'
PUBLIC	??_C@_0BL@DCIPLDCA@SKILL_GRADE_PERFECT_MASTER@	; `string'
PUBLIC	??_C@_0BJ@CFOEIGCN@SKILL_GRADE_GRAND_MASTER@	; `string'
PUBLIC	??_C@_0BB@HCMEALJK@CATEGORY_PASSIVE@		; `string'
PUBLIC	??_C@_0BA@LCKKFCJM@CATEGORY_ACTIVE@		; `string'
PUBLIC	??_C@_0BF@NFIFHHOM@INVENTORY_PAGE_COUNT@	; `string'
PUBLIC	??_C@_0BE@CEBDMLGH@INVENTORY_PAGE_SIZE@		; `string'
PUBLIC	??_C@_0BF@HJEBPPMM@EQUIPMENT_SLOT_START@	; `string'
PUBLIC	??_C@_0BF@LCFAAJPA@INVENTORY_SLOT_COUNT@	; `string'
PUBLIC	??_C@_0BJ@COKKCHPJ@NEW_EQUIPMENT_SLOT_START@	; `string'
PUBLIC	??_C@_0BF@MADFLPAE@EQUIPMENT_PAGE_COUNT@	; `string'
PUBLIC	??_C@_0BM@JDPNNKAI@SPECIAL_INVENTORY_PAGE_SIZE@	; `string'
PUBLIC	??_C@_0BJ@PAALBJCN@NEW_EQUIPMENT_SLOT_COUNT@	; `string'
PUBLIC	??_C@_0CA@LILLGBFC@SKILL_BOOK_INVENTORY_SLOT_COUNT@ ; `string'
PUBLIC	??_C@_0BN@IDPOFDE@SPECIAL_INVENTORY_PAGE_COUNT@	; `string'
PUBLIC	??_C@_0BL@NOCNFKMC@STONE_INVENTORY_SLOT_COUNT@	; `string'
PUBLIC	??_C@_0CD@PILBODE@UPGRADE_ITEMS_INVENTORY_SLOT_CO@ ; `string'
PUBLIC	??_C@_0BO@HDBPIDOG@CHANGERS_INVENTORY_SLOT_COUNT@ ; `string'
PUBLIC	??_C@_0BO@KGEOCGGA@GIFT_BOX_INVENTORY_SLOT_COUNT@ ; `string'
PUBLIC	??_C@_0L@MIGMJBKJ@MBF_ATTACK@			; `string'
PUBLIC	??_C@_09NLFDBCDH@MBF_SKILL@			; `string'
PUBLIC	??_C@_09FAENJFL@MBF_SMART@			; `string'
PUBLIC	??_C@_0L@JHBFAMB@MBF_CAMERA@			; `string'
PUBLIC	??_C@_08CIEGLDP@MBF_AUTO@			; `string'
PUBLIC	??_C@_08BLLANCB@MBF_MOVE@			; `string'
PUBLIC	??_C@_09BKODCCAJ@MBS_CLICK@			; `string'
PUBLIC	??_C@_09JEJKPPEO@MBS_PRESS@			; `string'
PUBLIC	??_C@_08OMNIMJHC@MBT_LEFT@			; `string'
PUBLIC	??_C@_09DBJMODBC@MBT_RIGHT@			; `string'
PUBLIC	??_C@_0BE@BNOEBHPE@SLOT_TYPE_INVENTORY@		; `string'
PUBLIC	??_C@_0P@JBDPGPGM@SLOT_TYPE_NONE@		; `string'
PUBLIC	??_C@_0P@KCOPIIMF@SLOT_TYPE_SHOP@		; `string'
PUBLIC	??_C@_0BA@MAJHKGKG@SLOT_TYPE_SKILL@		; `string'
PUBLIC	??_C@_0BK@KJHLAGBH@SLOT_TYPE_EXCHANGE_TARGET@	; `string'
PUBLIC	??_C@_0BJ@DBNHPJKE@SLOT_TYPE_EXCHANGE_OWNER@	; `string'
PUBLIC	??_C@_0BC@HGKFDIFN@SLOT_TYPE_SAFEBOX@		; `string'
PUBLIC	??_C@_0BF@CPPFMLHN@SLOT_TYPE_QUICK_SLOT@	; `string'
PUBLIC	??_C@_0P@OEAGANKI@SLOT_TYPE_MALL@		; `string'
PUBLIC	??_C@_0BH@MJAEADNE@SLOT_TYPE_PRIVATE_SHOP@	; `string'
PUBLIC	??_C@_0CA@FHKIPOOP@SLOT_TYPE_DRAGON_SOUL_INVENTORY@ ; `string'
PUBLIC	??_C@_0BC@LKMHLHKJ@SLOT_TYPE_EMOTION@		; `string'
PUBLIC	??_C@_0BP@KGAMMBDG@SLOT_TYPE_SKILL_BOOK_INVENTORY@ ; `string'
PUBLIC	??_C@_0BJ@BIEENKEI@SLOT_TYPE_BELT_INVENTORY@	; `string'
PUBLIC	??_C@_0BK@OKEJBABA@SLOT_TYPE_STONE_INVENTORY@	; `string'
PUBLIC	??_C@_0CC@PPMGELGN@SLOT_TYPE_UPGRADE_ITEMS_INVENTO@ ; `string'
PUBLIC	??_C@_0BN@CIDENILN@SLOT_TYPE_CHANGERS_INVENTORY@ ; `string'
PUBLIC	??_C@_0BN@HAJHAAOF@SLOT_TYPE_GIFT_BOX_INVENTORY@ ; `string'
PUBLIC	??_C@_09NCAHJFFG@INVENTORY@			; `string'
PUBLIC	??_C@_0BA@NKAFFIGF@RESERVED_WINDOW@		; `string'
PUBLIC	??_C@_07NCKDBJCB@SAFEBOX@			; `string'
PUBLIC	??_C@_09GJGOMHMK@EQUIPMENT@			; `string'
PUBLIC	??_C@_0BG@FHEDCCNN@DRAGON_SOUL_INVENTORY@	; `string'
PUBLIC	??_C@_04JPFKNPOP@MALL@				; `string'
PUBLIC	??_C@_06GKBINIEJ@GROUND@			; `string'
PUBLIC	??_C@_0P@LCDFMNHG@BELT_INVENTORY@		; `string'
PUBLIC	??_C@_0BE@DINLJOM@SLOT_TYPE_SWITCHBOT@		; `string'
PUBLIC	??_C@_09MMGODLEO@SWITCHBOT@			; `string'
PUBLIC	??_C@_0BA@POJPOEAE@ITEM_SLOT_COUNT@		; `string'
PUBLIC	??_C@_0BG@KJHPGJKN@SLOT_TYPE_CHANGE_LOOK@	; `string'
PUBLIC	??_C@_0BI@HKKDBHO@TRANSMUTATION_TYPE_ITEM@	; `string'
PUBLIC	??_C@_0BJ@LHJDGDBJ@TRANSMUTATION_TYPE_MOUNT@	; `string'
PUBLIC	??_C@_0BB@IOEKBHAE@SKILL_SLOT_COUNT@		; `string'
PUBLIC	??_C@_0L@HFAEBHHD@ITEM_MONEY@			; `string'
PUBLIC	??_C@_0BH@FCKCIMBH@METIN_SOCKET_TYPE_NONE@	; `string'
PUBLIC	??_C@_0M@CHLINENA@EFFECT_PICK@			; `string'
PUBLIC	??_C@_0BH@EFCNALEJ@METIN_SOCKET_TYPE_GOLD@	; `string'
PUBLIC	??_C@_0BJ@PHGNNMMA@METIN_SOCKET_TYPE_SILVER@	; `string'
PUBLIC	??_C@_0BI@BJGENDOO@ATTRIBUTE_SLOT_NORM_NUM@	; `string'
PUBLIC	??_C@_0BF@HOKBLOCN@METIN_SOCKET_MAX_NUM@	; `string'
PUBLIC	??_C@_0BK@KGDGKBKL@ATTRIBUTE_SLOT_NORM_START@	; `string'
PUBLIC	??_C@_0BI@KKEJPCNE@ATTRIBUTE_SLOT_RARE_NUM@	; `string'
PUBLIC	??_C@_0BK@MPPGNMKB@ATTRIBUTE_SLOT_RARE_START@	; `string'
PUBLIC	??_C@_0BI@PNEKDDH@ATTRIBUTE_SLOT_NORM_END@	; `string'
PUBLIC	??_C@_0BH@BPEONNLD@ATTRIBUTE_SLOT_MAX_NUM@	; `string'
PUBLIC	??_C@_0BI@LMPJICAN@ATTRIBUTE_SLOT_RARE_END@	; `string'
PUBLIC	??_C@_0M@FNDEJPGN@REFINE_CANT@			; `string'
PUBLIC	??_C@_0BK@MOFNOJPN@COSTUME_ATTRIBUTE_MAX_NUM@	; `string'
PUBLIC	??_C@_0CA@CPLGFHBD@REFINE_ALREADY_MAX_SOCKET_COUNT@ ; `string'
PUBLIC	??_C@_09FFJEIDJG@REFINE_OK@			; `string'
PUBLIC	??_C@_0BN@JPDLJDPD@REFINE_CANT_MAKE_SOCKET_ITEM@ ; `string'
PUBLIC	??_C@_0BN@FMBLMMOD@REFINE_NEED_MORE_GOOD_SCROLL@ ; `string'
PUBLIC	??_C@_0CG@LFLLDFCE@REFINE_CANT_REFINE_METIN_TO_EQU@ ; `string'
PUBLIC	??_C@_0BL@EILCCEPE@REFINE_NOT_NEXT_GRADE_ITEM@	; `string'
PUBLIC	??_C@_0BC@CBCJMHP@ATTACH_METIN_CANT@		; `string'
PUBLIC	??_C@_0BH@OENPPLJB@REFINE_CANT_REFINE_ROD@	; `string'
PUBLIC	??_C@_0CA@OFAKGLFM@ATTACH_METIN_NOT_MATCHABLE_ITEM@ ; `string'
PUBLIC	??_C@_0BA@HOJAFGB@ATTACH_METIN_OK@		; `string'
PUBLIC	??_C@_0CD@JNOPKOFJ@ATTACH_METIN_NOT_EXIST_GOLD_SOC@ ; `string'
PUBLIC	??_C@_0CB@MAILDNNI@ATTACH_METIN_NO_MATCHABLE_SOCKE@ ; `string'
PUBLIC	??_C@_0BC@HGBPKPKG@DETACH_METIN_CANT@		; `string'
PUBLIC	??_C@_0CG@BCIFDNEM@ATTACH_METIN_CANT_ATTACH_TO_EQU@ ; `string'
PUBLIC	??_C@_0BD@PNFBHDHD@PARTY_STATE_NORMAL@		; `string'
PUBLIC	??_C@_0BA@IACJJMNA@DETACH_METIN_OK@		; `string'
PUBLIC	??_C@_0BF@DOKPPLCL@PARTY_STATE_ATTACKER@	; `string'
PUBLIC	??_C@_0BD@ECFFHEOH@PARTY_STATE_LEADER@		; `string'
PUBLIC	??_C@_0BD@JJFBJLK@PARTY_STATE_BUFFER@		; `string'
PUBLIC	??_C@_0BD@FHMGGDNP@PARTY_STATE_TANKER@		; `string'
PUBLIC	??_C@_0BG@LCNEBE@PARTY_STATE_BERSERKER@		; `string'
PUBLIC	??_C@_0BJ@EIPCPJKC@PARTY_STATE_SKILL_MASTER@	; `string'
PUBLIC	??_C@_0BE@KCLJFDCO@PARTY_STATE_MAX_NUM@		; `string'
PUBLIC	??_C@_0BF@PAKJEMH@PARTY_STATE_DEFENDER@		; `string'
PUBLIC	??_C@_0BE@HANBCKAH@SKILL_INDEX_FISHING@		; `string'
PUBLIC	??_C@_0BE@MNBFKLPI@SKILL_INDEX_TONGSOL@		; `string'
PUBLIC	??_C@_0BD@IBJDJMEL@SKILL_INDEX_MAKING@		; `string'
PUBLIC	??_C@_0BD@KFCAJBFG@SKILL_INDEX_MINING@		; `string'
PUBLIC	??_C@_0BG@GPLOFEKK@SKILL_INDEX_LANGUAGE1@	; `string'
PUBLIC	??_C@_0BC@HACNAMIK@SKILL_INDEX_COMBO@		; `string'
PUBLIC	??_C@_0BG@FNIIDGCI@SKILL_INDEX_LANGUAGE3@	; `string'
PUBLIC	??_C@_0BG@EEJDAHGJ@SKILL_INDEX_LANGUAGE2@	; `string'
PUBLIC	??_C@_0BD@HOAGGFNA@SKILL_INDEX_RIDING@		; `string'
PUBLIC	??_C@_0BG@DMEIDEKO@SKILL_INDEX_POLYMORPH@	; `string'
PUBLIC	??_C@_0O@BIPAMBIG@PK_MODE_PEACE@		; `string'
PUBLIC	??_C@_0BD@POBHIINM@SKILL_INDEX_SUMMON@		; `string'
PUBLIC	??_C@_0N@DCANEGJG@PK_MODE_FREE@			; `string'
PUBLIC	??_C@_0BA@HNNGLCOB@PK_MODE_REVENGE@		; `string'
PUBLIC	??_C@_0O@LBDADKLE@PK_MODE_GUILD@		; `string'
PUBLIC	??_C@_0BA@GHACPGHA@PK_MODE_PROTECT@		; `string'
PUBLIC	??_C@_0P@CDMGAFPE@BLOCK_EXCHANGE@		; `string'
PUBLIC	??_C@_0BA@OLCDKGDA@PK_MODE_MAX_NUM@		; `string'
PUBLIC	??_C@_0M@EEMDCMKA@BLOCK_GUILD@			; `string'
PUBLIC	??_C@_0M@KFDBGBIL@BLOCK_PARTY@			; `string'
PUBLIC	??_C@_0N@IJGKBLJF@BLOCK_FRIEND@			; `string'
PUBLIC	??_C@_0O@CFHKOIIK@BLOCK_WHISPER@		; `string'
PUBLIC	??_C@_0BD@ICDJFAGE@BLOCK_WARP_REQUEST@		; `string'
PUBLIC	??_C@_0BE@NDGMABKO@BLOCK_PARTY_REQUEST@		; `string'
PUBLIC	??_C@_0BO@CBJBDFJC@PARTY_EXP_DISTRIBUTION_PARITY@ ; `string'
PUBLIC	??_C@_0BL@OELLICOI@PARTY_EXP_NON_DISTRIBUTION@	; `string'
PUBLIC	??_C@_0BB@MCMBOGFC@EMOTION_CHEERS_1@		; `string'
PUBLIC	??_C@_0N@GFLIEIGE@EMOTION_CLAP@			; `string'
PUBLIC	??_C@_0BA@CLHGMEE@EMOTION_DANCE_1@		; `string'
PUBLIC	??_C@_0BB@OJOMLFJB@EMOTION_CHEERS_2@		; `string'
PUBLIC	??_C@_0BA@DAIBAOMG@EMOTION_DANCE_3@		; `string'
PUBLIC	??_C@_0BA@CJJKDPIH@EMOTION_DANCE_2@		; `string'
PUBLIC	??_C@_0BA@GGNLKJEA@EMOTION_DANCE_5@		; `string'
PUBLIC	??_C@_0BA@HPMAJIAB@EMOTION_DANCE_4@		; `string'
PUBLIC	??_C@_0BH@FIIEKKHF@EMOTION_CONGRATULATION@	; `string'
PUBLIC	??_C@_0BA@ENPGPKID@EMOTION_DANCE_6@		; `string'
PUBLIC	??_C@_0BA@FEONMLMC@EMOTION_DANCE_7@		; `string'
PUBLIC	??_C@_0P@EGOAAOEC@EMOTION_SELFIE@		; `string'
PUBLIC	??_C@_0BB@PDNONAIP@EMOTION_EXERCISE@		; `string'
PUBLIC	??_C@_0N@OCOLJBBP@EMOTION_DOZE@			; `string'
PUBLIC	??_C@_0BC@DCPHBGDN@EMOTION_EMOTION_1@		; `string'
PUBLIC	??_C@_0P@FEDINNCE@EMOTION_PUSHUP@		; `string'
PUBLIC	??_C@_0BC@MBHELP@EMOTION_EMOTION_3@		; `string'
PUBLIC	??_C@_0BC@BJNKEFPO@EMOTION_EMOTION_2@		; `string'
PUBLIC	??_C@_0BC@FGJLNDDJ@EMOTION_EMOTION_5@		; `string'
PUBLIC	??_C@_0BC@EPIAOCHI@EMOTION_EMOTION_4@		; `string'
PUBLIC	??_C@_0BC@GEKNLBLL@EMOTION_EMOTION_7@		; `string'
PUBLIC	??_C@_0BC@HNLGIAPK@EMOTION_EMOTION_6@		; `string'
PUBLIC	??_C@_0BC@PKCOJMDF@EMOTION_EMOTION_9@		; `string'
PUBLIC	??_C@_0BC@ODDFKNHE@EMOTION_EMOTION_8@		; `string'
PUBLIC	??_C@_0BD@JOAHLMLF@EMOTION_EMOTION_11@		; `string'
PUBLIC	??_C@_0BD@IHBMINPE@EMOTION_EMOTION_10@		; `string'
PUBLIC	??_C@_0BD@KMDBNODH@EMOTION_EMOTION_13@		; `string'
PUBLIC	??_C@_0BD@LFCKOPHG@EMOTION_EMOTION_12@		; `string'
PUBLIC	??_C@_0BD@PKGLHJLB@EMOTION_EMOTION_15@		; `string'
PUBLIC	??_C@_0BD@ODHAEIPA@EMOTION_EMOTION_14@		; `string'
PUBLIC	??_C@_0BD@MIFNBLDD@EMOTION_EMOTION_17@		; `string'
PUBLIC	??_C@_0BD@NBEGCKHC@EMOTION_EMOTION_16@		; `string'
PUBLIC	??_C@_0BD@FGNODGLN@EMOTION_EMOTION_19@		; `string'
PUBLIC	??_C@_0BD@EPMFAHPM@EMOTION_EMOTION_18@		; `string'
PUBLIC	??_C@_0BD@JMEBACOM@EMOTION_EMOTION_21@		; `string'
PUBLIC	??_C@_0BD@IFFKDDKN@EMOTION_EMOTION_20@		; `string'
PUBLIC	??_C@_0O@DACEICMN@EMOTION_ANGRY@		; `string'
PUBLIC	??_C@_0BA@JPGNEMIB@EMOTION_FORGIVE@		; `string'
PUBLIC	??_C@_0M@EGEMMDCF@EMOTION_SAD@			; `string'
PUBLIC	??_C@_0BD@FLNIBF@EMOTION_ATTRACTIVE@		; `string'
PUBLIC	??_C@_0BA@MENCJFPL@EMOTION_CHEERUP@		; `string'
PUBLIC	??_C@_0M@LGPBJELG@EMOTION_SHY@			; `string'
PUBLIC	??_C@_0M@JOKPJKCG@EMOTION_JOY@			; `string'
PUBLIC	??_C@_0P@JAJBGKKI@EMOTION_BANTER@		; `string'
PUBLIC	??_C@_0BE@KCAKKBPE@EMOTION_FRENCH_KISS@		; `string'
PUBLIC	??_C@_0N@FGJJNHEK@EMOTION_KISS@			; `string'
PUBLIC	??_C@_0BE@LLABJENL@AUTO_POTION_TYPE_HP@		; `string'
PUBLIC	??_C@_0N@FFINPOG@EMOTION_SLAP@			; `string'
PUBLIC	??_C@_0BG@FEPFCIIM@DRAGON_SOUL_PAGE_SIZE@	; `string'
PUBLIC	??_C@_0BE@KLHCNIEK@AUTO_POTION_TYPE_SP@		; `string'
PUBLIC	??_C@_0BH@IFPINEOD@DRAGON_SOUL_SLOT_COUNT@	; `string'
PUBLIC	??_C@_0BH@OCCNKKPP@DRAGON_SOUL_PAGE_COUNT@	; `string'
PUBLIC	??_C@_0CB@GAHKEECK@DRAGON_SOUL_EQUIPMENT_PAGE_COUN@ ; `string'
PUBLIC	??_C@_0CB@NJAOAEOC@DRAGON_SOUL_EQUIPMENT_SLOT_STAR@ ; `string'
PUBLIC	??_C@_0BJ@MMGGGOHJ@DRAGON_SOUL_REFINE_CLOSE@	; `string'
PUBLIC	??_C@_0CB@OIFHBJMG@DRAGON_SOUL_EQUIPMENT_FIRST_SIZ@ ; `string'
PUBLIC	??_C@_0BN@PCPINHKH@DS_SUB_HEADER_DO_IMPROVEMENT@ ; `string'
PUBLIC	??_C@_0BJ@JKFAJIJN@DS_SUB_HEADER_DO_UPGRADE@	; `string'
PUBLIC	??_C@_0BB@KDMFEIAD@REVIVE_TYPE_HERE@		; `string'
PUBLIC	??_C@_0BI@NHBOLMGK@DS_SUB_HEADER_DO_REFINE@	; `string'
PUBLIC	??_C@_0BG@MNLBEPAN@REVIVE_TYPE_AUTO_TOWN@	; `string'
PUBLIC	??_C@_0BB@IMFHMJME@REVIVE_TYPE_TOWN@		; `string'
PUBLIC	??_C@_05BANMFAOM@COINS@				; `string'
PUBLIC	??_C@_0BA@LFMGHCBJ@REVIVE_TYPE_MAX@		; `string'
PUBLIC	??_C@_0BA@DMHIDAHJ@HORSE_MAX_LEVEL@		; `string'
PUBLIC	??_C@_0BL@MNIINOMA@AUTOMATIC_PICK_UP_ACTIVATE@	; `string'
PUBLIC	??_C@_0BA@NJHEAJMG@ON_TOP_WND_SHOP@		; `string'
PUBLIC	??_C@_0BA@OKKEOOGP@ON_TOP_WND_NONE@		; `string'
PUBLIC	??_C@_0BD@DBKGGFLJ@ON_TOP_WND_SAFEBOX@		; `string'
PUBLIC	??_C@_0BE@IFGMMCHH@ON_TOP_WND_EXCHANGE@		; `string'
PUBLIC	??_C@_0BF@GOBPEOGN@ON_TOP_WND_ITEM_COMB@	; `string'
PUBLIC	??_C@_0BI@JAEJNCCP@ON_TOP_WND_PRIVATE_SHOP@	; `string'
PUBLIC	??_C@_0BI@GLAKGGPH@ON_TOP_WND_ACCE_COMBINE@	; `string'
PUBLIC	??_C@_0BE@EHJBMPOO@ON_TOP_WND_PET_FEED@		; `string'
PUBLIC	??_C@_0BL@KJLPEENL@ON_TOP_WND_PET_ATTR_CHANGE@	; `string'
PUBLIC	??_C@_0BH@NNPMEGBL@ON_TOP_WND_ACCE_ABSORB@	; `string'
PUBLIC	??_C@_0BN@ELAPKHPA@REFINE_CANT_REFINE_AURA_ITEM@ ; `string'
PUBLIC	??_C@_0CB@NFMKANIJ@ON_TOP_WND_PET_PRIMIUM_FEEDSTUF@ ; `string'
PUBLIC	??_C@_0M@PDHBNBKH@AURA_REFINE@			; `string'
PUBLIC	??_C@_0P@FNJLNAFG@SLOT_TYPE_AURA@		; `string'
PUBLIC	??_C@_0P@PDNCLEMB@AURA_SLOT_MAIN@		; `string'
PUBLIC	??_C@_0P@MFDEBDB@AURA_MAX_LEVEL@		; `string'
PUBLIC	??_C@_0BB@BOPFHPDA@AURA_SLOT_RESULT@		; `string'
PUBLIC	??_C@_0O@LCLMBHEO@AURA_SLOT_SUB@		; `string'
PUBLIC	??_C@_0BI@IFHNBPDE@AURA_WINDOW_TYPE_ABSORB@	; `string'
PUBLIC	??_C@_0O@KJHIMGJF@AURA_SLOT_MAX@		; `string'
PUBLIC	??_C@_0BI@BGJIJANM@AURA_WINDOW_TYPE_EVOLVE@	; `string'
PUBLIC	??_C@_0BI@CLKELJFO@AURA_WINDOW_TYPE_GROWTH@	; `string'
PUBLIC	??_C@_0BO@JIFCGECJ@AURA_REFINE_INFO_SLOT_CURRENT@ ; `string'
PUBLIC	??_C@_0BF@DEACKNDL@AURA_WINDOW_TYPE_MAX@	; `string'
PUBLIC	??_C@_0BO@LHGEKFE@AURA_REFINE_INFO_SLOT_EVOLVED@ ; `string'
PUBLIC	??_C@_0BL@LDIPHABL@AURA_REFINE_INFO_SLOT_NEXT@	; `string'
PUBLIC	??_C@_0BL@NLGLHECL@AURA_REFINE_INFO_LEVEL_MIN@	; `string'
PUBLIC	??_C@_0BG@LFHCGDMM@AURA_REFINE_INFO_STEP@	; `string'
PUBLIC	??_C@_0BK@GLEMHOOH@AURA_REFINE_INFO_NEED_EXP@	; `string'
PUBLIC	??_C@_0BL@MJOAJAEE@AURA_REFINE_INFO_LEVEL_MAX@	; `string'
PUBLIC	??_C@_0CA@GCLPEEL@AURA_REFINE_INFO_MATERIAL_COUNT@ ; `string'
PUBLIC	??_C@_0BP@MKNGONPM@AURA_REFINE_INFO_MATERIAL_VNUM@ ; `string'
PUBLIC	??_C@_0BM@IEECEMNC@AURA_REFINE_INFO_EVOLVE_PCT@	; `string'
PUBLIC	??_C@_0BL@ICCNHPG@AURA_REFINE_INFO_NEED_GOLD@	; `string'
PUBLIC	??_C@_0BP@EMKIFIGK@ITEM_SOCKET_AURA_CURRENT_LEVEL@ ; `string'
PUBLIC	??_C@_0CB@DCOODGCM@ITEM_SOCKET_AURA_DRAIN_ITEM_VNU@ ; `string'
PUBLIC	??_C@_0BN@NPMDAJNF@ITEM_VALUE_AURA_MATERIAL_EXP@ ; `string'
PUBLIC	??_C@_0BH@LAHGBIBJ@ITEM_SOCKET_AURA_BOOST@	; `string'
PUBLIC	??_C@_0BL@BAPFGKOD@ITEM_VALUE_AURA_BOOST_TIME@	; `string'
PUBLIC	??_C@_0BO@MPFCFKKC@ITEM_VALUE_AURA_BOOST_PERCENT@ ; `string'
PUBLIC	??_C@_08LJKGNBOE@PET_FEED@			; `string'
PUBLIC	??_C@_0CA@CIFBLEK@ITEM_VALUE_AURA_BOOST_UNLIMITED@ ; `string'
PUBLIC	??_C@_0BE@NFLCMMDA@PET_GROWTH_EVOL_MAX@		; `string'
PUBLIC	??_C@_0BC@DMHKNCHI@PET_FEED_SLOT_MAX@		; `string'
PUBLIC	??_C@_0CB@OBCGFKLG@PET_GROWTH_SKILL_OPEN_EVOL_LEVE@ ; `string'
PUBLIC	??_C@_0BL@EIFGHGIE@PET_GROWTH_SKILL_LEVEL_MAX@	; `string'
PUBLIC	??_C@_0BE@JMKAEJNF@PET_SKILL_COUNT_MAX@		; `string'
PUBLIC	??_C@_0BN@BPMCNOMH@PET_REVIVE_MATERIAL_SLOT_MAX@ ; `string'
PUBLIC	??_C@_0BF@OGHAJJKA@SPECIAL_EVOL_MIN_AGE@	; `string'
PUBLIC	??_C@_0BJ@JJGKAJLE@LIFE_TIME_FLASH_MIN_TIME@	; `string'
PUBLIC	??_C@_0P@KMMLDJON@FEED_EXP_EVENT@		; `string'
PUBLIC	??_C@_0BF@FPKOBLCK@FEED_LIFE_TIME_EVENT@	; `string'
PUBLIC	??_C@_0BA@BJMLMPCH@FEED_BUTTON_MAX@		; `string'
PUBLIC	??_C@_0BA@DIFILJDH@FEED_EVOL_EVENT@		; `string'
PUBLIC	??_C@_0BH@DNHCPKPA@PET_WINDOW_ATTR_CHANGE@	; `string'
PUBLIC	??_C@_0BA@BCBOOENP@PET_WINDOW_INFO@		; `string'
PUBLIC	??_C@_0BJ@NBIJKGHG@PET_WND_SLOT_ATTR_CHANGE@	; `string'
PUBLIC	??_C@_0BN@GJGLGIPO@PET_WINDOW_PRIMIUM_FEEDSTUFF@ ; `string'
PUBLIC	??_C@_0CA@CBANDPKJ@PET_WND_SLOT_ATTR_CHANGE_RESULT@ ; `string'
PUBLIC	??_C@_0BO@LHIHOBGL@PET_WND_SLOT_ATTR_CHANGE_ITEM@ ; `string'
PUBLIC	??_C@_0BI@NPPIBKMK@PET_ATTR_DETERMINE_ITEM@	; `string'
PUBLIC	??_C@_0BN@FIDDPHID@PET_WND_SLOT_ATTR_CHANGE_MAX@ ; `string'
PUBLIC	??_C@_0BF@IOMDMJJH@QUICK_SLOT_POS_ERROR@	; `string'
PUBLIC	??_C@_0BF@EGOKNPMG@PET_ATTR_CHANGE_ITEM@	; `string'
PUBLIC	??_C@_0BH@JPEBDBOE@QUICK_SLOT_IS_NOT_ITEM@	; `string'
PUBLIC	??_C@_0BM@CGLKDAAA@QUICK_SLOT_ITEM_USE_SUCCESS@	; `string'
PUBLIC	??_C@_0BP@DJAPKJMJ@QUICK_SLOT_PET_ITEM_USE_FAILED@ ; `string'
PUBLIC	??_C@_0CA@OOHPPNPK@QUICK_SLOT_PET_ITEM_USE_SUCCESS@ ; `string'
PUBLIC	??_C@_0BJ@MEMDNOBC@POINT_BLUE_PLAYER_KILLED@	; `string'
PUBLIC	??_C@_0CA@GCEIFJNM@QUICK_SLOT_CAN_NOT_USE_PET_ITEM@ ; `string'
PUBLIC	??_C@_0BI@GLOEPCDD@POINT_RED_PLAYER_KILLED@	; `string'
PUBLIC	??_C@_0BL@DJJNJMIM@POINT_YELLOW_PLAYER_KILLED@	; `string'
PUBLIC	??_C@_0BD@CPMCNAMN@POINT_KILL_DUELWON@		; `string'
PUBLIC	??_C@_0BI@LNGEGINL@POINT_ALL_PLAYER_KILLED@	; `string'
PUBLIC	??_C@_0BF@IKAAIKND@POINT_MONSTER_KILLED@	; `string'
PUBLIC	??_C@_0BE@DIODHCDN@POINT_KILL_DUELLOST@		; `string'
PUBLIC	??_C@_0BC@JPBCPPBB@POINT_BOSS_KILLED@		; `string'
PUBLIC	??_C@_0BD@OGBKIAOM@POINT_STONE_KILLED@		; `string'
PUBLIC	?availableRuleByGrade@?1??GetAvailableRuleTableByGrade@CBeltInventoryHelper@@SAPBEXZ@4PAEA ; `CBeltInventoryHelper::GetAvailableRuleTableByGrade'::`2'::availableRuleByGrade
EXTRN	__imp__PyDict_Size:PROC
EXTRN	__imp__PyDict_Next:PROC
EXTRN	?PyTuple_GetLong@@YA_NPAU_object@@HPAJ@Z:PROC	; PyTuple_GetLong
EXTRN	?GetWearFlags@CItemData@@QBEKXZ:PROC		; CItemData::GetWearFlags
EXTRN	?HasNextGrade@CItemData@@QBEHXZ:PROC		; CItemData::HasNextGrade
;	COMDAT ?availableRuleByGrade@?1??GetAvailableRuleTableByGrade@CBeltInventoryHelper@@SAPBEXZ@4PAEA
_DATA	SEGMENT
?availableRuleByGrade@?1??GetAvailableRuleTableByGrade@CBeltInventoryHelper@@SAPBEXZ@4PAEA DB 01H ; `CBeltInventoryHelper::GetAvailableRuleTableByGrade'::`2'::availableRuleByGrade
	DB	02H
	DB	04H
	DB	06H
	DB	03H
	DB	03H
	DB	04H
	DB	06H
	DB	05H
	DB	05H
	DB	05H
	DB	06H
	DB	07H
	DB	07H
	DB	07H
	DB	07H
	ORG $+9
_DATA	ENDS
;	COMDAT ?s_methods@?1??initPlayer@@YAXXZ@4PAUPyMethodDef@@A
_DATA	SEGMENT
?s_methods@?1??initPlayer@@YAXXZ@4PAUPyMethodDef@@A DD FLAT:??_C@_0BC@CHIABFDI@GetAutoPotionInfo@ ; `initPlayer'::`2'::s_methods
	DD	FLAT:?playerGetAutoPotionInfo@@YAPAU_object@@PAU1@0@Z
	DD	01H
	ORG $+4
	DD	FLAT:??_C@_0BC@CILJOCG@SetAutoPotionInfo@
	DD	FLAT:?playerSetAutoPotionInfo@@YAPAU_object@@PAU1@0@Z
	DD	01H
	ORG $+4
	DD	FLAT:??_C@_0O@MAEJALBO@PickCloseItem@
	DD	FLAT:?playerPickCloseItem@@YAPAU_object@@PAU1@0@Z
	DD	01H
	ORG $+4
	DD	FLAT:??_C@_0BE@EFMODMFG@PickCloseItemVector@
	DD	FLAT:?playerPickCloseItemVector@@YAPAU_object@@PAU1@0@Z
	DD	01H
	ORG $+4
	DD	FLAT:??_C@_0BI@JOKOCOKN@PickCloseItemAutoVector@
	DD	FLAT:?playerPickCloseItemAutoVector@@YAPAU_object@@PAU1@0@Z
	DD	01H
	ORG $+4
	DD	FLAT:??_C@_0O@MNPFFDEJ@SetGameWindow@
	DD	FLAT:?playerSetGameWindow@@YAPAU_object@@PAU1@0@Z
	DD	01H
	ORG $+4
	DD	FLAT:??_C@_0P@HDADHLLI@RegisterEffect@
	DD	FLAT:?playerRegisterEffect@@YAPAU_object@@PAU1@0@Z
	DD	01H
	ORG $+4
	DD	FLAT:??_C@_0BE@EGCDGLCF@RegisterCacheEffect@
	DD	FLAT:?playerRegisterCacheEffect@@YAPAU_object@@PAU1@0@Z
	DD	01H
	ORG $+4
	DD	FLAT:??_C@_0O@HDELDAFI@SetMouseState@
	DD	FLAT:?playerSetMouseState@@YAPAU_object@@PAU1@0@Z
	DD	01H
	ORG $+4
	DD	FLAT:??_C@_0N@LEJNPCGM@SetMouseFunc@
	DD	FLAT:?playerSetMouseFunc@@YAPAU_object@@PAU1@0@Z
	DD	01H
	ORG $+4
	DD	FLAT:??_C@_0N@MACDDOCA@GetMouseFunc@
	DD	FLAT:?playerGetMouseFunc@@YAPAU_object@@PAU1@0@Z
	DD	01H
	ORG $+4
	DD	FLAT:??_C@_0BK@JBJLNCBH@SetMouseMiddleButtonState@
	DD	FLAT:?playerSetMouseMiddleButtonState@@YAPAU_object@@PAU1@0@Z
	DD	01H
	ORG $+4
	DD	FLAT:??_C@_0BG@JCNMOACA@SetMainCharacterIndex@
	DD	FLAT:?playerSetMainCharacterIndex@@YAPAU_object@@PAU1@0@Z
	DD	01H
	ORG $+4
	DD	FLAT:??_C@_0BG@GHIKDJGB@GetMainCharacterIndex@
	DD	FLAT:?playerGetMainCharacterIndex@@YAPAU_object@@PAU1@0@Z
	DD	01H
	ORG $+4
	DD	FLAT:??_C@_0BF@OMDPKDFM@GetMainCharacterName@
	DD	FLAT:?playerGetMainCharacterName@@YAPAU_object@@PAU1@0@Z
	DD	01H
	ORG $+4
	DD	FLAT:??_C@_0BJ@GIKFEPMH@GetMainCharacterPosition@
	DD	FLAT:?playerGetMainCharacterPosition@@YAPAU_object@@PAU1@0@Z
	DD	01H
	ORG $+4
	DD	FLAT:??_C@_0BF@GALHNOAL@IsMainCharacterIndex@
	DD	FLAT:?playerIsMainCharacterIndex@@YAPAU_object@@PAU1@0@Z
	DD	01H
	ORG $+4
	DD	FLAT:??_C@_0BC@FLPEGJDD@CanAttackInstance@
	DD	FLAT:?playerCanAttackInstance@@YAPAU_object@@PAU1@0@Z
	DD	01H
	ORG $+4
	DD	FLAT:??_C@_0BA@ODCBPOEF@IsActingEmotion@
	DD	FLAT:?playerIsActingEmotion@@YAPAU_object@@PAU1@0@Z
	DD	01H
	ORG $+4
	DD	FLAT:??_C@_0O@ECCODAC@IsPVPInstance@
	DD	FLAT:?playerIsPVPInstance@@YAPAU_object@@PAU1@0@Z
	DD	01H
	ORG $+4
	DD	FLAT:??_C@_0N@CBEDFALN@IsSameEmpire@
	DD	FLAT:?playerIsSameEmpire@@YAPAU_object@@PAU1@0@Z
	DD	01H
	ORG $+4
	DD	FLAT:??_C@_0BE@FOIPHJLO@IsChallengeInstance@
	DD	FLAT:?playerIsChallengeInstance@@YAPAU_object@@PAU1@0@Z
	DD	01H
	ORG $+4
	DD	FLAT:??_C@_0BC@IKOEAPGC@IsRevengeInstance@
	DD	FLAT:?playerIsRevengeInstance@@YAPAU_object@@PAU1@0@Z
	DD	01H
	ORG $+4
	DD	FLAT:??_C@_0BE@HJOMPGKI@IsCantFightInstance@
	DD	FLAT:?playerIsCantFightInstance@@YAPAU_object@@PAU1@0@Z
	DD	01H
	ORG $+4
	DD	FLAT:??_C@_0BF@DABJOKIF@GetCharacterDistance@
	DD	FLAT:?playerGetCharacterDistance@@YAPAU_object@@PAU1@0@Z
	DD	01H
	ORG $+4
	DD	FLAT:??_C@_0N@IKPCBCPA@IsInSafeArea@
	DD	FLAT:?playerIsInSafeArea@@YAPAU_object@@PAU1@0@Z
	DD	01H
	ORG $+4
	DD	FLAT:??_C@_0BA@GFJLKENO@IsMountingHorse@
	DD	FLAT:?playerIsMountingHorse@@YAPAU_object@@PAU1@0@Z
	DD	01H
	ORG $+4
	DD	FLAT:??_C@_0P@LDENHACE@IsObserverMode@
	DD	FLAT:?playerIsObserverMode@@YAPAU_object@@PAU1@0@Z
	DD	01H
	ORG $+4
	DD	FLAT:??_C@_0L@JEBGMNAH@ActEmotion@
	DD	FLAT:?playerActEmotion@@YAPAU_object@@PAU1@0@Z
	DD	01H
	ORG $+4
	DD	FLAT:??_C@_0L@CPMIOCIM@ShowPlayer@
	DD	FLAT:?playerShowPlayer@@YAPAU_object@@PAU1@0@Z
	DD	01H
	ORG $+4
	DD	FLAT:??_C@_0L@PBBGGCLG@HidePlayer@
	DD	FLAT:?playerHidePlayer@@YAPAU_object@@PAU1@0@Z
	DD	01H
	ORG $+4
	DD	FLAT:??_C@_0M@GOCDIKPN@ComboAttack@
	DD	FLAT:?playerComboAttack@@YAPAU_object@@PAU1@0@Z
	DD	01H
	ORG $+4
	DD	FLAT:??_C@_0BL@IEKDAKHC@SetAutoCameraRotationSpeed@
	DD	FLAT:?playerSetAutoCameraRotationSpeed@@YAPAU_object@@PAU1@0@Z
	DD	01H
	ORG $+4
	DD	FLAT:??_C@_0BC@DAIEHFBH@SetAttackKeyState@
	DD	FLAT:?playerSetAttackKeyState@@YAPAU_object@@PAU1@0@Z
	DD	01H
	ORG $+4
	DD	FLAT:??_C@_0BF@PNJNANBI@SetSingleDIKKeyState@
	DD	FLAT:?playerSetSingleDIKKeyState@@YAPAU_object@@PAU1@0@Z
	DD	01H
	ORG $+4
	DD	FLAT:??_C@_0BJ@HGLJKHIH@EndKeyWalkingImmediately@
	DD	FLAT:?playerEndKeyWalkingImmediately@@YAPAU_object@@PAU1@0@Z
	DD	01H
	ORG $+4
	DD	FLAT:??_C@_0BC@NCHFPCDM@StartMouseWalking@
	DD	FLAT:?playerStartMouseWalking@@YAPAU_object@@PAU1@0@Z
	DD	01H
	ORG $+4
	DD	FLAT:??_C@_0BA@JEOKFDLP@EndMouseWalking@
	DD	FLAT:?playerEndMouseWalking@@YAPAU_object@@PAU1@0@Z
	DD	01H
	ORG $+4
	DD	FLAT:??_C@_0BE@MCFGJOPA@ResetCameraRotation@
	DD	FLAT:?playerResetCameraRotation@@YAPAU_object@@PAU1@0@Z
	DD	01H
	ORG $+4
	DD	FLAT:??_C@_0BD@DPHLFGPP@SetQuickCameraMode@
	DD	FLAT:?playerSetQuickCameraMode@@YAPAU_object@@PAU1@0@Z
	DD	01H
	ORG $+4
	DD	FLAT:??_C@_08HIFGFOGG@SetSkill@
	DD	FLAT:?playerSetSkill@@YAPAU_object@@PAU1@0@Z
	DD	01H
	ORG $+4
	DD	FLAT:??_C@_0O@NOICOABO@GetSkillIndex@
	DD	FLAT:?playerGetSkillIndex@@YAPAU_object@@PAU1@0@Z
	DD	01H
	ORG $+4
	DD	FLAT:??_C@_0BC@HNJMANI@GetSkillSlotIndex@
	DD	FLAT:?playerGetSkillSlotIndex@@YAPAU_object@@PAU1@0@Z
	DD	01H
	ORG $+4
	DD	FLAT:??_C@_0O@IIOIANPE@GetSkillGrade@
	DD	FLAT:?playerGetSkillGrade@@YAPAU_object@@PAU1@0@Z
	DD	01H
	ORG $+4
	DD	FLAT:??_C@_0O@CNCBAIPN@GetSkillLevel@
	DD	FLAT:?playerGetSkillLevel@@YAPAU_object@@PAU1@0@Z
	DD	01H
	ORG $+4
	DD	FLAT:??_C@_0CD@EFGGIKHI@GetSkillCurrentEfficientPercent@
	DD	FLAT:?playerGetSkillCurrentEfficientPercentage@@YAPAU_object@@PAU1@0@Z
	DD	01H
	ORG $+4
	DD	FLAT:??_C@_0CA@JHGONPGM@GetSkillNextEfficientPercentage@
	DD	FLAT:?playerGetSkillNextEfficientPercentage@@YAPAU_object@@PAU1@0@Z
	DD	01H
	ORG $+4
	DD	FLAT:??_C@_0P@IGNHDBHH@ClickSkillSlot@
	DD	FLAT:?playerClickSkillSlot@@YAPAU_object@@PAU1@0@Z
	DD	01H
	ORG $+4
	DD	FLAT:??_C@_0BN@BPJDEKED@ChangeCurrentSkillNumberOnly@
	DD	FLAT:?playerChangeCurrentSkillNumberOnly@@YAPAU_object@@PAU1@0@Z
	DD	01H
	ORG $+4
	DD	FLAT:??_C@_0P@MJOJKOJJ@ClearSkillDict@
	DD	FLAT:?playerClearSkillDict@@YAPAU_object@@PAU1@0@Z
	DD	01H
	ORG $+4
	DD	FLAT:??_C@_0BD@GCOFLJAB@DisableToggleSkill@
	DD	FLAT:?playerDisableToggleSkill@@YAPAU_object@@PAU1@0@Z
	DD	01H
	ORG $+4
	DD	FLAT:??_C@_0N@GABOCBEH@GetItemIndex@
	DD	FLAT:?playerGetItemIndex@@YAPAU_object@@PAU1@0@Z
	DD	01H
	ORG $+4
	DD	FLAT:??_C@_0N@DMCGDNGF@GetItemFlags@
	DD	FLAT:?playerGetItemFlags@@YAPAU_object@@PAU1@0@Z
	DD	01H
	ORG $+4
	DD	FLAT:??_C@_0N@LEKALLIG@GetItemCount@
	DD	FLAT:?playerGetItemCount@@YAPAU_object@@PAU1@0@Z
	DD	01H
	ORG $+4
	DD	FLAT:??_C@_0BD@DBLILMFK@GetItemCountByVnum@
	DD	FLAT:?playerGetItemCountByVnum@@YAPAU_object@@PAU1@0@Z
	DD	01H
	ORG $+4
	DD	FLAT:??_C@_0BD@JBOBKHIE@GetItemMetinSocket@
	DD	FLAT:?playerGetItemMetinSocket@@YAPAU_object@@PAU1@0@Z
	DD	01H
	ORG $+4
	DD	FLAT:??_C@_0BB@GOKPPDHH@GetItemAttribute@
	DD	FLAT:?playerGetItemAttribute@@YAPAU_object@@PAU1@0@Z
	DD	01H
	ORG $+4
	DD	FLAT:??_C@_0BC@OKNBBEMG@GetISellItemPrice@
	DD	FLAT:?playerGetISellItemPrice@@YAPAU_object@@PAU1@0@Z
	DD	01H
	ORG $+4
	DD	FLAT:??_C@_08MHJANHDM@MoveItem@
	DD	FLAT:?playerMoveItem@@YAPAU_object@@PAU1@0@Z
	DD	01H
	ORG $+4
	DD	FLAT:??_C@_0BE@DBIFLBAC@SendClickItemPacket@
	DD	FLAT:?playerSendClickItemPacket@@YAPAU_object@@PAU1@0@Z
	DD	01H
	ORG $+4
	DD	FLAT:??_C@_07MMGEHGCI@GetName@
	DD	FLAT:?playerGetName@@YAPAU_object@@PAU1@0@Z
	DD	01H
	ORG $+4
	DD	FLAT:??_C@_06FHLNIOPB@GetJob@
	DD	FLAT:?playerGetJob@@YAPAU_object@@PAU1@0@Z
	DD	01H
	ORG $+4
	DD	FLAT:??_C@_07GDOKCBKB@GetRace@
	DD	FLAT:?playerGetRace@@YAPAU_object@@PAU1@0@Z
	DD	01H
	ORG $+4
	DD	FLAT:??_C@_0M@DJDCIBLO@GetPlayTime@
	DD	FLAT:?playerGetPlayTime@@YAPAU_object@@PAU1@0@Z
	DD	01H
	ORG $+4
	DD	FLAT:??_C@_0M@DGCMFHDN@SetPlayTime@
	DD	FLAT:?playerSetPlayTime@@YAPAU_object@@PAU1@0@Z
	DD	01H
	ORG $+4
	DD	FLAT:??_C@_0BA@FOPKKJJD@IsSkillCoolTime@
	DD	FLAT:?playerIsSkillCoolTime@@YAPAU_object@@PAU1@0@Z
	DD	01H
	ORG $+4
	DD	FLAT:??_C@_0BB@CNGGKNGL@GetSkillCoolTime@
	DD	FLAT:?playerGetSkillCoolTime@@YAPAU_object@@PAU1@0@Z
	DD	01H
	ORG $+4
	DD	FLAT:??_C@_0O@IAPCJJAC@IsSkillActive@
	DD	FLAT:?playerIsSkillActive@@YAPAU_object@@PAU1@0@Z
	DD	01H
	ORG $+4
	DD	FLAT:??_C@_0O@HHBOBCLE@UseGuildSkill@
	DD	FLAT:?playerUseGuildSkill@@YAPAU_object@@PAU1@0@Z
	DD	01H
	ORG $+4
	DD	FLAT:??_C@_0BI@JIGEMOFF@AffectIndexToSkillIndex@
	DD	FLAT:?playerAffectIndexToSkillIndex@@YAPAU_object@@PAU1@0@Z
	DD	01H
	ORG $+4
	DD	FLAT:??_C@_06MDIKDJMD@GetEXP@
	DD	FLAT:?playerGetEXP@@YAPAU_object@@PAU1@0@Z
	DD	01H
	ORG $+4
	DD	FLAT:??_C@_08MDGBDPHC@GetLevel@
	DD	FLAT:?playerGetLevel@@YAPAU_object@@PAU1@0@Z
	DD	01H
	ORG $+4
	DD	FLAT:??_C@_09MKFEIFJE@GetStatus@
	DD	FLAT:?playerGetStatus@@YAPAU_object@@PAU1@0@Z
	DD	01H
	ORG $+4
	DD	FLAT:??_C@_09OEBBKEAG@SetStatus@
	DD	FLAT:?playerSetStatus@@YAPAU_object@@PAU1@0@Z
	DD	01H
	ORG $+4
	DD	FLAT:??_C@_06NMFKJLLH@GetElk@
	DD	FLAT:?playerGetElk@@YAPAU_object@@PAU1@0@Z
	DD	01H
	ORG $+4
	DD	FLAT:??_C@_08OAJFGNBC@GetMoney@
	DD	FLAT:?playerGetElk@@YAPAU_object@@PAU1@0@Z
	DD	01H
	ORG $+4
	DD	FLAT:??_C@_08LBPCDDLA@GetCoins@
	DD	FLAT:?playerGetCoins@@YAPAU_object@@PAU1@0@Z
	DD	01H
	ORG $+4
	DD	FLAT:??_C@_0L@EAKBLDCO@GetGuildID@
	DD	FLAT:?playerGetGuildID@@YAPAU_object@@PAU1@0@Z
	DD	01H
	ORG $+4
	DD	FLAT:??_C@_0N@CECGOPDG@GetGuildName@
	DD	FLAT:?playerGetGuildName@@YAPAU_object@@PAU1@0@Z
	DD	01H
	ORG $+4
	DD	FLAT:??_C@_0BB@LANDCIKG@GetAlignmentData@
	DD	FLAT:?playerGetAlignmentData@@YAPAU_object@@PAU1@0@Z
	DD	01H
	ORG $+4
	DD	FLAT:??_C@_0BJ@DNLGAMEO@RequestAddLocalQuickSlot@
	DD	FLAT:?playerRequestAddLocalQuickSlot@@YAPAU_object@@PAU1@0@Z
	DD	01H
	ORG $+4
	DD	FLAT:??_C@_0CA@JMFCJJPL@RequestAddToEmptyLocalQuickSlot@
	DD	FLAT:?playerRequestAddToEmptyLocalQuickSlot@@YAPAU_object@@PAU1@0@Z
	DD	01H
	ORG $+4
	DD	FLAT:??_C@_0BN@NACLJDMA@RequestDeleteGlobalQuickSlot@
	DD	FLAT:?playerRequestDeleteGlobalQuickSlot@@YAPAU_object@@PAU1@0@Z
	DD	01H
	ORG $+4
	DD	FLAT:??_C@_0CL@IEMBKGLN@RequestMoveGlobalQuickSlotToLoc@
	DD	FLAT:?playerRequestMoveGlobalQuickSlotToLocalQuickSlot@@YAPAU_object@@PAU1@0@Z
	DD	01H
	ORG $+4
	DD	FLAT:??_C@_0BJ@IBBGPDPH@RequestUseLocalQuickSlot@
	DD	FLAT:?playerRequestUseLocalQuickSlot@@YAPAU_object@@PAU1@0@Z
	DD	01H
	ORG $+4
	DD	FLAT:??_C@_0CK@GNGKFIDB@LocalQuickSlotIndexToGlobalQuic@
	DD	FLAT:?playerLocalQuickSlotIndexToGlobalQuickSlotIndex@@YAPAU_object@@PAU1@0@Z
	DD	01H
	ORG $+4
	DD	FLAT:??_C@_0BB@JKIMCMDG@IsAntiFlagBySlot@
	DD	FLAT:?playerIsAntiFlagBySlot@@YAPAU_object@@PAU1@0@Z
	DD	01H
	ORG $+4
	DD	FLAT:??_C@_0BC@PGIBMCKF@GetItemTypeBySlot@
	DD	FLAT:?playerGetItemTypeBySlot@@YAPAU_object@@PAU1@0@Z
	DD	01H
	ORG $+4
	DD	FLAT:??_C@_0BF@HFKGNAOK@GetItemSubTypeBySlot@
	DD	FLAT:?playerGetItemSubTypeBySlot@@YAPAU_object@@PAU1@0@Z
	DD	01H
	ORG $+4
	DD	FLAT:??_C@_0P@HAJODJLN@IsSameItemVnum@
	DD	FLAT:?playerIsSameItemVnum@@YAPAU_object@@PAU1@0@Z
	DD	01H
	ORG $+4
	DD	FLAT:??_C@_0N@NLMPHAJA@GetQuickPage@
	DD	FLAT:?playerGetQuickPage@@YAPAU_object@@PAU1@0@Z
	DD	01H
	ORG $+4
	DD	FLAT:??_C@_0N@KPHBLMNM@SetQuickPage@
	DD	FLAT:?playerSetQuickPage@@YAPAU_object@@PAU1@0@Z
	DD	01H
	ORG $+4
	DD	FLAT:??_C@_0BC@LNKMMBDG@GetLocalQuickSlot@
	DD	FLAT:?playerGetLocalQuickSlot@@YAPAU_object@@PAU1@0@Z
	DD	01H
	ORG $+4
	DD	FLAT:??_C@_0BD@ECGPDHPA@GetGlobalQuickSlot@
	DD	FLAT:?playerGetGlobalQuickSlot@@YAPAU_object@@PAU1@0@Z
	DD	01H
	ORG $+4
	DD	FLAT:??_C@_0BH@JNCIKJMC@RemoveQuickSlotByValue@
	DD	FLAT:?playerRemoveQuickSlotByValue@@YAPAU_object@@PAU1@0@Z
	DD	01H
	ORG $+4
	DD	FLAT:??_C@_06NOPKEHAK@isItem@
	DD	FLAT:?playerisItem@@YAPAU_object@@PAU1@0@Z
	DD	01H
	ORG $+4
	DD	FLAT:??_C@_0BA@EMKHGGAL@IsEquipmentSlot@
	DD	FLAT:?playerIsEquipmentSlot@@YAPAU_object@@PAU1@0@Z
	DD	01H
	ORG $+4
	DD	FLAT:??_C@_0BC@DDCIGDKO@IsDSEquipmentSlot@
	DD	FLAT:?playerIsDSEquipmentSlot@@YAPAU_object@@PAU1@0@Z
	DD	01H
	ORG $+4
	DD	FLAT:??_C@_0O@KCAGNEAI@IsCostumeSlot@
	DD	FLAT:?playerIsCostumeSlot@@YAPAU_object@@PAU1@0@Z
	DD	01H
	ORG $+4
	DD	FLAT:??_C@_0P@LAJFBPPH@IsValuableItem@
	DD	FLAT:?playerIsValuableItem@@YAPAU_object@@PAU1@0@Z
	DD	01H
	ORG $+4
	DD	FLAT:??_C@_0BC@DCFDMADN@IsOpenPrivateShop@
	DD	FLAT:?playerIsOpenPrivateShop@@YAPAU_object@@PAU1@0@Z
	DD	01H
	ORG $+4
	DD	FLAT:??_C@_0BE@HECMLJG@IsBeltInventorySlot@
	DD	FLAT:?playerIsBeltInventorySlot@@YAPAU_object@@PAU1@0@Z
	DD	01H
	ORG $+4
	DD	FLAT:??_C@_0BA@OBALOJLG@IsEquippingBelt@
	DD	FLAT:?playerIsEquippingBelt@@YAPAU_object@@PAU1@0@Z
	DD	01H
	ORG $+4
	DD	FLAT:??_C@_0BN@DKGNHJIB@IsAvailableBeltInventoryCell@
	DD	FLAT:?playerIsAvailableBeltInventoryCell@@YAPAU_object@@PAU1@0@Z
	DD	01H
	ORG $+4
	DD	FLAT:??_C@_0BJ@CPJJHAGD@IsSkillBookInventorySlot@
	DD	FLAT:?playerIsSkillBookInventorySlot@@YAPAU_object@@PAU1@0@Z
	DD	01H
	ORG $+4
	DD	FLAT:??_C@_0BM@FCEMHHI@IsUpgradeItemsInventorySlot@
	DD	FLAT:?playerIsUpgradeItemsInventorySlot@@YAPAU_object@@PAU1@0@Z
	DD	01H
	ORG $+4
	DD	FLAT:??_C@_0BF@LJHNJJLN@IsStoneInventorySlot@
	DD	FLAT:?playerIsStoneInventorySlot@@YAPAU_object@@PAU1@0@Z
	DD	01H
	ORG $+4
	DD	FLAT:??_C@_0BH@IDMOLEIA@IsGiftBoxInventorySlot@
	DD	FLAT:?playerIsGiftBoxInventorySlot@@YAPAU_object@@PAU1@0@Z
	DD	01H
	ORG $+4
	DD	FLAT:??_C@_0BI@FMKBEPGC@IsChangersInventorySlot@
	DD	FLAT:?playerIsChangersInventorySlot@@YAPAU_object@@PAU1@0@Z
	DD	01H
	ORG $+4
	DD	FLAT:??_C@_0N@DGHEMMKN@GetItemGrade@
	DD	FLAT:?playerGetItemGrade@@YAPAU_object@@PAU1@0@Z
	DD	01H
	ORG $+4
	DD	FLAT:??_C@_09BGNCJJP@CanRefine@
	DD	FLAT:?playerCanRefine@@YAPAU_object@@PAU1@0@Z
	DD	01H
	ORG $+4
	DD	FLAT:??_C@_09GHIBIBHI@CanDetach@
	DD	FLAT:?playerCanDetach@@YAPAU_object@@PAU1@0@Z
	DD	01H
	ORG $+4
	DD	FLAT:??_C@_09FHINBOHC@CanUnlock@
	DD	FLAT:?playerCanUnlock@@YAPAU_object@@PAU1@0@Z
	DD	01H
	ORG $+4
	DD	FLAT:??_C@_0P@BLOGPKFO@CanAttachMetin@
	DD	FLAT:?playerCanAttachMetin@@YAPAU_object@@PAU1@0@Z
	DD	01H
	ORG $+4
	DD	FLAT:??_C@_0BE@ELNKJPMC@IsRefineGradeScroll@
	DD	FLAT:?playerIsRefineGradeScroll@@YAPAU_object@@PAU1@0@Z
	DD	01H
	ORG $+4
	DD	FLAT:??_C@_0M@DPCEEMCG@ClearTarget@
	DD	FLAT:?playerClearTarget@@YAPAU_object@@PAU1@0@Z
	DD	01H
	ORG $+4
	DD	FLAT:??_C@_09EECGCJDE@SetTarget@
	DD	FLAT:?playerSetTarget@@YAPAU_object@@PAU1@0@Z
	DD	01H
	ORG $+4
	DD	FLAT:??_C@_0BC@HAEJEFBP@OpenCharacterMenu@
	DD	FLAT:?playerOpenCharacterMenu@@YAPAU_object@@PAU1@0@Z
	DD	01H
	ORG $+4
	DD	FLAT:??_C@_06LMAGPFNF@Update@
	DD	FLAT:?playerUpdate@@YAPAU_object@@PAU1@0@Z
	DD	01H
	ORG $+4
	DD	FLAT:??_C@_06EPLDPNDB@Render@
	DD	FLAT:?playerRender@@YAPAU_object@@PAU1@0@Z
	DD	01H
	ORG $+4
	DD	FLAT:??_C@_05MDNHABIA@Clear@
	DD	FLAT:?playerClear@@YAPAU_object@@PAU1@0@Z
	DD	01H
	ORG $+4
	DD	FLAT:??_C@_0O@FJCFNEGL@IsPartyMember@
	DD	FLAT:?playerIsPartyMember@@YAPAU_object@@PAU1@0@Z
	DD	01H
	ORG $+4
	DD	FLAT:??_C@_0O@BPMJGNAC@IsPartyLeader@
	DD	FLAT:?playerIsPartyLeader@@YAPAU_object@@PAU1@0@Z
	DD	01H
	ORG $+4
	DD	FLAT:??_C@_0BD@HGKJMFNK@IsPartyLeaderByPID@
	DD	FLAT:?playerIsPartyLeaderByPID@@YAPAU_object@@PAU1@0@Z
	DD	01H
	ORG $+4
	DD	FLAT:??_C@_0BL@EPAFEFHI@GetPartyMemberHPPercentage@
	DD	FLAT:?playerGetPartyMemberHPPercentage@@YAPAU_object@@PAU1@0@Z
	DD	01H
	ORG $+4
	DD	FLAT:??_C@_0BE@HKIJMBKK@GetPartyMemberState@
	DD	FLAT:?playerGetPartyMemberState@@YAPAU_object@@PAU1@0@Z
	DD	01H
	ORG $+4
	DD	FLAT:??_C@_0BG@EEFAFMJC@GetPartyMemberAffects@
	DD	FLAT:?playerGetPartyMemberAffects@@YAPAU_object@@PAU1@0@Z
	DD	01H
	ORG $+4
	DD	FLAT:??_C@_0BC@DGCJFOHN@RemovePartyMember@
	DD	FLAT:?playerRemovePartyMember@@YAPAU_object@@PAU1@0@Z
	DD	01H
	ORG $+4
	DD	FLAT:??_C@_09DMPBEJCG@ExitParty@
	DD	FLAT:?playerExitParty@@YAPAU_object@@PAU1@0@Z
	DD	01H
	ORG $+4
	DD	FLAT:??_C@_09IMMFEEHK@GetPKMode@
	DD	FLAT:?playerGetPKMode@@YAPAU_object@@PAU1@0@Z
	DD	01H
	ORG $+4
	DD	FLAT:??_C@_0BE@PMDABIKP@RegisterEmotionIcon@
	DD	FLAT:?playerRegisterEmotionIcon@@YAPAU_object@@PAU1@0@Z
	DD	01H
	ORG $+4
	DD	FLAT:??_C@_0BE@FELKHKJF@GetEmotionIconImage@
	DD	FLAT:?playerGetEmotionIconImage@@YAPAU_object@@PAU1@0@Z
	DD	01H
	ORG $+4
	DD	FLAT:??_C@_0BJ@CFCMHNHB@SetWeaponAttackBonusFlag@
	DD	FLAT:?playerSetWeaponAttackBonusFlag@@YAPAU_object@@PAU1@0@Z
	DD	01H
	ORG $+4
	DD	FLAT:??_C@_0P@ILOOLMDH@ToggleCoolTime@
	DD	FLAT:?playerToggleCoolTime@@YAPAU_object@@PAU1@0@Z
	DD	01H
	ORG $+4
	DD	FLAT:??_C@_0BB@DJKKOCLB@ToggleLevelLimit@
	DD	FLAT:?playerToggleLevelLimit@@YAPAU_object@@PAU1@0@Z
	DD	01H
	ORG $+4
	DD	FLAT:??_C@_0N@MEKPPHGC@GetTargetVID@
	DD	FLAT:?playerGetTargetVID@@YAPAU_object@@PAU1@0@Z
	DD	01H
	ORG $+4
	DD	FLAT:??_C@_0M@CHNGAPIB@SetItemData@
	DD	FLAT:?playerSetItemData@@YAPAU_object@@PAU1@0@Z
	DD	01H
	ORG $+4
	DD	FLAT:??_C@_0BD@GLMLJBGM@SetItemMetinSocket@
	DD	FLAT:?playerSetItemMetinSocket@@YAPAU_object@@PAU1@0@Z
	DD	01H
	ORG $+4
	DD	FLAT:??_C@_0BB@KPGENMF@SetItemAttribute@
	DD	FLAT:?playerSetItemAttribute@@YAPAU_object@@PAU1@0@Z
	DD	01H
	ORG $+4
	DD	FLAT:??_C@_0N@MABOHHMK@SetItemCount@
	DD	FLAT:?playerSetItemCount@@YAPAU_object@@PAU1@0@Z
	DD	01H
	ORG $+4
	DD	FLAT:??_C@_0M@DGFCHEAA@GetItemLink@
	DD	FLAT:?playerGetItemLink@@YAPAU_object@@PAU1@0@Z
	DD	01H
	ORG $+4
	DD	FLAT:??_C@_0BE@IOMKCPHN@SlotTypeToInvenType@
	DD	FLAT:?playerSlotTypeToInvenType@@YAPAU_object@@PAU1@0@Z
	DD	01H
	ORG $+4
	DD	FLAT:??_C@_0BF@PLGNHJMH@SendDragonSoulRefine@
	DD	FLAT:?playerSendDragonSoulRefine@@YAPAU_object@@PAU1@0@Z
	DD	01H
	ORG $+4
	DD	FLAT:??_C@_0BN@OIIJKMFD@ClearAutoAttackTargetActorID@
	DD	FLAT:?playerClearAutoAttackTargetActorID@@YAPAU_object@@PAU1@0@Z
	DD	01H
	ORG $+4
	DD	FLAT:??_C@_04PPEDCFAC@NPOS@
	DD	FLAT:?playerNPOS@@YAPAU_object@@PAU1@0@Z
	DD	01H
	ORG $+4
	DD	FLAT:??_C@_0BF@HHEMENOC@GetMainCharacterPart@
	DD	FLAT:?playerGetMainCharacterPart@@YAPAU_object@@PAU1@0@Z
	DD	01H
	ORG $+4
	DD	FLAT:??_C@_0BB@NAJMCHBK@GetItemSlotIndex@
	DD	FLAT:?playerGetItemSlotIndex@@YAPAU_object@@PAU1@0@Z
	DD	01H
	ORG $+4
	DD	FLAT:??_C@_0M@GLKHKGON@CanInteract@
	DD	FLAT:?playerCanInteract@@YAPAU_object@@PAU1@0@Z
	DD	01H
	ORG $+4
	DD	FLAT:??_C@_0BH@KNFAMLNM@GetPremiumBattlePassID@
	DD	FLAT:?playerGetPremiumBattlePassID@@YAPAU_object@@PAU1@0@Z
	DD	01H
	ORG $+4
	DD	FLAT:??_C@_0O@PKLBMAM@SetSkillColor@
	DD	FLAT:?playerSetSkillColor@@YAPAU_object@@PAU1@0@Z
	DD	01H
	ORG $+4
	DD	FLAT:??_C@_0O@HALFKPHL@GetSkillColor@
	DD	FLAT:?playerGetSkillColor@@YAPAU_object@@PAU1@0@Z
	DD	01H
	ORG $+4
	DD	FLAT:??_C@_0O@MJPCFPJK@GetAuraItemID@
	DD	FLAT:?playerGetAuraItemID@@YAPAU_object@@PAU1@0@Z
	DD	01H
	ORG $+4
	DD	FLAT:??_C@_0BB@NMGFNIEB@GetAuraItemCount@
	DD	FLAT:?playerGetAuraItemCount@@YAPAU_object@@PAU1@0@Z
	DD	01H
	ORG $+4
	DD	FLAT:??_C@_0BH@EEMJAALJ@GetAuraItemMetinSocket@
	DD	FLAT:?playerGetAuraItemMetinSocket@@YAPAU_object@@PAU1@0@Z
	DD	01H
	ORG $+4
	DD	FLAT:??_C@_0BF@DKEAJKNA@GetAuraItemAttribute@
	DD	FLAT:?playerGetAuraItemAttribute@@YAPAU_object@@PAU1@0@Z
	DD	01H
	ORG $+4
	DD	FLAT:??_C@_0BI@PBPNGBAE@IsAuraRefineWindowEmpty@
	DD	FLAT:?playerIsAuraRefineWindowEmpty@@YAPAU_object@@PAU1@0@Z
	DD	01H
	ORG $+4
	DD	FLAT:??_C@_0BM@BKGGJDBO@GetAuraCurrentItemSlotCount@
	DD	FLAT:?playerGetAuraCurrentItemSlotCount@@YAPAU_object@@PAU1@0@Z
	DD	01H
	ORG $+4
	DD	FLAT:??_C@_0BH@ECFJIDOK@IsAuraRefineWindowOpen@
	DD	FLAT:?playerIsAuraRefineWindowOpen@@YAPAU_object@@PAU1@0@Z
	DD	01H
	ORG $+4
	DD	FLAT:??_C@_0BI@HAAECBGI@GetAuraRefineWindowType@
	DD	FLAT:?playerGetAuraRefineWindowType@@YAPAU_object@@PAU1@0@Z
	DD	01H
	ORG $+4
	DD	FLAT:??_C@_0BF@DGBJCLPP@FineMoveAuraItemSlot@
	DD	FLAT:?playerFineMoveAuraItemSlot@@YAPAU_object@@PAU1@0@Z
	DD	01H
	ORG $+4
	DD	FLAT:??_C@_0BJ@FDMBJLDG@SetAuraActivatedItemSlot@
	DD	FLAT:?playerSetAuraActivatedItemSlot@@YAPAU_object@@PAU1@0@Z
	DD	01H
	ORG $+4
	DD	FLAT:??_C@_0BG@EEFNBJPF@FindActivatedAuraSlot@
	DD	FLAT:?playerFindActivatedAuraSlot@@YAPAU_object@@PAU1@0@Z
	DD	01H
	ORG $+4
	DD	FLAT:??_C@_0BC@FMKOGNDO@FindUsingAuraSlot@
	DD	FLAT:?playerFindUsingAuraSlot@@YAPAU_object@@PAU1@0@Z
	DD	01H
	ORG $+4
	DD	FLAT:??_C@_0BC@GPJMKBHD@GetAuraRefineInfo@
	DD	FLAT:?playerGetAuraRefineInfo@@YAPAU_object@@PAU1@0@Z
	DD	01H
	ORG $+4
	DD	FLAT:??_C@_0BI@OEGEDDOI@GetAuraRefineInfoExpPer@
	DD	FLAT:?playerGetAuraRefineInfoExpPer@@YAPAU_object@@PAU1@0@Z
	DD	01H
	ORG $+4
	DD	FLAT:??_C@_0BH@LNIBDCIJ@GetAuraRefineInfoLevel@
	DD	FLAT:?playerGetAuraRefineInfoLevel@@YAPAU_object@@PAU1@0@Z
	DD	01H
	ORG $+4
	DD	FLAT:??_C@_0BJ@OLOKCKBJ@SetOpenPetHatchingWindow@
	DD	FLAT:?playerSetOpenPetHatchingWindow@@YAPAU_object@@PAU1@0@Z
	DD	01H
	ORG $+4
	DD	FLAT:??_C@_0BL@CJGAAMKA@SetOpenPetNameChangeWindow@
	DD	FLAT:?playerSetOpenPetNameChangeWindow@@YAPAU_object@@PAU1@0@Z
	DD	01H
	ORG $+4
	DD	FLAT:??_C@_0BF@LBMFBLG@SetOpenPetFeedWindow@
	DD	FLAT:?playerSetOpenPetFeedWindow@@YAPAU_object@@PAU1@0@Z
	DD	01H
	ORG $+4
	DD	FLAT:??_C@_0BI@EEFHCAEH@IsOpenPetHatchingWindow@
	DD	FLAT:?playerIsOpenPetHatchingWindow@@YAPAU_object@@PAU1@0@Z
	DD	01H
	ORG $+4
	DD	FLAT:??_C@_0BE@CCCDEOF@IsOpenPetFeedWindow@
	DD	FLAT:?playerIsOpenPetFeedWindow@@YAPAU_object@@PAU1@0@Z
	DD	01H
	ORG $+4
	DD	FLAT:??_C@_0BK@ONINDKNJ@IsOpenPetNameChangeWindow@
	DD	FLAT:?playerIsOpenPetNameChangeWindow@@YAPAU_object@@PAU1@0@Z
	DD	01H
	ORG $+4
	DD	FLAT:??_C@_0M@PMJJOEKL@SetOpenMall@
	DD	FLAT:?playerSetOpenMall@@YAPAU_object@@PAU1@0@Z
	DD	01H
	ORG $+4
	DD	FLAT:??_C@_0P@DGCGCCCO@SetOpenSafeBox@
	DD	FLAT:?playerSetOpenSafeBox@@YAPAU_object@@PAU1@0@Z
	DD	01H
	ORG $+4
	DD	FLAT:??_C@_0L@MJHEBNLN@IsOpenMall@
	DD	FLAT:?playerIsOpenMall@@YAPAU_object@@PAU1@0@Z
	DD	01H
	ORG $+4
	DD	FLAT:??_C@_0BD@FFNGMGDE@GetActivePetItemId@
	DD	FLAT:?playerGetActivePetItemId@@YAPAU_object@@PAU1@0@Z
	DD	01H
	ORG $+4
	DD	FLAT:??_C@_0BE@HIAGDJGO@GetPetItemVNumInBag@
	DD	FLAT:?playerGetPetItemVNumInBag@@YAPAU_object@@PAU1@0@Z
	DD	01H
	ORG $+4
	DD	FLAT:??_C@_0M@EGNNPBIF@GetPetSkill@
	DD	FLAT:?playerGetPetSkill@@YAPAU_object@@PAU1@0@Z
	DD	01H
	ORG $+4
	DD	FLAT:??_C@_0BD@MKFJOLGB@GetPetSkillByIndex@
	DD	FLAT:?playerGetPetSkillByIndex@@YAPAU_object@@PAU1@0@Z
	DD	01H
	ORG $+4
	DD	FLAT:??_C@_0BF@GGHLDBPM@GetActivePetItemVNum@
	DD	FLAT:?playerGetActivePetItemVNum@@YAPAU_object@@PAU1@0@Z
	DD	01H
	ORG $+4
	DD	FLAT:??_C@_0BA@OIMHGHDP@GetPetExpPoints@
	DD	FLAT:?playerGetPetExpPoints@@YAPAU_object@@PAU1@0@Z
	DD	01H
	ORG $+4
	DD	FLAT:??_C@_0L@MCGANBBD@GetPetItem@
	DD	FLAT:?playerGetPetItem@@YAPAU_object@@PAU1@0@Z
	DD	01H
	ORG $+4
	DD	FLAT:??_C@_0P@HNNKIABL@GetPetLifeTime@
	DD	FLAT:?playerGetPetLifeTime@@YAPAU_object@@PAU1@0@Z
	DD	01H
	ORG $+4
	DD	FLAT:??_C@_0BJ@DBAIPPKB@CanUseGrowthPetQuickSlot@
	DD	FLAT:?playerCanUseGrowthPetQuickSlot@@YAPAU_object@@PAU1@0@Z
	DD	01H
	ORG $+4
	DD	FLAT:??_C@_0N@GALPMGNA@LoadNewRegen@
	DD	FLAT:?playerLoadNewRegen@@YAPAU_object@@PAU1@0@Z
	DD	01H
	ORG $+4
	DD	FLAT:??_C@_0BC@LHBNPKGI@GetChangeLookVnum@
	DD	FLAT:?playerGetChangeLookVnum@@YAPAU_object@@PAU1@0@Z
	DD	01H
	ORG $+4
	DD	FLAT:??_C@_0BE@KMNILMPF@SetChangeLookWindow@
	DD	FLAT:?playerSetChangeLookWindow@@YAPAU_object@@PAU1@0@Z
	DD	01H
	ORG $+4
	DD	FLAT:??_C@_0BI@PJOOIALB@GetChangeLookWindowOpen@
	DD	FLAT:?playerGetChangeLookWindowOpen@@YAPAU_object@@PAU1@0@Z
	DD	01H
	ORG $+4
	DD	FLAT:??_C@_0BI@HMKCDAJK@SetChangeLookWindowType@
	DD	FLAT:?playerSetChangeLookWindowType@@YAPAU_object@@PAU1@0@Z
	DD	01H
	ORG $+4
	DD	FLAT:??_C@_0BE@EICJCLKG@GetChangeLookItemID@
	DD	FLAT:?playerGetChangeLookItemID@@YAPAU_object@@PAU1@0@Z
	DD	01H
	ORG $+4
	DD	FLAT:??_C@_0BL@ELGKHOAL@GetChangeLookItemInvenSlot@
	DD	FLAT:?playerGetChangeLookItemInvenSlot@@YAPAU_object@@PAU1@0@Z
	DD	01H
	ORG $+4
	DD	FLAT:??_C@_0BM@DIBDFBNF@GetChangeLookFreeYangItemID@
	DD	FLAT:?playerGetChangeLookFreeYangItemID@@YAPAU_object@@PAU1@0@Z
	DD	01H
	ORG $+4
	DD	FLAT:??_C@_0CC@EICEGDNO@GetChangeLookFreeYangInvenSlotP@
	DD	FLAT:?playerGetChangeLookFreeYangInvenSlotPos@@YAPAU_object@@PAU1@0@Z
	DD	01H
	ORG $+4
	DD	FLAT:??_C@_0BH@BELNGOAK@CanChangeLookClearItem@
	DD	FLAT:?playerCanChangeLookClearItem@@YAPAU_object@@PAU1@0@Z
	DD	01H
	ORG $+4
	DD	FLAT:??_C@_0BO@IEIPICAI@GetChangeWIndowChangeLookVnum@
	DD	FLAT:?playerGetChangeWIndowChangeLookVnum@@YAPAU_object@@PAU1@0@Z
	DD	01H
	ORG $+4
	DD	FLAT:??_C@_0BJ@NKLEKMEH@GetChangeChangeLookPrice@
	DD	FLAT:?playerGetChangeChangeLookPrice@@YAPAU_object@@PAU1@0@Z
	DD	01H
	ORG $+4
	DD	00H
	DD	00H
	ORG $+8
_DATA	ENDS
;	COMDAT ??_C@_0BD@OGBKIAOM@POINT_STONE_KILLED@
CONST	SEGMENT
??_C@_0BD@OGBKIAOM@POINT_STONE_KILLED@ DB 'POINT_STONE_KILLED', 00H ; `string'
CONST	ENDS
;	COMDAT ??_C@_0BC@JPBCPPBB@POINT_BOSS_KILLED@
CONST	SEGMENT
??_C@_0BC@JPBCPPBB@POINT_BOSS_KILLED@ DB 'POINT_BOSS_KILLED', 00H ; `string'
CONST	ENDS
;	COMDAT ??_C@_0BE@DIODHCDN@POINT_KILL_DUELLOST@
CONST	SEGMENT
??_C@_0BE@DIODHCDN@POINT_KILL_DUELLOST@ DB 'POINT_KILL_DUELLOST', 00H ; `string'
CONST	ENDS
;	COMDAT ??_C@_0BF@IKAAIKND@POINT_MONSTER_KILLED@
CONST	SEGMENT
??_C@_0BF@IKAAIKND@POINT_MONSTER_KILLED@ DB 'POINT_MONSTER_KILLED', 00H ; `string'
CONST	ENDS
;	COMDAT ??_C@_0BI@LNGEGINL@POINT_ALL_PLAYER_KILLED@
CONST	SEGMENT
??_C@_0BI@LNGEGINL@POINT_ALL_PLAYER_KILLED@ DB 'POINT_ALL_PLAYER_KILLED', 00H ; `string'
CONST	ENDS
;	COMDAT ??_C@_0BD@CPMCNAMN@POINT_KILL_DUELWON@
CONST	SEGMENT
??_C@_0BD@CPMCNAMN@POINT_KILL_DUELWON@ DB 'POINT_KILL_DUELWON', 00H ; `string'
CONST	ENDS
;	COMDAT ??_C@_0BL@DJJNJMIM@POINT_YELLOW_PLAYER_KILLED@
CONST	SEGMENT
??_C@_0BL@DJJNJMIM@POINT_YELLOW_PLAYER_KILLED@ DB 'POINT_YELLOW_PLAYER_KI'
	DB	'LLED', 00H					; `string'
CONST	ENDS
;	COMDAT ??_C@_0BI@GLOEPCDD@POINT_RED_PLAYER_KILLED@
CONST	SEGMENT
??_C@_0BI@GLOEPCDD@POINT_RED_PLAYER_KILLED@ DB 'POINT_RED_PLAYER_KILLED', 00H ; `string'
CONST	ENDS
;	COMDAT ??_C@_0CA@GCEIFJNM@QUICK_SLOT_CAN_NOT_USE_PET_ITEM@
CONST	SEGMENT
??_C@_0CA@GCEIFJNM@QUICK_SLOT_CAN_NOT_USE_PET_ITEM@ DB 'QUICK_SLOT_CAN_NO'
	DB	'T_USE_PET_ITEM', 00H			; `string'
CONST	ENDS
;	COMDAT ??_C@_0BJ@MEMDNOBC@POINT_BLUE_PLAYER_KILLED@
CONST	SEGMENT
??_C@_0BJ@MEMDNOBC@POINT_BLUE_PLAYER_KILLED@ DB 'POINT_BLUE_PLAYER_KILLED'
	DB	00H						; `string'
CONST	ENDS
;	COMDAT ??_C@_0CA@OOHPPNPK@QUICK_SLOT_PET_ITEM_USE_SUCCESS@
CONST	SEGMENT
??_C@_0CA@OOHPPNPK@QUICK_SLOT_PET_ITEM_USE_SUCCESS@ DB 'QUICK_SLOT_PET_IT'
	DB	'EM_USE_SUCCESS', 00H			; `string'
CONST	ENDS
;	COMDAT ??_C@_0BP@DJAPKJMJ@QUICK_SLOT_PET_ITEM_USE_FAILED@
CONST	SEGMENT
??_C@_0BP@DJAPKJMJ@QUICK_SLOT_PET_ITEM_USE_FAILED@ DB 'QUICK_SLOT_PET_ITE'
	DB	'M_USE_FAILED', 00H				; `string'
CONST	ENDS
;	COMDAT ??_C@_0BM@CGLKDAAA@QUICK_SLOT_ITEM_USE_SUCCESS@
CONST	SEGMENT
??_C@_0BM@CGLKDAAA@QUICK_SLOT_ITEM_USE_SUCCESS@ DB 'QUICK_SLOT_ITEM_USE_S'
	DB	'UCCESS', 00H				; `string'
CONST	ENDS
;	COMDAT ??_C@_0BH@JPEBDBOE@QUICK_SLOT_IS_NOT_ITEM@
CONST	SEGMENT
??_C@_0BH@JPEBDBOE@QUICK_SLOT_IS_NOT_ITEM@ DB 'QUICK_SLOT_IS_NOT_ITEM', 00H ; `string'
CONST	ENDS
;	COMDAT ??_C@_0BF@EGOKNPMG@PET_ATTR_CHANGE_ITEM@
CONST	SEGMENT
??_C@_0BF@EGOKNPMG@PET_ATTR_CHANGE_ITEM@ DB 'PET_ATTR_CHANGE_ITEM', 00H ; `string'
CONST	ENDS
;	COMDAT ??_C@_0BF@IOMDMJJH@QUICK_SLOT_POS_ERROR@
CONST	SEGMENT
??_C@_0BF@IOMDMJJH@QUICK_SLOT_POS_ERROR@ DB 'QUICK_SLOT_POS_ERROR', 00H ; `string'
CONST	ENDS
;	COMDAT ??_C@_0BN@FIDDPHID@PET_WND_SLOT_ATTR_CHANGE_MAX@
CONST	SEGMENT
??_C@_0BN@FIDDPHID@PET_WND_SLOT_ATTR_CHANGE_MAX@ DB 'PET_WND_SLOT_ATTR_CH'
	DB	'ANGE_MAX', 00H				; `string'
CONST	ENDS
;	COMDAT ??_C@_0BI@NPPIBKMK@PET_ATTR_DETERMINE_ITEM@
CONST	SEGMENT
??_C@_0BI@NPPIBKMK@PET_ATTR_DETERMINE_ITEM@ DB 'PET_ATTR_DETERMINE_ITEM', 00H ; `string'
CONST	ENDS
;	COMDAT ??_C@_0BO@LHIHOBGL@PET_WND_SLOT_ATTR_CHANGE_ITEM@
CONST	SEGMENT
??_C@_0BO@LHIHOBGL@PET_WND_SLOT_ATTR_CHANGE_ITEM@ DB 'PET_WND_SLOT_ATTR_C'
	DB	'HANGE_ITEM', 00H				; `string'
CONST	ENDS
;	COMDAT ??_C@_0CA@CBANDPKJ@PET_WND_SLOT_ATTR_CHANGE_RESULT@
CONST	SEGMENT
??_C@_0CA@CBANDPKJ@PET_WND_SLOT_ATTR_CHANGE_RESULT@ DB 'PET_WND_SLOT_ATTR'
	DB	'_CHANGE_RESULT', 00H			; `string'
CONST	ENDS
;	COMDAT ??_C@_0BN@GJGLGIPO@PET_WINDOW_PRIMIUM_FEEDSTUFF@
CONST	SEGMENT
??_C@_0BN@GJGLGIPO@PET_WINDOW_PRIMIUM_FEEDSTUFF@ DB 'PET_WINDOW_PRIMIUM_F'
	DB	'EEDSTUFF', 00H				; `string'
CONST	ENDS
;	COMDAT ??_C@_0BJ@NBIJKGHG@PET_WND_SLOT_ATTR_CHANGE@
CONST	SEGMENT
??_C@_0BJ@NBIJKGHG@PET_WND_SLOT_ATTR_CHANGE@ DB 'PET_WND_SLOT_ATTR_CHANGE'
	DB	00H						; `string'
CONST	ENDS
;	COMDAT ??_C@_0BA@BCBOOENP@PET_WINDOW_INFO@
CONST	SEGMENT
??_C@_0BA@BCBOOENP@PET_WINDOW_INFO@ DB 'PET_WINDOW_INFO', 00H ; `string'
CONST	ENDS
;	COMDAT ??_C@_0BH@DNHCPKPA@PET_WINDOW_ATTR_CHANGE@
CONST	SEGMENT
??_C@_0BH@DNHCPKPA@PET_WINDOW_ATTR_CHANGE@ DB 'PET_WINDOW_ATTR_CHANGE', 00H ; `string'
CONST	ENDS
;	COMDAT ??_C@_0BA@DIFILJDH@FEED_EVOL_EVENT@
CONST	SEGMENT
??_C@_0BA@DIFILJDH@FEED_EVOL_EVENT@ DB 'FEED_EVOL_EVENT', 00H ; `string'
CONST	ENDS
;	COMDAT ??_C@_0BA@BJMLMPCH@FEED_BUTTON_MAX@
CONST	SEGMENT
??_C@_0BA@BJMLMPCH@FEED_BUTTON_MAX@ DB 'FEED_BUTTON_MAX', 00H ; `string'
CONST	ENDS
;	COMDAT ??_C@_0BF@FPKOBLCK@FEED_LIFE_TIME_EVENT@
CONST	SEGMENT
??_C@_0BF@FPKOBLCK@FEED_LIFE_TIME_EVENT@ DB 'FEED_LIFE_TIME_EVENT', 00H ; `string'
CONST	ENDS
;	COMDAT ??_C@_0P@KMMLDJON@FEED_EXP_EVENT@
CONST	SEGMENT
??_C@_0P@KMMLDJON@FEED_EXP_EVENT@ DB 'FEED_EXP_EVENT', 00H ; `string'
CONST	ENDS
;	COMDAT ??_C@_0BJ@JJGKAJLE@LIFE_TIME_FLASH_MIN_TIME@
CONST	SEGMENT
??_C@_0BJ@JJGKAJLE@LIFE_TIME_FLASH_MIN_TIME@ DB 'LIFE_TIME_FLASH_MIN_TIME'
	DB	00H						; `string'
CONST	ENDS
;	COMDAT ??_C@_0BF@OGHAJJKA@SPECIAL_EVOL_MIN_AGE@
CONST	SEGMENT
??_C@_0BF@OGHAJJKA@SPECIAL_EVOL_MIN_AGE@ DB 'SPECIAL_EVOL_MIN_AGE', 00H ; `string'
CONST	ENDS
;	COMDAT ??_C@_0BN@BPMCNOMH@PET_REVIVE_MATERIAL_SLOT_MAX@
CONST	SEGMENT
??_C@_0BN@BPMCNOMH@PET_REVIVE_MATERIAL_SLOT_MAX@ DB 'PET_REVIVE_MATERIAL_'
	DB	'SLOT_MAX', 00H				; `string'
CONST	ENDS
;	COMDAT ??_C@_0BE@JMKAEJNF@PET_SKILL_COUNT_MAX@
CONST	SEGMENT
??_C@_0BE@JMKAEJNF@PET_SKILL_COUNT_MAX@ DB 'PET_SKILL_COUNT_MAX', 00H ; `string'
CONST	ENDS
;	COMDAT ??_C@_0BL@EIFGHGIE@PET_GROWTH_SKILL_LEVEL_MAX@
CONST	SEGMENT
??_C@_0BL@EIFGHGIE@PET_GROWTH_SKILL_LEVEL_MAX@ DB 'PET_GROWTH_SKILL_LEVEL'
	DB	'_MAX', 00H					; `string'
CONST	ENDS
;	COMDAT ??_C@_0CB@OBCGFKLG@PET_GROWTH_SKILL_OPEN_EVOL_LEVE@
CONST	SEGMENT
??_C@_0CB@OBCGFKLG@PET_GROWTH_SKILL_OPEN_EVOL_LEVE@ DB 'PET_GROWTH_SKILL_'
	DB	'OPEN_EVOL_LEVEL', 00H			; `string'
CONST	ENDS
;	COMDAT ??_C@_0BC@DMHKNCHI@PET_FEED_SLOT_MAX@
CONST	SEGMENT
??_C@_0BC@DMHKNCHI@PET_FEED_SLOT_MAX@ DB 'PET_FEED_SLOT_MAX', 00H ; `string'
CONST	ENDS
;	COMDAT ??_C@_0BE@NFLCMMDA@PET_GROWTH_EVOL_MAX@
CONST	SEGMENT
??_C@_0BE@NFLCMMDA@PET_GROWTH_EVOL_MAX@ DB 'PET_GROWTH_EVOL_MAX', 00H ; `string'
CONST	ENDS
;	COMDAT ??_C@_0CA@CIFBLEK@ITEM_VALUE_AURA_BOOST_UNLIMITED@
CONST	SEGMENT
??_C@_0CA@CIFBLEK@ITEM_VALUE_AURA_BOOST_UNLIMITED@ DB 'ITEM_VALUE_AURA_BO'
	DB	'OST_UNLIMITED', 00H				; `string'
CONST	ENDS
;	COMDAT ??_C@_08LJKGNBOE@PET_FEED@
CONST	SEGMENT
??_C@_08LJKGNBOE@PET_FEED@ DB 'PET_FEED', 00H		; `string'
CONST	ENDS
;	COMDAT ??_C@_0BO@MPFCFKKC@ITEM_VALUE_AURA_BOOST_PERCENT@
CONST	SEGMENT
??_C@_0BO@MPFCFKKC@ITEM_VALUE_AURA_BOOST_PERCENT@ DB 'ITEM_VALUE_AURA_BOO'
	DB	'ST_PERCENT', 00H				; `string'
CONST	ENDS
;	COMDAT ??_C@_0BL@BAPFGKOD@ITEM_VALUE_AURA_BOOST_TIME@
CONST	SEGMENT
??_C@_0BL@BAPFGKOD@ITEM_VALUE_AURA_BOOST_TIME@ DB 'ITEM_VALUE_AURA_BOOST_'
	DB	'TIME', 00H					; `string'
CONST	ENDS
;	COMDAT ??_C@_0BH@LAHGBIBJ@ITEM_SOCKET_AURA_BOOST@
CONST	SEGMENT
??_C@_0BH@LAHGBIBJ@ITEM_SOCKET_AURA_BOOST@ DB 'ITEM_SOCKET_AURA_BOOST', 00H ; `string'
CONST	ENDS
;	COMDAT ??_C@_0BN@NPMDAJNF@ITEM_VALUE_AURA_MATERIAL_EXP@
CONST	SEGMENT
??_C@_0BN@NPMDAJNF@ITEM_VALUE_AURA_MATERIAL_EXP@ DB 'ITEM_VALUE_AURA_MATE'
	DB	'RIAL_EXP', 00H				; `string'
CONST	ENDS
;	COMDAT ??_C@_0CB@DCOODGCM@ITEM_SOCKET_AURA_DRAIN_ITEM_VNU@
CONST	SEGMENT
??_C@_0CB@DCOODGCM@ITEM_SOCKET_AURA_DRAIN_ITEM_VNU@ DB 'ITEM_SOCKET_AURA_'
	DB	'DRAIN_ITEM_VNUM', 00H			; `string'
CONST	ENDS
;	COMDAT ??_C@_0BP@EMKIFIGK@ITEM_SOCKET_AURA_CURRENT_LEVEL@
CONST	SEGMENT
??_C@_0BP@EMKIFIGK@ITEM_SOCKET_AURA_CURRENT_LEVEL@ DB 'ITEM_SOCKET_AURA_C'
	DB	'URRENT_LEVEL', 00H				; `string'
CONST	ENDS
;	COMDAT ??_C@_0BL@ICCNHPG@AURA_REFINE_INFO_NEED_GOLD@
CONST	SEGMENT
??_C@_0BL@ICCNHPG@AURA_REFINE_INFO_NEED_GOLD@ DB 'AURA_REFINE_INFO_NEED_G'
	DB	'OLD', 00H					; `string'
CONST	ENDS
;	COMDAT ??_C@_0BM@IEECEMNC@AURA_REFINE_INFO_EVOLVE_PCT@
CONST	SEGMENT
??_C@_0BM@IEECEMNC@AURA_REFINE_INFO_EVOLVE_PCT@ DB 'AURA_REFINE_INFO_EVOL'
	DB	'VE_PCT', 00H				; `string'
CONST	ENDS
;	COMDAT ??_C@_0BP@MKNGONPM@AURA_REFINE_INFO_MATERIAL_VNUM@
CONST	SEGMENT
??_C@_0BP@MKNGONPM@AURA_REFINE_INFO_MATERIAL_VNUM@ DB 'AURA_REFINE_INFO_M'
	DB	'ATERIAL_VNUM', 00H				; `string'
CONST	ENDS
;	COMDAT ??_C@_0CA@GCLPEEL@AURA_REFINE_INFO_MATERIAL_COUNT@
CONST	SEGMENT
??_C@_0CA@GCLPEEL@AURA_REFINE_INFO_MATERIAL_COUNT@ DB 'AURA_REFINE_INFO_M'
	DB	'ATERIAL_COUNT', 00H				; `string'
CONST	ENDS
;	COMDAT ??_C@_0BL@MJOAJAEE@AURA_REFINE_INFO_LEVEL_MAX@
CONST	SEGMENT
??_C@_0BL@MJOAJAEE@AURA_REFINE_INFO_LEVEL_MAX@ DB 'AURA_REFINE_INFO_LEVEL'
	DB	'_MAX', 00H					; `string'
CONST	ENDS
;	COMDAT ??_C@_0BK@GLEMHOOH@AURA_REFINE_INFO_NEED_EXP@
CONST	SEGMENT
??_C@_0BK@GLEMHOOH@AURA_REFINE_INFO_NEED_EXP@ DB 'AURA_REFINE_INFO_NEED_E'
	DB	'XP', 00H					; `string'
CONST	ENDS
;	COMDAT ??_C@_0BG@LFHCGDMM@AURA_REFINE_INFO_STEP@
CONST	SEGMENT
??_C@_0BG@LFHCGDMM@AURA_REFINE_INFO_STEP@ DB 'AURA_REFINE_INFO_STEP', 00H ; `string'
CONST	ENDS
;	COMDAT ??_C@_0BL@NLGLHECL@AURA_REFINE_INFO_LEVEL_MIN@
CONST	SEGMENT
??_C@_0BL@NLGLHECL@AURA_REFINE_INFO_LEVEL_MIN@ DB 'AURA_REFINE_INFO_LEVEL'
	DB	'_MIN', 00H					; `string'
CONST	ENDS
;	COMDAT ??_C@_0BL@LDIPHABL@AURA_REFINE_INFO_SLOT_NEXT@
CONST	SEGMENT
??_C@_0BL@LDIPHABL@AURA_REFINE_INFO_SLOT_NEXT@ DB 'AURA_REFINE_INFO_SLOT_'
	DB	'NEXT', 00H					; `string'
CONST	ENDS
;	COMDAT ??_C@_0BO@LHGEKFE@AURA_REFINE_INFO_SLOT_EVOLVED@
CONST	SEGMENT
??_C@_0BO@LHGEKFE@AURA_REFINE_INFO_SLOT_EVOLVED@ DB 'AURA_REFINE_INFO_SLO'
	DB	'T_EVOLVED', 00H				; `string'
CONST	ENDS
;	COMDAT ??_C@_0BF@DEACKNDL@AURA_WINDOW_TYPE_MAX@
CONST	SEGMENT
??_C@_0BF@DEACKNDL@AURA_WINDOW_TYPE_MAX@ DB 'AURA_WINDOW_TYPE_MAX', 00H ; `string'
CONST	ENDS
;	COMDAT ??_C@_0BO@JIFCGECJ@AURA_REFINE_INFO_SLOT_CURRENT@
CONST	SEGMENT
??_C@_0BO@JIFCGECJ@AURA_REFINE_INFO_SLOT_CURRENT@ DB 'AURA_REFINE_INFO_SL'
	DB	'OT_CURRENT', 00H				; `string'
CONST	ENDS
;	COMDAT ??_C@_0BI@CLKELJFO@AURA_WINDOW_TYPE_GROWTH@
CONST	SEGMENT
??_C@_0BI@CLKELJFO@AURA_WINDOW_TYPE_GROWTH@ DB 'AURA_WINDOW_TYPE_GROWTH', 00H ; `string'
CONST	ENDS
;	COMDAT ??_C@_0BI@BGJIJANM@AURA_WINDOW_TYPE_EVOLVE@
CONST	SEGMENT
??_C@_0BI@BGJIJANM@AURA_WINDOW_TYPE_EVOLVE@ DB 'AURA_WINDOW_TYPE_EVOLVE', 00H ; `string'
CONST	ENDS
;	COMDAT ??_C@_0O@KJHIMGJF@AURA_SLOT_MAX@
CONST	SEGMENT
??_C@_0O@KJHIMGJF@AURA_SLOT_MAX@ DB 'AURA_SLOT_MAX', 00H ; `string'
CONST	ENDS
;	COMDAT ??_C@_0BI@IFHNBPDE@AURA_WINDOW_TYPE_ABSORB@
CONST	SEGMENT
??_C@_0BI@IFHNBPDE@AURA_WINDOW_TYPE_ABSORB@ DB 'AURA_WINDOW_TYPE_ABSORB', 00H ; `string'
CONST	ENDS
;	COMDAT ??_C@_0O@LCLMBHEO@AURA_SLOT_SUB@
CONST	SEGMENT
??_C@_0O@LCLMBHEO@AURA_SLOT_SUB@ DB 'AURA_SLOT_SUB', 00H ; `string'
CONST	ENDS
;	COMDAT ??_C@_0BB@BOPFHPDA@AURA_SLOT_RESULT@
CONST	SEGMENT
??_C@_0BB@BOPFHPDA@AURA_SLOT_RESULT@ DB 'AURA_SLOT_RESULT', 00H ; `string'
CONST	ENDS
;	COMDAT ??_C@_0P@MFDEBDB@AURA_MAX_LEVEL@
CONST	SEGMENT
??_C@_0P@MFDEBDB@AURA_MAX_LEVEL@ DB 'AURA_MAX_LEVEL', 00H ; `string'
CONST	ENDS
;	COMDAT ??_C@_0P@PDNCLEMB@AURA_SLOT_MAIN@
CONST	SEGMENT
??_C@_0P@PDNCLEMB@AURA_SLOT_MAIN@ DB 'AURA_SLOT_MAIN', 00H ; `string'
CONST	ENDS
;	COMDAT ??_C@_0P@FNJLNAFG@SLOT_TYPE_AURA@
CONST	SEGMENT
??_C@_0P@FNJLNAFG@SLOT_TYPE_AURA@ DB 'SLOT_TYPE_AURA', 00H ; `string'
CONST	ENDS
;	COMDAT ??_C@_0M@PDHBNBKH@AURA_REFINE@
CONST	SEGMENT
??_C@_0M@PDHBNBKH@AURA_REFINE@ DB 'AURA_REFINE', 00H	; `string'
CONST	ENDS
;	COMDAT ??_C@_0CB@NFMKANIJ@ON_TOP_WND_PET_PRIMIUM_FEEDSTUF@
CONST	SEGMENT
??_C@_0CB@NFMKANIJ@ON_TOP_WND_PET_PRIMIUM_FEEDSTUF@ DB 'ON_TOP_WND_PET_PR'
	DB	'IMIUM_FEEDSTUFF', 00H			; `string'
CONST	ENDS
;	COMDAT ??_C@_0BN@ELAPKHPA@REFINE_CANT_REFINE_AURA_ITEM@
CONST	SEGMENT
??_C@_0BN@ELAPKHPA@REFINE_CANT_REFINE_AURA_ITEM@ DB 'REFINE_CANT_REFINE_A'
	DB	'URA_ITEM', 00H				; `string'
CONST	ENDS
;	COMDAT ??_C@_0BH@NNPMEGBL@ON_TOP_WND_ACCE_ABSORB@
CONST	SEGMENT
??_C@_0BH@NNPMEGBL@ON_TOP_WND_ACCE_ABSORB@ DB 'ON_TOP_WND_ACCE_ABSORB', 00H ; `string'
CONST	ENDS
;	COMDAT ??_C@_0BL@KJLPEENL@ON_TOP_WND_PET_ATTR_CHANGE@
CONST	SEGMENT
??_C@_0BL@KJLPEENL@ON_TOP_WND_PET_ATTR_CHANGE@ DB 'ON_TOP_WND_PET_ATTR_CH'
	DB	'ANGE', 00H					; `string'
CONST	ENDS
;	COMDAT ??_C@_0BE@EHJBMPOO@ON_TOP_WND_PET_FEED@
CONST	SEGMENT
??_C@_0BE@EHJBMPOO@ON_TOP_WND_PET_FEED@ DB 'ON_TOP_WND_PET_FEED', 00H ; `string'
CONST	ENDS
;	COMDAT ??_C@_0BI@GLAKGGPH@ON_TOP_WND_ACCE_COMBINE@
CONST	SEGMENT
??_C@_0BI@GLAKGGPH@ON_TOP_WND_ACCE_COMBINE@ DB 'ON_TOP_WND_ACCE_COMBINE', 00H ; `string'
CONST	ENDS
;	COMDAT ??_C@_0BI@JAEJNCCP@ON_TOP_WND_PRIVATE_SHOP@
CONST	SEGMENT
??_C@_0BI@JAEJNCCP@ON_TOP_WND_PRIVATE_SHOP@ DB 'ON_TOP_WND_PRIVATE_SHOP', 00H ; `string'
CONST	ENDS
;	COMDAT ??_C@_0BF@GOBPEOGN@ON_TOP_WND_ITEM_COMB@
CONST	SEGMENT
??_C@_0BF@GOBPEOGN@ON_TOP_WND_ITEM_COMB@ DB 'ON_TOP_WND_ITEM_COMB', 00H ; `string'
CONST	ENDS
;	COMDAT ??_C@_0BE@IFGMMCHH@ON_TOP_WND_EXCHANGE@
CONST	SEGMENT
??_C@_0BE@IFGMMCHH@ON_TOP_WND_EXCHANGE@ DB 'ON_TOP_WND_EXCHANGE', 00H ; `string'
CONST	ENDS
;	COMDAT ??_C@_0BD@DBKGGFLJ@ON_TOP_WND_SAFEBOX@
CONST	SEGMENT
??_C@_0BD@DBKGGFLJ@ON_TOP_WND_SAFEBOX@ DB 'ON_TOP_WND_SAFEBOX', 00H ; `string'
CONST	ENDS
;	COMDAT ??_C@_0BA@OKKEOOGP@ON_TOP_WND_NONE@
CONST	SEGMENT
??_C@_0BA@OKKEOOGP@ON_TOP_WND_NONE@ DB 'ON_TOP_WND_NONE', 00H ; `string'
CONST	ENDS
;	COMDAT ??_C@_0BA@NJHEAJMG@ON_TOP_WND_SHOP@
CONST	SEGMENT
??_C@_0BA@NJHEAJMG@ON_TOP_WND_SHOP@ DB 'ON_TOP_WND_SHOP', 00H ; `string'
CONST	ENDS
;	COMDAT ??_C@_0BL@MNIINOMA@AUTOMATIC_PICK_UP_ACTIVATE@
CONST	SEGMENT
??_C@_0BL@MNIINOMA@AUTOMATIC_PICK_UP_ACTIVATE@ DB 'AUTOMATIC_PICK_UP_ACTI'
	DB	'VATE', 00H					; `string'
CONST	ENDS
;	COMDAT ??_C@_0BA@DMHIDAHJ@HORSE_MAX_LEVEL@
CONST	SEGMENT
??_C@_0BA@DMHIDAHJ@HORSE_MAX_LEVEL@ DB 'HORSE_MAX_LEVEL', 00H ; `string'
CONST	ENDS
;	COMDAT ??_C@_0BA@LFMGHCBJ@REVIVE_TYPE_MAX@
CONST	SEGMENT
??_C@_0BA@LFMGHCBJ@REVIVE_TYPE_MAX@ DB 'REVIVE_TYPE_MAX', 00H ; `string'
CONST	ENDS
;	COMDAT ??_C@_05BANMFAOM@COINS@
CONST	SEGMENT
??_C@_05BANMFAOM@COINS@ DB 'COINS', 00H			; `string'
CONST	ENDS
;	COMDAT ??_C@_0BB@IMFHMJME@REVIVE_TYPE_TOWN@
CONST	SEGMENT
??_C@_0BB@IMFHMJME@REVIVE_TYPE_TOWN@ DB 'REVIVE_TYPE_TOWN', 00H ; `string'
CONST	ENDS
;	COMDAT ??_C@_0BG@MNLBEPAN@REVIVE_TYPE_AUTO_TOWN@
CONST	SEGMENT
??_C@_0BG@MNLBEPAN@REVIVE_TYPE_AUTO_TOWN@ DB 'REVIVE_TYPE_AUTO_TOWN', 00H ; `string'
CONST	ENDS
;	COMDAT ??_C@_0BI@NHBOLMGK@DS_SUB_HEADER_DO_REFINE@
CONST	SEGMENT
??_C@_0BI@NHBOLMGK@DS_SUB_HEADER_DO_REFINE@ DB 'DS_SUB_HEADER_DO_REFINE', 00H ; `string'
CONST	ENDS
;	COMDAT ??_C@_0BB@KDMFEIAD@REVIVE_TYPE_HERE@
CONST	SEGMENT
??_C@_0BB@KDMFEIAD@REVIVE_TYPE_HERE@ DB 'REVIVE_TYPE_HERE', 00H ; `string'
CONST	ENDS
;	COMDAT ??_C@_0BJ@JKFAJIJN@DS_SUB_HEADER_DO_UPGRADE@
CONST	SEGMENT
??_C@_0BJ@JKFAJIJN@DS_SUB_HEADER_DO_UPGRADE@ DB 'DS_SUB_HEADER_DO_UPGRADE'
	DB	00H						; `string'
CONST	ENDS
;	COMDAT ??_C@_0BN@PCPINHKH@DS_SUB_HEADER_DO_IMPROVEMENT@
CONST	SEGMENT
??_C@_0BN@PCPINHKH@DS_SUB_HEADER_DO_IMPROVEMENT@ DB 'DS_SUB_HEADER_DO_IMP'
	DB	'ROVEMENT', 00H				; `string'
CONST	ENDS
;	COMDAT ??_C@_0CB@OIFHBJMG@DRAGON_SOUL_EQUIPMENT_FIRST_SIZ@
CONST	SEGMENT
??_C@_0CB@OIFHBJMG@DRAGON_SOUL_EQUIPMENT_FIRST_SIZ@ DB 'DRAGON_SOUL_EQUIP'
	DB	'MENT_FIRST_SIZE', 00H			; `string'
CONST	ENDS
;	COMDAT ??_C@_0BJ@MMGGGOHJ@DRAGON_SOUL_REFINE_CLOSE@
CONST	SEGMENT
??_C@_0BJ@MMGGGOHJ@DRAGON_SOUL_REFINE_CLOSE@ DB 'DRAGON_SOUL_REFINE_CLOSE'
	DB	00H						; `string'
CONST	ENDS
;	COMDAT ??_C@_0CB@NJAOAEOC@DRAGON_SOUL_EQUIPMENT_SLOT_STAR@
CONST	SEGMENT
??_C@_0CB@NJAOAEOC@DRAGON_SOUL_EQUIPMENT_SLOT_STAR@ DB 'DRAGON_SOUL_EQUIP'
	DB	'MENT_SLOT_START', 00H			; `string'
CONST	ENDS
;	COMDAT ??_C@_0CB@GAHKEECK@DRAGON_SOUL_EQUIPMENT_PAGE_COUN@
CONST	SEGMENT
??_C@_0CB@GAHKEECK@DRAGON_SOUL_EQUIPMENT_PAGE_COUN@ DB 'DRAGON_SOUL_EQUIP'
	DB	'MENT_PAGE_COUNT', 00H			; `string'
CONST	ENDS
;	COMDAT ??_C@_0BH@OCCNKKPP@DRAGON_SOUL_PAGE_COUNT@
CONST	SEGMENT
??_C@_0BH@OCCNKKPP@DRAGON_SOUL_PAGE_COUNT@ DB 'DRAGON_SOUL_PAGE_COUNT', 00H ; `string'
CONST	ENDS
;	COMDAT ??_C@_0BH@IFPINEOD@DRAGON_SOUL_SLOT_COUNT@
CONST	SEGMENT
??_C@_0BH@IFPINEOD@DRAGON_SOUL_SLOT_COUNT@ DB 'DRAGON_SOUL_SLOT_COUNT', 00H ; `string'
CONST	ENDS
;	COMDAT ??_C@_0BE@KLHCNIEK@AUTO_POTION_TYPE_SP@
CONST	SEGMENT
??_C@_0BE@KLHCNIEK@AUTO_POTION_TYPE_SP@ DB 'AUTO_POTION_TYPE_SP', 00H ; `string'
CONST	ENDS
;	COMDAT ??_C@_0BG@FEPFCIIM@DRAGON_SOUL_PAGE_SIZE@
CONST	SEGMENT
??_C@_0BG@FEPFCIIM@DRAGON_SOUL_PAGE_SIZE@ DB 'DRAGON_SOUL_PAGE_SIZE', 00H ; `string'
CONST	ENDS
;	COMDAT ??_C@_0N@FFINPOG@EMOTION_SLAP@
CONST	SEGMENT
??_C@_0N@FFINPOG@EMOTION_SLAP@ DB 'EMOTION_SLAP', 00H	; `string'
CONST	ENDS
;	COMDAT ??_C@_0BE@LLABJENL@AUTO_POTION_TYPE_HP@
CONST	SEGMENT
??_C@_0BE@LLABJENL@AUTO_POTION_TYPE_HP@ DB 'AUTO_POTION_TYPE_HP', 00H ; `string'
CONST	ENDS
;	COMDAT ??_C@_0N@FGJJNHEK@EMOTION_KISS@
CONST	SEGMENT
??_C@_0N@FGJJNHEK@EMOTION_KISS@ DB 'EMOTION_KISS', 00H	; `string'
CONST	ENDS
;	COMDAT ??_C@_0BE@KCAKKBPE@EMOTION_FRENCH_KISS@
CONST	SEGMENT
??_C@_0BE@KCAKKBPE@EMOTION_FRENCH_KISS@ DB 'EMOTION_FRENCH_KISS', 00H ; `string'
CONST	ENDS
;	COMDAT ??_C@_0P@JAJBGKKI@EMOTION_BANTER@
CONST	SEGMENT
??_C@_0P@JAJBGKKI@EMOTION_BANTER@ DB 'EMOTION_BANTER', 00H ; `string'
CONST	ENDS
;	COMDAT ??_C@_0M@JOKPJKCG@EMOTION_JOY@
CONST	SEGMENT
??_C@_0M@JOKPJKCG@EMOTION_JOY@ DB 'EMOTION_JOY', 00H	; `string'
CONST	ENDS
;	COMDAT ??_C@_0M@LGPBJELG@EMOTION_SHY@
CONST	SEGMENT
??_C@_0M@LGPBJELG@EMOTION_SHY@ DB 'EMOTION_SHY', 00H	; `string'
CONST	ENDS
;	COMDAT ??_C@_0BA@MENCJFPL@EMOTION_CHEERUP@
CONST	SEGMENT
??_C@_0BA@MENCJFPL@EMOTION_CHEERUP@ DB 'EMOTION_CHEERUP', 00H ; `string'
CONST	ENDS
;	COMDAT ??_C@_0BD@FLNIBF@EMOTION_ATTRACTIVE@
CONST	SEGMENT
??_C@_0BD@FLNIBF@EMOTION_ATTRACTIVE@ DB 'EMOTION_ATTRACTIVE', 00H ; `string'
CONST	ENDS
;	COMDAT ??_C@_0M@EGEMMDCF@EMOTION_SAD@
CONST	SEGMENT
??_C@_0M@EGEMMDCF@EMOTION_SAD@ DB 'EMOTION_SAD', 00H	; `string'
CONST	ENDS
;	COMDAT ??_C@_0BA@JPGNEMIB@EMOTION_FORGIVE@
CONST	SEGMENT
??_C@_0BA@JPGNEMIB@EMOTION_FORGIVE@ DB 'EMOTION_FORGIVE', 00H ; `string'
CONST	ENDS
;	COMDAT ??_C@_0O@DACEICMN@EMOTION_ANGRY@
CONST	SEGMENT
??_C@_0O@DACEICMN@EMOTION_ANGRY@ DB 'EMOTION_ANGRY', 00H ; `string'
CONST	ENDS
;	COMDAT ??_C@_0BD@IFFKDDKN@EMOTION_EMOTION_20@
CONST	SEGMENT
??_C@_0BD@IFFKDDKN@EMOTION_EMOTION_20@ DB 'EMOTION_EMOTION_20', 00H ; `string'
CONST	ENDS
;	COMDAT ??_C@_0BD@JMEBACOM@EMOTION_EMOTION_21@
CONST	SEGMENT
??_C@_0BD@JMEBACOM@EMOTION_EMOTION_21@ DB 'EMOTION_EMOTION_21', 00H ; `string'
CONST	ENDS
;	COMDAT ??_C@_0BD@EPMFAHPM@EMOTION_EMOTION_18@
CONST	SEGMENT
??_C@_0BD@EPMFAHPM@EMOTION_EMOTION_18@ DB 'EMOTION_EMOTION_18', 00H ; `string'
CONST	ENDS
;	COMDAT ??_C@_0BD@FGNODGLN@EMOTION_EMOTION_19@
CONST	SEGMENT
??_C@_0BD@FGNODGLN@EMOTION_EMOTION_19@ DB 'EMOTION_EMOTION_19', 00H ; `string'
CONST	ENDS
;	COMDAT ??_C@_0BD@NBEGCKHC@EMOTION_EMOTION_16@
CONST	SEGMENT
??_C@_0BD@NBEGCKHC@EMOTION_EMOTION_16@ DB 'EMOTION_EMOTION_16', 00H ; `string'
CONST	ENDS
;	COMDAT ??_C@_0BD@MIFNBLDD@EMOTION_EMOTION_17@
CONST	SEGMENT
??_C@_0BD@MIFNBLDD@EMOTION_EMOTION_17@ DB 'EMOTION_EMOTION_17', 00H ; `string'
CONST	ENDS
;	COMDAT ??_C@_0BD@ODHAEIPA@EMOTION_EMOTION_14@
CONST	SEGMENT
??_C@_0BD@ODHAEIPA@EMOTION_EMOTION_14@ DB 'EMOTION_EMOTION_14', 00H ; `string'
CONST	ENDS
;	COMDAT ??_C@_0BD@PKGLHJLB@EMOTION_EMOTION_15@
CONST	SEGMENT
??_C@_0BD@PKGLHJLB@EMOTION_EMOTION_15@ DB 'EMOTION_EMOTION_15', 00H ; `string'
CONST	ENDS
;	COMDAT ??_C@_0BD@LFCKOPHG@EMOTION_EMOTION_12@
CONST	SEGMENT
??_C@_0BD@LFCKOPHG@EMOTION_EMOTION_12@ DB 'EMOTION_EMOTION_12', 00H ; `string'
CONST	ENDS
;	COMDAT ??_C@_0BD@KMDBNODH@EMOTION_EMOTION_13@
CONST	SEGMENT
??_C@_0BD@KMDBNODH@EMOTION_EMOTION_13@ DB 'EMOTION_EMOTION_13', 00H ; `string'
CONST	ENDS
;	COMDAT ??_C@_0BD@IHBMINPE@EMOTION_EMOTION_10@
CONST	SEGMENT
??_C@_0BD@IHBMINPE@EMOTION_EMOTION_10@ DB 'EMOTION_EMOTION_10', 00H ; `string'
CONST	ENDS
;	COMDAT ??_C@_0BD@JOAHLMLF@EMOTION_EMOTION_11@
CONST	SEGMENT
??_C@_0BD@JOAHLMLF@EMOTION_EMOTION_11@ DB 'EMOTION_EMOTION_11', 00H ; `string'
CONST	ENDS
;	COMDAT ??_C@_0BC@ODDFKNHE@EMOTION_EMOTION_8@
CONST	SEGMENT
??_C@_0BC@ODDFKNHE@EMOTION_EMOTION_8@ DB 'EMOTION_EMOTION_8', 00H ; `string'
CONST	ENDS
;	COMDAT ??_C@_0BC@PKCOJMDF@EMOTION_EMOTION_9@
CONST	SEGMENT
??_C@_0BC@PKCOJMDF@EMOTION_EMOTION_9@ DB 'EMOTION_EMOTION_9', 00H ; `string'
CONST	ENDS
;	COMDAT ??_C@_0BC@HNLGIAPK@EMOTION_EMOTION_6@
CONST	SEGMENT
??_C@_0BC@HNLGIAPK@EMOTION_EMOTION_6@ DB 'EMOTION_EMOTION_6', 00H ; `string'
CONST	ENDS
;	COMDAT ??_C@_0BC@GEKNLBLL@EMOTION_EMOTION_7@
CONST	SEGMENT
??_C@_0BC@GEKNLBLL@EMOTION_EMOTION_7@ DB 'EMOTION_EMOTION_7', 00H ; `string'
CONST	ENDS
;	COMDAT ??_C@_0BC@EPIAOCHI@EMOTION_EMOTION_4@
CONST	SEGMENT
??_C@_0BC@EPIAOCHI@EMOTION_EMOTION_4@ DB 'EMOTION_EMOTION_4', 00H ; `string'
CONST	ENDS
;	COMDAT ??_C@_0BC@FGJLNDDJ@EMOTION_EMOTION_5@
CONST	SEGMENT
??_C@_0BC@FGJLNDDJ@EMOTION_EMOTION_5@ DB 'EMOTION_EMOTION_5', 00H ; `string'
CONST	ENDS
;	COMDAT ??_C@_0BC@BJNKEFPO@EMOTION_EMOTION_2@
CONST	SEGMENT
??_C@_0BC@BJNKEFPO@EMOTION_EMOTION_2@ DB 'EMOTION_EMOTION_2', 00H ; `string'
CONST	ENDS
;	COMDAT ??_C@_0BC@MBHELP@EMOTION_EMOTION_3@
CONST	SEGMENT
??_C@_0BC@MBHELP@EMOTION_EMOTION_3@ DB 'EMOTION_EMOTION_3', 00H ; `string'
CONST	ENDS
;	COMDAT ??_C@_0P@FEDINNCE@EMOTION_PUSHUP@
CONST	SEGMENT
??_C@_0P@FEDINNCE@EMOTION_PUSHUP@ DB 'EMOTION_PUSHUP', 00H ; `string'
CONST	ENDS
;	COMDAT ??_C@_0BC@DCPHBGDN@EMOTION_EMOTION_1@
CONST	SEGMENT
??_C@_0BC@DCPHBGDN@EMOTION_EMOTION_1@ DB 'EMOTION_EMOTION_1', 00H ; `string'
CONST	ENDS
;	COMDAT ??_C@_0N@OCOLJBBP@EMOTION_DOZE@
CONST	SEGMENT
??_C@_0N@OCOLJBBP@EMOTION_DOZE@ DB 'EMOTION_DOZE', 00H	; `string'
CONST	ENDS
;	COMDAT ??_C@_0BB@PDNONAIP@EMOTION_EXERCISE@
CONST	SEGMENT
??_C@_0BB@PDNONAIP@EMOTION_EXERCISE@ DB 'EMOTION_EXERCISE', 00H ; `string'
CONST	ENDS
;	COMDAT ??_C@_0P@EGOAAOEC@EMOTION_SELFIE@
CONST	SEGMENT
??_C@_0P@EGOAAOEC@EMOTION_SELFIE@ DB 'EMOTION_SELFIE', 00H ; `string'
CONST	ENDS
;	COMDAT ??_C@_0BA@FEONMLMC@EMOTION_DANCE_7@
CONST	SEGMENT
??_C@_0BA@FEONMLMC@EMOTION_DANCE_7@ DB 'EMOTION_DANCE_7', 00H ; `string'
CONST	ENDS
;	COMDAT ??_C@_0BA@ENPGPKID@EMOTION_DANCE_6@
CONST	SEGMENT
??_C@_0BA@ENPGPKID@EMOTION_DANCE_6@ DB 'EMOTION_DANCE_6', 00H ; `string'
CONST	ENDS
;	COMDAT ??_C@_0BH@FIIEKKHF@EMOTION_CONGRATULATION@
CONST	SEGMENT
??_C@_0BH@FIIEKKHF@EMOTION_CONGRATULATION@ DB 'EMOTION_CONGRATULATION', 00H ; `string'
CONST	ENDS
;	COMDAT ??_C@_0BA@HPMAJIAB@EMOTION_DANCE_4@
CONST	SEGMENT
??_C@_0BA@HPMAJIAB@EMOTION_DANCE_4@ DB 'EMOTION_DANCE_4', 00H ; `string'
CONST	ENDS
;	COMDAT ??_C@_0BA@GGNLKJEA@EMOTION_DANCE_5@
CONST	SEGMENT
??_C@_0BA@GGNLKJEA@EMOTION_DANCE_5@ DB 'EMOTION_DANCE_5', 00H ; `string'
CONST	ENDS
;	COMDAT ??_C@_0BA@CJJKDPIH@EMOTION_DANCE_2@
CONST	SEGMENT
??_C@_0BA@CJJKDPIH@EMOTION_DANCE_2@ DB 'EMOTION_DANCE_2', 00H ; `string'
CONST	ENDS
;	COMDAT ??_C@_0BA@DAIBAOMG@EMOTION_DANCE_3@
CONST	SEGMENT
??_C@_0BA@DAIBAOMG@EMOTION_DANCE_3@ DB 'EMOTION_DANCE_3', 00H ; `string'
CONST	ENDS
;	COMDAT ??_C@_0BB@OJOMLFJB@EMOTION_CHEERS_2@
CONST	SEGMENT
??_C@_0BB@OJOMLFJB@EMOTION_CHEERS_2@ DB 'EMOTION_CHEERS_2', 00H ; `string'
CONST	ENDS
;	COMDAT ??_C@_0BA@CLHGMEE@EMOTION_DANCE_1@
CONST	SEGMENT
??_C@_0BA@CLHGMEE@EMOTION_DANCE_1@ DB 'EMOTION_DANCE_1', 00H ; `string'
CONST	ENDS
;	COMDAT ??_C@_0N@GFLIEIGE@EMOTION_CLAP@
CONST	SEGMENT
??_C@_0N@GFLIEIGE@EMOTION_CLAP@ DB 'EMOTION_CLAP', 00H	; `string'
CONST	ENDS
;	COMDAT ??_C@_0BB@MCMBOGFC@EMOTION_CHEERS_1@
CONST	SEGMENT
??_C@_0BB@MCMBOGFC@EMOTION_CHEERS_1@ DB 'EMOTION_CHEERS_1', 00H ; `string'
CONST	ENDS
;	COMDAT ??_C@_0BL@OELLICOI@PARTY_EXP_NON_DISTRIBUTION@
CONST	SEGMENT
??_C@_0BL@OELLICOI@PARTY_EXP_NON_DISTRIBUTION@ DB 'PARTY_EXP_NON_DISTRIBU'
	DB	'TION', 00H					; `string'
CONST	ENDS
;	COMDAT ??_C@_0BO@CBJBDFJC@PARTY_EXP_DISTRIBUTION_PARITY@
CONST	SEGMENT
??_C@_0BO@CBJBDFJC@PARTY_EXP_DISTRIBUTION_PARITY@ DB 'PARTY_EXP_DISTRIBUT'
	DB	'ION_PARITY', 00H				; `string'
CONST	ENDS
;	COMDAT ??_C@_0BE@NDGMABKO@BLOCK_PARTY_REQUEST@
CONST	SEGMENT
??_C@_0BE@NDGMABKO@BLOCK_PARTY_REQUEST@ DB 'BLOCK_PARTY_REQUEST', 00H ; `string'
CONST	ENDS
;	COMDAT ??_C@_0BD@ICDJFAGE@BLOCK_WARP_REQUEST@
CONST	SEGMENT
??_C@_0BD@ICDJFAGE@BLOCK_WARP_REQUEST@ DB 'BLOCK_WARP_REQUEST', 00H ; `string'
CONST	ENDS
;	COMDAT ??_C@_0O@CFHKOIIK@BLOCK_WHISPER@
CONST	SEGMENT
??_C@_0O@CFHKOIIK@BLOCK_WHISPER@ DB 'BLOCK_WHISPER', 00H ; `string'
CONST	ENDS
;	COMDAT ??_C@_0N@IJGKBLJF@BLOCK_FRIEND@
CONST	SEGMENT
??_C@_0N@IJGKBLJF@BLOCK_FRIEND@ DB 'BLOCK_FRIEND', 00H	; `string'
CONST	ENDS
;	COMDAT ??_C@_0M@KFDBGBIL@BLOCK_PARTY@
CONST	SEGMENT
??_C@_0M@KFDBGBIL@BLOCK_PARTY@ DB 'BLOCK_PARTY', 00H	; `string'
CONST	ENDS
;	COMDAT ??_C@_0M@EEMDCMKA@BLOCK_GUILD@
CONST	SEGMENT
??_C@_0M@EEMDCMKA@BLOCK_GUILD@ DB 'BLOCK_GUILD', 00H	; `string'
CONST	ENDS
;	COMDAT ??_C@_0BA@OLCDKGDA@PK_MODE_MAX_NUM@
CONST	SEGMENT
??_C@_0BA@OLCDKGDA@PK_MODE_MAX_NUM@ DB 'PK_MODE_MAX_NUM', 00H ; `string'
CONST	ENDS
;	COMDAT ??_C@_0P@CDMGAFPE@BLOCK_EXCHANGE@
CONST	SEGMENT
??_C@_0P@CDMGAFPE@BLOCK_EXCHANGE@ DB 'BLOCK_EXCHANGE', 00H ; `string'
CONST	ENDS
;	COMDAT ??_C@_0BA@GHACPGHA@PK_MODE_PROTECT@
CONST	SEGMENT
??_C@_0BA@GHACPGHA@PK_MODE_PROTECT@ DB 'PK_MODE_PROTECT', 00H ; `string'
CONST	ENDS
;	COMDAT ??_C@_0O@LBDADKLE@PK_MODE_GUILD@
CONST	SEGMENT
??_C@_0O@LBDADKLE@PK_MODE_GUILD@ DB 'PK_MODE_GUILD', 00H ; `string'
CONST	ENDS
;	COMDAT ??_C@_0BA@HNNGLCOB@PK_MODE_REVENGE@
CONST	SEGMENT
??_C@_0BA@HNNGLCOB@PK_MODE_REVENGE@ DB 'PK_MODE_REVENGE', 00H ; `string'
CONST	ENDS
;	COMDAT ??_C@_0N@DCANEGJG@PK_MODE_FREE@
CONST	SEGMENT
??_C@_0N@DCANEGJG@PK_MODE_FREE@ DB 'PK_MODE_FREE', 00H	; `string'
CONST	ENDS
;	COMDAT ??_C@_0BD@POBHIINM@SKILL_INDEX_SUMMON@
CONST	SEGMENT
??_C@_0BD@POBHIINM@SKILL_INDEX_SUMMON@ DB 'SKILL_INDEX_SUMMON', 00H ; `string'
CONST	ENDS
;	COMDAT ??_C@_0O@BIPAMBIG@PK_MODE_PEACE@
CONST	SEGMENT
??_C@_0O@BIPAMBIG@PK_MODE_PEACE@ DB 'PK_MODE_PEACE', 00H ; `string'
CONST	ENDS
;	COMDAT ??_C@_0BG@DMEIDEKO@SKILL_INDEX_POLYMORPH@
CONST	SEGMENT
??_C@_0BG@DMEIDEKO@SKILL_INDEX_POLYMORPH@ DB 'SKILL_INDEX_POLYMORPH', 00H ; `string'
CONST	ENDS
;	COMDAT ??_C@_0BD@HOAGGFNA@SKILL_INDEX_RIDING@
CONST	SEGMENT
??_C@_0BD@HOAGGFNA@SKILL_INDEX_RIDING@ DB 'SKILL_INDEX_RIDING', 00H ; `string'
CONST	ENDS
;	COMDAT ??_C@_0BG@EEJDAHGJ@SKILL_INDEX_LANGUAGE2@
CONST	SEGMENT
??_C@_0BG@EEJDAHGJ@SKILL_INDEX_LANGUAGE2@ DB 'SKILL_INDEX_LANGUAGE2', 00H ; `string'
CONST	ENDS
;	COMDAT ??_C@_0BG@FNIIDGCI@SKILL_INDEX_LANGUAGE3@
CONST	SEGMENT
??_C@_0BG@FNIIDGCI@SKILL_INDEX_LANGUAGE3@ DB 'SKILL_INDEX_LANGUAGE3', 00H ; `string'
CONST	ENDS
;	COMDAT ??_C@_0BC@HACNAMIK@SKILL_INDEX_COMBO@
CONST	SEGMENT
??_C@_0BC@HACNAMIK@SKILL_INDEX_COMBO@ DB 'SKILL_INDEX_COMBO', 00H ; `string'
CONST	ENDS
;	COMDAT ??_C@_0BG@GPLOFEKK@SKILL_INDEX_LANGUAGE1@
CONST	SEGMENT
??_C@_0BG@GPLOFEKK@SKILL_INDEX_LANGUAGE1@ DB 'SKILL_INDEX_LANGUAGE1', 00H ; `string'
CONST	ENDS
;	COMDAT ??_C@_0BD@KFCAJBFG@SKILL_INDEX_MINING@
CONST	SEGMENT
??_C@_0BD@KFCAJBFG@SKILL_INDEX_MINING@ DB 'SKILL_INDEX_MINING', 00H ; `string'
CONST	ENDS
;	COMDAT ??_C@_0BD@IBJDJMEL@SKILL_INDEX_MAKING@
CONST	SEGMENT
??_C@_0BD@IBJDJMEL@SKILL_INDEX_MAKING@ DB 'SKILL_INDEX_MAKING', 00H ; `string'
CONST	ENDS
;	COMDAT ??_C@_0BE@MNBFKLPI@SKILL_INDEX_TONGSOL@
CONST	SEGMENT
??_C@_0BE@MNBFKLPI@SKILL_INDEX_TONGSOL@ DB 'SKILL_INDEX_TONGSOL', 00H ; `string'
CONST	ENDS
;	COMDAT ??_C@_0BE@HANBCKAH@SKILL_INDEX_FISHING@
CONST	SEGMENT
??_C@_0BE@HANBCKAH@SKILL_INDEX_FISHING@ DB 'SKILL_INDEX_FISHING', 00H ; `string'
CONST	ENDS
;	COMDAT ??_C@_0BF@PAKJEMH@PARTY_STATE_DEFENDER@
CONST	SEGMENT
??_C@_0BF@PAKJEMH@PARTY_STATE_DEFENDER@ DB 'PARTY_STATE_DEFENDER', 00H ; `string'
CONST	ENDS
;	COMDAT ??_C@_0BE@KCLJFDCO@PARTY_STATE_MAX_NUM@
CONST	SEGMENT
??_C@_0BE@KCLJFDCO@PARTY_STATE_MAX_NUM@ DB 'PARTY_STATE_MAX_NUM', 00H ; `string'
CONST	ENDS
;	COMDAT ??_C@_0BJ@EIPCPJKC@PARTY_STATE_SKILL_MASTER@
CONST	SEGMENT
??_C@_0BJ@EIPCPJKC@PARTY_STATE_SKILL_MASTER@ DB 'PARTY_STATE_SKILL_MASTER'
	DB	00H						; `string'
CONST	ENDS
;	COMDAT ??_C@_0BG@LCNEBE@PARTY_STATE_BERSERKER@
CONST	SEGMENT
??_C@_0BG@LCNEBE@PARTY_STATE_BERSERKER@ DB 'PARTY_STATE_BERSERKER', 00H ; `string'
CONST	ENDS
;	COMDAT ??_C@_0BD@FHMGGDNP@PARTY_STATE_TANKER@
CONST	SEGMENT
??_C@_0BD@FHMGGDNP@PARTY_STATE_TANKER@ DB 'PARTY_STATE_TANKER', 00H ; `string'
CONST	ENDS
;	COMDAT ??_C@_0BD@JJFBJLK@PARTY_STATE_BUFFER@
CONST	SEGMENT
??_C@_0BD@JJFBJLK@PARTY_STATE_BUFFER@ DB 'PARTY_STATE_BUFFER', 00H ; `string'
CONST	ENDS
;	COMDAT ??_C@_0BD@ECFFHEOH@PARTY_STATE_LEADER@
CONST	SEGMENT
??_C@_0BD@ECFFHEOH@PARTY_STATE_LEADER@ DB 'PARTY_STATE_LEADER', 00H ; `string'
CONST	ENDS
;	COMDAT ??_C@_0BF@DOKPPLCL@PARTY_STATE_ATTACKER@
CONST	SEGMENT
??_C@_0BF@DOKPPLCL@PARTY_STATE_ATTACKER@ DB 'PARTY_STATE_ATTACKER', 00H ; `string'
CONST	ENDS
;	COMDAT ??_C@_0BA@IACJJMNA@DETACH_METIN_OK@
CONST	SEGMENT
??_C@_0BA@IACJJMNA@DETACH_METIN_OK@ DB 'DETACH_METIN_OK', 00H ; `string'
CONST	ENDS
;	COMDAT ??_C@_0BD@PNFBHDHD@PARTY_STATE_NORMAL@
CONST	SEGMENT
??_C@_0BD@PNFBHDHD@PARTY_STATE_NORMAL@ DB 'PARTY_STATE_NORMAL', 00H ; `string'
CONST	ENDS
;	COMDAT ??_C@_0CG@BCIFDNEM@ATTACH_METIN_CANT_ATTACH_TO_EQU@
CONST	SEGMENT
??_C@_0CG@BCIFDNEM@ATTACH_METIN_CANT_ATTACH_TO_EQU@ DB 'ATTACH_METIN_CANT'
	DB	'_ATTACH_TO_EQUIPMENT', 00H			; `string'
CONST	ENDS
;	COMDAT ??_C@_0BC@HGBPKPKG@DETACH_METIN_CANT@
CONST	SEGMENT
??_C@_0BC@HGBPKPKG@DETACH_METIN_CANT@ DB 'DETACH_METIN_CANT', 00H ; `string'
CONST	ENDS
;	COMDAT ??_C@_0CB@MAILDNNI@ATTACH_METIN_NO_MATCHABLE_SOCKE@
CONST	SEGMENT
??_C@_0CB@MAILDNNI@ATTACH_METIN_NO_MATCHABLE_SOCKE@ DB 'ATTACH_METIN_NO_M'
	DB	'ATCHABLE_SOCKET', 00H			; `string'
CONST	ENDS
;	COMDAT ??_C@_0CD@JNOPKOFJ@ATTACH_METIN_NOT_EXIST_GOLD_SOC@
CONST	SEGMENT
??_C@_0CD@JNOPKOFJ@ATTACH_METIN_NOT_EXIST_GOLD_SOC@ DB 'ATTACH_METIN_NOT_'
	DB	'EXIST_GOLD_SOCKET', 00H			; `string'
CONST	ENDS
;	COMDAT ??_C@_0BA@HOJAFGB@ATTACH_METIN_OK@
CONST	SEGMENT
??_C@_0BA@HOJAFGB@ATTACH_METIN_OK@ DB 'ATTACH_METIN_OK', 00H ; `string'
CONST	ENDS
;	COMDAT ??_C@_0CA@OFAKGLFM@ATTACH_METIN_NOT_MATCHABLE_ITEM@
CONST	SEGMENT
??_C@_0CA@OFAKGLFM@ATTACH_METIN_NOT_MATCHABLE_ITEM@ DB 'ATTACH_METIN_NOT_'
	DB	'MATCHABLE_ITEM', 00H			; `string'
CONST	ENDS
;	COMDAT ??_C@_0BH@OENPPLJB@REFINE_CANT_REFINE_ROD@
CONST	SEGMENT
??_C@_0BH@OENPPLJB@REFINE_CANT_REFINE_ROD@ DB 'REFINE_CANT_REFINE_ROD', 00H ; `string'
CONST	ENDS
;	COMDAT ??_C@_0BC@CBCJMHP@ATTACH_METIN_CANT@
CONST	SEGMENT
??_C@_0BC@CBCJMHP@ATTACH_METIN_CANT@ DB 'ATTACH_METIN_CANT', 00H ; `string'
CONST	ENDS
;	COMDAT ??_C@_0BL@EILCCEPE@REFINE_NOT_NEXT_GRADE_ITEM@
CONST	SEGMENT
??_C@_0BL@EILCCEPE@REFINE_NOT_NEXT_GRADE_ITEM@ DB 'REFINE_NOT_NEXT_GRADE_'
	DB	'ITEM', 00H					; `string'
CONST	ENDS
;	COMDAT ??_C@_0CG@LFLLDFCE@REFINE_CANT_REFINE_METIN_TO_EQU@
CONST	SEGMENT
??_C@_0CG@LFLLDFCE@REFINE_CANT_REFINE_METIN_TO_EQU@ DB 'REFINE_CANT_REFIN'
	DB	'E_METIN_TO_EQUIPMENT', 00H			; `string'
CONST	ENDS
;	COMDAT ??_C@_0BN@FMBLMMOD@REFINE_NEED_MORE_GOOD_SCROLL@
CONST	SEGMENT
??_C@_0BN@FMBLMMOD@REFINE_NEED_MORE_GOOD_SCROLL@ DB 'REFINE_NEED_MORE_GOO'
	DB	'D_SCROLL', 00H				; `string'
CONST	ENDS
;	COMDAT ??_C@_0BN@JPDLJDPD@REFINE_CANT_MAKE_SOCKET_ITEM@
CONST	SEGMENT
??_C@_0BN@JPDLJDPD@REFINE_CANT_MAKE_SOCKET_ITEM@ DB 'REFINE_CANT_MAKE_SOC'
	DB	'KET_ITEM', 00H				; `string'
CONST	ENDS
;	COMDAT ??_C@_09FFJEIDJG@REFINE_OK@
CONST	SEGMENT
??_C@_09FFJEIDJG@REFINE_OK@ DB 'REFINE_OK', 00H		; `string'
CONST	ENDS
;	COMDAT ??_C@_0CA@CPLGFHBD@REFINE_ALREADY_MAX_SOCKET_COUNT@
CONST	SEGMENT
??_C@_0CA@CPLGFHBD@REFINE_ALREADY_MAX_SOCKET_COUNT@ DB 'REFINE_ALREADY_MA'
	DB	'X_SOCKET_COUNT', 00H			; `string'
CONST	ENDS
;	COMDAT ??_C@_0BK@MOFNOJPN@COSTUME_ATTRIBUTE_MAX_NUM@
CONST	SEGMENT
??_C@_0BK@MOFNOJPN@COSTUME_ATTRIBUTE_MAX_NUM@ DB 'COSTUME_ATTRIBUTE_MAX_N'
	DB	'UM', 00H					; `string'
CONST	ENDS
;	COMDAT ??_C@_0M@FNDEJPGN@REFINE_CANT@
CONST	SEGMENT
??_C@_0M@FNDEJPGN@REFINE_CANT@ DB 'REFINE_CANT', 00H	; `string'
CONST	ENDS
;	COMDAT ??_C@_0BI@LMPJICAN@ATTRIBUTE_SLOT_RARE_END@
CONST	SEGMENT
??_C@_0BI@LMPJICAN@ATTRIBUTE_SLOT_RARE_END@ DB 'ATTRIBUTE_SLOT_RARE_END', 00H ; `string'
CONST	ENDS
;	COMDAT ??_C@_0BH@BPEONNLD@ATTRIBUTE_SLOT_MAX_NUM@
CONST	SEGMENT
??_C@_0BH@BPEONNLD@ATTRIBUTE_SLOT_MAX_NUM@ DB 'ATTRIBUTE_SLOT_MAX_NUM', 00H ; `string'
CONST	ENDS
;	COMDAT ??_C@_0BI@PNEKDDH@ATTRIBUTE_SLOT_NORM_END@
CONST	SEGMENT
??_C@_0BI@PNEKDDH@ATTRIBUTE_SLOT_NORM_END@ DB 'ATTRIBUTE_SLOT_NORM_END', 00H ; `string'
CONST	ENDS
;	COMDAT ??_C@_0BK@MPPGNMKB@ATTRIBUTE_SLOT_RARE_START@
CONST	SEGMENT
??_C@_0BK@MPPGNMKB@ATTRIBUTE_SLOT_RARE_START@ DB 'ATTRIBUTE_SLOT_RARE_STA'
	DB	'RT', 00H					; `string'
CONST	ENDS
;	COMDAT ??_C@_0BI@KKEJPCNE@ATTRIBUTE_SLOT_RARE_NUM@
CONST	SEGMENT
??_C@_0BI@KKEJPCNE@ATTRIBUTE_SLOT_RARE_NUM@ DB 'ATTRIBUTE_SLOT_RARE_NUM', 00H ; `string'
CONST	ENDS
;	COMDAT ??_C@_0BK@KGDGKBKL@ATTRIBUTE_SLOT_NORM_START@
CONST	SEGMENT
??_C@_0BK@KGDGKBKL@ATTRIBUTE_SLOT_NORM_START@ DB 'ATTRIBUTE_SLOT_NORM_STA'
	DB	'RT', 00H					; `string'
CONST	ENDS
;	COMDAT ??_C@_0BF@HOKBLOCN@METIN_SOCKET_MAX_NUM@
CONST	SEGMENT
??_C@_0BF@HOKBLOCN@METIN_SOCKET_MAX_NUM@ DB 'METIN_SOCKET_MAX_NUM', 00H ; `string'
CONST	ENDS
;	COMDAT ??_C@_0BI@BJGENDOO@ATTRIBUTE_SLOT_NORM_NUM@
CONST	SEGMENT
??_C@_0BI@BJGENDOO@ATTRIBUTE_SLOT_NORM_NUM@ DB 'ATTRIBUTE_SLOT_NORM_NUM', 00H ; `string'
CONST	ENDS
;	COMDAT ??_C@_0BJ@PHGNNMMA@METIN_SOCKET_TYPE_SILVER@
CONST	SEGMENT
??_C@_0BJ@PHGNNMMA@METIN_SOCKET_TYPE_SILVER@ DB 'METIN_SOCKET_TYPE_SILVER'
	DB	00H						; `string'
CONST	ENDS
;	COMDAT ??_C@_0BH@EFCNALEJ@METIN_SOCKET_TYPE_GOLD@
CONST	SEGMENT
??_C@_0BH@EFCNALEJ@METIN_SOCKET_TYPE_GOLD@ DB 'METIN_SOCKET_TYPE_GOLD', 00H ; `string'
CONST	ENDS
;	COMDAT ??_C@_0M@CHLINENA@EFFECT_PICK@
CONST	SEGMENT
??_C@_0M@CHLINENA@EFFECT_PICK@ DB 'EFFECT_PICK', 00H	; `string'
CONST	ENDS
;	COMDAT ??_C@_0BH@FCKCIMBH@METIN_SOCKET_TYPE_NONE@
CONST	SEGMENT
??_C@_0BH@FCKCIMBH@METIN_SOCKET_TYPE_NONE@ DB 'METIN_SOCKET_TYPE_NONE', 00H ; `string'
CONST	ENDS
;	COMDAT ??_C@_0L@HFAEBHHD@ITEM_MONEY@
CONST	SEGMENT
??_C@_0L@HFAEBHHD@ITEM_MONEY@ DB 'ITEM_MONEY', 00H	; `string'
CONST	ENDS
;	COMDAT ??_C@_0BB@IOEKBHAE@SKILL_SLOT_COUNT@
CONST	SEGMENT
??_C@_0BB@IOEKBHAE@SKILL_SLOT_COUNT@ DB 'SKILL_SLOT_COUNT', 00H ; `string'
CONST	ENDS
;	COMDAT ??_C@_0BJ@LHJDGDBJ@TRANSMUTATION_TYPE_MOUNT@
CONST	SEGMENT
??_C@_0BJ@LHJDGDBJ@TRANSMUTATION_TYPE_MOUNT@ DB 'TRANSMUTATION_TYPE_MOUNT'
	DB	00H						; `string'
CONST	ENDS
;	COMDAT ??_C@_0BI@HKKDBHO@TRANSMUTATION_TYPE_ITEM@
CONST	SEGMENT
??_C@_0BI@HKKDBHO@TRANSMUTATION_TYPE_ITEM@ DB 'TRANSMUTATION_TYPE_ITEM', 00H ; `string'
CONST	ENDS
;	COMDAT ??_C@_0BG@KJHPGJKN@SLOT_TYPE_CHANGE_LOOK@
CONST	SEGMENT
??_C@_0BG@KJHPGJKN@SLOT_TYPE_CHANGE_LOOK@ DB 'SLOT_TYPE_CHANGE_LOOK', 00H ; `string'
CONST	ENDS
;	COMDAT ??_C@_0BA@POJPOEAE@ITEM_SLOT_COUNT@
CONST	SEGMENT
??_C@_0BA@POJPOEAE@ITEM_SLOT_COUNT@ DB 'ITEM_SLOT_COUNT', 00H ; `string'
CONST	ENDS
;	COMDAT ??_C@_09MMGODLEO@SWITCHBOT@
CONST	SEGMENT
??_C@_09MMGODLEO@SWITCHBOT@ DB 'SWITCHBOT', 00H		; `string'
CONST	ENDS
;	COMDAT ??_C@_0BE@DINLJOM@SLOT_TYPE_SWITCHBOT@
CONST	SEGMENT
??_C@_0BE@DINLJOM@SLOT_TYPE_SWITCHBOT@ DB 'SLOT_TYPE_SWITCHBOT', 00H ; `string'
CONST	ENDS
;	COMDAT ??_C@_0P@LCDFMNHG@BELT_INVENTORY@
CONST	SEGMENT
??_C@_0P@LCDFMNHG@BELT_INVENTORY@ DB 'BELT_INVENTORY', 00H ; `string'
CONST	ENDS
;	COMDAT ??_C@_06GKBINIEJ@GROUND@
CONST	SEGMENT
??_C@_06GKBINIEJ@GROUND@ DB 'GROUND', 00H		; `string'
CONST	ENDS
;	COMDAT ??_C@_04JPFKNPOP@MALL@
CONST	SEGMENT
??_C@_04JPFKNPOP@MALL@ DB 'MALL', 00H			; `string'
CONST	ENDS
;	COMDAT ??_C@_0BG@FHEDCCNN@DRAGON_SOUL_INVENTORY@
CONST	SEGMENT
??_C@_0BG@FHEDCCNN@DRAGON_SOUL_INVENTORY@ DB 'DRAGON_SOUL_INVENTORY', 00H ; `string'
CONST	ENDS
;	COMDAT ??_C@_09GJGOMHMK@EQUIPMENT@
CONST	SEGMENT
??_C@_09GJGOMHMK@EQUIPMENT@ DB 'EQUIPMENT', 00H		; `string'
CONST	ENDS
;	COMDAT ??_C@_07NCKDBJCB@SAFEBOX@
CONST	SEGMENT
??_C@_07NCKDBJCB@SAFEBOX@ DB 'SAFEBOX', 00H		; `string'
CONST	ENDS
;	COMDAT ??_C@_0BA@NKAFFIGF@RESERVED_WINDOW@
CONST	SEGMENT
??_C@_0BA@NKAFFIGF@RESERVED_WINDOW@ DB 'RESERVED_WINDOW', 00H ; `string'
CONST	ENDS
;	COMDAT ??_C@_09NCAHJFFG@INVENTORY@
CONST	SEGMENT
??_C@_09NCAHJFFG@INVENTORY@ DB 'INVENTORY', 00H		; `string'
CONST	ENDS
;	COMDAT ??_C@_0BN@HAJHAAOF@SLOT_TYPE_GIFT_BOX_INVENTORY@
CONST	SEGMENT
??_C@_0BN@HAJHAAOF@SLOT_TYPE_GIFT_BOX_INVENTORY@ DB 'SLOT_TYPE_GIFT_BOX_I'
	DB	'NVENTORY', 00H				; `string'
CONST	ENDS
;	COMDAT ??_C@_0BN@CIDENILN@SLOT_TYPE_CHANGERS_INVENTORY@
CONST	SEGMENT
??_C@_0BN@CIDENILN@SLOT_TYPE_CHANGERS_INVENTORY@ DB 'SLOT_TYPE_CHANGERS_I'
	DB	'NVENTORY', 00H				; `string'
CONST	ENDS
;	COMDAT ??_C@_0CC@PPMGELGN@SLOT_TYPE_UPGRADE_ITEMS_INVENTO@
CONST	SEGMENT
??_C@_0CC@PPMGELGN@SLOT_TYPE_UPGRADE_ITEMS_INVENTO@ DB 'SLOT_TYPE_UPGRADE'
	DB	'_ITEMS_INVENTORY', 00H			; `string'
CONST	ENDS
;	COMDAT ??_C@_0BK@OKEJBABA@SLOT_TYPE_STONE_INVENTORY@
CONST	SEGMENT
??_C@_0BK@OKEJBABA@SLOT_TYPE_STONE_INVENTORY@ DB 'SLOT_TYPE_STONE_INVENTO'
	DB	'RY', 00H					; `string'
CONST	ENDS
;	COMDAT ??_C@_0BJ@BIEENKEI@SLOT_TYPE_BELT_INVENTORY@
CONST	SEGMENT
??_C@_0BJ@BIEENKEI@SLOT_TYPE_BELT_INVENTORY@ DB 'SLOT_TYPE_BELT_INVENTORY'
	DB	00H						; `string'
CONST	ENDS
;	COMDAT ??_C@_0BP@KGAMMBDG@SLOT_TYPE_SKILL_BOOK_INVENTORY@
CONST	SEGMENT
??_C@_0BP@KGAMMBDG@SLOT_TYPE_SKILL_BOOK_INVENTORY@ DB 'SLOT_TYPE_SKILL_BO'
	DB	'OK_INVENTORY', 00H				; `string'
CONST	ENDS
;	COMDAT ??_C@_0BC@LKMHLHKJ@SLOT_TYPE_EMOTION@
CONST	SEGMENT
??_C@_0BC@LKMHLHKJ@SLOT_TYPE_EMOTION@ DB 'SLOT_TYPE_EMOTION', 00H ; `string'
CONST	ENDS
;	COMDAT ??_C@_0CA@FHKIPOOP@SLOT_TYPE_DRAGON_SOUL_INVENTORY@
CONST	SEGMENT
??_C@_0CA@FHKIPOOP@SLOT_TYPE_DRAGON_SOUL_INVENTORY@ DB 'SLOT_TYPE_DRAGON_'
	DB	'SOUL_INVENTORY', 00H			; `string'
CONST	ENDS
;	COMDAT ??_C@_0BH@MJAEADNE@SLOT_TYPE_PRIVATE_SHOP@
CONST	SEGMENT
??_C@_0BH@MJAEADNE@SLOT_TYPE_PRIVATE_SHOP@ DB 'SLOT_TYPE_PRIVATE_SHOP', 00H ; `string'
CONST	ENDS
;	COMDAT ??_C@_0P@OEAGANKI@SLOT_TYPE_MALL@
CONST	SEGMENT
??_C@_0P@OEAGANKI@SLOT_TYPE_MALL@ DB 'SLOT_TYPE_MALL', 00H ; `string'
CONST	ENDS
;	COMDAT ??_C@_0BF@CPPFMLHN@SLOT_TYPE_QUICK_SLOT@
CONST	SEGMENT
??_C@_0BF@CPPFMLHN@SLOT_TYPE_QUICK_SLOT@ DB 'SLOT_TYPE_QUICK_SLOT', 00H ; `string'
CONST	ENDS
;	COMDAT ??_C@_0BC@HGKFDIFN@SLOT_TYPE_SAFEBOX@
CONST	SEGMENT
??_C@_0BC@HGKFDIFN@SLOT_TYPE_SAFEBOX@ DB 'SLOT_TYPE_SAFEBOX', 00H ; `string'
CONST	ENDS
;	COMDAT ??_C@_0BJ@DBNHPJKE@SLOT_TYPE_EXCHANGE_OWNER@
CONST	SEGMENT
??_C@_0BJ@DBNHPJKE@SLOT_TYPE_EXCHANGE_OWNER@ DB 'SLOT_TYPE_EXCHANGE_OWNER'
	DB	00H						; `string'
CONST	ENDS
;	COMDAT ??_C@_0BK@KJHLAGBH@SLOT_TYPE_EXCHANGE_TARGET@
CONST	SEGMENT
??_C@_0BK@KJHLAGBH@SLOT_TYPE_EXCHANGE_TARGET@ DB 'SLOT_TYPE_EXCHANGE_TARG'
	DB	'ET', 00H					; `string'
CONST	ENDS
;	COMDAT ??_C@_0BA@MAJHKGKG@SLOT_TYPE_SKILL@
CONST	SEGMENT
??_C@_0BA@MAJHKGKG@SLOT_TYPE_SKILL@ DB 'SLOT_TYPE_SKILL', 00H ; `string'
CONST	ENDS
;	COMDAT ??_C@_0P@KCOPIIMF@SLOT_TYPE_SHOP@
CONST	SEGMENT
??_C@_0P@KCOPIIMF@SLOT_TYPE_SHOP@ DB 'SLOT_TYPE_SHOP', 00H ; `string'
CONST	ENDS
;	COMDAT ??_C@_0P@JBDPGPGM@SLOT_TYPE_NONE@
CONST	SEGMENT
??_C@_0P@JBDPGPGM@SLOT_TYPE_NONE@ DB 'SLOT_TYPE_NONE', 00H ; `string'
CONST	ENDS
;	COMDAT ??_C@_0BE@BNOEBHPE@SLOT_TYPE_INVENTORY@
CONST	SEGMENT
??_C@_0BE@BNOEBHPE@SLOT_TYPE_INVENTORY@ DB 'SLOT_TYPE_INVENTORY', 00H ; `string'
CONST	ENDS
;	COMDAT ??_C@_09DBJMODBC@MBT_RIGHT@
CONST	SEGMENT
??_C@_09DBJMODBC@MBT_RIGHT@ DB 'MBT_RIGHT', 00H		; `string'
CONST	ENDS
;	COMDAT ??_C@_08OMNIMJHC@MBT_LEFT@
CONST	SEGMENT
??_C@_08OMNIMJHC@MBT_LEFT@ DB 'MBT_LEFT', 00H		; `string'
CONST	ENDS
;	COMDAT ??_C@_09JEJKPPEO@MBS_PRESS@
CONST	SEGMENT
??_C@_09JEJKPPEO@MBS_PRESS@ DB 'MBS_PRESS', 00H		; `string'
CONST	ENDS
;	COMDAT ??_C@_09BKODCCAJ@MBS_CLICK@
CONST	SEGMENT
??_C@_09BKODCCAJ@MBS_CLICK@ DB 'MBS_CLICK', 00H		; `string'
CONST	ENDS
;	COMDAT ??_C@_08BLLANCB@MBF_MOVE@
CONST	SEGMENT
??_C@_08BLLANCB@MBF_MOVE@ DB 'MBF_MOVE', 00H		; `string'
CONST	ENDS
;	COMDAT ??_C@_08CIEGLDP@MBF_AUTO@
CONST	SEGMENT
??_C@_08CIEGLDP@MBF_AUTO@ DB 'MBF_AUTO', 00H		; `string'
CONST	ENDS
;	COMDAT ??_C@_0L@JHBFAMB@MBF_CAMERA@
CONST	SEGMENT
??_C@_0L@JHBFAMB@MBF_CAMERA@ DB 'MBF_CAMERA', 00H	; `string'
CONST	ENDS
;	COMDAT ??_C@_09FAENJFL@MBF_SMART@
CONST	SEGMENT
??_C@_09FAENJFL@MBF_SMART@ DB 'MBF_SMART', 00H		; `string'
CONST	ENDS
;	COMDAT ??_C@_09NLFDBCDH@MBF_SKILL@
CONST	SEGMENT
??_C@_09NLFDBCDH@MBF_SKILL@ DB 'MBF_SKILL', 00H		; `string'
CONST	ENDS
;	COMDAT ??_C@_0L@MIGMJBKJ@MBF_ATTACK@
CONST	SEGMENT
??_C@_0L@MIGMJBKJ@MBF_ATTACK@ DB 'MBF_ATTACK', 00H	; `string'
CONST	ENDS
;	COMDAT ??_C@_0BO@KGEOCGGA@GIFT_BOX_INVENTORY_SLOT_COUNT@
CONST	SEGMENT
??_C@_0BO@KGEOCGGA@GIFT_BOX_INVENTORY_SLOT_COUNT@ DB 'GIFT_BOX_INVENTORY_'
	DB	'SLOT_COUNT', 00H				; `string'
CONST	ENDS
;	COMDAT ??_C@_0BO@HDBPIDOG@CHANGERS_INVENTORY_SLOT_COUNT@
CONST	SEGMENT
??_C@_0BO@HDBPIDOG@CHANGERS_INVENTORY_SLOT_COUNT@ DB 'CHANGERS_INVENTORY_'
	DB	'SLOT_COUNT', 00H				; `string'
CONST	ENDS
;	COMDAT ??_C@_0CD@PILBODE@UPGRADE_ITEMS_INVENTORY_SLOT_CO@
CONST	SEGMENT
??_C@_0CD@PILBODE@UPGRADE_ITEMS_INVENTORY_SLOT_CO@ DB 'UPGRADE_ITEMS_INVE'
	DB	'NTORY_SLOT_COUNT', 00H			; `string'
CONST	ENDS
;	COMDAT ??_C@_0BL@NOCNFKMC@STONE_INVENTORY_SLOT_COUNT@
CONST	SEGMENT
??_C@_0BL@NOCNFKMC@STONE_INVENTORY_SLOT_COUNT@ DB 'STONE_INVENTORY_SLOT_C'
	DB	'OUNT', 00H					; `string'
CONST	ENDS
;	COMDAT ??_C@_0BN@IDPOFDE@SPECIAL_INVENTORY_PAGE_COUNT@
CONST	SEGMENT
??_C@_0BN@IDPOFDE@SPECIAL_INVENTORY_PAGE_COUNT@ DB 'SPECIAL_INVENTORY_PAG'
	DB	'E_COUNT', 00H				; `string'
CONST	ENDS
;	COMDAT ??_C@_0CA@LILLGBFC@SKILL_BOOK_INVENTORY_SLOT_COUNT@
CONST	SEGMENT
??_C@_0CA@LILLGBFC@SKILL_BOOK_INVENTORY_SLOT_COUNT@ DB 'SKILL_BOOK_INVENT'
	DB	'ORY_SLOT_COUNT', 00H			; `string'
CONST	ENDS
;	COMDAT ??_C@_0BJ@PAALBJCN@NEW_EQUIPMENT_SLOT_COUNT@
CONST	SEGMENT
??_C@_0BJ@PAALBJCN@NEW_EQUIPMENT_SLOT_COUNT@ DB 'NEW_EQUIPMENT_SLOT_COUNT'
	DB	00H						; `string'
CONST	ENDS
;	COMDAT ??_C@_0BM@JDPNNKAI@SPECIAL_INVENTORY_PAGE_SIZE@
CONST	SEGMENT
??_C@_0BM@JDPNNKAI@SPECIAL_INVENTORY_PAGE_SIZE@ DB 'SPECIAL_INVENTORY_PAG'
	DB	'E_SIZE', 00H				; `string'
CONST	ENDS
;	COMDAT ??_C@_0BF@MADFLPAE@EQUIPMENT_PAGE_COUNT@
CONST	SEGMENT
??_C@_0BF@MADFLPAE@EQUIPMENT_PAGE_COUNT@ DB 'EQUIPMENT_PAGE_COUNT', 00H ; `string'
CONST	ENDS
;	COMDAT ??_C@_0BJ@COKKCHPJ@NEW_EQUIPMENT_SLOT_START@
CONST	SEGMENT
??_C@_0BJ@COKKCHPJ@NEW_EQUIPMENT_SLOT_START@ DB 'NEW_EQUIPMENT_SLOT_START'
	DB	00H						; `string'
CONST	ENDS
;	COMDAT ??_C@_0BF@LCFAAJPA@INVENTORY_SLOT_COUNT@
CONST	SEGMENT
??_C@_0BF@LCFAAJPA@INVENTORY_SLOT_COUNT@ DB 'INVENTORY_SLOT_COUNT', 00H ; `string'
CONST	ENDS
;	COMDAT ??_C@_0BF@HJEBPPMM@EQUIPMENT_SLOT_START@
CONST	SEGMENT
??_C@_0BF@HJEBPPMM@EQUIPMENT_SLOT_START@ DB 'EQUIPMENT_SLOT_START', 00H ; `string'
CONST	ENDS
;	COMDAT ??_C@_0BE@CEBDMLGH@INVENTORY_PAGE_SIZE@
CONST	SEGMENT
??_C@_0BE@CEBDMLGH@INVENTORY_PAGE_SIZE@ DB 'INVENTORY_PAGE_SIZE', 00H ; `string'
CONST	ENDS
;	COMDAT ??_C@_0BF@NFIFHHOM@INVENTORY_PAGE_COUNT@
CONST	SEGMENT
??_C@_0BF@NFIFHHOM@INVENTORY_PAGE_COUNT@ DB 'INVENTORY_PAGE_COUNT', 00H ; `string'
CONST	ENDS
;	COMDAT ??_C@_0BA@LCKKFCJM@CATEGORY_ACTIVE@
CONST	SEGMENT
??_C@_0BA@LCKKFCJM@CATEGORY_ACTIVE@ DB 'CATEGORY_ACTIVE', 00H ; `string'
CONST	ENDS
;	COMDAT ??_C@_0BB@HCMEALJK@CATEGORY_PASSIVE@
CONST	SEGMENT
??_C@_0BB@HCMEALJK@CATEGORY_PASSIVE@ DB 'CATEGORY_PASSIVE', 00H ; `string'
CONST	ENDS
;	COMDAT ??_C@_0BJ@CFOEIGCN@SKILL_GRADE_GRAND_MASTER@
CONST	SEGMENT
??_C@_0BJ@CFOEIGCN@SKILL_GRADE_GRAND_MASTER@ DB 'SKILL_GRADE_GRAND_MASTER'
	DB	00H						; `string'
CONST	ENDS
;	COMDAT ??_C@_0BL@DCIPLDCA@SKILL_GRADE_PERFECT_MASTER@
CONST	SEGMENT
??_C@_0BL@DCIPLDCA@SKILL_GRADE_PERFECT_MASTER@ DB 'SKILL_GRADE_PERFECT_MA'
	DB	'STER', 00H					; `string'
CONST	ENDS
;	COMDAT ??_C@_0BD@LAKFNFGD@SKILL_GRADE_NORMAL@
CONST	SEGMENT
??_C@_0BD@LAKFNFGD@SKILL_GRADE_NORMAL@ DB 'SKILL_GRADE_NORMAL', 00H ; `string'
CONST	ENDS
;	COMDAT ??_C@_0BD@HIHOAICI@SKILL_GRADE_MASTER@
CONST	SEGMENT
??_C@_0BD@HIHOAICI@SKILL_GRADE_MASTER@ DB 'SKILL_GRADE_MASTER', 00H ; `string'
CONST	ENDS
;	COMDAT ??_C@_0BK@IHLHEPKN@POINT_MAGIC_ATT_BONUS_PER@
CONST	SEGMENT
??_C@_0BK@IHLHEPKN@POINT_MAGIC_ATT_BONUS_PER@ DB 'POINT_MAGIC_ATT_BONUS_P'
	DB	'ER', 00H					; `string'
CONST	ENDS
;	COMDAT ??_C@_0CA@GOGOBLID@POINT_MELEE_MAGIC_ATT_BONUS_PER@
CONST	SEGMENT
??_C@_0CA@GOGOBLID@POINT_MELEE_MAGIC_ATT_BONUS_PER@ DB 'POINT_MELEE_MAGIC'
	DB	'_ATT_BONUS_PER', 00H			; `string'
CONST	ENDS
;	COMDAT ??_C@_0BA@PIHNCBED@ENERGY_END_TIME@
CONST	SEGMENT
??_C@_0BA@PIHNCBED@ENERGY_END_TIME@ DB 'ENERGY_END_TIME', 00H ; `string'
CONST	ENDS
;	COMDAT ??_C@_0BJ@PLDLOAKE@POINT_COSTUME_ATTR_BONUS@
CONST	SEGMENT
??_C@_0BJ@PLDLOAKE@POINT_COSTUME_ATTR_BONUS@ DB 'POINT_COSTUME_ATTR_BONUS'
	DB	00H						; `string'
CONST	ENDS
;	COMDAT ??_C@_0BH@PDEJPPI@POINT_ATTBONUS_MONSTER@
CONST	SEGMENT
??_C@_0BH@PDEJPPI@POINT_ATTBONUS_MONSTER@ DB 'POINT_ATTBONUS_MONSTER', 00H ; `string'
CONST	ENDS
;	COMDAT ??_C@_06KOEJHMAL@ENERGY@
CONST	SEGMENT
??_C@_06KOEJHMAL@ENERGY@ DB 'ENERGY', 00H		; `string'
CONST	ENDS
;	COMDAT ??_C@_0BO@CEPNAEGB@POINT_NORMAL_HIT_DEFEND_BONUS@
CONST	SEGMENT
??_C@_0BO@CEPNAEGB@POINT_NORMAL_HIT_DEFEND_BONUS@ DB 'POINT_NORMAL_HIT_DE'
	DB	'FEND_BONUS', 00H				; `string'
CONST	ENDS
;	COMDAT ??_C@_0N@IJMJNHHP@RESIST_MAGIC@
CONST	SEGMENT
??_C@_0N@IJMJNHHP@RESIST_MAGIC@ DB 'RESIST_MAGIC', 00H	; `string'
CONST	ENDS
;	COMDAT ??_C@_0BO@GNDIKOOF@POINT_NORMAL_HIT_DAMAGE_BONUS@
CONST	SEGMENT
??_C@_0BO@GNDIKOOF@POINT_NORMAL_HIT_DAMAGE_BONUS@ DB 'POINT_NORMAL_HIT_DA'
	DB	'MAGE_BONUS', 00H				; `string'
CONST	ENDS
;	COMDAT ??_C@_0BJ@LPIAEILC@POINT_SKILL_DEFEND_BONUS@
CONST	SEGMENT
??_C@_0BJ@LPIAEILC@POINT_SKILL_DEFEND_BONUS@ DB 'POINT_SKILL_DEFEND_BONUS'
	DB	00H						; `string'
CONST	ENDS
;	COMDAT ??_C@_0BA@HLPPKIKO@POINT_ATT_BONUS@
CONST	SEGMENT
??_C@_0BA@HLPPKIKO@POINT_ATT_BONUS@ DB 'POINT_ATT_BONUS', 00H ; `string'
CONST	ENDS
;	COMDAT ??_C@_0BJ@PGEFOCDG@POINT_SKILL_DAMAGE_BONUS@
CONST	SEGMENT
??_C@_0BJ@PGEFOCDG@POINT_SKILL_DAMAGE_BONUS@ DB 'POINT_SKILL_DAMAGE_BONUS'
	DB	00H						; `string'
CONST	ENDS
;	COMDAT ??_C@_0BB@OCODMABI@POINT_MAX_HP_PCT@
CONST	SEGMENT
??_C@_0BB@OCODMABI@POINT_MAX_HP_PCT@ DB 'POINT_MAX_HP_PCT', 00H ; `string'
CONST	ENDS
;	COMDAT ??_C@_0BB@IHDKAICM@POINT_MAX_SP_PCT@
CONST	SEGMENT
??_C@_0BB@IHDKAICM@POINT_MAX_SP_PCT@ DB 'POINT_MAX_SP_PCT', 00H ; `string'
CONST	ENDS
;	COMDAT ??_C@_0BF@FCMHLHC@POINT_MALL_ITEMBONUS@
CONST	SEGMENT
??_C@_0BF@FCMHLHC@POINT_MALL_ITEMBONUS@ DB 'POINT_MALL_ITEMBONUS', 00H ; `string'
CONST	ENDS
;	COMDAT ??_C@_0BF@LPKHMJJF@POINT_MALL_GOLDBONUS@
CONST	SEGMENT
??_C@_0BF@LPKHMJJF@POINT_MALL_GOLDBONUS@ DB 'POINT_MALL_GOLDBONUS', 00H ; `string'
CONST	ENDS
;	COMDAT ??_C@_0BE@FJKLFHOA@POINT_MALL_DEFBONUS@
CONST	SEGMENT
??_C@_0BE@FJKLFHOA@POINT_MALL_DEFBONUS@ DB 'POINT_MALL_DEFBONUS', 00H ; `string'
CONST	ENDS
;	COMDAT ??_C@_0BE@KNGAMOKN@POINT_MALL_EXPBONUS@
CONST	SEGMENT
??_C@_0BE@KNGAMOKN@POINT_MALL_EXPBONUS@ DB 'POINT_MALL_EXPBONUS', 00H ; `string'
CONST	ENDS
;	COMDAT ??_C@_0BE@BGNEFMNJ@POINT_PENETRATE_PCT@
CONST	SEGMENT
??_C@_0BE@BGNEFMNJ@POINT_PENETRATE_PCT@ DB 'POINT_PENETRATE_PCT', 00H ; `string'
CONST	ENDS
;	COMDAT ??_C@_0BE@FDGMKOPN@POINT_MALL_ATTBONUS@
CONST	SEGMENT
??_C@_0BE@FDGMKOPN@POINT_MALL_ATTBONUS@ DB 'POINT_MALL_ATTBONUS', 00H ; `string'
CONST	ENDS
;	COMDAT ??_C@_07MEMMKJPK@MAX_NUM@
CONST	SEGMENT
??_C@_07MEMMKJPK@MAX_NUM@ DB 'MAX_NUM', 00H		; `string'
CONST	ENDS
;	COMDAT ??_C@_0BD@CPEECKKP@POINT_CRITICAL_PCT@
CONST	SEGMENT
??_C@_0BD@CPEECKKP@POINT_CRITICAL_PCT@ DB 'POINT_CRITICAL_PCT', 00H ; `string'
CONST	ENDS
;	COMDAT ??_C@_0M@FGICENAO@SP_RECOVERY@
CONST	SEGMENT
??_C@_0M@FGICENAO@SP_RECOVERY@ DB 'SP_RECOVERY', 00H	; `string'
CONST	ENDS
;	COMDAT ??_C@_0P@GAAMLPFK@ATTACKER_BONUS@
CONST	SEGMENT
??_C@_0P@GAAMLPFK@ATTACKER_BONUS@ DB 'ATTACKER_BONUS', 00H ; `string'
CONST	ENDS
;	COMDAT ??_C@_0N@KHDDEEFG@BOW_DISTANCE@
CONST	SEGMENT
??_C@_0N@KHDDEEFG@BOW_DISTANCE@ DB 'BOW_DISTANCE', 00H	; `string'
CONST	ENDS
;	COMDAT ??_C@_0M@CLAIAEPM@HP_RECOVERY@
CONST	SEGMENT
??_C@_0M@CLAIAEPM@HP_RECOVERY@ DB 'HP_RECOVERY', 00H	; `string'
CONST	ENDS
;	COMDAT ??_C@_0M@HAFIBGFL@SKILL_HORSE@
CONST	SEGMENT
??_C@_0M@HAFIBGFL@SKILL_HORSE@ DB 'SKILL_HORSE', 00H	; `string'
CONST	ENDS
;	COMDAT ??_C@_08CKIIBBI@PLAYTIME@
CONST	SEGMENT
??_C@_08CKIIBBI@PLAYTIME@ DB 'PLAYTIME', 00H		; `string'
CONST	ENDS
;	COMDAT ??_C@_0O@JLNOPGFK@SKILL_SUPPORT@
CONST	SEGMENT
??_C@_0O@JLNOPGFK@SKILL_SUPPORT@ DB 'SKILL_SUPPORT', 00H ; `string'
CONST	ENDS
;	COMDAT ??_C@_0N@DNBJLBPA@SKILL_ACTIVE@
CONST	SEGMENT
??_C@_0N@DNBJLBPA@SKILL_ACTIVE@ DB 'SKILL_ACTIVE', 00H	; `string'
CONST	ENDS
;	COMDAT ??_C@_04KNIOFKKL@STAT@
CONST	SEGMENT
??_C@_04KNIOFKKL@STAT@ DB 'STAT', 00H			; `string'
CONST	ENDS
;	COMDAT ??_C@_0O@DGEPJFAK@SKILL_PASSIVE@
CONST	SEGMENT
??_C@_0O@DGEPJFAK@SKILL_PASSIVE@ DB 'SKILL_PASSIVE', 00H ; `string'
CONST	ENDS
;	COMDAT ??_C@_07KGCDIDGL@MAG_DEF@
CONST	SEGMENT
??_C@_07KGCDIDGL@MAG_DEF@ DB 'MAG_DEF', 00H		; `string'
CONST	ENDS
;	COMDAT ??_C@_0N@JIFCAIPA@EMPIRE_POINT@
CONST	SEGMENT
??_C@_0N@JIFCAIPA@EMPIRE_POINT@ DB 'EMPIRE_POINT', 00H	; `string'
CONST	ENDS
;	COMDAT ??_C@_0O@IOLIEEIE@CASTING_SPEED@
CONST	SEGMENT
??_C@_0O@IOLIEEIE@CASTING_SPEED@ DB 'CASTING_SPEED', 00H ; `string'
CONST	ENDS
;	COMDAT ??_C@_07PEONMKMN@MAG_ATT@
CONST	SEGMENT
??_C@_07PEONMKMN@MAG_ATT@ DB 'MAG_ATT', 00H		; `string'
CONST	ENDS
;	COMDAT ??_C@_09KMPFCDFE@DEF_GRADE@
CONST	SEGMENT
??_C@_09KMPFCDFE@DEF_GRADE@ DB 'DEF_GRADE', 00H		; `string'
CONST	ENDS
;	COMDAT ??_C@_09DNFHINBC@DEF_BONUS@
CONST	SEGMENT
??_C@_09DNFHINBC@DEF_BONUS@ DB 'DEF_BONUS', 00H		; `string'
CONST	ENDS
;	COMDAT ??_C@_0L@IPHIKIMB@EVADE_RATE@
CONST	SEGMENT
??_C@_0L@IPHIKIMB@EVADE_RATE@ DB 'EVADE_RATE', 00H	; `string'
CONST	ENDS
;	COMDAT ??_C@_0N@KGGLAJKM@MOVING_SPEED@
CONST	SEGMENT
??_C@_0N@KGGLAJKM@MOVING_SPEED@ DB 'MOVING_SPEED', 00H	; `string'
CONST	ENDS
;	COMDAT ??_C@_09LKMFFHLI@ATT_SPEED@
CONST	SEGMENT
??_C@_09LKMFFHLI@ATT_SPEED@ DB 'ATT_SPEED', 00H		; `string'
CONST	ENDS
;	COMDAT ??_C@_09FOFLCGDC@ATT_BONUS@
CONST	SEGMENT
??_C@_09FOFLCGDC@ATT_BONUS@ DB 'ATT_BONUS', 00H		; `string'
CONST	ENDS
;	COMDAT ??_C@_0O@CJNCLCGL@MIN_MAGIC_WEP@
CONST	SEGMENT
??_C@_0O@CJNCLCGL@MIN_MAGIC_WEP@ DB 'MIN_MAGIC_WEP', 00H ; `string'
CONST	ENDS
;	COMDAT ??_C@_0O@JAPECJBK@MAX_MAGIC_WEP@
CONST	SEGMENT
??_C@_0O@JAPECJBK@MAX_MAGIC_WEP@ DB 'MAX_MAGIC_WEP', 00H ; `string'
CONST	ENDS
;	COMDAT ??_C@_07PNODGJJO@ATT_MIN@
CONST	SEGMENT
??_C@_07PNODGJJO@ATT_MIN@ DB 'ATT_MIN', 00H		; `string'
CONST	ENDS
;	COMDAT ??_C@_07OPGIINPB@ATT_MAX@
CONST	SEGMENT
??_C@_07OPGIINPB@ATT_MAX@ DB 'ATT_MAX', 00H		; `string'
CONST	ENDS
;	COMDAT ??_C@_02NMFFPMLH@IQ@
CONST	SEGMENT
??_C@_02NMFFPMLH@IQ@ DB 'IQ', 00H			; `string'
CONST	ENDS
;	COMDAT ??_C@_09DIGJAPIG@ATT_POWER@
CONST	SEGMENT
??_C@_09DIGJAPIG@ATT_POWER@ DB 'ATT_POWER', 00H		; `string'
CONST	ENDS
;	COMDAT ??_C@_02KAOAGCMF@HT@
CONST	SEGMENT
??_C@_02KAOAGCMF@HT@ DB 'HT', 00H			; `string'
CONST	ENDS
;	COMDAT ??_C@_02FEPNEKN@DX@
CONST	SEGMENT
??_C@_02FEPNEKN@DX@ DB 'DX', 00H			; `string'
CONST	ENDS
;	COMDAT ??_C@_03BIHMGKIG@ELK@
CONST	SEGMENT
??_C@_03BIHMGKIG@ELK@ DB 'ELK', 00H			; `string'
CONST	ENDS
;	COMDAT ??_C@_02LAJDCOFE@ST@
CONST	SEGMENT
??_C@_02LAJDCOFE@ST@ DB 'ST', 00H			; `string'
CONST	ENDS
;	COMDAT ??_C@_07IHPDJFBP@STAMINA@
CONST	SEGMENT
??_C@_07IHPDJFBP@STAMINA@ DB 'STAMINA', 00H		; `string'
CONST	ENDS
;	COMDAT ??_C@_0M@CHCGLEDD@MAX_STAMINA@
CONST	SEGMENT
??_C@_0M@CHCGLEDD@MAX_STAMINA@ DB 'MAX_STAMINA', 00H	; `string'
CONST	ENDS
;	COMDAT ??_C@_02NEPPOLFA@SP@
CONST	SEGMENT
??_C@_02NEPPOLFA@SP@ DB 'SP', 00H			; `string'
CONST	ENDS
;	COMDAT ??_C@_06MMAHLLLC@MAX_SP@
CONST	SEGMENT
??_C@_06MMAHLLLC@MAX_SP@ DB 'MAX_SP', 00H		; `string'
CONST	ENDS
;	COMDAT ??_C@_02MEIMKHMB@HP@
CONST	SEGMENT
??_C@_02MEIMKHMB@HP@ DB 'HP', 00H			; `string'
CONST	ENDS
;	COMDAT ??_C@_06NMHEPHCD@MAX_HP@
CONST	SEGMENT
??_C@_06NMHEPHCD@MAX_HP@ DB 'MAX_HP', 00H		; `string'
CONST	ENDS
;	COMDAT ??_C@_03KKGFKKLA@EXP@
CONST	SEGMENT
??_C@_03KKGFKKLA@EXP@ DB 'EXP', 00H			; `string'
CONST	ENDS
;	COMDAT ??_C@_08CHGDMADF@NEXT_EXP@
CONST	SEGMENT
??_C@_08CHGDMADF@NEXT_EXP@ DB 'NEXT_EXP', 00H		; `string'
CONST	ENDS
;	COMDAT ??_C@_05GCEPFMCO@LEVEL@
CONST	SEGMENT
??_C@_05GCEPFMCO@LEVEL@ DB 'LEVEL', 00H			; `string'
CONST	ENDS
;	COMDAT ??_C@_05FHIHOFEA@VOICE@
CONST	SEGMENT
??_C@_05FHIHOFEA@VOICE@ DB 'VOICE', 00H			; `string'
CONST	ENDS
;	COMDAT ??_C@_0BO@IEIPICAI@GetChangeWIndowChangeLookVnum@
CONST	SEGMENT
??_C@_0BO@IEIPICAI@GetChangeWIndowChangeLookVnum@ DB 'GetChangeWIndowChan'
	DB	'geLookVnum', 00H				; `string'
CONST	ENDS
;	COMDAT ??_C@_0BJ@NKLEKMEH@GetChangeChangeLookPrice@
CONST	SEGMENT
??_C@_0BJ@NKLEKMEH@GetChangeChangeLookPrice@ DB 'GetChangeChangeLookPrice'
	DB	00H						; `string'
CONST	ENDS
;	COMDAT ??_C@_0CC@EICEGDNO@GetChangeLookFreeYangInvenSlotP@
CONST	SEGMENT
??_C@_0CC@EICEGDNO@GetChangeLookFreeYangInvenSlotP@ DB 'GetChangeLookFree'
	DB	'YangInvenSlotPos', 00H			; `string'
CONST	ENDS
;	COMDAT ??_C@_0BH@BELNGOAK@CanChangeLookClearItem@
CONST	SEGMENT
??_C@_0BH@BELNGOAK@CanChangeLookClearItem@ DB 'CanChangeLookClearItem', 00H ; `string'
CONST	ENDS
;	COMDAT ??_C@_0BL@ELGKHOAL@GetChangeLookItemInvenSlot@
CONST	SEGMENT
??_C@_0BL@ELGKHOAL@GetChangeLookItemInvenSlot@ DB 'GetChangeLookItemInven'
	DB	'Slot', 00H					; `string'
CONST	ENDS
;	COMDAT ??_C@_0BM@DIBDFBNF@GetChangeLookFreeYangItemID@
CONST	SEGMENT
??_C@_0BM@DIBDFBNF@GetChangeLookFreeYangItemID@ DB 'GetChangeLookFreeYang'
	DB	'ItemID', 00H				; `string'
CONST	ENDS
;	COMDAT ??_C@_0BI@HMKCDAJK@SetChangeLookWindowType@
CONST	SEGMENT
??_C@_0BI@HMKCDAJK@SetChangeLookWindowType@ DB 'SetChangeLookWindowType', 00H ; `string'
CONST	ENDS
;	COMDAT ??_C@_0BE@EICJCLKG@GetChangeLookItemID@
CONST	SEGMENT
??_C@_0BE@EICJCLKG@GetChangeLookItemID@ DB 'GetChangeLookItemID', 00H ; `string'
CONST	ENDS
;	COMDAT ??_C@_0BE@KMNILMPF@SetChangeLookWindow@
CONST	SEGMENT
??_C@_0BE@KMNILMPF@SetChangeLookWindow@ DB 'SetChangeLookWindow', 00H ; `string'
CONST	ENDS
;	COMDAT ??_C@_0BI@PJOOIALB@GetChangeLookWindowOpen@
CONST	SEGMENT
??_C@_0BI@PJOOIALB@GetChangeLookWindowOpen@ DB 'GetChangeLookWindowOpen', 00H ; `string'
CONST	ENDS
;	COMDAT ??_C@_0N@GALPMGNA@LoadNewRegen@
CONST	SEGMENT
??_C@_0N@GALPMGNA@LoadNewRegen@ DB 'LoadNewRegen', 00H	; `string'
CONST	ENDS
;	COMDAT ??_C@_0BC@LHBNPKGI@GetChangeLookVnum@
CONST	SEGMENT
??_C@_0BC@LHBNPKGI@GetChangeLookVnum@ DB 'GetChangeLookVnum', 00H ; `string'
CONST	ENDS
;	COMDAT ??_C@_0P@HNNKIABL@GetPetLifeTime@
CONST	SEGMENT
??_C@_0P@HNNKIABL@GetPetLifeTime@ DB 'GetPetLifeTime', 00H ; `string'
CONST	ENDS
;	COMDAT ??_C@_0BJ@DBAIPPKB@CanUseGrowthPetQuickSlot@
CONST	SEGMENT
??_C@_0BJ@DBAIPPKB@CanUseGrowthPetQuickSlot@ DB 'CanUseGrowthPetQuickSlot'
	DB	00H						; `string'
CONST	ENDS
;	COMDAT ??_C@_0BA@OIMHGHDP@GetPetExpPoints@
CONST	SEGMENT
??_C@_0BA@OIMHGHDP@GetPetExpPoints@ DB 'GetPetExpPoints', 00H ; `string'
CONST	ENDS
;	COMDAT ??_C@_0L@MCGANBBD@GetPetItem@
CONST	SEGMENT
??_C@_0L@MCGANBBD@GetPetItem@ DB 'GetPetItem', 00H	; `string'
CONST	ENDS
;	COMDAT ??_C@_0BD@MKFJOLGB@GetPetSkillByIndex@
CONST	SEGMENT
??_C@_0BD@MKFJOLGB@GetPetSkillByIndex@ DB 'GetPetSkillByIndex', 00H ; `string'
CONST	ENDS
;	COMDAT ??_C@_0BF@GGHLDBPM@GetActivePetItemVNum@
CONST	SEGMENT
??_C@_0BF@GGHLDBPM@GetActivePetItemVNum@ DB 'GetActivePetItemVNum', 00H ; `string'
CONST	ENDS
;	COMDAT ??_C@_0BE@HIAGDJGO@GetPetItemVNumInBag@
CONST	SEGMENT
??_C@_0BE@HIAGDJGO@GetPetItemVNumInBag@ DB 'GetPetItemVNumInBag', 00H ; `string'
CONST	ENDS
;	COMDAT ??_C@_0M@EGNNPBIF@GetPetSkill@
CONST	SEGMENT
??_C@_0M@EGNNPBIF@GetPetSkill@ DB 'GetPetSkill', 00H	; `string'
CONST	ENDS
;	COMDAT ??_C@_0L@MJHEBNLN@IsOpenMall@
CONST	SEGMENT
??_C@_0L@MJHEBNLN@IsOpenMall@ DB 'IsOpenMall', 00H	; `string'
CONST	ENDS
;	COMDAT ??_C@_0BD@FFNGMGDE@GetActivePetItemId@
CONST	SEGMENT
??_C@_0BD@FFNGMGDE@GetActivePetItemId@ DB 'GetActivePetItemId', 00H ; `string'
CONST	ENDS
;	COMDAT ??_C@_0M@PMJJOEKL@SetOpenMall@
CONST	SEGMENT
??_C@_0M@PMJJOEKL@SetOpenMall@ DB 'SetOpenMall', 00H	; `string'
CONST	ENDS
;	COMDAT ??_C@_0P@DGCGCCCO@SetOpenSafeBox@
CONST	SEGMENT
??_C@_0P@DGCGCCCO@SetOpenSafeBox@ DB 'SetOpenSafeBox', 00H ; `string'
CONST	ENDS
;	COMDAT ??_C@_0BE@CCCDEOF@IsOpenPetFeedWindow@
CONST	SEGMENT
??_C@_0BE@CCCDEOF@IsOpenPetFeedWindow@ DB 'IsOpenPetFeedWindow', 00H ; `string'
CONST	ENDS
;	COMDAT ??_C@_0BK@ONINDKNJ@IsOpenPetNameChangeWindow@
CONST	SEGMENT
??_C@_0BK@ONINDKNJ@IsOpenPetNameChangeWindow@ DB 'IsOpenPetNameChangeWind'
	DB	'ow', 00H					; `string'
CONST	ENDS
;	COMDAT ??_C@_0BF@LBMFBLG@SetOpenPetFeedWindow@
CONST	SEGMENT
??_C@_0BF@LBMFBLG@SetOpenPetFeedWindow@ DB 'SetOpenPetFeedWindow', 00H ; `string'
CONST	ENDS
;	COMDAT ??_C@_0BI@EEFHCAEH@IsOpenPetHatchingWindow@
CONST	SEGMENT
??_C@_0BI@EEFHCAEH@IsOpenPetHatchingWindow@ DB 'IsOpenPetHatchingWindow', 00H ; `string'
CONST	ENDS
;	COMDAT ??_C@_0BJ@OLOKCKBJ@SetOpenPetHatchingWindow@
CONST	SEGMENT
??_C@_0BJ@OLOKCKBJ@SetOpenPetHatchingWindow@ DB 'SetOpenPetHatchingWindow'
	DB	00H						; `string'
CONST	ENDS
;	COMDAT ??_C@_0BL@CJGAAMKA@SetOpenPetNameChangeWindow@
CONST	SEGMENT
??_C@_0BL@CJGAAMKA@SetOpenPetNameChangeWindow@ DB 'SetOpenPetNameChangeWi'
	DB	'ndow', 00H					; `string'
CONST	ENDS
;	COMDAT ??_C@_0BI@OEGEDDOI@GetAuraRefineInfoExpPer@
CONST	SEGMENT
??_C@_0BI@OEGEDDOI@GetAuraRefineInfoExpPer@ DB 'GetAuraRefineInfoExpPer', 00H ; `string'
CONST	ENDS
;	COMDAT ??_C@_0BH@LNIBDCIJ@GetAuraRefineInfoLevel@
CONST	SEGMENT
??_C@_0BH@LNIBDCIJ@GetAuraRefineInfoLevel@ DB 'GetAuraRefineInfoLevel', 00H ; `string'
CONST	ENDS
;	COMDAT ??_C@_0BC@FMKOGNDO@FindUsingAuraSlot@
CONST	SEGMENT
??_C@_0BC@FMKOGNDO@FindUsingAuraSlot@ DB 'FindUsingAuraSlot', 00H ; `string'
CONST	ENDS
;	COMDAT ??_C@_0BC@GPJMKBHD@GetAuraRefineInfo@
CONST	SEGMENT
??_C@_0BC@GPJMKBHD@GetAuraRefineInfo@ DB 'GetAuraRefineInfo', 00H ; `string'
CONST	ENDS
;	COMDAT ??_C@_0BJ@FDMBJLDG@SetAuraActivatedItemSlot@
CONST	SEGMENT
??_C@_0BJ@FDMBJLDG@SetAuraActivatedItemSlot@ DB 'SetAuraActivatedItemSlot'
	DB	00H						; `string'
CONST	ENDS
;	COMDAT ??_C@_0BG@EEFNBJPF@FindActivatedAuraSlot@
CONST	SEGMENT
??_C@_0BG@EEFNBJPF@FindActivatedAuraSlot@ DB 'FindActivatedAuraSlot', 00H ; `string'
CONST	ENDS
;	COMDAT ??_C@_0BI@HAAECBGI@GetAuraRefineWindowType@
CONST	SEGMENT
??_C@_0BI@HAAECBGI@GetAuraRefineWindowType@ DB 'GetAuraRefineWindowType', 00H ; `string'
CONST	ENDS
;	COMDAT ??_C@_0BF@DGBJCLPP@FineMoveAuraItemSlot@
CONST	SEGMENT
??_C@_0BF@DGBJCLPP@FineMoveAuraItemSlot@ DB 'FineMoveAuraItemSlot', 00H ; `string'
CONST	ENDS
;	COMDAT ??_C@_0BM@BKGGJDBO@GetAuraCurrentItemSlotCount@
CONST	SEGMENT
??_C@_0BM@BKGGJDBO@GetAuraCurrentItemSlotCount@ DB 'GetAuraCurrentItemSlo'
	DB	'tCount', 00H				; `string'
CONST	ENDS
;	COMDAT ??_C@_0BH@ECFJIDOK@IsAuraRefineWindowOpen@
CONST	SEGMENT
??_C@_0BH@ECFJIDOK@IsAuraRefineWindowOpen@ DB 'IsAuraRefineWindowOpen', 00H ; `string'
CONST	ENDS
;	COMDAT ??_C@_0BF@DKEAJKNA@GetAuraItemAttribute@
CONST	SEGMENT
??_C@_0BF@DKEAJKNA@GetAuraItemAttribute@ DB 'GetAuraItemAttribute', 00H ; `string'
CONST	ENDS
;	COMDAT ??_C@_0BI@PBPNGBAE@IsAuraRefineWindowEmpty@
CONST	SEGMENT
??_C@_0BI@PBPNGBAE@IsAuraRefineWindowEmpty@ DB 'IsAuraRefineWindowEmpty', 00H ; `string'
CONST	ENDS
;	COMDAT ??_C@_0BB@NMGFNIEB@GetAuraItemCount@
CONST	SEGMENT
??_C@_0BB@NMGFNIEB@GetAuraItemCount@ DB 'GetAuraItemCount', 00H ; `string'
CONST	ENDS
;	COMDAT ??_C@_0BH@EEMJAALJ@GetAuraItemMetinSocket@
CONST	SEGMENT
??_C@_0BH@EEMJAALJ@GetAuraItemMetinSocket@ DB 'GetAuraItemMetinSocket', 00H ; `string'
CONST	ENDS
;	COMDAT ??_C@_0O@HALFKPHL@GetSkillColor@
CONST	SEGMENT
??_C@_0O@HALFKPHL@GetSkillColor@ DB 'GetSkillColor', 00H ; `string'
CONST	ENDS
;	COMDAT ??_C@_0O@MJPCFPJK@GetAuraItemID@
CONST	SEGMENT
??_C@_0O@MJPCFPJK@GetAuraItemID@ DB 'GetAuraItemID', 00H ; `string'
CONST	ENDS
;	COMDAT ??_C@_0BH@KNFAMLNM@GetPremiumBattlePassID@
CONST	SEGMENT
??_C@_0BH@KNFAMLNM@GetPremiumBattlePassID@ DB 'GetPremiumBattlePassID', 00H ; `string'
CONST	ENDS
;	COMDAT ??_C@_0O@PKLBMAM@SetSkillColor@
CONST	SEGMENT
??_C@_0O@PKLBMAM@SetSkillColor@ DB 'SetSkillColor', 00H	; `string'
CONST	ENDS
;	COMDAT ??_C@_0BB@NAJMCHBK@GetItemSlotIndex@
CONST	SEGMENT
??_C@_0BB@NAJMCHBK@GetItemSlotIndex@ DB 'GetItemSlotIndex', 00H ; `string'
CONST	ENDS
;	COMDAT ??_C@_0M@GLKHKGON@CanInteract@
CONST	SEGMENT
??_C@_0M@GLKHKGON@CanInteract@ DB 'CanInteract', 00H	; `string'
CONST	ENDS
;	COMDAT ??_C@_04PPEDCFAC@NPOS@
CONST	SEGMENT
??_C@_04PPEDCFAC@NPOS@ DB 'NPOS', 00H			; `string'
CONST	ENDS
;	COMDAT ??_C@_0BF@HHEMENOC@GetMainCharacterPart@
CONST	SEGMENT
??_C@_0BF@HHEMENOC@GetMainCharacterPart@ DB 'GetMainCharacterPart', 00H ; `string'
CONST	ENDS
;	COMDAT ??_C@_0BF@PLGNHJMH@SendDragonSoulRefine@
CONST	SEGMENT
??_C@_0BF@PLGNHJMH@SendDragonSoulRefine@ DB 'SendDragonSoulRefine', 00H ; `string'
CONST	ENDS
;	COMDAT ??_C@_0BN@OIIJKMFD@ClearAutoAttackTargetActorID@
CONST	SEGMENT
??_C@_0BN@OIIJKMFD@ClearAutoAttackTargetActorID@ DB 'ClearAutoAttackTarge'
	DB	'tActorID', 00H				; `string'
CONST	ENDS
;	COMDAT ??_C@_0M@DGFCHEAA@GetItemLink@
CONST	SEGMENT
??_C@_0M@DGFCHEAA@GetItemLink@ DB 'GetItemLink', 00H	; `string'
CONST	ENDS
;	COMDAT ??_C@_0BE@IOMKCPHN@SlotTypeToInvenType@
CONST	SEGMENT
??_C@_0BE@IOMKCPHN@SlotTypeToInvenType@ DB 'SlotTypeToInvenType', 00H ; `string'
CONST	ENDS
;	COMDAT ??_C@_0BB@KPGENMF@SetItemAttribute@
CONST	SEGMENT
??_C@_0BB@KPGENMF@SetItemAttribute@ DB 'SetItemAttribute', 00H ; `string'
CONST	ENDS
;	COMDAT ??_C@_0N@MABOHHMK@SetItemCount@
CONST	SEGMENT
??_C@_0N@MABOHHMK@SetItemCount@ DB 'SetItemCount', 00H	; `string'
CONST	ENDS
;	COMDAT ??_C@_0M@CHNGAPIB@SetItemData@
CONST	SEGMENT
??_C@_0M@CHNGAPIB@SetItemData@ DB 'SetItemData', 00H	; `string'
CONST	ENDS
;	COMDAT ??_C@_0BD@GLMLJBGM@SetItemMetinSocket@
CONST	SEGMENT
??_C@_0BD@GLMLJBGM@SetItemMetinSocket@ DB 'SetItemMetinSocket', 00H ; `string'
CONST	ENDS
;	COMDAT ??_C@_0BB@DJKKOCLB@ToggleLevelLimit@
CONST	SEGMENT
??_C@_0BB@DJKKOCLB@ToggleLevelLimit@ DB 'ToggleLevelLimit', 00H ; `string'
CONST	ENDS
;	COMDAT ??_C@_0N@MEKPPHGC@GetTargetVID@
CONST	SEGMENT
??_C@_0N@MEKPPHGC@GetTargetVID@ DB 'GetTargetVID', 00H	; `string'
CONST	ENDS
;	COMDAT ??_C@_0BJ@CFCMHNHB@SetWeaponAttackBonusFlag@
CONST	SEGMENT
??_C@_0BJ@CFCMHNHB@SetWeaponAttackBonusFlag@ DB 'SetWeaponAttackBonusFlag'
	DB	00H						; `string'
CONST	ENDS
;	COMDAT ??_C@_0P@ILOOLMDH@ToggleCoolTime@
CONST	SEGMENT
??_C@_0P@ILOOLMDH@ToggleCoolTime@ DB 'ToggleCoolTime', 00H ; `string'
CONST	ENDS
;	COMDAT ??_C@_0BE@PMDABIKP@RegisterEmotionIcon@
CONST	SEGMENT
??_C@_0BE@PMDABIKP@RegisterEmotionIcon@ DB 'RegisterEmotionIcon', 00H ; `string'
CONST	ENDS
;	COMDAT ??_C@_0BE@FELKHKJF@GetEmotionIconImage@
CONST	SEGMENT
??_C@_0BE@FELKHKJF@GetEmotionIconImage@ DB 'GetEmotionIconImage', 00H ; `string'
CONST	ENDS
;	COMDAT ??_C@_09DMPBEJCG@ExitParty@
CONST	SEGMENT
??_C@_09DMPBEJCG@ExitParty@ DB 'ExitParty', 00H		; `string'
CONST	ENDS
;	COMDAT ??_C@_09IMMFEEHK@GetPKMode@
CONST	SEGMENT
??_C@_09IMMFEEHK@GetPKMode@ DB 'GetPKMode', 00H		; `string'
CONST	ENDS
;	COMDAT ??_C@_0BE@HKIJMBKK@GetPartyMemberState@
CONST	SEGMENT
??_C@_0BE@HKIJMBKK@GetPartyMemberState@ DB 'GetPartyMemberState', 00H ; `string'
CONST	ENDS
;	COMDAT ??_C@_0BG@EEFAFMJC@GetPartyMemberAffects@
CONST	SEGMENT
??_C@_0BG@EEFAFMJC@GetPartyMemberAffects@ DB 'GetPartyMemberAffects', 00H ; `string'
CONST	ENDS
;	COMDAT ??_C@_0BD@HGKJMFNK@IsPartyLeaderByPID@
CONST	SEGMENT
??_C@_0BD@HGKJMFNK@IsPartyLeaderByPID@ DB 'IsPartyLeaderByPID', 00H ; `string'
CONST	ENDS
;	COMDAT ??_C@_0BL@EPAFEFHI@GetPartyMemberHPPercentage@
CONST	SEGMENT
??_C@_0BL@EPAFEFHI@GetPartyMemberHPPercentage@ DB 'GetPartyMemberHPPercen'
	DB	'tage', 00H					; `string'
CONST	ENDS
;	COMDAT ??_C@_0BC@HAEJEFBP@OpenCharacterMenu@
CONST	SEGMENT
??_C@_0BC@HAEJEFBP@OpenCharacterMenu@ DB 'OpenCharacterMenu', 00H ; `string'
CONST	ENDS
;	COMDAT ??_C@_0O@BPMJGNAC@IsPartyLeader@
CONST	SEGMENT
??_C@_0O@BPMJGNAC@IsPartyLeader@ DB 'IsPartyLeader', 00H ; `string'
CONST	ENDS
;	COMDAT ??_C@_0M@DPCEEMCG@ClearTarget@
CONST	SEGMENT
??_C@_0M@DPCEEMCG@ClearTarget@ DB 'ClearTarget', 00H	; `string'
CONST	ENDS
;	COMDAT ??_C@_09EECGCJDE@SetTarget@
CONST	SEGMENT
??_C@_09EECGCJDE@SetTarget@ DB 'SetTarget', 00H		; `string'
CONST	ENDS
;	COMDAT ??_C@_0P@BLOGPKFO@CanAttachMetin@
CONST	SEGMENT
??_C@_0P@BLOGPKFO@CanAttachMetin@ DB 'CanAttachMetin', 00H ; `string'
CONST	ENDS
;	COMDAT ??_C@_0BE@ELNKJPMC@IsRefineGradeScroll@
CONST	SEGMENT
??_C@_0BE@ELNKJPMC@IsRefineGradeScroll@ DB 'IsRefineGradeScroll', 00H ; `string'
CONST	ENDS
;	COMDAT ??_C@_09GHIBIBHI@CanDetach@
CONST	SEGMENT
??_C@_09GHIBIBHI@CanDetach@ DB 'CanDetach', 00H		; `string'
CONST	ENDS
;	COMDAT ??_C@_09FHINBOHC@CanUnlock@
CONST	SEGMENT
??_C@_09FHINBOHC@CanUnlock@ DB 'CanUnlock', 00H		; `string'
CONST	ENDS
;	COMDAT ??_C@_0N@DGHEMMKN@GetItemGrade@
CONST	SEGMENT
??_C@_0N@DGHEMMKN@GetItemGrade@ DB 'GetItemGrade', 00H	; `string'
CONST	ENDS
;	COMDAT ??_C@_09BGNCJJP@CanRefine@
CONST	SEGMENT
??_C@_09BGNCJJP@CanRefine@ DB 'CanRefine', 00H		; `string'
CONST	ENDS
;	COMDAT ??_C@_0BH@IDMOLEIA@IsGiftBoxInventorySlot@
CONST	SEGMENT
??_C@_0BH@IDMOLEIA@IsGiftBoxInventorySlot@ DB 'IsGiftBoxInventorySlot', 00H ; `string'
CONST	ENDS
;	COMDAT ??_C@_0BI@FMKBEPGC@IsChangersInventorySlot@
CONST	SEGMENT
??_C@_0BI@FMKBEPGC@IsChangersInventorySlot@ DB 'IsChangersInventorySlot', 00H ; `string'
CONST	ENDS
;	COMDAT ??_C@_0BM@FCEMHHI@IsUpgradeItemsInventorySlot@
CONST	SEGMENT
??_C@_0BM@FCEMHHI@IsUpgradeItemsInventorySlot@ DB 'IsUpgradeItemsInventor'
	DB	'ySlot', 00H					; `string'
CONST	ENDS
;	COMDAT ??_C@_0BF@LJHNJJLN@IsStoneInventorySlot@
CONST	SEGMENT
??_C@_0BF@LJHNJJLN@IsStoneInventorySlot@ DB 'IsStoneInventorySlot', 00H ; `string'
CONST	ENDS
;	COMDAT ??_C@_0BN@DKGNHJIB@IsAvailableBeltInventoryCell@
CONST	SEGMENT
??_C@_0BN@DKGNHJIB@IsAvailableBeltInventoryCell@ DB 'IsAvailableBeltInven'
	DB	'toryCell', 00H				; `string'
CONST	ENDS
;	COMDAT ??_C@_0BJ@CPJJHAGD@IsSkillBookInventorySlot@
CONST	SEGMENT
??_C@_0BJ@CPJJHAGD@IsSkillBookInventorySlot@ DB 'IsSkillBookInventorySlot'
	DB	00H						; `string'
CONST	ENDS
;	COMDAT ??_C@_0BE@HECMLJG@IsBeltInventorySlot@
CONST	SEGMENT
??_C@_0BE@HECMLJG@IsBeltInventorySlot@ DB 'IsBeltInventorySlot', 00H ; `string'
CONST	ENDS
;	COMDAT ??_C@_0BA@OBALOJLG@IsEquippingBelt@
CONST	SEGMENT
??_C@_0BA@OBALOJLG@IsEquippingBelt@ DB 'IsEquippingBelt', 00H ; `string'
CONST	ENDS
;	COMDAT ??_C@_0P@LAJFBPPH@IsValuableItem@
CONST	SEGMENT
??_C@_0P@LAJFBPPH@IsValuableItem@ DB 'IsValuableItem', 00H ; `string'
CONST	ENDS
;	COMDAT ??_C@_0BC@DCFDMADN@IsOpenPrivateShop@
CONST	SEGMENT
??_C@_0BC@DCFDMADN@IsOpenPrivateShop@ DB 'IsOpenPrivateShop', 00H ; `string'
CONST	ENDS
;	COMDAT ??_C@_0BC@DDCIGDKO@IsDSEquipmentSlot@
CONST	SEGMENT
??_C@_0BC@DDCIGDKO@IsDSEquipmentSlot@ DB 'IsDSEquipmentSlot', 00H ; `string'
CONST	ENDS
;	COMDAT ??_C@_0O@KCAGNEAI@IsCostumeSlot@
CONST	SEGMENT
??_C@_0O@KCAGNEAI@IsCostumeSlot@ DB 'IsCostumeSlot', 00H ; `string'
CONST	ENDS
;	COMDAT ??_C@_06NOPKEHAK@isItem@
CONST	SEGMENT
??_C@_06NOPKEHAK@isItem@ DB 'isItem', 00H		; `string'
CONST	ENDS
;	COMDAT ??_C@_0BA@EMKHGGAL@IsEquipmentSlot@
CONST	SEGMENT
??_C@_0BA@EMKHGGAL@IsEquipmentSlot@ DB 'IsEquipmentSlot', 00H ; `string'
CONST	ENDS
;	COMDAT ??_C@_0BD@ECGPDHPA@GetGlobalQuickSlot@
CONST	SEGMENT
??_C@_0BD@ECGPDHPA@GetGlobalQuickSlot@ DB 'GetGlobalQuickSlot', 00H ; `string'
CONST	ENDS
;	COMDAT ??_C@_0BH@JNCIKJMC@RemoveQuickSlotByValue@
CONST	SEGMENT
??_C@_0BH@JNCIKJMC@RemoveQuickSlotByValue@ DB 'RemoveQuickSlotByValue', 00H ; `string'
CONST	ENDS
;	COMDAT ??_C@_0N@KPHBLMNM@SetQuickPage@
CONST	SEGMENT
??_C@_0N@KPHBLMNM@SetQuickPage@ DB 'SetQuickPage', 00H	; `string'
CONST	ENDS
;	COMDAT ??_C@_0BC@LNKMMBDG@GetLocalQuickSlot@
CONST	SEGMENT
??_C@_0BC@LNKMMBDG@GetLocalQuickSlot@ DB 'GetLocalQuickSlot', 00H ; `string'
CONST	ENDS
;	COMDAT ??_C@_0P@HAJODJLN@IsSameItemVnum@
CONST	SEGMENT
??_C@_0P@HAJODJLN@IsSameItemVnum@ DB 'IsSameItemVnum', 00H ; `string'
CONST	ENDS
;	COMDAT ??_C@_0N@NLMPHAJA@GetQuickPage@
CONST	SEGMENT
??_C@_0N@NLMPHAJA@GetQuickPage@ DB 'GetQuickPage', 00H	; `string'
CONST	ENDS
;	COMDAT ??_C@_0BC@PGIBMCKF@GetItemTypeBySlot@
CONST	SEGMENT
??_C@_0BC@PGIBMCKF@GetItemTypeBySlot@ DB 'GetItemTypeBySlot', 00H ; `string'
CONST	ENDS
;	COMDAT ??_C@_0BF@HFKGNAOK@GetItemSubTypeBySlot@
CONST	SEGMENT
??_C@_0BF@HFKGNAOK@GetItemSubTypeBySlot@ DB 'GetItemSubTypeBySlot', 00H ; `string'
CONST	ENDS
;	COMDAT ??_C@_0CK@GNGKFIDB@LocalQuickSlotIndexToGlobalQuic@
CONST	SEGMENT
??_C@_0CK@GNGKFIDB@LocalQuickSlotIndexToGlobalQuic@ DB 'LocalQuickSlotInd'
	DB	'exToGlobalQuickSlotIndex', 00H		; `string'
CONST	ENDS
;	COMDAT ??_C@_0BB@JKIMCMDG@IsAntiFlagBySlot@
CONST	SEGMENT
??_C@_0BB@JKIMCMDG@IsAntiFlagBySlot@ DB 'IsAntiFlagBySlot', 00H ; `string'
CONST	ENDS
;	COMDAT ??_C@_0CL@IEMBKGLN@RequestMoveGlobalQuickSlotToLoc@
CONST	SEGMENT
??_C@_0CL@IEMBKGLN@RequestMoveGlobalQuickSlotToLoc@ DB 'RequestMoveGlobal'
	DB	'QuickSlotToLocalQuickSlot', 00H		; `string'
CONST	ENDS
;	COMDAT ??_C@_0BJ@IBBGPDPH@RequestUseLocalQuickSlot@
CONST	SEGMENT
??_C@_0BJ@IBBGPDPH@RequestUseLocalQuickSlot@ DB 'RequestUseLocalQuickSlot'
	DB	00H						; `string'
CONST	ENDS
;	COMDAT ??_C@_0CA@JMFCJJPL@RequestAddToEmptyLocalQuickSlot@
CONST	SEGMENT
??_C@_0CA@JMFCJJPL@RequestAddToEmptyLocalQuickSlot@ DB 'RequestAddToEmpty'
	DB	'LocalQuickSlot', 00H			; `string'
CONST	ENDS
;	COMDAT ??_C@_0BN@NACLJDMA@RequestDeleteGlobalQuickSlot@
CONST	SEGMENT
??_C@_0BN@NACLJDMA@RequestDeleteGlobalQuickSlot@ DB 'RequestDeleteGlobalQ'
	DB	'uickSlot', 00H				; `string'
CONST	ENDS
;	COMDAT ??_C@_0BB@LANDCIKG@GetAlignmentData@
CONST	SEGMENT
??_C@_0BB@LANDCIKG@GetAlignmentData@ DB 'GetAlignmentData', 00H ; `string'
CONST	ENDS
;	COMDAT ??_C@_0BJ@DNLGAMEO@RequestAddLocalQuickSlot@
CONST	SEGMENT
??_C@_0BJ@DNLGAMEO@RequestAddLocalQuickSlot@ DB 'RequestAddLocalQuickSlot'
	DB	00H						; `string'
CONST	ENDS
;	COMDAT ??_C@_08OAJFGNBC@GetMoney@
CONST	SEGMENT
??_C@_08OAJFGNBC@GetMoney@ DB 'GetMoney', 00H		; `string'
CONST	ENDS
;	COMDAT ??_C@_08LBPCDDLA@GetCoins@
CONST	SEGMENT
??_C@_08LBPCDDLA@GetCoins@ DB 'GetCoins', 00H		; `string'
CONST	ENDS
;	COMDAT ??_C@_09OEBBKEAG@SetStatus@
CONST	SEGMENT
??_C@_09OEBBKEAG@SetStatus@ DB 'SetStatus', 00H		; `string'
CONST	ENDS
;	COMDAT ??_C@_06NMFKJLLH@GetElk@
CONST	SEGMENT
??_C@_06NMFKJLLH@GetElk@ DB 'GetElk', 00H		; `string'
CONST	ENDS
;	COMDAT ??_C@_08MDGBDPHC@GetLevel@
CONST	SEGMENT
??_C@_08MDGBDPHC@GetLevel@ DB 'GetLevel', 00H		; `string'
CONST	ENDS
;	COMDAT ??_C@_09MKFEIFJE@GetStatus@
CONST	SEGMENT
??_C@_09MKFEIFJE@GetStatus@ DB 'GetStatus', 00H		; `string'
CONST	ENDS
;	COMDAT ??_C@_0BI@JIGEMOFF@AffectIndexToSkillIndex@
CONST	SEGMENT
??_C@_0BI@JIGEMOFF@AffectIndexToSkillIndex@ DB 'AffectIndexToSkillIndex', 00H ; `string'
CONST	ENDS
;	COMDAT ??_C@_06MDIKDJMD@GetEXP@
CONST	SEGMENT
??_C@_06MDIKDJMD@GetEXP@ DB 'GetEXP', 00H		; `string'
CONST	ENDS
;	COMDAT ??_C@_0O@IAPCJJAC@IsSkillActive@
CONST	SEGMENT
??_C@_0O@IAPCJJAC@IsSkillActive@ DB 'IsSkillActive', 00H ; `string'
CONST	ENDS
;	COMDAT ??_C@_0O@HHBOBCLE@UseGuildSkill@
CONST	SEGMENT
??_C@_0O@HHBOBCLE@UseGuildSkill@ DB 'UseGuildSkill', 00H ; `string'
CONST	ENDS
;	COMDAT ??_C@_0BA@FOPKKJJD@IsSkillCoolTime@
CONST	SEGMENT
??_C@_0BA@FOPKKJJD@IsSkillCoolTime@ DB 'IsSkillCoolTime', 00H ; `string'
CONST	ENDS
;	COMDAT ??_C@_0BB@CNGGKNGL@GetSkillCoolTime@
CONST	SEGMENT
??_C@_0BB@CNGGKNGL@GetSkillCoolTime@ DB 'GetSkillCoolTime', 00H ; `string'
CONST	ENDS
;	COMDAT ??_C@_0M@DJDCIBLO@GetPlayTime@
CONST	SEGMENT
??_C@_0M@DJDCIBLO@GetPlayTime@ DB 'GetPlayTime', 00H	; `string'
CONST	ENDS
;	COMDAT ??_C@_0M@DGCMFHDN@SetPlayTime@
CONST	SEGMENT
??_C@_0M@DGCMFHDN@SetPlayTime@ DB 'SetPlayTime', 00H	; `string'
CONST	ENDS
;	COMDAT ??_C@_0BE@DBIFLBAC@SendClickItemPacket@
CONST	SEGMENT
??_C@_0BE@DBIFLBAC@SendClickItemPacket@ DB 'SendClickItemPacket', 00H ; `string'
CONST	ENDS
;	COMDAT ??_C@_06FHLNIOPB@GetJob@
CONST	SEGMENT
??_C@_06FHLNIOPB@GetJob@ DB 'GetJob', 00H		; `string'
CONST	ENDS
;	COMDAT ??_C@_0BB@GOKPPDHH@GetItemAttribute@
CONST	SEGMENT
??_C@_0BB@GOKPPDHH@GetItemAttribute@ DB 'GetItemAttribute', 00H ; `string'
CONST	ENDS
;	COMDAT ??_C@_08MHJANHDM@MoveItem@
CONST	SEGMENT
??_C@_08MHJANHDM@MoveItem@ DB 'MoveItem', 00H		; `string'
CONST	ENDS
;	COMDAT ??_C@_0BD@DBLILMFK@GetItemCountByVnum@
CONST	SEGMENT
??_C@_0BD@DBLILMFK@GetItemCountByVnum@ DB 'GetItemCountByVnum', 00H ; `string'
CONST	ENDS
;	COMDAT ??_C@_0BD@JBOBKHIE@GetItemMetinSocket@
CONST	SEGMENT
??_C@_0BD@JBOBKHIE@GetItemMetinSocket@ DB 'GetItemMetinSocket', 00H ; `string'
CONST	ENDS
;	COMDAT ??_C@_0N@DMCGDNGF@GetItemFlags@
CONST	SEGMENT
??_C@_0N@DMCGDNGF@GetItemFlags@ DB 'GetItemFlags', 00H	; `string'
CONST	ENDS
;	COMDAT ??_C@_0N@LEKALLIG@GetItemCount@
CONST	SEGMENT
??_C@_0N@LEKALLIG@GetItemCount@ DB 'GetItemCount', 00H	; `string'
CONST	ENDS
;	COMDAT ??_C@_0BD@GCOFLJAB@DisableToggleSkill@
CONST	SEGMENT
??_C@_0BD@GCOFLJAB@DisableToggleSkill@ DB 'DisableToggleSkill', 00H ; `string'
CONST	ENDS
;	COMDAT ??_C@_0N@GABOCBEH@GetItemIndex@
CONST	SEGMENT
??_C@_0N@GABOCBEH@GetItemIndex@ DB 'GetItemIndex', 00H	; `string'
CONST	ENDS
;	COMDAT ??_C@_0BN@BPJDEKED@ChangeCurrentSkillNumberOnly@
CONST	SEGMENT
??_C@_0BN@BPJDEKED@ChangeCurrentSkillNumberOnly@ DB 'ChangeCurrentSkillNu'
	DB	'mberOnly', 00H				; `string'
CONST	ENDS
;	COMDAT ??_C@_0P@MJOJKOJJ@ClearSkillDict@
CONST	SEGMENT
??_C@_0P@MJOJKOJJ@ClearSkillDict@ DB 'ClearSkillDict', 00H ; `string'
CONST	ENDS
;	COMDAT ??_C@_0CA@JHGONPGM@GetSkillNextEfficientPercentage@
CONST	SEGMENT
??_C@_0CA@JHGONPGM@GetSkillNextEfficientPercentage@ DB 'GetSkillNextEffic'
	DB	'ientPercentage', 00H			; `string'
CONST	ENDS
;	COMDAT ??_C@_0P@IGNHDBHH@ClickSkillSlot@
CONST	SEGMENT
??_C@_0P@IGNHDBHH@ClickSkillSlot@ DB 'ClickSkillSlot', 00H ; `string'
CONST	ENDS
;	COMDAT ??_C@_0O@IIOIANPE@GetSkillGrade@
CONST	SEGMENT
??_C@_0O@IIOIANPE@GetSkillGrade@ DB 'GetSkillGrade', 00H ; `string'
CONST	ENDS
;	COMDAT ??_C@_0CD@EFGGIKHI@GetSkillCurrentEfficientPercent@
CONST	SEGMENT
??_C@_0CD@EFGGIKHI@GetSkillCurrentEfficientPercent@ DB 'GetSkillCurrentEf'
	DB	'ficientPercentage', 00H			; `string'
CONST	ENDS
;	COMDAT ??_C@_08HIFGFOGG@SetSkill@
CONST	SEGMENT
??_C@_08HIFGFOGG@SetSkill@ DB 'SetSkill', 00H		; `string'
CONST	ENDS
;	COMDAT ??_C@_0BC@HNJMANI@GetSkillSlotIndex@
CONST	SEGMENT
??_C@_0BC@HNJMANI@GetSkillSlotIndex@ DB 'GetSkillSlotIndex', 00H ; `string'
CONST	ENDS
;	COMDAT ??_C@_0BE@MCFGJOPA@ResetCameraRotation@
CONST	SEGMENT
??_C@_0BE@MCFGJOPA@ResetCameraRotation@ DB 'ResetCameraRotation', 00H ; `string'
CONST	ENDS
;	COMDAT ??_C@_0BD@DPHLFGPP@SetQuickCameraMode@
CONST	SEGMENT
??_C@_0BD@DPHLFGPP@SetQuickCameraMode@ DB 'SetQuickCameraMode', 00H ; `string'
CONST	ENDS
;	COMDAT ??_C@_0BC@NCHFPCDM@StartMouseWalking@
CONST	SEGMENT
??_C@_0BC@NCHFPCDM@StartMouseWalking@ DB 'StartMouseWalking', 00H ; `string'
CONST	ENDS
;	COMDAT ??_C@_0BA@JEOKFDLP@EndMouseWalking@
CONST	SEGMENT
??_C@_0BA@JEOKFDLP@EndMouseWalking@ DB 'EndMouseWalking', 00H ; `string'
CONST	ENDS
;	COMDAT ??_C@_0BF@PNJNANBI@SetSingleDIKKeyState@
CONST	SEGMENT
??_C@_0BF@PNJNANBI@SetSingleDIKKeyState@ DB 'SetSingleDIKKeyState', 00H ; `string'
CONST	ENDS
;	COMDAT ??_C@_0BJ@HGLJKHIH@EndKeyWalkingImmediately@
CONST	SEGMENT
??_C@_0BJ@HGLJKHIH@EndKeyWalkingImmediately@ DB 'EndKeyWalkingImmediately'
	DB	00H						; `string'
CONST	ENDS
;	COMDAT ??_C@_0BL@IEKDAKHC@SetAutoCameraRotationSpeed@
CONST	SEGMENT
??_C@_0BL@IEKDAKHC@SetAutoCameraRotationSpeed@ DB 'SetAutoCameraRotationS'
	DB	'peed', 00H					; `string'
CONST	ENDS
;	COMDAT ??_C@_0BC@DAIEHFBH@SetAttackKeyState@
CONST	SEGMENT
??_C@_0BC@DAIEHFBH@SetAttackKeyState@ DB 'SetAttackKeyState', 00H ; `string'
CONST	ENDS
;	COMDAT ??_C@_0L@PBBGGCLG@HidePlayer@
CONST	SEGMENT
??_C@_0L@PBBGGCLG@HidePlayer@ DB 'HidePlayer', 00H	; `string'
CONST	ENDS
;	COMDAT ??_C@_0M@GOCDIKPN@ComboAttack@
CONST	SEGMENT
??_C@_0M@GOCDIKPN@ComboAttack@ DB 'ComboAttack', 00H	; `string'
CONST	ENDS
;	COMDAT ??_C@_0L@JEBGMNAH@ActEmotion@
CONST	SEGMENT
??_C@_0L@JEBGMNAH@ActEmotion@ DB 'ActEmotion', 00H	; `string'
CONST	ENDS
;	COMDAT ??_C@_0L@CPMIOCIM@ShowPlayer@
CONST	SEGMENT
??_C@_0L@CPMIOCIM@ShowPlayer@ DB 'ShowPlayer', 00H	; `string'
CONST	ENDS
;	COMDAT ??_C@_0BA@GFJLKENO@IsMountingHorse@
CONST	SEGMENT
??_C@_0BA@GFJLKENO@IsMountingHorse@ DB 'IsMountingHorse', 00H ; `string'
CONST	ENDS
;	COMDAT ??_C@_0P@LDENHACE@IsObserverMode@
CONST	SEGMENT
??_C@_0P@LDENHACE@IsObserverMode@ DB 'IsObserverMode', 00H ; `string'
CONST	ENDS
;	COMDAT ??_C@_0BF@DABJOKIF@GetCharacterDistance@
CONST	SEGMENT
??_C@_0BF@DABJOKIF@GetCharacterDistance@ DB 'GetCharacterDistance', 00H ; `string'
CONST	ENDS
;	COMDAT ??_C@_0N@IKPCBCPA@IsInSafeArea@
CONST	SEGMENT
??_C@_0N@IKPCBCPA@IsInSafeArea@ DB 'IsInSafeArea', 00H	; `string'
CONST	ENDS
;	COMDAT ??_C@_0BC@IKOEAPGC@IsRevengeInstance@
CONST	SEGMENT
??_C@_0BC@IKOEAPGC@IsRevengeInstance@ DB 'IsRevengeInstance', 00H ; `string'
CONST	ENDS
;	COMDAT ??_C@_0BE@HJOMPGKI@IsCantFightInstance@
CONST	SEGMENT
??_C@_0BE@HJOMPGKI@IsCantFightInstance@ DB 'IsCantFightInstance', 00H ; `string'
CONST	ENDS
;	COMDAT ??_C@_0N@CBEDFALN@IsSameEmpire@
CONST	SEGMENT
??_C@_0N@CBEDFALN@IsSameEmpire@ DB 'IsSameEmpire', 00H	; `string'
CONST	ENDS
;	COMDAT ??_C@_0BE@FOIPHJLO@IsChallengeInstance@
CONST	SEGMENT
??_C@_0BE@FOIPHJLO@IsChallengeInstance@ DB 'IsChallengeInstance', 00H ; `string'
CONST	ENDS
;	COMDAT ??_C@_0BA@ODCBPOEF@IsActingEmotion@
CONST	SEGMENT
??_C@_0BA@ODCBPOEF@IsActingEmotion@ DB 'IsActingEmotion', 00H ; `string'
CONST	ENDS
;	COMDAT ??_C@_0O@ECCODAC@IsPVPInstance@
CONST	SEGMENT
??_C@_0O@ECCODAC@IsPVPInstance@ DB 'IsPVPInstance', 00H	; `string'
CONST	ENDS
;	COMDAT ??_C@_0BF@GALHNOAL@IsMainCharacterIndex@
CONST	SEGMENT
??_C@_0BF@GALHNOAL@IsMainCharacterIndex@ DB 'IsMainCharacterIndex', 00H ; `string'
CONST	ENDS
;	COMDAT ??_C@_0BC@FLPEGJDD@CanAttackInstance@
CONST	SEGMENT
??_C@_0BC@FLPEGJDD@CanAttackInstance@ DB 'CanAttackInstance', 00H ; `string'
CONST	ENDS
;	COMDAT ??_C@_0BF@OMDPKDFM@GetMainCharacterName@
CONST	SEGMENT
??_C@_0BF@OMDPKDFM@GetMainCharacterName@ DB 'GetMainCharacterName', 00H ; `string'
CONST	ENDS
;	COMDAT ??_C@_0BJ@GIKFEPMH@GetMainCharacterPosition@
CONST	SEGMENT
??_C@_0BJ@GIKFEPMH@GetMainCharacterPosition@ DB 'GetMainCharacterPosition'
	DB	00H						; `string'
CONST	ENDS
;	COMDAT ??_C@_0BG@JCNMOACA@SetMainCharacterIndex@
CONST	SEGMENT
??_C@_0BG@JCNMOACA@SetMainCharacterIndex@ DB 'SetMainCharacterIndex', 00H ; `string'
CONST	ENDS
;	COMDAT ??_C@_0BG@GHIKDJGB@GetMainCharacterIndex@
CONST	SEGMENT
??_C@_0BG@GHIKDJGB@GetMainCharacterIndex@ DB 'GetMainCharacterIndex', 00H ; `string'
CONST	ENDS
;	COMDAT ??_C@_0N@MACDDOCA@GetMouseFunc@
CONST	SEGMENT
??_C@_0N@MACDDOCA@GetMouseFunc@ DB 'GetMouseFunc', 00H	; `string'
CONST	ENDS
;	COMDAT ??_C@_0BK@JBJLNCBH@SetMouseMiddleButtonState@
CONST	SEGMENT
??_C@_0BK@JBJLNCBH@SetMouseMiddleButtonState@ DB 'SetMouseMiddleButtonSta'
	DB	'te', 00H					; `string'
CONST	ENDS
;	COMDAT ??_C@_0O@HDELDAFI@SetMouseState@
CONST	SEGMENT
??_C@_0O@HDELDAFI@SetMouseState@ DB 'SetMouseState', 00H ; `string'
CONST	ENDS
;	COMDAT ??_C@_0N@LEJNPCGM@SetMouseFunc@
CONST	SEGMENT
??_C@_0N@LEJNPCGM@SetMouseFunc@ DB 'SetMouseFunc', 00H	; `string'
CONST	ENDS
;	COMDAT ??_C@_0BI@JOKOCOKN@PickCloseItemAutoVector@
CONST	SEGMENT
??_C@_0BI@JOKOCOKN@PickCloseItemAutoVector@ DB 'PickCloseItemAutoVector', 00H ; `string'
CONST	ENDS
;	COMDAT ??_C@_0O@MNPFFDEJ@SetGameWindow@
CONST	SEGMENT
??_C@_0O@MNPFFDEJ@SetGameWindow@ DB 'SetGameWindow', 00H ; `string'
CONST	ENDS
;	COMDAT ??_C@_0O@MAEJALBO@PickCloseItem@
CONST	SEGMENT
??_C@_0O@MAEJALBO@PickCloseItem@ DB 'PickCloseItem', 00H ; `string'
CONST	ENDS
;	COMDAT ??_C@_0BE@EFMODMFG@PickCloseItemVector@
CONST	SEGMENT
??_C@_0BE@EFMODMFG@PickCloseItemVector@ DB 'PickCloseItemVector', 00H ; `string'
CONST	ENDS
;	COMDAT ??_C@_0BC@CHIABFDI@GetAutoPotionInfo@
CONST	SEGMENT
??_C@_0BC@CHIABFDI@GetAutoPotionInfo@ DB 'GetAutoPotionInfo', 00H ; `string'
CONST	ENDS
;	COMDAT ??_C@_0BC@CILJOCG@SetAutoPotionInfo@
CONST	SEGMENT
??_C@_0BC@CILJOCG@SetAutoPotionInfo@ DB 'SetAutoPotionInfo', 00H ; `string'
CONST	ENDS
;	COMDAT ??_C@_09BOADOOAM@iiiiiiiii@
CONST	SEGMENT
??_C@_09BOADOOAM@iiiiiiiii@ DB 'iiiiiiiii', 00H		; `string'
CONST	ENDS
;	COMDAT ??_C@_07LLGOIFNB@iiisfff@
CONST	SEGMENT
??_C@_07LLGOIFNB@iiisfff@ DB 'iiisfff', 00H		; `string'
CONST	ENDS
;	COMDAT ??_C@_05EAPDINDK@iiiii@
CONST	SEGMENT
??_C@_05EAPDINDK@iiiii@ DB 'iiiii', 00H			; `string'
CONST	ENDS
;	COMDAT ??_C@_0L@LNJHJPCL@iiiiiiiiii@
CONST	SEGMENT
??_C@_0L@LNJHJPCL@iiiiiiiiii@ DB 'iiiiiiiiii', 00H	; `string'
CONST	ENDS
;	COMDAT ??_C@_07EFJJEBFG@iiiiiii@
CONST	SEGMENT
??_C@_07EFJJEBFG@iiiiiii@ DB 'iiiiiii', 00H		; `string'
CONST	ENDS
;	COMDAT ??_C@_04GPDILEAH@biii@
CONST	SEGMENT
??_C@_04GPDILEAH@biii@ DB 'biii', 00H			; `string'
CONST	ENDS
;	COMDAT ??_C@_0BF@BGKCJNBK@Can?8t?5find?5item?5data@
CONST	SEGMENT
??_C@_0BF@BGKCJNBK@Can?8t?5find?5item?5data@ DB 'Can''t find item data', 00H ; `string'
CONST	ENDS
;	COMDAT ??_C@_0BF@IBGKLIMC@can?8t?5find?5item?5data@
CONST	SEGMENT
??_C@_0BF@IBGKLIMC@can?8t?5find?5item?5data@ DB 'can''t find item data', 00H ; `string'
CONST	ENDS
;	COMDAT ??_C@_06FAMCNHHL@?3?$CFx?3?$CFd@
CONST	SEGMENT
??_C@_06FAMCNHHL@?3?$CFx?3?$CFd@ DB ':%x:%d', 00H	; `string'
CONST	ENDS
;	COMDAT ??_C@_0BK@MGKBEPOF@?5?$HMh?$HMr?$FL?$CFs?$FN?$HMcfff1e6c0?$HMH?$CFs?$HMh@
CONST	SEGMENT
??_C@_0BK@MGKBEPOF@?5?$HMh?$HMr?$FL?$CFs?$FN?$HMcfff1e6c0?$HMH?$CFs?$HMh@ DB ' '
	DB	'|h|r[%s]|cfff1e6c0|H%s|h', 00H		; `string'
CONST	ENDS
;	COMDAT ??_C@_01HHGOMJKL@l@
CONST	SEGMENT
??_C@_01HHGOMJKL@l@ DB 'l', 00H				; `string'
CONST	ENDS
;	COMDAT ??_C@_0BK@MCOKCAKI@?5?$HMh?$HMr?$FL?$CFs?$FN?$HMcffffc700?$HMH?$CFs?$HMh@
CONST	SEGMENT
??_C@_0BK@MCOKCAKI@?5?$HMh?$HMr?$FL?$CFs?$FN?$HMcffffc700?$HMH?$CFs?$HMh@ DB ' '
	DB	'|h|r[%s]|cffffc700|H%s|h', 00H		; `string'
CONST	ENDS
;	COMDAT ??_C@_0EK@IDBGKDBN@playerSetSingleDIKKeyState?$CIeDIK@
CONST	SEGMENT
??_C@_0EK@IDBGKDBN@playerSetSingleDIKKeyState?$CIeDIK@ DB 'playerSetSingl'
	DB	'eDIKKeyState(eDIK, isPressed) - There is no second argument', 00H ; `string'
CONST	ENDS
;	COMDAT ??_C@_02HPEDFNFO@ff@
CONST	SEGMENT
??_C@_02HPEDFNFO@ff@ DB 'ff', 00H			; `string'
CONST	ENDS
;	COMDAT ??_C@_0EA@OHLDKNFC@playerSetAttackKeyState?$CIisPress@
CONST	SEGMENT
??_C@_0EA@OHLDKNFC@playerSetAttackKeyState?$CIisPress@ DB 'playerSetAttac'
	DB	'kKeyState(isPressed) - There is no first argument', 00H ; `string'
CONST	ENDS
;	COMDAT ??_C@_0EJ@BNKMOLIP@playerSetSingleDIKKeyState?$CIeDIK@
CONST	SEGMENT
??_C@_0EJ@BNKMOLIP@playerSetSingleDIKKeyState?$CIeDIK@ DB 'playerSetSingl'
	DB	'eDIKKeyState(eDIK, isPressed) - There is no first argument', 00H ; `string'
CONST	ENDS
;	COMDAT ??_C@_0DF@ILFGGFEI@CPythonPlayer?3?3RegisterEffect?$CIe@
CONST	SEGMENT
??_C@_0DF@ILFGGFEI@CPythonPlayer?3?3RegisterEffect?$CIe@ DB 'CPythonPlaye'
	DB	'r::RegisterEffect(eEft=%d, szFileName=%s', 00H ; `string'
PUBLIC	??$forward@PAVCGraphicImage@@@std@@YA$$QAPAVCGraphicImage@@AAPAV1@@Z ; std::forward<CGraphicImage *>
PUBLIC	??$?0V?$tuple@ABH@std@@V?$tuple@$$V@1@$0A@$$Z$S@?$pair@$$CBHPAVCGraphicImage@@@std@@AAE@AAV?$tuple@ABH@1@AAV?$tuple@$$V@1@U?$integer_sequence@I$0A@@1@U?$integer_sequence@I$S@1@@Z ; std::pair<int const ,CGraphicImage *>::pair<int const ,CGraphicImage *><std::tuple<int const &>,std::tuple<>,0>
PUBLIC	??$?0HPAVCGraphicImage@@$0A@@?$pair@$$CBHPAVCGraphicImage@@@std@@QAE@$$QAU?$pair@HPAVCGraphicImage@@@1@@Z ; std::pair<int const ,CGraphicImage *>::pair<int const ,CGraphicImage *><int,CGraphicImage *,0>
PUBLIC	?_Get_first@?$_Compressed_pair@V?$allocator@U?$_Tree_node@U?$pair@$$CBHPAVCGraphicImage@@@std@@PAX@std@@@std@@V?$_Tree_val@U?$_Tree_simple_types@U?$pair@$$CBHPAVCGraphicImage@@@std@@@std@@@2@$00@std@@QBEABV?$allocator@U?$_Tree_node@U?$pair@$$CBHPAVCGraphicImage@@@std@@PAX@std@@@2@XZ ; std::_Compressed_pair<std::allocator<std::_Tree_node<std::pair<int const ,CGraphicImage *>,void *> >,std::_Tree_val<std::_Tree_simple_types<std::pair<int const ,CGraphicImage *> > >,1>::_Get_first
PUBLIC	??$construct_at@U?$pair@$$CBHPAVCGraphicImage@@@std@@U?$pair@HPAVCGraphicImage@@@2@@std@@YAPAU?$pair@$$CBHPAVCGraphicImage@@@0@QAU10@$$QAU?$pair@HPAVCGraphicImage@@@0@@Z ; std::construct_at<std::pair<int const ,CGraphicImage *>,std::pair<int,CGraphicImage *> >
PUBLIC	??$?0ABH$$Z$$V@?$pair@$$CBHPAVCGraphicImage@@@std@@QAE@Upiecewise_construct_t@1@V?$tuple@ABH@1@V?$tuple@$$V@1@@Z ; std::pair<int const ,CGraphicImage *>::pair<int const ,CGraphicImage *><int const &>
PUBLIC	?_Getal@?$_Tree@V?$_Tmap_traits@HPAVCGraphicImage@@U?$less@H@std@@V?$allocator@U?$pair@$$CBHPAVCGraphicImage@@@std@@@3@$0A@@std@@@std@@IBEABV?$allocator@U?$_Tree_node@U?$pair@$$CBHPAVCGraphicImage@@@std@@PAX@std@@@2@XZ ; std::_Tree<std::_Tmap_traits<int,CGraphicImage *,std::less<int>,std::allocator<std::pair<int const ,CGraphicImage *> >,0> >::_Getal
PUBLIC	?max_size@?$_Default_allocator_traits@V?$allocator@U?$_Tree_node@U?$pair@$$CBHPAVCGraphicImage@@@std@@PAX@std@@@std@@@std@@SAIABV?$allocator@U?$_Tree_node@U?$pair@$$CBHPAVCGraphicImage@@@std@@PAX@std@@@2@@Z ; std::_Default_allocator_traits<std::allocator<std::_Tree_node<std::pair<int const ,CGraphicImage *>,void *> > >::max_size
PUBLIC	?_Get_first@?$_Compressed_pair@U?$less@H@std@@V?$_Compressed_pair@V?$allocator@U?$_Tree_node@U?$pair@$$CBHPAVCGraphicImage@@@std@@PAX@std@@@std@@V?$_Tree_val@U?$_Tree_simple_types@U?$pair@$$CBHPAVCGraphicImage@@@std@@@std@@@2@$00@2@$00@std@@QBEABU?$less@H@2@XZ ; std::_Compressed_pair<std::less<int>,std::_Compressed_pair<std::allocator<std::_Tree_node<std::pair<int const ,CGraphicImage *>,void *> >,std::_Tree_val<std::_Tree_simple_types<std::pair<int const ,CGraphicImage *> > >,1>,1>::_Get_first
PUBLIC	??0?$_Alloc_construct_ptr@V?$allocator@U?$_Tree_node@U?$pair@$$CBHPAVCGraphicImage@@@std@@PAX@std@@@std@@@std@@QAE@AAV?$allocator@U?$_Tree_node@U?$pair@$$CBHPAVCGraphicImage@@@std@@PAX@std@@@1@@Z ; std::_Alloc_construct_ptr<std::allocator<std::_Tree_node<std::pair<int const ,CGraphicImage *>,void *> > >::_Alloc_construct_ptr<std::allocator<std::_Tree_node<std::pair<int const ,CGraphicImage *>,void *> > >
PUBLIC	?_Allocate@?$_Alloc_construct_ptr@V?$allocator@U?$_Tree_node@U?$pair@$$CBHPAVCGraphicImage@@@std@@PAX@std@@@std@@@std@@QAEXXZ ; std::_Alloc_construct_ptr<std::allocator<std::_Tree_node<std::pair<int const ,CGraphicImage *>,void *> > >::_Allocate
PUBLIC	??$construct_at@PAU?$_Tree_node@U?$pair@$$CBHPAVCGraphicImage@@@std@@PAX@std@@AAPAU12@@std@@YAPAPAU?$_Tree_node@U?$pair@$$CBHPAVCGraphicImage@@@std@@PAX@0@QAPAU10@AAPAU10@@Z ; std::construct_at<std::_Tree_node<std::pair<int const ,CGraphicImage *>,void *> *,std::_Tree_node<std::pair<int const ,CGraphicImage *>,void *> * &>
PUBLIC	??$construct_at@U?$pair@$$CBHPAVCGraphicImage@@@std@@ABUpiecewise_construct_t@2@V?$tuple@ABH@2@V?$tuple@$$V@2@@std@@YAPAU?$pair@$$CBHPAVCGraphicImage@@@0@QAU10@ABUpiecewise_construct_t@0@$$QAV?$tuple@ABH@0@$$QAV?$tuple@$$V@0@@Z ; std::construct_at<std::pair<int const ,CGraphicImage *>,std::piecewise_construct_t const &,std::tuple<int const &>,std::tuple<> >
PUBLIC	??$forward@AAPAU?$_Tree_node@U?$pair@$$CBHPAVCGraphicImage@@@std@@PAX@std@@@std@@YAAAPAU?$_Tree_node@U?$pair@$$CBHPAVCGraphicImage@@@std@@PAX@0@AAPAU10@@Z ; std::forward<std::_Tree_node<std::pair<int const ,CGraphicImage *>,void *> * &>
PUBLIC	??$construct@U?$pair@$$CBHPAVCGraphicImage@@@std@@U?$pair@HPAVCGraphicImage@@@2@@?$_Default_allocator_traits@V?$allocator@U?$_Tree_node@U?$pair@$$CBHPAVCGraphicImage@@@std@@PAX@std@@@std@@@std@@SAXAAV?$allocator@U?$_Tree_node@U?$pair@$$CBHPAVCGraphicImage@@@std@@PAX@std@@@1@QAU?$pair@$$CBHPAVCGraphicImage@@@1@$$QAU?$pair@HPAVCGraphicImage@@@1@@Z ; std::_Default_allocator_traits<std::allocator<std::_Tree_node<std::pair<int const ,CGraphicImage *>,void *> > >::construct<std::pair<int const ,CGraphicImage *>,std::pair<int,CGraphicImage *> >
PUBLIC	?max_size@?$_Tree@V?$_Tmap_traits@HPAVCGraphicImage@@U?$less@H@std@@V?$allocator@U?$pair@$$CBHPAVCGraphicImage@@@std@@@3@$0A@@std@@@std@@QBEIXZ ; std::_Tree<std::_Tmap_traits<int,CGraphicImage *,std::less<int>,std::allocator<std::pair<int const ,CGraphicImage *> >,0> >::max_size
PUBLIC	?_Getcomp@?$_Tree@V?$_Tmap_traits@HPAVCGraphicImage@@U?$less@H@std@@V?$allocator@U?$pair@$$CBHPAVCGraphicImage@@@std@@@3@$0A@@std@@@std@@IBEABU?$less@H@2@XZ ; std::_Tree<std::_Tmap_traits<int,CGraphicImage *,std::less<int>,std::allocator<std::pair<int const ,CGraphicImage *> >,0> >::_Getcomp
PUBLIC	?_Lrotate@?$_Tree_val@U?$_Tree_simple_types@U?$pair@$$CBHPAVCGraphicImage@@@std@@@std@@@std@@QAEXPAU?$_Tree_node@U?$pair@$$CBHPAVCGraphicImage@@@std@@PAX@2@@Z ; std::_Tree_val<std::_Tree_simple_types<std::pair<int const ,CGraphicImage *> > >::_Lrotate
PUBLIC	?_Rrotate@?$_Tree_val@U?$_Tree_simple_types@U?$pair@$$CBHPAVCGraphicImage@@@std@@@std@@@std@@QAEXPAU?$_Tree_node@U?$pair@$$CBHPAVCGraphicImage@@@std@@PAX@2@@Z ; std::_Tree_val<std::_Tree_simple_types<std::pair<int const ,CGraphicImage *> > >::_Rrotate
PUBLIC	??0?$_Tree_temp_node_alloc@V?$allocator@U?$_Tree_node@U?$pair@$$CBHPAVCGraphicImage@@@std@@PAX@std@@@std@@@std@@QAE@AAV?$allocator@U?$_Tree_node@U?$pair@$$CBHPAVCGraphicImage@@@std@@PAX@std@@@1@@Z ; std::_Tree_temp_node_alloc<std::allocator<std::_Tree_node<std::pair<int const ,CGraphicImage *>,void *> > >::_Tree_temp_node_alloc<std::allocator<std::_Tree_node<std::pair<int const ,CGraphicImage *>,void *> > >
PUBLIC	??1?$_Alloc_construct_ptr@V?$allocator@U?$_Tree_node@U?$pair@$$CBHPAVCGraphicImage@@@std@@PAX@std@@@std@@@std@@QAE@XZ ; std::_Alloc_construct_ptr<std::allocator<std::_Tree_node<std::pair<int const ,CGraphicImage *>,void *> > >::~_Alloc_construct_ptr<std::allocator<std::_Tree_node<std::pair<int const ,CGraphicImage *>,void *> > >
PUBLIC	?_Extract@?$_In_place_key_extract_map_impl@HU?$pair@HPAVCGraphicImage@@@std@@@std@@SAABHABU?$pair@HPAVCGraphicImage@@@2@@Z ; std::_In_place_key_extract_map_impl<int,std::pair<int,CGraphicImage *> >::_Extract
PUBLIC	??$addressof@$$CBV?$_Tree_val@U?$_Tree_simple_types@U?$pair@$$CBHPAVCGraphicImage@@@std@@@std@@@std@@@std@@YAPBV?$_Tree_val@U?$_Tree_simple_types@U?$pair@$$CBHPAVCGraphicImage@@@std@@@std@@@0@ABV10@@Z ; std::addressof<std::_Tree_val<std::_Tree_simple_types<std::pair<int const ,CGraphicImage *> > > const >
PUBLIC	??$exchange@PAU?$_Tree_node@U?$pair@$$CBHPAVCGraphicImage@@@std@@PAX@std@@$$T@std@@YAPAU?$_Tree_node@U?$pair@$$CBHPAVCGraphicImage@@@std@@PAX@0@AAPAU10@$$QA$$T@Z ; std::exchange<std::_Tree_node<std::pair<int const ,CGraphicImage *>,void *> *,std::nullptr_t>
PUBLIC	??$forward@PAU?$_Tree_node@U?$pair@$$CBHPAVCGraphicImage@@@std@@PAX@std@@@std@@YA$$QAPAU?$_Tree_node@U?$pair@$$CBHPAVCGraphicImage@@@std@@PAX@0@AAPAU10@@Z ; std::forward<std::_Tree_node<std::pair<int const ,CGraphicImage *>,void *> *>
PUBLIC	??$_Construct_in_place@PAU?$_Tree_node@U?$pair@$$CBHPAVCGraphicImage@@@std@@PAX@std@@AAPAU12@@std@@YAXAAPAU?$_Tree_node@U?$pair@$$CBHPAVCGraphicImage@@@std@@PAX@0@0@Z ; std::_Construct_in_place<std::_Tree_node<std::pair<int const ,CGraphicImage *>,void *> *,std::_Tree_node<std::pair<int const ,CGraphicImage *>,void *> * &>
PUBLIC	??$construct@U?$pair@$$CBHPAVCGraphicImage@@@std@@ABUpiecewise_construct_t@2@V?$tuple@ABH@2@V?$tuple@$$V@2@@?$_Default_allocator_traits@V?$allocator@U?$_Tree_node@U?$pair@$$CBHPAVCGraphicImage@@@std@@PAX@std@@@std@@@std@@SAXAAV?$allocator@U?$_Tree_node@U?$pair@$$CBHPAVCGraphicImage@@@std@@PAX@std@@@1@QAU?$pair@$$CBHPAVCGraphicImage@@@1@ABUpiecewise_construct_t@1@$$QAV?$tuple@ABH@1@$$QAV?$tuple@$$V@1@@Z ; std::_Default_allocator_traits<std::allocator<std::_Tree_node<std::pair<int const ,CGraphicImage *>,void *> > >::construct<std::pair<int const ,CGraphicImage *>,std::piecewise_construct_t const &,std::tuple<int const &>,std::tuple<> >
PUBLIC	??$_Kfn@$$CBHPAVCGraphicImage@@@?$_Tmap_traits@HPAVCGraphicImage@@U?$less@H@std@@V?$allocator@U?$pair@$$CBHPAVCGraphicImage@@@std@@@3@$0A@@std@@SAABHABU?$pair@$$CBHPAVCGraphicImage@@@1@@Z ; std::_Tmap_traits<int,CGraphicImage *,std::less<int>,std::allocator<std::pair<int const ,CGraphicImage *> >,0>::_Kfn<int const ,CGraphicImage *>
PUBLIC	??$forward@V?$_Tree_iterator@V?$_Tree_val@U?$_Tree_simple_types@U?$pair@$$CBHPAVCGraphicImage@@@std@@@std@@@std@@@std@@@std@@YA$$QAV?$_Tree_iterator@V?$_Tree_val@U?$_Tree_simple_types@U?$pair@$$CBHPAVCGraphicImage@@@std@@@std@@@std@@@0@AAV10@@Z ; std::forward<std::_Tree_iterator<std::_Tree_val<std::_Tree_simple_types<std::pair<int const ,CGraphicImage *> > > > >
PUBLIC	??$?0AAPAU?$_Tree_node@U?$pair@$$CBHPAVCGraphicImage@@@std@@PAX@std@@_N$0A@@?$pair@PAU?$_Tree_node@U?$pair@$$CBHPAVCGraphicImage@@@std@@PAX@std@@_N@std@@QAE@AAPAU?$_Tree_node@U?$pair@$$CBHPAVCGraphicImage@@@std@@PAX@1@$$QA_N@Z ; std::pair<std::_Tree_node<std::pair<int const ,CGraphicImage *>,void *> *,bool>::pair<std::_Tree_node<std::pair<int const ,CGraphicImage *>,void *> *,bool><std::_Tree_node<std::pair<int const ,CGraphicImage *>,void *> * &,bool,0>
PUBLIC	??$?0U?$pair@HPAVCGraphicImage@@@std@@@?$_Tree_temp_node@V?$allocator@U?$_Tree_node@U?$pair@$$CBHPAVCGraphicImage@@@std@@PAX@std@@@std@@@std@@QAE@AAV?$allocator@U?$_Tree_node@U?$pair@$$CBHPAVCGraphicImage@@@std@@PAX@std@@@1@PAU?$_Tree_node@U?$pair@$$CBHPAVCGraphicImage@@@std@@PAX@1@$$QAU?$pair@HPAVCGraphicImage@@@1@@Z ; std::_Tree_temp_node<std::allocator<std::_Tree_node<std::pair<int const ,CGraphicImage *>,void *> > >::_Tree_temp_node<std::allocator<std::_Tree_node<std::pair<int const ,CGraphicImage *>,void *> > ><std::pair<int,CGraphicImage *> >
PUBLIC	??1?$_Tree_temp_node_alloc@V?$allocator@U?$_Tree_node@U?$pair@$$CBHPAVCGraphicImage@@@std@@PAX@std@@@std@@@std@@QAE@XZ ; std::_Tree_temp_node_alloc<std::allocator<std::_Tree_node<std::pair<int const ,CGraphicImage *>,void *> > >::~_Tree_temp_node_alloc<std::allocator<std::_Tree_node<std::pair<int const ,CGraphicImage *>,void *> > >
PUBLIC	?_Check_grow_by_1@?$_Tree@V?$_Tmap_traits@HPAVCGraphicImage@@U?$less@H@std@@V?$allocator@U?$pair@$$CBHPAVCGraphicImage@@@std@@@3@$0A@@std@@@std@@IAEXXZ ; std::_Tree<std::_Tmap_traits<int,CGraphicImage *,std::less<int>,std::allocator<std::pair<int const ,CGraphicImage *> >,0> >::_Check_grow_by_1
PUBLIC	?_Get_scary@?$_Tree@V?$_Tmap_traits@HPAVCGraphicImage@@U?$less@H@std@@V?$allocator@U?$pair@$$CBHPAVCGraphicImage@@@std@@@3@$0A@@std@@@std@@IBEPBV?$_Tree_val@U?$_Tree_simple_types@U?$pair@$$CBHPAVCGraphicImage@@@std@@@std@@@2@XZ ; std::_Tree<std::_Tmap_traits<int,CGraphicImage *,std::less<int>,std::allocator<std::pair<int const ,CGraphicImage *> >,0> >::_Get_scary
PUBLIC	?_Insert_node@?$_Tree_val@U?$_Tree_simple_types@U?$pair@$$CBHPAVCGraphicImage@@@std@@@std@@@std@@QAEPAU?$_Tree_node@U?$pair@$$CBHPAVCGraphicImage@@@std@@PAX@2@U?$_Tree_id@PAU?$_Tree_node@U?$pair@$$CBHPAVCGraphicImage@@@std@@PAX@std@@@2@QAU32@@Z ; std::_Tree_val<std::_Tree_simple_types<std::pair<int const ,CGraphicImage *> > >::_Insert_node
PUBLIC	??1?$_Tree_temp_node@V?$allocator@U?$_Tree_node@U?$pair@$$CBHPAVCGraphicImage@@@std@@PAX@std@@@std@@@std@@QAE@XZ ; std::_Tree_temp_node<std::allocator<std::_Tree_node<std::pair<int const ,CGraphicImage *>,void *> > >::~_Tree_temp_node<std::allocator<std::_Tree_node<std::pair<int const ,CGraphicImage *>,void *> > >
PUBLIC	?_Release@?$_Alloc_construct_ptr@V?$allocator@U?$_Tree_node@U?$pair@$$CBHPAVCGraphicImage@@@std@@PAX@std@@@std@@@std@@QAEPAU?$_Tree_node@U?$pair@$$CBHPAVCGraphicImage@@@std@@PAX@2@XZ ; std::_Alloc_construct_ptr<std::allocator<std::_Tree_node<std::pair<int const ,CGraphicImage *>,void *> > >::_Release
PUBLIC	??$?0PAU?$_Tree_node@U?$pair@$$CBHPAVCGraphicImage@@@std@@PAX@std@@_N$0A@@?$pair@PAU?$_Tree_node@U?$pair@$$CBHPAVCGraphicImage@@@std@@PAX@std@@_N@std@@QAE@$$QAPAU?$_Tree_node@U?$pair@$$CBHPAVCGraphicImage@@@std@@PAX@1@$$QA_N@Z ; std::pair<std::_Tree_node<std::pair<int const ,CGraphicImage *>,void *> *,bool>::pair<std::_Tree_node<std::pair<int const ,CGraphicImage *>,void *> *,bool><std::_Tree_node<std::pair<int const ,CGraphicImage *>,void *> *,bool,0>
PUBLIC	??$?0ABQAU?$_Tree_node@U?$pair@$$CBHPAVCGraphicImage@@@std@@PAX@std@@_N$0A@@?$pair@PAU?$_Tree_node@U?$pair@$$CBHPAVCGraphicImage@@@std@@PAX@std@@_N@std@@QAE@ABQAU?$_Tree_node@U?$pair@$$CBHPAVCGraphicImage@@@std@@PAX@1@$$QA_N@Z ; std::pair<std::_Tree_node<std::pair<int const ,CGraphicImage *>,void *> *,bool>::pair<std::_Tree_node<std::pair<int const ,CGraphicImage *>,void *> *,bool><std::_Tree_node<std::pair<int const ,CGraphicImage *>,void *> * const &,bool,0>
PUBLIC	??$?0ABUpiecewise_construct_t@std@@V?$tuple@ABH@1@V?$tuple@$$V@1@@?$_Tree_temp_node@V?$allocator@U?$_Tree_node@U?$pair@$$CBHPAVCGraphicImage@@@std@@PAX@std@@@std@@@std@@QAE@AAV?$allocator@U?$_Tree_node@U?$pair@$$CBHPAVCGraphicImage@@@std@@PAX@std@@@1@PAU?$_Tree_node@U?$pair@$$CBHPAVCGraphicImage@@@std@@PAX@1@ABUpiecewise_construct_t@1@$$QAV?$tuple@ABH@1@$$QAV?$tuple@$$V@1@@Z ; std::_Tree_temp_node<std::allocator<std::_Tree_node<std::pair<int const ,CGraphicImage *>,void *> > >::_Tree_temp_node<std::allocator<std::_Tree_node<std::pair<int const ,CGraphicImage *>,void *> > ><std::piecewise_construct_t const &,std::tuple<int const &>,std::tuple<> >
PUBLIC	??$_Lower_bound_duplicate@H@?$_Tree@V?$_Tmap_traits@HPAVCGraphicImage@@U?$less@H@std@@V?$allocator@U?$pair@$$CBHPAVCGraphicImage@@@std@@@3@$0A@@std@@@std@@IBE_NQAU?$_Tree_node@U?$pair@$$CBHPAVCGraphicImage@@@std@@PAX@1@ABH@Z ; std::_Tree<std::_Tmap_traits<int,CGraphicImage *,std::less<int>,std::allocator<std::pair<int const ,CGraphicImage *> >,0> >::_Lower_bound_duplicate<int>
PUBLIC	??$_Find_lower_bound@H@?$_Tree@V?$_Tmap_traits@HPAVCGraphicImage@@U?$less@H@std@@V?$allocator@U?$pair@$$CBHPAVCGraphicImage@@@std@@@3@$0A@@std@@@std@@IBE?AU?$_Tree_find_result@PAU?$_Tree_node@U?$pair@$$CBHPAVCGraphicImage@@@std@@PAX@std@@@1@ABH@Z ; std::_Tree<std::_Tmap_traits<int,CGraphicImage *,std::less<int>,std::allocator<std::pair<int const ,CGraphicImage *> >,0> >::_Find_lower_bound<int>
PUBLIC	??$?0V?$_Tree_iterator@V?$_Tree_val@U?$_Tree_simple_types@U?$pair@$$CBHPAVCGraphicImage@@@std@@@std@@@std@@@std@@AB_N$0A@@?$pair@V?$_Tree_iterator@V?$_Tree_val@U?$_Tree_simple_types@U?$pair@$$CBHPAVCGraphicImage@@@std@@@std@@@std@@@std@@_N@std@@QAE@$$QAV?$_Tree_iterator@V?$_Tree_val@U?$_Tree_simple_types@U?$pair@$$CBHPAVCGraphicImage@@@std@@@std@@@std@@@1@AB_N@Z ; std::pair<std::_Tree_iterator<std::_Tree_val<std::_Tree_simple_types<std::pair<int const ,CGraphicImage *> > > >,bool>::pair<std::_Tree_iterator<std::_Tree_val<std::_Tree_simple_types<std::pair<int const ,CGraphicImage *> > > >,bool><std::_Tree_iterator<std::_Tree_val<std::_Tree_simple_types<std::pair<int const ,CGraphicImage *> > > >,bool const &,0>
PUBLIC	??$_Emplace@U?$pair@HPAVCGraphicImage@@@std@@@?$_Tree@V?$_Tmap_traits@HPAVCGraphicImage@@U?$less@H@std@@V?$allocator@U?$pair@$$CBHPAVCGraphicImage@@@std@@@3@$0A@@std@@@std@@IAE?AU?$pair@PAU?$_Tree_node@U?$pair@$$CBHPAVCGraphicImage@@@std@@PAX@std@@_N@1@$$QAU?$pair@HPAVCGraphicImage@@@1@@Z ; std::_Tree<std::_Tmap_traits<int,CGraphicImage *,std::less<int>,std::allocator<std::pair<int const ,CGraphicImage *> >,0> >::_Emplace<std::pair<int,CGraphicImage *> >
PUBLIC	??0?$_Tree_unchecked_const_iterator@V?$_Tree_val@U?$_Tree_simple_types@U?$pair@$$CBHPAVCGraphicImage@@@std@@@std@@@std@@U_Iterator_base0@2@@std@@QAE@PAU?$_Tree_node@U?$pair@$$CBHPAVCGraphicImage@@@std@@PAX@1@PBV?$_Tree_val@U?$_Tree_simple_types@U?$pair@$$CBHPAVCGraphicImage@@@std@@@std@@@1@@Z ; std::_Tree_unchecked_const_iterator<std::_Tree_val<std::_Tree_simple_types<std::pair<int const ,CGraphicImage *> > >,std::_Iterator_base0>::_Tree_unchecked_const_iterator<std::_Tree_val<std::_Tree_simple_types<std::pair<int const ,CGraphicImage *> > >,std::_Iterator_base0>
PUBLIC	??$_Try_emplace@ABH$$V@?$map@HPAVCGraphicImage@@U?$less@H@std@@V?$allocator@U?$pair@$$CBHPAVCGraphicImage@@@std@@@3@@std@@AAE?AU?$pair@PAU?$_Tree_node@U?$pair@$$CBHPAVCGraphicImage@@@std@@PAX@std@@_N@1@ABH@Z ; std::map<int,CGraphicImage *,std::less<int>,std::allocator<std::pair<int const ,CGraphicImage *> > >::_Try_emplace<int const &>
PUBLIC	??$_Find@H@?$_Tree@V?$_Tmap_traits@HPAVCGraphicImage@@U?$less@H@std@@V?$allocator@U?$pair@$$CBHPAVCGraphicImage@@@std@@@3@$0A@@std@@@std@@ABEPAU?$_Tree_node@U?$pair@$$CBHPAVCGraphicImage@@@std@@PAX@1@ABH@Z ; std::_Tree<std::_Tmap_traits<int,CGraphicImage *,std::less<int>,std::allocator<std::pair<int const ,CGraphicImage *> >,0> >::_Find<int>
PUBLIC	??$emplace@U?$pair@HPAVCGraphicImage@@@std@@@?$_Tree@V?$_Tmap_traits@HPAVCGraphicImage@@U?$less@H@std@@V?$allocator@U?$pair@$$CBHPAVCGraphicImage@@@std@@@3@$0A@@std@@@std@@QAE?AU?$pair@V?$_Tree_iterator@V?$_Tree_val@U?$_Tree_simple_types@U?$pair@$$CBHPAVCGraphicImage@@@std@@@std@@@std@@@std@@_N@1@$$QAU?$pair@HPAVCGraphicImage@@@1@@Z ; std::_Tree<std::_Tmap_traits<int,CGraphicImage *,std::less<int>,std::allocator<std::pair<int const ,CGraphicImage *> >,0> >::emplace<std::pair<int,CGraphicImage *> >
PUBLIC	??$forward@U?$pair@HPAVCGraphicImage@@@std@@@std@@YA$$QAU?$pair@HPAVCGraphicImage@@@0@AAU10@@Z ; std::forward<std::pair<int,CGraphicImage *> >
PUBLIC	??$?0AAHAAPAVCGraphicImage@@$0A@@?$pair@HPAVCGraphicImage@@@std@@QAE@AAHAAPAVCGraphicImage@@@Z ; std::pair<int,CGraphicImage *>::pair<int,CGraphicImage *><int &,CGraphicImage * &,0>
PUBLIC	??$forward@AAPAVCGraphicImage@@@std@@YAAAPAVCGraphicImage@@AAPAV1@@Z ; std::forward<CGraphicImage * &>
PUBLIC	??0?$_Tree_const_iterator@V?$_Tree_val@U?$_Tree_simple_types@U?$pair@$$CBHPAVCGraphicImage@@@std@@@std@@@std@@@std@@QAE@PAU?$_Tree_node@U?$pair@$$CBHPAVCGraphicImage@@@std@@PAX@1@PBV?$_Tree_val@U?$_Tree_simple_types@U?$pair@$$CBHPAVCGraphicImage@@@std@@@std@@@1@@Z ; std::_Tree_const_iterator<std::_Tree_val<std::_Tree_simple_types<std::pair<int const ,CGraphicImage *> > > >::_Tree_const_iterator<std::_Tree_val<std::_Tree_simple_types<std::pair<int const ,CGraphicImage *> > > >
PUBLIC	??0?$_Tree_iterator@V?$_Tree_val@U?$_Tree_simple_types@U?$pair@$$CBHPAVCGraphicImage@@@std@@@std@@@std@@@std@@QAE@PAU?$_Tree_node@U?$pair@$$CBHPAVCGraphicImage@@@std@@PAX@1@PBV?$_Tree_val@U?$_Tree_simple_types@U?$pair@$$CBHPAVCGraphicImage@@@std@@@std@@@1@@Z ; std::_Tree_iterator<std::_Tree_val<std::_Tree_simple_types<std::pair<int const ,CGraphicImage *> > > >::_Tree_iterator<std::_Tree_val<std::_Tree_simple_types<std::pair<int const ,CGraphicImage *> > > >
PUBLIC	??A?$map@HPAVCGraphicImage@@U?$less@H@std@@V?$allocator@U?$pair@$$CBHPAVCGraphicImage@@@std@@@3@@std@@QAEAAPAVCGraphicImage@@ABH@Z ; std::map<int,CGraphicImage *,std::less<int>,std::allocator<std::pair<int const ,CGraphicImage *> > >::operator[]
PUBLIC	?InstancePtr@?$CSingleton@VCPythonPlayer@@@@SAPAVCPythonPlayer@@XZ ; CSingleton<CPythonPlayer>::InstancePtr
PUBLIC	?end@?$_Tree@V?$_Tmap_traits@HPAVCGraphicImage@@U?$less@H@std@@V?$allocator@U?$pair@$$CBHPAVCGraphicImage@@@std@@@3@$0A@@std@@@std@@QAE?AV?$_Tree_iterator@V?$_Tree_val@U?$_Tree_simple_types@U?$pair@$$CBHPAVCGraphicImage@@@std@@@std@@@std@@@2@XZ ; std::_Tree<std::_Tmap_traits<int,CGraphicImage *,std::less<int>,std::allocator<std::pair<int const ,CGraphicImage *> >,0> >::end
PUBLIC	?find@?$_Tree@V?$_Tmap_traits@HPAVCGraphicImage@@U?$less@H@std@@V?$allocator@U?$pair@$$CBHPAVCGraphicImage@@@std@@@3@$0A@@std@@@std@@QAE?AV?$_Tree_iterator@V?$_Tree_val@U?$_Tree_simple_types@U?$pair@$$CBHPAVCGraphicImage@@@std@@@std@@@std@@@2@ABH@Z ; std::_Tree<std::_Tmap_traits<int,CGraphicImage *,std::less<int>,std::allocator<std::pair<int const ,CGraphicImage *> >,0> >::find
PUBLIC	??8?$_Tree_const_iterator@V?$_Tree_val@U?$_Tree_simple_types@U?$pair@$$CBHPAVCGraphicImage@@@std@@@std@@@std@@@std@@QBE_NABV01@@Z ; std::_Tree_const_iterator<std::_Tree_val<std::_Tree_simple_types<std::pair<int const ,CGraphicImage *> > > >::operator==
PUBLIC	??$insert@U?$pair@HPAVCGraphicImage@@@std@@$0A@@?$map@HPAVCGraphicImage@@U?$less@H@std@@V?$allocator@U?$pair@$$CBHPAVCGraphicImage@@@std@@@3@@std@@QAE?AU?$pair@V?$_Tree_iterator@V?$_Tree_val@U?$_Tree_simple_types@U?$pair@$$CBHPAVCGraphicImage@@@std@@@std@@@std@@@std@@_N@1@$$QAU?$pair@HPAVCGraphicImage@@@1@@Z ; std::map<int,CGraphicImage *,std::less<int>,std::allocator<std::pair<int const ,CGraphicImage *> > >::insert<std::pair<int,CGraphicImage *>,0>
PUBLIC	??$make_pair@AAHAAPAVCGraphicImage@@@std@@YA?AU?$pair@HPAVCGraphicImage@@@0@AAHAAPAVCGraphicImage@@@Z ; std::make_pair<int &,CGraphicImage * &>
PUBLIC	?initPlayer@@YAXXZ				; initPlayer
PUBLIC	?playerGetChangeChangeLookPrice@@YAPAU_object@@PAU1@0@Z ; playerGetChangeChangeLookPrice
PUBLIC	?playerGetChangeWIndowChangeLookVnum@@YAPAU_object@@PAU1@0@Z ; playerGetChangeWIndowChangeLookVnum
PUBLIC	?playerCanChangeLookClearItem@@YAPAU_object@@PAU1@0@Z ; playerCanChangeLookClearItem
PUBLIC	?playerGetChangeLookFreeYangInvenSlotPos@@YAPAU_object@@PAU1@0@Z ; playerGetChangeLookFreeYangInvenSlotPos
PUBLIC	?playerGetChangeLookFreeYangItemID@@YAPAU_object@@PAU1@0@Z ; playerGetChangeLookFreeYangItemID
PUBLIC	?playerGetChangeLookItemInvenSlot@@YAPAU_object@@PAU1@0@Z ; playerGetChangeLookItemInvenSlot
PUBLIC	?playerGetChangeLookItemID@@YAPAU_object@@PAU1@0@Z ; playerGetChangeLookItemID
PUBLIC	?playerSetChangeLookWindowType@@YAPAU_object@@PAU1@0@Z ; playerSetChangeLookWindowType
PUBLIC	?playerGetChangeLookWindowOpen@@YAPAU_object@@PAU1@0@Z ; playerGetChangeLookWindowOpen
PUBLIC	?playerSetChangeLookWindow@@YAPAU_object@@PAU1@0@Z ; playerSetChangeLookWindow
PUBLIC	?playerGetChangeLookVnum@@YAPAU_object@@PAU1@0@Z ; playerGetChangeLookVnum
PUBLIC	?playerLoadNewRegen@@YAPAU_object@@PAU1@0@Z	; playerLoadNewRegen
PUBLIC	?playerCanUseGrowthPetQuickSlot@@YAPAU_object@@PAU1@0@Z ; playerCanUseGrowthPetQuickSlot
PUBLIC	?playerGetPetLifeTime@@YAPAU_object@@PAU1@0@Z	; playerGetPetLifeTime
PUBLIC	?playerGetPetItem@@YAPAU_object@@PAU1@0@Z	; playerGetPetItem
PUBLIC	?playerGetPetExpPoints@@YAPAU_object@@PAU1@0@Z	; playerGetPetExpPoints
PUBLIC	?playerGetActivePetItemVNum@@YAPAU_object@@PAU1@0@Z ; playerGetActivePetItemVNum
PUBLIC	?playerGetPetSkillByIndex@@YAPAU_object@@PAU1@0@Z ; playerGetPetSkillByIndex
PUBLIC	?playerGetPetSkill@@YAPAU_object@@PAU1@0@Z	; playerGetPetSkill
PUBLIC	?playerGetPetItemVNumInBag@@YAPAU_object@@PAU1@0@Z ; playerGetPetItemVNumInBag
PUBLIC	?playerGetActivePetItemId@@YAPAU_object@@PAU1@0@Z ; playerGetActivePetItemId
PUBLIC	?playerIsOpenMall@@YAPAU_object@@PAU1@0@Z	; playerIsOpenMall
PUBLIC	?playerSetOpenSafeBox@@YAPAU_object@@PAU1@0@Z	; playerSetOpenSafeBox
PUBLIC	?playerSetOpenMall@@YAPAU_object@@PAU1@0@Z	; playerSetOpenMall
PUBLIC	?playerIsOpenPetFeedWindow@@YAPAU_object@@PAU1@0@Z ; playerIsOpenPetFeedWindow
PUBLIC	?playerIsOpenPetNameChangeWindow@@YAPAU_object@@PAU1@0@Z ; playerIsOpenPetNameChangeWindow
PUBLIC	?playerIsOpenPetHatchingWindow@@YAPAU_object@@PAU1@0@Z ; playerIsOpenPetHatchingWindow
PUBLIC	?playerSetOpenPetFeedWindow@@YAPAU_object@@PAU1@0@Z ; playerSetOpenPetFeedWindow
PUBLIC	?playerSetOpenPetNameChangeWindow@@YAPAU_object@@PAU1@0@Z ; playerSetOpenPetNameChangeWindow
PUBLIC	?playerSetOpenPetHatchingWindow@@YAPAU_object@@PAU1@0@Z ; playerSetOpenPetHatchingWindow
PUBLIC	?playerGetAuraRefineInfoLevel@@YAPAU_object@@PAU1@0@Z ; playerGetAuraRefineInfoLevel
PUBLIC	?playerGetAuraRefineInfoExpPer@@YAPAU_object@@PAU1@0@Z ; playerGetAuraRefineInfoExpPer
PUBLIC	?playerGetAuraRefineInfo@@YAPAU_object@@PAU1@0@Z ; playerGetAuraRefineInfo
PUBLIC	?playerFindUsingAuraSlot@@YAPAU_object@@PAU1@0@Z ; playerFindUsingAuraSlot
PUBLIC	?playerFindActivatedAuraSlot@@YAPAU_object@@PAU1@0@Z ; playerFindActivatedAuraSlot
PUBLIC	?playerSetAuraActivatedItemSlot@@YAPAU_object@@PAU1@0@Z ; playerSetAuraActivatedItemSlot
PUBLIC	?playerFineMoveAuraItemSlot@@YAPAU_object@@PAU1@0@Z ; playerFineMoveAuraItemSlot
PUBLIC	?playerGetAuraRefineWindowType@@YAPAU_object@@PAU1@0@Z ; playerGetAuraRefineWindowType
PUBLIC	?playerIsAuraRefineWindowOpen@@YAPAU_object@@PAU1@0@Z ; playerIsAuraRefineWindowOpen
PUBLIC	?playerGetAuraCurrentItemSlotCount@@YAPAU_object@@PAU1@0@Z ; playerGetAuraCurrentItemSlotCount
PUBLIC	?playerIsAuraRefineWindowEmpty@@YAPAU_object@@PAU1@0@Z ; playerIsAuraRefineWindowEmpty
PUBLIC	?playerGetAuraItemAttribute@@YAPAU_object@@PAU1@0@Z ; playerGetAuraItemAttribute
PUBLIC	?playerGetAuraItemMetinSocket@@YAPAU_object@@PAU1@0@Z ; playerGetAuraItemMetinSocket
PUBLIC	?playerGetAuraItemCount@@YAPAU_object@@PAU1@0@Z	; playerGetAuraItemCount
PUBLIC	?playerGetAuraItemID@@YAPAU_object@@PAU1@0@Z	; playerGetAuraItemID
PUBLIC	?playerGetSkillColor@@YAPAU_object@@PAU1@0@Z	; playerGetSkillColor
PUBLIC	?playerSetSkillColor@@YAPAU_object@@PAU1@0@Z	; playerSetSkillColor
PUBLIC	?playerGetPremiumBattlePassID@@YAPAU_object@@PAU1@0@Z ; playerGetPremiumBattlePassID
PUBLIC	?playerCanInteract@@YAPAU_object@@PAU1@0@Z	; playerCanInteract
PUBLIC	?playerGetItemSlotIndex@@YAPAU_object@@PAU1@0@Z	; playerGetItemSlotIndex
PUBLIC	?playerGetMainCharacterPart@@YAPAU_object@@PAU1@0@Z ; playerGetMainCharacterPart
PUBLIC	?playerNPOS@@YAPAU_object@@PAU1@0@Z		; playerNPOS
PUBLIC	?playerClearAutoAttackTargetActorID@@YAPAU_object@@PAU1@0@Z ; playerClearAutoAttackTargetActorID
PUBLIC	?playerSendDragonSoulRefine@@YAPAU_object@@PAU1@0@Z ; playerSendDragonSoulRefine
PUBLIC	?playerIsAvailableBeltInventoryCell@@YAPAU_object@@PAU1@0@Z ; playerIsAvailableBeltInventoryCell
PUBLIC	?playerIsEquippingBelt@@YAPAU_object@@PAU1@0@Z	; playerIsEquippingBelt
PUBLIC	?playerSlotTypeToInvenType@@YAPAU_object@@PAU1@0@Z ; playerSlotTypeToInvenType
PUBLIC	?playerGetAutoPotionInfo@@YAPAU_object@@PAU1@0@Z ; playerGetAutoPotionInfo
PUBLIC	?playerSetAutoPotionInfo@@YAPAU_object@@PAU1@0@Z ; playerSetAutoPotionInfo
PUBLIC	?playerSetItemAttribute@@YAPAU_object@@PAU1@0@Z	; playerSetItemAttribute
PUBLIC	?playerSetItemMetinSocket@@YAPAU_object@@PAU1@0@Z ; playerSetItemMetinSocket
PUBLIC	?playerSetItemData@@YAPAU_object@@PAU1@0@Z	; playerSetItemData
PUBLIC	?playerGetEmotionIconImage@@YAPAU_object@@PAU1@0@Z ; playerGetEmotionIconImage
PUBLIC	?playerRegisterEmotionIcon@@YAPAU_object@@PAU1@0@Z ; playerRegisterEmotionIcon
PUBLIC	?playerGetTargetVID@@YAPAU_object@@PAU1@0@Z	; playerGetTargetVID
PUBLIC	?playerToggleLevelLimit@@YAPAU_object@@PAU1@0@Z	; playerToggleLevelLimit
PUBLIC	?playerToggleCoolTime@@YAPAU_object@@PAU1@0@Z	; playerToggleCoolTime
PUBLIC	?playerSetWeaponAttackBonusFlag@@YAPAU_object@@PAU1@0@Z ; playerSetWeaponAttackBonusFlag
PUBLIC	?playerGetPKMode@@YAPAU_object@@PAU1@0@Z	; playerGetPKMode
PUBLIC	?playerExitParty@@YAPAU_object@@PAU1@0@Z	; playerExitParty
PUBLIC	?playerRemovePartyMember@@YAPAU_object@@PAU1@0@Z ; playerRemovePartyMember
PUBLIC	?playerGetPartyMemberAffects@@YAPAU_object@@PAU1@0@Z ; playerGetPartyMemberAffects
PUBLIC	?playerGetPartyMemberState@@YAPAU_object@@PAU1@0@Z ; playerGetPartyMemberState
PUBLIC	?playerGetPartyMemberHPPercentage@@YAPAU_object@@PAU1@0@Z ; playerGetPartyMemberHPPercentage
PUBLIC	?playerIsPartyLeaderByPID@@YAPAU_object@@PAU1@0@Z ; playerIsPartyLeaderByPID
PUBLIC	?playerIsPartyLeader@@YAPAU_object@@PAU1@0@Z	; playerIsPartyLeader
PUBLIC	?playerIsPartyMember@@YAPAU_object@@PAU1@0@Z	; playerIsPartyMember
PUBLIC	?playerOpenCharacterMenu@@YAPAU_object@@PAU1@0@Z ; playerOpenCharacterMenu
PUBLIC	?playerSetTarget@@YAPAU_object@@PAU1@0@Z	; playerSetTarget
PUBLIC	?playerClearTarget@@YAPAU_object@@PAU1@0@Z	; playerClearTarget
PUBLIC	?playerClear@@YAPAU_object@@PAU1@0@Z		; playerClear
PUBLIC	?playerRender@@YAPAU_object@@PAU1@0@Z		; playerRender
PUBLIC	?playerUpdate@@YAPAU_object@@PAU1@0@Z		; playerUpdate
PUBLIC	?playerIsRefineGradeScroll@@YAPAU_object@@PAU1@0@Z ; playerIsRefineGradeScroll
PUBLIC	?playerCanUnlock@@YAPAU_object@@PAU1@0@Z	; playerCanUnlock
PUBLIC	?playerCanDetach@@YAPAU_object@@PAU1@0@Z	; playerCanDetach
PUBLIC	?playerCanAttachMetin@@YAPAU_object@@PAU1@0@Z	; playerCanAttachMetin
PUBLIC	?playerCanRefine@@YAPAU_object@@PAU1@0@Z	; playerCanRefine
PUBLIC	?playerGetItemGrade@@YAPAU_object@@PAU1@0@Z	; playerGetItemGrade
PUBLIC	?GetItemGrade@@YAHPBD@Z				; GetItemGrade
PUBLIC	?playerIsValuableItem@@YAPAU_object@@PAU1@0@Z	; playerIsValuableItem
PUBLIC	?playerIsOpenPrivateShop@@YAPAU_object@@PAU1@0@Z ; playerIsOpenPrivateShop
PUBLIC	?playerIsCostumeSlot@@YAPAU_object@@PAU1@0@Z	; playerIsCostumeSlot
PUBLIC	?playerIsDSEquipmentSlot@@YAPAU_object@@PAU1@0@Z ; playerIsDSEquipmentSlot
PUBLIC	?playerIsEquipmentSlot@@YAPAU_object@@PAU1@0@Z	; playerIsEquipmentSlot
PUBLIC	?playerIsChangersInventorySlot@@YAPAU_object@@PAU1@0@Z ; playerIsChangersInventorySlot
PUBLIC	?playerIsGiftBoxInventorySlot@@YAPAU_object@@PAU1@0@Z ; playerIsGiftBoxInventorySlot
PUBLIC	?playerIsStoneInventorySlot@@YAPAU_object@@PAU1@0@Z ; playerIsStoneInventorySlot
PUBLIC	?playerIsUpgradeItemsInventorySlot@@YAPAU_object@@PAU1@0@Z ; playerIsUpgradeItemsInventorySlot
PUBLIC	?playerIsSkillBookInventorySlot@@YAPAU_object@@PAU1@0@Z ; playerIsSkillBookInventorySlot
PUBLIC	?playerIsBeltInventorySlot@@YAPAU_object@@PAU1@0@Z ; playerIsBeltInventorySlot
PUBLIC	?playerisItem@@YAPAU_object@@PAU1@0@Z		; playerisItem
PUBLIC	?playerRemoveQuickSlotByValue@@YAPAU_object@@PAU1@0@Z ; playerRemoveQuickSlotByValue
PUBLIC	?playerRequestUseLocalQuickSlot@@YAPAU_object@@PAU1@0@Z ; playerRequestUseLocalQuickSlot
PUBLIC	?playerRequestMoveGlobalQuickSlotToLocalQuickSlot@@YAPAU_object@@PAU1@0@Z ; playerRequestMoveGlobalQuickSlotToLocalQuickSlot
PUBLIC	?playerRequestDeleteGlobalQuickSlot@@YAPAU_object@@PAU1@0@Z ; playerRequestDeleteGlobalQuickSlot
PUBLIC	?playerRequestAddToEmptyLocalQuickSlot@@YAPAU_object@@PAU1@0@Z ; playerRequestAddToEmptyLocalQuickSlot
PUBLIC	?playerRequestAddLocalQuickSlot@@YAPAU_object@@PAU1@0@Z ; playerRequestAddLocalQuickSlot
PUBLIC	?playerGetGlobalQuickSlot@@YAPAU_object@@PAU1@0@Z ; playerGetGlobalQuickSlot
PUBLIC	?playerGetLocalQuickSlot@@YAPAU_object@@PAU1@0@Z ; playerGetLocalQuickSlot
PUBLIC	?playerLocalQuickSlotIndexToGlobalQuickSlotIndex@@YAPAU_object@@PAU1@0@Z ; playerLocalQuickSlotIndexToGlobalQuickSlotIndex
PUBLIC	?playerSetQuickPage@@YAPAU_object@@PAU1@0@Z	; playerSetQuickPage
PUBLIC	?playerGetQuickPage@@YAPAU_object@@PAU1@0@Z	; playerGetQuickPage
PUBLIC	?playerGetISellItemPrice@@YAPAU_object@@PAU1@0@Z ; playerGetISellItemPrice
PUBLIC	?playerGetItemLink@@YAPAU_object@@PAU1@0@Z	; playerGetItemLink
PUBLIC	?playerGetItemAttribute@@YAPAU_object@@PAU1@0@Z	; playerGetItemAttribute
PUBLIC	?playerGetItemMetinSocket@@YAPAU_object@@PAU1@0@Z ; playerGetItemMetinSocket
PUBLIC	?playerGetItemCountByVnum@@YAPAU_object@@PAU1@0@Z ; playerGetItemCountByVnum
PUBLIC	?playerSetItemCount@@YAPAU_object@@PAU1@0@Z	; playerSetItemCount
PUBLIC	?playerGetItemCount@@YAPAU_object@@PAU1@0@Z	; playerGetItemCount
PUBLIC	?playerGetItemFlags@@YAPAU_object@@PAU1@0@Z	; playerGetItemFlags
PUBLIC	?playerGetItemIndex@@YAPAU_object@@PAU1@0@Z	; playerGetItemIndex
PUBLIC	?playerSendClickItemPacket@@YAPAU_object@@PAU1@0@Z ; playerSendClickItemPacket
PUBLIC	?playerMoveItem@@YAPAU_object@@PAU1@0@Z		; playerMoveItem
PUBLIC	?playerDisableToggleSkill@@YAPAU_object@@PAU1@0@Z ; playerDisableToggleSkill
PUBLIC	?playerClearSkillDict@@YAPAU_object@@PAU1@0@Z	; playerClearSkillDict
PUBLIC	?playerChangeCurrentSkillNumberOnly@@YAPAU_object@@PAU1@0@Z ; playerChangeCurrentSkillNumberOnly
PUBLIC	?playerClickSkillSlot@@YAPAU_object@@PAU1@0@Z	; playerClickSkillSlot
PUBLIC	?playerGetSkillNextEfficientPercentage@@YAPAU_object@@PAU1@0@Z ; playerGetSkillNextEfficientPercentage
PUBLIC	?playerGetSkillCurrentEfficientPercentage@@YAPAU_object@@PAU1@0@Z ; playerGetSkillCurrentEfficientPercentage
PUBLIC	?playerGetSkillLevel@@YAPAU_object@@PAU1@0@Z	; playerGetSkillLevel
PUBLIC	?playerGetSkillGrade@@YAPAU_object@@PAU1@0@Z	; playerGetSkillGrade
PUBLIC	?playerGetSkillSlotIndex@@YAPAU_object@@PAU1@0@Z ; playerGetSkillSlotIndex
PUBLIC	?playerGetSkillIndex@@YAPAU_object@@PAU1@0@Z	; playerGetSkillIndex
PUBLIC	?playerSetSkill@@YAPAU_object@@PAU1@0@Z		; playerSetSkill
PUBLIC	?playerGetAlignmentData@@YAPAU_object@@PAU1@0@Z	; playerGetAlignmentData
PUBLIC	?playerGetGuildName@@YAPAU_object@@PAU1@0@Z	; playerGetGuildName
PUBLIC	?playerGetGuildID@@YAPAU_object@@PAU1@0@Z	; playerGetGuildID
PUBLIC	?playerGetCoins@@YAPAU_object@@PAU1@0@Z		; playerGetCoins
PUBLIC	?playerGetElk@@YAPAU_object@@PAU1@0@Z		; playerGetElk
PUBLIC	?playerSetStatus@@YAPAU_object@@PAU1@0@Z	; playerSetStatus
PUBLIC	?playerGetStatus@@YAPAU_object@@PAU1@0@Z	; playerGetStatus
PUBLIC	?playerGetLevel@@YAPAU_object@@PAU1@0@Z		; playerGetLevel
PUBLIC	?playerGetEXP@@YAPAU_object@@PAU1@0@Z		; playerGetEXP
PUBLIC	?playerAffectIndexToSkillIndex@@YAPAU_object@@PAU1@0@Z ; playerAffectIndexToSkillIndex
PUBLIC	?playerUseGuildSkill@@YAPAU_object@@PAU1@0@Z	; playerUseGuildSkill
PUBLIC	?playerIsSkillActive@@YAPAU_object@@PAU1@0@Z	; playerIsSkillActive
PUBLIC	?playerGetSkillCoolTime@@YAPAU_object@@PAU1@0@Z	; playerGetSkillCoolTime
PUBLIC	?playerIsSameItemVnum@@YAPAU_object@@PAU1@0@Z	; playerIsSameItemVnum
PUBLIC	?playerGetItemSubTypeBySlot@@YAPAU_object@@PAU1@0@Z ; playerGetItemSubTypeBySlot
PUBLIC	?playerGetItemTypeBySlot@@YAPAU_object@@PAU1@0@Z ; playerGetItemTypeBySlot
PUBLIC	?playerIsAntiFlagBySlot@@YAPAU_object@@PAU1@0@Z	; playerIsAntiFlagBySlot
PUBLIC	?playerIsSkillCoolTime@@YAPAU_object@@PAU1@0@Z	; playerIsSkillCoolTime
PUBLIC	?playerSetPlayTime@@YAPAU_object@@PAU1@0@Z	; playerSetPlayTime
PUBLIC	?playerGetPlayTime@@YAPAU_object@@PAU1@0@Z	; playerGetPlayTime
PUBLIC	?playerGetJob@@YAPAU_object@@PAU1@0@Z		; playerGetJob
PUBLIC	?playerGetRace@@YAPAU_object@@PAU1@0@Z		; playerGetRace
PUBLIC	?playerGetName@@YAPAU_object@@PAU1@0@Z		; playerGetName
PUBLIC	?playerSetMouseMiddleButtonState@@YAPAU_object@@PAU1@0@Z ; playerSetMouseMiddleButtonState
PUBLIC	?playerGetMouseFunc@@YAPAU_object@@PAU1@0@Z	; playerGetMouseFunc
PUBLIC	?playerSetMouseFunc@@YAPAU_object@@PAU1@0@Z	; playerSetMouseFunc
PUBLIC	?playerSetMouseState@@YAPAU_object@@PAU1@0@Z	; playerSetMouseState
PUBLIC	?playerSetAutoCameraRotationSpeed@@YAPAU_object@@PAU1@0@Z ; playerSetAutoCameraRotationSpeed
PUBLIC	?playerResetCameraRotation@@YAPAU_object@@PAU1@0@Z ; playerResetCameraRotation
PUBLIC	?playerEndMouseWalking@@YAPAU_object@@PAU1@0@Z	; playerEndMouseWalking
PUBLIC	?playerStartMouseWalking@@YAPAU_object@@PAU1@0@Z ; playerStartMouseWalking
PUBLIC	?playerEndKeyWalkingImmediately@@YAPAU_object@@PAU1@0@Z ; playerEndKeyWalkingImmediately
PUBLIC	?playerSetSingleDIKKeyState@@YAPAU_object@@PAU1@0@Z ; playerSetSingleDIKKeyState
PUBLIC	?playerSetAttackKeyState@@YAPAU_object@@PAU1@0@Z ; playerSetAttackKeyState
PUBLIC	?playerRegisterCacheEffect@@YAPAU_object@@PAU1@0@Z ; playerRegisterCacheEffect
PUBLIC	?playerRegisterEffect@@YAPAU_object@@PAU1@0@Z	; playerRegisterEffect
PUBLIC	?playerComboAttack@@YAPAU_object@@PAU1@0@Z	; playerComboAttack
PUBLIC	?playerHidePlayer@@YAPAU_object@@PAU1@0@Z	; playerHidePlayer
PUBLIC	?playerShowPlayer@@YAPAU_object@@PAU1@0@Z	; playerShowPlayer
PUBLIC	?playerActEmotion@@YAPAU_object@@PAU1@0@Z	; playerActEmotion
PUBLIC	?playerIsObserverMode@@YAPAU_object@@PAU1@0@Z	; playerIsObserverMode
PUBLIC	?playerIsMountingHorse@@YAPAU_object@@PAU1@0@Z	; playerIsMountingHorse
PUBLIC	?playerIsInSafeArea@@YAPAU_object@@PAU1@0@Z	; playerIsInSafeArea
PUBLIC	?playerGetCharacterDistance@@YAPAU_object@@PAU1@0@Z ; playerGetCharacterDistance
PUBLIC	?playerIsCantFightInstance@@YAPAU_object@@PAU1@0@Z ; playerIsCantFightInstance
PUBLIC	?playerIsRevengeInstance@@YAPAU_object@@PAU1@0@Z ; playerIsRevengeInstance
PUBLIC	?playerIsChallengeInstance@@YAPAU_object@@PAU1@0@Z ; playerIsChallengeInstance
PUBLIC	?playerIsSameEmpire@@YAPAU_object@@PAU1@0@Z	; playerIsSameEmpire
PUBLIC	?playerIsPVPInstance@@YAPAU_object@@PAU1@0@Z	; playerIsPVPInstance
PUBLIC	?playerIsActingEmotion@@YAPAU_object@@PAU1@0@Z	; playerIsActingEmotion
PUBLIC	?playerCanAttackInstance@@YAPAU_object@@PAU1@0@Z ; playerCanAttackInstance
PUBLIC	?playerIsMainCharacterIndex@@YAPAU_object@@PAU1@0@Z ; playerIsMainCharacterIndex
PUBLIC	?playerGetMainCharacterPosition@@YAPAU_object@@PAU1@0@Z ; playerGetMainCharacterPosition
PUBLIC	?playerGetMainCharacterName@@YAPAU_object@@PAU1@0@Z ; playerGetMainCharacterName
PUBLIC	?playerGetMainCharacterIndex@@YAPAU_object@@PAU1@0@Z ; playerGetMainCharacterIndex
PUBLIC	?playerSetMainCharacterIndex@@YAPAU_object@@PAU1@0@Z ; playerSetMainCharacterIndex
PUBLIC	?playerSetQuickCameraMode@@YAPAU_object@@PAU1@0@Z ; playerSetQuickCameraMode
PUBLIC	?playerSetGameWindow@@YAPAU_object@@PAU1@0@Z	; playerSetGameWindow
PUBLIC	?playerPickCloseItemAutoVector@@YAPAU_object@@PAU1@0@Z ; playerPickCloseItemAutoVector
PUBLIC	?playerPickCloseItemVector@@YAPAU_object@@PAU1@0@Z ; playerPickCloseItemVector
PUBLIC	?playerPickCloseItem@@YAPAU_object@@PAU1@0@Z	; playerPickCloseItem
PUBLIC	?IsAvailableCell@CBeltInventoryHelper@@SA_NGH@Z	; CBeltInventoryHelper::IsAvailableCell
PUBLIC	?GetAvailableRuleTableByGrade@CBeltInventoryHelper@@SAPBEXZ ; CBeltInventoryHelper::GetAvailableRuleTableByGrade
PUBLIC	?IsOpenMall@CPythonPlayer@@QAE_NXZ		; CPythonPlayer::IsOpenMall
PUBLIC	?IsOpenPetFeedWindow@CPythonPlayer@@QAE_NXZ	; CPythonPlayer::IsOpenPetFeedWindow
PUBLIC	?IsOpenPetNameChangeWindow@CPythonPlayer@@QAE_NXZ ; CPythonPlayer::IsOpenPetNameChangeWindow
PUBLIC	?IsOpenPetHatchingWindow@CPythonPlayer@@QAE_NXZ	; CPythonPlayer::IsOpenPetHatchingWindow
PUBLIC	?SetOpenMall@CPythonPlayer@@QAEX_N@Z		; CPythonPlayer::SetOpenMall
PUBLIC	?SetOpenSafeBox@CPythonPlayer@@QAEX_N@Z		; CPythonPlayer::SetOpenSafeBox
PUBLIC	?SetOpenPetFeedWindow@CPythonPlayer@@QAEX_N@Z	; CPythonPlayer::SetOpenPetFeedWindow
PUBLIC	?SetOpenPetNameChangeWindow@CPythonPlayer@@QAEX_N@Z ; CPythonPlayer::SetOpenPetNameChangeWindow
PUBLIC	?SetOpenPetHatchingWindow@CPythonPlayer@@QAEX_N@Z ; CPythonPlayer::SetOpenPetHatchingWindow
PUBLIC	?GetMaxDuration@SPetData@CPythonPlayer@@QAEKXZ	; CPythonPlayer::SPetData::GetMaxDuration
PUBLIC	?GetSkillCount@SPetData@CPythonPlayer@@QAEKXZ	; CPythonPlayer::SPetData::GetSkillCount
PUBLIC	?GetDef@SPetData@CPythonPlayer@@QAEKXZ		; CPythonPlayer::SPetData::GetDef
PUBLIC	?GetSP@SPetData@CPythonPlayer@@QAEKXZ		; CPythonPlayer::SPetData::GetSP
PUBLIC	?GetHP@SPetData@CPythonPlayer@@QAEKXZ		; CPythonPlayer::SPetData::GetHP
PUBLIC	?GetEvolution@SPetData@CPythonPlayer@@QAEKXZ	; CPythonPlayer::SPetData::GetEvolution
PUBLIC	?GetNextEXP@SPetData@CPythonPlayer@@QAEKXZ	; CPythonPlayer::SPetData::GetNextEXP
PUBLIC	?GetItemEXP@SPetData@CPythonPlayer@@QAEKXZ	; CPythonPlayer::SPetData::GetItemEXP
PUBLIC	?GetEXP@SPetData@CPythonPlayer@@QAEKXZ		; CPythonPlayer::SPetData::GetEXP
PUBLIC	?GetLevel@SPetData@CPythonPlayer@@QAEKXZ	; CPythonPlayer::SPetData::GetLevel
PUBLIC	?GetBirthday@SPetData@CPythonPlayer@@QAEJXZ	; CPythonPlayer::SPetData::GetBirthday
PUBLIC	?GetName@SPetData@CPythonPlayer@@QAE?AV?$basic_string@DU?$char_traits@D@std@@V?$allocator@D@2@@std@@XZ ; CPythonPlayer::SPetData::GetName
PUBLIC	?GetSummonItemVnum@SPetData@CPythonPlayer@@QAEKXZ ; CPythonPlayer::SPetData::GetSummonItemVnum
PUBLIC	?IsAuraRefineWindowOpen@CPythonPlayer@@QBE_NXZ	; CPythonPlayer::IsAuraRefineWindowOpen
PUBLIC	?GetAuraRefineWindowType@CPythonPlayer@@QBEEXZ	; CPythonPlayer::GetAuraRefineWindowType
PUBLIC	?GetAutoPotionInfo@CPythonPlayer@@QAEAAUSAutoPotionInfo@1@H@Z ; CPythonPlayer::GetAutoPotionInfo
?vecDropSoundFileName@@3V?$array@U?$pair@KV?$basic_string@DU?$char_traits@D@std@@V?$allocator@D@2@@std@@@std@@$04@std@@B DB 08cH DUP (?) ; vecDropSoundFileName
?vecEffectList@@3V?$vector@V?$tuple@IPBDPBD_N@std@@V?$allocator@V?$tuple@IPBDPBD_N@std@@@2@@std@@B DB 0cH DUP (?) ; vecEffectList
?characterNameColors@@3V?$map@EV?$array@E$02@std@@U?$less@E@2@V?$allocator@U?$pair@$$CBEV?$array@E$02@std@@@std@@@2@@std@@B DQ 01H DUP (?) ; characterNameColors
?characterTitleColors@@3V?$map@EV?$array@E$02@std@@U?$less@E@2@V?$allocator@U?$pair@$$CBEV?$array@E$02@std@@@std@@@2@@std@@B DQ 01H DUP (?) ; characterTitleColors
?characterTitleSystemColors@@3V?$map@EV?$array@E$02@std@@U?$less@E@2@V?$allocator@U?$pair@$$CBEV?$array@E$02@std@@@std@@@2@@std@@B DQ 01H DUP (?) ; characterTitleSystemColors
?emotionIcons@@3V?$map@EPBDU?$less@E@std@@V?$allocator@U?$pair@$$CBEPBD@std@@@2@@std@@B DQ 01H DUP (?) ; emotionIcons
?skillIndexes@@3V?$map@EV?$map@EV?$vector@EV?$allocator@E@std@@@std@@U?$less@E@2@V?$allocator@U?$pair@$$CBEV?$vector@EV?$allocator@E@std@@@std@@@std@@@2@@std@@U?$less@E@2@V?$allocator@U?$pair@$$CBEV?$map@EV?$vector@EV?$allocator@E@std@@@std@@U?$less@E@2@V?$allocator@U?$pair@$$CBEV?$vector@EV?$allocator@E@std@@@std@@@std@@@2@@std@@@std@@@2@@std@@B DQ 01H DUP (?) ; skillIndexes
?guildSkills@@3V?$map@V?$basic_string@DU?$char_traits@D@std@@V?$allocator@D@2@@std@@V?$vector@EV?$allocator@E@std@@@2@U?$less@V?$basic_string@DU?$char_traits@D@std@@V?$allocator@D@2@@std@@@2@V?$allocator@U?$pair@$$CBV?$basic_string@DU?$char_traits@D@std@@V?$allocator@D@2@@std@@V?$vector@EV?$allocator@E@std@@@2@@std@@@2@@std@@B DQ 01H DUP (?) ; guildSkills
_BSS	ENDS
;	COMDAT xdata$x
xdata$x	SEGMENT
__ehfuncinfo$??__EvecUseSoundFileName@@YAXXZ DQ 00000000619930522r ; 1.2944e-313
	DD	FLAT:__unwindtable$??__EvecUseSoundFileName@@YAXXZ
	DQ	00000000000000000r		; 0
	DQ	00000000000000000r		; 0
	DQ	00000000100000000r		; 2.122e-314
__unwindtable$??__EvecUseSoundFileName@@YAXXZ DD 0ffffffffH
	DD	FLAT:__unwindfunclet$??__EvecUseSoundFileName@@YAXXZ$0
	DD	00H
	DD	FLAT:__unwindfunclet$??__EvecUseSoundFileName@@YAXXZ$1
	DD	01H
	DD	FLAT:__unwindfunclet$??__EvecUseSoundFileName@@YAXXZ$2
	DD	02H
	DD	FLAT:__unwindfunclet$??__EvecUseSoundFileName@@YAXXZ$3
	DD	03H
	DD	FLAT:__unwindfunclet$??__EvecUseSoundFileName@@YAXXZ$4
	DD	04H
	DD	FLAT:__unwindfunclet$??__EvecUseSoundFileName@@YAXXZ$5
xdata$x	ENDS
;	COMDAT xdata$x
xdata$x	SEGMENT
__ehfuncinfo$??__FvecUseSoundFileName@@YAXXZ DQ 00000000119930522r ; 2.33398e-314
	DD	FLAT:__unwindtable$??__FvecUseSoundFileName@@YAXXZ
	DQ	00000000000000000r		; 0
	DQ	00000000000000000r		; 0
	DQ	00000000100000000r		; 2.122e-314
__unwindtable$??__FvecUseSoundFileName@@YAXXZ DD 0ffffffffH
	DD	FLAT:___std_terminate
xdata$x	ENDS
;	COMDAT xdata$x
xdata$x	SEGMENT
__ehfuncinfo$??__EvecDropSoundFileName@@YAXXZ DQ 00000000419930522r ; 8.69997e-314
	DD	FLAT:__unwindtable$??__EvecDropSoundFileName@@YAXXZ
	DQ	00000000000000000r		; 0
	DQ	00000000000000000r		; 0
	DQ	00000000100000000r		; 2.122e-314
__unwindtable$??__EvecDropSoundFileName@@YAXXZ DD 0ffffffffH
	DD	FLAT:__unwindfunclet$??__EvecDropSoundFileName@@YAXXZ$0
	DD	00H
	DD	FLAT:__unwindfunclet$??__EvecDropSoundFileName@@YAXXZ$1
	DD	01H
	DD	FLAT:__unwindfunclet$??__EvecDropSoundFileName@@YAXXZ$2
	DD	02H
	DD	FLAT:__unwindfunclet$??__EvecDropSoundFileName@@YAXXZ$3
xdata$x	ENDS
;	COMDAT xdata$x
xdata$x	SEGMENT
__ehfuncinfo$??__FvecDropSoundFileName@@YAXXZ DQ 00000000119930522r ; 2.33398e-314
	DD	FLAT:__unwindtable$??__FvecDropSoundFileName@@YAXXZ
	DQ	00000000000000000r		; 0
	DQ	00000000000000000r		; 0
	DQ	00000000100000000r		; 2.122e-314
__unwindtable$??__FvecDropSoundFileName@@YAXXZ DD 0ffffffffH
	DD	FLAT:___std_terminate
xdata$x	ENDS
;	COMDAT xdata$x
xdata$x	SEGMENT
__ehfuncinfo$??__EskillIndexes@@YAXXZ DQ 00000002819930522r ; 8.50918e-313
	DD	FLAT:__unwindtable$??__EskillIndexes@@YAXXZ
	DQ	00000000000000000r		; 0
	DQ	00000000000000000r		; 0
	DQ	00000000100000000r		; 2.122e-314
	ORG $+4
__unwindtable$??__EskillIndexes@@YAXXZ DD 0ffffffffH
	DD	FLAT:__unwindfunclet$??__EskillIndexes@@YAXXZ$0
	DD	00H
	DD	FLAT:__unwindfunclet$??__EskillIndexes@@YAXXZ$1
	DD	01H
	DD	FLAT:__unwindfunclet$??__EskillIndexes@@YAXXZ$2
	DD	00H
	DD	FLAT:__unwindfunclet$??__EskillIndexes@@YAXXZ$2
	DD	03H
	DD	FLAT:__unwindfunclet$??__EskillIndexes@@YAXXZ$4
	DD	04H
	DD	FLAT:__unwindfunclet$??__EskillIndexes@@YAXXZ$5
	DD	05H
	DD	FLAT:__unwindfunclet$??__EskillIndexes@@YAXXZ$6
	DD	06H
	DD	FLAT:__unwindfunclet$??__EskillIndexes@@YAXXZ$7
	DD	07H
	DD	FLAT:__unwindfunclet$??__EskillIndexes@@YAXXZ$8
	DD	08H
	DD	FLAT:__unwindfunclet$??__EskillIndexes@@YAXXZ$9
	DD	07H
	DD	FLAT:__unwindfunclet$??__EskillIndexes@@YAXXZ$9
	DD	0aH
	DD	FLAT:__unwindfunclet$??__EskillIndexes@@YAXXZ$11
	DD	0bH
	DD	FLAT:__unwindfunclet$??__EskillIndexes@@YAXXZ$12
	DD	0cH
	DD	FLAT:__unwindfunclet$??__EskillIndexes@@YAXXZ$13
	DD	0dH
	DD	FLAT:__unwindfunclet$??__EskillIndexes@@YAXXZ$14
	DD	0eH
	DD	FLAT:__unwindfunclet$??__EskillIndexes@@YAXXZ$15
	DD	0fH
	DD	FLAT:__unwindfunclet$??__EskillIndexes@@YAXXZ$16
	DD	0eH
	DD	FLAT:__unwindfunclet$??__EskillIndexes@@YAXXZ$16
	DD	011H
	DD	FLAT:__unwindfunclet$??__EskillIndexes@@YAXXZ$18
	DD	012H
	DD	FLAT:__unwindfunclet$??__EskillIndexes@@YAXXZ$19
	DD	013H
	DD	FLAT:__unwindfunclet$??__EskillIndexes@@YAXXZ$20
	DD	014H
	DD	FLAT:__unwindfunclet$??__EskillIndexes@@YAXXZ$21
	DD	015H
	DD	FLAT:__unwindfunclet$??__EskillIndexes@@YAXXZ$22
	DD	016H
	DD	FLAT:__unwindfunclet$??__EskillIndexes@@YAXXZ$23
	DD	015H
	DD	FLAT:__unwindfunclet$??__EskillIndexes@@YAXXZ$23
	DD	018H
	DD	FLAT:__unwindfunclet$??__EskillIndexes@@YAXXZ$25
	DD	019H
	DD	FLAT:__unwindfunclet$??__EskillIndexes@@YAXXZ$26
	DD	05H
	DD	FLAT:__unwindfunclet$??__EskillIndexes@@YAXXZ$7
	DD	01bH
	DD	FLAT:__unwindfunclet$??__EskillIndexes@@YAXXZ$9
	DD	01cH
	DD	FLAT:__unwindfunclet$??__EskillIndexes@@YAXXZ$11
	DD	01dH
	DD	FLAT:__unwindfunclet$??__EskillIndexes@@YAXXZ$12
	DD	01eH
	DD	FLAT:__unwindfunclet$??__EskillIndexes@@YAXXZ$14
	DD	01fH
	DD	FLAT:__unwindfunclet$??__EskillIndexes@@YAXXZ$16
	DD	020H
	DD	FLAT:__unwindfunclet$??__EskillIndexes@@YAXXZ$18
	DD	021H
	DD	FLAT:__unwindfunclet$??__EskillIndexes@@YAXXZ$19
	DD	022H
	DD	FLAT:__unwindfunclet$??__EskillIndexes@@YAXXZ$21
	DD	023H
	DD	FLAT:__unwindfunclet$??__EskillIndexes@@YAXXZ$23
	DD	024H
	DD	FLAT:__unwindfunclet$??__EskillIndexes@@YAXXZ$25
	DD	025H
	DD	FLAT:__unwindfunclet$??__EskillIndexes@@YAXXZ$26
	DD	026H
	DD	FLAT:__unwindfunclet$??__EskillIndexes@@YAXXZ$28
xdata$x	ENDS
;	COMDAT xdata$x
xdata$x	SEGMENT
__ehfuncinfo$??__EguildSkills@@YAXXZ DQ 00000000a19930522r ; 2.14319e-313
	DD	FLAT:__unwindtable$??__EguildSkills@@YAXXZ
	DQ	00000000000000000r		; 0
	DQ	00000000000000000r		; 0
	DQ	00000000100000000r		; 2.122e-314
	ORG $+4
__unwindtable$??__EguildSkills@@YAXXZ DD 0ffffffffH
	DD	FLAT:__unwindfunclet$??__EguildSkills@@YAXXZ$0
	DD	00H
	DD	FLAT:__unwindfunclet$??__EguildSkills@@YAXXZ$1
	DD	01H
	DD	FLAT:__unwindfunclet$??__EguildSkills@@YAXXZ$10
	DD	01H
	DD	FLAT:__unwindfunclet$??__EguildSkills@@YAXXZ$2
	DD	03H
	DD	FLAT:__unwindfunclet$??__EguildSkills@@YAXXZ$3
	DD	04H
	DD	FLAT:__unwindfunclet$??__EguildSkills@@YAXXZ$4
	DD	05H
	DD	FLAT:__unwindfunclet$??__EguildSkills@@YAXXZ$16
	DD	01H
	DD	FLAT:__unwindfunclet$??__EguildSkills@@YAXXZ$3
	DD	07H
	DD	FLAT:__unwindfunclet$??__EguildSkills@@YAXXZ$4
	DD	08H
	DD	FLAT:__unwindfunclet$??__EguildSkills@@YAXXZ$6
xdata$x	ENDS
;	COMDAT xdata$x
xdata$x	SEGMENT
__ehfuncinfo$?playerGetGuildName@@YAPAU_object@@PAU1@0@Z DD 019930522H
	DD	01H
	DD	FLAT:__unwindtable$?playerGetGuildName@@YAPAU_object@@PAU1@0@Z
	DD	2 DUP(00H)
	DD	2 DUP(00H)
	DD	00H
	DD	01H
__unwindtable$?playerGetGuildName@@YAPAU_object@@PAU1@0@Z DD 0ffffffffH
	DD	FLAT:__unwindfunclet$?playerGetGuildName@@YAPAU_object@@PAU1@0@Z$0
xdata$x	ENDS
;	COMDAT xdata$x
xdata$x	SEGMENT
__ehfuncinfo$?playerRegisterEmotionIcon@@YAPAU_object@@PAU1@0@Z DQ 00000000119930522r ; 2.33398e-314
	DD	FLAT:__unwindtable$?playerRegisterEmotionIcon@@YAPAU_object@@PAU1@0@Z
	DQ	00000000000000000r		; 0
	DQ	00000000000000000r		; 0
	DQ	00000000100000000r		; 2.122e-314
__unwindtable$?playerRegisterEmotionIcon@@YAPAU_object@@PAU1@0@Z DD 0ffffffffH
	DD	FLAT:__unwindfunclet$?playerRegisterEmotionIcon@@YAPAU_object@@PAU1@0@Z$2
xdata$x	ENDS
;	COMDAT xdata$x
xdata$x	SEGMENT
__ehfuncinfo$??$insert@U?$pair@HPAVCGraphicImage@@@std@@$0A@@?$map@HPAVCGraphicImage@@U?$less@H@std@@V?$allocator@U?$pair@$$CBHPAVCGraphicImage@@@std@@@3@@std@@QAE?AU?$pair@V?$_Tree_iterator@V?$_Tree_val@U?$_Tree_simple_types@U?$pair@$$CBHPAVCGraphicImage@@@std@@@std@@@std@@@std@@_N@1@$$QAU?$pair@HPAVCGraphicImage@@@1@@Z DQ 00000000119930522r ; 2.33398e-314
	DD	FLAT:__unwindtable$??$insert@U?$pair@HPAVCGraphicImage@@@std@@$0A@@?$map@HPAVCGraphicImage@@U?$less@H@std@@V?$allocator@U?$pair@$$CBHPAVCGraphicImage@@@std@@@3@@std@@QAE?AU?$pair@V?$_Tree_iterator@V?$_Tree_val@U?$_Tree_simple_types@U?$pair@$$CBHPAVCGraphicImage@@@std@@@std@@@std@@@std@@_N@1@$$QAU?$pair@HPAVCGraphicImage@@@1@@Z
	DQ	00000000000000000r		; 0
	DQ	00000000000000000r		; 0
	DQ	00000000100000000r		; 2.122e-314
__unwindtable$??$insert@U?$pair@HPAVCGraphicImage@@@std@@$0A@@?$map@HPAVCGraphicImage@@U?$less@H@std@@V?$allocator@U?$pair@$$CBHPAVCGraphicImage@@@std@@@3@@std@@QAE?AU?$pair@V?$_Tree_iterator@V?$_Tree_val@U?$_Tree_simple_types@U?$pair@$$CBHPAVCGraphicImage@@@std@@@std@@@std@@@std@@_N@1@$$QAU?$pair@HPAVCGraphicImage@@@1@@Z DD 0ffffffffH
	DD	FLAT:__unwindfunclet$??$insert@U?$pair@HPAVCGraphicImage@@@std@@$0A@@?$map@HPAVCGraphicImage@@U?$less@H@std@@V?$allocator@U?$pair@$$CBHPAVCGraphicImage@@@std@@@3@@std@@QAE?AU?$pair@V?$_Tree_iterator@V?$_Tree_val@U?$_Tree_simple_types@U?$pair@$$CBHPAVCGraphicImage@@@std@@@std@@@std@@@std@@_N@1@$$QAU?$pair@HPAVCGraphicImage@@@1@@Z$2
xdata$x	ENDS
;	COMDAT xdata$x
xdata$x	SEGMENT
__ehfuncinfo$??A?$map@HPAVCGraphicImage@@U?$less@H@std@@V?$allocator@U?$pair@$$CBHPAVCGraphicImage@@@std@@@3@@std@@QAEAAPAVCGraphicImage@@ABH@Z DQ 00000000119930522r ; 2.33398e-314
	DD	FLAT:__unwindtable$??A?$map@HPAVCGraphicImage@@U?$less@H@std@@V?$allocator@U?$pair@$$CBHPAVCGraphicImage@@@std@@@3@@std@@QAEAAPAVCGraphicImage@@ABH@Z
	DQ	00000000000000000r		; 0
	DQ	00000000000000000r		; 0
	DQ	00000000100000000r		; 2.122e-314
__unwindtable$??A?$map@HPAVCGraphicImage@@U?$less@H@std@@V?$allocator@U?$pair@$$CBHPAVCGraphicImage@@@std@@@3@@std@@QAEAAPAVCGraphicImage@@ABH@Z DD 0ffffffffH
	DD	FLAT:__unwindfunclet$??A?$map@HPAVCGraphicImage@@U?$less@H@std@@V?$allocator@U?$pair@$$CBHPAVCGraphicImage@@@std@@@3@@std@@QAEAAPAVCGraphicImage@@ABH@Z$2
xdata$x	ENDS
;	COMDAT xdata$x
xdata$x	SEGMENT
__ehfuncinfo$??$emplace@U?$pair@HPAVCGraphicImage@@@std@@@?$_Tree@V?$_Tmap_traits@HPAVCGraphicImage@@U?$less@H@std@@V?$allocator@U?$pair@$$CBHPAVCGraphicImage@@@std@@@3@$0A@@std@@@std@@QAE?AU?$pair@V?$_Tree_iterator@V?$_Tree_val@U?$_Tree_simple_types@U?$pair@$$CBHPAVCGraphicImage@@@std@@@std@@@std@@@std@@_N@1@$$QAU?$pair@HPAVCGraphicImage@@@1@@Z DQ 00000000119930522r ; 2.33398e-314
	DD	FLAT:__unwindtable$??$emplace@U?$pair@HPAVCGraphicImage@@@std@@@?$_Tree@V?$_Tmap_traits@HPAVCGraphicImage@@U?$less@H@std@@V?$allocator@U?$pair@$$CBHPAVCGraphicImage@@@std@@@3@$0A@@std@@@std@@QAE?AU?$pair@V?$_Tree_iterator@V?$_Tree_val@U?$_Tree_simple_types@U?$pair@$$CBHPAVCGraphicImage@@@std@@@std@@@std@@@std@@_N@1@$$QAU?$pair@HPAVCGraphicImage@@@1@@Z
	DQ	00000000000000000r		; 0
	DQ	00000000000000000r		; 0
	DQ	00000000100000000r		; 2.122e-314
__unwindtable$??$emplace@U?$pair@HPAVCGraphicImage@@@std@@@?$_Tree@V?$_Tmap_traits@HPAVCGraphicImage@@U?$less@H@std@@V?$allocator@U?$pair@$$CBHPAVCGraphicImage@@@std@@@3@$0A@@std@@@std@@QAE?AU?$pair@V?$_Tree_iterator@V?$_Tree_val@U?$_Tree_simple_types@U?$pair@$$CBHPAVCGraphicImage@@@std@@@std@@@std@@@std@@_N@1@$$QAU?$pair@HPAVCGraphicImage@@@1@@Z DD 0ffffffffH
	DD	FLAT:__unwindfunclet$??$emplace@U?$pair@HPAVCGraphicImage@@@std@@@?$_Tree@V?$_Tmap_traits@HPAVCGraphicImage@@U?$less@H@std@@V?$allocator@U?$pair@$$CBHPAVCGraphicImage@@@std@@@3@$0A@@std@@@std@@QAE?AU?$pair@V?$_Tree_iterator@V?$_Tree_val@U?$_Tree_simple_types@U?$pair@$$CBHPAVCGraphicImage@@@std@@@std@@@std@@@std@@_N@1@$$QAU?$pair@HPAVCGraphicImage@@@1@@Z$2
xdata$x	ENDS
;	COMDAT xdata$x
xdata$x	SEGMENT
__ehfuncinfo$??$_Try_emplace@ABH$$V@?$map@HPAVCGraphicImage@@U?$less@H@std@@V?$allocator@U?$pair@$$CBHPAVCGraphicImage@@@std@@@3@@std@@AAE?AU?$pair@PAU?$_Tree_node@U?$pair@$$CBHPAVCGraphicImage@@@std@@PAX@std@@_N@1@ABH@Z DQ 00000000119930522r ; 2.33398e-314
	DD	FLAT:__unwindtable$??$_Try_emplace@ABH$$V@?$map@HPAVCGraphicImage@@U?$less@H@std@@V?$allocator@U?$pair@$$CBHPAVCGraphicImage@@@std@@@3@@std@@AAE?AU?$pair@PAU?$_Tree_node@U?$pair@$$CBHPAVCGraphicImage@@@std@@PAX@std@@_N@1@ABH@Z
	DQ	00000000000000000r		; 0
	DQ	00000000000000000r		; 0
	DQ	00000000100000000r		; 2.122e-314
__unwindtable$??$_Try_emplace@ABH$$V@?$map@HPAVCGraphicImage@@U?$less@H@std@@V?$allocator@U?$pair@$$CBHPAVCGraphicImage@@@std@@@3@@std@@AAE?AU?$pair@PAU?$_Tree_node@U?$pair@$$CBHPAVCGraphicImage@@@std@@PAX@std@@_N@1@ABH@Z DD 0ffffffffH
	DD	FLAT:__unwindfunclet$??$_Try_emplace@ABH$$V@?$map@HPAVCGraphicImage@@U?$less@H@std@@V?$allocator@U?$pair@$$CBHPAVCGraphicImage@@@std@@@3@@std@@AAE?AU?$pair@PAU?$_Tree_node@U?$pair@$$CBHPAVCGraphicImage@@@std@@PAX@std@@_N@1@ABH@Z$2
xdata$x	ENDS
;	COMDAT xdata$x
xdata$x	SEGMENT
__ehfuncinfo$??$_Emplace@U?$pair@HPAVCGraphicImage@@@std@@@?$_Tree@V?$_Tmap_traits@HPAVCGraphicImage@@U?$less@H@std@@V?$allocator@U?$pair@$$CBHPAVCGraphicImage@@@std@@@3@$0A@@std@@@std@@IAE?AU?$pair@PAU?$_Tree_node@U?$pair@$$CBHPAVCGraphicImage@@@std@@PAX@std@@_N@1@$$QAU?$pair@HPAVCGraphicImage@@@1@@Z DQ 00000000119930522r ; 2.33398e-314
	DD	FLAT:__unwindtable$??$_Emplace@U?$pair@HPAVCGraphicImage@@@std@@@?$_Tree@V?$_Tmap_traits@HPAVCGraphicImage@@U?$less@H@std@@V?$allocator@U?$pair@$$CBHPAVCGraphicImage@@@std@@@3@$0A@@std@@@std@@IAE?AU?$pair@PAU?$_Tree_node@U?$pair@$$CBHPAVCGraphicImage@@@std@@PAX@std@@_N@1@$$QAU?$pair@HPAVCGraphicImage@@@1@@Z
	DQ	00000000000000000r		; 0
	DQ	00000000000000000r		; 0
	DQ	00000000100000000r		; 2.122e-314
__unwindtable$??$_Emplace@U?$pair@HPAVCGraphicImage@@@std@@@?$_Tree@V?$_Tmap_traits@HPAVCGraphicImage@@U?$less@H@std@@V?$allocator@U?$pair@$$CBHPAVCGraphicImage@@@std@@@3@$0A@@std@@@std@@IAE?AU?$pair@PAU?$_Tree_node@U?$pair@$$CBHPAVCGraphicImage@@@std@@PAX@std@@_N@1@$$QAU?$pair@HPAVCGraphicImage@@@1@@Z DD 0ffffffffH
	DD	FLAT:__unwindfunclet$??$_Emplace@U?$pair@HPAVCGraphicImage@@@std@@@?$_Tree@V?$_Tmap_traits@HPAVCGraphicImage@@U?$less@H@std@@V?$allocator@U?$pair@$$CBHPAVCGraphicImage@@@std@@@3@$0A@@std@@@std@@IAE?AU?$pair@PAU?$_Tree_node@U?$pair@$$CBHPAVCGraphicImage@@@std@@PAX@std@@_N@1@$$QAU?$pair@HPAVCGraphicImage@@@1@@Z$2
xdata$x	ENDS
;	COMDAT xdata$x
xdata$x	SEGMENT
__ehfuncinfo$??$?0ABUpiecewise_construct_t@std@@V?$tuple@ABH@1@V?$tuple@$$V@1@@?$_Tree_temp_node@V?$allocator@U?$_Tree_node@U?$pair@$$CBHPAVCGraphicImage@@@std@@PAX@std@@@std@@@std@@QAE@AAV?$allocator@U?$_Tree_node@U?$pair@$$CBHPAVCGraphicImage@@@std@@PAX@std@@@1@PAU?$_Tree_node@U?$pair@$$CBHPAVCGraphicImage@@@std@@PAX@1@ABUpiecewise_construct_t@1@$$QAV?$tuple@ABH@1@$$QAV?$tuple@$$V@1@@Z DQ 00000000119930522r ; 2.33398e-314
	DD	FLAT:__unwindtable$??$?0ABUpiecewise_construct_t@std@@V?$tuple@ABH@1@V?$tuple@$$V@1@@?$_Tree_temp_node@V?$allocator@U?$_Tree_node@U?$pair@$$CBHPAVCGraphicImage@@@std@@PAX@std@@@std@@@std@@QAE@AAV?$allocator@U?$_Tree_node@U?$pair@$$CBHPAVCGraphicImage@@@std@@PAX@std@@@1@PAU?$_Tree_node@U?$pair@$$CBHPAVCGraphicImage@@@std@@PAX@1@ABUpiecewise_construct_t@1@$$QAV?$tuple@ABH@1@$$QAV?$tuple@$$V@1@@Z
	DQ	00000000000000000r		; 0
	DQ	00000000000000000r		; 0
	DQ	00000000100000000r		; 2.122e-314
__unwindtable$??$?0ABUpiecewise_construct_t@std@@V?$tuple@ABH@1@V?$tuple@$$V@1@@?$_Tree_temp_node@V?$allocator@U?$_Tree_node@U?$pair@$$CBHPAVCGraphicImage@@@std@@PAX@std@@@std@@@std@@QAE@AAV?$allocator@U?$_Tree_node@U?$pair@$$CBHPAVCGraphicImage@@@std@@PAX@std@@@1@PAU?$_Tree_node@U?$pair@$$CBHPAVCGraphicImage@@@std@@PAX@1@ABUpiecewise_construct_t@1@$$QAV?$tuple@ABH@1@$$QAV?$tuple@$$V@1@@Z DD 0ffffffffH
	DD	FLAT:__unwindfunclet$??$?0ABUpiecewise_construct_t@std@@V?$tuple@ABH@1@V?$tuple@$$V@1@@?$_Tree_temp_node@V?$allocator@U?$_Tree_node@U?$pair@$$CBHPAVCGraphicImage@@@std@@PAX@std@@@std@@@std@@QAE@AAV?$allocator@U?$_Tree_node@U?$pair@$$CBHPAVCGraphicImage@@@std@@PAX@std@@@1@PAU?$_Tree_node@U?$pair@$$CBHPAVCGraphicImage@@@std@@PAX@1@ABUpiecewise_construct_t@1@$$QAV?$tuple@ABH@1@$$QAV?$tuple@$$V@1@@Z$1
xdata$x	ENDS
;	COMDAT xdata$x
xdata$x	SEGMENT
__ehfuncinfo$??$?0U?$pair@HPAVCGraphicImage@@@std@@@?$_Tree_temp_node@V?$allocator@U?$_Tree_node@U?$pair@$$CBHPAVCGraphicImage@@@std@@PAX@std@@@std@@@std@@QAE@AAV?$allocator@U?$_Tree_node@U?$pair@$$CBHPAVCGraphicImage@@@std@@PAX@std@@@1@PAU?$_Tree_node@U?$pair@$$CBHPAVCGraphicImage@@@std@@PAX@1@$$QAU?$pair@HPAVCGraphicImage@@@1@@Z DQ 00000000119930522r ; 2.33398e-314
	DD	FLAT:__unwindtable$??$?0U?$pair@HPAVCGraphicImage@@@std@@@?$_Tree_temp_node@V?$allocator@U?$_Tree_node@U?$pair@$$CBHPAVCGraphicImage@@@std@@PAX@std@@@std@@@std@@QAE@AAV?$allocator@U?$_Tree_node@U?$pair@$$CBHPAVCGraphicImage@@@std@@PAX@std@@@1@PAU?$_Tree_node@U?$pair@$$CBHPAVCGraphicImage@@@std@@PAX@1@$$QAU?$pair@HPAVCGraphicImage@@@1@@Z
	DQ	00000000000000000r		; 0
	DQ	00000000000000000r		; 0
	DQ	00000000100000000r		; 2.122e-314
__unwindtable$??$?0U?$pair@HPAVCGraphicImage@@@std@@@?$_Tree_temp_node@V?$allocator@U?$_Tree_node@U?$pair@$$CBHPAVCGraphicImage@@@std@@PAX@std@@@std@@@std@@QAE@AAV?$allocator@U?$_Tree_node@U?$pair@$$CBHPAVCGraphicImage@@@std@@PAX@std@@@1@PAU?$_Tree_node@U?$pair@$$CBHPAVCGraphicImage@@@std@@PAX@1@$$QAU?$pair@HPAVCGraphicImage@@@1@@Z DD 0ffffffffH
	DD	FLAT:__unwindfunclet$??$?0U?$pair@HPAVCGraphicImage@@@std@@@?$_Tree_temp_node@V?$allocator@U?$_Tree_node@U?$pair@$$CBHPAVCGraphicImage@@@std@@PAX@std@@@std@@@std@@QAE@AAV?$allocator@U?$_Tree_node@U?$pair@$$CBHPAVCGraphicImage@@@std@@PAX@std@@@1@PAU?$_Tree_node@U?$pair@$$CBHPAVCGraphicImage@@@std@@PAX@1@$$QAU?$pair@HPAVCGraphicImage@@@1@@Z$1
xdata$x	ENDS
;	COMDAT xdata$x
xdata$x	SEGMENT
__ehfuncinfo$??0?$_Tree_temp_node_alloc@V?$allocator@U?$_Tree_node@U?$pair@$$CBHPAVCGraphicImage@@@std@@PAX@std@@@std@@@std@@QAE@AAV?$allocator@U?$_Tree_node@U?$pair@$$CBHPAVCGraphicImage@@@std@@PAX@std@@@1@@Z DQ 00000000119930522r ; 2.33398e-314
	DD	FLAT:__unwindtable$??0?$_Tree_temp_node_alloc@V?$allocator@U?$_Tree_node@U?$pair@$$CBHPAVCGraphicImage@@@std@@PAX@std@@@std@@@std@@QAE@AAV?$allocator@U?$_Tree_node@U?$pair@$$CBHPAVCGraphicImage@@@std@@PAX@std@@@1@@Z
	DQ	00000000000000000r		; 0
	DQ	00000000000000000r		; 0
	DQ	00000000100000000r		; 2.122e-314
__unwindtable$??0?$_Tree_temp_node_alloc@V?$allocator@U?$_Tree_node@U?$pair@$$CBHPAVCGraphicImage@@@std@@PAX@std@@@std@@@std@@QAE@AAV?$allocator@U?$_Tree_node@U?$pair@$$CBHPAVCGraphicImage@@@std@@PAX@std@@@1@@Z DD 0ffffffffH
	DD	FLAT:__unwindfunclet$??0?$_Tree_temp_node_alloc@V?$allocator@U?$_Tree_node@U?$pair@$$CBHPAVCGraphicImage@@@std@@PAX@std@@@std@@@std@@QAE@AAV?$allocator@U?$_Tree_node@U?$pair@$$CBHPAVCGraphicImage@@@std@@PAX@std@@@1@@Z$0
	ORG $+1
?NPOS@@3USItemPos@@B DW 0ff00H				; NPOS
	DB	0ffH
	ORG $+4
?vecUseSoundFileName@@3V?$array@U?$pair@KV?$basic_string@DU?$char_traits@D@std@@V?$allocator@D@2@@std@@@std@@$06@std@@B DQ 00000000000000001r ; 4.94066e-324 ; vecUseSoundFileName
	DQ	00000000000000000r		; 0
	DQ	00000000000000000r		; 0
	DQ	00000000000000000r		; 0
	DQ	00000000000000000r		; 0
	DQ	00000000000000000r		; 0
	DQ	00000000000000000r		; 0
	DQ	00000000000000000r		; 0
	DQ	00000000000000000r		; 0
	DQ	00000000000000000r		; 0
	DQ	00000000000000000r		; 0
	DQ	00000000000000000r		; 0
	DQ	00000000000000000r		; 0
	DQ	00000000000000000r		; 0
	DQ	00000000000000000r		; 0
	DQ	00000000000000000r		; 0
	DQ	00000000000000000r		; 0
	DQ	00000000000000000r		; 0
	DQ	00000000000000000r		; 0
	DQ	00000000000000000r		; 0
	DQ	00000000000000000r		; 0
	DQ	00000000000000000r		; 0
	DQ	00000000000000000r		; 0
	DQ	00000000000000000r		; 0
	DD	00H
?vecUseSoundFileName$initializer$@@3P6AXXZA DD FLAT:??__EvecUseSoundFileName@@YAXXZ ; vecUseSoundFileName$initializer$
?vecDropSoundFileName$initializer$@@3P6AXXZA DD FLAT:??__EvecDropSoundFileName@@YAXXZ ; vecDropSoundFileName$initializer$
?vecEffectList$initializer$@@3P6AXXZA DD FLAT:??__EvecEffectList@@YAXXZ ; vecEffectList$initializer$
?characterNameColors$initializer$@@3P6AXXZA DD FLAT:??__EcharacterNameColors@@YAXXZ ; characterNameColors$initializer$
?characterTitleColors$initializer$@@3P6AXXZA DD FLAT:??__EcharacterTitleColors@@YAXXZ ; characterTitleColors$initializer$
?characterTitleSystemColors$initializer$@@3P6AXXZA DD FLAT:??__EcharacterTitleSystemColors@@YAXXZ ; characterTitleSystemColors$initializer$
?emotionIcons$initializer$@@3P6AXXZA DD FLAT:??__EemotionIcons@@YAXXZ ; emotionIcons$initializer$
?skillIndexes$initializer$@@3P6AXXZA DD FLAT:??__EskillIndexes@@YAXXZ ; skillIndexes$initializer$
?guildSkills$initializer$@@3P6AXXZA DD FLAT:??__EguildSkills@@YAXXZ ; guildSkills$initializer$
; Function compile flags: /Ogtp
; File C:\Anka2Project\Anka2Project\Source\Binary\source\UserInterface\PythonPlayerModule.cpp
; File C:\Anka2Project\Anka2Project\Source\Binary\source\eterBase\Singleton.h
; File C:\Anka2Project\Anka2Project\Source\Binary\source\UserInterface\PythonPlayerModule.cpp
;	COMDAT ?playerGetMainCharacterIndex@@YAPAU_object@@PAU1@0@Z
_TEXT	SEGMENT
_poSelf$ = 8						; size = 4
_poArgs$ = 12						; size = 4
?playerGetMainCharacterIndex@@YAPAU_object@@PAU1@0@Z PROC ; playerGetMainCharacterIndex, COMDAT
; File C:\Anka2Project\Anka2Project\Source\Binary\source\eterBase\Singleton.h

; 26   : 		assert(ms_singleton);

  00000	8b 0d 00 00 00
	00		 mov	 ecx, DWORD PTR ?ms_singleton@?$CSingleton@VCPythonPlayer@@@@0PAVCPythonPlayer@@A ; CSingleton<CPythonPlayer>::ms_singleton
  00006	85 c9		 test	 ecx, ecx
  00008	75 1a		 jne	 SHORT $LN5@playerGetM
  0000a	6a 1a		 push	 26			; 0000001aH
  0000c	68 00 00 00 00	 push	 OFFSET ??_C@_1IO@CAJLEEOI@?$AAC?$AA?3?$AA?2?$AAA?$AAn?$AAk?$AAa?$AA2?$AAP?$AAr?$AAo?$AAj?$AAe?$AAc?$AAt@
  00011	68 00 00 00 00	 push	 OFFSET ??_C@_1BK@FMEHPMFE@?$AAm?$AAs?$AA_?$AAs?$AAi?$AAn?$AAg?$AAl?$AAe?$AAt?$AAo?$AAn@
  00016	e8 00 00 00 00	 call	 __wassert
  0001b	8b 0d 00 00 00
	00		 mov	 ecx, DWORD PTR ?ms_singleton@?$CSingleton@VCPythonPlayer@@@@0PAVCPythonPlayer@@A ; CSingleton<CPythonPlayer>::ms_singleton
  00021	83 c4 0c	 add	 esp, 12			; 0000000cH
$LN5@playerGetM:
; File C:\Anka2Project\Anka2Project\Source\Binary\source\UserInterface\PythonPlayerModule.cpp

; 119  : 	return Py_BuildValue("i", CPythonPlayer::Instance().GetMainCharacterIndex());

  00024	8b 41 04	 mov	 eax, DWORD PTR [ecx+4]
  00027	83 c1 04	 add	 ecx, 4
  0002a	ff 50 04	 call	 DWORD PTR [eax+4]
  0002d	50		 push	 eax
  0002e	68 00 00 00 00	 push	 OFFSET ??_C@_01KBJDNOO@i@
  00033	ff 15 00 00 00
	00		 call	 DWORD PTR __imp__Py_BuildValue
  00039	83 c4 08	 add	 esp, 8

; 120  : }

  0003c	c3		 ret	 0
?playerGetMainCharacterIndex@@YAPAU_object@@PAU1@0@Z ENDP ; playerGetMainCharacterIndex
_TEXT	ENDS
; Function compile flags: /Ogtp
; File C:\Anka2Project\Anka2Project\Source\Binary\source\UserInterface\PythonPlayerModule.cpp
; File C:\Anka2Project\Anka2Project\Source\Binary\source\eterBase\Singleton.h
; File C:\Anka2Project\Anka2Project\Source\Binary\source\UserInterface\PythonPlayerModule.cpp
;	COMDAT ?playerGetMainCharacterName@@YAPAU_object@@PAU1@0@Z
_TEXT	SEGMENT
_poSelf$ = 8						; size = 4
_poArgs$ = 12						; size = 4
?playerGetMainCharacterName@@YAPAU_object@@PAU1@0@Z PROC ; playerGetMainCharacterName, COMDAT
; File C:\Anka2Project\Anka2Project\Source\Binary\source\eterBase\Singleton.h

; 26   : 		assert(ms_singleton);

  00000	8b 0d 00 00 00
	00		 mov	 ecx, DWORD PTR ?ms_singleton@?$CSingleton@VCPythonPlayer@@@@0PAVCPythonPlayer@@A ; CSingleton<CPythonPlayer>::ms_singleton
  00006	85 c9		 test	 ecx, ecx
  00008	75 1a		 jne	 SHORT $LN5@playerGetM
  0000a	6a 1a		 push	 26			; 0000001aH
  0000c	68 00 00 00 00	 push	 OFFSET ??_C@_1IO@CAJLEEOI@?$AAC?$AA?3?$AA?2?$AAA?$AAn?$AAk?$AAa?$AA2?$AAP?$AAr?$AAo?$AAj?$AAe?$AAc?$AAt@
  00011	68 00 00 00 00	 push	 OFFSET ??_C@_1BK@FMEHPMFE@?$AAm?$AAs?$AA_?$AAs?$AAi?$AAn?$AAg?$AAl?$AAe?$AAt?$AAo?$AAn@
  00016	e8 00 00 00 00	 call	 __wassert
  0001b	8b 0d 00 00 00
	00		 mov	 ecx, DWORD PTR ?ms_singleton@?$CSingleton@VCPythonPlayer@@@@0PAVCPythonPlayer@@A ; CSingleton<CPythonPlayer>::ms_singleton
  00021	83 c4 0c	 add	 esp, 12			; 0000000cH
$LN5@playerGetM:
; File C:\Anka2Project\Anka2Project\Source\Binary\source\UserInterface\PythonPlayerModule.cpp

; 124  : 	return Py_BuildValue("s", CPythonPlayer::Instance().GetName());

  00024	8b 41 04	 mov	 eax, DWORD PTR [ecx+4]
  00027	83 c1 04	 add	 ecx, 4
  0002a	ff 50 14	 call	 DWORD PTR [eax+20]
  0002d	50		 push	 eax
  0002e	68 00 00 00 00	 push	 OFFSET ??_C@_01LKDEMHDF@s@
  00033	ff 15 00 00 00
	00		 call	 DWORD PTR __imp__Py_BuildValue
  00039	83 c4 08	 add	 esp, 8

; 125  : }

  0003c	c3		 ret	 0
?playerGetMainCharacterName@@YAPAU_object@@PAU1@0@Z ENDP ; playerGetMainCharacterName
_TEXT	ENDS
; Function compile flags: /Ogtp
; File C:\Anka2Project\Anka2Project\Source\Binary\source\UserInterface\PythonPlayerModule.cpp
; File C:\Anka2Project\Anka2Project\Source\Binary\source\eterBase\Singleton.h
; File C:\Anka2Project\Anka2Project\Source\Binary\source\UserInterface\PythonPlayerModule.cpp
;	COMDAT ?playerGetMainCharacterPosition@@YAPAU_object@@PAU1@0@Z
_TEXT	SEGMENT
_kPPosMainActor$ = -12					; size = 12
_poSelf$ = 8						; size = 4
_poArgs$ = 12						; size = 4
?playerGetMainCharacterPosition@@YAPAU_object@@PAU1@0@Z PROC ; playerGetMainCharacterPosition, COMDAT

; 128  : {

  00000	55		 push	 ebp
  00001	8b ec		 mov	 ebp, esp
  00003	83 e4 c0	 and	 esp, -64		; ffffffc0H
  00006	83 ec 40	 sub	 esp, 64			; 00000040H
; File C:\Anka2Project\Anka2Project\Source\Binary\source\eterBase\Singleton.h

; 26   : 		assert(ms_singleton);

  00009	83 3d 00 00 00
	00 00		 cmp	 DWORD PTR ?ms_singleton@?$CSingleton@VCPythonPlayer@@@@0PAVCPythonPlayer@@A, 0 ; CSingleton<CPythonPlayer>::ms_singleton
  00010	75 14		 jne	 SHORT $LN5@playerGetM
  00012	6a 1a		 push	 26			; 0000001aH
  00014	68 00 00 00 00	 push	 OFFSET ??_C@_1IO@CAJLEEOI@?$AAC?$AA?3?$AA?2?$AAA?$AAn?$AAk?$AAa?$AA2?$AAP?$AAr?$AAo?$AAj?$AAe?$AAc?$AAt@
  00019	68 00 00 00 00	 push	 OFFSET ??_C@_1BK@FMEHPMFE@?$AAm?$AAs?$AA_?$AAs?$AAi?$AAn?$AAg?$AAl?$AAe?$AAt?$AAo?$AAn@
  0001e	e8 00 00 00 00	 call	 __wassert
  00023	83 c4 0c	 add	 esp, 12			; 0000000cH
$LN5@playerGetM:
; File C:\Anka2Project\Anka2Project\Source\Binary\source\UserInterface\PythonPlayerModule.cpp

; 131  : 	rkPlayer.NEW_GetMainActorPosition(&kPPosMainActor);

  00026	8d 44 24 34	 lea	 eax, DWORD PTR _kPPosMainActor$[esp+64]
  0002a	50		 push	 eax
  0002b	e8 00 00 00 00	 call	 ?NEW_GetMainActorPosition@CPythonPlayer@@QAEXPAUD3DXVECTOR3@@@Z ; CPythonPlayer::NEW_GetMainActorPosition
  00030	f3 0f 10 44 24
	3c		 movss	 xmm0, DWORD PTR _kPPosMainActor$[esp+72]

; 132  : 	return Py_BuildValue("fff", kPPosMainActor.x, kPPosMainActor.y, kPPosMainActor.z);

  00036	83 ec 18	 sub	 esp, 24			; 00000018H
  00039	0f 5a c0	 cvtps2pd xmm0, xmm0
  0003c	f2 0f 11 44 24
	10		 movsd	 QWORD PTR [esp+16], xmm0
  00042	f3 0f 10 44 24
	50		 movss	 xmm0, DWORD PTR _kPPosMainActor$[esp+92]
  00048	0f 5a c0	 cvtps2pd xmm0, xmm0
  0004b	f2 0f 11 44 24
	08		 movsd	 QWORD PTR [esp+8], xmm0
  00051	f3 0f 10 44 24
	4c		 movss	 xmm0, DWORD PTR _kPPosMainActor$[esp+88]
  00057	0f 5a c0	 cvtps2pd xmm0, xmm0
  0005a	f2 0f 11 04 24	 movsd	 QWORD PTR [esp], xmm0
  0005f	68 00 00 00 00	 push	 OFFSET ??_C@_03LPALPDIP@fff@
  00064	ff 15 00 00 00
	00		 call	 DWORD PTR __imp__Py_BuildValue
  0006a	83 c4 1c	 add	 esp, 28			; 0000001cH

; 133  : }

  0006d	8b e5		 mov	 esp, ebp
  0006f	5d		 pop	 ebp
  00070	c3		 ret	 0
?playerGetMainCharacterPosition@@YAPAU_object@@PAU1@0@Z ENDP ; playerGetMainCharacterPosition
_TEXT	ENDS
; Function compile flags: /Ogtp
; File C:\Anka2Project\Anka2Project\Source\Binary\source\UserInterface\PythonPlayerModule.cpp
; File C:\Anka2Project\Anka2Project\Source\Binary\source\eterBase\Singleton.h
; File C:\Anka2Project\Anka2Project\Source\Binary\source\UserInterface\PythonPlayerModule.cpp
;	COMDAT ?playerIsMainCharacterIndex@@YAPAU_object@@PAU1@0@Z
_TEXT	SEGMENT
_iVID$ = -4						; size = 4
_poSelf$ = 8						; size = 4
_poArgs$ = 12						; size = 4
?playerIsMainCharacterIndex@@YAPAU_object@@PAU1@0@Z PROC ; playerIsMainCharacterIndex, COMDAT

; 136  : {

  00000	55		 push	 ebp
  00001	8b ec		 mov	 ebp, esp
  00003	51		 push	 ecx

; 137  : 	int iVID;
; 138  : 	if (!PyTuple_GetInteger(poArgs, 0, &iVID))

  00004	8d 45 fc	 lea	 eax, DWORD PTR _iVID$[ebp]
  00007	50		 push	 eax
  00008	6a 00		 push	 0
  0000a	ff 75 0c	 push	 DWORD PTR _poArgs$[ebp]
  0000d	e8 00 00 00 00	 call	 ?PyTuple_GetInteger@@YA_NPAU_object@@HPAH@Z ; PyTuple_GetInteger
  00012	83 c4 0c	 add	 esp, 12			; 0000000cH
  00015	84 c0		 test	 al, al
  00017	75 0e		 jne	 SHORT $LN2@playerIsMa

; 139  : 		return Py_BuildException();

  00019	6a 00		 push	 0
  0001b	e8 00 00 00 00	 call	 ?Py_BuildException@@YAPAU_object@@PBDZZ ; Py_BuildException
  00020	83 c4 04	 add	 esp, 4

; 142  : }

  00023	8b e5		 mov	 esp, ebp
  00025	5d		 pop	 ebp
  00026	c3		 ret	 0
$LN2@playerIsMa:
; File C:\Anka2Project\Anka2Project\Source\Binary\source\eterBase\Singleton.h

; 26   : 		assert(ms_singleton);

  00027	8b 0d 00 00 00
	00		 mov	 ecx, DWORD PTR ?ms_singleton@?$CSingleton@VCPythonPlayer@@@@0PAVCPythonPlayer@@A ; CSingleton<CPythonPlayer>::ms_singleton
  0002d	85 c9		 test	 ecx, ecx
  0002f	75 1a		 jne	 SHORT $LN6@playerIsMa
  00031	6a 1a		 push	 26			; 0000001aH
  00033	68 00 00 00 00	 push	 OFFSET ??_C@_1IO@CAJLEEOI@?$AAC?$AA?3?$AA?2?$AAA?$AAn?$AAk?$AAa?$AA2?$AAP?$AAr?$AAo?$AAj?$AAe?$AAc?$AAt@
  00038	68 00 00 00 00	 push	 OFFSET ??_C@_1BK@FMEHPMFE@?$AAm?$AAs?$AA_?$AAs?$AAi?$AAn?$AAg?$AAl?$AAe?$AAt?$AAo?$AAn@
  0003d	e8 00 00 00 00	 call	 __wassert
  00042	8b 0d 00 00 00
	00		 mov	 ecx, DWORD PTR ?ms_singleton@?$CSingleton@VCPythonPlayer@@@@0PAVCPythonPlayer@@A ; CSingleton<CPythonPlayer>::ms_singleton
  00048	83 c4 0c	 add	 esp, 12			; 0000000cH
$LN6@playerIsMa:
; File C:\Anka2Project\Anka2Project\Source\Binary\source\UserInterface\PythonPlayerModule.cpp

; 141  : 	return Py_BuildValue("i", CPythonPlayer::Instance().IsMainCharacterIndex(iVID));

  0004b	8b 41 04	 mov	 eax, DWORD PTR [ecx+4]
  0004e	83 c1 04	 add	 ecx, 4
  00051	ff 75 fc	 push	 DWORD PTR _iVID$[ebp]
  00054	8b 40 0c	 mov	 eax, DWORD PTR [eax+12]
  00057	ff d0		 call	 eax
  00059	0f b6 c0	 movzx	 eax, al
  0005c	50		 push	 eax
  0005d	68 00 00 00 00	 push	 OFFSET ??_C@_01KBJDNOO@i@
  00062	ff 15 00 00 00
	00		 call	 DWORD PTR __imp__Py_BuildValue
  00068	83 c4 08	 add	 esp, 8

; 142  : }

  0006b	8b e5		 mov	 esp, ebp
  0006d	5d		 pop	 ebp
  0006e	c3		 ret	 0
?playerIsMainCharacterIndex@@YAPAU_object@@PAU1@0@Z ENDP ; playerIsMainCharacterIndex
_TEXT	ENDS
; Function compile flags: /Ogtp
; File C:\Anka2Project\Anka2Project\Source\Binary\source\UserInterface\PythonPlayerModule.cpp
; File C:\Anka2Project\Anka2Project\Source\Binary\source\eterBase\Singleton.h
; File C:\Anka2Project\Anka2Project\Source\Binary\source\UserInterface\PythonPlayerModule.cpp
; File C:\Anka2Project\Anka2Project\Source\Binary\source\eterBase\Singleton.h
; File C:\Anka2Project\Anka2Project\Source\Binary\source\UserInterface\PythonPlayerModule.cpp
; File C:\Anka2Project\Anka2Project\Source\Binary\source\eterBase\Singleton.h
; File C:\Anka2Project\Anka2Project\Source\Binary\source\UserInterface\PythonPlayerModule.cpp
;	COMDAT ?playerCanAttackInstance@@YAPAU_object@@PAU1@0@Z
_TEXT	SEGMENT
_iVID$ = -4						; size = 4
_poSelf$ = 8						; size = 4
_poArgs$ = 12						; size = 4
?playerCanAttackInstance@@YAPAU_object@@PAU1@0@Z PROC	; playerCanAttackInstance, COMDAT

; 145  : {

  00000	55		 push	 ebp
  00001	8b ec		 mov	 ebp, esp
  00003	51		 push	 ecx

; 146  : 	int iVID;
; 147  : 	if (!PyTuple_GetInteger(poArgs, 0, &iVID))

  00004	8d 45 fc	 lea	 eax, DWORD PTR _iVID$[ebp]
  00007	50		 push	 eax
  00008	6a 00		 push	 0
  0000a	ff 75 0c	 push	 DWORD PTR _poArgs$[ebp]
  0000d	e8 00 00 00 00	 call	 ?PyTuple_GetInteger@@YA_NPAU_object@@HPAH@Z ; PyTuple_GetInteger
  00012	83 c4 0c	 add	 esp, 12			; 0000000cH
  00015	84 c0		 test	 al, al
  00017	75 0e		 jne	 SHORT $LN2@playerCanA

; 148  : 		return Py_BuildException();

  00019	6a 00		 push	 0
  0001b	e8 00 00 00 00	 call	 ?Py_BuildException@@YAPAU_object@@PBDZZ ; Py_BuildException
  00020	83 c4 04	 add	 esp, 4

; 158  : }

  00023	8b e5		 mov	 esp, ebp
  00025	5d		 pop	 ebp
  00026	c3		 ret	 0
$LN2@playerCanA:
; File C:\Anka2Project\Anka2Project\Source\Binary\source\eterBase\Singleton.h

; 26   : 		assert(ms_singleton);

  00027	8b 0d 00 00 00
	00		 mov	 ecx, DWORD PTR ?ms_singleton@?$CSingleton@VCPythonPlayer@@@@0PAVCPythonPlayer@@A ; CSingleton<CPythonPlayer>::ms_singleton
  0002d	85 c9		 test	 ecx, ecx
  0002f	75 1a		 jne	 SHORT $LN8@playerCanA
  00031	6a 1a		 push	 26			; 0000001aH
  00033	68 00 00 00 00	 push	 OFFSET ??_C@_1IO@CAJLEEOI@?$AAC?$AA?3?$AA?2?$AAA?$AAn?$AAk?$AAa?$AA2?$AAP?$AAr?$AAo?$AAj?$AAe?$AAc?$AAt@
  00038	68 00 00 00 00	 push	 OFFSET ??_C@_1BK@FMEHPMFE@?$AAm?$AAs?$AA_?$AAs?$AAi?$AAn?$AAg?$AAl?$AAe?$AAt?$AAo?$AAn@
  0003d	e8 00 00 00 00	 call	 __wassert
  00042	8b 0d 00 00 00
	00		 mov	 ecx, DWORD PTR ?ms_singleton@?$CSingleton@VCPythonPlayer@@@@0PAVCPythonPlayer@@A ; CSingleton<CPythonPlayer>::ms_singleton
  00048	83 c4 0c	 add	 esp, 12			; 0000000cH
$LN8@playerCanA:
; File C:\Anka2Project\Anka2Project\Source\Binary\source\UserInterface\PythonPlayerModule.cpp

; 150  : 	CInstanceBase * pMainInstance = CPythonPlayer::Instance().NEW_GetMainActorPtr();

  0004b	8b 41 04	 mov	 eax, DWORD PTR [ecx+4]
  0004e	83 c1 04	 add	 ecx, 4
  00051	56		 push	 esi
  00052	ff 90 8c 00 00
	00		 call	 DWORD PTR [eax+140]
; File C:\Anka2Project\Anka2Project\Source\Binary\source\eterBase\Singleton.h

; 26   : 		assert(ms_singleton);

  00058	8b 0d 00 00 00
	00		 mov	 ecx, DWORD PTR ?ms_singleton@?$CSingleton@VCPythonCharacterManager@@@@0PAVCPythonCharacterManager@@A ; CSingleton<CPythonCharacterManager>::ms_singleton
; File C:\Anka2Project\Anka2Project\Source\Binary\source\UserInterface\PythonPlayerModule.cpp

; 150  : 	CInstanceBase * pMainInstance = CPythonPlayer::Instance().NEW_GetMainActorPtr();

  0005e	8b f0		 mov	 esi, eax
; File C:\Anka2Project\Anka2Project\Source\Binary\source\eterBase\Singleton.h

; 26   : 		assert(ms_singleton);

  00060	85 c9		 test	 ecx, ecx
  00062	75 1a		 jne	 SHORT $LN11@playerCanA
  00064	6a 1a		 push	 26			; 0000001aH
  00066	68 00 00 00 00	 push	 OFFSET ??_C@_1IO@CAJLEEOI@?$AAC?$AA?3?$AA?2?$AAA?$AAn?$AAk?$AAa?$AA2?$AAP?$AAr?$AAo?$AAj?$AAe?$AAc?$AAt@
  0006b	68 00 00 00 00	 push	 OFFSET ??_C@_1BK@FMEHPMFE@?$AAm?$AAs?$AA_?$AAs?$AAi?$AAn?$AAg?$AAl?$AAe?$AAt?$AAo?$AAn@
  00070	e8 00 00 00 00	 call	 __wassert
  00075	8b 0d 00 00 00
	00		 mov	 ecx, DWORD PTR ?ms_singleton@?$CSingleton@VCPythonCharacterManager@@@@0PAVCPythonCharacterManager@@A ; CSingleton<CPythonCharacterManager>::ms_singleton
  0007b	83 c4 0c	 add	 esp, 12			; 0000000cH
$LN11@playerCanA:
; File C:\Anka2Project\Anka2Project\Source\Binary\source\UserInterface\PythonPlayerModule.cpp

; 151  : 	CInstanceBase * pTargetInstance = CPythonCharacterManager::Instance().GetInstancePtr(iVID);

  0007e	8b 41 04	 mov	 eax, DWORD PTR [ecx+4]
  00081	83 c1 04	 add	 ecx, 4
  00084	ff 75 fc	 push	 DWORD PTR _iVID$[ebp]
  00087	ff 50 08	 call	 DWORD PTR [eax+8]

; 152  : 	if (!pMainInstance)

  0008a	85 f6		 test	 esi, esi
  0008c	75 15		 jne	 SHORT $LN3@playerCanA
$LN19@playerCanA:

; 155  : 		return Py_BuildValue("i", 0);
; 156  : 
; 157  : 	return Py_BuildValue("i", pMainInstance->IsAttackableInstance(*pTargetInstance));

  0008e	6a 00		 push	 0
  00090	68 00 00 00 00	 push	 OFFSET ??_C@_01KBJDNOO@i@
  00095	ff 15 00 00 00
	00		 call	 DWORD PTR __imp__Py_BuildValue
  0009b	83 c4 08	 add	 esp, 8
  0009e	5e		 pop	 esi

; 158  : }

  0009f	8b e5		 mov	 esp, ebp
  000a1	5d		 pop	 ebp
  000a2	c3		 ret	 0
$LN3@playerCanA:

; 153  : 		return Py_BuildValue("i", 0);
; 154  : 	if (!pTargetInstance)

  000a3	85 c0		 test	 eax, eax
  000a5	74 e7		 je	 SHORT $LN19@playerCanA

; 155  : 		return Py_BuildValue("i", 0);
; 156  : 
; 157  : 	return Py_BuildValue("i", pMainInstance->IsAttackableInstance(*pTargetInstance));

  000a7	50		 push	 eax
  000a8	8b ce		 mov	 ecx, esi
  000aa	e8 00 00 00 00	 call	 ?IsAttackableInstance@CInstanceBase@@QAE_NAAV1@@Z ; CInstanceBase::IsAttackableInstance
  000af	0f b6 c0	 movzx	 eax, al
  000b2	50		 push	 eax
  000b3	68 00 00 00 00	 push	 OFFSET ??_C@_01KBJDNOO@i@
  000b8	ff 15 00 00 00
	00		 call	 DWORD PTR __imp__Py_BuildValue
  000be	83 c4 08	 add	 esp, 8
  000c1	5e		 pop	 esi

; 158  : }

  000c2	8b e5		 mov	 esp, ebp
  000c4	5d		 pop	 ebp
  000c5	c3		 ret	 0
?playerCanAttackInstance@@YAPAU_object@@PAU1@0@Z ENDP	; playerCanAttackInstance
_TEXT	ENDS
; Function compile flags: /Ogtp
; File C:\Anka2Project\Anka2Project\Source\Binary\source\UserInterface\PythonPlayerModule.cpp
; File C:\Anka2Project\Anka2Project\Source\Binary\source\eterBase\Singleton.h
; File C:\Anka2Project\Anka2Project\Source\Binary\source\UserInterface\PythonPlayerModule.cpp
;	COMDAT ?playerIsActingEmotion@@YAPAU_object@@PAU1@0@Z
_TEXT	SEGMENT
_poSelf$ = 8						; size = 4
_poArgs$ = 12						; size = 4
?playerIsActingEmotion@@YAPAU_object@@PAU1@0@Z PROC	; playerIsActingEmotion, COMDAT
; File C:\Anka2Project\Anka2Project\Source\Binary\source\eterBase\Singleton.h

; 26   : 		assert(ms_singleton);

  00000	8b 0d 00 00 00
	00		 mov	 ecx, DWORD PTR ?ms_singleton@?$CSingleton@VCPythonPlayer@@@@0PAVCPythonPlayer@@A ; CSingleton<CPythonPlayer>::ms_singleton
  00006	85 c9		 test	 ecx, ecx
  00008	75 1a		 jne	 SHORT $LN6@playerIsAc
  0000a	6a 1a		 push	 26			; 0000001aH
  0000c	68 00 00 00 00	 push	 OFFSET ??_C@_1IO@CAJLEEOI@?$AAC?$AA?3?$AA?2?$AAA?$AAn?$AAk?$AAa?$AA2?$AAP?$AAr?$AAo?$AAj?$AAe?$AAc?$AAt@
  00011	68 00 00 00 00	 push	 OFFSET ??_C@_1BK@FMEHPMFE@?$AAm?$AAs?$AA_?$AAs?$AAi?$AAn?$AAg?$AAl?$AAe?$AAt?$AAo?$AAn@
  00016	e8 00 00 00 00	 call	 __wassert
  0001b	8b 0d 00 00 00
	00		 mov	 ecx, DWORD PTR ?ms_singleton@?$CSingleton@VCPythonPlayer@@@@0PAVCPythonPlayer@@A ; CSingleton<CPythonPlayer>::ms_singleton
  00021	83 c4 0c	 add	 esp, 12			; 0000000cH
$LN6@playerIsAc:
; File C:\Anka2Project\Anka2Project\Source\Binary\source\UserInterface\PythonPlayerModule.cpp

; 162  : 	CInstanceBase * pMainInstance = CPythonPlayer::Instance().NEW_GetMainActorPtr();

  00024	8b 41 04	 mov	 eax, DWORD PTR [ecx+4]
  00027	83 c1 04	 add	 ecx, 4
  0002a	ff 90 8c 00 00
	00		 call	 DWORD PTR [eax+140]

; 163  : 	if (!pMainInstance)

  00030	85 c0		 test	 eax, eax
  00032	75 10		 jne	 SHORT $LN2@playerIsAc

; 164  : 		return Py_BuildValue("i", 0);

  00034	50		 push	 eax

; 167  : }

  00035	68 00 00 00 00	 push	 OFFSET ??_C@_01KBJDNOO@i@
  0003a	ff 15 00 00 00
	00		 call	 DWORD PTR __imp__Py_BuildValue
  00040	83 c4 08	 add	 esp, 8
  00043	c3		 ret	 0
$LN2@playerIsAc:

; 165  : 
; 166  : 	return Py_BuildValue("i", pMainInstance->IsActingEmotion());

  00044	8b c8		 mov	 ecx, eax
  00046	e8 00 00 00 00	 call	 ?IsActingEmotion@CInstanceBase@@QAEHXZ ; CInstanceBase::IsActingEmotion
  0004b	50		 push	 eax

; 167  : }

  0004c	68 00 00 00 00	 push	 OFFSET ??_C@_01KBJDNOO@i@
  00051	ff 15 00 00 00
	00		 call	 DWORD PTR __imp__Py_BuildValue
  00057	83 c4 08	 add	 esp, 8
  0005a	c3		 ret	 0
?playerIsActingEmotion@@YAPAU_object@@PAU1@0@Z ENDP	; playerIsActingEmotion
_TEXT	ENDS
; Function compile flags: /Ogtp
; File C:\Anka2Project\Anka2Project\Source\Binary\source\UserInterface\PythonPlayerModule.cpp
; File C:\Anka2Project\Anka2Project\Source\Binary\source\eterBase\Singleton.h
; File C:\Anka2Project\Anka2Project\Source\Binary\source\UserInterface\PythonPlayerModule.cpp
; File C:\Anka2Project\Anka2Project\Source\Binary\source\eterBase\Singleton.h
; File C:\Anka2Project\Anka2Project\Source\Binary\source\UserInterface\PythonPlayerModule.cpp
; File C:\Anka2Project\Anka2Project\Source\Binary\source\eterBase\Singleton.h
; File C:\Anka2Project\Anka2Project\Source\Binary\source\UserInterface\PythonPlayerModule.cpp
;	COMDAT ?playerIsPVPInstance@@YAPAU_object@@PAU1@0@Z
_TEXT	SEGMENT
_iVID$ = -4						; size = 4
_poSelf$ = 8						; size = 4
_poArgs$ = 12						; size = 4
?playerIsPVPInstance@@YAPAU_object@@PAU1@0@Z PROC	; playerIsPVPInstance, COMDAT

; 170  : {

  00000	55		 push	 ebp
  00001	8b ec		 mov	 ebp, esp
  00003	51		 push	 ecx

; 171  : 	int iVID;
; 172  : 	if (!PyTuple_GetInteger(poArgs, 0, &iVID))

  00004	8d 45 fc	 lea	 eax, DWORD PTR _iVID$[ebp]
  00007	50		 push	 eax
  00008	6a 00		 push	 0
  0000a	ff 75 0c	 push	 DWORD PTR _poArgs$[ebp]
  0000d	e8 00 00 00 00	 call	 ?PyTuple_GetInteger@@YA_NPAU_object@@HPAH@Z ; PyTuple_GetInteger
  00012	83 c4 0c	 add	 esp, 12			; 0000000cH
  00015	84 c0		 test	 al, al
  00017	75 0e		 jne	 SHORT $LN2@playerIsPV

; 173  : 		return Py_BuildException();

  00019	6a 00		 push	 0
  0001b	e8 00 00 00 00	 call	 ?Py_BuildException@@YAPAU_object@@PBDZZ ; Py_BuildException
  00020	83 c4 04	 add	 esp, 4

; 183  : }

  00023	8b e5		 mov	 esp, ebp
  00025	5d		 pop	 ebp
  00026	c3		 ret	 0
$LN2@playerIsPV:
; File C:\Anka2Project\Anka2Project\Source\Binary\source\eterBase\Singleton.h

; 26   : 		assert(ms_singleton);

  00027	8b 0d 00 00 00
	00		 mov	 ecx, DWORD PTR ?ms_singleton@?$CSingleton@VCPythonPlayer@@@@0PAVCPythonPlayer@@A ; CSingleton<CPythonPlayer>::ms_singleton
  0002d	85 c9		 test	 ecx, ecx
  0002f	75 1a		 jne	 SHORT $LN8@playerIsPV
  00031	6a 1a		 push	 26			; 0000001aH
  00033	68 00 00 00 00	 push	 OFFSET ??_C@_1IO@CAJLEEOI@?$AAC?$AA?3?$AA?2?$AAA?$AAn?$AAk?$AAa?$AA2?$AAP?$AAr?$AAo?$AAj?$AAe?$AAc?$AAt@
  00038	68 00 00 00 00	 push	 OFFSET ??_C@_1BK@FMEHPMFE@?$AAm?$AAs?$AA_?$AAs?$AAi?$AAn?$AAg?$AAl?$AAe?$AAt?$AAo?$AAn@
  0003d	e8 00 00 00 00	 call	 __wassert
  00042	8b 0d 00 00 00
	00		 mov	 ecx, DWORD PTR ?ms_singleton@?$CSingleton@VCPythonPlayer@@@@0PAVCPythonPlayer@@A ; CSingleton<CPythonPlayer>::ms_singleton
  00048	83 c4 0c	 add	 esp, 12			; 0000000cH
$LN8@playerIsPV:
; File C:\Anka2Project\Anka2Project\Source\Binary\source\UserInterface\PythonPlayerModule.cpp

; 175  : 	CInstanceBase * pMainInstance = CPythonPlayer::Instance().NEW_GetMainActorPtr();

  0004b	8b 41 04	 mov	 eax, DWORD PTR [ecx+4]
  0004e	83 c1 04	 add	 ecx, 4
  00051	56		 push	 esi
  00052	ff 90 8c 00 00
	00		 call	 DWORD PTR [eax+140]
; File C:\Anka2Project\Anka2Project\Source\Binary\source\eterBase\Singleton.h

; 26   : 		assert(ms_singleton);

  00058	8b 0d 00 00 00
	00		 mov	 ecx, DWORD PTR ?ms_singleton@?$CSingleton@VCPythonCharacterManager@@@@0PAVCPythonCharacterManager@@A ; CSingleton<CPythonCharacterManager>::ms_singleton
; File C:\Anka2Project\Anka2Project\Source\Binary\source\UserInterface\PythonPlayerModule.cpp

; 175  : 	CInstanceBase * pMainInstance = CPythonPlayer::Instance().NEW_GetMainActorPtr();

  0005e	8b f0		 mov	 esi, eax
; File C:\Anka2Project\Anka2Project\Source\Binary\source\eterBase\Singleton.h

; 26   : 		assert(ms_singleton);

  00060	85 c9		 test	 ecx, ecx
  00062	75 1a		 jne	 SHORT $LN11@playerIsPV
  00064	6a 1a		 push	 26			; 0000001aH
  00066	68 00 00 00 00	 push	 OFFSET ??_C@_1IO@CAJLEEOI@?$AAC?$AA?3?$AA?2?$AAA?$AAn?$AAk?$AAa?$AA2?$AAP?$AAr?$AAo?$AAj?$AAe?$AAc?$AAt@
  0006b	68 00 00 00 00	 push	 OFFSET ??_C@_1BK@FMEHPMFE@?$AAm?$AAs?$AA_?$AAs?$AAi?$AAn?$AAg?$AAl?$AAe?$AAt?$AAo?$AAn@
  00070	e8 00 00 00 00	 call	 __wassert
  00075	8b 0d 00 00 00
	00		 mov	 ecx, DWORD PTR ?ms_singleton@?$CSingleton@VCPythonCharacterManager@@@@0PAVCPythonCharacterManager@@A ; CSingleton<CPythonCharacterManager>::ms_singleton
  0007b	83 c4 0c	 add	 esp, 12			; 0000000cH
$LN11@playerIsPV:
; File C:\Anka2Project\Anka2Project\Source\Binary\source\UserInterface\PythonPlayerModule.cpp

; 176  : 	CInstanceBase * pTargetInstance = CPythonCharacterManager::Instance().GetInstancePtr(iVID);

  0007e	8b 41 04	 mov	 eax, DWORD PTR [ecx+4]
  00081	83 c1 04	 add	 ecx, 4
  00084	ff 75 fc	 push	 DWORD PTR _iVID$[ebp]
  00087	ff 50 08	 call	 DWORD PTR [eax+8]

; 177  : 	if (!pMainInstance)

  0008a	85 f6		 test	 esi, esi
  0008c	75 15		 jne	 SHORT $LN3@playerIsPV
$LN19@playerIsPV:

; 180  : 		return Py_BuildValue("i", 0);
; 181  : 
; 182  : 	return Py_BuildValue("i", pMainInstance->IsPVPInstance(*pTargetInstance));

  0008e	6a 00		 push	 0
  00090	68 00 00 00 00	 push	 OFFSET ??_C@_01KBJDNOO@i@
  00095	ff 15 00 00 00
	00		 call	 DWORD PTR __imp__Py_BuildValue
  0009b	83 c4 08	 add	 esp, 8
  0009e	5e		 pop	 esi

; 183  : }

  0009f	8b e5		 mov	 esp, ebp
  000a1	5d		 pop	 ebp
  000a2	c3		 ret	 0
$LN3@playerIsPV:

; 178  : 		return Py_BuildValue("i", 0);
; 179  : 	if (!pTargetInstance)

  000a3	85 c0		 test	 eax, eax
  000a5	74 e7		 je	 SHORT $LN19@playerIsPV

; 180  : 		return Py_BuildValue("i", 0);
; 181  : 
; 182  : 	return Py_BuildValue("i", pMainInstance->IsPVPInstance(*pTargetInstance));

  000a7	50		 push	 eax
  000a8	8b ce		 mov	 ecx, esi
  000aa	e8 00 00 00 00	 call	 ?IsPVPInstance@CInstanceBase@@QAE_NAAV1@@Z ; CInstanceBase::IsPVPInstance
  000af	0f b6 c0	 movzx	 eax, al
  000b2	50		 push	 eax
  000b3	68 00 00 00 00	 push	 OFFSET ??_C@_01KBJDNOO@i@
  000b8	ff 15 00 00 00
	00		 call	 DWORD PTR __imp__Py_BuildValue
  000be	83 c4 08	 add	 esp, 8
  000c1	5e		 pop	 esi

; 183  : }

  000c2	8b e5		 mov	 esp, ebp
  000c4	5d		 pop	 ebp
  000c5	c3		 ret	 0
?playerIsPVPInstance@@YAPAU_object@@PAU1@0@Z ENDP	; playerIsPVPInstance
_TEXT	ENDS
; Function compile flags: /Ogtp
; File C:\Anka2Project\Anka2Project\Source\Binary\source\UserInterface\PythonPlayerModule.cpp
; File C:\Anka2Project\Anka2Project\Source\Binary\source\eterBase\Singleton.h
; File C:\Anka2Project\Anka2Project\Source\Binary\source\UserInterface\PythonPlayerModule.cpp
; File C:\Anka2Project\Anka2Project\Source\Binary\source\eterBase\Singleton.h
; File C:\Anka2Project\Anka2Project\Source\Binary\source\UserInterface\PythonPlayerModule.cpp
; File C:\Anka2Project\Anka2Project\Source\Binary\source\eterBase\Singleton.h
; File C:\Anka2Project\Anka2Project\Source\Binary\source\UserInterface\PythonPlayerModule.cpp
;	COMDAT ?playerIsSameEmpire@@YAPAU_object@@PAU1@0@Z
_TEXT	SEGMENT
_iVID$ = -4						; size = 4
_poSelf$ = 8						; size = 4
_poArgs$ = 12						; size = 4
?playerIsSameEmpire@@YAPAU_object@@PAU1@0@Z PROC	; playerIsSameEmpire, COMDAT

; 186  : {

  00000	55		 push	 ebp
  00001	8b ec		 mov	 ebp, esp
  00003	51		 push	 ecx

; 187  : 	int iVID;
; 188  : 	if (!PyTuple_GetInteger(poArgs, 0, &iVID))

  00004	8d 45 fc	 lea	 eax, DWORD PTR _iVID$[ebp]
  00007	50		 push	 eax
  00008	6a 00		 push	 0
  0000a	ff 75 0c	 push	 DWORD PTR _poArgs$[ebp]
  0000d	e8 00 00 00 00	 call	 ?PyTuple_GetInteger@@YA_NPAU_object@@HPAH@Z ; PyTuple_GetInteger
  00012	83 c4 0c	 add	 esp, 12			; 0000000cH
  00015	84 c0		 test	 al, al
  00017	75 0e		 jne	 SHORT $LN2@playerIsSa

; 189  : 		return Py_BuildException();

  00019	6a 00		 push	 0
  0001b	e8 00 00 00 00	 call	 ?Py_BuildException@@YAPAU_object@@PBDZZ ; Py_BuildException
  00020	83 c4 04	 add	 esp, 4

; 199  : }

  00023	8b e5		 mov	 esp, ebp
  00025	5d		 pop	 ebp
  00026	c3		 ret	 0
$LN2@playerIsSa:
; File C:\Anka2Project\Anka2Project\Source\Binary\source\eterBase\Singleton.h

; 26   : 		assert(ms_singleton);

  00027	8b 0d 00 00 00
	00		 mov	 ecx, DWORD PTR ?ms_singleton@?$CSingleton@VCPythonPlayer@@@@0PAVCPythonPlayer@@A ; CSingleton<CPythonPlayer>::ms_singleton
  0002d	85 c9		 test	 ecx, ecx
  0002f	75 1a		 jne	 SHORT $LN8@playerIsSa
  00031	6a 1a		 push	 26			; 0000001aH
  00033	68 00 00 00 00	 push	 OFFSET ??_C@_1IO@CAJLEEOI@?$AAC?$AA?3?$AA?2?$AAA?$AAn?$AAk?$AAa?$AA2?$AAP?$AAr?$AAo?$AAj?$AAe?$AAc?$AAt@
  00038	68 00 00 00 00	 push	 OFFSET ??_C@_1BK@FMEHPMFE@?$AAm?$AAs?$AA_?$AAs?$AAi?$AAn?$AAg?$AAl?$AAe?$AAt?$AAo?$AAn@
  0003d	e8 00 00 00 00	 call	 __wassert
  00042	8b 0d 00 00 00
	00		 mov	 ecx, DWORD PTR ?ms_singleton@?$CSingleton@VCPythonPlayer@@@@0PAVCPythonPlayer@@A ; CSingleton<CPythonPlayer>::ms_singleton
  00048	83 c4 0c	 add	 esp, 12			; 0000000cH
$LN8@playerIsSa:
; File C:\Anka2Project\Anka2Project\Source\Binary\source\UserInterface\PythonPlayerModule.cpp

; 191  : 	CInstanceBase * pMainInstance = CPythonPlayer::Instance().NEW_GetMainActorPtr();

  0004b	8b 41 04	 mov	 eax, DWORD PTR [ecx+4]
  0004e	83 c1 04	 add	 ecx, 4
  00051	56		 push	 esi
  00052	ff 90 8c 00 00
	00		 call	 DWORD PTR [eax+140]
; File C:\Anka2Project\Anka2Project\Source\Binary\source\eterBase\Singleton.h

; 26   : 		assert(ms_singleton);

  00058	8b 0d 00 00 00
	00		 mov	 ecx, DWORD PTR ?ms_singleton@?$CSingleton@VCPythonCharacterManager@@@@0PAVCPythonCharacterManager@@A ; CSingleton<CPythonCharacterManager>::ms_singleton
; File C:\Anka2Project\Anka2Project\Source\Binary\source\UserInterface\PythonPlayerModule.cpp

; 191  : 	CInstanceBase * pMainInstance = CPythonPlayer::Instance().NEW_GetMainActorPtr();

  0005e	8b f0		 mov	 esi, eax
; File C:\Anka2Project\Anka2Project\Source\Binary\source\eterBase\Singleton.h

; 26   : 		assert(ms_singleton);

  00060	85 c9		 test	 ecx, ecx
  00062	75 1a		 jne	 SHORT $LN11@playerIsSa
  00064	6a 1a		 push	 26			; 0000001aH
  00066	68 00 00 00 00	 push	 OFFSET ??_C@_1IO@CAJLEEOI@?$AAC?$AA?3?$AA?2?$AAA?$AAn?$AAk?$AAa?$AA2?$AAP?$AAr?$AAo?$AAj?$AAe?$AAc?$AAt@
  0006b	68 00 00 00 00	 push	 OFFSET ??_C@_1BK@FMEHPMFE@?$AAm?$AAs?$AA_?$AAs?$AAi?$AAn?$AAg?$AAl?$AAe?$AAt?$AAo?$AAn@
  00070	e8 00 00 00 00	 call	 __wassert
  00075	8b 0d 00 00 00
	00		 mov	 ecx, DWORD PTR ?ms_singleton@?$CSingleton@VCPythonCharacterManager@@@@0PAVCPythonCharacterManager@@A ; CSingleton<CPythonCharacterManager>::ms_singleton
  0007b	83 c4 0c	 add	 esp, 12			; 0000000cH
$LN11@playerIsSa:
; File C:\Anka2Project\Anka2Project\Source\Binary\source\UserInterface\PythonPlayerModule.cpp

; 192  : 	CInstanceBase * pTargetInstance = CPythonCharacterManager::Instance().GetInstancePtr(iVID);

  0007e	8b 41 04	 mov	 eax, DWORD PTR [ecx+4]
  00081	83 c1 04	 add	 ecx, 4
  00084	ff 75 fc	 push	 DWORD PTR _iVID$[ebp]
  00087	ff 50 08	 call	 DWORD PTR [eax+8]

; 193  : 	if (!pMainInstance)

  0008a	85 f6		 test	 esi, esi
  0008c	75 15		 jne	 SHORT $LN3@playerIsSa
$LN19@playerIsSa:

; 196  : 		return Py_BuildValue("i", FALSE);
; 197  : 
; 198  : 	return Py_BuildValue("i", pMainInstance->IsSameEmpire(*pTargetInstance));

  0008e	6a 00		 push	 0
  00090	68 00 00 00 00	 push	 OFFSET ??_C@_01KBJDNOO@i@
  00095	ff 15 00 00 00
	00		 call	 DWORD PTR __imp__Py_BuildValue
  0009b	83 c4 08	 add	 esp, 8
  0009e	5e		 pop	 esi

; 199  : }

  0009f	8b e5		 mov	 esp, ebp
  000a1	5d		 pop	 ebp
  000a2	c3		 ret	 0
$LN3@playerIsSa:

; 194  : 		return Py_BuildValue("i", FALSE);
; 195  : 	if (!pTargetInstance)

  000a3	85 c0		 test	 eax, eax
  000a5	74 e7		 je	 SHORT $LN19@playerIsSa

; 196  : 		return Py_BuildValue("i", FALSE);
; 197  : 
; 198  : 	return Py_BuildValue("i", pMainInstance->IsSameEmpire(*pTargetInstance));

  000a7	50		 push	 eax
  000a8	8b ce		 mov	 ecx, esi
  000aa	e8 00 00 00 00	 call	 ?IsSameEmpire@CInstanceBase@@QAEHAAV1@@Z ; CInstanceBase::IsSameEmpire
  000af	50		 push	 eax
  000b0	68 00 00 00 00	 push	 OFFSET ??_C@_01KBJDNOO@i@
  000b5	ff 15 00 00 00
	00		 call	 DWORD PTR __imp__Py_BuildValue
  000bb	83 c4 08	 add	 esp, 8
  000be	5e		 pop	 esi

; 199  : }

  000bf	8b e5		 mov	 esp, ebp
  000c1	5d		 pop	 ebp
  000c2	c3		 ret	 0
?playerIsSameEmpire@@YAPAU_object@@PAU1@0@Z ENDP	; playerIsSameEmpire
_TEXT	ENDS
; Function compile flags: /Ogtp
; File C:\Anka2Project\Anka2Project\Source\Binary\source\UserInterface\PythonPlayerModule.cpp
; File C:\Anka2Project\Anka2Project\Source\Binary\source\eterBase\Singleton.h
; File C:\Anka2Project\Anka2Project\Source\Binary\source\UserInterface\PythonPlayerModule.cpp
;	COMDAT ?playerIsChallengeInstance@@YAPAU_object@@PAU1@0@Z
_TEXT	SEGMENT
_iVID$ = -4						; size = 4
_poSelf$ = 8						; size = 4
_poArgs$ = 12						; size = 4
?playerIsChallengeInstance@@YAPAU_object@@PAU1@0@Z PROC	; playerIsChallengeInstance, COMDAT

; 202  : {

  00000	55		 push	 ebp
  00001	8b ec		 mov	 ebp, esp
  00003	51		 push	 ecx

; 203  : 	int iVID;
; 204  : 	if (!PyTuple_GetInteger(poArgs, 0, &iVID))

  00004	8d 45 fc	 lea	 eax, DWORD PTR _iVID$[ebp]
  00007	50		 push	 eax
  00008	6a 00		 push	 0
  0000a	ff 75 0c	 push	 DWORD PTR _poArgs$[ebp]
  0000d	e8 00 00 00 00	 call	 ?PyTuple_GetInteger@@YA_NPAU_object@@HPAH@Z ; PyTuple_GetInteger
  00012	83 c4 0c	 add	 esp, 12			; 0000000cH
  00015	84 c0		 test	 al, al
  00017	75 0e		 jne	 SHORT $LN2@playerIsCh

; 205  : 		return Py_BuildException();

  00019	6a 00		 push	 0
  0001b	e8 00 00 00 00	 call	 ?Py_BuildException@@YAPAU_object@@PBDZZ ; Py_BuildException
  00020	83 c4 04	 add	 esp, 4

; 208  : }

  00023	8b e5		 mov	 esp, ebp
  00025	5d		 pop	 ebp
  00026	c3		 ret	 0
$LN2@playerIsCh:
; File C:\Anka2Project\Anka2Project\Source\Binary\source\eterBase\Singleton.h

; 26   : 		assert(ms_singleton);

  00027	8b 0d 00 00 00
	00		 mov	 ecx, DWORD PTR ?ms_singleton@?$CSingleton@VCPythonPlayer@@@@0PAVCPythonPlayer@@A ; CSingleton<CPythonPlayer>::ms_singleton
  0002d	85 c9		 test	 ecx, ecx
  0002f	75 1a		 jne	 SHORT $LN6@playerIsCh
  00031	6a 1a		 push	 26			; 0000001aH
  00033	68 00 00 00 00	 push	 OFFSET ??_C@_1IO@CAJLEEOI@?$AAC?$AA?3?$AA?2?$AAA?$AAn?$AAk?$AAa?$AA2?$AAP?$AAr?$AAo?$AAj?$AAe?$AAc?$AAt@
  00038	68 00 00 00 00	 push	 OFFSET ??_C@_1BK@FMEHPMFE@?$AAm?$AAs?$AA_?$AAs?$AAi?$AAn?$AAg?$AAl?$AAe?$AAt?$AAo?$AAn@
  0003d	e8 00 00 00 00	 call	 __wassert
  00042	8b 0d 00 00 00
	00		 mov	 ecx, DWORD PTR ?ms_singleton@?$CSingleton@VCPythonPlayer@@@@0PAVCPythonPlayer@@A ; CSingleton<CPythonPlayer>::ms_singleton
  00048	83 c4 0c	 add	 esp, 12			; 0000000cH
$LN6@playerIsCh:
; File C:\Anka2Project\Anka2Project\Source\Binary\source\UserInterface\PythonPlayerModule.cpp

; 207  : 	return Py_BuildValue("i", CPythonPlayer::Instance().IsChallengeInstance(iVID));

  0004b	ff 75 fc	 push	 DWORD PTR _iVID$[ebp]
  0004e	e8 00 00 00 00	 call	 ?IsChallengeInstance@CPythonPlayer@@QAE_NK@Z ; CPythonPlayer::IsChallengeInstance
  00053	0f b6 c0	 movzx	 eax, al
  00056	50		 push	 eax
  00057	68 00 00 00 00	 push	 OFFSET ??_C@_01KBJDNOO@i@
  0005c	ff 15 00 00 00
	00		 call	 DWORD PTR __imp__Py_BuildValue
  00062	83 c4 08	 add	 esp, 8

; 208  : }

  00065	8b e5		 mov	 esp, ebp
  00067	5d		 pop	 ebp
  00068	c3		 ret	 0
?playerIsChallengeInstance@@YAPAU_object@@PAU1@0@Z ENDP	; playerIsChallengeInstance
_TEXT	ENDS
; Function compile flags: /Ogtp
; File C:\Anka2Project\Anka2Project\Source\Binary\source\UserInterface\PythonPlayerModule.cpp
; File C:\Anka2Project\Anka2Project\Source\Binary\source\eterBase\Singleton.h
; File C:\Anka2Project\Anka2Project\Source\Binary\source\UserInterface\PythonPlayerModule.cpp
;	COMDAT ?playerIsRevengeInstance@@YAPAU_object@@PAU1@0@Z
_TEXT	SEGMENT
_iVID$ = -4						; size = 4
_poSelf$ = 8						; size = 4
_poArgs$ = 12						; size = 4
?playerIsRevengeInstance@@YAPAU_object@@PAU1@0@Z PROC	; playerIsRevengeInstance, COMDAT

; 211  : {

  00000	55		 push	 ebp
  00001	8b ec		 mov	 ebp, esp
  00003	51		 push	 ecx

; 212  : 	int iVID;
; 213  : 	if (!PyTuple_GetInteger(poArgs, 0, &iVID))

  00004	8d 45 fc	 lea	 eax, DWORD PTR _iVID$[ebp]
  00007	50		 push	 eax
  00008	6a 00		 push	 0
  0000a	ff 75 0c	 push	 DWORD PTR _poArgs$[ebp]
  0000d	e8 00 00 00 00	 call	 ?PyTuple_GetInteger@@YA_NPAU_object@@HPAH@Z ; PyTuple_GetInteger
  00012	83 c4 0c	 add	 esp, 12			; 0000000cH
  00015	84 c0		 test	 al, al
  00017	75 0e		 jne	 SHORT $LN2@playerIsRe

; 214  : 		return Py_BuildException();

  00019	6a 00		 push	 0
  0001b	e8 00 00 00 00	 call	 ?Py_BuildException@@YAPAU_object@@PBDZZ ; Py_BuildException
  00020	83 c4 04	 add	 esp, 4

; 217  : }

  00023	8b e5		 mov	 esp, ebp
  00025	5d		 pop	 ebp
  00026	c3		 ret	 0
$LN2@playerIsRe:
; File C:\Anka2Project\Anka2Project\Source\Binary\source\eterBase\Singleton.h

; 26   : 		assert(ms_singleton);

  00027	8b 0d 00 00 00
	00		 mov	 ecx, DWORD PTR ?ms_singleton@?$CSingleton@VCPythonPlayer@@@@0PAVCPythonPlayer@@A ; CSingleton<CPythonPlayer>::ms_singleton
  0002d	85 c9		 test	 ecx, ecx
  0002f	75 1a		 jne	 SHORT $LN6@playerIsRe
  00031	6a 1a		 push	 26			; 0000001aH
  00033	68 00 00 00 00	 push	 OFFSET ??_C@_1IO@CAJLEEOI@?$AAC?$AA?3?$AA?2?$AAA?$AAn?$AAk?$AAa?$AA2?$AAP?$AAr?$AAo?$AAj?$AAe?$AAc?$AAt@
  00038	68 00 00 00 00	 push	 OFFSET ??_C@_1BK@FMEHPMFE@?$AAm?$AAs?$AA_?$AAs?$AAi?$AAn?$AAg?$AAl?$AAe?$AAt?$AAo?$AAn@
  0003d	e8 00 00 00 00	 call	 __wassert
  00042	8b 0d 00 00 00
	00		 mov	 ecx, DWORD PTR ?ms_singleton@?$CSingleton@VCPythonPlayer@@@@0PAVCPythonPlayer@@A ; CSingleton<CPythonPlayer>::ms_singleton
  00048	83 c4 0c	 add	 esp, 12			; 0000000cH
$LN6@playerIsRe:
; File C:\Anka2Project\Anka2Project\Source\Binary\source\UserInterface\PythonPlayerModule.cpp

; 216  : 	return Py_BuildValue("i", CPythonPlayer::Instance().IsRevengeInstance(iVID));

  0004b	ff 75 fc	 push	 DWORD PTR _iVID$[ebp]
  0004e	e8 00 00 00 00	 call	 ?IsRevengeInstance@CPythonPlayer@@QAE_NK@Z ; CPythonPlayer::IsRevengeInstance
  00053	0f b6 c0	 movzx	 eax, al
  00056	50		 push	 eax
  00057	68 00 00 00 00	 push	 OFFSET ??_C@_01KBJDNOO@i@
  0005c	ff 15 00 00 00
	00		 call	 DWORD PTR __imp__Py_BuildValue
  00062	83 c4 08	 add	 esp, 8

; 217  : }

  00065	8b e5		 mov	 esp, ebp
  00067	5d		 pop	 ebp
  00068	c3		 ret	 0
?playerIsRevengeInstance@@YAPAU_object@@PAU1@0@Z ENDP	; playerIsRevengeInstance
_TEXT	ENDS
; Function compile flags: /Ogtp
; File C:\Anka2Project\Anka2Project\Source\Binary\source\UserInterface\PythonPlayerModule.cpp
; File C:\Anka2Project\Anka2Project\Source\Binary\source\eterBase\Singleton.h
; File C:\Anka2Project\Anka2Project\Source\Binary\source\UserInterface\PythonPlayerModule.cpp
;	COMDAT ?playerIsCantFightInstance@@YAPAU_object@@PAU1@0@Z
_TEXT	SEGMENT
_iVID$ = -4						; size = 4
_poSelf$ = 8						; size = 4
_poArgs$ = 12						; size = 4
?playerIsCantFightInstance@@YAPAU_object@@PAU1@0@Z PROC	; playerIsCantFightInstance, COMDAT

; 220  : {

  00000	55		 push	 ebp
  00001	8b ec		 mov	 ebp, esp
  00003	51		 push	 ecx

; 221  : 	int iVID;
; 222  : 	if (!PyTuple_GetInteger(poArgs, 0, &iVID))

  00004	8d 45 fc	 lea	 eax, DWORD PTR _iVID$[ebp]
  00007	50		 push	 eax
  00008	6a 00		 push	 0
  0000a	ff 75 0c	 push	 DWORD PTR _poArgs$[ebp]
  0000d	e8 00 00 00 00	 call	 ?PyTuple_GetInteger@@YA_NPAU_object@@HPAH@Z ; PyTuple_GetInteger
  00012	83 c4 0c	 add	 esp, 12			; 0000000cH
  00015	84 c0		 test	 al, al
  00017	75 0e		 jne	 SHORT $LN2@playerIsCa

; 223  : 		return Py_BuildException();

  00019	6a 00		 push	 0
  0001b	e8 00 00 00 00	 call	 ?Py_BuildException@@YAPAU_object@@PBDZZ ; Py_BuildException
  00020	83 c4 04	 add	 esp, 4

; 226  : }

  00023	8b e5		 mov	 esp, ebp
  00025	5d		 pop	 ebp
  00026	c3		 ret	 0
$LN2@playerIsCa:
; File C:\Anka2Project\Anka2Project\Source\Binary\source\eterBase\Singleton.h

; 26   : 		assert(ms_singleton);

  00027	8b 0d 00 00 00
	00		 mov	 ecx, DWORD PTR ?ms_singleton@?$CSingleton@VCPythonPlayer@@@@0PAVCPythonPlayer@@A ; CSingleton<CPythonPlayer>::ms_singleton
  0002d	85 c9		 test	 ecx, ecx
  0002f	75 1a		 jne	 SHORT $LN6@playerIsCa
  00031	6a 1a		 push	 26			; 0000001aH
  00033	68 00 00 00 00	 push	 OFFSET ??_C@_1IO@CAJLEEOI@?$AAC?$AA?3?$AA?2?$AAA?$AAn?$AAk?$AAa?$AA2?$AAP?$AAr?$AAo?$AAj?$AAe?$AAc?$AAt@
  00038	68 00 00 00 00	 push	 OFFSET ??_C@_1BK@FMEHPMFE@?$AAm?$AAs?$AA_?$AAs?$AAi?$AAn?$AAg?$AAl?$AAe?$AAt?$AAo?$AAn@
  0003d	e8 00 00 00 00	 call	 __wassert
  00042	8b 0d 00 00 00
	00		 mov	 ecx, DWORD PTR ?ms_singleton@?$CSingleton@VCPythonPlayer@@@@0PAVCPythonPlayer@@A ; CSingleton<CPythonPlayer>::ms_singleton
  00048	83 c4 0c	 add	 esp, 12			; 0000000cH
$LN6@playerIsCa:
; File C:\Anka2Project\Anka2Project\Source\Binary\source\UserInterface\PythonPlayerModule.cpp

; 225  : 	return Py_BuildValue("i", CPythonPlayer::Instance().IsCantFightInstance(iVID));

  0004b	ff 75 fc	 push	 DWORD PTR _iVID$[ebp]
  0004e	e8 00 00 00 00	 call	 ?IsCantFightInstance@CPythonPlayer@@QAE_NK@Z ; CPythonPlayer::IsCantFightInstance
  00053	0f b6 c0	 movzx	 eax, al
  00056	50		 push	 eax
  00057	68 00 00 00 00	 push	 OFFSET ??_C@_01KBJDNOO@i@
  0005c	ff 15 00 00 00
	00		 call	 DWORD PTR __imp__Py_BuildValue
  00062	83 c4 08	 add	 esp, 8

; 226  : }

  00065	8b e5		 mov	 esp, ebp
  00067	5d		 pop	 ebp
  00068	c3		 ret	 0
?playerIsCantFightInstance@@YAPAU_object@@PAU1@0@Z ENDP	; playerIsCantFightInstance
_TEXT	ENDS
; Function compile flags: /Ogtp
; File C:\Anka2Project\Anka2Project\Source\Binary\source\UserInterface\PythonPlayerModule.cpp
; File C:\Anka2Project\Anka2Project\Source\Binary\source\eterBase\Singleton.h
; File C:\Anka2Project\Anka2Project\Source\Binary\source\UserInterface\PythonPlayerModule.cpp
; File C:\Anka2Project\Anka2Project\Source\Binary\source\eterBase\Singleton.h
; File C:\Anka2Project\Anka2Project\Source\Binary\source\UserInterface\PythonPlayerModule.cpp
; File C:\Anka2Project\Anka2Project\Source\Binary\source\eterBase\Singleton.h
; File C:\Anka2Project\Anka2Project\Source\Binary\source\UserInterface\PythonPlayerModule.cpp
;	COMDAT ?playerGetCharacterDistance@@YAPAU_object@@PAU1@0@Z
_TEXT	SEGMENT
_iVID$ = -4						; size = 4
_poSelf$ = 8						; size = 4
_poArgs$ = 12						; size = 4
?playerGetCharacterDistance@@YAPAU_object@@PAU1@0@Z PROC ; playerGetCharacterDistance, COMDAT

; 229  : {

  00000	55		 push	 ebp
  00001	8b ec		 mov	 ebp, esp
  00003	83 e4 c0	 and	 esp, -64		; ffffffc0H
  00006	83 ec 3c	 sub	 esp, 60			; 0000003cH

; 230  : 	int iVID;
; 231  : 	if (!PyTuple_GetInteger(poArgs, 0, &iVID))

  00009	8d 44 24 38	 lea	 eax, DWORD PTR _iVID$[esp+60]
  0000d	56		 push	 esi
  0000e	50		 push	 eax
  0000f	6a 00		 push	 0
  00011	ff 75 0c	 push	 DWORD PTR _poArgs$[ebp]
  00014	e8 00 00 00 00	 call	 ?PyTuple_GetInteger@@YA_NPAU_object@@HPAH@Z ; PyTuple_GetInteger
  00019	83 c4 0c	 add	 esp, 12			; 0000000cH
  0001c	84 c0		 test	 al, al
  0001e	75 0f		 jne	 SHORT $LN2@playerGetC

; 232  : 		return Py_BuildException();

  00020	6a 00		 push	 0
  00022	e8 00 00 00 00	 call	 ?Py_BuildException@@YAPAU_object@@PBDZZ ; Py_BuildException
  00027	83 c4 04	 add	 esp, 4

; 242  : }

  0002a	5e		 pop	 esi
  0002b	8b e5		 mov	 esp, ebp
  0002d	5d		 pop	 ebp
  0002e	c3		 ret	 0
$LN2@playerGetC:
; File C:\Anka2Project\Anka2Project\Source\Binary\source\eterBase\Singleton.h

; 26   : 		assert(ms_singleton);

  0002f	8b 0d 00 00 00
	00		 mov	 ecx, DWORD PTR ?ms_singleton@?$CSingleton@VCPythonPlayer@@@@0PAVCPythonPlayer@@A ; CSingleton<CPythonPlayer>::ms_singleton
  00035	85 c9		 test	 ecx, ecx
  00037	75 1a		 jne	 SHORT $LN8@playerGetC
  00039	6a 1a		 push	 26			; 0000001aH
  0003b	68 00 00 00 00	 push	 OFFSET ??_C@_1IO@CAJLEEOI@?$AAC?$AA?3?$AA?2?$AAA?$AAn?$AAk?$AAa?$AA2?$AAP?$AAr?$AAo?$AAj?$AAe?$AAc?$AAt@
  00040	68 00 00 00 00	 push	 OFFSET ??_C@_1BK@FMEHPMFE@?$AAm?$AAs?$AA_?$AAs?$AAi?$AAn?$AAg?$AAl?$AAe?$AAt?$AAo?$AAn@
  00045	e8 00 00 00 00	 call	 __wassert
  0004a	8b 0d 00 00 00
	00		 mov	 ecx, DWORD PTR ?ms_singleton@?$CSingleton@VCPythonPlayer@@@@0PAVCPythonPlayer@@A ; CSingleton<CPythonPlayer>::ms_singleton
  00050	83 c4 0c	 add	 esp, 12			; 0000000cH
$LN8@playerGetC:
; File C:\Anka2Project\Anka2Project\Source\Binary\source\UserInterface\PythonPlayerModule.cpp

; 234  : 	CInstanceBase * pMainInstance = CPythonPlayer::Instance().NEW_GetMainActorPtr();

  00053	8b 41 04	 mov	 eax, DWORD PTR [ecx+4]
  00056	83 c1 04	 add	 ecx, 4
  00059	ff 90 8c 00 00
	00		 call	 DWORD PTR [eax+140]
; File C:\Anka2Project\Anka2Project\Source\Binary\source\eterBase\Singleton.h

; 26   : 		assert(ms_singleton);

  0005f	8b 0d 00 00 00
	00		 mov	 ecx, DWORD PTR ?ms_singleton@?$CSingleton@VCPythonCharacterManager@@@@0PAVCPythonCharacterManager@@A ; CSingleton<CPythonCharacterManager>::ms_singleton
; File C:\Anka2Project\Anka2Project\Source\Binary\source\UserInterface\PythonPlayerModule.cpp

; 234  : 	CInstanceBase * pMainInstance = CPythonPlayer::Instance().NEW_GetMainActorPtr();

  00065	8b f0		 mov	 esi, eax
; File C:\Anka2Project\Anka2Project\Source\Binary\source\eterBase\Singleton.h

; 26   : 		assert(ms_singleton);

  00067	85 c9		 test	 ecx, ecx
  00069	75 1a		 jne	 SHORT $LN11@playerGetC
  0006b	6a 1a		 push	 26			; 0000001aH
  0006d	68 00 00 00 00	 push	 OFFSET ??_C@_1IO@CAJLEEOI@?$AAC?$AA?3?$AA?2?$AAA?$AAn?$AAk?$AAa?$AA2?$AAP?$AAr?$AAo?$AAj?$AAe?$AAc?$AAt@
  00072	68 00 00 00 00	 push	 OFFSET ??_C@_1BK@FMEHPMFE@?$AAm?$AAs?$AA_?$AAs?$AAi?$AAn?$AAg?$AAl?$AAe?$AAt?$AAo?$AAn@
  00077	e8 00 00 00 00	 call	 __wassert
  0007c	8b 0d 00 00 00
	00		 mov	 ecx, DWORD PTR ?ms_singleton@?$CSingleton@VCPythonCharacterManager@@@@0PAVCPythonCharacterManager@@A ; CSingleton<CPythonCharacterManager>::ms_singleton
  00082	83 c4 0c	 add	 esp, 12			; 0000000cH
$LN11@playerGetC:
; File C:\Anka2Project\Anka2Project\Source\Binary\source\UserInterface\PythonPlayerModule.cpp

; 235  : 	CInstanceBase * pTargetInstance = CPythonCharacterManager::Instance().GetInstancePtr(iVID);

  00085	8b 41 04	 mov	 eax, DWORD PTR [ecx+4]
  00088	83 c1 04	 add	 ecx, 4
  0008b	ff 74 24 3c	 push	 DWORD PTR _iVID$[esp+64]
  0008f	ff 50 08	 call	 DWORD PTR [eax+8]

; 236  : 	if (!pMainInstance)

  00092	85 f6		 test	 esi, esi
  00094	75 0a		 jne	 SHORT $LN3@playerGetC
$LN13@playerGetC:

; 242  : }

  00096	f2 0f 10 05 00
	00 00 00	 movsd	 xmm0, QWORD PTR __real@bff0000000000000
  0009e	eb 10		 jmp	 SHORT $LN12@playerGetC
$LN3@playerGetC:

; 237  : 		return Py_BuildValue("f", -1.0f);
; 238  : 	if (!pTargetInstance)

  000a0	85 c0		 test	 eax, eax
  000a2	74 f2		 je	 SHORT $LN13@playerGetC

; 239  : 		return Py_BuildValue("f", -1.0f);
; 240  : 
; 241  : 	return Py_BuildValue("f", pMainInstance->GetDistance(pTargetInstance));

  000a4	50		 push	 eax
  000a5	8b ce		 mov	 ecx, esi
  000a7	e8 00 00 00 00	 call	 ?GetDistance@CInstanceBase@@QAEMPAV1@@Z ; CInstanceBase::GetDistance
  000ac	f3 0f 5a c0	 cvtss2sd xmm0, xmm0
$LN12@playerGetC:

; 242  : }

  000b0	83 ec 08	 sub	 esp, 8
  000b3	f2 0f 11 04 24	 movsd	 QWORD PTR [esp], xmm0
  000b8	68 00 00 00 00	 push	 OFFSET ??_C@_01INIBCBCB@f@
  000bd	ff 15 00 00 00
	00		 call	 DWORD PTR __imp__Py_BuildValue
  000c3	83 c4 0c	 add	 esp, 12			; 0000000cH
  000c6	5e		 pop	 esi
  000c7	8b e5		 mov	 esp, ebp
  000c9	5d		 pop	 ebp
  000ca	c3		 ret	 0
?playerGetCharacterDistance@@YAPAU_object@@PAU1@0@Z ENDP ; playerGetCharacterDistance
_TEXT	ENDS
; Function compile flags: /Ogtp
; File C:\Anka2Project\Anka2Project\Source\Binary\source\UserInterface\PythonPlayerModule.cpp
; File C:\Anka2Project\Anka2Project\Source\Binary\source\eterBase\Singleton.h
; File C:\Anka2Project\Anka2Project\Source\Binary\source\UserInterface\PythonPlayerModule.cpp
;	COMDAT ?playerIsInSafeArea@@YAPAU_object@@PAU1@0@Z
_TEXT	SEGMENT
_poSelf$ = 8						; size = 4
_poArgs$ = 12						; size = 4
?playerIsInSafeArea@@YAPAU_object@@PAU1@0@Z PROC	; playerIsInSafeArea, COMDAT
; File C:\Anka2Project\Anka2Project\Source\Binary\source\eterBase\Singleton.h

; 26   : 		assert(ms_singleton);

  00000	8b 0d 00 00 00
	00		 mov	 ecx, DWORD PTR ?ms_singleton@?$CSingleton@VCPythonPlayer@@@@0PAVCPythonPlayer@@A ; CSingleton<CPythonPlayer>::ms_singleton
  00006	85 c9		 test	 ecx, ecx
  00008	75 1a		 jne	 SHORT $LN6@playerIsIn
  0000a	6a 1a		 push	 26			; 0000001aH
  0000c	68 00 00 00 00	 push	 OFFSET ??_C@_1IO@CAJLEEOI@?$AAC?$AA?3?$AA?2?$AAA?$AAn?$AAk?$AAa?$AA2?$AAP?$AAr?$AAo?$AAj?$AAe?$AAc?$AAt@
  00011	68 00 00 00 00	 push	 OFFSET ??_C@_1BK@FMEHPMFE@?$AAm?$AAs?$AA_?$AAs?$AAi?$AAn?$AAg?$AAl?$AAe?$AAt?$AAo?$AAn@
  00016	e8 00 00 00 00	 call	 __wassert
  0001b	8b 0d 00 00 00
	00		 mov	 ecx, DWORD PTR ?ms_singleton@?$CSingleton@VCPythonPlayer@@@@0PAVCPythonPlayer@@A ; CSingleton<CPythonPlayer>::ms_singleton
  00021	83 c4 0c	 add	 esp, 12			; 0000000cH
$LN6@playerIsIn:
; File C:\Anka2Project\Anka2Project\Source\Binary\source\UserInterface\PythonPlayerModule.cpp

; 246  : 	CInstanceBase * pMainInstance = CPythonPlayer::Instance().NEW_GetMainActorPtr();

  00024	8b 41 04	 mov	 eax, DWORD PTR [ecx+4]
  00027	83 c1 04	 add	 ecx, 4
  0002a	ff 90 8c 00 00
	00		 call	 DWORD PTR [eax+140]

; 247  : 	if (!pMainInstance)

  00030	85 c0		 test	 eax, eax
  00032	75 10		 jne	 SHORT $LN2@playerIsIn

; 248  : 		return Py_BuildValue("i", FALSE);

  00034	50		 push	 eax

; 251  : }

  00035	68 00 00 00 00	 push	 OFFSET ??_C@_01KBJDNOO@i@
  0003a	ff 15 00 00 00
	00		 call	 DWORD PTR __imp__Py_BuildValue
  00040	83 c4 08	 add	 esp, 8
  00043	c3		 ret	 0
$LN2@playerIsIn:

; 249  : 
; 250  : 	return Py_BuildValue("i", pMainInstance->IsInSafe());

  00044	8b c8		 mov	 ecx, eax
  00046	e8 00 00 00 00	 call	 ?IsInSafe@CInstanceBase@@QAEHXZ ; CInstanceBase::IsInSafe
  0004b	50		 push	 eax

; 251  : }

  0004c	68 00 00 00 00	 push	 OFFSET ??_C@_01KBJDNOO@i@
  00051	ff 15 00 00 00
	00		 call	 DWORD PTR __imp__Py_BuildValue
  00057	83 c4 08	 add	 esp, 8
  0005a	c3		 ret	 0
?playerIsInSafeArea@@YAPAU_object@@PAU1@0@Z ENDP	; playerIsInSafeArea
_TEXT	ENDS
; Function compile flags: /Ogtp
; File C:\Anka2Project\Anka2Project\Source\Binary\source\UserInterface\PythonPlayerModule.cpp
; File C:\Anka2Project\Anka2Project\Source\Binary\source\eterBase\Singleton.h
; File C:\Anka2Project\Anka2Project\Source\Binary\source\UserInterface\PythonPlayerModule.cpp
;	COMDAT ?playerIsMountingHorse@@YAPAU_object@@PAU1@0@Z
_TEXT	SEGMENT
_poSelf$ = 8						; size = 4
_poArgs$ = 12						; size = 4
?playerIsMountingHorse@@YAPAU_object@@PAU1@0@Z PROC	; playerIsMountingHorse, COMDAT
; File C:\Anka2Project\Anka2Project\Source\Binary\source\eterBase\Singleton.h

; 26   : 		assert(ms_singleton);

  00000	8b 0d 00 00 00
	00		 mov	 ecx, DWORD PTR ?ms_singleton@?$CSingleton@VCPythonPlayer@@@@0PAVCPythonPlayer@@A ; CSingleton<CPythonPlayer>::ms_singleton
  00006	85 c9		 test	 ecx, ecx
  00008	75 1a		 jne	 SHORT $LN6@playerIsMo
  0000a	6a 1a		 push	 26			; 0000001aH
  0000c	68 00 00 00 00	 push	 OFFSET ??_C@_1IO@CAJLEEOI@?$AAC?$AA?3?$AA?2?$AAA?$AAn?$AAk?$AAa?$AA2?$AAP?$AAr?$AAo?$AAj?$AAe?$AAc?$AAt@
  00011	68 00 00 00 00	 push	 OFFSET ??_C@_1BK@FMEHPMFE@?$AAm?$AAs?$AA_?$AAs?$AAi?$AAn?$AAg?$AAl?$AAe?$AAt?$AAo?$AAn@
  00016	e8 00 00 00 00	 call	 __wassert
  0001b	8b 0d 00 00 00
	00		 mov	 ecx, DWORD PTR ?ms_singleton@?$CSingleton@VCPythonPlayer@@@@0PAVCPythonPlayer@@A ; CSingleton<CPythonPlayer>::ms_singleton
  00021	83 c4 0c	 add	 esp, 12			; 0000000cH
$LN6@playerIsMo:
; File C:\Anka2Project\Anka2Project\Source\Binary\source\UserInterface\PythonPlayerModule.cpp

; 255  : 	CInstanceBase * pMainInstance = CPythonPlayer::Instance().NEW_GetMainActorPtr();

  00024	8b 41 04	 mov	 eax, DWORD PTR [ecx+4]
  00027	83 c1 04	 add	 ecx, 4
  0002a	ff 90 8c 00 00
	00		 call	 DWORD PTR [eax+140]

; 256  : 	if (!pMainInstance)

  00030	85 c0		 test	 eax, eax
  00032	75 10		 jne	 SHORT $LN2@playerIsMo

; 257  : 		return Py_BuildValue("i", FALSE);

  00034	50		 push	 eax

; 260  : }

  00035	68 00 00 00 00	 push	 OFFSET ??_C@_01KBJDNOO@i@
  0003a	ff 15 00 00 00
	00		 call	 DWORD PTR __imp__Py_BuildValue
  00040	83 c4 08	 add	 esp, 8
  00043	c3		 ret	 0
$LN2@playerIsMo:

; 258  : 
; 259  : 	return Py_BuildValue("i", pMainInstance->IsMountingHorse());

  00044	8b c8		 mov	 ecx, eax
  00046	e8 00 00 00 00	 call	 ?IsMountingHorse@CInstanceBase@@QAEHXZ ; CInstanceBase::IsMountingHorse
  0004b	50		 push	 eax

; 260  : }

  0004c	68 00 00 00 00	 push	 OFFSET ??_C@_01KBJDNOO@i@
  00051	ff 15 00 00 00
	00		 call	 DWORD PTR __imp__Py_BuildValue
  00057	83 c4 08	 add	 esp, 8
  0005a	c3		 ret	 0
?playerIsMountingHorse@@YAPAU_object@@PAU1@0@Z ENDP	; playerIsMountingHorse
_TEXT	ENDS
; Function compile flags: /Ogtp
; File C:\Anka2Project\Anka2Project\Source\Binary\source\UserInterface\PythonPlayerModule.cpp
; File C:\Anka2Project\Anka2Project\Source\Binary\source\eterBase\Singleton.h
; File C:\Anka2Project\Anka2Project\Source\Binary\source\UserInterface\PythonPlayerModule.cpp
;	COMDAT ?playerIsObserverMode@@YAPAU_object@@PAU1@0@Z
_TEXT	SEGMENT
_poSelf$ = 8						; size = 4
_poArgs$ = 12						; size = 4
?playerIsObserverMode@@YAPAU_object@@PAU1@0@Z PROC	; playerIsObserverMode, COMDAT
; File C:\Anka2Project\Anka2Project\Source\Binary\source\eterBase\Singleton.h

; 26   : 		assert(ms_singleton);

  00000	8b 0d 00 00 00
	00		 mov	 ecx, DWORD PTR ?ms_singleton@?$CSingleton@VCPythonPlayer@@@@0PAVCPythonPlayer@@A ; CSingleton<CPythonPlayer>::ms_singleton
  00006	85 c9		 test	 ecx, ecx
  00008	75 1a		 jne	 SHORT $LN5@playerIsOb
  0000a	6a 1a		 push	 26			; 0000001aH
  0000c	68 00 00 00 00	 push	 OFFSET ??_C@_1IO@CAJLEEOI@?$AAC?$AA?3?$AA?2?$AAA?$AAn?$AAk?$AAa?$AA2?$AAP?$AAr?$AAo?$AAj?$AAe?$AAc?$AAt@
  00011	68 00 00 00 00	 push	 OFFSET ??_C@_1BK@FMEHPMFE@?$AAm?$AAs?$AA_?$AAs?$AAi?$AAn?$AAg?$AAl?$AAe?$AAt?$AAo?$AAn@
  00016	e8 00 00 00 00	 call	 __wassert
  0001b	8b 0d 00 00 00
	00		 mov	 ecx, DWORD PTR ?ms_singleton@?$CSingleton@VCPythonPlayer@@@@0PAVCPythonPlayer@@A ; CSingleton<CPythonPlayer>::ms_singleton
  00021	83 c4 0c	 add	 esp, 12			; 0000000cH
$LN5@playerIsOb:
; File C:\Anka2Project\Anka2Project\Source\Binary\source\UserInterface\PythonPlayerModule.cpp

; 265  : 	return Py_BuildValue("i", rkPlayer.IsObserverMode());

  00024	e8 00 00 00 00	 call	 ?IsObserverMode@CPythonPlayer@@QAE_NXZ ; CPythonPlayer::IsObserverMode
  00029	0f b6 c0	 movzx	 eax, al
  0002c	50		 push	 eax
  0002d	68 00 00 00 00	 push	 OFFSET ??_C@_01KBJDNOO@i@
  00032	ff 15 00 00 00
	00		 call	 DWORD PTR __imp__Py_BuildValue
  00038	83 c4 08	 add	 esp, 8

; 266  : }

  0003b	c3		 ret	 0
?playerIsObserverMode@@YAPAU_object@@PAU1@0@Z ENDP	; playerIsObserverMode
_TEXT	ENDS
; Function compile flags: /Ogtp
; File C:\Anka2Project\Anka2Project\Source\Binary\source\UserInterface\PythonPlayerModule.cpp
; File C:\Anka2Project\Anka2Project\Source\Binary\source\eterBase\Singleton.h
; File C:\Anka2Project\Anka2Project\Source\Binary\source\UserInterface\PythonPlayerModule.cpp
;	COMDAT ?playerGetMouseFunc@@YAPAU_object@@PAU1@0@Z
_TEXT	SEGMENT
_eMBT$ = -4						; size = 4
_poSelf$ = 8						; size = 4
_poArgs$ = 12						; size = 4
?playerGetMouseFunc@@YAPAU_object@@PAU1@0@Z PROC	; playerGetMouseFunc, COMDAT

; 430  : {

  00000	55		 push	 ebp
  00001	8b ec		 mov	 ebp, esp
  00003	51		 push	 ecx

; 431  : 	int eMBT;
; 432  : 	if (!PyTuple_GetInteger(poArgs, 0, &eMBT))

  00004	8d 45 fc	 lea	 eax, DWORD PTR _eMBT$[ebp]
  00007	50		 push	 eax
  00008	6a 00		 push	 0
  0000a	ff 75 0c	 push	 DWORD PTR _poArgs$[ebp]
  0000d	e8 00 00 00 00	 call	 ?PyTuple_GetInteger@@YA_NPAU_object@@HPAH@Z ; PyTuple_GetInteger
  00012	83 c4 0c	 add	 esp, 12			; 0000000cH
  00015	84 c0		 test	 al, al
  00017	75 0e		 jne	 SHORT $LN2@playerGetM

; 433  : 		return Py_BuildException();	

  00019	6a 00		 push	 0
  0001b	e8 00 00 00 00	 call	 ?Py_BuildException@@YAPAU_object@@PBDZZ ; Py_BuildException
  00020	83 c4 04	 add	 esp, 4

; 437  : }

  00023	8b e5		 mov	 esp, ebp
  00025	5d		 pop	 ebp
  00026	c3		 ret	 0
$LN2@playerGetM:
; File C:\Anka2Project\Anka2Project\Source\Binary\source\eterBase\Singleton.h

; 26   : 		assert(ms_singleton);

  00027	8b 0d 00 00 00
	00		 mov	 ecx, DWORD PTR ?ms_singleton@?$CSingleton@VCPythonPlayer@@@@0PAVCPythonPlayer@@A ; CSingleton<CPythonPlayer>::ms_singleton
  0002d	85 c9		 test	 ecx, ecx
  0002f	75 1a		 jne	 SHORT $LN6@playerGetM
  00031	6a 1a		 push	 26			; 0000001aH
  00033	68 00 00 00 00	 push	 OFFSET ??_C@_1IO@CAJLEEOI@?$AAC?$AA?3?$AA?2?$AAA?$AAn?$AAk?$AAa?$AA2?$AAP?$AAr?$AAo?$AAj?$AAe?$AAc?$AAt@
  00038	68 00 00 00 00	 push	 OFFSET ??_C@_1BK@FMEHPMFE@?$AAm?$AAs?$AA_?$AAs?$AAi?$AAn?$AAg?$AAl?$AAe?$AAt?$AAo?$AAn@
  0003d	e8 00 00 00 00	 call	 __wassert
  00042	8b 0d 00 00 00
	00		 mov	 ecx, DWORD PTR ?ms_singleton@?$CSingleton@VCPythonPlayer@@@@0PAVCPythonPlayer@@A ; CSingleton<CPythonPlayer>::ms_singleton
  00048	83 c4 0c	 add	 esp, 12			; 0000000cH
$LN6@playerGetM:
; File C:\Anka2Project\Anka2Project\Source\Binary\source\UserInterface\PythonPlayerModule.cpp

; 436  : 	return Py_BuildValue("i", rkPlayer.NEW_GetMouseFunc(eMBT));

  0004b	ff 75 fc	 push	 DWORD PTR _eMBT$[ebp]
  0004e	e8 00 00 00 00	 call	 ?NEW_GetMouseFunc@CPythonPlayer@@QAEHH@Z ; CPythonPlayer::NEW_GetMouseFunc
  00053	50		 push	 eax
  00054	68 00 00 00 00	 push	 OFFSET ??_C@_01KBJDNOO@i@
  00059	ff 15 00 00 00
	00		 call	 DWORD PTR __imp__Py_BuildValue
  0005f	83 c4 08	 add	 esp, 8

; 437  : }

  00062	8b e5		 mov	 esp, ebp
  00064	5d		 pop	 ebp
  00065	c3		 ret	 0
?playerGetMouseFunc@@YAPAU_object@@PAU1@0@Z ENDP	; playerGetMouseFunc
_TEXT	ENDS
; Function compile flags: /Ogtp
; File C:\Anka2Project\Anka2Project\Source\Binary\source\UserInterface\PythonPlayerModule.cpp
; File C:\Anka2Project\Anka2Project\Source\Binary\source\eterBase\Singleton.h
; File C:\Anka2Project\Anka2Project\Source\Binary\source\UserInterface\PythonPlayerModule.cpp
;	COMDAT ?playerGetName@@YAPAU_object@@PAU1@0@Z
_TEXT	SEGMENT
_poSelf$ = 8						; size = 4
_poArgs$ = 12						; size = 4
?playerGetName@@YAPAU_object@@PAU1@0@Z PROC		; playerGetName, COMDAT
; File C:\Anka2Project\Anka2Project\Source\Binary\source\eterBase\Singleton.h

; 26   : 		assert(ms_singleton);

  00000	8b 0d 00 00 00
	00		 mov	 ecx, DWORD PTR ?ms_singleton@?$CSingleton@VCPythonPlayer@@@@0PAVCPythonPlayer@@A ; CSingleton<CPythonPlayer>::ms_singleton
  00006	85 c9		 test	 ecx, ecx
  00008	75 1a		 jne	 SHORT $LN5@playerGetN
  0000a	6a 1a		 push	 26			; 0000001aH
  0000c	68 00 00 00 00	 push	 OFFSET ??_C@_1IO@CAJLEEOI@?$AAC?$AA?3?$AA?2?$AAA?$AAn?$AAk?$AAa?$AA2?$AAP?$AAr?$AAo?$AAj?$AAe?$AAc?$AAt@
  00011	68 00 00 00 00	 push	 OFFSET ??_C@_1BK@FMEHPMFE@?$AAm?$AAs?$AA_?$AAs?$AAi?$AAn?$AAg?$AAl?$AAe?$AAt?$AAo?$AAn@
  00016	e8 00 00 00 00	 call	 __wassert
  0001b	8b 0d 00 00 00
	00		 mov	 ecx, DWORD PTR ?ms_singleton@?$CSingleton@VCPythonPlayer@@@@0PAVCPythonPlayer@@A ; CSingleton<CPythonPlayer>::ms_singleton
  00021	83 c4 0c	 add	 esp, 12			; 0000000cH
$LN5@playerGetN:
; File C:\Anka2Project\Anka2Project\Source\Binary\source\UserInterface\PythonPlayerModule.cpp

; 453  : 	return Py_BuildValue("s", CPythonPlayer::Instance().GetName()); 

  00024	8b 41 04	 mov	 eax, DWORD PTR [ecx+4]
  00027	83 c1 04	 add	 ecx, 4
  0002a	ff 50 14	 call	 DWORD PTR [eax+20]
  0002d	50		 push	 eax
  0002e	68 00 00 00 00	 push	 OFFSET ??_C@_01LKDEMHDF@s@
  00033	ff 15 00 00 00
	00		 call	 DWORD PTR __imp__Py_BuildValue
  00039	83 c4 08	 add	 esp, 8

; 454  : }

  0003c	c3		 ret	 0
?playerGetName@@YAPAU_object@@PAU1@0@Z ENDP		; playerGetName
_TEXT	ENDS
; Function compile flags: /Ogtp
; File C:\Anka2Project\Anka2Project\Source\Binary\source\UserInterface\PythonPlayerModule.cpp
; File C:\Anka2Project\Anka2Project\Source\Binary\source\eterBase\Singleton.h
; File C:\Anka2Project\Anka2Project\Source\Binary\source\UserInterface\PythonPlayerModule.cpp
;	COMDAT ?playerGetRace@@YAPAU_object@@PAU1@0@Z
_TEXT	SEGMENT
_poSelf$ = 8						; size = 4
_poArgs$ = 12						; size = 4
?playerGetRace@@YAPAU_object@@PAU1@0@Z PROC		; playerGetRace, COMDAT
; File C:\Anka2Project\Anka2Project\Source\Binary\source\eterBase\Singleton.h

; 26   : 		assert(ms_singleton);

  00000	8b 0d 00 00 00
	00		 mov	 ecx, DWORD PTR ?ms_singleton@?$CSingleton@VCPythonPlayer@@@@0PAVCPythonPlayer@@A ; CSingleton<CPythonPlayer>::ms_singleton
  00006	85 c9		 test	 ecx, ecx
  00008	75 1a		 jne	 SHORT $LN5@playerGetR
  0000a	6a 1a		 push	 26			; 0000001aH
  0000c	68 00 00 00 00	 push	 OFFSET ??_C@_1IO@CAJLEEOI@?$AAC?$AA?3?$AA?2?$AAA?$AAn?$AAk?$AAa?$AA2?$AAP?$AAr?$AAo?$AAj?$AAe?$AAc?$AAt@
  00011	68 00 00 00 00	 push	 OFFSET ??_C@_1BK@FMEHPMFE@?$AAm?$AAs?$AA_?$AAs?$AAi?$AAn?$AAg?$AAl?$AAe?$AAt?$AAo?$AAn@
  00016	e8 00 00 00 00	 call	 __wassert
  0001b	8b 0d 00 00 00
	00		 mov	 ecx, DWORD PTR ?ms_singleton@?$CSingleton@VCPythonPlayer@@@@0PAVCPythonPlayer@@A ; CSingleton<CPythonPlayer>::ms_singleton
  00021	83 c4 0c	 add	 esp, 12			; 0000000cH
$LN5@playerGetR:
; File C:\Anka2Project\Anka2Project\Source\Binary\source\UserInterface\PythonPlayerModule.cpp

; 458  : 	return Py_BuildValue("i", CPythonPlayer::Instance().GetRace());

  00024	e8 00 00 00 00	 call	 ?GetRace@CPythonPlayer@@QAEKXZ ; CPythonPlayer::GetRace
  00029	50		 push	 eax
  0002a	68 00 00 00 00	 push	 OFFSET ??_C@_01KBJDNOO@i@
  0002f	ff 15 00 00 00
	00		 call	 DWORD PTR __imp__Py_BuildValue
  00035	83 c4 08	 add	 esp, 8

; 459  : }

  00038	c3		 ret	 0
?playerGetRace@@YAPAU_object@@PAU1@0@Z ENDP		; playerGetRace
_TEXT	ENDS
; Function compile flags: /Ogtp
; File C:\Anka2Project\Anka2Project\Source\Binary\source\UserInterface\PythonPlayerModule.cpp
; File C:\Anka2Project\Anka2Project\Source\Binary\source\eterBase\Singleton.h
; File C:\Anka2Project\Anka2Project\Source\Binary\source\UserInterface\PythonPlayerModule.cpp
; File C:\Anka2Project\Anka2Project\Source\Binary\source\UserInterface\InstanceBase.h
; File C:\Anka2Project\Anka2Project\Source\Binary\source\UserInterface\PythonPlayerModule.cpp
;	COMDAT ?playerGetJob@@YAPAU_object@@PAU1@0@Z
_TEXT	SEGMENT
_poSelf$ = 8						; size = 4
_poArgs$ = 12						; size = 4
?playerGetJob@@YAPAU_object@@PAU1@0@Z PROC		; playerGetJob, COMDAT
; File C:\Anka2Project\Anka2Project\Source\Binary\source\eterBase\Singleton.h

; 26   : 		assert(ms_singleton);

  00000	8b 0d 00 00 00
	00		 mov	 ecx, DWORD PTR ?ms_singleton@?$CSingleton@VCPythonPlayer@@@@0PAVCPythonPlayer@@A ; CSingleton<CPythonPlayer>::ms_singleton
  00006	85 c9		 test	 ecx, ecx
  00008	75 1a		 jne	 SHORT $LN5@playerGetJ
  0000a	6a 1a		 push	 26			; 0000001aH
  0000c	68 00 00 00 00	 push	 OFFSET ??_C@_1IO@CAJLEEOI@?$AAC?$AA?3?$AA?2?$AAA?$AAn?$AAk?$AAa?$AA2?$AAP?$AAr?$AAo?$AAj?$AAe?$AAc?$AAt@
  00011	68 00 00 00 00	 push	 OFFSET ??_C@_1BK@FMEHPMFE@?$AAm?$AAs?$AA_?$AAs?$AAi?$AAn?$AAg?$AAl?$AAe?$AAt?$AAo?$AAn@
  00016	e8 00 00 00 00	 call	 __wassert
  0001b	8b 0d 00 00 00
	00		 mov	 ecx, DWORD PTR ?ms_singleton@?$CSingleton@VCPythonPlayer@@@@0PAVCPythonPlayer@@A ; CSingleton<CPythonPlayer>::ms_singleton
  00021	83 c4 0c	 add	 esp, 12			; 0000000cH
$LN5@playerGetJ:
; File C:\Anka2Project\Anka2Project\Source\Binary\source\UserInterface\PythonPlayerModule.cpp

; 463  : 	int race = CPythonPlayer::Instance().GetRace();

  00024	e8 00 00 00 00	 call	 ?GetRace@CPythonPlayer@@QAEKXZ ; CPythonPlayer::GetRace
; File C:\Anka2Project\Anka2Project\Source\Binary\source\UserInterface\InstanceBase.h

; 1425 : 	return race % JOB_NUM;

  00029	25 03 00 00 80	 and	 eax, -2147483645	; 80000003H
  0002e	79 05		 jns	 SHORT $LN8@playerGetJ
  00030	48		 dec	 eax
  00031	83 c8 fc	 or	 eax, -4			; fffffffcH
  00034	40		 inc	 eax
$LN8@playerGetJ:
; File C:\Anka2Project\Anka2Project\Source\Binary\source\UserInterface\PythonPlayerModule.cpp

; 465  : 	return Py_BuildValue("i", job);

  00035	50		 push	 eax
  00036	68 00 00 00 00	 push	 OFFSET ??_C@_01KBJDNOO@i@
  0003b	ff 15 00 00 00
	00		 call	 DWORD PTR __imp__Py_BuildValue
  00041	83 c4 08	 add	 esp, 8

; 466  : }

  00044	c3		 ret	 0
?playerGetJob@@YAPAU_object@@PAU1@0@Z ENDP		; playerGetJob
_TEXT	ENDS
; Function compile flags: /Ogtp
; File C:\Anka2Project\Anka2Project\Source\Binary\source\UserInterface\PythonPlayerModule.cpp
; File C:\Anka2Project\Anka2Project\Source\Binary\source\eterBase\Singleton.h
; File C:\Anka2Project\Anka2Project\Source\Binary\source\UserInterface\PythonPlayerModule.cpp
;	COMDAT ?playerGetPlayTime@@YAPAU_object@@PAU1@0@Z
_TEXT	SEGMENT
_poSelf$ = 8						; size = 4
_poArgs$ = 12						; size = 4
?playerGetPlayTime@@YAPAU_object@@PAU1@0@Z PROC		; playerGetPlayTime, COMDAT
; File C:\Anka2Project\Anka2Project\Source\Binary\source\eterBase\Singleton.h

; 26   : 		assert(ms_singleton);

  00000	8b 0d 00 00 00
	00		 mov	 ecx, DWORD PTR ?ms_singleton@?$CSingleton@VCPythonPlayer@@@@0PAVCPythonPlayer@@A ; CSingleton<CPythonPlayer>::ms_singleton
  00006	85 c9		 test	 ecx, ecx
  00008	75 1a		 jne	 SHORT $LN5@playerGetP
  0000a	6a 1a		 push	 26			; 0000001aH
  0000c	68 00 00 00 00	 push	 OFFSET ??_C@_1IO@CAJLEEOI@?$AAC?$AA?3?$AA?2?$AAA?$AAn?$AAk?$AAa?$AA2?$AAP?$AAr?$AAo?$AAj?$AAe?$AAc?$AAt@
  00011	68 00 00 00 00	 push	 OFFSET ??_C@_1BK@FMEHPMFE@?$AAm?$AAs?$AA_?$AAs?$AAi?$AAn?$AAg?$AAl?$AAe?$AAt?$AAo?$AAn@
  00016	e8 00 00 00 00	 call	 __wassert
  0001b	8b 0d 00 00 00
	00		 mov	 ecx, DWORD PTR ?ms_singleton@?$CSingleton@VCPythonPlayer@@@@0PAVCPythonPlayer@@A ; CSingleton<CPythonPlayer>::ms_singleton
  00021	83 c4 0c	 add	 esp, 12			; 0000000cH
$LN5@playerGetP:
; File C:\Anka2Project\Anka2Project\Source\Binary\source\UserInterface\PythonPlayerModule.cpp

; 470  : 	return Py_BuildValue("i", CPythonPlayer::Instance().GetPlayTime()); 

  00024	e8 00 00 00 00	 call	 ?GetPlayTime@CPythonPlayer@@QAEKXZ ; CPythonPlayer::GetPlayTime
  00029	50		 push	 eax
  0002a	68 00 00 00 00	 push	 OFFSET ??_C@_01KBJDNOO@i@
  0002f	ff 15 00 00 00
	00		 call	 DWORD PTR __imp__Py_BuildValue
  00035	83 c4 08	 add	 esp, 8

; 471  : }

  00038	c3		 ret	 0
?playerGetPlayTime@@YAPAU_object@@PAU1@0@Z ENDP		; playerGetPlayTime
_TEXT	ENDS
; Function compile flags: /Ogtp
; File C:\Anka2Project\Anka2Project\Source\Binary\source\UserInterface\PythonPlayerModule.cpp
; File C:\Anka2Project\Anka2Project\Source\Binary\source\eterBase\Singleton.h
; File C:\Anka2Project\Anka2Project\Source\Binary\source\UserInterface\PythonPlayerModule.cpp
;	COMDAT ?playerIsSkillCoolTime@@YAPAU_object@@PAU1@0@Z
_TEXT	SEGMENT
_iSlotIndex$ = -4					; size = 4
_poSelf$ = 8						; size = 4
_poArgs$ = 12						; size = 4
?playerIsSkillCoolTime@@YAPAU_object@@PAU1@0@Z PROC	; playerIsSkillCoolTime, COMDAT

; 484  : {

  00000	55		 push	 ebp
  00001	8b ec		 mov	 ebp, esp
  00003	51		 push	 ecx

; 485  : 	int iSlotIndex;
; 486  : 	if (!PyTuple_GetInteger(poArgs, 0, &iSlotIndex))

  00004	8d 45 fc	 lea	 eax, DWORD PTR _iSlotIndex$[ebp]
  00007	50		 push	 eax
  00008	6a 00		 push	 0
  0000a	ff 75 0c	 push	 DWORD PTR _poArgs$[ebp]
  0000d	e8 00 00 00 00	 call	 ?PyTuple_GetInteger@@YA_NPAU_object@@HPAH@Z ; PyTuple_GetInteger
  00012	83 c4 0c	 add	 esp, 12			; 0000000cH
  00015	84 c0		 test	 al, al
  00017	75 0e		 jne	 SHORT $LN2@playerIsSk

; 487  : 		return Py_BuildException();

  00019	6a 00		 push	 0
  0001b	e8 00 00 00 00	 call	 ?Py_BuildException@@YAPAU_object@@PBDZZ ; Py_BuildException
  00020	83 c4 04	 add	 esp, 4

; 490  : }

  00023	8b e5		 mov	 esp, ebp
  00025	5d		 pop	 ebp
  00026	c3		 ret	 0
$LN2@playerIsSk:
; File C:\Anka2Project\Anka2Project\Source\Binary\source\eterBase\Singleton.h

; 26   : 		assert(ms_singleton);

  00027	8b 0d 00 00 00
	00		 mov	 ecx, DWORD PTR ?ms_singleton@?$CSingleton@VCPythonPlayer@@@@0PAVCPythonPlayer@@A ; CSingleton<CPythonPlayer>::ms_singleton
  0002d	85 c9		 test	 ecx, ecx
  0002f	75 1a		 jne	 SHORT $LN6@playerIsSk
  00031	6a 1a		 push	 26			; 0000001aH
  00033	68 00 00 00 00	 push	 OFFSET ??_C@_1IO@CAJLEEOI@?$AAC?$AA?3?$AA?2?$AAA?$AAn?$AAk?$AAa?$AA2?$AAP?$AAr?$AAo?$AAj?$AAe?$AAc?$AAt@
  00038	68 00 00 00 00	 push	 OFFSET ??_C@_1BK@FMEHPMFE@?$AAm?$AAs?$AA_?$AAs?$AAi?$AAn?$AAg?$AAl?$AAe?$AAt?$AAo?$AAn@
  0003d	e8 00 00 00 00	 call	 __wassert
  00042	8b 0d 00 00 00
	00		 mov	 ecx, DWORD PTR ?ms_singleton@?$CSingleton@VCPythonPlayer@@@@0PAVCPythonPlayer@@A ; CSingleton<CPythonPlayer>::ms_singleton
  00048	83 c4 0c	 add	 esp, 12			; 0000000cH
$LN6@playerIsSk:
; File C:\Anka2Project\Anka2Project\Source\Binary\source\UserInterface\PythonPlayerModule.cpp

; 489  : 	return Py_BuildValue("i", CPythonPlayer::Instance().IsSkillCoolTime(iSlotIndex));

  0004b	ff 75 fc	 push	 DWORD PTR _iSlotIndex$[ebp]
  0004e	e8 00 00 00 00	 call	 ?IsSkillCoolTime@CPythonPlayer@@QAEHK@Z ; CPythonPlayer::IsSkillCoolTime
  00053	50		 push	 eax
  00054	68 00 00 00 00	 push	 OFFSET ??_C@_01KBJDNOO@i@
  00059	ff 15 00 00 00
	00		 call	 DWORD PTR __imp__Py_BuildValue
  0005f	83 c4 08	 add	 esp, 8

; 490  : }

  00062	8b e5		 mov	 esp, ebp
  00064	5d		 pop	 ebp
  00065	c3		 ret	 0
?playerIsSkillCoolTime@@YAPAU_object@@PAU1@0@Z ENDP	; playerIsSkillCoolTime
_TEXT	ENDS
; Function compile flags: /Ogtp
; File C:\Anka2Project\Anka2Project\Source\Binary\source\UserInterface\PythonPlayerModule.cpp
; File C:\Anka2Project\Anka2Project\Source\Binary\source\UserInterface\GameType.h
; File C:\Anka2Project\Anka2Project\Source\Binary\source\UserInterface\PythonPlayerModule.cpp
; File C:\Anka2Project\Anka2Project\Source\Binary\source\UserInterface\GameType.h
; File C:\Anka2Project\Anka2Project\Source\Binary\source\UserInterface\PythonPlayerModule.cpp
; File C:\Anka2Project\Anka2Project\Source\Binary\source\eterBase\Singleton.h
; File C:\Anka2Project\Anka2Project\Source\Binary\source\UserInterface\PythonPlayerModule.cpp
;	COMDAT ?playerIsAntiFlagBySlot@@YAPAU_object@@PAU1@0@Z
_TEXT	SEGMENT
_antiflag$ = -8						; size = 4
_Cell$ = -4						; size = 3
_poSelf$ = 8						; size = 4
_poArgs$ = 12						; size = 4
?playerIsAntiFlagBySlot@@YAPAU_object@@PAU1@0@Z PROC	; playerIsAntiFlagBySlot, COMDAT

; 493  : {

  00000	55		 push	 ebp
  00001	8b ec		 mov	 ebp, esp
  00003	83 ec 08	 sub	 esp, 8
  00006	56		 push	 esi

; 496  : 	switch (PyTuple_Size(poArgs))

  00007	8b 75 0c	 mov	 esi, DWORD PTR _poArgs$[ebp]
; File C:\Anka2Project\Anka2Project\Source\Binary\source\UserInterface\GameType.h

; 448  : 		cell = WORD_MAX;

  0000a	b8 ff ff 00 00	 mov	 eax, 65535		; 0000ffffH
; File C:\Anka2Project\Anka2Project\Source\Binary\source\UserInterface\PythonPlayerModule.cpp

; 496  : 	switch (PyTuple_Size(poArgs))

  0000f	56		 push	 esi
; File C:\Anka2Project\Anka2Project\Source\Binary\source\UserInterface\GameType.h

; 447  : 		window_type = INVENTORY;

  00010	c6 45 fc 01	 mov	 BYTE PTR _Cell$[ebp], 1

; 448  : 		cell = WORD_MAX;

  00014	66 89 45 fd	 mov	 WORD PTR _Cell$[ebp+1], ax
; File C:\Anka2Project\Anka2Project\Source\Binary\source\UserInterface\PythonPlayerModule.cpp

; 496  : 	switch (PyTuple_Size(poArgs))

  00018	ff 15 00 00 00
	00		 call	 DWORD PTR __imp__PyTuple_Size
  0001e	83 c4 04	 add	 esp, 4
  00021	83 e8 02	 sub	 eax, 2
  00024	74 57		 je	 SHORT $LN4@playerIsAn
  00026	83 e8 01	 sub	 eax, 1
  00029	74 0f		 je	 SHORT $LN7@playerIsAn

; 511  : 				return Py_BadArgument();
; 512  : 			break;
; 513  : 
; 514  : 		default:
; 515  : 			return Py_BuildException();

  0002b	6a 00		 push	 0
  0002d	e8 00 00 00 00	 call	 ?Py_BuildException@@YAPAU_object@@PBDZZ ; Py_BuildException
  00032	83 c4 04	 add	 esp, 4

; 520  : }

  00035	5e		 pop	 esi
  00036	8b e5		 mov	 esp, ebp
  00038	5d		 pop	 ebp
  00039	c3		 ret	 0
$LN7@playerIsAn:

; 502  : 				return Py_BadArgument();
; 503  : 			break;
; 504  : 
; 505  : 		case 3:
; 506  : 			if (!PyTuple_GetInteger(poArgs, 0, &Cell.window_type))

  0003a	8d 45 fc	 lea	 eax, DWORD PTR _Cell$[ebp]
  0003d	50		 push	 eax
  0003e	6a 00		 push	 0
  00040	56		 push	 esi
  00041	e8 00 00 00 00	 call	 ?PyTuple_GetInteger@@YA_NPAU_object@@HPAE@Z ; PyTuple_GetInteger
  00046	83 c4 0c	 add	 esp, 12			; 0000000cH
  00049	84 c0		 test	 al, al
  0004b	74 26		 je	 SHORT $LN26@playerIsAn

; 507  : 				return Py_BadArgument();
; 508  : 			if (!PyTuple_GetInteger(poArgs, 1, &Cell.cell))

  0004d	8d 45 fd	 lea	 eax, DWORD PTR _Cell$[ebp+1]
  00050	50		 push	 eax
  00051	6a 01		 push	 1
  00053	56		 push	 esi
  00054	e8 00 00 00 00	 call	 ?PyTuple_GetInteger@@YA_NPAU_object@@HPAG@Z ; PyTuple_GetInteger
  00059	83 c4 0c	 add	 esp, 12			; 0000000cH
  0005c	84 c0		 test	 al, al
  0005e	74 13		 je	 SHORT $LN26@playerIsAn

; 509  : 				return Py_BadArgument();
; 510  : 			if (!PyTuple_GetInteger(poArgs, 2, &antiflag))

  00060	8d 45 f8	 lea	 eax, DWORD PTR _antiflag$[ebp]
  00063	50		 push	 eax
  00064	6a 02		 push	 2
  00066	56		 push	 esi
  00067	e8 00 00 00 00	 call	 ?PyTuple_GetInteger@@YA_NPAU_object@@HPAH@Z ; PyTuple_GetInteger
  0006c	83 c4 0c	 add	 esp, 12			; 0000000cH
  0006f	84 c0		 test	 al, al
  00071	75 30		 jne	 SHORT $LN6@playerIsAn
$LN26@playerIsAn:

; 520  : }

  00073	e8 00 00 00 00	 call	 ?Py_BadArgument@@YAPAU_object@@XZ ; Py_BadArgument
  00078	5e		 pop	 esi
  00079	8b e5		 mov	 esp, ebp
  0007b	5d		 pop	 ebp
  0007c	c3		 ret	 0
$LN4@playerIsAn:

; 497  : 	{
; 498  : 		case 2:
; 499  : 			if (!PyTuple_GetInteger(poArgs, 0, &Cell.cell))

  0007d	8d 45 fd	 lea	 eax, DWORD PTR _Cell$[ebp+1]
  00080	50		 push	 eax
  00081	6a 00		 push	 0
  00083	56		 push	 esi
  00084	e8 00 00 00 00	 call	 ?PyTuple_GetInteger@@YA_NPAU_object@@HPAG@Z ; PyTuple_GetInteger
  00089	83 c4 0c	 add	 esp, 12			; 0000000cH
  0008c	84 c0		 test	 al, al
  0008e	74 e3		 je	 SHORT $LN26@playerIsAn

; 500  : 				return Py_BadArgument();
; 501  : 			if (!PyTuple_GetInteger(poArgs, 1, &antiflag))

  00090	8d 45 f8	 lea	 eax, DWORD PTR _antiflag$[ebp]
  00093	50		 push	 eax
  00094	6a 01		 push	 1
  00096	56		 push	 esi
  00097	e8 00 00 00 00	 call	 ?PyTuple_GetInteger@@YA_NPAU_object@@HPAH@Z ; PyTuple_GetInteger
  0009c	83 c4 0c	 add	 esp, 12			; 0000000cH
  0009f	84 c0		 test	 al, al
  000a1	74 d0		 je	 SHORT $LN26@playerIsAn
$LN6@playerIsAn:
; File C:\Anka2Project\Anka2Project\Source\Binary\source\eterBase\Singleton.h

; 26   : 		assert(ms_singleton);

  000a3	8b 35 00 00 00
	00		 mov	 esi, DWORD PTR ?ms_singleton@?$CSingleton@VCPythonPlayer@@@@0PAVCPythonPlayer@@A ; CSingleton<CPythonPlayer>::ms_singleton
  000a9	85 f6		 test	 esi, esi
  000ab	75 1a		 jne	 SHORT $LN17@playerIsAn
  000ad	6a 1a		 push	 26			; 0000001aH
  000af	68 00 00 00 00	 push	 OFFSET ??_C@_1IO@CAJLEEOI@?$AAC?$AA?3?$AA?2?$AAA?$AAn?$AAk?$AAa?$AA2?$AAP?$AAr?$AAo?$AAj?$AAe?$AAc?$AAt@
  000b4	68 00 00 00 00	 push	 OFFSET ??_C@_1BK@FMEHPMFE@?$AAm?$AAs?$AA_?$AAs?$AAi?$AAn?$AAg?$AAl?$AAe?$AAt?$AAo?$AAn@
  000b9	e8 00 00 00 00	 call	 __wassert
  000be	8b 35 00 00 00
	00		 mov	 esi, DWORD PTR ?ms_singleton@?$CSingleton@VCPythonPlayer@@@@0PAVCPythonPlayer@@A ; CSingleton<CPythonPlayer>::ms_singleton
  000c4	83 c4 0c	 add	 esp, 12			; 0000000cH
$LN17@playerIsAn:
; File C:\Anka2Project\Anka2Project\Source\Binary\source\UserInterface\PythonPlayerModule.cpp

; 518  : 	DWORD itemAntiFlags = CPythonPlayer::Instance().GetItemAntiFlags(Cell);

  000c7	8a 4d fe	 mov	 cl, BYTE PTR _Cell$[ebp+2]
  000ca	66 8b 55 fc	 mov	 dx, WORD PTR _Cell$[ebp]
  000ce	51		 push	 ecx
  000cf	8b c4		 mov	 eax, esp
  000d1	66 89 10	 mov	 WORD PTR [eax], dx
  000d4	88 48 02	 mov	 BYTE PTR [eax+2], cl
  000d7	8b ce		 mov	 ecx, esi
  000d9	e8 00 00 00 00	 call	 ?GetItemAntiFlags@CPythonPlayer@@QAEKUSItemPos@@@Z ; CPythonPlayer::GetItemAntiFlags

; 519  : 	return Py_BuildValue("i", IS_SET(itemAntiFlags, antiflag) != 0 ? TRUE : FALSE);

  000de	23 45 f8	 and	 eax, DWORD PTR _antiflag$[ebp]
  000e1	f7 d8		 neg	 eax
  000e3	1b c0		 sbb	 eax, eax
  000e5	f7 d8		 neg	 eax
  000e7	50		 push	 eax
  000e8	68 00 00 00 00	 push	 OFFSET ??_C@_01KBJDNOO@i@
  000ed	ff 15 00 00 00
	00		 call	 DWORD PTR __imp__Py_BuildValue
  000f3	83 c4 08	 add	 esp, 8

; 520  : }

  000f6	5e		 pop	 esi
  000f7	8b e5		 mov	 esp, ebp
  000f9	5d		 pop	 ebp
  000fa	c3		 ret	 0
?playerIsAntiFlagBySlot@@YAPAU_object@@PAU1@0@Z ENDP	; playerIsAntiFlagBySlot
_TEXT	ENDS
; Function compile flags: /Ogtp
; File C:\Anka2Project\Anka2Project\Source\Binary\source\UserInterface\PythonPlayerModule.cpp
; File C:\Anka2Project\Anka2Project\Source\Binary\source\UserInterface\GameType.h
; File C:\Anka2Project\Anka2Project\Source\Binary\source\UserInterface\PythonPlayerModule.cpp
; File C:\Anka2Project\Anka2Project\Source\Binary\source\UserInterface\GameType.h
; File C:\Anka2Project\Anka2Project\Source\Binary\source\UserInterface\PythonPlayerModule.cpp
; File C:\Anka2Project\Anka2Project\Source\Binary\source\eterBase\Singleton.h
; File C:\Anka2Project\Anka2Project\Source\Binary\source\UserInterface\PythonPlayerModule.cpp
;	COMDAT ?playerGetItemTypeBySlot@@YAPAU_object@@PAU1@0@Z
_TEXT	SEGMENT
_Cell$ = -4						; size = 3
_poSelf$ = 8						; size = 4
_poArgs$ = 12						; size = 4
?playerGetItemTypeBySlot@@YAPAU_object@@PAU1@0@Z PROC	; playerGetItemTypeBySlot, COMDAT

; 523  : {

  00000	55		 push	 ebp
  00001	8b ec		 mov	 ebp, esp
  00003	51		 push	 ecx
  00004	56		 push	 esi

; 525  : 	switch (PyTuple_Size(poArgs))

  00005	8b 75 0c	 mov	 esi, DWORD PTR _poArgs$[ebp]
; File C:\Anka2Project\Anka2Project\Source\Binary\source\UserInterface\GameType.h

; 448  : 		cell = WORD_MAX;

  00008	b8 ff ff 00 00	 mov	 eax, 65535		; 0000ffffH
; File C:\Anka2Project\Anka2Project\Source\Binary\source\UserInterface\PythonPlayerModule.cpp

; 525  : 	switch (PyTuple_Size(poArgs))

  0000d	56		 push	 esi
; File C:\Anka2Project\Anka2Project\Source\Binary\source\UserInterface\GameType.h

; 447  : 		window_type = INVENTORY;

  0000e	c6 45 fc 01	 mov	 BYTE PTR _Cell$[ebp], 1

; 448  : 		cell = WORD_MAX;

  00012	66 89 45 fd	 mov	 WORD PTR _Cell$[ebp+1], ax
; File C:\Anka2Project\Anka2Project\Source\Binary\source\UserInterface\PythonPlayerModule.cpp

; 525  : 	switch (PyTuple_Size(poArgs))

  00016	ff 15 00 00 00
	00		 call	 DWORD PTR __imp__PyTuple_Size
  0001c	83 c4 04	 add	 esp, 4
  0001f	83 e8 01	 sub	 eax, 1
  00022	74 2f		 je	 SHORT $LN4@playerGetI
  00024	83 e8 01	 sub	 eax, 1
  00027	74 0f		 je	 SHORT $LN6@playerGetI

; 537  : 			break;
; 538  : 
; 539  : 		default:
; 540  : 			return Py_BuildException();

  00029	6a 00		 push	 0
  0002b	e8 00 00 00 00	 call	 ?Py_BuildException@@YAPAU_object@@PBDZZ ; Py_BuildException
  00030	83 c4 04	 add	 esp, 4

; 544  : }

  00033	5e		 pop	 esi
  00034	8b e5		 mov	 esp, ebp
  00036	5d		 pop	 ebp
  00037	c3		 ret	 0
$LN6@playerGetI:

; 529  : 				return Py_BadArgument();
; 530  : 			break;
; 531  : 
; 532  : 		case 2:
; 533  : 			if (!PyTuple_GetByte(poArgs, 0, &Cell.window_type))

  00038	8d 45 fc	 lea	 eax, DWORD PTR _Cell$[ebp]
  0003b	50		 push	 eax
  0003c	6a 00		 push	 0
  0003e	56		 push	 esi
  0003f	e8 00 00 00 00	 call	 ?PyTuple_GetByte@@YA_NPAU_object@@HPAE@Z ; PyTuple_GetByte
  00044	83 c4 0c	 add	 esp, 12			; 0000000cH
  00047	84 c0		 test	 al, al
  00049	74 1b		 je	 SHORT $LN22@playerGetI

; 534  : 				return Py_BadArgument();
; 535  : 			if (!PyTuple_GetInteger(poArgs, 1, &Cell.cell))

  0004b	8d 45 fd	 lea	 eax, DWORD PTR _Cell$[ebp+1]
  0004e	50		 push	 eax
  0004f	6a 01		 push	 1

; 536  : 				return Py_BadArgument();

  00051	eb 06		 jmp	 SHORT $LN23@playerGetI
$LN4@playerGetI:

; 526  : 	{
; 527  : 		case 1:
; 528  : 			if (!PyTuple_GetInteger(poArgs, 0, &Cell.cell))

  00053	8d 45 fd	 lea	 eax, DWORD PTR _Cell$[ebp+1]
  00056	50		 push	 eax
  00057	6a 00		 push	 0
$LN23@playerGetI:

; 544  : }

  00059	56		 push	 esi
  0005a	e8 00 00 00 00	 call	 ?PyTuple_GetInteger@@YA_NPAU_object@@HPAG@Z ; PyTuple_GetInteger
  0005f	83 c4 0c	 add	 esp, 12			; 0000000cH
  00062	84 c0		 test	 al, al
  00064	75 0a		 jne	 SHORT $LN5@playerGetI
$LN22@playerGetI:
  00066	e8 00 00 00 00	 call	 ?Py_BadArgument@@YAPAU_object@@XZ ; Py_BadArgument
  0006b	5e		 pop	 esi
  0006c	8b e5		 mov	 esp, ebp
  0006e	5d		 pop	 ebp
  0006f	c3		 ret	 0
$LN5@playerGetI:
; File C:\Anka2Project\Anka2Project\Source\Binary\source\eterBase\Singleton.h

; 26   : 		assert(ms_singleton);

  00070	8b 35 00 00 00
	00		 mov	 esi, DWORD PTR ?ms_singleton@?$CSingleton@VCPythonPlayer@@@@0PAVCPythonPlayer@@A ; CSingleton<CPythonPlayer>::ms_singleton
  00076	85 f6		 test	 esi, esi
  00078	75 1a		 jne	 SHORT $LN15@playerGetI
  0007a	6a 1a		 push	 26			; 0000001aH
  0007c	68 00 00 00 00	 push	 OFFSET ??_C@_1IO@CAJLEEOI@?$AAC?$AA?3?$AA?2?$AAA?$AAn?$AAk?$AAa?$AA2?$AAP?$AAr?$AAo?$AAj?$AAe?$AAc?$AAt@
  00081	68 00 00 00 00	 push	 OFFSET ??_C@_1BK@FMEHPMFE@?$AAm?$AAs?$AA_?$AAs?$AAi?$AAn?$AAg?$AAl?$AAe?$AAt?$AAo?$AAn@
  00086	e8 00 00 00 00	 call	 __wassert
  0008b	8b 35 00 00 00
	00		 mov	 esi, DWORD PTR ?ms_singleton@?$CSingleton@VCPythonPlayer@@@@0PAVCPythonPlayer@@A ; CSingleton<CPythonPlayer>::ms_singleton
  00091	83 c4 0c	 add	 esp, 12			; 0000000cH
$LN15@playerGetI:
; File C:\Anka2Project\Anka2Project\Source\Binary\source\UserInterface\PythonPlayerModule.cpp

; 543  : 	return Py_BuildValue("i", CPythonPlayer::Instance().GetItemTypeBySlot(Cell));

  00094	8a 4d fe	 mov	 cl, BYTE PTR _Cell$[ebp+2]
  00097	66 8b 55 fc	 mov	 dx, WORD PTR _Cell$[ebp]
  0009b	51		 push	 ecx
  0009c	8b c4		 mov	 eax, esp
  0009e	66 89 10	 mov	 WORD PTR [eax], dx
  000a1	88 48 02	 mov	 BYTE PTR [eax+2], cl
  000a4	8b ce		 mov	 ecx, esi
  000a6	e8 00 00 00 00	 call	 ?GetItemTypeBySlot@CPythonPlayer@@QAEEUSItemPos@@@Z ; CPythonPlayer::GetItemTypeBySlot
  000ab	0f b6 c0	 movzx	 eax, al
  000ae	50		 push	 eax
  000af	68 00 00 00 00	 push	 OFFSET ??_C@_01KBJDNOO@i@
  000b4	ff 15 00 00 00
	00		 call	 DWORD PTR __imp__Py_BuildValue
  000ba	83 c4 08	 add	 esp, 8

; 544  : }

  000bd	5e		 pop	 esi
  000be	8b e5		 mov	 esp, ebp
  000c0	5d		 pop	 ebp
  000c1	c3		 ret	 0
?playerGetItemTypeBySlot@@YAPAU_object@@PAU1@0@Z ENDP	; playerGetItemTypeBySlot
_TEXT	ENDS
; Function compile flags: /Ogtp
; File C:\Anka2Project\Anka2Project\Source\Binary\source\UserInterface\PythonPlayerModule.cpp
; File C:\Anka2Project\Anka2Project\Source\Binary\source\UserInterface\GameType.h
; File C:\Anka2Project\Anka2Project\Source\Binary\source\UserInterface\PythonPlayerModule.cpp
; File C:\Anka2Project\Anka2Project\Source\Binary\source\UserInterface\GameType.h
; File C:\Anka2Project\Anka2Project\Source\Binary\source\UserInterface\PythonPlayerModule.cpp
; File C:\Anka2Project\Anka2Project\Source\Binary\source\eterBase\Singleton.h
; File C:\Anka2Project\Anka2Project\Source\Binary\source\UserInterface\PythonPlayerModule.cpp
;	COMDAT ?playerGetItemSubTypeBySlot@@YAPAU_object@@PAU1@0@Z
_TEXT	SEGMENT
_Cell$ = -4						; size = 3
_poSelf$ = 8						; size = 4
_poArgs$ = 12						; size = 4
?playerGetItemSubTypeBySlot@@YAPAU_object@@PAU1@0@Z PROC ; playerGetItemSubTypeBySlot, COMDAT

; 547  : {

  00000	55		 push	 ebp
  00001	8b ec		 mov	 ebp, esp
  00003	51		 push	 ecx
  00004	56		 push	 esi

; 549  : 	switch (PyTuple_Size(poArgs))

  00005	8b 75 0c	 mov	 esi, DWORD PTR _poArgs$[ebp]
; File C:\Anka2Project\Anka2Project\Source\Binary\source\UserInterface\GameType.h

; 448  : 		cell = WORD_MAX;

  00008	b8 ff ff 00 00	 mov	 eax, 65535		; 0000ffffH
; File C:\Anka2Project\Anka2Project\Source\Binary\source\UserInterface\PythonPlayerModule.cpp

; 549  : 	switch (PyTuple_Size(poArgs))

  0000d	56		 push	 esi
; File C:\Anka2Project\Anka2Project\Source\Binary\source\UserInterface\GameType.h

; 447  : 		window_type = INVENTORY;

  0000e	c6 45 fc 01	 mov	 BYTE PTR _Cell$[ebp], 1

; 448  : 		cell = WORD_MAX;

  00012	66 89 45 fd	 mov	 WORD PTR _Cell$[ebp+1], ax
; File C:\Anka2Project\Anka2Project\Source\Binary\source\UserInterface\PythonPlayerModule.cpp

; 549  : 	switch (PyTuple_Size(poArgs))

  00016	ff 15 00 00 00
	00		 call	 DWORD PTR __imp__PyTuple_Size
  0001c	83 c4 04	 add	 esp, 4
  0001f	83 e8 01	 sub	 eax, 1
  00022	74 2f		 je	 SHORT $LN4@playerGetI
  00024	83 e8 01	 sub	 eax, 1
  00027	74 0f		 je	 SHORT $LN6@playerGetI

; 561  : 			break;
; 562  : 
; 563  : 		default:
; 564  : 			return Py_BuildException();

  00029	6a 00		 push	 0
  0002b	e8 00 00 00 00	 call	 ?Py_BuildException@@YAPAU_object@@PBDZZ ; Py_BuildException
  00030	83 c4 04	 add	 esp, 4

; 568  : }

  00033	5e		 pop	 esi
  00034	8b e5		 mov	 esp, ebp
  00036	5d		 pop	 ebp
  00037	c3		 ret	 0
$LN6@playerGetI:

; 553  : 				return Py_BadArgument();
; 554  : 			break;
; 555  : 
; 556  : 		case 2:
; 557  : 			if (!PyTuple_GetByte(poArgs, 0, &Cell.window_type))

  00038	8d 45 fc	 lea	 eax, DWORD PTR _Cell$[ebp]
  0003b	50		 push	 eax
  0003c	6a 00		 push	 0
  0003e	56		 push	 esi
  0003f	e8 00 00 00 00	 call	 ?PyTuple_GetByte@@YA_NPAU_object@@HPAE@Z ; PyTuple_GetByte
  00044	83 c4 0c	 add	 esp, 12			; 0000000cH
  00047	84 c0		 test	 al, al
  00049	74 1b		 je	 SHORT $LN22@playerGetI

; 558  : 				return Py_BadArgument();
; 559  : 			if (!PyTuple_GetInteger(poArgs, 1, &Cell.cell))

  0004b	8d 45 fd	 lea	 eax, DWORD PTR _Cell$[ebp+1]
  0004e	50		 push	 eax
  0004f	6a 01		 push	 1

; 560  : 				return Py_BadArgument();

  00051	eb 06		 jmp	 SHORT $LN23@playerGetI
$LN4@playerGetI:

; 550  : 	{
; 551  : 		case 1:
; 552  : 			if (!PyTuple_GetInteger(poArgs, 0, &Cell.cell))

  00053	8d 45 fd	 lea	 eax, DWORD PTR _Cell$[ebp+1]
  00056	50		 push	 eax
  00057	6a 00		 push	 0
$LN23@playerGetI:

; 568  : }

  00059	56		 push	 esi
  0005a	e8 00 00 00 00	 call	 ?PyTuple_GetInteger@@YA_NPAU_object@@HPAG@Z ; PyTuple_GetInteger
  0005f	83 c4 0c	 add	 esp, 12			; 0000000cH
  00062	84 c0		 test	 al, al
  00064	75 0a		 jne	 SHORT $LN5@playerGetI
$LN22@playerGetI:
  00066	e8 00 00 00 00	 call	 ?Py_BadArgument@@YAPAU_object@@XZ ; Py_BadArgument
  0006b	5e		 pop	 esi
  0006c	8b e5		 mov	 esp, ebp
  0006e	5d		 pop	 ebp
  0006f	c3		 ret	 0
$LN5@playerGetI:
; File C:\Anka2Project\Anka2Project\Source\Binary\source\eterBase\Singleton.h

; 26   : 		assert(ms_singleton);

  00070	8b 35 00 00 00
	00		 mov	 esi, DWORD PTR ?ms_singleton@?$CSingleton@VCPythonPlayer@@@@0PAVCPythonPlayer@@A ; CSingleton<CPythonPlayer>::ms_singleton
  00076	85 f6		 test	 esi, esi
  00078	75 1a		 jne	 SHORT $LN15@playerGetI
  0007a	6a 1a		 push	 26			; 0000001aH
  0007c	68 00 00 00 00	 push	 OFFSET ??_C@_1IO@CAJLEEOI@?$AAC?$AA?3?$AA?2?$AAA?$AAn?$AAk?$AAa?$AA2?$AAP?$AAr?$AAo?$AAj?$AAe?$AAc?$AAt@
  00081	68 00 00 00 00	 push	 OFFSET ??_C@_1BK@FMEHPMFE@?$AAm?$AAs?$AA_?$AAs?$AAi?$AAn?$AAg?$AAl?$AAe?$AAt?$AAo?$AAn@
  00086	e8 00 00 00 00	 call	 __wassert
  0008b	8b 35 00 00 00
	00		 mov	 esi, DWORD PTR ?ms_singleton@?$CSingleton@VCPythonPlayer@@@@0PAVCPythonPlayer@@A ; CSingleton<CPythonPlayer>::ms_singleton
  00091	83 c4 0c	 add	 esp, 12			; 0000000cH
$LN15@playerGetI:
; File C:\Anka2Project\Anka2Project\Source\Binary\source\UserInterface\PythonPlayerModule.cpp

; 567  : 	return Py_BuildValue("i", CPythonPlayer::Instance().GetItemSubTypeBySlot(Cell));

  00094	8a 4d fe	 mov	 cl, BYTE PTR _Cell$[ebp+2]
  00097	66 8b 55 fc	 mov	 dx, WORD PTR _Cell$[ebp]
  0009b	51		 push	 ecx
  0009c	8b c4		 mov	 eax, esp
  0009e	66 89 10	 mov	 WORD PTR [eax], dx
  000a1	88 48 02	 mov	 BYTE PTR [eax+2], cl
  000a4	8b ce		 mov	 ecx, esi
  000a6	e8 00 00 00 00	 call	 ?GetItemSubTypeBySlot@CPythonPlayer@@QAEEUSItemPos@@@Z ; CPythonPlayer::GetItemSubTypeBySlot
  000ab	0f b6 c0	 movzx	 eax, al
  000ae	50		 push	 eax
  000af	68 00 00 00 00	 push	 OFFSET ??_C@_01KBJDNOO@i@
  000b4	ff 15 00 00 00
	00		 call	 DWORD PTR __imp__Py_BuildValue
  000ba	83 c4 08	 add	 esp, 8

; 568  : }

  000bd	5e		 pop	 esi
  000be	8b e5		 mov	 esp, ebp
  000c0	5d		 pop	 ebp
  000c1	c3		 ret	 0
?playerGetItemSubTypeBySlot@@YAPAU_object@@PAU1@0@Z ENDP ; playerGetItemSubTypeBySlot
_TEXT	ENDS
; Function compile flags: /Ogtp
; File C:\Anka2Project\Anka2Project\Source\Binary\source\UserInterface\PythonPlayerModule.cpp
; File C:\Anka2Project\Anka2Project\Source\Binary\source\UserInterface\GameType.h
; File C:\Anka2Project\Anka2Project\Source\Binary\source\UserInterface\PythonPlayerModule.cpp
; File C:\Anka2Project\Anka2Project\Source\Binary\source\UserInterface\GameType.h
; File C:\Anka2Project\Anka2Project\Source\Binary\source\UserInterface\PythonPlayerModule.cpp
; File C:\Anka2Project\Anka2Project\Source\Binary\source\eterBase\Singleton.h
; File C:\Anka2Project\Anka2Project\Source\Binary\source\UserInterface\PythonPlayerModule.cpp
;	COMDAT ?playerIsSameItemVnum@@YAPAU_object@@PAU1@0@Z
_TEXT	SEGMENT
_iItemVNum$ = -8					; size = 4
_Cell$ = -4						; size = 3
_poSelf$ = 8						; size = 4
_poArgs$ = 12						; size = 4
?playerIsSameItemVnum@@YAPAU_object@@PAU1@0@Z PROC	; playerIsSameItemVnum, COMDAT

; 571  : {

  00000	55		 push	 ebp
  00001	8b ec		 mov	 ebp, esp
  00003	83 ec 08	 sub	 esp, 8
  00006	56		 push	 esi

; 574  : 	switch (PyTuple_Size(poArgs))

  00007	8b 75 0c	 mov	 esi, DWORD PTR _poArgs$[ebp]
; File C:\Anka2Project\Anka2Project\Source\Binary\source\UserInterface\GameType.h

; 448  : 		cell = WORD_MAX;

  0000a	b8 ff ff 00 00	 mov	 eax, 65535		; 0000ffffH
; File C:\Anka2Project\Anka2Project\Source\Binary\source\UserInterface\PythonPlayerModule.cpp

; 571  : {

  0000f	57		 push	 edi

; 574  : 	switch (PyTuple_Size(poArgs))

  00010	56		 push	 esi
; File C:\Anka2Project\Anka2Project\Source\Binary\source\UserInterface\GameType.h

; 447  : 		window_type = INVENTORY;

  00011	c6 45 fc 01	 mov	 BYTE PTR _Cell$[ebp], 1

; 448  : 		cell = WORD_MAX;

  00015	66 89 45 fd	 mov	 WORD PTR _Cell$[ebp+1], ax
; File C:\Anka2Project\Anka2Project\Source\Binary\source\UserInterface\PythonPlayerModule.cpp

; 574  : 	switch (PyTuple_Size(poArgs))

  00019	ff 15 00 00 00
	00		 call	 DWORD PTR __imp__PyTuple_Size
  0001f	83 c4 04	 add	 esp, 4
  00022	83 e8 02	 sub	 eax, 2
  00025	74 59		 je	 SHORT $LN4@playerIsSa
  00027	83 e8 01	 sub	 eax, 1
  0002a	74 10		 je	 SHORT $LN7@playerIsSa

; 589  : 				return Py_BadArgument();
; 590  : 			break;
; 591  : 
; 592  : 		default:
; 593  : 			return Py_BuildException();

  0002c	6a 00		 push	 0
  0002e	e8 00 00 00 00	 call	 ?Py_BuildException@@YAPAU_object@@PBDZZ ; Py_BuildException
  00033	83 c4 04	 add	 esp, 4

; 597  : }

  00036	5f		 pop	 edi
  00037	5e		 pop	 esi
  00038	8b e5		 mov	 esp, ebp
  0003a	5d		 pop	 ebp
  0003b	c3		 ret	 0
$LN7@playerIsSa:

; 580  : 				return Py_BadArgument();
; 581  : 			break;
; 582  : 
; 583  : 		case 3:
; 584  : 			if (!PyTuple_GetInteger(poArgs, 0, &iItemVNum))

  0003c	8d 45 f8	 lea	 eax, DWORD PTR _iItemVNum$[ebp]
  0003f	50		 push	 eax
  00040	6a 00		 push	 0
  00042	56		 push	 esi
  00043	e8 00 00 00 00	 call	 ?PyTuple_GetInteger@@YA_NPAU_object@@HPAH@Z ; PyTuple_GetInteger
  00048	83 c4 0c	 add	 esp, 12			; 0000000cH
  0004b	84 c0		 test	 al, al
  0004d	74 26		 je	 SHORT $LN26@playerIsSa

; 585  : 				return Py_BadArgument();
; 586  : 			if (!PyTuple_GetInteger(poArgs, 1, &Cell.window_type))

  0004f	8d 45 fc	 lea	 eax, DWORD PTR _Cell$[ebp]
  00052	50		 push	 eax
  00053	6a 01		 push	 1
  00055	56		 push	 esi
  00056	e8 00 00 00 00	 call	 ?PyTuple_GetInteger@@YA_NPAU_object@@HPAE@Z ; PyTuple_GetInteger
  0005b	83 c4 0c	 add	 esp, 12			; 0000000cH
  0005e	84 c0		 test	 al, al
  00060	74 13		 je	 SHORT $LN26@playerIsSa

; 587  : 				return Py_BadArgument();
; 588  : 			if (!PyTuple_GetInteger(poArgs, 2, &Cell.cell))

  00062	8d 45 fd	 lea	 eax, DWORD PTR _Cell$[ebp+1]
  00065	50		 push	 eax
  00066	6a 02		 push	 2
  00068	56		 push	 esi
  00069	e8 00 00 00 00	 call	 ?PyTuple_GetInteger@@YA_NPAU_object@@HPAG@Z ; PyTuple_GetInteger
  0006e	83 c4 0c	 add	 esp, 12			; 0000000cH
  00071	84 c0		 test	 al, al
  00073	75 31		 jne	 SHORT $LN6@playerIsSa
$LN26@playerIsSa:

; 597  : }

  00075	e8 00 00 00 00	 call	 ?Py_BadArgument@@YAPAU_object@@XZ ; Py_BadArgument
  0007a	5f		 pop	 edi
  0007b	5e		 pop	 esi
  0007c	8b e5		 mov	 esp, ebp
  0007e	5d		 pop	 ebp
  0007f	c3		 ret	 0
$LN4@playerIsSa:

; 575  : 	{
; 576  : 		case 2:
; 577  : 			if (!PyTuple_GetInteger(poArgs, 0, &iItemVNum))

  00080	8d 45 f8	 lea	 eax, DWORD PTR _iItemVNum$[ebp]
  00083	50		 push	 eax
  00084	6a 00		 push	 0
  00086	56		 push	 esi
  00087	e8 00 00 00 00	 call	 ?PyTuple_GetInteger@@YA_NPAU_object@@HPAH@Z ; PyTuple_GetInteger
  0008c	83 c4 0c	 add	 esp, 12			; 0000000cH
  0008f	84 c0		 test	 al, al
  00091	74 e2		 je	 SHORT $LN26@playerIsSa

; 578  : 				return Py_BadArgument();
; 579  : 			if (!PyTuple_GetInteger(poArgs, 1, &Cell.cell))

  00093	8d 45 fd	 lea	 eax, DWORD PTR _Cell$[ebp+1]
  00096	50		 push	 eax
  00097	6a 01		 push	 1
  00099	56		 push	 esi
  0009a	e8 00 00 00 00	 call	 ?PyTuple_GetInteger@@YA_NPAU_object@@HPAG@Z ; PyTuple_GetInteger
  0009f	83 c4 0c	 add	 esp, 12			; 0000000cH
  000a2	84 c0		 test	 al, al
  000a4	74 cf		 je	 SHORT $LN26@playerIsSa
$LN6@playerIsSa:
; File C:\Anka2Project\Anka2Project\Source\Binary\source\eterBase\Singleton.h

; 26   : 		assert(ms_singleton);

  000a6	8b 3d 00 00 00
	00		 mov	 edi, DWORD PTR ?ms_singleton@?$CSingleton@VCPythonPlayer@@@@0PAVCPythonPlayer@@A ; CSingleton<CPythonPlayer>::ms_singleton
  000ac	85 ff		 test	 edi, edi
  000ae	75 1a		 jne	 SHORT $LN17@playerIsSa
  000b0	6a 1a		 push	 26			; 0000001aH
  000b2	68 00 00 00 00	 push	 OFFSET ??_C@_1IO@CAJLEEOI@?$AAC?$AA?3?$AA?2?$AAA?$AAn?$AAk?$AAa?$AA2?$AAP?$AAr?$AAo?$AAj?$AAe?$AAc?$AAt@
  000b7	68 00 00 00 00	 push	 OFFSET ??_C@_1BK@FMEHPMFE@?$AAm?$AAs?$AA_?$AAs?$AAi?$AAn?$AAg?$AAl?$AAe?$AAt?$AAo?$AAn@
  000bc	e8 00 00 00 00	 call	 __wassert
  000c1	8b 3d 00 00 00
	00		 mov	 edi, DWORD PTR ?ms_singleton@?$CSingleton@VCPythonPlayer@@@@0PAVCPythonPlayer@@A ; CSingleton<CPythonPlayer>::ms_singleton
  000c7	83 c4 0c	 add	 esp, 12			; 0000000cH
$LN17@playerIsSa:
; File C:\Anka2Project\Anka2Project\Source\Binary\source\UserInterface\PythonPlayerModule.cpp

; 596  : 	return Py_BuildValue("i", (iItemVNum == CPythonPlayer::Instance().GetItemIndex(Cell)) ? TRUE : FALSE);

  000ca	8b 47 04	 mov	 eax, DWORD PTR [edi+4]
  000cd	8a 4d fe	 mov	 cl, BYTE PTR _Cell$[ebp+2]
  000d0	66 8b 55 fc	 mov	 dx, WORD PTR _Cell$[ebp]
  000d4	51		 push	 ecx
  000d5	8b 70 48	 mov	 esi, DWORD PTR [eax+72]
  000d8	8b c4		 mov	 eax, esp
  000da	66 89 10	 mov	 WORD PTR [eax], dx
  000dd	88 48 02	 mov	 BYTE PTR [eax+2], cl
  000e0	8d 4f 04	 lea	 ecx, DWORD PTR [edi+4]
  000e3	ff d6		 call	 esi
  000e5	33 c9		 xor	 ecx, ecx
  000e7	39 45 f8	 cmp	 DWORD PTR _iItemVNum$[ebp], eax
  000ea	0f 94 c1	 sete	 cl
  000ed	51		 push	 ecx
  000ee	68 00 00 00 00	 push	 OFFSET ??_C@_01KBJDNOO@i@
  000f3	ff 15 00 00 00
	00		 call	 DWORD PTR __imp__Py_BuildValue
  000f9	83 c4 08	 add	 esp, 8

; 597  : }

  000fc	5f		 pop	 edi
  000fd	5e		 pop	 esi
  000fe	8b e5		 mov	 esp, ebp
  00100	5d		 pop	 ebp
  00101	c3		 ret	 0
?playerIsSameItemVnum@@YAPAU_object@@PAU1@0@Z ENDP	; playerIsSameItemVnum
_TEXT	ENDS
; Function compile flags: /Ogtp
; File C:\Anka2Project\Anka2Project\Source\Binary\source\UserInterface\PythonPlayerModule.cpp
; File C:\Anka2Project\Anka2Project\Source\Binary\source\eterBase\Singleton.h
; File C:\Anka2Project\Anka2Project\Source\Binary\source\UserInterface\PythonPlayerModule.cpp
; File C:\Anka2Project\Anka2Project\Source\Binary\source\eterBase\Singleton.h
; File C:\Anka2Project\Anka2Project\Source\Binary\source\UserInterface\PythonPlayerModule.cpp
;	COMDAT ?playerGetSkillCoolTime@@YAPAU_object@@PAU1@0@Z
_TEXT	SEGMENT
_iSlotIndex$ = -8					; size = 4
_fCoolTime$1$ = -4					; size = 4
_poSelf$ = 8						; size = 4
_poArgs$ = 12						; size = 4
?playerGetSkillCoolTime@@YAPAU_object@@PAU1@0@Z PROC	; playerGetSkillCoolTime, COMDAT

; 600  : {

  00000	55		 push	 ebp
  00001	8b ec		 mov	 ebp, esp
  00003	83 e4 c0	 and	 esp, -64		; ffffffc0H
  00006	83 ec 40	 sub	 esp, 64			; 00000040H

; 601  : 	int iSlotIndex;
; 602  : 	if (!PyTuple_GetInteger(poArgs, 0, &iSlotIndex))

  00009	8d 44 24 38	 lea	 eax, DWORD PTR _iSlotIndex$[esp+64]
  0000d	50		 push	 eax
  0000e	6a 00		 push	 0
  00010	ff 75 0c	 push	 DWORD PTR _poArgs$[ebp]
  00013	e8 00 00 00 00	 call	 ?PyTuple_GetInteger@@YA_NPAU_object@@HPAH@Z ; PyTuple_GetInteger
  00018	83 c4 0c	 add	 esp, 12			; 0000000cH
  0001b	84 c0		 test	 al, al
  0001d	75 0e		 jne	 SHORT $LN2@playerGetS

; 603  : 		return Py_BuildException();

  0001f	6a 00		 push	 0
  00021	e8 00 00 00 00	 call	 ?Py_BuildException@@YAPAU_object@@PBDZZ ; Py_BuildException
  00026	83 c4 04	 add	 esp, 4

; 608  : }

  00029	8b e5		 mov	 esp, ebp
  0002b	5d		 pop	 ebp
  0002c	c3		 ret	 0
$LN2@playerGetS:
; File C:\Anka2Project\Anka2Project\Source\Binary\source\eterBase\Singleton.h

; 26   : 		assert(ms_singleton);

  0002d	8b 0d 00 00 00
	00		 mov	 ecx, DWORD PTR ?ms_singleton@?$CSingleton@VCPythonPlayer@@@@0PAVCPythonPlayer@@A ; CSingleton<CPythonPlayer>::ms_singleton
  00033	85 c9		 test	 ecx, ecx
  00035	75 1a		 jne	 SHORT $LN6@playerGetS
  00037	6a 1a		 push	 26			; 0000001aH
  00039	68 00 00 00 00	 push	 OFFSET ??_C@_1IO@CAJLEEOI@?$AAC?$AA?3?$AA?2?$AAA?$AAn?$AAk?$AAa?$AA2?$AAP?$AAr?$AAo?$AAj?$AAe?$AAc?$AAt@
  0003e	68 00 00 00 00	 push	 OFFSET ??_C@_1BK@FMEHPMFE@?$AAm?$AAs?$AA_?$AAs?$AAi?$AAn?$AAg?$AAl?$AAe?$AAt?$AAo?$AAn@
  00043	e8 00 00 00 00	 call	 __wassert
  00048	8b 0d 00 00 00
	00		 mov	 ecx, DWORD PTR ?ms_singleton@?$CSingleton@VCPythonPlayer@@@@0PAVCPythonPlayer@@A ; CSingleton<CPythonPlayer>::ms_singleton
  0004e	83 c4 0c	 add	 esp, 12			; 0000000cH
$LN6@playerGetS:
; File C:\Anka2Project\Anka2Project\Source\Binary\source\UserInterface\PythonPlayerModule.cpp

; 605  : 	float fCoolTime = CPythonPlayer::Instance().GetSkillCoolTime(iSlotIndex);

  00051	8b 54 24 38	 mov	 edx, DWORD PTR _iSlotIndex$[esp+64]
  00055	52		 push	 edx
  00056	e8 00 00 00 00	 call	 ?GetSkillCoolTime@CPythonPlayer@@QAEMK@Z ; CPythonPlayer::GetSkillCoolTime
  0005b	f3 0f 11 44 24
	3c		 movss	 DWORD PTR _fCoolTime$1$[esp+64], xmm0
; File C:\Anka2Project\Anka2Project\Source\Binary\source\eterBase\Singleton.h

; 26   : 		assert(ms_singleton);

  00061	85 c9		 test	 ecx, ecx
  00063	75 1e		 jne	 SHORT $LN9@playerGetS
  00065	6a 1a		 push	 26			; 0000001aH
  00067	68 00 00 00 00	 push	 OFFSET ??_C@_1IO@CAJLEEOI@?$AAC?$AA?3?$AA?2?$AAA?$AAn?$AAk?$AAa?$AA2?$AAP?$AAr?$AAo?$AAj?$AAe?$AAc?$AAt@
  0006c	68 00 00 00 00	 push	 OFFSET ??_C@_1BK@FMEHPMFE@?$AAm?$AAs?$AA_?$AAs?$AAi?$AAn?$AAg?$AAl?$AAe?$AAt?$AAo?$AAn@
  00071	e8 00 00 00 00	 call	 __wassert
  00076	8b 54 24 44	 mov	 edx, DWORD PTR _iSlotIndex$[esp+76]
  0007a	83 c4 0c	 add	 esp, 12			; 0000000cH
  0007d	8b 0d 00 00 00
	00		 mov	 ecx, DWORD PTR ?ms_singleton@?$CSingleton@VCPythonPlayer@@@@0PAVCPythonPlayer@@A ; CSingleton<CPythonPlayer>::ms_singleton
$LN9@playerGetS:
; File C:\Anka2Project\Anka2Project\Source\Binary\source\UserInterface\PythonPlayerModule.cpp

; 606  : 	float fElapsedCoolTime = CPythonPlayer::Instance().GetSkillElapsedCoolTime(iSlotIndex);

  00083	52		 push	 edx
  00084	e8 00 00 00 00	 call	 ?GetSkillElapsedCoolTime@CPythonPlayer@@QAEMK@Z ; CPythonPlayer::GetSkillElapsedCoolTime

; 607  : 	return Py_BuildValue("ff", fCoolTime, fElapsedCoolTime);

  00089	f3 0f 5a c0	 cvtss2sd xmm0, xmm0
  0008d	83 ec 10	 sub	 esp, 16			; 00000010H
  00090	f2 0f 11 44 24
	08		 movsd	 QWORD PTR [esp+8], xmm0
  00096	f3 0f 10 44 24
	4c		 movss	 xmm0, DWORD PTR _fCoolTime$1$[esp+80]
  0009c	0f 5a c0	 cvtps2pd xmm0, xmm0
  0009f	f2 0f 11 04 24	 movsd	 QWORD PTR [esp], xmm0
  000a4	68 00 00 00 00	 push	 OFFSET ??_C@_02HPEDFNFO@ff@
  000a9	ff 15 00 00 00
	00		 call	 DWORD PTR __imp__Py_BuildValue
  000af	83 c4 14	 add	 esp, 20			; 00000014H

; 608  : }

  000b2	8b e5		 mov	 esp, ebp
  000b4	5d		 pop	 ebp
  000b5	c3		 ret	 0
?playerGetSkillCoolTime@@YAPAU_object@@PAU1@0@Z ENDP	; playerGetSkillCoolTime
_TEXT	ENDS
; Function compile flags: /Ogtp
; File C:\Anka2Project\Anka2Project\Source\Binary\source\UserInterface\PythonPlayerModule.cpp
; File C:\Anka2Project\Anka2Project\Source\Binary\source\eterBase\Singleton.h
; File C:\Anka2Project\Anka2Project\Source\Binary\source\UserInterface\PythonPlayerModule.cpp
;	COMDAT ?playerIsSkillActive@@YAPAU_object@@PAU1@0@Z
_TEXT	SEGMENT
_iSlotIndex$ = -4					; size = 4
_poSelf$ = 8						; size = 4
_poArgs$ = 12						; size = 4
?playerIsSkillActive@@YAPAU_object@@PAU1@0@Z PROC	; playerIsSkillActive, COMDAT

; 611  : {

  00000	55		 push	 ebp
  00001	8b ec		 mov	 ebp, esp
  00003	51		 push	 ecx

; 612  : 	int iSlotIndex;
; 613  : 	if (!PyTuple_GetInteger(poArgs, 0, &iSlotIndex))

  00004	8d 45 fc	 lea	 eax, DWORD PTR _iSlotIndex$[ebp]
  00007	50		 push	 eax
  00008	6a 00		 push	 0
  0000a	ff 75 0c	 push	 DWORD PTR _poArgs$[ebp]
  0000d	e8 00 00 00 00	 call	 ?PyTuple_GetInteger@@YA_NPAU_object@@HPAH@Z ; PyTuple_GetInteger
  00012	83 c4 0c	 add	 esp, 12			; 0000000cH
  00015	84 c0		 test	 al, al
  00017	75 0e		 jne	 SHORT $LN2@playerIsSk

; 614  : 		return Py_BuildException();

  00019	6a 00		 push	 0
  0001b	e8 00 00 00 00	 call	 ?Py_BuildException@@YAPAU_object@@PBDZZ ; Py_BuildException
  00020	83 c4 04	 add	 esp, 4

; 617  : }

  00023	8b e5		 mov	 esp, ebp
  00025	5d		 pop	 ebp
  00026	c3		 ret	 0
$LN2@playerIsSk:
; File C:\Anka2Project\Anka2Project\Source\Binary\source\eterBase\Singleton.h

; 26   : 		assert(ms_singleton);

  00027	8b 0d 00 00 00
	00		 mov	 ecx, DWORD PTR ?ms_singleton@?$CSingleton@VCPythonPlayer@@@@0PAVCPythonPlayer@@A ; CSingleton<CPythonPlayer>::ms_singleton
  0002d	85 c9		 test	 ecx, ecx
  0002f	75 1a		 jne	 SHORT $LN6@playerIsSk
  00031	6a 1a		 push	 26			; 0000001aH
  00033	68 00 00 00 00	 push	 OFFSET ??_C@_1IO@CAJLEEOI@?$AAC?$AA?3?$AA?2?$AAA?$AAn?$AAk?$AAa?$AA2?$AAP?$AAr?$AAo?$AAj?$AAe?$AAc?$AAt@
  00038	68 00 00 00 00	 push	 OFFSET ??_C@_1BK@FMEHPMFE@?$AAm?$AAs?$AA_?$AAs?$AAi?$AAn?$AAg?$AAl?$AAe?$AAt?$AAo?$AAn@
  0003d	e8 00 00 00 00	 call	 __wassert
  00042	8b 0d 00 00 00
	00		 mov	 ecx, DWORD PTR ?ms_singleton@?$CSingleton@VCPythonPlayer@@@@0PAVCPythonPlayer@@A ; CSingleton<CPythonPlayer>::ms_singleton
  00048	83 c4 0c	 add	 esp, 12			; 0000000cH
$LN6@playerIsSk:
; File C:\Anka2Project\Anka2Project\Source\Binary\source\UserInterface\PythonPlayerModule.cpp

; 616  : 	return Py_BuildValue("i", CPythonPlayer::Instance().IsSkillActive(iSlotIndex));

  0004b	ff 75 fc	 push	 DWORD PTR _iSlotIndex$[ebp]
  0004e	e8 00 00 00 00	 call	 ?IsSkillActive@CPythonPlayer@@QAEHK@Z ; CPythonPlayer::IsSkillActive
  00053	50		 push	 eax
  00054	68 00 00 00 00	 push	 OFFSET ??_C@_01KBJDNOO@i@
  00059	ff 15 00 00 00
	00		 call	 DWORD PTR __imp__Py_BuildValue
  0005f	83 c4 08	 add	 esp, 8

; 617  : }

  00062	8b e5		 mov	 esp, ebp
  00064	5d		 pop	 ebp
  00065	c3		 ret	 0
?playerIsSkillActive@@YAPAU_object@@PAU1@0@Z ENDP	; playerIsSkillActive
_TEXT	ENDS
; Function compile flags: /Ogtp
; File C:\Anka2Project\Anka2Project\Source\Binary\source\UserInterface\PythonPlayerModule.cpp
; File C:\Anka2Project\Anka2Project\Source\Binary\source\eterBase\Singleton.h
; File C:\Anka2Project\Anka2Project\Source\Binary\source\UserInterface\PythonPlayerModule.cpp
;	COMDAT ?playerAffectIndexToSkillIndex@@YAPAU_object@@PAU1@0@Z
_TEXT	SEGMENT
_dwSkillIndex$ = -8					; size = 4
_iAffectIndex$ = -4					; size = 4
_poSelf$ = 8						; size = 4
_poArgs$ = 12						; size = 4
?playerAffectIndexToSkillIndex@@YAPAU_object@@PAU1@0@Z PROC ; playerAffectIndexToSkillIndex, COMDAT

; 630  : {

  00000	55		 push	 ebp
  00001	8b ec		 mov	 ebp, esp
  00003	83 ec 08	 sub	 esp, 8

; 631  : 	int iAffectIndex;
; 632  : 	if (!PyTuple_GetInteger(poArgs, 0, &iAffectIndex))

  00006	8d 45 fc	 lea	 eax, DWORD PTR _iAffectIndex$[ebp]
  00009	50		 push	 eax
  0000a	6a 00		 push	 0
  0000c	ff 75 0c	 push	 DWORD PTR _poArgs$[ebp]
  0000f	e8 00 00 00 00	 call	 ?PyTuple_GetInteger@@YA_NPAU_object@@HPAH@Z ; PyTuple_GetInteger
  00014	83 c4 0c	 add	 esp, 12			; 0000000cH
  00017	84 c0		 test	 al, al
  00019	75 0e		 jne	 SHORT $LN2@playerAffe

; 633  : 		return Py_BuildException();

  0001b	6a 00		 push	 0
  0001d	e8 00 00 00 00	 call	 ?Py_BuildException@@YAPAU_object@@PBDZZ ; Py_BuildException
  00022	83 c4 04	 add	 esp, 4

; 640  : }

  00025	8b e5		 mov	 esp, ebp
  00027	5d		 pop	 ebp
  00028	c3		 ret	 0
$LN2@playerAffe:
; File C:\Anka2Project\Anka2Project\Source\Binary\source\eterBase\Singleton.h

; 26   : 		assert(ms_singleton);

  00029	8b 0d 00 00 00
	00		 mov	 ecx, DWORD PTR ?ms_singleton@?$CSingleton@VCPythonPlayer@@@@0PAVCPythonPlayer@@A ; CSingleton<CPythonPlayer>::ms_singleton
  0002f	85 c9		 test	 ecx, ecx
  00031	75 1a		 jne	 SHORT $LN7@playerAffe
  00033	6a 1a		 push	 26			; 0000001aH
  00035	68 00 00 00 00	 push	 OFFSET ??_C@_1IO@CAJLEEOI@?$AAC?$AA?3?$AA?2?$AAA?$AAn?$AAk?$AAa?$AA2?$AAP?$AAr?$AAo?$AAj?$AAe?$AAc?$AAt@
  0003a	68 00 00 00 00	 push	 OFFSET ??_C@_1BK@FMEHPMFE@?$AAm?$AAs?$AA_?$AAs?$AAi?$AAn?$AAg?$AAl?$AAe?$AAt?$AAo?$AAn@
  0003f	e8 00 00 00 00	 call	 __wassert
  00044	8b 0d 00 00 00
	00		 mov	 ecx, DWORD PTR ?ms_singleton@?$CSingleton@VCPythonPlayer@@@@0PAVCPythonPlayer@@A ; CSingleton<CPythonPlayer>::ms_singleton
  0004a	83 c4 0c	 add	 esp, 12			; 0000000cH
$LN7@playerAffe:
; File C:\Anka2Project\Anka2Project\Source\Binary\source\UserInterface\PythonPlayerModule.cpp

; 636  : 	if (!CPythonPlayer::Instance().AffectIndexToSkillIndex(iAffectIndex, &dwSkillIndex))

  0004d	8d 45 f8	 lea	 eax, DWORD PTR _dwSkillIndex$[ebp]
  00050	50		 push	 eax
  00051	ff 75 fc	 push	 DWORD PTR _iAffectIndex$[ebp]
  00054	e8 00 00 00 00	 call	 ?AffectIndexToSkillIndex@CPythonPlayer@@QAE_NKPAK@Z ; CPythonPlayer::AffectIndexToSkillIndex
  00059	84 c0		 test	 al, al
  0005b	75 14		 jne	 SHORT $LN3@playerAffe

; 637  : 		return Py_BuildValue("i", 0);

  0005d	6a 00		 push	 0

; 640  : }

  0005f	68 00 00 00 00	 push	 OFFSET ??_C@_01KBJDNOO@i@
  00064	ff 15 00 00 00
	00		 call	 DWORD PTR __imp__Py_BuildValue
  0006a	83 c4 08	 add	 esp, 8
  0006d	8b e5		 mov	 esp, ebp
  0006f	5d		 pop	 ebp
  00070	c3		 ret	 0
$LN3@playerAffe:

; 638  : 
; 639  : 	return Py_BuildValue("i", dwSkillIndex);

  00071	ff 75 f8	 push	 DWORD PTR _dwSkillIndex$[ebp]

; 640  : }

  00074	68 00 00 00 00	 push	 OFFSET ??_C@_01KBJDNOO@i@
  00079	ff 15 00 00 00
	00		 call	 DWORD PTR __imp__Py_BuildValue
  0007f	83 c4 08	 add	 esp, 8
  00082	8b e5		 mov	 esp, ebp
  00084	5d		 pop	 ebp
  00085	c3		 ret	 0
?playerAffectIndexToSkillIndex@@YAPAU_object@@PAU1@0@Z ENDP ; playerAffectIndexToSkillIndex
_TEXT	ENDS
; Function compile flags: /Ogtp
; File C:\Anka2Project\Anka2Project\Source\Binary\source\UserInterface\PythonPlayerModule.cpp
; File C:\Anka2Project\Anka2Project\Source\Binary\source\eterBase\Singleton.h
; File C:\Anka2Project\Anka2Project\Source\Binary\source\UserInterface\PythonPlayerModule.cpp
;	COMDAT ?playerGetEXP@@YAPAU_object@@PAU1@0@Z
_TEXT	SEGMENT
_poSelf$ = 8						; size = 4
_poArgs$ = 12						; size = 4
?playerGetEXP@@YAPAU_object@@PAU1@0@Z PROC		; playerGetEXP, COMDAT
; File C:\Anka2Project\Anka2Project\Source\Binary\source\eterBase\Singleton.h

; 26   : 		assert(ms_singleton);

  00000	8b 0d 00 00 00
	00		 mov	 ecx, DWORD PTR ?ms_singleton@?$CSingleton@VCPythonPlayer@@@@0PAVCPythonPlayer@@A ; CSingleton<CPythonPlayer>::ms_singleton
  00006	85 c9		 test	 ecx, ecx
  00008	75 1a		 jne	 SHORT $LN5@playerGetE
  0000a	6a 1a		 push	 26			; 0000001aH
  0000c	68 00 00 00 00	 push	 OFFSET ??_C@_1IO@CAJLEEOI@?$AAC?$AA?3?$AA?2?$AAA?$AAn?$AAk?$AAa?$AA2?$AAP?$AAr?$AAo?$AAj?$AAe?$AAc?$AAt@
  00011	68 00 00 00 00	 push	 OFFSET ??_C@_1BK@FMEHPMFE@?$AAm?$AAs?$AA_?$AAs?$AAi?$AAn?$AAg?$AAl?$AAe?$AAt?$AAo?$AAn@
  00016	e8 00 00 00 00	 call	 __wassert
  0001b	8b 0d 00 00 00
	00		 mov	 ecx, DWORD PTR ?ms_singleton@?$CSingleton@VCPythonPlayer@@@@0PAVCPythonPlayer@@A ; CSingleton<CPythonPlayer>::ms_singleton
  00021	83 c4 0c	 add	 esp, 12			; 0000000cH
$LN5@playerGetE:
; File C:\Anka2Project\Anka2Project\Source\Binary\source\UserInterface\PythonPlayerModule.cpp

; 644  : 	DWORD dwEXP = CPythonPlayer::Instance().GetStatus(POINT_EXP);

  00024	8b 41 04	 mov	 eax, DWORD PTR [ecx+4]
  00027	83 c1 04	 add	 ecx, 4
  0002a	6a 03		 push	 3
  0002c	8b 40 10	 mov	 eax, DWORD PTR [eax+16]
  0002f	ff d0		 call	 eax

; 645  : 	return Py_BuildValue("l", dwEXP);

  00031	50		 push	 eax
  00032	68 00 00 00 00	 push	 OFFSET ??_C@_01HHGOMJKL@l@
  00037	ff 15 00 00 00
	00		 call	 DWORD PTR __imp__Py_BuildValue
  0003d	83 c4 08	 add	 esp, 8

; 646  : }

  00040	c3		 ret	 0
?playerGetEXP@@YAPAU_object@@PAU1@0@Z ENDP		; playerGetEXP
_TEXT	ENDS
; Function compile flags: /Ogtp
; File C:\Anka2Project\Anka2Project\Source\Binary\source\UserInterface\PythonPlayerModule.cpp
; File C:\Anka2Project\Anka2Project\Source\Binary\source\eterBase\Singleton.h
; File C:\Anka2Project\Anka2Project\Source\Binary\source\UserInterface\PythonPlayerModule.cpp
;	COMDAT ?playerGetLevel@@YAPAU_object@@PAU1@0@Z
_TEXT	SEGMENT
_poSelf$ = 8						; size = 4
_poArgs$ = 12						; size = 4
?playerGetLevel@@YAPAU_object@@PAU1@0@Z PROC		; playerGetLevel, COMDAT
; File C:\Anka2Project\Anka2Project\Source\Binary\source\eterBase\Singleton.h

; 26   : 		assert(ms_singleton);

  00000	8b 0d 00 00 00
	00		 mov	 ecx, DWORD PTR ?ms_singleton@?$CSingleton@VCPythonPlayer@@@@0PAVCPythonPlayer@@A ; CSingleton<CPythonPlayer>::ms_singleton
  00006	85 c9		 test	 ecx, ecx
  00008	75 1a		 jne	 SHORT $LN5@playerGetL
  0000a	6a 1a		 push	 26			; 0000001aH
  0000c	68 00 00 00 00	 push	 OFFSET ??_C@_1IO@CAJLEEOI@?$AAC?$AA?3?$AA?2?$AAA?$AAn?$AAk?$AAa?$AA2?$AAP?$AAr?$AAo?$AAj?$AAe?$AAc?$AAt@
  00011	68 00 00 00 00	 push	 OFFSET ??_C@_1BK@FMEHPMFE@?$AAm?$AAs?$AA_?$AAs?$AAi?$AAn?$AAg?$AAl?$AAe?$AAt?$AAo?$AAn@
  00016	e8 00 00 00 00	 call	 __wassert
  0001b	8b 0d 00 00 00
	00		 mov	 ecx, DWORD PTR ?ms_singleton@?$CSingleton@VCPythonPlayer@@@@0PAVCPythonPlayer@@A ; CSingleton<CPythonPlayer>::ms_singleton
  00021	83 c4 0c	 add	 esp, 12			; 0000000cH
$LN5@playerGetL:
; File C:\Anka2Project\Anka2Project\Source\Binary\source\UserInterface\PythonPlayerModule.cpp

; 650  : 	DWORD dwLevel = CPythonPlayer::Instance().GetStatus(POINT_LEVEL);

  00024	8b 41 04	 mov	 eax, DWORD PTR [ecx+4]
  00027	83 c1 04	 add	 ecx, 4
  0002a	6a 01		 push	 1
  0002c	8b 40 10	 mov	 eax, DWORD PTR [eax+16]
  0002f	ff d0		 call	 eax

; 651  : 	return Py_BuildValue("l", dwLevel);

  00031	50		 push	 eax
  00032	68 00 00 00 00	 push	 OFFSET ??_C@_01HHGOMJKL@l@
  00037	ff 15 00 00 00
	00		 call	 DWORD PTR __imp__Py_BuildValue
  0003d	83 c4 08	 add	 esp, 8

; 652  : }

  00040	c3		 ret	 0
?playerGetLevel@@YAPAU_object@@PAU1@0@Z ENDP		; playerGetLevel
_TEXT	ENDS
; Function compile flags: /Ogtp
; File C:\Anka2Project\Anka2Project\Source\Binary\source\UserInterface\PythonPlayerModule.cpp
; File C:\Anka2Project\Anka2Project\Source\Binary\source\eterBase\Singleton.h
; File C:\Anka2Project\Anka2Project\Source\Binary\source\UserInterface\PythonPlayerModule.cpp
; File C:\Anka2Project\Anka2Project\Source\Binary\source\eterBase\Singleton.h
; File C:\Anka2Project\Anka2Project\Source\Binary\source\UserInterface\PythonPlayerModule.cpp
;	COMDAT ?playerGetStatus@@YAPAU_object@@PAU1@0@Z
_TEXT	SEGMENT
_iType$ = -4						; size = 4
_poSelf$ = 8						; size = 4
_poArgs$ = 12						; size = 4
?playerGetStatus@@YAPAU_object@@PAU1@0@Z PROC		; playerGetStatus, COMDAT

; 655  : {

  00000	55		 push	 ebp
  00001	8b ec		 mov	 ebp, esp
  00003	51		 push	 ecx

; 656  : 	int iType;
; 657  : 	if (!PyTuple_GetInteger(poArgs, 0, &iType))

  00004	8d 45 fc	 lea	 eax, DWORD PTR _iType$[ebp]
  00007	50		 push	 eax
  00008	6a 00		 push	 0
  0000a	ff 75 0c	 push	 DWORD PTR _poArgs$[ebp]
  0000d	e8 00 00 00 00	 call	 ?PyTuple_GetInteger@@YA_NPAU_object@@HPAH@Z ; PyTuple_GetInteger
  00012	83 c4 0c	 add	 esp, 12			; 0000000cH
  00015	84 c0		 test	 al, al
  00017	75 0e		 jne	 SHORT $LN2@playerGetS

; 658  : 		return Py_BuildException();

  00019	6a 00		 push	 0
  0001b	e8 00 00 00 00	 call	 ?Py_BuildException@@YAPAU_object@@PBDZZ ; Py_BuildException
  00020	83 c4 04	 add	 esp, 4

; 672  : }

  00023	8b e5		 mov	 esp, ebp
  00025	5d		 pop	 ebp
  00026	c3		 ret	 0
$LN2@playerGetS:
; File C:\Anka2Project\Anka2Project\Source\Binary\source\eterBase\Singleton.h

; 26   : 		assert(ms_singleton);

  00027	8b 0d 00 00 00
	00		 mov	 ecx, DWORD PTR ?ms_singleton@?$CSingleton@VCPythonPlayer@@@@0PAVCPythonPlayer@@A ; CSingleton<CPythonPlayer>::ms_singleton
  0002d	85 c9		 test	 ecx, ecx
  0002f	75 1a		 jne	 SHORT $LN8@playerGetS
  00031	6a 1a		 push	 26			; 0000001aH
  00033	68 00 00 00 00	 push	 OFFSET ??_C@_1IO@CAJLEEOI@?$AAC?$AA?3?$AA?2?$AAA?$AAn?$AAk?$AAa?$AA2?$AAP?$AAr?$AAo?$AAj?$AAe?$AAc?$AAt@
  00038	68 00 00 00 00	 push	 OFFSET ??_C@_1BK@FMEHPMFE@?$AAm?$AAs?$AA_?$AAs?$AAi?$AAn?$AAg?$AAl?$AAe?$AAt?$AAo?$AAn@
  0003d	e8 00 00 00 00	 call	 __wassert
  00042	8b 0d 00 00 00
	00		 mov	 ecx, DWORD PTR ?ms_singleton@?$CSingleton@VCPythonPlayer@@@@0PAVCPythonPlayer@@A ; CSingleton<CPythonPlayer>::ms_singleton
  00048	83 c4 0c	 add	 esp, 12			; 0000000cH
$LN8@playerGetS:
; File C:\Anka2Project\Anka2Project\Source\Binary\source\UserInterface\PythonPlayerModule.cpp

; 660  : 	long iValue = CPythonPlayer::Instance().GetStatus(iType);

  0004b	8b 41 04	 mov	 eax, DWORD PTR [ecx+4]
  0004e	83 c1 04	 add	 ecx, 4
  00051	56		 push	 esi
  00052	ff 75 fc	 push	 DWORD PTR _iType$[ebp]
  00055	8b 40 10	 mov	 eax, DWORD PTR [eax+16]
  00058	ff d0		 call	 eax

; 661  : 
; 662  : 	if (POINT_ATT_SPEED == iType)

  0005a	83 7d fc 11	 cmp	 DWORD PTR _iType$[ebp], 17 ; 00000011H
  0005e	8b f0		 mov	 esi, eax
  00060	75 46		 jne	 SHORT $LN4@playerGetS
; File C:\Anka2Project\Anka2Project\Source\Binary\source\eterBase\Singleton.h

; 26   : 		assert(ms_singleton);

  00062	8b 0d 00 00 00
	00		 mov	 ecx, DWORD PTR ?ms_singleton@?$CSingleton@VCPythonPlayer@@@@0PAVCPythonPlayer@@A ; CSingleton<CPythonPlayer>::ms_singleton
  00068	85 c9		 test	 ecx, ecx
  0006a	75 1a		 jne	 SHORT $LN11@playerGetS
  0006c	6a 1a		 push	 26			; 0000001aH
  0006e	68 00 00 00 00	 push	 OFFSET ??_C@_1IO@CAJLEEOI@?$AAC?$AA?3?$AA?2?$AAA?$AAn?$AAk?$AAa?$AA2?$AAP?$AAr?$AAo?$AAj?$AAe?$AAc?$AAt@
  00073	68 00 00 00 00	 push	 OFFSET ??_C@_1BK@FMEHPMFE@?$AAm?$AAs?$AA_?$AAs?$AAi?$AAn?$AAg?$AAl?$AAe?$AAt?$AAo?$AAn@
  00078	e8 00 00 00 00	 call	 __wassert
  0007d	8b 0d 00 00 00
	00		 mov	 ecx, DWORD PTR ?ms_singleton@?$CSingleton@VCPythonPlayer@@@@0PAVCPythonPlayer@@A ; CSingleton<CPythonPlayer>::ms_singleton
  00083	83 c4 0c	 add	 esp, 12			; 0000000cH
$LN11@playerGetS:
; File C:\Anka2Project\Anka2Project\Source\Binary\source\UserInterface\PythonPlayerModule.cpp

; 664  : 		CInstanceBase * pInstance = CPythonPlayer::Instance().NEW_GetMainActorPtr();

  00086	8b 41 04	 mov	 eax, DWORD PTR [ecx+4]
  00089	83 c1 04	 add	 ecx, 4
  0008c	ff 90 8c 00 00
	00		 call	 DWORD PTR [eax+140]

; 665  : 		if (pInstance && (CItemData::WEAPON_TWO_HANDED == pInstance->GetWeaponType()))

  00092	85 c0		 test	 eax, eax
  00094	74 12		 je	 SHORT $LN4@playerGetS
  00096	8b c8		 mov	 ecx, eax
  00098	e8 00 00 00 00	 call	 ?GetWeaponType@CInstanceBase@@QAEKXZ ; CInstanceBase::GetWeaponType
  0009d	83 f8 03	 cmp	 eax, 3
  000a0	75 06		 jne	 SHORT $LN4@playerGetS

; 666  : 		{
; 667  : 			iValue -= TWOHANDED_WEWAPON_ATT_SPEED_DECREASE_VALUE;

  000a2	2b 35 00 00 00
	00		 sub	 esi, DWORD PTR ?TWOHANDED_WEWAPON_ATT_SPEED_DECREASE_VALUE@@3HA ; TWOHANDED_WEWAPON_ATT_SPEED_DECREASE_VALUE
$LN4@playerGetS:

; 668  : 		}
; 669  : 	}
; 670  : 
; 671  : 	return Py_BuildValue("i", iValue);

  000a8	56		 push	 esi
  000a9	68 00 00 00 00	 push	 OFFSET ??_C@_01KBJDNOO@i@
  000ae	ff 15 00 00 00
	00		 call	 DWORD PTR __imp__Py_BuildValue
  000b4	83 c4 08	 add	 esp, 8
  000b7	5e		 pop	 esi

; 672  : }

  000b8	8b e5		 mov	 esp, ebp
  000ba	5d		 pop	 ebp
  000bb	c3		 ret	 0
?playerGetStatus@@YAPAU_object@@PAU1@0@Z ENDP		; playerGetStatus
_TEXT	ENDS
; Function compile flags: /Ogtp
; File C:\Anka2Project\Anka2Project\Source\Binary\source\UserInterface\PythonPlayerModule.cpp
; File C:\Anka2Project\Anka2Project\Source\Binary\source\eterBase\Singleton.h
; File C:\Anka2Project\Anka2Project\Source\Binary\source\UserInterface\PythonPlayerModule.cpp
;	COMDAT ?playerGetElk@@YAPAU_object@@PAU1@0@Z
_TEXT	SEGMENT
_poSelf$ = 8						; size = 4
_poArgs$ = 12						; size = 4
?playerGetElk@@YAPAU_object@@PAU1@0@Z PROC		; playerGetElk, COMDAT

; 689  : {

  00000	55		 push	 ebp
  00001	8b ec		 mov	 ebp, esp
  00003	83 e4 f8	 and	 esp, -8			; fffffff8H
; File C:\Anka2Project\Anka2Project\Source\Binary\source\eterBase\Singleton.h

; 26   : 		assert(ms_singleton);

  00006	8b 0d 00 00 00
	00		 mov	 ecx, DWORD PTR ?ms_singleton@?$CSingleton@VCPythonPlayer@@@@0PAVCPythonPlayer@@A ; CSingleton<CPythonPlayer>::ms_singleton
  0000c	85 c9		 test	 ecx, ecx
  0000e	75 1a		 jne	 SHORT $LN5@playerGetE
  00010	6a 1a		 push	 26			; 0000001aH
  00012	68 00 00 00 00	 push	 OFFSET ??_C@_1IO@CAJLEEOI@?$AAC?$AA?3?$AA?2?$AAA?$AAn?$AAk?$AAa?$AA2?$AAP?$AAr?$AAo?$AAj?$AAe?$AAc?$AAt@
  00017	68 00 00 00 00	 push	 OFFSET ??_C@_1BK@FMEHPMFE@?$AAm?$AAs?$AA_?$AAs?$AAi?$AAn?$AAg?$AAl?$AAe?$AAt?$AAo?$AAn@
  0001c	e8 00 00 00 00	 call	 __wassert
  00021	8b 0d 00 00 00
	00		 mov	 ecx, DWORD PTR ?ms_singleton@?$CSingleton@VCPythonPlayer@@@@0PAVCPythonPlayer@@A ; CSingleton<CPythonPlayer>::ms_singleton
  00027	83 c4 0c	 add	 esp, 12			; 0000000cH
$LN5@playerGetE:
; File C:\Anka2Project\Anka2Project\Source\Binary\source\UserInterface\PythonPlayerModule.cpp

; 691  : 	return PyLong_FromLongLong(CPythonPlayer::Instance().GetStatus(POINT_GOLD));

  0002a	8b 41 04	 mov	 eax, DWORD PTR [ecx+4]
  0002d	83 c1 04	 add	 ecx, 4
  00030	6a 0b		 push	 11			; 0000000bH
  00032	8b 40 10	 mov	 eax, DWORD PTR [eax+16]
  00035	ff d0		 call	 eax
  00037	52		 push	 edx
  00038	50		 push	 eax
  00039	ff 15 00 00 00
	00		 call	 DWORD PTR __imp__PyLong_FromLongLong
  0003f	83 c4 08	 add	 esp, 8

; 692  : #else
; 693  : 	return Py_BuildValue("i", CPythonPlayer::Instance().GetStatus(POINT_GOLD));
; 694  : #endif
; 695  : }

  00042	8b e5		 mov	 esp, ebp
  00044	5d		 pop	 ebp
  00045	c3		 ret	 0
?playerGetElk@@YAPAU_object@@PAU1@0@Z ENDP		; playerGetElk
_TEXT	ENDS
; Function compile flags: /Ogtp
; File C:\Anka2Project\Anka2Project\Source\Binary\source\UserInterface\PythonPlayerModule.cpp
; File C:\Anka2Project\Anka2Project\Source\Binary\source\eterBase\Singleton.h
; File C:\Anka2Project\Anka2Project\Source\Binary\source\UserInterface\PythonPlayerModule.cpp
;	COMDAT ?playerGetCoins@@YAPAU_object@@PAU1@0@Z
_TEXT	SEGMENT
_poSelf$ = 8						; size = 4
_poArgs$ = 12						; size = 4
?playerGetCoins@@YAPAU_object@@PAU1@0@Z PROC		; playerGetCoins, COMDAT

; 699  : {

  00000	55		 push	 ebp
  00001	8b ec		 mov	 ebp, esp
  00003	83 e4 f8	 and	 esp, -8			; fffffff8H
; File C:\Anka2Project\Anka2Project\Source\Binary\source\eterBase\Singleton.h

; 26   : 		assert(ms_singleton);

  00006	8b 0d 00 00 00
	00		 mov	 ecx, DWORD PTR ?ms_singleton@?$CSingleton@VCPythonPlayer@@@@0PAVCPythonPlayer@@A ; CSingleton<CPythonPlayer>::ms_singleton
  0000c	85 c9		 test	 ecx, ecx
  0000e	75 1a		 jne	 SHORT $LN5@playerGetC
  00010	6a 1a		 push	 26			; 0000001aH
  00012	68 00 00 00 00	 push	 OFFSET ??_C@_1IO@CAJLEEOI@?$AAC?$AA?3?$AA?2?$AAA?$AAn?$AAk?$AAa?$AA2?$AAP?$AAr?$AAo?$AAj?$AAe?$AAc?$AAt@
  00017	68 00 00 00 00	 push	 OFFSET ??_C@_1BK@FMEHPMFE@?$AAm?$AAs?$AA_?$AAs?$AAi?$AAn?$AAg?$AAl?$AAe?$AAt?$AAo?$AAn@
  0001c	e8 00 00 00 00	 call	 __wassert
  00021	8b 0d 00 00 00
	00		 mov	 ecx, DWORD PTR ?ms_singleton@?$CSingleton@VCPythonPlayer@@@@0PAVCPythonPlayer@@A ; CSingleton<CPythonPlayer>::ms_singleton
  00027	83 c4 0c	 add	 esp, 12			; 0000000cH
$LN5@playerGetC:
; File C:\Anka2Project\Anka2Project\Source\Binary\source\UserInterface\PythonPlayerModule.cpp

; 700  : 	return Py_BuildValue("l", CPythonPlayer::Instance().GetStatus(POINT_COINS));

  0002a	8b 41 04	 mov	 eax, DWORD PTR [ecx+4]
  0002d	83 c1 04	 add	 ecx, 4
  00030	68 8e 00 00 00	 push	 142			; 0000008eH
  00035	8b 40 10	 mov	 eax, DWORD PTR [eax+16]
  00038	ff d0		 call	 eax
  0003a	52		 push	 edx
  0003b	50		 push	 eax
  0003c	68 00 00 00 00	 push	 OFFSET ??_C@_01HHGOMJKL@l@
  00041	ff 15 00 00 00
	00		 call	 DWORD PTR __imp__Py_BuildValue
  00047	83 c4 0c	 add	 esp, 12			; 0000000cH

; 701  : }

  0004a	8b e5		 mov	 esp, ebp
  0004c	5d		 pop	 ebp
  0004d	c3		 ret	 0
?playerGetCoins@@YAPAU_object@@PAU1@0@Z ENDP		; playerGetCoins
_TEXT	ENDS
; Function compile flags: /Ogtp
; File C:\Anka2Project\Anka2Project\Source\Binary\source\UserInterface\PythonPlayerModule.cpp
; File C:\Anka2Project\Anka2Project\Source\Binary\source\eterBase\Singleton.h
; File C:\Anka2Project\Anka2Project\Source\Binary\source\UserInterface\PythonPlayerModule.cpp
;	COMDAT ?playerGetGuildID@@YAPAU_object@@PAU1@0@Z
_TEXT	SEGMENT
_poSelf$ = 8						; size = 4
_poArgs$ = 12						; size = 4
?playerGetGuildID@@YAPAU_object@@PAU1@0@Z PROC		; playerGetGuildID, COMDAT
; File C:\Anka2Project\Anka2Project\Source\Binary\source\eterBase\Singleton.h

; 26   : 		assert(ms_singleton);

  00000	8b 0d 00 00 00
	00		 mov	 ecx, DWORD PTR ?ms_singleton@?$CSingleton@VCPythonPlayer@@@@0PAVCPythonPlayer@@A ; CSingleton<CPythonPlayer>::ms_singleton
  00006	85 c9		 test	 ecx, ecx
  00008	75 1a		 jne	 SHORT $LN6@playerGetG
  0000a	6a 1a		 push	 26			; 0000001aH
  0000c	68 00 00 00 00	 push	 OFFSET ??_C@_1IO@CAJLEEOI@?$AAC?$AA?3?$AA?2?$AAA?$AAn?$AAk?$AAa?$AA2?$AAP?$AAr?$AAo?$AAj?$AAe?$AAc?$AAt@
  00011	68 00 00 00 00	 push	 OFFSET ??_C@_1BK@FMEHPMFE@?$AAm?$AAs?$AA_?$AAs?$AAi?$AAn?$AAg?$AAl?$AAe?$AAt?$AAo?$AAn@
  00016	e8 00 00 00 00	 call	 __wassert
  0001b	8b 0d 00 00 00
	00		 mov	 ecx, DWORD PTR ?ms_singleton@?$CSingleton@VCPythonPlayer@@@@0PAVCPythonPlayer@@A ; CSingleton<CPythonPlayer>::ms_singleton
  00021	83 c4 0c	 add	 esp, 12			; 0000000cH
$LN6@playerGetG:
; File C:\Anka2Project\Anka2Project\Source\Binary\source\UserInterface\PythonPlayerModule.cpp

; 706  : 	CInstanceBase * pInstance = CPythonPlayer::Instance().NEW_GetMainActorPtr();

  00024	8b 41 04	 mov	 eax, DWORD PTR [ecx+4]
  00027	83 c1 04	 add	 ecx, 4
  0002a	ff 90 8c 00 00
	00		 call	 DWORD PTR [eax+140]

; 707  : 	if (!pInstance)

  00030	85 c0		 test	 eax, eax
  00032	75 10		 jne	 SHORT $LN2@playerGetG

; 708  : 		return Py_BuildValue("i", 0);

  00034	50		 push	 eax

; 710  : }

  00035	68 00 00 00 00	 push	 OFFSET ??_C@_01KBJDNOO@i@
  0003a	ff 15 00 00 00
	00		 call	 DWORD PTR __imp__Py_BuildValue
  00040	83 c4 08	 add	 esp, 8
  00043	c3		 ret	 0
$LN2@playerGetG:

; 709  : 	return Py_BuildValue("i", pInstance->GetGuildID());

  00044	8b c8		 mov	 ecx, eax
  00046	e8 00 00 00 00	 call	 ?GetGuildID@CInstanceBase@@QAEKXZ ; CInstanceBase::GetGuildID
  0004b	50		 push	 eax

; 710  : }

  0004c	68 00 00 00 00	 push	 OFFSET ??_C@_01KBJDNOO@i@
  00051	ff 15 00 00 00
	00		 call	 DWORD PTR __imp__Py_BuildValue
  00057	83 c4 08	 add	 esp, 8
  0005a	c3		 ret	 0
?playerGetGuildID@@YAPAU_object@@PAU1@0@Z ENDP		; playerGetGuildID
_TEXT	ENDS
; Function compile flags: /Ogtp
; File C:\Anka2Project\Anka2Project\Source\Binary\source\UserInterface\PythonPlayerModule.cpp
; File C:\Anka2Project\Anka2Project\Source\Binary\source\eterBase\Singleton.h
; File C:\Anka2Project\Anka2Project\Source\Binary\source\UserInterface\PythonPlayerModule.cpp
; File C:\Program Files\Microsoft Visual Studio\2022\Community\VC\Tools\MSVC\14.44.35207\include\xstring
; File C:\Anka2Project\Anka2Project\Source\Binary\source\UserInterface\PythonPlayerModule.cpp
; File C:\Program Files\Microsoft Visual Studio\2022\Community\VC\Tools\MSVC\14.44.35207\include\xstring
; File C:\Anka2Project\Anka2Project\Source\Binary\source\UserInterface\PythonPlayerModule.cpp
; File C:\Anka2Project\Anka2Project\Source\Binary\source\eterBase\Singleton.h
; File C:\Anka2Project\Anka2Project\Source\Binary\source\UserInterface\PythonPlayerModule.cpp
; File C:\Program Files\Microsoft Visual Studio\2022\Community\VC\Tools\MSVC\14.44.35207\include\xstring
; File C:\Anka2Project\Anka2Project\Source\Binary\source\UserInterface\PythonPlayerModule.cpp
; File C:\Program Files\Microsoft Visual Studio\2022\Community\VC\Tools\MSVC\14.44.35207\include\xstring
; File C:\Anka2Project\Anka2Project\Source\Binary\source\UserInterface\PythonPlayerModule.cpp
; File C:\Program Files\Microsoft Visual Studio\2022\Community\VC\Tools\MSVC\14.44.35207\include\xstring
; File C:\Program Files\Microsoft Visual Studio\2022\Community\VC\Tools\MSVC\14.44.35207\include\xmemory
; File C:\Program Files\Microsoft Visual Studio\2022\Community\VC\Tools\MSVC\14.44.35207\include\xstring
; File C:\Program Files\Microsoft Visual Studio\2022\Community\VC\Tools\MSVC\14.44.35207\include\xmemory
; File C:\Anka2Project\Anka2Project\Source\Binary\source\UserInterface\PythonPlayerModule.cpp
; File C:\Program Files\Microsoft Visual Studio\2022\Community\VC\Tools\MSVC\14.44.35207\include\xstring
; File C:\Program Files\Microsoft Visual Studio\2022\Community\VC\Tools\MSVC\14.44.35207\include\xmemory
; File C:\Program Files\Microsoft Visual Studio\2022\Community\VC\Tools\MSVC\14.44.35207\include\xstring
; File C:\Program Files\Microsoft Visual Studio\2022\Community\VC\Tools\MSVC\14.44.35207\include\xmemory
; File C:\Anka2Project\Anka2Project\Source\Binary\source\UserInterface\PythonPlayerModule.cpp
; File C:\Program Files\Microsoft Visual Studio\2022\Community\VC\Tools\MSVC\14.44.35207\include\xmemory
; File C:\Anka2Project\Anka2Project\Source\Binary\source\UserInterface\PythonPlayerModule.cpp
;	COMDAT ?playerGetGuildName@@YAPAU_object@@PAU1@0@Z
_TEXT	SEGMENT
_strName$16 = -44					; size = 24
__$ArrayPad$ = -20					; size = 4
__$EHRec$ = -12						; size = 12
_poSelf$ = 8						; size = 4
_poArgs$ = 12						; size = 4
?playerGetGuildName@@YAPAU_object@@PAU1@0@Z PROC	; playerGetGuildName, COMDAT

; 713  : {

  00000	53		 push	 ebx
  00001	8b dc		 mov	 ebx, esp
  00003	83 ec 08	 sub	 esp, 8
  00006	83 e4 f8	 and	 esp, -8			; fffffff8H
  00009	83 c4 04	 add	 esp, 4
  0000c	55		 push	 ebp
  0000d	8b 6b 04	 mov	 ebp, DWORD PTR [ebx+4]
  00010	89 6c 24 04	 mov	 DWORD PTR [esp+4], ebp
  00014	8b ec		 mov	 ebp, esp
  00016	6a ff		 push	 -1
  00018	68 00 00 00 00	 push	 __ehhandler$?playerGetGuildName@@YAPAU_object@@PAU1@0@Z
  0001d	64 a1 00 00 00
	00		 mov	 eax, DWORD PTR fs:0
  00023	50		 push	 eax
  00024	53		 push	 ebx
  00025	83 ec 1c	 sub	 esp, 28			; 0000001cH
  00028	a1 00 00 00 00	 mov	 eax, DWORD PTR ___security_cookie
  0002d	33 c5		 xor	 eax, ebp
  0002f	89 45 ec	 mov	 DWORD PTR __$ArrayPad$[ebp], eax
  00032	56		 push	 esi
  00033	50		 push	 eax
  00034	8d 45 f4	 lea	 eax, DWORD PTR __$EHRec$[ebp]
  00037	64 a3 00 00 00
	00		 mov	 DWORD PTR fs:0, eax
; File C:\Anka2Project\Anka2Project\Source\Binary\source\eterBase\Singleton.h

; 26   : 		assert(ms_singleton);

  0003d	8b 0d 00 00 00
	00		 mov	 ecx, DWORD PTR ?ms_singleton@?$CSingleton@VCPythonPlayer@@@@0PAVCPythonPlayer@@A ; CSingleton<CPythonPlayer>::ms_singleton
  00043	85 c9		 test	 ecx, ecx
  00045	75 1a		 jne	 SHORT $LN8@playerGetG
  00047	6a 1a		 push	 26			; 0000001aH
  00049	68 00 00 00 00	 push	 OFFSET ??_C@_1IO@CAJLEEOI@?$AAC?$AA?3?$AA?2?$AAA?$AAn?$AAk?$AAa?$AA2?$AAP?$AAr?$AAo?$AAj?$AAe?$AAc?$AAt@
  0004e	68 00 00 00 00	 push	 OFFSET ??_C@_1BK@FMEHPMFE@?$AAm?$AAs?$AA_?$AAs?$AAi?$AAn?$AAg?$AAl?$AAe?$AAt?$AAo?$AAn@
  00053	e8 00 00 00 00	 call	 __wassert
  00058	8b 0d 00 00 00
	00		 mov	 ecx, DWORD PTR ?ms_singleton@?$CSingleton@VCPythonPlayer@@@@0PAVCPythonPlayer@@A ; CSingleton<CPythonPlayer>::ms_singleton
  0005e	83 c4 0c	 add	 esp, 12			; 0000000cH
$LN8@playerGetG:
; File C:\Anka2Project\Anka2Project\Source\Binary\source\UserInterface\PythonPlayerModule.cpp

; 714  : 	CInstanceBase * pInstance = CPythonPlayer::Instance().NEW_GetMainActorPtr();

  00061	8b 41 04	 mov	 eax, DWORD PTR [ecx+4]
  00064	83 c1 04	 add	 ecx, 4
  00067	8b 80 8c 00 00
	00		 mov	 eax, DWORD PTR [eax+140]
  0006d	ff d0		 call	 eax

; 715  : 	if (pInstance)

  0006f	85 c0		 test	 eax, eax
  00071	0f 84 db 00 00
	00		 je	 $LN93@playerGetG

; 717  : 		DWORD dwID = pInstance->GetGuildID();

  00077	8b c8		 mov	 ecx, eax
  00079	e8 00 00 00 00	 call	 ?GetGuildID@CInstanceBase@@QAEKXZ ; CInstanceBase::GetGuildID
  0007e	0f 57 c0	 xorps	 xmm0, xmm0
; File C:\Program Files\Microsoft Visual Studio\2022\Community\VC\Tools\MSVC\14.44.35207\include\xstring

; 860  :         _My_data._Mysize = 0;

  00081	c7 45 e4 00 00
	00 00		 mov	 DWORD PTR _strName$16[ebp+16], 0

; 493  :         _CONSTEXPR20 _Bxty() noexcept : _Buf() {} // user-provided, for fancy pointers

  00088	0f 11 45 d4	 movups	 XMMWORD PTR _strName$16[ebp], xmm0
; File C:\Anka2Project\Anka2Project\Source\Binary\source\UserInterface\PythonPlayerModule.cpp

; 717  : 		DWORD dwID = pInstance->GetGuildID();

  0008c	8b f0		 mov	 esi, eax
; File C:\Program Files\Microsoft Visual Studio\2022\Community\VC\Tools\MSVC\14.44.35207\include\xstring

; 861  :         _My_data._Myres  = _Small_string_capacity;

  0008e	c7 45 e8 0f 00
	00 00		 mov	 DWORD PTR _strName$16[ebp+20], 15 ; 0000000fH

; 862  :         _My_data._Activate_SSO_buffer();
; 863  : 
; 864  :         // the _Traits::assign is last so the codegen doesn't think the char write can alias this
; 865  :         _Traits::assign(_My_data._Bx._Buf[0], _Elem());

  00095	c6 45 d4 00	 mov	 BYTE PTR _strName$16[ebp], 0
; File C:\Anka2Project\Anka2Project\Source\Binary\source\UserInterface\PythonPlayerModule.cpp

; 718  : 		std::string strName;

  00099	c7 45 fc 00 00
	00 00		 mov	 DWORD PTR __$EHRec$[ebp+8], 0
; File C:\Anka2Project\Anka2Project\Source\Binary\source\eterBase\Singleton.h

; 26   : 		assert(ms_singleton);

  000a0	8b 0d 00 00 00
	00		 mov	 ecx, DWORD PTR ?ms_singleton@?$CSingleton@VCPythonGuild@@@@0PAVCPythonGuild@@A ; CSingleton<CPythonGuild>::ms_singleton
  000a6	85 c9		 test	 ecx, ecx
  000a8	75 1a		 jne	 SHORT $LN31@playerGetG
  000aa	6a 1a		 push	 26			; 0000001aH
  000ac	68 00 00 00 00	 push	 OFFSET ??_C@_1IO@CAJLEEOI@?$AAC?$AA?3?$AA?2?$AAA?$AAn?$AAk?$AAa?$AA2?$AAP?$AAr?$AAo?$AAj?$AAe?$AAc?$AAt@
  000b1	68 00 00 00 00	 push	 OFFSET ??_C@_1BK@FMEHPMFE@?$AAm?$AAs?$AA_?$AAs?$AAi?$AAn?$AAg?$AAl?$AAe?$AAt?$AAo?$AAn@
  000b6	e8 00 00 00 00	 call	 __wassert
  000bb	8b 0d 00 00 00
	00		 mov	 ecx, DWORD PTR ?ms_singleton@?$CSingleton@VCPythonGuild@@@@0PAVCPythonGuild@@A ; CSingleton<CPythonGuild>::ms_singleton
  000c1	83 c4 0c	 add	 esp, 12			; 0000000cH
$LN31@playerGetG:
; File C:\Anka2Project\Anka2Project\Source\Binary\source\UserInterface\PythonPlayerModule.cpp

; 719  : 		if (CPythonGuild::Instance().GetGuildName(dwID, &strName))

  000c4	8d 45 d4	 lea	 eax, DWORD PTR _strName$16[ebp]
  000c7	50		 push	 eax
  000c8	56		 push	 esi
  000c9	e8 00 00 00 00	 call	 ?GetGuildName@CPythonGuild@@QAE_NKPAV?$basic_string@DU?$char_traits@D@std@@V?$allocator@D@2@@std@@@Z ; CPythonGuild::GetGuildName
  000ce	84 c0		 test	 al, al
  000d0	74 50		 je	 SHORT $LN3@playerGetG
; File C:\Program Files\Microsoft Visual Studio\2022\Community\VC\Tools\MSVC\14.44.35207\include\xstring

; 453  :         return _Myres > _Small_string_capacity;

  000d2	83 7d e8 0f	 cmp	 DWORD PTR _strName$16[ebp+20], 15 ; 0000000fH

; 444  :         const value_type* _Result = _Bx._Buf;

  000d6	8d 45 d4	 lea	 eax, DWORD PTR _strName$16[ebp]

; 445  :         if (_Large_mode_engaged()) {

  000d9	0f 47 45 d4	 cmova	 eax, DWORD PTR _strName$16[ebp]
; File C:\Anka2Project\Anka2Project\Source\Binary\source\UserInterface\PythonPlayerModule.cpp

; 720  : 			return Py_BuildValue("s", strName.c_str());

  000dd	50		 push	 eax
  000de	68 00 00 00 00	 push	 OFFSET ??_C@_01LKDEMHDF@s@
  000e3	ff 15 00 00 00
	00		 call	 DWORD PTR __imp__Py_BuildValue
; File C:\Program Files\Microsoft Visual Studio\2022\Community\VC\Tools\MSVC\14.44.35207\include\xstring

; 453  :         return _Myres > _Small_string_capacity;

  000e9	8b 4d e8	 mov	 ecx, DWORD PTR _strName$16[ebp+20]
; File C:\Anka2Project\Anka2Project\Source\Binary\source\UserInterface\PythonPlayerModule.cpp

; 720  : 			return Py_BuildValue("s", strName.c_str());

  000ec	83 c4 08	 add	 esp, 8
  000ef	8b f0		 mov	 esi, eax
; File C:\Program Files\Microsoft Visual Studio\2022\Community\VC\Tools\MSVC\14.44.35207\include\xstring

; 453  :         return _Myres > _Small_string_capacity;

  000f1	83 f9 0f	 cmp	 ecx, 15			; 0000000fH

; 3083 :         if (_My_data._Large_mode_engaged()) {

  000f4	76 28		 jbe	 SHORT $LN60@playerGetG
; File C:\Program Files\Microsoft Visual Studio\2022\Community\VC\Tools\MSVC\14.44.35207\include\xmemory

; 985  :         _STD _Deallocate<_New_alignof<_Ty>>(_Ptr, sizeof(_Ty) * _Count);

  000f6	8b 55 d4	 mov	 edx, DWORD PTR _strName$16[ebp]
; File C:\Program Files\Microsoft Visual Studio\2022\Community\VC\Tools\MSVC\14.44.35207\include\xstring

; 852  :         _Al.deallocate(_Old_ptr, _Capacity + 1); // +1 for null terminator

  000f9	41		 inc	 ecx
; File C:\Program Files\Microsoft Visual Studio\2022\Community\VC\Tools\MSVC\14.44.35207\include\xmemory

; 985  :         _STD _Deallocate<_New_alignof<_Ty>>(_Ptr, sizeof(_Ty) * _Count);

  000fa	8b c2		 mov	 eax, edx

; 284  :         if (_Bytes >= _Big_allocation_threshold) {

  000fc	81 f9 00 10 00
	00		 cmp	 ecx, 4096		; 00001000H
  00102	72 10		 jb	 SHORT $LN68@playerGetG

; 205  :     const uintptr_t _Ptr_container   = _Ptr_user[-1];

  00104	8b 50 fc	 mov	 edx, DWORD PTR [eax-4]
  00107	83 c1 23	 add	 ecx, 35			; 00000023H
  0010a	2b c2		 sub	 eax, edx

; 219  :     _STL_VERIFY(_Back_shift >= _Min_back_shift && _Back_shift <= _Non_user_size, "invalid argument");

  0010c	83 c0 fc	 add	 eax, -4			; fffffffcH
  0010f	83 f8 1f	 cmp	 eax, 31			; 0000001fH
  00112	77 6e		 ja	 SHORT $LN100@playerGetG
$LN68@playerGetG:

; 289  :         ::operator delete(_Ptr, _Bytes);

  00114	51		 push	 ecx
  00115	52		 push	 edx
  00116	e8 00 00 00 00	 call	 ??3@YAXPAXI@Z		; operator delete
  0011b	83 c4 08	 add	 esp, 8
$LN60@playerGetG:
; File C:\Anka2Project\Anka2Project\Source\Binary\source\UserInterface\PythonPlayerModule.cpp

; 720  : 			return Py_BuildValue("s", strName.c_str());

  0011e	8b c6		 mov	 eax, esi
  00120	eb 43		 jmp	 SHORT $LN1@playerGetG
$LN3@playerGetG:
; File C:\Program Files\Microsoft Visual Studio\2022\Community\VC\Tools\MSVC\14.44.35207\include\xstring

; 453  :         return _Myres > _Small_string_capacity;

  00122	8b 4d e8	 mov	 ecx, DWORD PTR _strName$16[ebp+20]
  00125	83 f9 0f	 cmp	 ecx, 15			; 0000000fH

; 3083 :         if (_My_data._Large_mode_engaged()) {

  00128	76 28		 jbe	 SHORT $LN93@playerGetG
; File C:\Program Files\Microsoft Visual Studio\2022\Community\VC\Tools\MSVC\14.44.35207\include\xmemory

; 985  :         _STD _Deallocate<_New_alignof<_Ty>>(_Ptr, sizeof(_Ty) * _Count);

  0012a	8b 55 d4	 mov	 edx, DWORD PTR _strName$16[ebp]
; File C:\Program Files\Microsoft Visual Studio\2022\Community\VC\Tools\MSVC\14.44.35207\include\xstring

; 852  :         _Al.deallocate(_Old_ptr, _Capacity + 1); // +1 for null terminator

  0012d	41		 inc	 ecx
; File C:\Program Files\Microsoft Visual Studio\2022\Community\VC\Tools\MSVC\14.44.35207\include\xmemory

; 985  :         _STD _Deallocate<_New_alignof<_Ty>>(_Ptr, sizeof(_Ty) * _Count);

  0012e	8b c2		 mov	 eax, edx

; 284  :         if (_Bytes >= _Big_allocation_threshold) {

  00130	81 f9 00 10 00
	00		 cmp	 ecx, 4096		; 00001000H
  00136	72 10		 jb	 SHORT $LN101@playerGetG

; 205  :     const uintptr_t _Ptr_container   = _Ptr_user[-1];

  00138	8b 50 fc	 mov	 edx, DWORD PTR [eax-4]
  0013b	83 c1 23	 add	 ecx, 35			; 00000023H
  0013e	2b c2		 sub	 eax, edx

; 219  :     _STL_VERIFY(_Back_shift >= _Min_back_shift && _Back_shift <= _Non_user_size, "invalid argument");

  00140	83 c0 fc	 add	 eax, -4			; fffffffcH
  00143	83 f8 1f	 cmp	 eax, 31			; 0000001fH
  00146	77 3a		 ja	 SHORT $LN100@playerGetG
$LN101@playerGetG:

; 289  :         ::operator delete(_Ptr, _Bytes);

  00148	51		 push	 ecx
  00149	52		 push	 edx
  0014a	e8 00 00 00 00	 call	 ??3@YAXPAXI@Z		; operator delete
  0014f	83 c4 08	 add	 esp, 8
$LN93@playerGetG:
; File C:\Anka2Project\Anka2Project\Source\Binary\source\UserInterface\PythonPlayerModule.cpp

; 722  : 	return Py_BuildValue("s", "");

  00152	68 00 00 00 00	 push	 OFFSET ??_C@_00CNPNBAHC@@
  00157	68 00 00 00 00	 push	 OFFSET ??_C@_01LKDEMHDF@s@
  0015c	ff 15 00 00 00
	00		 call	 DWORD PTR __imp__Py_BuildValue
  00162	83 c4 08	 add	 esp, 8
$LN1@playerGetG:

; 723  : }

  00165	8b 4d f4	 mov	 ecx, DWORD PTR __$EHRec$[ebp]
  00168	64 89 0d 00 00
	00 00		 mov	 DWORD PTR fs:0, ecx
  0016f	59		 pop	 ecx
  00170	5e		 pop	 esi
  00171	8b 4d ec	 mov	 ecx, DWORD PTR __$ArrayPad$[ebp]
  00174	33 cd		 xor	 ecx, ebp
  00176	e8 00 00 00 00	 call	 @__security_check_cookie@4
  0017b	8b e5		 mov	 esp, ebp
  0017d	5d		 pop	 ebp
  0017e	8b e3		 mov	 esp, ebx
  00180	5b		 pop	 ebx
  00181	c3		 ret	 0
$LN100@playerGetG:
; File C:\Program Files\Microsoft Visual Studio\2022\Community\VC\Tools\MSVC\14.44.35207\include\xmemory

; 219  :     _STL_VERIFY(_Back_shift >= _Min_back_shift && _Back_shift <= _Non_user_size, "invalid argument");

  00182	6a 00		 push	 0
  00184	6a 00		 push	 0
  00186	6a 00		 push	 0
  00188	6a 00		 push	 0
  0018a	6a 00		 push	 0
  0018c	e8 00 00 00 00	 call	 __invoke_watson
$LN108@playerGetG:
  00191	cc		 int	 3
_TEXT	ENDS
;	COMDAT text$x
text$x	SEGMENT
__unwindfunclet$?playerGetGuildName@@YAPAU_object@@PAU1@0@Z$0:
  00000	8d 4d d4	 lea	 ecx, DWORD PTR _strName$16[ebp]
  00003	e9 00 00 00 00	 jmp	 ??1?$basic_string@DU?$char_traits@D@std@@V?$allocator@D@2@@std@@QAE@XZ ; std::basic_string<char,std::char_traits<char>,std::allocator<char> >::~basic_string<char,std::char_traits<char>,std::allocator<char> >
  00008	cc		 int	 3
  00009	cc		 int	 3
  0000a	cc		 int	 3
  0000b	cc		 int	 3
  0000c	cc		 int	 3
__ehhandler$?playerGetGuildName@@YAPAU_object@@PAU1@0@Z:
  0000d	90		 npad	 1
  0000e	90		 npad	 1
  0000f	8b 54 24 08	 mov	 edx, DWORD PTR [esp+8]
  00013	8d 42 0c	 lea	 eax, DWORD PTR [edx+12]
  00016	8b 4a d8	 mov	 ecx, DWORD PTR [edx-40]
  00019	33 c8		 xor	 ecx, eax
  0001b	e8 00 00 00 00	 call	 @__security_check_cookie@4
  00020	8b 4a f8	 mov	 ecx, DWORD PTR [edx-8]
  00023	33 c8		 xor	 ecx, eax
  00025	e8 00 00 00 00	 call	 @__security_check_cookie@4
  0002a	b8 00 00 00 00	 mov	 eax, OFFSET __ehfuncinfo$?playerGetGuildName@@YAPAU_object@@PAU1@0@Z
  0002f	e9 00 00 00 00	 jmp	 ___CxxFrameHandler3
text$x	ENDS
?playerGetGuildName@@YAPAU_object@@PAU1@0@Z ENDP	; playerGetGuildName
; Function compile flags: /Ogtp
; File C:\Anka2Project\Anka2Project\Source\Binary\source\UserInterface\PythonPlayerModule.cpp
; File C:\Anka2Project\Anka2Project\Source\Binary\source\eterBase\Singleton.h
; File C:\Anka2Project\Anka2Project\Source\Binary\source\UserInterface\PythonPlayerModule.cpp
;	COMDAT ?playerGetAlignmentData@@YAPAU_object@@PAU1@0@Z
_TEXT	SEGMENT
_poSelf$ = 8						; size = 4
_poArgs$ = 12						; size = 4
?playerGetAlignmentData@@YAPAU_object@@PAU1@0@Z PROC	; playerGetAlignmentData, COMDAT
; File C:\Anka2Project\Anka2Project\Source\Binary\source\eterBase\Singleton.h

; 26   : 		assert(ms_singleton);

  00000	8b 0d 00 00 00
	00		 mov	 ecx, DWORD PTR ?ms_singleton@?$CSingleton@VCPythonPlayer@@@@0PAVCPythonPlayer@@A ; CSingleton<CPythonPlayer>::ms_singleton
  00006	85 c9		 test	 ecx, ecx
  00008	75 1a		 jne	 SHORT $LN6@playerGetA
  0000a	6a 1a		 push	 26			; 0000001aH
  0000c	68 00 00 00 00	 push	 OFFSET ??_C@_1IO@CAJLEEOI@?$AAC?$AA?3?$AA?2?$AAA?$AAn?$AAk?$AAa?$AA2?$AAP?$AAr?$AAo?$AAj?$AAe?$AAc?$AAt@
  00011	68 00 00 00 00	 push	 OFFSET ??_C@_1BK@FMEHPMFE@?$AAm?$AAs?$AA_?$AAs?$AAi?$AAn?$AAg?$AAl?$AAe?$AAt?$AAo?$AAn@
  00016	e8 00 00 00 00	 call	 __wassert
  0001b	8b 0d 00 00 00
	00		 mov	 ecx, DWORD PTR ?ms_singleton@?$CSingleton@VCPythonPlayer@@@@0PAVCPythonPlayer@@A ; CSingleton<CPythonPlayer>::ms_singleton
  00021	83 c4 0c	 add	 esp, 12			; 0000000cH
$LN6@playerGetA:
; File C:\Anka2Project\Anka2Project\Source\Binary\source\UserInterface\PythonPlayerModule.cpp

; 727  : 	CInstanceBase * pInstance = CPythonPlayer::Instance().NEW_GetMainActorPtr();

  00024	8b 41 04	 mov	 eax, DWORD PTR [ecx+4]
  00027	83 c1 04	 add	 ecx, 4
  0002a	56		 push	 esi
  0002b	ff 90 8c 00 00
	00		 call	 DWORD PTR [eax+140]

; 728  : 	int iAlignmentPoint = 0;

  00031	33 f6		 xor	 esi, esi
  00033	8b c8		 mov	 ecx, eax

; 729  : 	int iAlignmentGrade = 4;

  00035	8d 46 04	 lea	 eax, DWORD PTR [esi+4]

; 730  : 	if (pInstance)

  00038	85 c9		 test	 ecx, ecx
  0003a	74 0c		 je	 SHORT $LN2@playerGetA

; 731  : 	{
; 732  : 		iAlignmentPoint = pInstance->GetAlignment();

  0003c	e8 00 00 00 00	 call	 ?GetAlignment@CInstanceBase@@QAEHXZ ; CInstanceBase::GetAlignment
  00041	8b f0		 mov	 esi, eax

; 733  : 		iAlignmentGrade = pInstance->GetAlignmentGrade();

  00043	e8 00 00 00 00	 call	 ?GetAlignmentGrade@CInstanceBase@@QAEIXZ ; CInstanceBase::GetAlignmentGrade
$LN2@playerGetA:

; 734  : 	}
; 735  : 	return Py_BuildValue("ii", iAlignmentPoint, iAlignmentGrade);

  00048	50		 push	 eax
  00049	56		 push	 esi
  0004a	68 00 00 00 00	 push	 OFFSET ??_C@_02PDIHAGKM@ii@
  0004f	ff 15 00 00 00
	00		 call	 DWORD PTR __imp__Py_BuildValue
  00055	83 c4 0c	 add	 esp, 12			; 0000000cH
  00058	5e		 pop	 esi

; 736  : }

  00059	c3		 ret	 0
?playerGetAlignmentData@@YAPAU_object@@PAU1@0@Z ENDP	; playerGetAlignmentData
_TEXT	ENDS
; Function compile flags: /Ogtp
; File C:\Anka2Project\Anka2Project\Source\Binary\source\UserInterface\PythonPlayerModule.cpp
; File C:\Anka2Project\Anka2Project\Source\Binary\source\eterBase\Singleton.h
; File C:\Anka2Project\Anka2Project\Source\Binary\source\UserInterface\PythonPlayerModule.cpp
;	COMDAT ?playerGetSkillIndex@@YAPAU_object@@PAU1@0@Z
_TEXT	SEGMENT
_iSlotIndex$ = -4					; size = 4
_poSelf$ = 8						; size = 4
_poArgs$ = 12						; size = 4
?playerGetSkillIndex@@YAPAU_object@@PAU1@0@Z PROC	; playerGetSkillIndex, COMDAT

; 753  : {

  00000	55		 push	 ebp
  00001	8b ec		 mov	 ebp, esp
  00003	51		 push	 ecx

; 754  : 	int iSlotIndex;
; 755  : 	if (!PyTuple_GetInteger(poArgs, 0, &iSlotIndex))

  00004	8d 45 fc	 lea	 eax, DWORD PTR _iSlotIndex$[ebp]
  00007	50		 push	 eax
  00008	6a 00		 push	 0
  0000a	ff 75 0c	 push	 DWORD PTR _poArgs$[ebp]
  0000d	e8 00 00 00 00	 call	 ?PyTuple_GetInteger@@YA_NPAU_object@@HPAH@Z ; PyTuple_GetInteger
  00012	83 c4 0c	 add	 esp, 12			; 0000000cH
  00015	84 c0		 test	 al, al
  00017	75 0e		 jne	 SHORT $LN2@playerGetS

; 756  : 		return Py_BuildException();

  00019	6a 00		 push	 0
  0001b	e8 00 00 00 00	 call	 ?Py_BuildException@@YAPAU_object@@PBDZZ ; Py_BuildException
  00020	83 c4 04	 add	 esp, 4

; 759  : }

  00023	8b e5		 mov	 esp, ebp
  00025	5d		 pop	 ebp
  00026	c3		 ret	 0
$LN2@playerGetS:
; File C:\Anka2Project\Anka2Project\Source\Binary\source\eterBase\Singleton.h

; 26   : 		assert(ms_singleton);

  00027	8b 0d 00 00 00
	00		 mov	 ecx, DWORD PTR ?ms_singleton@?$CSingleton@VCPythonPlayer@@@@0PAVCPythonPlayer@@A ; CSingleton<CPythonPlayer>::ms_singleton
  0002d	85 c9		 test	 ecx, ecx
  0002f	75 1a		 jne	 SHORT $LN6@playerGetS
  00031	6a 1a		 push	 26			; 0000001aH
  00033	68 00 00 00 00	 push	 OFFSET ??_C@_1IO@CAJLEEOI@?$AAC?$AA?3?$AA?2?$AAA?$AAn?$AAk?$AAa?$AA2?$AAP?$AAr?$AAo?$AAj?$AAe?$AAc?$AAt@
  00038	68 00 00 00 00	 push	 OFFSET ??_C@_1BK@FMEHPMFE@?$AAm?$AAs?$AA_?$AAs?$AAi?$AAn?$AAg?$AAl?$AAe?$AAt?$AAo?$AAn@
  0003d	e8 00 00 00 00	 call	 __wassert
  00042	8b 0d 00 00 00
	00		 mov	 ecx, DWORD PTR ?ms_singleton@?$CSingleton@VCPythonPlayer@@@@0PAVCPythonPlayer@@A ; CSingleton<CPythonPlayer>::ms_singleton
  00048	83 c4 0c	 add	 esp, 12			; 0000000cH
$LN6@playerGetS:
; File C:\Anka2Project\Anka2Project\Source\Binary\source\UserInterface\PythonPlayerModule.cpp

; 758  : 	return Py_BuildValue("i", CPythonPlayer::Instance().GetSkillIndex(iSlotIndex));

  0004b	ff 75 fc	 push	 DWORD PTR _iSlotIndex$[ebp]
  0004e	e8 00 00 00 00	 call	 ?GetSkillIndex@CPythonPlayer@@QAEHK@Z ; CPythonPlayer::GetSkillIndex
  00053	50		 push	 eax
  00054	68 00 00 00 00	 push	 OFFSET ??_C@_01KBJDNOO@i@
  00059	ff 15 00 00 00
	00		 call	 DWORD PTR __imp__Py_BuildValue
  0005f	83 c4 08	 add	 esp, 8

; 759  : }

  00062	8b e5		 mov	 esp, ebp
  00064	5d		 pop	 ebp
  00065	c3		 ret	 0
?playerGetSkillIndex@@YAPAU_object@@PAU1@0@Z ENDP	; playerGetSkillIndex
_TEXT	ENDS
; Function compile flags: /Ogtp
; File C:\Anka2Project\Anka2Project\Source\Binary\source\UserInterface\PythonPlayerModule.cpp
; File C:\Anka2Project\Anka2Project\Source\Binary\source\eterBase\Singleton.h
; File C:\Anka2Project\Anka2Project\Source\Binary\source\UserInterface\PythonPlayerModule.cpp
;	COMDAT ?playerGetSkillSlotIndex@@YAPAU_object@@PAU1@0@Z
_TEXT	SEGMENT
_dwSlotIndex$ = -8					; size = 4
_iSkillIndex$ = -4					; size = 4
_poSelf$ = 8						; size = 4
_poArgs$ = 12						; size = 4
?playerGetSkillSlotIndex@@YAPAU_object@@PAU1@0@Z PROC	; playerGetSkillSlotIndex, COMDAT

; 762  : {

  00000	55		 push	 ebp
  00001	8b ec		 mov	 ebp, esp
  00003	83 ec 08	 sub	 esp, 8

; 763  : 	int iSkillIndex;
; 764  : 	if (!PyTuple_GetInteger(poArgs, 0, &iSkillIndex))

  00006	8d 45 fc	 lea	 eax, DWORD PTR _iSkillIndex$[ebp]
  00009	50		 push	 eax
  0000a	6a 00		 push	 0
  0000c	ff 75 0c	 push	 DWORD PTR _poArgs$[ebp]
  0000f	e8 00 00 00 00	 call	 ?PyTuple_GetInteger@@YA_NPAU_object@@HPAH@Z ; PyTuple_GetInteger
  00014	83 c4 0c	 add	 esp, 12			; 0000000cH
  00017	84 c0		 test	 al, al
  00019	75 0e		 jne	 SHORT $LN2@playerGetS
$LN8@playerGetS:

; 772  : }

  0001b	6a 00		 push	 0
  0001d	e8 00 00 00 00	 call	 ?Py_BuildException@@YAPAU_object@@PBDZZ ; Py_BuildException
  00022	83 c4 04	 add	 esp, 4
  00025	8b e5		 mov	 esp, ebp
  00027	5d		 pop	 ebp
  00028	c3		 ret	 0
$LN2@playerGetS:
; File C:\Anka2Project\Anka2Project\Source\Binary\source\eterBase\Singleton.h

; 26   : 		assert(ms_singleton);

  00029	8b 0d 00 00 00
	00		 mov	 ecx, DWORD PTR ?ms_singleton@?$CSingleton@VCPythonPlayer@@@@0PAVCPythonPlayer@@A ; CSingleton<CPythonPlayer>::ms_singleton
  0002f	85 c9		 test	 ecx, ecx
  00031	75 1a		 jne	 SHORT $LN7@playerGetS
  00033	6a 1a		 push	 26			; 0000001aH
  00035	68 00 00 00 00	 push	 OFFSET ??_C@_1IO@CAJLEEOI@?$AAC?$AA?3?$AA?2?$AAA?$AAn?$AAk?$AAa?$AA2?$AAP?$AAr?$AAo?$AAj?$AAe?$AAc?$AAt@
  0003a	68 00 00 00 00	 push	 OFFSET ??_C@_1BK@FMEHPMFE@?$AAm?$AAs?$AA_?$AAs?$AAi?$AAn?$AAg?$AAl?$AAe?$AAt?$AAo?$AAn@
  0003f	e8 00 00 00 00	 call	 __wassert
  00044	8b 0d 00 00 00
	00		 mov	 ecx, DWORD PTR ?ms_singleton@?$CSingleton@VCPythonPlayer@@@@0PAVCPythonPlayer@@A ; CSingleton<CPythonPlayer>::ms_singleton
  0004a	83 c4 0c	 add	 esp, 12			; 0000000cH
$LN7@playerGetS:
; File C:\Anka2Project\Anka2Project\Source\Binary\source\UserInterface\PythonPlayerModule.cpp

; 768  : 	if (!CPythonPlayer::Instance().GetSkillSlotIndex(iSkillIndex, &dwSlotIndex))

  0004d	8d 45 f8	 lea	 eax, DWORD PTR _dwSlotIndex$[ebp]
  00050	50		 push	 eax
  00051	ff 75 fc	 push	 DWORD PTR _iSkillIndex$[ebp]
  00054	e8 00 00 00 00	 call	 ?GetSkillSlotIndex@CPythonPlayer@@QAE_NKPAK@Z ; CPythonPlayer::GetSkillSlotIndex
  00059	84 c0		 test	 al, al
  0005b	74 be		 je	 SHORT $LN8@playerGetS

; 769  : 		return Py_BuildException();
; 770  : 
; 771  : 	return Py_BuildValue("i", dwSlotIndex);

  0005d	ff 75 f8	 push	 DWORD PTR _dwSlotIndex$[ebp]
  00060	68 00 00 00 00	 push	 OFFSET ??_C@_01KBJDNOO@i@
  00065	ff 15 00 00 00
	00		 call	 DWORD PTR __imp__Py_BuildValue
  0006b	83 c4 08	 add	 esp, 8

; 772  : }

  0006e	8b e5		 mov	 esp, ebp
  00070	5d		 pop	 ebp
  00071	c3		 ret	 0
?playerGetSkillSlotIndex@@YAPAU_object@@PAU1@0@Z ENDP	; playerGetSkillSlotIndex
_TEXT	ENDS
; Function compile flags: /Ogtp
; File C:\Anka2Project\Anka2Project\Source\Binary\source\UserInterface\PythonPlayerModule.cpp
; File C:\Anka2Project\Anka2Project\Source\Binary\source\eterBase\Singleton.h
; File C:\Anka2Project\Anka2Project\Source\Binary\source\UserInterface\PythonPlayerModule.cpp
;	COMDAT ?playerGetSkillGrade@@YAPAU_object@@PAU1@0@Z
_TEXT	SEGMENT
_iSlotIndex$ = -4					; size = 4
_poSelf$ = 8						; size = 4
_poArgs$ = 12						; size = 4
?playerGetSkillGrade@@YAPAU_object@@PAU1@0@Z PROC	; playerGetSkillGrade, COMDAT

; 775  : {

  00000	55		 push	 ebp
  00001	8b ec		 mov	 ebp, esp
  00003	51		 push	 ecx

; 776  : 	int iSlotIndex;
; 777  : 	if (!PyTuple_GetInteger(poArgs, 0, &iSlotIndex))

  00004	8d 45 fc	 lea	 eax, DWORD PTR _iSlotIndex$[ebp]
  00007	50		 push	 eax
  00008	6a 00		 push	 0
  0000a	ff 75 0c	 push	 DWORD PTR _poArgs$[ebp]
  0000d	e8 00 00 00 00	 call	 ?PyTuple_GetInteger@@YA_NPAU_object@@HPAH@Z ; PyTuple_GetInteger
  00012	83 c4 0c	 add	 esp, 12			; 0000000cH
  00015	84 c0		 test	 al, al
  00017	75 0e		 jne	 SHORT $LN2@playerGetS

; 778  : 		return Py_BuildException();

  00019	6a 00		 push	 0
  0001b	e8 00 00 00 00	 call	 ?Py_BuildException@@YAPAU_object@@PBDZZ ; Py_BuildException
  00020	83 c4 04	 add	 esp, 4

; 781  : }

  00023	8b e5		 mov	 esp, ebp
  00025	5d		 pop	 ebp
  00026	c3		 ret	 0
$LN2@playerGetS:
; File C:\Anka2Project\Anka2Project\Source\Binary\source\eterBase\Singleton.h

; 26   : 		assert(ms_singleton);

  00027	8b 0d 00 00 00
	00		 mov	 ecx, DWORD PTR ?ms_singleton@?$CSingleton@VCPythonPlayer@@@@0PAVCPythonPlayer@@A ; CSingleton<CPythonPlayer>::ms_singleton
  0002d	85 c9		 test	 ecx, ecx
  0002f	75 1a		 jne	 SHORT $LN6@playerGetS
  00031	6a 1a		 push	 26			; 0000001aH
  00033	68 00 00 00 00	 push	 OFFSET ??_C@_1IO@CAJLEEOI@?$AAC?$AA?3?$AA?2?$AAA?$AAn?$AAk?$AAa?$AA2?$AAP?$AAr?$AAo?$AAj?$AAe?$AAc?$AAt@
  00038	68 00 00 00 00	 push	 OFFSET ??_C@_1BK@FMEHPMFE@?$AAm?$AAs?$AA_?$AAs?$AAi?$AAn?$AAg?$AAl?$AAe?$AAt?$AAo?$AAn@
  0003d	e8 00 00 00 00	 call	 __wassert
  00042	8b 0d 00 00 00
	00		 mov	 ecx, DWORD PTR ?ms_singleton@?$CSingleton@VCPythonPlayer@@@@0PAVCPythonPlayer@@A ; CSingleton<CPythonPlayer>::ms_singleton
  00048	83 c4 0c	 add	 esp, 12			; 0000000cH
$LN6@playerGetS:
; File C:\Anka2Project\Anka2Project\Source\Binary\source\UserInterface\PythonPlayerModule.cpp

; 780  : 	return Py_BuildValue("i", CPythonPlayer::Instance().GetSkillGrade(iSlotIndex));

  0004b	ff 75 fc	 push	 DWORD PTR _iSlotIndex$[ebp]
  0004e	e8 00 00 00 00	 call	 ?GetSkillGrade@CPythonPlayer@@QAEHK@Z ; CPythonPlayer::GetSkillGrade
  00053	50		 push	 eax
  00054	68 00 00 00 00	 push	 OFFSET ??_C@_01KBJDNOO@i@
  00059	ff 15 00 00 00
	00		 call	 DWORD PTR __imp__Py_BuildValue
  0005f	83 c4 08	 add	 esp, 8

; 781  : }

  00062	8b e5		 mov	 esp, ebp
  00064	5d		 pop	 ebp
  00065	c3		 ret	 0
?playerGetSkillGrade@@YAPAU_object@@PAU1@0@Z ENDP	; playerGetSkillGrade
_TEXT	ENDS
; Function compile flags: /Ogtp
; File C:\Anka2Project\Anka2Project\Source\Binary\source\UserInterface\PythonPlayerModule.cpp
; File C:\Anka2Project\Anka2Project\Source\Binary\source\eterBase\Singleton.h
; File C:\Anka2Project\Anka2Project\Source\Binary\source\UserInterface\PythonPlayerModule.cpp
;	COMDAT ?playerGetSkillLevel@@YAPAU_object@@PAU1@0@Z
_TEXT	SEGMENT
_iSlotIndex$ = -4					; size = 4
_poSelf$ = 8						; size = 4
_poArgs$ = 12						; size = 4
?playerGetSkillLevel@@YAPAU_object@@PAU1@0@Z PROC	; playerGetSkillLevel, COMDAT

; 784  : {

  00000	55		 push	 ebp
  00001	8b ec		 mov	 ebp, esp
  00003	51		 push	 ecx

; 785  : 	int iSlotIndex;
; 786  : 	if (!PyTuple_GetInteger(poArgs, 0, &iSlotIndex))

  00004	8d 45 fc	 lea	 eax, DWORD PTR _iSlotIndex$[ebp]
  00007	50		 push	 eax
  00008	6a 00		 push	 0
  0000a	ff 75 0c	 push	 DWORD PTR _poArgs$[ebp]
  0000d	e8 00 00 00 00	 call	 ?PyTuple_GetInteger@@YA_NPAU_object@@HPAH@Z ; PyTuple_GetInteger
  00012	83 c4 0c	 add	 esp, 12			; 0000000cH
  00015	84 c0		 test	 al, al
  00017	75 0e		 jne	 SHORT $LN2@playerGetS

; 787  : 		return Py_BuildException();

  00019	6a 00		 push	 0
  0001b	e8 00 00 00 00	 call	 ?Py_BuildException@@YAPAU_object@@PBDZZ ; Py_BuildException
  00020	83 c4 04	 add	 esp, 4

; 790  : }

  00023	8b e5		 mov	 esp, ebp
  00025	5d		 pop	 ebp
  00026	c3		 ret	 0
$LN2@playerGetS:
; File C:\Anka2Project\Anka2Project\Source\Binary\source\eterBase\Singleton.h

; 26   : 		assert(ms_singleton);

  00027	8b 0d 00 00 00
	00		 mov	 ecx, DWORD PTR ?ms_singleton@?$CSingleton@VCPythonPlayer@@@@0PAVCPythonPlayer@@A ; CSingleton<CPythonPlayer>::ms_singleton
  0002d	85 c9		 test	 ecx, ecx
  0002f	75 1a		 jne	 SHORT $LN6@playerGetS
  00031	6a 1a		 push	 26			; 0000001aH
  00033	68 00 00 00 00	 push	 OFFSET ??_C@_1IO@CAJLEEOI@?$AAC?$AA?3?$AA?2?$AAA?$AAn?$AAk?$AAa?$AA2?$AAP?$AAr?$AAo?$AAj?$AAe?$AAc?$AAt@
  00038	68 00 00 00 00	 push	 OFFSET ??_C@_1BK@FMEHPMFE@?$AAm?$AAs?$AA_?$AAs?$AAi?$AAn?$AAg?$AAl?$AAe?$AAt?$AAo?$AAn@
  0003d	e8 00 00 00 00	 call	 __wassert
  00042	8b 0d 00 00 00
	00		 mov	 ecx, DWORD PTR ?ms_singleton@?$CSingleton@VCPythonPlayer@@@@0PAVCPythonPlayer@@A ; CSingleton<CPythonPlayer>::ms_singleton
  00048	83 c4 0c	 add	 esp, 12			; 0000000cH
$LN6@playerGetS:
; File C:\Anka2Project\Anka2Project\Source\Binary\source\UserInterface\PythonPlayerModule.cpp

; 789  : 	return Py_BuildValue("i", CPythonPlayer::Instance().GetSkillLevel(iSlotIndex));

  0004b	ff 75 fc	 push	 DWORD PTR _iSlotIndex$[ebp]
  0004e	e8 00 00 00 00	 call	 ?GetSkillLevel@CPythonPlayer@@QAEHK@Z ; CPythonPlayer::GetSkillLevel
  00053	50		 push	 eax
  00054	68 00 00 00 00	 push	 OFFSET ??_C@_01KBJDNOO@i@
  00059	ff 15 00 00 00
	00		 call	 DWORD PTR __imp__Py_BuildValue
  0005f	83 c4 08	 add	 esp, 8

; 790  : }

  00062	8b e5		 mov	 esp, ebp
  00064	5d		 pop	 ebp
  00065	c3		 ret	 0
?playerGetSkillLevel@@YAPAU_object@@PAU1@0@Z ENDP	; playerGetSkillLevel
_TEXT	ENDS
; Function compile flags: /Ogtp
; File C:\Anka2Project\Anka2Project\Source\Binary\source\UserInterface\PythonPlayerModule.cpp
; File C:\Anka2Project\Anka2Project\Source\Binary\source\eterBase\Singleton.h
; File C:\Anka2Project\Anka2Project\Source\Binary\source\UserInterface\PythonPlayerModule.cpp
;	COMDAT ?playerGetSkillCurrentEfficientPercentage@@YAPAU_object@@PAU1@0@Z
_TEXT	SEGMENT
_iSlotIndex$ = -4					; size = 4
_poSelf$ = 8						; size = 4
_poArgs$ = 12						; size = 4
?playerGetSkillCurrentEfficientPercentage@@YAPAU_object@@PAU1@0@Z PROC ; playerGetSkillCurrentEfficientPercentage, COMDAT

; 793  : {

  00000	55		 push	 ebp
  00001	8b ec		 mov	 ebp, esp
  00003	83 e4 c0	 and	 esp, -64		; ffffffc0H
  00006	83 ec 40	 sub	 esp, 64			; 00000040H

; 794  : 	int iSlotIndex;
; 795  : 	if (!PyTuple_GetInteger(poArgs, 0, &iSlotIndex))

  00009	8d 44 24 3c	 lea	 eax, DWORD PTR _iSlotIndex$[esp+64]
  0000d	50		 push	 eax
  0000e	6a 00		 push	 0
  00010	ff 75 0c	 push	 DWORD PTR _poArgs$[ebp]
  00013	e8 00 00 00 00	 call	 ?PyTuple_GetInteger@@YA_NPAU_object@@HPAH@Z ; PyTuple_GetInteger
  00018	83 c4 0c	 add	 esp, 12			; 0000000cH
  0001b	84 c0		 test	 al, al
  0001d	75 0e		 jne	 SHORT $LN2@playerGetS

; 796  : 		return Py_BuildException();

  0001f	6a 00		 push	 0
  00021	e8 00 00 00 00	 call	 ?Py_BuildException@@YAPAU_object@@PBDZZ ; Py_BuildException
  00026	83 c4 04	 add	 esp, 4

; 799  : }

  00029	8b e5		 mov	 esp, ebp
  0002b	5d		 pop	 ebp
  0002c	c3		 ret	 0
$LN2@playerGetS:
; File C:\Anka2Project\Anka2Project\Source\Binary\source\eterBase\Singleton.h

; 26   : 		assert(ms_singleton);

  0002d	8b 0d 00 00 00
	00		 mov	 ecx, DWORD PTR ?ms_singleton@?$CSingleton@VCPythonPlayer@@@@0PAVCPythonPlayer@@A ; CSingleton<CPythonPlayer>::ms_singleton
  00033	85 c9		 test	 ecx, ecx
  00035	75 1a		 jne	 SHORT $LN6@playerGetS
  00037	6a 1a		 push	 26			; 0000001aH
  00039	68 00 00 00 00	 push	 OFFSET ??_C@_1IO@CAJLEEOI@?$AAC?$AA?3?$AA?2?$AAA?$AAn?$AAk?$AAa?$AA2?$AAP?$AAr?$AAo?$AAj?$AAe?$AAc?$AAt@
  0003e	68 00 00 00 00	 push	 OFFSET ??_C@_1BK@FMEHPMFE@?$AAm?$AAs?$AA_?$AAs?$AAi?$AAn?$AAg?$AAl?$AAe?$AAt?$AAo?$AAn@
  00043	e8 00 00 00 00	 call	 __wassert
  00048	8b 0d 00 00 00
	00		 mov	 ecx, DWORD PTR ?ms_singleton@?$CSingleton@VCPythonPlayer@@@@0PAVCPythonPlayer@@A ; CSingleton<CPythonPlayer>::ms_singleton
  0004e	83 c4 0c	 add	 esp, 12			; 0000000cH
$LN6@playerGetS:
; File C:\Anka2Project\Anka2Project\Source\Binary\source\UserInterface\PythonPlayerModule.cpp

; 798  : 	return Py_BuildValue("f", CPythonPlayer::Instance().GetSkillCurrentEfficientPercentage(iSlotIndex));

  00051	ff 74 24 3c	 push	 DWORD PTR _iSlotIndex$[esp+64]
  00055	e8 00 00 00 00	 call	 ?GetSkillCurrentEfficientPercentage@CPythonPlayer@@QAEMK@Z ; CPythonPlayer::GetSkillCurrentEfficientPercentage
  0005a	f3 0f 5a c0	 cvtss2sd xmm0, xmm0
  0005e	83 ec 08	 sub	 esp, 8
  00061	f2 0f 11 04 24	 movsd	 QWORD PTR [esp], xmm0
  00066	68 00 00 00 00	 push	 OFFSET ??_C@_01INIBCBCB@f@
  0006b	ff 15 00 00 00
	00		 call	 DWORD PTR __imp__Py_BuildValue
  00071	83 c4 0c	 add	 esp, 12			; 0000000cH

; 799  : }

  00074	8b e5		 mov	 esp, ebp
  00076	5d		 pop	 ebp
  00077	c3		 ret	 0
?playerGetSkillCurrentEfficientPercentage@@YAPAU_object@@PAU1@0@Z ENDP ; playerGetSkillCurrentEfficientPercentage
_TEXT	ENDS
; Function compile flags: /Ogtp
; File C:\Anka2Project\Anka2Project\Source\Binary\source\UserInterface\PythonPlayerModule.cpp
; File C:\Anka2Project\Anka2Project\Source\Binary\source\eterBase\Singleton.h
; File C:\Anka2Project\Anka2Project\Source\Binary\source\UserInterface\PythonPlayerModule.cpp
;	COMDAT ?playerGetSkillNextEfficientPercentage@@YAPAU_object@@PAU1@0@Z
_TEXT	SEGMENT
_iSlotIndex$ = -4					; size = 4
_poSelf$ = 8						; size = 4
_poArgs$ = 12						; size = 4
?playerGetSkillNextEfficientPercentage@@YAPAU_object@@PAU1@0@Z PROC ; playerGetSkillNextEfficientPercentage, COMDAT

; 801  : {

  00000	55		 push	 ebp
  00001	8b ec		 mov	 ebp, esp
  00003	83 e4 c0	 and	 esp, -64		; ffffffc0H
  00006	83 ec 40	 sub	 esp, 64			; 00000040H

; 802  : 	int iSlotIndex;
; 803  : 	if (!PyTuple_GetInteger(poArgs, 0, &iSlotIndex))

  00009	8d 44 24 3c	 lea	 eax, DWORD PTR _iSlotIndex$[esp+64]
  0000d	50		 push	 eax
  0000e	6a 00		 push	 0
  00010	ff 75 0c	 push	 DWORD PTR _poArgs$[ebp]
  00013	e8 00 00 00 00	 call	 ?PyTuple_GetInteger@@YA_NPAU_object@@HPAH@Z ; PyTuple_GetInteger
  00018	83 c4 0c	 add	 esp, 12			; 0000000cH
  0001b	84 c0		 test	 al, al
  0001d	75 0e		 jne	 SHORT $LN2@playerGetS

; 804  : 		return Py_BuildException();

  0001f	6a 00		 push	 0
  00021	e8 00 00 00 00	 call	 ?Py_BuildException@@YAPAU_object@@PBDZZ ; Py_BuildException
  00026	83 c4 04	 add	 esp, 4

; 807  : }

  00029	8b e5		 mov	 esp, ebp
  0002b	5d		 pop	 ebp
  0002c	c3		 ret	 0
$LN2@playerGetS:
; File C:\Anka2Project\Anka2Project\Source\Binary\source\eterBase\Singleton.h

; 26   : 		assert(ms_singleton);

  0002d	8b 0d 00 00 00
	00		 mov	 ecx, DWORD PTR ?ms_singleton@?$CSingleton@VCPythonPlayer@@@@0PAVCPythonPlayer@@A ; CSingleton<CPythonPlayer>::ms_singleton
  00033	85 c9		 test	 ecx, ecx
  00035	75 1a		 jne	 SHORT $LN6@playerGetS
  00037	6a 1a		 push	 26			; 0000001aH
  00039	68 00 00 00 00	 push	 OFFSET ??_C@_1IO@CAJLEEOI@?$AAC?$AA?3?$AA?2?$AAA?$AAn?$AAk?$AAa?$AA2?$AAP?$AAr?$AAo?$AAj?$AAe?$AAc?$AAt@
  0003e	68 00 00 00 00	 push	 OFFSET ??_C@_1BK@FMEHPMFE@?$AAm?$AAs?$AA_?$AAs?$AAi?$AAn?$AAg?$AAl?$AAe?$AAt?$AAo?$AAn@
  00043	e8 00 00 00 00	 call	 __wassert
  00048	8b 0d 00 00 00
	00		 mov	 ecx, DWORD PTR ?ms_singleton@?$CSingleton@VCPythonPlayer@@@@0PAVCPythonPlayer@@A ; CSingleton<CPythonPlayer>::ms_singleton
  0004e	83 c4 0c	 add	 esp, 12			; 0000000cH
$LN6@playerGetS:
; File C:\Anka2Project\Anka2Project\Source\Binary\source\UserInterface\PythonPlayerModule.cpp

; 806  : 	return Py_BuildValue("f", CPythonPlayer::Instance().GetSkillNextEfficientPercentage(iSlotIndex));

  00051	ff 74 24 3c	 push	 DWORD PTR _iSlotIndex$[esp+64]
  00055	e8 00 00 00 00	 call	 ?GetSkillNextEfficientPercentage@CPythonPlayer@@QAEMK@Z ; CPythonPlayer::GetSkillNextEfficientPercentage
  0005a	f3 0f 5a c0	 cvtss2sd xmm0, xmm0
  0005e	83 ec 08	 sub	 esp, 8
  00061	f2 0f 11 04 24	 movsd	 QWORD PTR [esp], xmm0
  00066	68 00 00 00 00	 push	 OFFSET ??_C@_01INIBCBCB@f@
  0006b	ff 15 00 00 00
	00		 call	 DWORD PTR __imp__Py_BuildValue
  00071	83 c4 0c	 add	 esp, 12			; 0000000cH

; 807  : }

  00074	8b e5		 mov	 esp, ebp
  00076	5d		 pop	 ebp
  00077	c3		 ret	 0
?playerGetSkillNextEfficientPercentage@@YAPAU_object@@PAU1@0@Z ENDP ; playerGetSkillNextEfficientPercentage
_TEXT	ENDS
; Function compile flags: /Ogtp
; File C:\Anka2Project\Anka2Project\Source\Binary\source\UserInterface\PythonPlayerModule.cpp
; File C:\Anka2Project\Anka2Project\Source\Binary\source\UserInterface\GameType.h
; File C:\Anka2Project\Anka2Project\Source\Binary\source\UserInterface\PythonPlayerModule.cpp
; File C:\Anka2Project\Anka2Project\Source\Binary\source\UserInterface\GameType.h
; File C:\Anka2Project\Anka2Project\Source\Binary\source\UserInterface\PythonPlayerModule.cpp
; File C:\Anka2Project\Anka2Project\Source\Binary\source\eterBase\Singleton.h
; File C:\Anka2Project\Anka2Project\Source\Binary\source\UserInterface\PythonPlayerModule.cpp
;	COMDAT ?playerMoveItem@@YAPAU_object@@PAU1@0@Z
_TEXT	SEGMENT
_srcCell$ = -8						; size = 3
_dstCell$ = -4						; size = 3
_poSelf$ = 8						; size = 4
_poArgs$ = 12						; size = 4
?playerMoveItem@@YAPAU_object@@PAU1@0@Z PROC		; playerMoveItem, COMDAT

; 847  : {

  00000	55		 push	 ebp
  00001	8b ec		 mov	 ebp, esp
  00003	83 ec 08	 sub	 esp, 8
  00006	56		 push	 esi

; 850  : 	switch (PyTuple_Size(poArgs))

  00007	8b 75 0c	 mov	 esi, DWORD PTR _poArgs$[ebp]
; File C:\Anka2Project\Anka2Project\Source\Binary\source\UserInterface\GameType.h

; 448  : 		cell = WORD_MAX;

  0000a	b8 ff ff 00 00	 mov	 eax, 65535		; 0000ffffH
; File C:\Anka2Project\Anka2Project\Source\Binary\source\UserInterface\PythonPlayerModule.cpp

; 850  : 	switch (PyTuple_Size(poArgs))

  0000f	56		 push	 esi
; File C:\Anka2Project\Anka2Project\Source\Binary\source\UserInterface\GameType.h

; 447  : 		window_type = INVENTORY;

  00010	c6 45 f8 01	 mov	 BYTE PTR _srcCell$[ebp], 1

; 448  : 		cell = WORD_MAX;

  00014	66 89 45 f9	 mov	 WORD PTR _srcCell$[ebp+1], ax

; 447  : 		window_type = INVENTORY;

  00018	c6 45 fc 01	 mov	 BYTE PTR _dstCell$[ebp], 1

; 448  : 		cell = WORD_MAX;

  0001c	66 89 45 fd	 mov	 WORD PTR _dstCell$[ebp+1], ax
; File C:\Anka2Project\Anka2Project\Source\Binary\source\UserInterface\PythonPlayerModule.cpp

; 850  : 	switch (PyTuple_Size(poArgs))

  00020	ff 15 00 00 00
	00		 call	 DWORD PTR __imp__PyTuple_Size
  00026	83 c4 04	 add	 esp, 4
  00029	83 e8 02	 sub	 eax, 2
  0002c	74 5c		 je	 SHORT $LN4@playerMove
  0002e	83 e8 02	 sub	 eax, 2
  00031	75 6a		 jne	 SHORT $LN30@playerMove

; 856  : 				return Py_BuildException();
; 857  : 			break;
; 858  : 		case 4:
; 859  : 			if (!PyTuple_GetByte(poArgs, 0, &srcCell.window_type))

  00033	8d 45 f8	 lea	 eax, DWORD PTR _srcCell$[ebp]
  00036	50		 push	 eax
  00037	6a 00		 push	 0
  00039	56		 push	 esi
  0003a	e8 00 00 00 00	 call	 ?PyTuple_GetByte@@YA_NPAU_object@@HPAE@Z ; PyTuple_GetByte
  0003f	83 c4 0c	 add	 esp, 12			; 0000000cH
  00042	84 c0		 test	 al, al
  00044	74 57		 je	 SHORT $LN30@playerMove

; 860  : 				return Py_BuildException();
; 861  : 			if (!PyTuple_GetInteger(poArgs, 1, &srcCell.cell))

  00046	8d 45 f9	 lea	 eax, DWORD PTR _srcCell$[ebp+1]
  00049	50		 push	 eax
  0004a	6a 01		 push	 1
  0004c	56		 push	 esi
  0004d	e8 00 00 00 00	 call	 ?PyTuple_GetInteger@@YA_NPAU_object@@HPAG@Z ; PyTuple_GetInteger
  00052	83 c4 0c	 add	 esp, 12			; 0000000cH
  00055	84 c0		 test	 al, al
  00057	74 44		 je	 SHORT $LN30@playerMove

; 862  : 				return Py_BuildException();
; 863  : 			if (!PyTuple_GetByte(poArgs, 2, &dstCell.window_type))

  00059	8d 45 fc	 lea	 eax, DWORD PTR _dstCell$[ebp]
  0005c	50		 push	 eax
  0005d	6a 02		 push	 2
  0005f	56		 push	 esi
  00060	e8 00 00 00 00	 call	 ?PyTuple_GetByte@@YA_NPAU_object@@HPAE@Z ; PyTuple_GetByte
  00065	83 c4 0c	 add	 esp, 12			; 0000000cH
  00068	84 c0		 test	 al, al
  0006a	74 31		 je	 SHORT $LN30@playerMove

; 864  : 				return Py_BuildException();
; 865  : 			if (!PyTuple_GetInteger(poArgs, 3, &dstCell.cell))

  0006c	8d 45 fd	 lea	 eax, DWORD PTR _dstCell$[ebp+1]
  0006f	50		 push	 eax
  00070	6a 03		 push	 3
  00072	56		 push	 esi
  00073	e8 00 00 00 00	 call	 ?PyTuple_GetInteger@@YA_NPAU_object@@HPAG@Z ; PyTuple_GetInteger
  00078	83 c4 0c	 add	 esp, 12			; 0000000cH

; 873  : }

  0007b	6a 00		 push	 0
  0007d	e8 00 00 00 00	 call	 ?Py_BuildException@@YAPAU_object@@PBDZZ ; Py_BuildException
  00082	83 c4 04	 add	 esp, 4
  00085	5e		 pop	 esi
  00086	8b e5		 mov	 esp, ebp
  00088	5d		 pop	 ebp
  00089	c3		 ret	 0
$LN4@playerMove:

; 851  : 	{
; 852  : 		case 2:
; 853  : 			if (!PyTuple_GetInteger(poArgs, 0, &srcCell.cell))

  0008a	8d 45 f9	 lea	 eax, DWORD PTR _srcCell$[ebp+1]
  0008d	50		 push	 eax
  0008e	6a 00		 push	 0
  00090	56		 push	 esi
  00091	e8 00 00 00 00	 call	 ?PyTuple_GetInteger@@YA_NPAU_object@@HPAG@Z ; PyTuple_GetInteger
  00096	83 c4 0c	 add	 esp, 12			; 0000000cH
  00099	84 c0		 test	 al, al
  0009b	75 0f		 jne	 SHORT $LN5@playerMove
$LN30@playerMove:

; 873  : }

  0009d	6a 00		 push	 0
  0009f	e8 00 00 00 00	 call	 ?Py_BuildException@@YAPAU_object@@PBDZZ ; Py_BuildException
  000a4	83 c4 04	 add	 esp, 4
  000a7	5e		 pop	 esi
  000a8	8b e5		 mov	 esp, ebp
  000aa	5d		 pop	 ebp
  000ab	c3		 ret	 0
$LN5@playerMove:

; 854  : 				return Py_BuildException();
; 855  : 			if (!PyTuple_GetInteger(poArgs, 1, &dstCell.cell))

  000ac	8d 45 fd	 lea	 eax, DWORD PTR _dstCell$[ebp+1]
  000af	50		 push	 eax
  000b0	6a 01		 push	 1
  000b2	56		 push	 esi
  000b3	e8 00 00 00 00	 call	 ?PyTuple_GetInteger@@YA_NPAU_object@@HPAG@Z ; PyTuple_GetInteger
  000b8	83 c4 0c	 add	 esp, 12			; 0000000cH
  000bb	84 c0		 test	 al, al
  000bd	74 de		 je	 SHORT $LN30@playerMove
; File C:\Anka2Project\Anka2Project\Source\Binary\source\eterBase\Singleton.h

; 26   : 		assert(ms_singleton);

  000bf	8b 0d 00 00 00
	00		 mov	 ecx, DWORD PTR ?ms_singleton@?$CSingleton@VCPythonPlayer@@@@0PAVCPythonPlayer@@A ; CSingleton<CPythonPlayer>::ms_singleton
  000c5	85 c9		 test	 ecx, ecx
  000c7	75 1a		 jne	 SHORT $LN20@playerMove
  000c9	6a 1a		 push	 26			; 0000001aH
  000cb	68 00 00 00 00	 push	 OFFSET ??_C@_1IO@CAJLEEOI@?$AAC?$AA?3?$AA?2?$AAA?$AAn?$AAk?$AAa?$AA2?$AAP?$AAr?$AAo?$AAj?$AAe?$AAc?$AAt@
  000d0	68 00 00 00 00	 push	 OFFSET ??_C@_1BK@FMEHPMFE@?$AAm?$AAs?$AA_?$AAs?$AAi?$AAn?$AAg?$AAl?$AAe?$AAt?$AAo?$AAn@
  000d5	e8 00 00 00 00	 call	 __wassert
  000da	8b 0d 00 00 00
	00		 mov	 ecx, DWORD PTR ?ms_singleton@?$CSingleton@VCPythonPlayer@@@@0PAVCPythonPlayer@@A ; CSingleton<CPythonPlayer>::ms_singleton
  000e0	83 c4 0c	 add	 esp, 12			; 0000000cH
$LN20@playerMove:
; File C:\Anka2Project\Anka2Project\Source\Binary\source\UserInterface\PythonPlayerModule.cpp

; 871  : 	CPythonPlayer::Instance().MoveItemData(srcCell, dstCell);

  000e3	0f b7 45 fc	 movzx	 eax, WORD PTR _dstCell$[ebp]
  000e7	51		 push	 ecx
  000e8	8b d4		 mov	 edx, esp
  000ea	51		 push	 ecx
  000eb	66 89 02	 mov	 WORD PTR [edx], ax
  000ee	8a 45 fe	 mov	 al, BYTE PTR _dstCell$[ebp+2]
  000f1	88 42 02	 mov	 BYTE PTR [edx+2], al
  000f4	8b d4		 mov	 edx, esp
  000f6	0f b7 45 f8	 movzx	 eax, WORD PTR _srcCell$[ebp]
  000fa	66 89 02	 mov	 WORD PTR [edx], ax
  000fd	8a 45 fa	 mov	 al, BYTE PTR _srcCell$[ebp+2]
  00100	88 42 02	 mov	 BYTE PTR [edx+2], al
  00103	e8 00 00 00 00	 call	 ?MoveItemData@CPythonPlayer@@QAEXUSItemPos@@0@Z ; CPythonPlayer::MoveItemData

; 872  : 	return Py_BuildNone();

  00108	e8 00 00 00 00	 call	 ?Py_BuildNone@@YAPAU_object@@XZ ; Py_BuildNone

; 873  : }

  0010d	5e		 pop	 esi
  0010e	8b e5		 mov	 esp, ebp
  00110	5d		 pop	 ebp
  00111	c3		 ret	 0
?playerMoveItem@@YAPAU_object@@PAU1@0@Z ENDP		; playerMoveItem
_TEXT	ENDS
; Function compile flags: /Ogtp
; File C:\Anka2Project\Anka2Project\Source\Binary\source\UserInterface\PythonPlayerModule.cpp
; File C:\Anka2Project\Anka2Project\Source\Binary\source\UserInterface\GameType.h
; File C:\Anka2Project\Anka2Project\Source\Binary\source\UserInterface\PythonPlayerModule.cpp
; File C:\Anka2Project\Anka2Project\Source\Binary\source\eterBase\Singleton.h
; File C:\Anka2Project\Anka2Project\Source\Binary\source\UserInterface\PythonPlayerModule.cpp
; File C:\Anka2Project\Anka2Project\Source\Binary\source\eterBase\Singleton.h
; File C:\Anka2Project\Anka2Project\Source\Binary\source\UserInterface\PythonPlayerModule.cpp
;	COMDAT ?playerGetItemIndex@@YAPAU_object@@PAU1@0@Z
_TEXT	SEGMENT
_iSlotIndex$7 = -8					; size = 4
$T4 = -4						; size = 3
_Cell$8 = -4						; size = 3
_poSelf$ = 8						; size = 4
_poArgs$ = 12						; size = 4
?playerGetItemIndex@@YAPAU_object@@PAU1@0@Z PROC	; playerGetItemIndex, COMDAT

; 886  : {

  00000	55		 push	 ebp
  00001	8b ec		 mov	 ebp, esp
  00003	83 ec 08	 sub	 esp, 8
  00006	56		 push	 esi

; 887  : 	switch (PyTuple_Size(poArgs))

  00007	8b 75 0c	 mov	 esi, DWORD PTR _poArgs$[ebp]
  0000a	57		 push	 edi
  0000b	56		 push	 esi
  0000c	ff 15 00 00 00
	00		 call	 DWORD PTR __imp__PyTuple_Size
  00012	83 c4 04	 add	 esp, 4
  00015	83 e8 01	 sub	 eax, 1
  00018	74 7b		 je	 SHORT $LN4@playerGetI
  0001a	83 e8 01	 sub	 eax, 1
  0001d	0f 85 85 00 00
	00		 jne	 $LN29@playerGetI
; File C:\Anka2Project\Anka2Project\Source\Binary\source\UserInterface\GameType.h

; 448  : 		cell = WORD_MAX;

  00023	b8 ff ff 00 00	 mov	 eax, 65535		; 0000ffffH
  00028	c6 45 fc 01	 mov	 BYTE PTR _Cell$8[ebp], 1
  0002c	66 89 45 fd	 mov	 WORD PTR _Cell$8[ebp+1], ax
; File C:\Anka2Project\Anka2Project\Source\Binary\source\UserInterface\PythonPlayerModule.cpp

; 901  : 			if (!PyTuple_GetByte(poArgs, 0, &Cell.window_type))

  00030	8d 45 fc	 lea	 eax, DWORD PTR _Cell$8[ebp]
  00033	50		 push	 eax
  00034	6a 00		 push	 0
  00036	56		 push	 esi
  00037	e8 00 00 00 00	 call	 ?PyTuple_GetByte@@YA_NPAU_object@@HPAE@Z ; PyTuple_GetByte
  0003c	83 c4 0c	 add	 esp, 12			; 0000000cH
  0003f	84 c0		 test	 al, al
  00041	74 65		 je	 SHORT $LN29@playerGetI

; 902  : 				return Py_BuildException();
; 903  : 			if (!PyTuple_GetInteger(poArgs, 1, &Cell.cell))

  00043	8d 45 fd	 lea	 eax, DWORD PTR _Cell$8[ebp+1]
  00046	50		 push	 eax
  00047	6a 01		 push	 1
  00049	56		 push	 esi
  0004a	e8 00 00 00 00	 call	 ?PyTuple_GetInteger@@YA_NPAU_object@@HPAG@Z ; PyTuple_GetInteger
  0004f	83 c4 0c	 add	 esp, 12			; 0000000cH
  00052	84 c0		 test	 al, al
  00054	74 52		 je	 SHORT $LN29@playerGetI
; File C:\Anka2Project\Anka2Project\Source\Binary\source\eterBase\Singleton.h

; 26   : 		assert(ms_singleton);

  00056	8b 3d 00 00 00
	00		 mov	 edi, DWORD PTR ?ms_singleton@?$CSingleton@VCPythonPlayer@@@@0PAVCPythonPlayer@@A ; CSingleton<CPythonPlayer>::ms_singleton
  0005c	85 ff		 test	 edi, edi
  0005e	75 1a		 jne	 SHORT $LN20@playerGetI
  00060	6a 1a		 push	 26			; 0000001aH
  00062	68 00 00 00 00	 push	 OFFSET ??_C@_1IO@CAJLEEOI@?$AAC?$AA?3?$AA?2?$AAA?$AAn?$AAk?$AAa?$AA2?$AAP?$AAr?$AAo?$AAj?$AAe?$AAc?$AAt@
  00067	68 00 00 00 00	 push	 OFFSET ??_C@_1BK@FMEHPMFE@?$AAm?$AAs?$AA_?$AAs?$AAi?$AAn?$AAg?$AAl?$AAe?$AAt?$AAo?$AAn@
  0006c	e8 00 00 00 00	 call	 __wassert
  00071	8b 3d 00 00 00
	00		 mov	 edi, DWORD PTR ?ms_singleton@?$CSingleton@VCPythonPlayer@@@@0PAVCPythonPlayer@@A ; CSingleton<CPythonPlayer>::ms_singleton
  00077	83 c4 0c	 add	 esp, 12			; 0000000cH
$LN20@playerGetI:
; File C:\Anka2Project\Anka2Project\Source\Binary\source\UserInterface\PythonPlayerModule.cpp

; 906  : 			int ItemIndex = CPythonPlayer::Instance().GetItemIndex(Cell);

  0007a	8b 47 04	 mov	 eax, DWORD PTR [edi+4]
  0007d	8a 4d fe	 mov	 cl, BYTE PTR _Cell$8[ebp+2]
  00080	66 8b 55 fc	 mov	 dx, WORD PTR _Cell$8[ebp]
  00084	51		 push	 ecx
  00085	8b 70 48	 mov	 esi, DWORD PTR [eax+72]
  00088	8b c4		 mov	 eax, esp
  0008a	66 89 10	 mov	 WORD PTR [eax], dx
  0008d	88 48 02	 mov	 BYTE PTR [eax+2], cl
  00090	8d 4f 04	 lea	 ecx, DWORD PTR [edi+4]

; 907  : 			return Py_BuildValue("i", ItemIndex);

  00093	eb 6c		 jmp	 SHORT $LN28@playerGetI
$LN4@playerGetI:

; 888  : 	{
; 889  : 	case 1:
; 890  : 		{
; 891  : 			int iSlotIndex;
; 892  : 			if (!PyTuple_GetInteger(poArgs, 0, &iSlotIndex))

  00095	8d 45 f8	 lea	 eax, DWORD PTR _iSlotIndex$7[ebp]
  00098	50		 push	 eax
  00099	6a 00		 push	 0
  0009b	56		 push	 esi
  0009c	e8 00 00 00 00	 call	 ?PyTuple_GetInteger@@YA_NPAU_object@@HPAH@Z ; PyTuple_GetInteger
  000a1	83 c4 0c	 add	 esp, 12			; 0000000cH
  000a4	84 c0		 test	 al, al
  000a6	75 10		 jne	 SHORT $LN5@playerGetI
$LN29@playerGetI:

; 908  : 		}
; 909  : 	default:
; 910  : 		return Py_BuildException();
; 911  : 
; 912  : 	}
; 913  : }

  000a8	6a 00		 push	 0
  000aa	e8 00 00 00 00	 call	 ?Py_BuildException@@YAPAU_object@@PBDZZ ; Py_BuildException
  000af	83 c4 04	 add	 esp, 4
  000b2	5f		 pop	 edi
  000b3	5e		 pop	 esi
  000b4	8b e5		 mov	 esp, ebp
  000b6	5d		 pop	 ebp
  000b7	c3		 ret	 0
$LN5@playerGetI:
; File C:\Anka2Project\Anka2Project\Source\Binary\source\eterBase\Singleton.h

; 26   : 		assert(ms_singleton);

  000b8	8b 0d 00 00 00
	00		 mov	 ecx, DWORD PTR ?ms_singleton@?$CSingleton@VCPythonPlayer@@@@0PAVCPythonPlayer@@A ; CSingleton<CPythonPlayer>::ms_singleton
  000be	85 c9		 test	 ecx, ecx
  000c0	75 1a		 jne	 SHORT $LN13@playerGetI
  000c2	6a 1a		 push	 26			; 0000001aH
  000c4	68 00 00 00 00	 push	 OFFSET ??_C@_1IO@CAJLEEOI@?$AAC?$AA?3?$AA?2?$AAA?$AAn?$AAk?$AAa?$AA2?$AAP?$AAr?$AAo?$AAj?$AAe?$AAc?$AAt@
  000c9	68 00 00 00 00	 push	 OFFSET ??_C@_1BK@FMEHPMFE@?$AAm?$AAs?$AA_?$AAs?$AAi?$AAn?$AAg?$AAl?$AAe?$AAt?$AAo?$AAn@
  000ce	e8 00 00 00 00	 call	 __wassert
  000d3	8b 0d 00 00 00
	00		 mov	 ecx, DWORD PTR ?ms_singleton@?$CSingleton@VCPythonPlayer@@@@0PAVCPythonPlayer@@A ; CSingleton<CPythonPlayer>::ms_singleton
  000d9	83 c4 0c	 add	 esp, 12			; 0000000cH
$LN13@playerGetI:
; File C:\Anka2Project\Anka2Project\Source\Binary\source\UserInterface\PythonPlayerModule.cpp

; 895  : 			int ItemIndex = CPythonPlayer::Instance().GetItemIndex(TItemPos (INVENTORY, iSlotIndex));

  000dc	8b 41 04	 mov	 eax, DWORD PTR [ecx+4]
  000df	83 c1 04	 add	 ecx, 4
  000e2	51		 push	 ecx
  000e3	8b d4		 mov	 edx, esp
  000e5	c6 45 fc 01	 mov	 BYTE PTR $T4[ebp], 1
  000e9	8b 70 48	 mov	 esi, DWORD PTR [eax+72]
  000ec	0f b7 45 f8	 movzx	 eax, WORD PTR _iSlotIndex$7[ebp]
  000f0	66 89 45 fd	 mov	 WORD PTR $T4[ebp+1], ax
  000f4	0f b7 45 fc	 movzx	 eax, WORD PTR $T4[ebp]
  000f8	66 89 02	 mov	 WORD PTR [edx], ax
  000fb	8a 45 fe	 mov	 al, BYTE PTR $T4[ebp+2]
  000fe	88 42 02	 mov	 BYTE PTR [edx+2], al
$LN28@playerGetI:

; 908  : 		}
; 909  : 	default:
; 910  : 		return Py_BuildException();
; 911  : 
; 912  : 	}
; 913  : }

  00101	ff d6		 call	 esi
  00103	50		 push	 eax
  00104	68 00 00 00 00	 push	 OFFSET ??_C@_01KBJDNOO@i@
  00109	ff 15 00 00 00
	00		 call	 DWORD PTR __imp__Py_BuildValue
  0010f	83 c4 08	 add	 esp, 8
  00112	5f		 pop	 edi
  00113	5e		 pop	 esi
  00114	8b e5		 mov	 esp, ebp
  00116	5d		 pop	 ebp
  00117	c3		 ret	 0
?playerGetItemIndex@@YAPAU_object@@PAU1@0@Z ENDP	; playerGetItemIndex
_TEXT	ENDS
; Function compile flags: /Ogtp
; File C:\Anka2Project\Anka2Project\Source\Binary\source\UserInterface\PythonPlayerModule.cpp
; File C:\Anka2Project\Anka2Project\Source\Binary\source\UserInterface\GameType.h
; File C:\Anka2Project\Anka2Project\Source\Binary\source\UserInterface\PythonPlayerModule.cpp
; File C:\Anka2Project\Anka2Project\Source\Binary\source\eterBase\Singleton.h
; File C:\Anka2Project\Anka2Project\Source\Binary\source\UserInterface\PythonPlayerModule.cpp
; File C:\Anka2Project\Anka2Project\Source\Binary\source\eterBase\Singleton.h
; File C:\Anka2Project\Anka2Project\Source\Binary\source\UserInterface\PythonPlayerModule.cpp
;	COMDAT ?playerGetItemFlags@@YAPAU_object@@PAU1@0@Z
_TEXT	SEGMENT
_iSlotIndex$7 = -8					; size = 4
$T4 = -4						; size = 3
_Cell$8 = -4						; size = 3
_poSelf$ = 8						; size = 4
_poArgs$ = 12						; size = 4
?playerGetItemFlags@@YAPAU_object@@PAU1@0@Z PROC	; playerGetItemFlags, COMDAT

; 916  : {

  00000	55		 push	 ebp
  00001	8b ec		 mov	 ebp, esp
  00003	83 ec 08	 sub	 esp, 8
  00006	56		 push	 esi

; 917  : 	switch (PyTuple_Size(poArgs))

  00007	8b 75 0c	 mov	 esi, DWORD PTR _poArgs$[ebp]
  0000a	57		 push	 edi
  0000b	56		 push	 esi
  0000c	ff 15 00 00 00
	00		 call	 DWORD PTR __imp__PyTuple_Size
  00012	83 c4 04	 add	 esp, 4
  00015	83 e8 01	 sub	 eax, 1
  00018	74 7b		 je	 SHORT $LN4@playerGetI
  0001a	83 e8 01	 sub	 eax, 1
  0001d	0f 85 85 00 00
	00		 jne	 $LN29@playerGetI
; File C:\Anka2Project\Anka2Project\Source\Binary\source\UserInterface\GameType.h

; 448  : 		cell = WORD_MAX;

  00023	b8 ff ff 00 00	 mov	 eax, 65535		; 0000ffffH
  00028	c6 45 fc 01	 mov	 BYTE PTR _Cell$8[ebp], 1
  0002c	66 89 45 fd	 mov	 WORD PTR _Cell$8[ebp+1], ax
; File C:\Anka2Project\Anka2Project\Source\Binary\source\UserInterface\PythonPlayerModule.cpp

; 931  : 			if (!PyTuple_GetByte(poArgs, 0, &Cell.window_type))

  00030	8d 45 fc	 lea	 eax, DWORD PTR _Cell$8[ebp]
  00033	50		 push	 eax
  00034	6a 00		 push	 0
  00036	56		 push	 esi
  00037	e8 00 00 00 00	 call	 ?PyTuple_GetByte@@YA_NPAU_object@@HPAE@Z ; PyTuple_GetByte
  0003c	83 c4 0c	 add	 esp, 12			; 0000000cH
  0003f	84 c0		 test	 al, al
  00041	74 65		 je	 SHORT $LN29@playerGetI

; 932  : 				return Py_BuildException();
; 933  : 
; 934  : 			if (!PyTuple_GetInteger(poArgs, 1, &Cell.cell))

  00043	8d 45 fd	 lea	 eax, DWORD PTR _Cell$8[ebp+1]
  00046	50		 push	 eax
  00047	6a 01		 push	 1
  00049	56		 push	 esi
  0004a	e8 00 00 00 00	 call	 ?PyTuple_GetInteger@@YA_NPAU_object@@HPAG@Z ; PyTuple_GetInteger
  0004f	83 c4 0c	 add	 esp, 12			; 0000000cH
  00052	84 c0		 test	 al, al
  00054	74 52		 je	 SHORT $LN29@playerGetI
; File C:\Anka2Project\Anka2Project\Source\Binary\source\eterBase\Singleton.h

; 26   : 		assert(ms_singleton);

  00056	8b 3d 00 00 00
	00		 mov	 edi, DWORD PTR ?ms_singleton@?$CSingleton@VCPythonPlayer@@@@0PAVCPythonPlayer@@A ; CSingleton<CPythonPlayer>::ms_singleton
  0005c	85 ff		 test	 edi, edi
  0005e	75 1a		 jne	 SHORT $LN20@playerGetI
  00060	6a 1a		 push	 26			; 0000001aH
  00062	68 00 00 00 00	 push	 OFFSET ??_C@_1IO@CAJLEEOI@?$AAC?$AA?3?$AA?2?$AAA?$AAn?$AAk?$AAa?$AA2?$AAP?$AAr?$AAo?$AAj?$AAe?$AAc?$AAt@
  00067	68 00 00 00 00	 push	 OFFSET ??_C@_1BK@FMEHPMFE@?$AAm?$AAs?$AA_?$AAs?$AAi?$AAn?$AAg?$AAl?$AAe?$AAt?$AAo?$AAn@
  0006c	e8 00 00 00 00	 call	 __wassert
  00071	8b 3d 00 00 00
	00		 mov	 edi, DWORD PTR ?ms_singleton@?$CSingleton@VCPythonPlayer@@@@0PAVCPythonPlayer@@A ; CSingleton<CPythonPlayer>::ms_singleton
  00077	83 c4 0c	 add	 esp, 12			; 0000000cH
$LN20@playerGetI:
; File C:\Anka2Project\Anka2Project\Source\Binary\source\UserInterface\PythonPlayerModule.cpp

; 937  : 			DWORD flags = CPythonPlayer::Instance().GetItemFlags(Cell);

  0007a	8b 47 04	 mov	 eax, DWORD PTR [edi+4]
  0007d	8a 4d fe	 mov	 cl, BYTE PTR _Cell$8[ebp+2]
  00080	66 8b 55 fc	 mov	 dx, WORD PTR _Cell$8[ebp]
  00084	51		 push	 ecx
  00085	8b 70 4c	 mov	 esi, DWORD PTR [eax+76]
  00088	8b c4		 mov	 eax, esp
  0008a	66 89 10	 mov	 WORD PTR [eax], dx
  0008d	88 48 02	 mov	 BYTE PTR [eax+2], cl
  00090	8d 4f 04	 lea	 ecx, DWORD PTR [edi+4]

; 938  : 			return Py_BuildValue("i", flags);

  00093	eb 6c		 jmp	 SHORT $LN28@playerGetI
$LN4@playerGetI:

; 918  : 	{
; 919  : 	case 1:
; 920  : 		{
; 921  : 			int iSlotIndex;
; 922  : 			if (!PyTuple_GetInteger(poArgs, 0, &iSlotIndex))

  00095	8d 45 f8	 lea	 eax, DWORD PTR _iSlotIndex$7[ebp]
  00098	50		 push	 eax
  00099	6a 00		 push	 0
  0009b	56		 push	 esi
  0009c	e8 00 00 00 00	 call	 ?PyTuple_GetInteger@@YA_NPAU_object@@HPAH@Z ; PyTuple_GetInteger
  000a1	83 c4 0c	 add	 esp, 12			; 0000000cH
  000a4	84 c0		 test	 al, al
  000a6	75 10		 jne	 SHORT $LN5@playerGetI
$LN29@playerGetI:

; 939  : 		}
; 940  : 	default:
; 941  : 		return Py_BuildException();
; 942  : 	}
; 943  : }

  000a8	6a 00		 push	 0
  000aa	e8 00 00 00 00	 call	 ?Py_BuildException@@YAPAU_object@@PBDZZ ; Py_BuildException
  000af	83 c4 04	 add	 esp, 4
  000b2	5f		 pop	 edi
  000b3	5e		 pop	 esi
  000b4	8b e5		 mov	 esp, ebp
  000b6	5d		 pop	 ebp
  000b7	c3		 ret	 0
$LN5@playerGetI:
; File C:\Anka2Project\Anka2Project\Source\Binary\source\eterBase\Singleton.h

; 26   : 		assert(ms_singleton);

  000b8	8b 0d 00 00 00
	00		 mov	 ecx, DWORD PTR ?ms_singleton@?$CSingleton@VCPythonPlayer@@@@0PAVCPythonPlayer@@A ; CSingleton<CPythonPlayer>::ms_singleton
  000be	85 c9		 test	 ecx, ecx
  000c0	75 1a		 jne	 SHORT $LN13@playerGetI
  000c2	6a 1a		 push	 26			; 0000001aH
  000c4	68 00 00 00 00	 push	 OFFSET ??_C@_1IO@CAJLEEOI@?$AAC?$AA?3?$AA?2?$AAA?$AAn?$AAk?$AAa?$AA2?$AAP?$AAr?$AAo?$AAj?$AAe?$AAc?$AAt@
  000c9	68 00 00 00 00	 push	 OFFSET ??_C@_1BK@FMEHPMFE@?$AAm?$AAs?$AA_?$AAs?$AAi?$AAn?$AAg?$AAl?$AAe?$AAt?$AAo?$AAn@
  000ce	e8 00 00 00 00	 call	 __wassert
  000d3	8b 0d 00 00 00
	00		 mov	 ecx, DWORD PTR ?ms_singleton@?$CSingleton@VCPythonPlayer@@@@0PAVCPythonPlayer@@A ; CSingleton<CPythonPlayer>::ms_singleton
  000d9	83 c4 0c	 add	 esp, 12			; 0000000cH
$LN13@playerGetI:
; File C:\Anka2Project\Anka2Project\Source\Binary\source\UserInterface\PythonPlayerModule.cpp

; 925  : 			DWORD flags = CPythonPlayer::Instance().GetItemFlags(TItemPos(INVENTORY, iSlotIndex));

  000dc	8b 41 04	 mov	 eax, DWORD PTR [ecx+4]
  000df	83 c1 04	 add	 ecx, 4
  000e2	51		 push	 ecx
  000e3	8b d4		 mov	 edx, esp
  000e5	c6 45 fc 01	 mov	 BYTE PTR $T4[ebp], 1
  000e9	8b 70 4c	 mov	 esi, DWORD PTR [eax+76]
  000ec	0f b7 45 f8	 movzx	 eax, WORD PTR _iSlotIndex$7[ebp]
  000f0	66 89 45 fd	 mov	 WORD PTR $T4[ebp+1], ax
  000f4	0f b7 45 fc	 movzx	 eax, WORD PTR $T4[ebp]
  000f8	66 89 02	 mov	 WORD PTR [edx], ax
  000fb	8a 45 fe	 mov	 al, BYTE PTR $T4[ebp+2]
  000fe	88 42 02	 mov	 BYTE PTR [edx+2], al
$LN28@playerGetI:

; 939  : 		}
; 940  : 	default:
; 941  : 		return Py_BuildException();
; 942  : 	}
; 943  : }

  00101	ff d6		 call	 esi
  00103	50		 push	 eax
  00104	68 00 00 00 00	 push	 OFFSET ??_C@_01KBJDNOO@i@
  00109	ff 15 00 00 00
	00		 call	 DWORD PTR __imp__Py_BuildValue
  0010f	83 c4 08	 add	 esp, 8
  00112	5f		 pop	 edi
  00113	5e		 pop	 esi
  00114	8b e5		 mov	 esp, ebp
  00116	5d		 pop	 ebp
  00117	c3		 ret	 0
?playerGetItemFlags@@YAPAU_object@@PAU1@0@Z ENDP	; playerGetItemFlags
_TEXT	ENDS
; Function compile flags: /Ogtp
; File C:\Anka2Project\Anka2Project\Source\Binary\source\UserInterface\PythonPlayerModule.cpp
; File C:\Anka2Project\Anka2Project\Source\Binary\source\UserInterface\GameType.h
; File C:\Anka2Project\Anka2Project\Source\Binary\source\UserInterface\PythonPlayerModule.cpp
; File C:\Anka2Project\Anka2Project\Source\Binary\source\eterBase\Singleton.h
; File C:\Anka2Project\Anka2Project\Source\Binary\source\UserInterface\PythonPlayerModule.cpp
; File C:\Anka2Project\Anka2Project\Source\Binary\source\eterBase\Singleton.h
; File C:\Anka2Project\Anka2Project\Source\Binary\source\UserInterface\PythonPlayerModule.cpp
;	COMDAT ?playerGetItemCount@@YAPAU_object@@PAU1@0@Z
_TEXT	SEGMENT
_iSlotIndex$7 = -8					; size = 4
$T4 = -4						; size = 3
_Cell$8 = -4						; size = 3
_poSelf$ = 8						; size = 4
_poArgs$ = 12						; size = 4
?playerGetItemCount@@YAPAU_object@@PAU1@0@Z PROC	; playerGetItemCount, COMDAT

; 947  : {

  00000	55		 push	 ebp
  00001	8b ec		 mov	 ebp, esp
  00003	83 ec 08	 sub	 esp, 8
  00006	56		 push	 esi

; 948  : 	switch (PyTuple_Size(poArgs))

  00007	8b 75 0c	 mov	 esi, DWORD PTR _poArgs$[ebp]
  0000a	57		 push	 edi
  0000b	56		 push	 esi
  0000c	ff 15 00 00 00
	00		 call	 DWORD PTR __imp__PyTuple_Size
  00012	83 c4 04	 add	 esp, 4
  00015	83 e8 01	 sub	 eax, 1
  00018	74 7b		 je	 SHORT $LN4@playerGetI
  0001a	83 e8 01	 sub	 eax, 1
  0001d	0f 85 85 00 00
	00		 jne	 $LN29@playerGetI
; File C:\Anka2Project\Anka2Project\Source\Binary\source\UserInterface\GameType.h

; 448  : 		cell = WORD_MAX;

  00023	b8 ff ff 00 00	 mov	 eax, 65535		; 0000ffffH
  00028	c6 45 fc 01	 mov	 BYTE PTR _Cell$8[ebp], 1
  0002c	66 89 45 fd	 mov	 WORD PTR _Cell$8[ebp+1], ax
; File C:\Anka2Project\Anka2Project\Source\Binary\source\UserInterface\PythonPlayerModule.cpp

; 962  : 			if (!PyTuple_GetByte(poArgs, 0, &Cell.window_type))

  00030	8d 45 fc	 lea	 eax, DWORD PTR _Cell$8[ebp]
  00033	50		 push	 eax
  00034	6a 00		 push	 0
  00036	56		 push	 esi
  00037	e8 00 00 00 00	 call	 ?PyTuple_GetByte@@YA_NPAU_object@@HPAE@Z ; PyTuple_GetByte
  0003c	83 c4 0c	 add	 esp, 12			; 0000000cH
  0003f	84 c0		 test	 al, al
  00041	74 65		 je	 SHORT $LN29@playerGetI

; 963  : 				return Py_BuildException();
; 964  : 
; 965  : 			if (!PyTuple_GetInteger(poArgs, 1, &Cell.cell))

  00043	8d 45 fd	 lea	 eax, DWORD PTR _Cell$8[ebp+1]
  00046	50		 push	 eax
  00047	6a 01		 push	 1
  00049	56		 push	 esi
  0004a	e8 00 00 00 00	 call	 ?PyTuple_GetInteger@@YA_NPAU_object@@HPAG@Z ; PyTuple_GetInteger
  0004f	83 c4 0c	 add	 esp, 12			; 0000000cH
  00052	84 c0		 test	 al, al
  00054	74 52		 je	 SHORT $LN29@playerGetI
; File C:\Anka2Project\Anka2Project\Source\Binary\source\eterBase\Singleton.h

; 26   : 		assert(ms_singleton);

  00056	8b 3d 00 00 00
	00		 mov	 edi, DWORD PTR ?ms_singleton@?$CSingleton@VCPythonPlayer@@@@0PAVCPythonPlayer@@A ; CSingleton<CPythonPlayer>::ms_singleton
  0005c	85 ff		 test	 edi, edi
  0005e	75 1a		 jne	 SHORT $LN20@playerGetI
  00060	6a 1a		 push	 26			; 0000001aH
  00062	68 00 00 00 00	 push	 OFFSET ??_C@_1IO@CAJLEEOI@?$AAC?$AA?3?$AA?2?$AAA?$AAn?$AAk?$AAa?$AA2?$AAP?$AAr?$AAo?$AAj?$AAe?$AAc?$AAt@
  00067	68 00 00 00 00	 push	 OFFSET ??_C@_1BK@FMEHPMFE@?$AAm?$AAs?$AA_?$AAs?$AAi?$AAn?$AAg?$AAl?$AAe?$AAt?$AAo?$AAn@
  0006c	e8 00 00 00 00	 call	 __wassert
  00071	8b 3d 00 00 00
	00		 mov	 edi, DWORD PTR ?ms_singleton@?$CSingleton@VCPythonPlayer@@@@0PAVCPythonPlayer@@A ; CSingleton<CPythonPlayer>::ms_singleton
  00077	83 c4 0c	 add	 esp, 12			; 0000000cH
$LN20@playerGetI:
; File C:\Anka2Project\Anka2Project\Source\Binary\source\UserInterface\PythonPlayerModule.cpp

; 968  : 			int ItemNum = CPythonPlayer::Instance().GetItemCount(Cell);

  0007a	8b 47 04	 mov	 eax, DWORD PTR [edi+4]
  0007d	8a 4d fe	 mov	 cl, BYTE PTR _Cell$8[ebp+2]
  00080	66 8b 55 fc	 mov	 dx, WORD PTR _Cell$8[ebp]
  00084	51		 push	 ecx
  00085	8b 70 50	 mov	 esi, DWORD PTR [eax+80]
  00088	8b c4		 mov	 eax, esp
  0008a	66 89 10	 mov	 WORD PTR [eax], dx
  0008d	88 48 02	 mov	 BYTE PTR [eax+2], cl
  00090	8d 4f 04	 lea	 ecx, DWORD PTR [edi+4]

; 969  : 
; 970  : 			return Py_BuildValue("i", ItemNum);

  00093	eb 6c		 jmp	 SHORT $LN28@playerGetI
$LN4@playerGetI:

; 949  : 	{
; 950  : 	case 1:
; 951  : 		{
; 952  : 			int iSlotIndex;
; 953  : 			if (!PyTuple_GetInteger(poArgs, 0, &iSlotIndex))

  00095	8d 45 f8	 lea	 eax, DWORD PTR _iSlotIndex$7[ebp]
  00098	50		 push	 eax
  00099	6a 00		 push	 0
  0009b	56		 push	 esi
  0009c	e8 00 00 00 00	 call	 ?PyTuple_GetInteger@@YA_NPAU_object@@HPAH@Z ; PyTuple_GetInteger
  000a1	83 c4 0c	 add	 esp, 12			; 0000000cH
  000a4	84 c0		 test	 al, al
  000a6	75 10		 jne	 SHORT $LN5@playerGetI
$LN29@playerGetI:

; 971  : 		}
; 972  : 	default:
; 973  : 		return Py_BuildException();
; 974  : 
; 975  : 	}
; 976  : }

  000a8	6a 00		 push	 0
  000aa	e8 00 00 00 00	 call	 ?Py_BuildException@@YAPAU_object@@PBDZZ ; Py_BuildException
  000af	83 c4 04	 add	 esp, 4
  000b2	5f		 pop	 edi
  000b3	5e		 pop	 esi
  000b4	8b e5		 mov	 esp, ebp
  000b6	5d		 pop	 ebp
  000b7	c3		 ret	 0
$LN5@playerGetI:
; File C:\Anka2Project\Anka2Project\Source\Binary\source\eterBase\Singleton.h

; 26   : 		assert(ms_singleton);

  000b8	8b 0d 00 00 00
	00		 mov	 ecx, DWORD PTR ?ms_singleton@?$CSingleton@VCPythonPlayer@@@@0PAVCPythonPlayer@@A ; CSingleton<CPythonPlayer>::ms_singleton
  000be	85 c9		 test	 ecx, ecx
  000c0	75 1a		 jne	 SHORT $LN13@playerGetI
  000c2	6a 1a		 push	 26			; 0000001aH
  000c4	68 00 00 00 00	 push	 OFFSET ??_C@_1IO@CAJLEEOI@?$AAC?$AA?3?$AA?2?$AAA?$AAn?$AAk?$AAa?$AA2?$AAP?$AAr?$AAo?$AAj?$AAe?$AAc?$AAt@
  000c9	68 00 00 00 00	 push	 OFFSET ??_C@_1BK@FMEHPMFE@?$AAm?$AAs?$AA_?$AAs?$AAi?$AAn?$AAg?$AAl?$AAe?$AAt?$AAo?$AAn@
  000ce	e8 00 00 00 00	 call	 __wassert
  000d3	8b 0d 00 00 00
	00		 mov	 ecx, DWORD PTR ?ms_singleton@?$CSingleton@VCPythonPlayer@@@@0PAVCPythonPlayer@@A ; CSingleton<CPythonPlayer>::ms_singleton
  000d9	83 c4 0c	 add	 esp, 12			; 0000000cH
$LN13@playerGetI:
; File C:\Anka2Project\Anka2Project\Source\Binary\source\UserInterface\PythonPlayerModule.cpp

; 956  : 			int ItemNum = CPythonPlayer::Instance().GetItemCount(TItemPos (INVENTORY, iSlotIndex));

  000dc	8b 41 04	 mov	 eax, DWORD PTR [ecx+4]
  000df	83 c1 04	 add	 ecx, 4
  000e2	51		 push	 ecx
  000e3	8b d4		 mov	 edx, esp
  000e5	c6 45 fc 01	 mov	 BYTE PTR $T4[ebp], 1
  000e9	8b 70 50	 mov	 esi, DWORD PTR [eax+80]
  000ec	0f b7 45 f8	 movzx	 eax, WORD PTR _iSlotIndex$7[ebp]
  000f0	66 89 45 fd	 mov	 WORD PTR $T4[ebp+1], ax
  000f4	0f b7 45 fc	 movzx	 eax, WORD PTR $T4[ebp]
  000f8	66 89 02	 mov	 WORD PTR [edx], ax
  000fb	8a 45 fe	 mov	 al, BYTE PTR $T4[ebp+2]
  000fe	88 42 02	 mov	 BYTE PTR [edx+2], al
$LN28@playerGetI:

; 971  : 		}
; 972  : 	default:
; 973  : 		return Py_BuildException();
; 974  : 
; 975  : 	}
; 976  : }

  00101	ff d6		 call	 esi
  00103	50		 push	 eax
  00104	68 00 00 00 00	 push	 OFFSET ??_C@_01KBJDNOO@i@
  00109	ff 15 00 00 00
	00		 call	 DWORD PTR __imp__Py_BuildValue
  0010f	83 c4 08	 add	 esp, 8
  00112	5f		 pop	 edi
  00113	5e		 pop	 esi
  00114	8b e5		 mov	 esp, ebp
  00116	5d		 pop	 ebp
  00117	c3		 ret	 0
?playerGetItemCount@@YAPAU_object@@PAU1@0@Z ENDP	; playerGetItemCount
_TEXT	ENDS
; Function compile flags: /Ogtp
; File C:\Anka2Project\Anka2Project\Source\Binary\source\UserInterface\PythonPlayerModule.cpp
; File C:\Anka2Project\Anka2Project\Source\Binary\source\UserInterface\GameType.h
; File C:\Anka2Project\Anka2Project\Source\Binary\source\UserInterface\PythonPlayerModule.cpp
; File C:\Anka2Project\Anka2Project\Source\Binary\source\eterBase\Singleton.h
; File C:\Anka2Project\Anka2Project\Source\Binary\source\UserInterface\PythonPlayerModule.cpp
; File C:\Anka2Project\Anka2Project\Source\Binary\source\eterBase\Singleton.h
; File C:\Anka2Project\Anka2Project\Source\Binary\source\UserInterface\PythonPlayerModule.cpp
;	COMDAT ?playerSetItemCount@@YAPAU_object@@PAU1@0@Z
_TEXT	SEGMENT
_iSlotIndex$8 = -12					; size = 4
_wCount$9 = -8						; size = 2
_wCount$10 = -8						; size = 2
$T5 = -4						; size = 3
_Cell$11 = -4						; size = 3
_poSelf$ = 8						; size = 4
_poArgs$ = 12						; size = 4
?playerSetItemCount@@YAPAU_object@@PAU1@0@Z PROC	; playerSetItemCount, COMDAT

; 979  : {

  00000	55		 push	 ebp
  00001	8b ec		 mov	 ebp, esp
  00003	83 ec 0c	 sub	 esp, 12			; 0000000cH
  00006	56		 push	 esi

; 980  : 	switch (PyTuple_Size(poArgs))

  00007	8b 75 0c	 mov	 esi, DWORD PTR _poArgs$[ebp]
  0000a	56		 push	 esi
  0000b	ff 15 00 00 00
	00		 call	 DWORD PTR __imp__PyTuple_Size
  00011	83 c4 04	 add	 esp, 4
  00014	83 e8 02	 sub	 eax, 2
  00017	74 7c		 je	 SHORT $LN4@playerSetI
  00019	83 e8 01	 sub	 eax, 1
  0001c	0f 85 86 00 00
	00		 jne	 $LN35@playerSetI
; File C:\Anka2Project\Anka2Project\Source\Binary\source\UserInterface\GameType.h

; 448  : 		cell = WORD_MAX;

  00022	b8 ff ff 00 00	 mov	 eax, 65535		; 0000ffffH
  00027	c6 45 fc 01	 mov	 BYTE PTR _Cell$11[ebp], 1
  0002b	66 89 45 fd	 mov	 WORD PTR _Cell$11[ebp+1], ax
; File C:\Anka2Project\Anka2Project\Source\Binary\source\UserInterface\PythonPlayerModule.cpp

; 1015 : 			if (!PyTuple_GetByte(poArgs, 0, &Cell.window_type))

  0002f	8d 45 fc	 lea	 eax, DWORD PTR _Cell$11[ebp]
  00032	50		 push	 eax
  00033	6a 00		 push	 0
  00035	56		 push	 esi
  00036	e8 00 00 00 00	 call	 ?PyTuple_GetByte@@YA_NPAU_object@@HPAE@Z ; PyTuple_GetByte
  0003b	83 c4 0c	 add	 esp, 12			; 0000000cH
  0003e	84 c0		 test	 al, al
  00040	74 66		 je	 SHORT $LN35@playerSetI

; 1016 : 				return Py_BuildException();
; 1017 : 
; 1018 : 			if (!PyTuple_GetInteger(poArgs, 1, &Cell.cell))

  00042	8d 45 fd	 lea	 eax, DWORD PTR _Cell$11[ebp+1]
  00045	50		 push	 eax
  00046	6a 01		 push	 1
  00048	56		 push	 esi
  00049	e8 00 00 00 00	 call	 ?PyTuple_GetInteger@@YA_NPAU_object@@HPAG@Z ; PyTuple_GetInteger
  0004e	83 c4 0c	 add	 esp, 12			; 0000000cH
  00051	84 c0		 test	 al, al
  00053	74 53		 je	 SHORT $LN35@playerSetI

; 1019 : 				return Py_BuildException();
; 1020 : 
; 1021 : #ifdef ENABLE_STACK_LIMIT
; 1022 : 			WORD wCount;
; 1023 : 			if (!PyTuple_GetInteger(poArgs, 2, &wCount))

  00055	8d 45 f8	 lea	 eax, DWORD PTR _wCount$9[ebp]
  00058	50		 push	 eax
  00059	6a 02		 push	 2
  0005b	56		 push	 esi
  0005c	e8 00 00 00 00	 call	 ?PyTuple_GetInteger@@YA_NPAU_object@@HPAG@Z ; PyTuple_GetInteger
  00061	83 c4 0c	 add	 esp, 12			; 0000000cH
  00064	84 c0		 test	 al, al
  00066	74 40		 je	 SHORT $LN35@playerSetI
; File C:\Anka2Project\Anka2Project\Source\Binary\source\eterBase\Singleton.h

; 26   : 		assert(ms_singleton);

  00068	8b 0d 00 00 00
	00		 mov	 ecx, DWORD PTR ?ms_singleton@?$CSingleton@VCPythonPlayer@@@@0PAVCPythonPlayer@@A ; CSingleton<CPythonPlayer>::ms_singleton
  0006e	85 c9		 test	 ecx, ecx
  00070	75 1a		 jne	 SHORT $LN23@playerSetI
  00072	6a 1a		 push	 26			; 0000001aH
  00074	68 00 00 00 00	 push	 OFFSET ??_C@_1IO@CAJLEEOI@?$AAC?$AA?3?$AA?2?$AAA?$AAn?$AAk?$AAa?$AA2?$AAP?$AAr?$AAo?$AAj?$AAe?$AAc?$AAt@
  00079	68 00 00 00 00	 push	 OFFSET ??_C@_1BK@FMEHPMFE@?$AAm?$AAs?$AA_?$AAs?$AAi?$AAn?$AAg?$AAl?$AAe?$AAt?$AAo?$AAn@
  0007e	e8 00 00 00 00	 call	 __wassert
  00083	8b 0d 00 00 00
	00		 mov	 ecx, DWORD PTR ?ms_singleton@?$CSingleton@VCPythonPlayer@@@@0PAVCPythonPlayer@@A ; CSingleton<CPythonPlayer>::ms_singleton
  00089	83 c4 0c	 add	 esp, 12			; 0000000cH
$LN23@playerSetI:
; File C:\Anka2Project\Anka2Project\Source\Binary\source\UserInterface\PythonPlayerModule.cpp

; 1031 : 			CPythonPlayer::Instance().SetItemCount(Cell, wCount);

  0008c	ff 75 f8	 push	 DWORD PTR _wCount$9[ebp]
  0008f	66 8b 45 fc	 mov	 ax, WORD PTR _Cell$11[ebp]

; 1032 : #else
; 1033 : 			CPythonPlayer::Instance().SetItemCount(Cell, bCount);
; 1034 : #endif
; 1035 : 
; 1036 : 			return Py_BuildNone();

  00093	eb 77		 jmp	 SHORT $LN34@playerSetI
$LN4@playerSetI:

; 981  : 	{
; 982  : 	case 2:
; 983  : 		{
; 984  : 			int iSlotIndex;
; 985  : 			if (!PyTuple_GetInteger(poArgs, 0, &iSlotIndex))

  00095	8d 45 f4	 lea	 eax, DWORD PTR _iSlotIndex$8[ebp]
  00098	50		 push	 eax
  00099	6a 00		 push	 0
  0009b	56		 push	 esi
  0009c	e8 00 00 00 00	 call	 ?PyTuple_GetInteger@@YA_NPAU_object@@HPAH@Z ; PyTuple_GetInteger
  000a1	83 c4 0c	 add	 esp, 12			; 0000000cH
  000a4	84 c0		 test	 al, al
  000a6	75 0f		 jne	 SHORT $LN5@playerSetI
$LN35@playerSetI:

; 1037 : 		}
; 1038 : 	default:
; 1039 : 		return Py_BuildException();
; 1040 : 
; 1041 : 	}
; 1042 : }

  000a8	6a 00		 push	 0
  000aa	e8 00 00 00 00	 call	 ?Py_BuildException@@YAPAU_object@@PBDZZ ; Py_BuildException
  000af	83 c4 04	 add	 esp, 4
  000b2	5e		 pop	 esi
  000b3	8b e5		 mov	 esp, ebp
  000b5	5d		 pop	 ebp
  000b6	c3		 ret	 0
$LN5@playerSetI:

; 986  : 				return Py_BuildException();
; 987  : 
; 988  : #ifdef ENABLE_STACK_LIMIT
; 989  : 			WORD wCount;
; 990  : 			if (!PyTuple_GetInteger(poArgs, 1, &wCount))

  000b7	8d 45 f8	 lea	 eax, DWORD PTR _wCount$10[ebp]
  000ba	50		 push	 eax
  000bb	6a 01		 push	 1
  000bd	56		 push	 esi
  000be	e8 00 00 00 00	 call	 ?PyTuple_GetInteger@@YA_NPAU_object@@HPAG@Z ; PyTuple_GetInteger
  000c3	83 c4 0c	 add	 esp, 12			; 0000000cH
  000c6	84 c0		 test	 al, al
  000c8	74 de		 je	 SHORT $LN35@playerSetI

; 991  : #else
; 992  : 			BYTE bCount;
; 993  : 			if (!PyTuple_GetInteger(poArgs, 1, &bCount))
; 994  : #endif
; 995  : 				return Py_BuildException();
; 996  : 
; 997  : #ifdef ENABLE_STACK_LIMIT
; 998  : 			if (0 == wCount)

  000ca	8b 55 f8	 mov	 edx, DWORD PTR _wCount$10[ebp]
  000cd	33 c0		 xor	 eax, eax
  000cf	66 3b c2	 cmp	 ax, dx
  000d2	74 d4		 je	 SHORT $LN35@playerSetI
; File C:\Anka2Project\Anka2Project\Source\Binary\source\eterBase\Singleton.h

; 26   : 		assert(ms_singleton);

  000d4	8b 0d 00 00 00
	00		 mov	 ecx, DWORD PTR ?ms_singleton@?$CSingleton@VCPythonPlayer@@@@0PAVCPythonPlayer@@A ; CSingleton<CPythonPlayer>::ms_singleton
  000da	85 c9		 test	 ecx, ecx
  000dc	75 1d		 jne	 SHORT $LN16@playerSetI
  000de	6a 1a		 push	 26			; 0000001aH
  000e0	68 00 00 00 00	 push	 OFFSET ??_C@_1IO@CAJLEEOI@?$AAC?$AA?3?$AA?2?$AAA?$AAn?$AAk?$AAa?$AA2?$AAP?$AAr?$AAo?$AAj?$AAe?$AAc?$AAt@
  000e5	68 00 00 00 00	 push	 OFFSET ??_C@_1BK@FMEHPMFE@?$AAm?$AAs?$AA_?$AAs?$AAi?$AAn?$AAg?$AAl?$AAe?$AAt?$AAo?$AAn@
  000ea	e8 00 00 00 00	 call	 __wassert
  000ef	8b 55 f8	 mov	 edx, DWORD PTR _wCount$10[ebp]
  000f2	83 c4 0c	 add	 esp, 12			; 0000000cH
  000f5	8b 0d 00 00 00
	00		 mov	 ecx, DWORD PTR ?ms_singleton@?$CSingleton@VCPythonPlayer@@@@0PAVCPythonPlayer@@A ; CSingleton<CPythonPlayer>::ms_singleton
$LN16@playerSetI:
; File C:\Anka2Project\Anka2Project\Source\Binary\source\UserInterface\PythonPlayerModule.cpp

; 1005 : 			CPythonPlayer::Instance().SetItemCount(TItemPos (INVENTORY, iSlotIndex), wCount);

  000fb	0f b7 45 f4	 movzx	 eax, WORD PTR _iSlotIndex$8[ebp]
  000ff	c6 45 fc 01	 mov	 BYTE PTR $T5[ebp], 1
  00103	66 89 45 fd	 mov	 WORD PTR $T5[ebp+1], ax
  00107	0f b7 45 fc	 movzx	 eax, WORD PTR $T5[ebp]
  0010b	52		 push	 edx
$LN34@playerSetI:

; 1037 : 		}
; 1038 : 	default:
; 1039 : 		return Py_BuildException();
; 1040 : 
; 1041 : 	}
; 1042 : }

  0010c	8b 71 04	 mov	 esi, DWORD PTR [ecx+4]
  0010f	83 c1 04	 add	 ecx, 4
  00112	51		 push	 ecx
  00113	8b d4		 mov	 edx, esp
  00115	66 89 02	 mov	 WORD PTR [edx], ax
  00118	8a 45 fe	 mov	 al, BYTE PTR $T5[ebp+2]
  0011b	88 42 02	 mov	 BYTE PTR [edx+2], al
  0011e	ff 56 38	 call	 DWORD PTR [esi+56]
  00121	e8 00 00 00 00	 call	 ?Py_BuildNone@@YAPAU_object@@XZ ; Py_BuildNone
  00126	5e		 pop	 esi
  00127	8b e5		 mov	 esp, ebp
  00129	5d		 pop	 ebp
  0012a	c3		 ret	 0
?playerSetItemCount@@YAPAU_object@@PAU1@0@Z ENDP	; playerSetItemCount
_TEXT	ENDS
; Function compile flags: /Ogtp
; File C:\Anka2Project\Anka2Project\Source\Binary\source\UserInterface\PythonPlayerModule.cpp
; File C:\Anka2Project\Anka2Project\Source\Binary\source\eterBase\Singleton.h
; File C:\Anka2Project\Anka2Project\Source\Binary\source\UserInterface\PythonPlayerModule.cpp
;	COMDAT ?playerGetItemCountByVnum@@YAPAU_object@@PAU1@0@Z
_TEXT	SEGMENT
_ivnum$ = -4						; size = 4
_poSelf$ = 8						; size = 4
_poArgs$ = 12						; size = 4
?playerGetItemCountByVnum@@YAPAU_object@@PAU1@0@Z PROC	; playerGetItemCountByVnum, COMDAT

; 1045 : {

  00000	55		 push	 ebp
  00001	8b ec		 mov	 ebp, esp
  00003	51		 push	 ecx

; 1046 : 	int ivnum;
; 1047 : 	if (!PyTuple_GetInteger(poArgs, 0, &ivnum))

  00004	8d 45 fc	 lea	 eax, DWORD PTR _ivnum$[ebp]
  00007	50		 push	 eax
  00008	6a 00		 push	 0
  0000a	ff 75 0c	 push	 DWORD PTR _poArgs$[ebp]
  0000d	e8 00 00 00 00	 call	 ?PyTuple_GetInteger@@YA_NPAU_object@@HPAH@Z ; PyTuple_GetInteger
  00012	83 c4 0c	 add	 esp, 12			; 0000000cH
  00015	84 c0		 test	 al, al
  00017	75 0e		 jne	 SHORT $LN2@playerGetI

; 1048 : 		return Py_BuildException();

  00019	6a 00		 push	 0
  0001b	e8 00 00 00 00	 call	 ?Py_BuildException@@YAPAU_object@@PBDZZ ; Py_BuildException
  00020	83 c4 04	 add	 esp, 4

; 1052 : }

  00023	8b e5		 mov	 esp, ebp
  00025	5d		 pop	 ebp
  00026	c3		 ret	 0
$LN2@playerGetI:
; File C:\Anka2Project\Anka2Project\Source\Binary\source\eterBase\Singleton.h

; 26   : 		assert(ms_singleton);

  00027	8b 0d 00 00 00
	00		 mov	 ecx, DWORD PTR ?ms_singleton@?$CSingleton@VCPythonPlayer@@@@0PAVCPythonPlayer@@A ; CSingleton<CPythonPlayer>::ms_singleton
  0002d	85 c9		 test	 ecx, ecx
  0002f	75 1a		 jne	 SHORT $LN6@playerGetI
  00031	6a 1a		 push	 26			; 0000001aH
  00033	68 00 00 00 00	 push	 OFFSET ??_C@_1IO@CAJLEEOI@?$AAC?$AA?3?$AA?2?$AAA?$AAn?$AAk?$AAa?$AA2?$AAP?$AAr?$AAo?$AAj?$AAe?$AAc?$AAt@
  00038	68 00 00 00 00	 push	 OFFSET ??_C@_1BK@FMEHPMFE@?$AAm?$AAs?$AA_?$AAs?$AAi?$AAn?$AAg?$AAl?$AAe?$AAt?$AAo?$AAn@
  0003d	e8 00 00 00 00	 call	 __wassert
  00042	8b 0d 00 00 00
	00		 mov	 ecx, DWORD PTR ?ms_singleton@?$CSingleton@VCPythonPlayer@@@@0PAVCPythonPlayer@@A ; CSingleton<CPythonPlayer>::ms_singleton
  00048	83 c4 0c	 add	 esp, 12			; 0000000cH
$LN6@playerGetI:
; File C:\Anka2Project\Anka2Project\Source\Binary\source\UserInterface\PythonPlayerModule.cpp

; 1050 : 	int ItemNum = CPythonPlayer::Instance().GetItemCountByVnum(ivnum);

  0004b	ff 75 fc	 push	 DWORD PTR _ivnum$[ebp]
  0004e	e8 00 00 00 00	 call	 ?GetItemCountByVnum@CPythonPlayer@@QAEKK@Z ; CPythonPlayer::GetItemCountByVnum

; 1051 : 	return Py_BuildValue("i", ItemNum);

  00053	50		 push	 eax
  00054	68 00 00 00 00	 push	 OFFSET ??_C@_01KBJDNOO@i@
  00059	ff 15 00 00 00
	00		 call	 DWORD PTR __imp__Py_BuildValue
  0005f	83 c4 08	 add	 esp, 8

; 1052 : }

  00062	8b e5		 mov	 esp, ebp
  00064	5d		 pop	 ebp
  00065	c3		 ret	 0
?playerGetItemCountByVnum@@YAPAU_object@@PAU1@0@Z ENDP	; playerGetItemCountByVnum
_TEXT	ENDS
; Function compile flags: /Ogtp
; File C:\Anka2Project\Anka2Project\Source\Binary\source\UserInterface\PythonPlayerModule.cpp
; File C:\Anka2Project\Anka2Project\Source\Binary\source\UserInterface\GameType.h
; File C:\Anka2Project\Anka2Project\Source\Binary\source\UserInterface\PythonPlayerModule.cpp
; File C:\Anka2Project\Anka2Project\Source\Binary\source\UserInterface\GameType.h
; File C:\Anka2Project\Anka2Project\Source\Binary\source\UserInterface\PythonPlayerModule.cpp
; File C:\Anka2Project\Anka2Project\Source\Binary\source\eterBase\Singleton.h
; File C:\Anka2Project\Anka2Project\Source\Binary\source\UserInterface\PythonPlayerModule.cpp
;	COMDAT ?playerGetItemMetinSocket@@YAPAU_object@@PAU1@0@Z
_TEXT	SEGMENT
_iMetinSocketIndex$ = -8				; size = 4
_Cell$ = -4						; size = 3
_poSelf$ = 8						; size = 4
_poArgs$ = 12						; size = 4
?playerGetItemMetinSocket@@YAPAU_object@@PAU1@0@Z PROC	; playerGetItemMetinSocket, COMDAT

; 1055 : {

  00000	55		 push	 ebp
  00001	8b ec		 mov	 ebp, esp
  00003	83 ec 08	 sub	 esp, 8
  00006	56		 push	 esi

; 1059 : 	switch (PyTuple_Size(poArgs))

  00007	8b 75 0c	 mov	 esi, DWORD PTR _poArgs$[ebp]
; File C:\Anka2Project\Anka2Project\Source\Binary\source\UserInterface\GameType.h

; 448  : 		cell = WORD_MAX;

  0000a	b8 ff ff 00 00	 mov	 eax, 65535		; 0000ffffH
; File C:\Anka2Project\Anka2Project\Source\Binary\source\UserInterface\PythonPlayerModule.cpp

; 1059 : 	switch (PyTuple_Size(poArgs))

  0000f	56		 push	 esi
; File C:\Anka2Project\Anka2Project\Source\Binary\source\UserInterface\GameType.h

; 447  : 		window_type = INVENTORY;

  00010	c6 45 fc 01	 mov	 BYTE PTR _Cell$[ebp], 1

; 448  : 		cell = WORD_MAX;

  00014	66 89 45 fd	 mov	 WORD PTR _Cell$[ebp+1], ax
; File C:\Anka2Project\Anka2Project\Source\Binary\source\UserInterface\PythonPlayerModule.cpp

; 1059 : 	switch (PyTuple_Size(poArgs))

  00018	ff 15 00 00 00
	00		 call	 DWORD PTR __imp__PyTuple_Size
  0001e	83 c4 04	 add	 esp, 4
  00021	83 e8 02	 sub	 eax, 2
  00024	74 4d		 je	 SHORT $LN4@playerGetI
  00026	83 e8 01	 sub	 eax, 1
  00029	75 39		 jne	 SHORT $LN26@playerGetI

; 1066 : 			return Py_BuildException();
; 1067 : 
; 1068 : 		break;
; 1069 : 	case 3:
; 1070 : 		if (!PyTuple_GetByte(poArgs, 0, &Cell.window_type))

  0002b	8d 45 fc	 lea	 eax, DWORD PTR _Cell$[ebp]
  0002e	50		 push	 eax
  0002f	6a 00		 push	 0
  00031	56		 push	 esi
  00032	e8 00 00 00 00	 call	 ?PyTuple_GetByte@@YA_NPAU_object@@HPAE@Z ; PyTuple_GetByte
  00037	83 c4 0c	 add	 esp, 12			; 0000000cH
  0003a	84 c0		 test	 al, al
  0003c	74 26		 je	 SHORT $LN26@playerGetI

; 1071 : 			return Py_BuildException();
; 1072 : 		if (!PyTuple_GetInteger(poArgs, 1, &Cell.cell))

  0003e	8d 45 fd	 lea	 eax, DWORD PTR _Cell$[ebp+1]
  00041	50		 push	 eax
  00042	6a 01		 push	 1
  00044	56		 push	 esi
  00045	e8 00 00 00 00	 call	 ?PyTuple_GetInteger@@YA_NPAU_object@@HPAG@Z ; PyTuple_GetInteger
  0004a	83 c4 0c	 add	 esp, 12			; 0000000cH
  0004d	84 c0		 test	 al, al
  0004f	74 13		 je	 SHORT $LN26@playerGetI

; 1073 : 			return Py_BuildException();
; 1074 : 		if (!PyTuple_GetInteger(poArgs, 2, &iMetinSocketIndex))

  00051	8d 45 f8	 lea	 eax, DWORD PTR _iMetinSocketIndex$[ebp]
  00054	50		 push	 eax
  00055	6a 02		 push	 2
  00057	56		 push	 esi
  00058	e8 00 00 00 00	 call	 ?PyTuple_GetInteger@@YA_NPAU_object@@HPAH@Z ; PyTuple_GetInteger
  0005d	83 c4 0c	 add	 esp, 12			; 0000000cH
  00060	84 c0		 test	 al, al
  00062	75 35		 jne	 SHORT $LN6@playerGetI
$LN26@playerGetI:

; 1085 : }

  00064	6a 00		 push	 0
  00066	e8 00 00 00 00	 call	 ?Py_BuildException@@YAPAU_object@@PBDZZ ; Py_BuildException
  0006b	83 c4 04	 add	 esp, 4
  0006e	5e		 pop	 esi
  0006f	8b e5		 mov	 esp, ebp
  00071	5d		 pop	 ebp
  00072	c3		 ret	 0
$LN4@playerGetI:

; 1060 : 	{
; 1061 : 	case 2:
; 1062 : 		if (!PyTuple_GetInteger(poArgs, 0, &Cell.cell))

  00073	8d 45 fd	 lea	 eax, DWORD PTR _Cell$[ebp+1]
  00076	50		 push	 eax
  00077	6a 00		 push	 0
  00079	56		 push	 esi
  0007a	e8 00 00 00 00	 call	 ?PyTuple_GetInteger@@YA_NPAU_object@@HPAG@Z ; PyTuple_GetInteger
  0007f	83 c4 0c	 add	 esp, 12			; 0000000cH
  00082	84 c0		 test	 al, al
  00084	74 de		 je	 SHORT $LN26@playerGetI

; 1063 : 			return Py_BuildException();
; 1064 : 
; 1065 : 		if (!PyTuple_GetInteger(poArgs, 1, &iMetinSocketIndex))

  00086	8d 45 f8	 lea	 eax, DWORD PTR _iMetinSocketIndex$[ebp]
  00089	50		 push	 eax
  0008a	6a 01		 push	 1
  0008c	56		 push	 esi
  0008d	e8 00 00 00 00	 call	 ?PyTuple_GetInteger@@YA_NPAU_object@@HPAH@Z ; PyTuple_GetInteger
  00092	83 c4 0c	 add	 esp, 12			; 0000000cH
  00095	84 c0		 test	 al, al
  00097	74 cb		 je	 SHORT $LN26@playerGetI
$LN6@playerGetI:
; File C:\Anka2Project\Anka2Project\Source\Binary\source\eterBase\Singleton.h

; 26   : 		assert(ms_singleton);

  00099	8b 0d 00 00 00
	00		 mov	 ecx, DWORD PTR ?ms_singleton@?$CSingleton@VCPythonPlayer@@@@0PAVCPythonPlayer@@A ; CSingleton<CPythonPlayer>::ms_singleton
  0009f	85 c9		 test	 ecx, ecx
  000a1	75 1a		 jne	 SHORT $LN17@playerGetI
  000a3	6a 1a		 push	 26			; 0000001aH
  000a5	68 00 00 00 00	 push	 OFFSET ??_C@_1IO@CAJLEEOI@?$AAC?$AA?3?$AA?2?$AAA?$AAn?$AAk?$AAa?$AA2?$AAP?$AAr?$AAo?$AAj?$AAe?$AAc?$AAt@
  000aa	68 00 00 00 00	 push	 OFFSET ??_C@_1BK@FMEHPMFE@?$AAm?$AAs?$AA_?$AAs?$AAi?$AAn?$AAg?$AAl?$AAe?$AAt?$AAo?$AAn@
  000af	e8 00 00 00 00	 call	 __wassert
  000b4	8b 0d 00 00 00
	00		 mov	 ecx, DWORD PTR ?ms_singleton@?$CSingleton@VCPythonPlayer@@@@0PAVCPythonPlayer@@A ; CSingleton<CPythonPlayer>::ms_singleton
  000ba	83 c4 0c	 add	 esp, 12			; 0000000cH
$LN17@playerGetI:
; File C:\Anka2Project\Anka2Project\Source\Binary\source\UserInterface\PythonPlayerModule.cpp

; 1083 : 	int nMetinSocketValue = CPythonPlayer::Instance().GetItemMetinSocket(Cell, iMetinSocketIndex);

  000bd	ff 75 f8	 push	 DWORD PTR _iMetinSocketIndex$[ebp]
  000c0	66 8b 45 fc	 mov	 ax, WORD PTR _Cell$[ebp]
  000c4	51		 push	 ecx
  000c5	8b d4		 mov	 edx, esp
  000c7	66 89 02	 mov	 WORD PTR [edx], ax
  000ca	8a 45 fe	 mov	 al, BYTE PTR _Cell$[ebp+2]
  000cd	88 42 02	 mov	 BYTE PTR [edx+2], al
  000d0	e8 00 00 00 00	 call	 ?GetItemMetinSocket@CPythonPlayer@@QAEKUSItemPos@@K@Z ; CPythonPlayer::GetItemMetinSocket

; 1084 : 	return Py_BuildValue("i", nMetinSocketValue);

  000d5	50		 push	 eax
  000d6	68 00 00 00 00	 push	 OFFSET ??_C@_01KBJDNOO@i@
  000db	ff 15 00 00 00
	00		 call	 DWORD PTR __imp__Py_BuildValue
  000e1	83 c4 08	 add	 esp, 8

; 1085 : }

  000e4	5e		 pop	 esi
  000e5	8b e5		 mov	 esp, ebp
  000e7	5d		 pop	 ebp
  000e8	c3		 ret	 0
?playerGetItemMetinSocket@@YAPAU_object@@PAU1@0@Z ENDP	; playerGetItemMetinSocket
_TEXT	ENDS
; Function compile flags: /Ogtp
; File C:\Anka2Project\Anka2Project\Source\Binary\source\UserInterface\PythonPlayerModule.cpp
; File C:\Anka2Project\Anka2Project\Source\Binary\source\UserInterface\GameType.h
; File C:\Anka2Project\Anka2Project\Source\Binary\source\UserInterface\PythonPlayerModule.cpp
; File C:\Anka2Project\Anka2Project\Source\Binary\source\UserInterface\GameType.h
; File C:\Anka2Project\Anka2Project\Source\Binary\source\UserInterface\PythonPlayerModule.cpp
; File C:\Anka2Project\Anka2Project\Source\Binary\source\eterBase\Singleton.h
; File C:\Anka2Project\Anka2Project\Source\Binary\source\UserInterface\PythonPlayerModule.cpp
;	COMDAT ?playerGetItemAttribute@@YAPAU_object@@PAU1@0@Z
_TEXT	SEGMENT
_iAttributeSlotIndex$ = -16				; size = 4
_Cell$ = -12						; size = 3
_sValue$ = -8						; size = 2
_byType$ = -1						; size = 1
_poSelf$ = 8						; size = 4
_poArgs$ = 12						; size = 4
?playerGetItemAttribute@@YAPAU_object@@PAU1@0@Z PROC	; playerGetItemAttribute, COMDAT

; 1088 : {

  00000	55		 push	 ebp
  00001	8b ec		 mov	 ebp, esp
  00003	83 ec 10	 sub	 esp, 16			; 00000010H
  00006	56		 push	 esi

; 1092 : 	switch (PyTuple_Size(poArgs))

  00007	8b 75 0c	 mov	 esi, DWORD PTR _poArgs$[ebp]
; File C:\Anka2Project\Anka2Project\Source\Binary\source\UserInterface\GameType.h

; 448  : 		cell = WORD_MAX;

  0000a	b8 ff ff 00 00	 mov	 eax, 65535		; 0000ffffH
; File C:\Anka2Project\Anka2Project\Source\Binary\source\UserInterface\PythonPlayerModule.cpp

; 1092 : 	switch (PyTuple_Size(poArgs))

  0000f	56		 push	 esi
; File C:\Anka2Project\Anka2Project\Source\Binary\source\UserInterface\GameType.h

; 447  : 		window_type = INVENTORY;

  00010	c6 45 f4 01	 mov	 BYTE PTR _Cell$[ebp], 1

; 448  : 		cell = WORD_MAX;

  00014	66 89 45 f5	 mov	 WORD PTR _Cell$[ebp+1], ax
; File C:\Anka2Project\Anka2Project\Source\Binary\source\UserInterface\PythonPlayerModule.cpp

; 1092 : 	switch (PyTuple_Size(poArgs))

  00018	ff 15 00 00 00
	00		 call	 DWORD PTR __imp__PyTuple_Size
  0001e	83 c4 04	 add	 esp, 4
  00021	83 e8 02	 sub	 eax, 2
  00024	74 4d		 je	 SHORT $LN4@playerGetI
  00026	83 e8 01	 sub	 eax, 1
  00029	75 39		 jne	 SHORT $LN26@playerGetI

; 1099 : 				return Py_BuildException();
; 1100 : 
; 1101 : 			break;
; 1102 : 		case 3:
; 1103 : 			if (!PyTuple_GetByte(poArgs, 0, &Cell.window_type))

  0002b	8d 45 f4	 lea	 eax, DWORD PTR _Cell$[ebp]
  0002e	50		 push	 eax
  0002f	6a 00		 push	 0
  00031	56		 push	 esi
  00032	e8 00 00 00 00	 call	 ?PyTuple_GetByte@@YA_NPAU_object@@HPAE@Z ; PyTuple_GetByte
  00037	83 c4 0c	 add	 esp, 12			; 0000000cH
  0003a	84 c0		 test	 al, al
  0003c	74 26		 je	 SHORT $LN26@playerGetI

; 1104 : 				return Py_BuildException();
; 1105 : 
; 1106 : 			if (!PyTuple_GetInteger(poArgs, 1, &Cell.cell))

  0003e	8d 45 f5	 lea	 eax, DWORD PTR _Cell$[ebp+1]
  00041	50		 push	 eax
  00042	6a 01		 push	 1
  00044	56		 push	 esi
  00045	e8 00 00 00 00	 call	 ?PyTuple_GetInteger@@YA_NPAU_object@@HPAG@Z ; PyTuple_GetInteger
  0004a	83 c4 0c	 add	 esp, 12			; 0000000cH
  0004d	84 c0		 test	 al, al
  0004f	74 13		 je	 SHORT $LN26@playerGetI

; 1107 : 				return Py_BuildException();
; 1108 : 
; 1109 : 			if (!PyTuple_GetInteger(poArgs, 2, &iAttributeSlotIndex))

  00051	8d 45 f0	 lea	 eax, DWORD PTR _iAttributeSlotIndex$[ebp]
  00054	50		 push	 eax
  00055	6a 02		 push	 2
  00057	56		 push	 esi
  00058	e8 00 00 00 00	 call	 ?PyTuple_GetInteger@@YA_NPAU_object@@HPAH@Z ; PyTuple_GetInteger
  0005d	83 c4 0c	 add	 esp, 12			; 0000000cH
  00060	84 c0		 test	 al, al
  00062	75 35		 jne	 SHORT $LN6@playerGetI
$LN26@playerGetI:

; 1120 : }

  00064	6a 00		 push	 0
  00066	e8 00 00 00 00	 call	 ?Py_BuildException@@YAPAU_object@@PBDZZ ; Py_BuildException
  0006b	83 c4 04	 add	 esp, 4
  0006e	5e		 pop	 esi
  0006f	8b e5		 mov	 esp, ebp
  00071	5d		 pop	 ebp
  00072	c3		 ret	 0
$LN4@playerGetI:

; 1093 : 	{
; 1094 : 		case 2:
; 1095 : 			if (!PyTuple_GetInteger(poArgs, 0, &Cell.cell))

  00073	8d 45 f5	 lea	 eax, DWORD PTR _Cell$[ebp+1]
  00076	50		 push	 eax
  00077	6a 00		 push	 0
  00079	56		 push	 esi
  0007a	e8 00 00 00 00	 call	 ?PyTuple_GetInteger@@YA_NPAU_object@@HPAG@Z ; PyTuple_GetInteger
  0007f	83 c4 0c	 add	 esp, 12			; 0000000cH
  00082	84 c0		 test	 al, al
  00084	74 de		 je	 SHORT $LN26@playerGetI

; 1096 : 				return Py_BuildException();
; 1097 : 
; 1098 : 			if (!PyTuple_GetInteger(poArgs, 1, &iAttributeSlotIndex))

  00086	8d 45 f0	 lea	 eax, DWORD PTR _iAttributeSlotIndex$[ebp]
  00089	50		 push	 eax
  0008a	6a 01		 push	 1
  0008c	56		 push	 esi
  0008d	e8 00 00 00 00	 call	 ?PyTuple_GetInteger@@YA_NPAU_object@@HPAH@Z ; PyTuple_GetInteger
  00092	83 c4 0c	 add	 esp, 12			; 0000000cH
  00095	84 c0		 test	 al, al
  00097	74 cb		 je	 SHORT $LN26@playerGetI
$LN6@playerGetI:
; File C:\Anka2Project\Anka2Project\Source\Binary\source\eterBase\Singleton.h

; 26   : 		assert(ms_singleton);

  00099	8b 0d 00 00 00
	00		 mov	 ecx, DWORD PTR ?ms_singleton@?$CSingleton@VCPythonPlayer@@@@0PAVCPythonPlayer@@A ; CSingleton<CPythonPlayer>::ms_singleton
  0009f	85 c9		 test	 ecx, ecx
  000a1	75 1a		 jne	 SHORT $LN17@playerGetI
  000a3	6a 1a		 push	 26			; 0000001aH
  000a5	68 00 00 00 00	 push	 OFFSET ??_C@_1IO@CAJLEEOI@?$AAC?$AA?3?$AA?2?$AAA?$AAn?$AAk?$AAa?$AA2?$AAP?$AAr?$AAo?$AAj?$AAe?$AAc?$AAt@
  000aa	68 00 00 00 00	 push	 OFFSET ??_C@_1BK@FMEHPMFE@?$AAm?$AAs?$AA_?$AAs?$AAi?$AAn?$AAg?$AAl?$AAe?$AAt?$AAo?$AAn@
  000af	e8 00 00 00 00	 call	 __wassert
  000b4	8b 0d 00 00 00
	00		 mov	 ecx, DWORD PTR ?ms_singleton@?$CSingleton@VCPythonPlayer@@@@0PAVCPythonPlayer@@A ; CSingleton<CPythonPlayer>::ms_singleton
  000ba	83 c4 0c	 add	 esp, 12			; 0000000cH
$LN17@playerGetI:
; File C:\Anka2Project\Anka2Project\Source\Binary\source\UserInterface\PythonPlayerModule.cpp

; 1117 : 	CPythonPlayer::Instance().GetItemAttribute(Cell, iAttributeSlotIndex, &byType, &sValue);

  000bd	8d 45 f8	 lea	 eax, DWORD PTR _sValue$[ebp]
  000c0	50		 push	 eax
  000c1	8d 45 ff	 lea	 eax, DWORD PTR _byType$[ebp]
  000c4	50		 push	 eax
  000c5	ff 75 f0	 push	 DWORD PTR _iAttributeSlotIndex$[ebp]
  000c8	66 8b 45 f4	 mov	 ax, WORD PTR _Cell$[ebp]
  000cc	51		 push	 ecx
  000cd	8b d4		 mov	 edx, esp
  000cf	66 89 02	 mov	 WORD PTR [edx], ax
  000d2	8a 45 f6	 mov	 al, BYTE PTR _Cell$[ebp+2]
  000d5	88 42 02	 mov	 BYTE PTR [edx+2], al
  000d8	e8 00 00 00 00	 call	 ?GetItemAttribute@CPythonPlayer@@QAEXUSItemPos@@KPAEPAF@Z ; CPythonPlayer::GetItemAttribute

; 1118 : 
; 1119 : 	return Py_BuildValue("ii", byType, sValue);

  000dd	0f bf 45 f8	 movsx	 eax, WORD PTR _sValue$[ebp]
  000e1	50		 push	 eax
  000e2	0f b6 45 ff	 movzx	 eax, BYTE PTR _byType$[ebp]
  000e6	50		 push	 eax
  000e7	68 00 00 00 00	 push	 OFFSET ??_C@_02PDIHAGKM@ii@
  000ec	ff 15 00 00 00
	00		 call	 DWORD PTR __imp__Py_BuildValue
  000f2	83 c4 0c	 add	 esp, 12			; 0000000cH

; 1120 : }

  000f5	5e		 pop	 esi
  000f6	8b e5		 mov	 esp, ebp
  000f8	5d		 pop	 ebp
  000f9	c3		 ret	 0
?playerGetItemAttribute@@YAPAU_object@@PAU1@0@Z ENDP	; playerGetItemAttribute
_TEXT	ENDS
; Function compile flags: /Ogtp
; File C:\Anka2Project\Anka2Project\Source\Binary\source\UserInterface\PythonPlayerModule.cpp
; File C:\Anka2Project\Anka2Project\Source\Binary\source\UserInterface\GameType.h
; File C:\Anka2Project\Anka2Project\Source\Binary\source\UserInterface\PythonPlayerModule.cpp
; File C:\Anka2Project\Anka2Project\Source\Binary\source\UserInterface\GameType.h
; File C:\Anka2Project\Anka2Project\Source\Binary\source\UserInterface\PythonPlayerModule.cpp
; File C:\Anka2Project\Anka2Project\Source\Binary\source\eterBase\Singleton.h
; File C:\Anka2Project\Anka2Project\Source\Binary\source\UserInterface\PythonPlayerModule.cpp
; File C:\Anka2Project\Anka2Project\Source\Binary\source\eterBase\Singleton.h
; File C:\Anka2Project\Anka2Project\Source\Binary\source\UserInterface\PythonPlayerModule.cpp
; File C:\Anka2Project\Anka2Project\Source\Binary\source\eterBase\Singleton.h
; File C:\Anka2Project\Anka2Project\Source\Binary\source\UserInterface\PythonPlayerModule.cpp
; File C:\Anka2Project\Anka2Project\Source\Binary\source\eterBase\Singleton.h
; File C:\Anka2Project\Anka2Project\Source\Binary\source\UserInterface\PythonPlayerModule.cpp
; File C:\Anka2Project\Anka2Project\Source\Binary\source\UserInterface\PythonPlayer.h
; File C:\Anka2Project\Anka2Project\Source\Binary\source\UserInterface\PythonPlayerModule.cpp
; File C:\Program Files\Microsoft Visual Studio\2022\Community\VC\Tools\MSVC\14.44.35207\include\xstring
; File C:\Anka2Project\Anka2Project\Source\Binary\source\UserInterface\PythonPlayerModule.cpp
; File C:\Program Files\Microsoft Visual Studio\2022\Community\VC\Tools\MSVC\14.44.35207\include\xstring
; File C:\Anka2Project\Anka2Project\Source\Binary\source\UserInterface\PythonPlayerModule.cpp
; File C:\Program Files\Microsoft Visual Studio\2022\Community\VC\Tools\MSVC\14.44.35207\include\xstring
; File C:\Anka2Project\Anka2Project\Source\Binary\source\UserInterface\PythonPlayerModule.cpp
; File C:\Anka2Project\Anka2Project\Source\Binary\source\UserInterface\PythonPlayer.h
; File C:\Anka2Project\Anka2Project\Source\Binary\source\UserInterface\PythonPlayerModule.cpp
; File C:\Program Files\Microsoft Visual Studio\2022\Community\VC\Tools\MSVC\14.44.35207\include\xstring
; File C:\Anka2Project\Anka2Project\Source\Binary\source\UserInterface\PythonPlayerModule.cpp
;	COMDAT ?playerGetItemLink@@YAPAU_object@@PAU1@0@Z
_TEXT	SEGMENT
_Cell$ = -1340						; size = 3
_pItemData$ = -1336					; size = 4
_pPet$13 = -1332					; size = 4
_len$1$ = -1328						; size = 4
tv794 = -1324						; size = 4
tv795 = -1320						; size = 4
tv796 = -1316						; size = 4
$T6 = -1312						; size = 24
_itemlink$14 = -1288					; size = 256
_buf$ = -1032						; size = 1024
__$ArrayPad$ = -4					; size = 4
_poSelf$ = 8						; size = 4
_poArgs$ = 12						; size = 4
?playerGetItemLink@@YAPAU_object@@PAU1@0@Z PROC		; playerGetItemLink, COMDAT

; 1123 : {

  00000	55		 push	 ebp
  00001	8b ec		 mov	 ebp, esp
  00003	83 e4 f8	 and	 esp, -8			; fffffff8H
  00006	81 ec 3c 05 00
	00		 sub	 esp, 1340		; 0000053cH
  0000c	a1 00 00 00 00	 mov	 eax, DWORD PTR ___security_cookie
  00011	33 c4		 xor	 eax, esp
  00013	89 84 24 38 05
	00 00		 mov	 DWORD PTR __$ArrayPad$[esp+1340], eax
  0001a	53		 push	 ebx
  0001b	56		 push	 esi
  0001c	8b 75 0c	 mov	 esi, DWORD PTR _poArgs$[ebp]
; File C:\Anka2Project\Anka2Project\Source\Binary\source\UserInterface\GameType.h

; 448  : 		cell = WORD_MAX;

  0001f	b8 ff ff 00 00	 mov	 eax, 65535		; 0000ffffH
; File C:\Anka2Project\Anka2Project\Source\Binary\source\UserInterface\PythonPlayerModule.cpp

; 1123 : {

  00024	57		 push	 edi

; 1126 : 	switch (PyTuple_Size(poArgs))

  00025	56		 push	 esi
; File C:\Anka2Project\Anka2Project\Source\Binary\source\UserInterface\GameType.h

; 447  : 		window_type = INVENTORY;

  00026	c6 44 24 10 01	 mov	 BYTE PTR _Cell$[esp+1356], 1

; 448  : 		cell = WORD_MAX;

  0002b	66 89 44 24 11	 mov	 WORD PTR _Cell$[esp+1357], ax
; File C:\Anka2Project\Anka2Project\Source\Binary\source\UserInterface\PythonPlayerModule.cpp

; 1126 : 	switch (PyTuple_Size(poArgs))

  00030	ff 15 00 00 00
	00		 call	 DWORD PTR __imp__PyTuple_Size
  00036	83 c4 04	 add	 esp, 4
  00039	83 e8 01	 sub	 eax, 1
  0003c	74 22		 je	 SHORT $LN7@playerGetI
  0003e	83 e8 01	 sub	 eax, 1
  00041	75 31		 jne	 SHORT $LN69@playerGetI

; 1130 : 				return Py_BuildException();
; 1131 : 			break;
; 1132 : 
; 1133 : 		case 2:
; 1134 : 			if (!PyTuple_GetByte(poArgs, 0, &Cell.window_type))

  00043	8d 44 24 0c	 lea	 eax, DWORD PTR _Cell$[esp+1352]
  00047	50		 push	 eax
  00048	6a 00		 push	 0
  0004a	56		 push	 esi
  0004b	e8 00 00 00 00	 call	 ?PyTuple_GetByte@@YA_NPAU_object@@HPAE@Z ; PyTuple_GetByte
  00050	83 c4 0c	 add	 esp, 12			; 0000000cH
  00053	84 c0		 test	 al, al
  00055	74 1d		 je	 SHORT $LN69@playerGetI

; 1135 : 				return Py_BuildException();
; 1136 : 			if (!PyTuple_GetInteger(poArgs, 1, &Cell.cell))

  00057	8d 44 24 0d	 lea	 eax, DWORD PTR _Cell$[esp+1353]
  0005b	50		 push	 eax
  0005c	6a 01		 push	 1

; 1137 : 				return Py_BuildException();

  0005e	eb 07		 jmp	 SHORT $LN70@playerGetI
$LN7@playerGetI:

; 1127 : 	{
; 1128 : 		case 1:
; 1129 : 			if (!PyTuple_GetInteger(poArgs, 0, &Cell.cell))

  00060	8d 44 24 0d	 lea	 eax, DWORD PTR _Cell$[esp+1353]
  00064	50		 push	 eax
  00065	6a 00		 push	 0
$LN70@playerGetI:

; 1264 : }

  00067	56		 push	 esi
  00068	e8 00 00 00 00	 call	 ?PyTuple_GetInteger@@YA_NPAU_object@@HPAG@Z ; PyTuple_GetInteger
  0006d	83 c4 0c	 add	 esp, 12			; 0000000cH
  00070	84 c0		 test	 al, al
  00072	75 1f		 jne	 SHORT $LN8@playerGetI
$LN69@playerGetI:
  00074	6a 00		 push	 0
  00076	e8 00 00 00 00	 call	 ?Py_BuildException@@YAPAU_object@@PBDZZ ; Py_BuildException
  0007b	83 c4 04	 add	 esp, 4
  0007e	5f		 pop	 edi
  0007f	5e		 pop	 esi
  00080	5b		 pop	 ebx
  00081	8b 8c 24 38 05
	00 00		 mov	 ecx, DWORD PTR __$ArrayPad$[esp+1340]
  00088	33 cc		 xor	 ecx, esp
  0008a	e8 00 00 00 00	 call	 @__security_check_cookie@4
  0008f	8b e5		 mov	 esp, ebp
  00091	5d		 pop	 ebp
  00092	c3		 ret	 0
$LN8@playerGetI:
; File C:\Anka2Project\Anka2Project\Source\Binary\source\eterBase\Singleton.h

; 26   : 		assert(ms_singleton);

  00093	8b 0d 00 00 00
	00		 mov	 ecx, DWORD PTR ?ms_singleton@?$CSingleton@VCPythonPlayer@@@@0PAVCPythonPlayer@@A ; CSingleton<CPythonPlayer>::ms_singleton
  00099	85 c9		 test	 ecx, ecx
  0009b	75 1a		 jne	 SHORT $LN35@playerGetI
  0009d	6a 1a		 push	 26			; 0000001aH
  0009f	68 00 00 00 00	 push	 OFFSET ??_C@_1IO@CAJLEEOI@?$AAC?$AA?3?$AA?2?$AAA?$AAn?$AAk?$AAa?$AA2?$AAP?$AAr?$AAo?$AAj?$AAe?$AAc?$AAt@
  000a4	68 00 00 00 00	 push	 OFFSET ??_C@_1BK@FMEHPMFE@?$AAm?$AAs?$AA_?$AAs?$AAi?$AAn?$AAg?$AAl?$AAe?$AAt?$AAo?$AAn@
  000a9	e8 00 00 00 00	 call	 __wassert
  000ae	8b 0d 00 00 00
	00		 mov	 ecx, DWORD PTR ?ms_singleton@?$CSingleton@VCPythonPlayer@@@@0PAVCPythonPlayer@@A ; CSingleton<CPythonPlayer>::ms_singleton
  000b4	83 c4 0c	 add	 esp, 12			; 0000000cH
$LN35@playerGetI:
; File C:\Anka2Project\Anka2Project\Source\Binary\source\UserInterface\PythonPlayerModule.cpp

; 1144 : 	const TItemData *pPlayerItem = CPythonPlayer::Instance().GetItemData(Cell);

  000b7	66 8b 44 24 0c	 mov	 ax, WORD PTR _Cell$[esp+1352]
  000bc	51		 push	 ecx
  000bd	8b d4		 mov	 edx, esp
  000bf	66 89 02	 mov	 WORD PTR [edx], ax
  000c2	8a 44 24 12	 mov	 al, BYTE PTR _Cell$[esp+1358]
  000c6	88 42 02	 mov	 BYTE PTR [edx+2], al
  000c9	e8 00 00 00 00	 call	 ?GetItemData@CPythonPlayer@@QBEPBUpacket_item@@USItemPos@@@Z ; CPythonPlayer::GetItemData
  000ce	8b f8		 mov	 edi, eax

; 1145 : 	CItemData* pItemData = nullptr;

  000d0	c7 44 24 10 00
	00 00 00	 mov	 DWORD PTR _pItemData$[esp+1352], 0

; 1148 : 	if (pPlayerItem && CItemManager::Instance().GetItemDataPointer(pPlayerItem->vnum, &pItemData))

  000d8	85 ff		 test	 edi, edi
  000da	0f 84 6f 02 00
	00		 je	 $LN13@playerGetI
; File C:\Anka2Project\Anka2Project\Source\Binary\source\eterBase\Singleton.h

; 26   : 		assert(ms_singleton);

  000e0	8b 0d 00 00 00
	00		 mov	 ecx, DWORD PTR ?ms_singleton@?$CSingleton@VCItemManager@@@@0PAVCItemManager@@A ; CSingleton<CItemManager>::ms_singleton
  000e6	85 c9		 test	 ecx, ecx
  000e8	75 1a		 jne	 SHORT $LN38@playerGetI
  000ea	6a 1a		 push	 26			; 0000001aH
  000ec	68 00 00 00 00	 push	 OFFSET ??_C@_1IO@CAJLEEOI@?$AAC?$AA?3?$AA?2?$AAA?$AAn?$AAk?$AAa?$AA2?$AAP?$AAr?$AAo?$AAj?$AAe?$AAc?$AAt@
  000f1	68 00 00 00 00	 push	 OFFSET ??_C@_1BK@FMEHPMFE@?$AAm?$AAs?$AA_?$AAs?$AAi?$AAn?$AAg?$AAl?$AAe?$AAt?$AAo?$AAn@
  000f6	e8 00 00 00 00	 call	 __wassert
  000fb	8b 0d 00 00 00
	00		 mov	 ecx, DWORD PTR ?ms_singleton@?$CSingleton@VCItemManager@@@@0PAVCItemManager@@A ; CSingleton<CItemManager>::ms_singleton
  00101	83 c4 0c	 add	 esp, 12			; 0000000cH
$LN38@playerGetI:
; File C:\Anka2Project\Anka2Project\Source\Binary\source\UserInterface\PythonPlayerModule.cpp

; 1148 : 	if (pPlayerItem && CItemManager::Instance().GetItemDataPointer(pPlayerItem->vnum, &pItemData))

  00104	8d 44 24 10	 lea	 eax, DWORD PTR _pItemData$[esp+1352]
  00108	50		 push	 eax
  00109	ff 37		 push	 DWORD PTR [edi]
  0010b	e8 00 00 00 00	 call	 ?GetItemDataPointer@CItemManager@@QAEHKPAPAVCItemData@@@Z ; CItemManager::GetItemDataPointer
  00110	85 c0		 test	 eax, eax
  00112	0f 84 37 02 00
	00		 je	 $LN13@playerGetI

; 1149 : 	{
; 1150 : 		char itemlink[256];
; 1151 : 		int len;
; 1152 : 		bool isAttr = false;
; 1153 : 
; 1154 : #ifdef ENABLE_GROWTH_PET_SYSTEM
; 1155 : 		if (pItemData->GetType() == CItemData::ITEM_TYPE_GROWTH_PET && (pItemData->GetSubType() == CItemData::PET_UPBRINGING || pItemData->GetSubType() == CItemData::PET_BAG))

  00118	8b 4c 24 10	 mov	 ecx, DWORD PTR _pItemData$[esp+1352]
  0011c	e8 00 00 00 00	 call	 ?GetType@CItemData@@QBEEXZ ; CItemData::GetType
  00121	3c 24		 cmp	 al, 36			; 00000024H
  00123	0f 85 60 01 00
	00		 jne	 $LN15@playerGetI
  00129	8b 4c 24 10	 mov	 ecx, DWORD PTR _pItemData$[esp+1352]
  0012d	e8 00 00 00 00	 call	 ?GetSubType@CItemData@@QBEEXZ ; CItemData::GetSubType
  00132	3c 01		 cmp	 al, 1
  00134	74 11		 je	 SHORT $LN17@playerGetI
  00136	8b 4c 24 10	 mov	 ecx, DWORD PTR _pItemData$[esp+1352]
  0013a	e8 00 00 00 00	 call	 ?GetSubType@CItemData@@QBEEXZ ; CItemData::GetSubType
  0013f	3c 02		 cmp	 al, 2
  00141	0f 85 42 01 00
	00		 jne	 $LN15@playerGetI
$LN17@playerGetI:
; File C:\Anka2Project\Anka2Project\Source\Binary\source\eterBase\Singleton.h

; 26   : 		assert(ms_singleton);

  00147	8b 0d 00 00 00
	00		 mov	 ecx, DWORD PTR ?ms_singleton@?$CSingleton@VCPythonPlayer@@@@0PAVCPythonPlayer@@A ; CSingleton<CPythonPlayer>::ms_singleton
; File C:\Anka2Project\Anka2Project\Source\Binary\source\UserInterface\PythonPlayerModule.cpp

; 1157 : 			CPythonPlayer::TPetData* pPet = nullptr;

  0014d	c7 44 24 14 00
	00 00 00	 mov	 DWORD PTR _pPet$13[esp+1352], 0
; File C:\Anka2Project\Anka2Project\Source\Binary\source\eterBase\Singleton.h

; 26   : 		assert(ms_singleton);

  00155	85 c9		 test	 ecx, ecx
  00157	75 1a		 jne	 SHORT $LN41@playerGetI
  00159	6a 1a		 push	 26			; 0000001aH
  0015b	68 00 00 00 00	 push	 OFFSET ??_C@_1IO@CAJLEEOI@?$AAC?$AA?3?$AA?2?$AAA?$AAn?$AAk?$AAa?$AA2?$AAP?$AAr?$AAo?$AAj?$AAe?$AAc?$AAt@
  00160	68 00 00 00 00	 push	 OFFSET ??_C@_1BK@FMEHPMFE@?$AAm?$AAs?$AA_?$AAs?$AAi?$AAn?$AAg?$AAl?$AAe?$AAt?$AAo?$AAn@
  00165	e8 00 00 00 00	 call	 __wassert
  0016a	8b 0d 00 00 00
	00		 mov	 ecx, DWORD PTR ?ms_singleton@?$CSingleton@VCPythonPlayer@@@@0PAVCPythonPlayer@@A ; CSingleton<CPythonPlayer>::ms_singleton
  00170	83 c4 0c	 add	 esp, 12			; 0000000cH
$LN41@playerGetI:
; File C:\Anka2Project\Anka2Project\Source\Binary\source\UserInterface\PythonPlayerModule.cpp

; 1158 : 			CPythonPlayer::Instance().GetPetInfo(pPlayerItem->alSockets[2], &pPet);

  00173	8d 44 24 14	 lea	 eax, DWORD PTR _pPet$13[esp+1352]
  00177	50		 push	 eax
  00178	ff 77 16	 push	 DWORD PTR [edi+22]
  0017b	e8 00 00 00 00	 call	 ?GetPetInfo@CPythonPlayer@@QAE_NKPAPAUSPetData@1@@Z ; CPythonPlayer::GetPetInfo

; 1159 : 
; 1160 : 			len = snprintf(itemlink, sizeof(itemlink), "petitem:%x:%x:%x:%x:%x:",

  00180	ff 77 16	 push	 DWORD PTR [edi+22]
  00183	8d 44 24 44	 lea	 eax, DWORD PTR _itemlink$14[esp+1356]
  00187	ff 77 12	 push	 DWORD PTR [edi+18]
  0018a	ff 77 0e	 push	 DWORD PTR [edi+14]
  0018d	ff 77 06	 push	 DWORD PTR [edi+6]
  00190	ff 37		 push	 DWORD PTR [edi]
  00192	68 00 00 00 00	 push	 OFFSET ??_C@_0BI@NGAOBLBO@petitem?3?$CFx?3?$CFx?3?$CFx?3?$CFx?3?$CFx?3@
  00197	68 00 01 00 00	 push	 256			; 00000100H
  0019c	50		 push	 eax
  0019d	e8 00 00 00 00	 call	 __snprintf

; 1161 : 				pPlayerItem->vnum, pPlayerItem->flags,
; 1162 : 				pPlayerItem->alSockets[0], pPlayerItem->alSockets[1], pPlayerItem->alSockets[2]);
; 1163 : 
; 1164 : 			if (pPet)

  001a2	8b 4c 24 34	 mov	 ecx, DWORD PTR _pPet$13[esp+1384]
  001a6	83 c4 20	 add	 esp, 32			; 00000020H
  001a9	89 44 24 18	 mov	 DWORD PTR _len$1$[esp+1352], eax
  001ad	85 c9		 test	 ecx, ecx
  001af	0f 84 ab 00 00
	00		 je	 $LN59@playerGetI

; 1166 : 				len += snprintf(itemlink + len, sizeof(itemlink) - len, "%x:%x:%x:%x:%x:%x:%x:%x:%x:%x:%s:%x:%x:%x:%x:%x:%x",

  001b5	0f b6 81 01 01
	00 00		 movzx	 eax, BYTE PTR [ecx+257]
  001bc	0f b6 99 a8 00
	00 00		 movzx	 ebx, BYTE PTR [ecx+168]
  001c3	0f b6 79 51	 movzx	 edi, BYTE PTR [ecx+81]
  001c7	0f b6 71 50	 movzx	 esi, BYTE PTR [ecx+80]
  001cb	89 44 24 1c	 mov	 DWORD PTR tv794[esp+1352], eax
  001cf	0f b6 81 00 01
	00 00		 movzx	 eax, BYTE PTR [ecx+256]
  001d6	89 44 24 20	 mov	 DWORD PTR tv795[esp+1352], eax
  001da	0f b6 81 a9 00
	00 00		 movzx	 eax, BYTE PTR [ecx+169]
  001e1	89 44 24 24	 mov	 DWORD PTR tv796[esp+1352], eax
; File C:\Anka2Project\Anka2Project\Source\Binary\source\UserInterface\PythonPlayer.h

; 950  : 			std::string	GetName() { return strName; }

  001e5	8d 41 08	 lea	 eax, DWORD PTR [ecx+8]
  001e8	50		 push	 eax
  001e9	8d 4c 24 2c	 lea	 ecx, DWORD PTR $T6[esp+1356]
  001ed	e8 00 00 00 00	 call	 ??0?$basic_string@DU?$char_traits@D@std@@V?$allocator@D@2@@std@@QAE@ABV01@@Z ; std::basic_string<char,std::char_traits<char>,std::allocator<char> >::basic_string<char,std::char_traits<char>,std::allocator<char> >
; File C:\Anka2Project\Anka2Project\Source\Binary\source\UserInterface\PythonPlayerModule.cpp

; 1166 : 				len += snprintf(itemlink + len, sizeof(itemlink) - len, "%x:%x:%x:%x:%x:%x:%x:%x:%x:%x:%s:%x:%x:%x:%x:%x:%x",

  001f2	ff 74 24 1c	 push	 DWORD PTR tv794[esp+1352]
  001f6	8b 4c 24 18	 mov	 ecx, DWORD PTR _pPet$13[esp+1356]
; File C:\Program Files\Microsoft Visual Studio\2022\Community\VC\Tools\MSVC\14.44.35207\include\xstring

; 444  :         const value_type* _Result = _Bx._Buf;

  001fa	8d 44 24 2c	 lea	 eax, DWORD PTR $T6[esp+1356]
; File C:\Anka2Project\Anka2Project\Source\Binary\source\UserInterface\PythonPlayerModule.cpp

; 1166 : 				len += snprintf(itemlink + len, sizeof(itemlink) - len, "%x:%x:%x:%x:%x:%x:%x:%x:%x:%x:%s:%x:%x:%x:%x:%x:%x",

  001fe	ff 74 24 24	 push	 DWORD PTR tv795[esp+1356]
; File C:\Program Files\Microsoft Visual Studio\2022\Community\VC\Tools\MSVC\14.44.35207\include\xstring

; 453  :         return _Myres > _Small_string_capacity;

  00202	83 7c 24 44 0f	 cmp	 DWORD PTR $T6[esp+1380], 15 ; 0000000fH
; File C:\Anka2Project\Anka2Project\Source\Binary\source\UserInterface\PythonPlayerModule.cpp

; 1166 : 				len += snprintf(itemlink + len, sizeof(itemlink) - len, "%x:%x:%x:%x:%x:%x:%x:%x:%x:%x:%s:%x:%x:%x:%x:%x:%x",

  00207	ff 74 24 2c	 push	 DWORD PTR tv796[esp+1360]
; File C:\Program Files\Microsoft Visual Studio\2022\Community\VC\Tools\MSVC\14.44.35207\include\xstring

; 445  :         if (_Large_mode_engaged()) {

  0020b	0f 47 44 24 34	 cmova	 eax, DWORD PTR $T6[esp+1364]
; File C:\Anka2Project\Anka2Project\Source\Binary\source\UserInterface\PythonPlayerModule.cpp

; 1166 : 				len += snprintf(itemlink + len, sizeof(itemlink) - len, "%x:%x:%x:%x:%x:%x:%x:%x:%x:%x:%s:%x:%x:%x:%x:%x:%x",

  00210	53		 push	 ebx
  00211	57		 push	 edi
  00212	56		 push	 esi
  00213	50		 push	 eax
  00214	ff 71 04	 push	 DWORD PTR [ecx+4]
; File C:\Anka2Project\Anka2Project\Source\Binary\source\UserInterface\PythonPlayer.h

; 960  : 			DWORD GetSkillCount() { return skillData.bSkillCount; }

  00217	0f b6 41 4c	 movzx	 eax, BYTE PTR [ecx+76]
; File C:\Anka2Project\Anka2Project\Source\Binary\source\UserInterface\PythonPlayerModule.cpp

; 1166 : 				len += snprintf(itemlink + len, sizeof(itemlink) - len, "%x:%x:%x:%x:%x:%x:%x:%x:%x:%x:%s:%x:%x:%x:%x:%x:%x",

  0021b	50		 push	 eax
  0021c	ff 71 44	 push	 DWORD PTR [ecx+68]
  0021f	b8 00 01 00 00	 mov	 eax, 256		; 00000100H
  00224	ff 71 40	 push	 DWORD PTR [ecx+64]
  00227	2b 44 24 44	 sub	 eax, DWORD PTR _len$1$[esp+1396]
  0022b	ff 71 3c	 push	 DWORD PTR [ecx+60]
  0022e	ff 71 38	 push	 DWORD PTR [ecx+56]
  00231	ff 71 34	 push	 DWORD PTR [ecx+52]
  00234	ff 71 30	 push	 DWORD PTR [ecx+48]
  00237	ff 71 48	 push	 DWORD PTR [ecx+72]
  0023a	ff 71 20	 push	 DWORD PTR [ecx+32]
  0023d	68 00 00 00 00	 push	 OFFSET ??_C@_0DD@IEBFDDBJ@?$CFx?3?$CFx?3?$CFx?3?$CFx?3?$CFx?3?$CFx?3?$CFx?3?$CFx?3?$CFx?3?$CFx?3?$CF@
  00242	50		 push	 eax
  00243	8d 84 24 8c 00
	00 00		 lea	 eax, DWORD PTR _itemlink$14[esp+1428]
  0024a	03 44 24 64	 add	 eax, DWORD PTR _len$1$[esp+1428]
  0024e	50		 push	 eax
  0024f	e8 00 00 00 00	 call	 __snprintf
  00254	83 c4 50	 add	 esp, 80			; 00000050H
; File C:\Program Files\Microsoft Visual Studio\2022\Community\VC\Tools\MSVC\14.44.35207\include\xstring

; 1383 :         _Tidy_deallocate();

  00257	8d 4c 24 28	 lea	 ecx, DWORD PTR $T6[esp+1352]
  0025b	e8 00 00 00 00	 call	 ?_Tidy_deallocate@?$basic_string@DU?$char_traits@D@std@@V?$allocator@D@2@@std@@AAEXXZ ; std::basic_string<char,std::char_traits<char>,std::allocator<char> >::_Tidy_deallocate
$LN59@playerGetI:
; File C:\Anka2Project\Anka2Project\Source\Binary\source\UserInterface\PythonPlayerModule.cpp

; 1187 : 				if (GetDefaultCodePage() == CP_ARABIC)

  00260	e8 00 00 00 00	 call	 ?GetDefaultCodePage@@YAKXZ ; GetDefaultCodePage
  00265	8b 4c 24 10	 mov	 ecx, DWORD PTR _pItemData$[esp+1352]
  00269	3d e8 04 00 00	 cmp	 eax, 1256		; 000004e8H
  0026e	0f 85 b3 00 00
	00		 jne	 $LN19@playerGetI

; 1188 : 					snprintf(buf, sizeof(buf), " |h|r[%s]|cffffc700|H%s|h", pItemData->GetName(), itemlink);

  00274	be 00 00 00 00	 mov	 esi, OFFSET ??_C@_0BK@MCOKCAKI@?5?$HMh?$HMr?$FL?$CFs?$FN?$HMcffffc700?$HMH?$CFs?$HMh@
  00279	e8 00 00 00 00	 call	 ?GetName@CItemData@@QBEPBDXZ ; CItemData::GetName
  0027e	8b f8		 mov	 edi, eax
  00280	8d 44 24 40	 lea	 eax, DWORD PTR _itemlink$14[esp+1352]
  00284	e9 ac 00 00 00	 jmp	 $LN26@playerGetI
$LN15@playerGetI:

; 1189 : 				else 
; 1190 : 					snprintf(buf, sizeof(buf), "|cffffc700|H%s|h[%s]|h|r", itemlink, pItemData->GetName());
; 1191 : 		}
; 1192 : 		else
; 1193 : 		{
; 1194 : 			len = snprintf(itemlink, sizeof(itemlink), "item:%x:%x:%x:%x:%x",

  00289	ff 77 16	 push	 DWORD PTR [edi+22]
  0028c	8d 44 24 44	 lea	 eax, DWORD PTR _itemlink$14[esp+1356]
  00290	ff 77 12	 push	 DWORD PTR [edi+18]
  00293	ff 77 0e	 push	 DWORD PTR [edi+14]
  00296	ff 77 06	 push	 DWORD PTR [edi+6]
  00299	ff 37		 push	 DWORD PTR [edi]
  0029b	68 00 00 00 00	 push	 OFFSET ??_C@_0BE@FGPADLIF@item?3?$CFx?3?$CFx?3?$CFx?3?$CFx?3?$CFx@
  002a0	68 00 01 00 00	 push	 256			; 00000100H
  002a5	50		 push	 eax
  002a6	e8 00 00 00 00	 call	 __snprintf

; 1195 : 					pPlayerItem->vnum, pPlayerItem->flags,
; 1196 : 					pPlayerItem->alSockets[0], pPlayerItem->alSockets[1], pPlayerItem->alSockets[2]);
; 1197 : 
; 1198 : #ifdef ENABLE_CHANGE_LOOK_SYSTEM
; 1199 : 			len += snprintf(itemlink + len, sizeof(itemlink) - len, ":%x",

  002ab	ff 77 2f	 push	 DWORD PTR [edi+47]
  002ae	8b f0		 mov	 esi, eax
  002b0	b9 00 01 00 00	 mov	 ecx, 256		; 00000100H
  002b5	2b ce		 sub	 ecx, esi
  002b7	68 00 00 00 00	 push	 OFFSET ??_C@_03JIENEPND@?3?$CFx@
  002bc	51		 push	 ecx
  002bd	8d 4c 24 6c	 lea	 ecx, DWORD PTR _itemlink$14[esp+1396]
  002c1	03 ce		 add	 ecx, esi
  002c3	51		 push	 ecx
  002c4	e8 00 00 00 00	 call	 __snprintf
  002c9	83 c4 30	 add	 esp, 48			; 00000030H
  002cc	03 f0		 add	 esi, eax
  002ce	83 c7 1a	 add	 edi, 26			; 0000001aH
  002d1	bb 07 00 00 00	 mov	 ebx, 7
$LL6@playerGetI:

; 1200 : 				pPlayerItem->dwTransmutationVnum);
; 1201 : #endif
; 1202 : 			for (int i = 0; i < ITEM_ATTRIBUTE_SLOT_MAX_NUM; ++i)
; 1203 : 			{
; 1204 : 				{
; 1205 : 					len += snprintf(itemlink + len, sizeof(itemlink) - len, ":%x:%d",

  002d6	0f bf 47 01	 movsx	 eax, WORD PTR [edi+1]
  002da	50		 push	 eax
  002db	0f b6 07	 movzx	 eax, BYTE PTR [edi]
  002de	50		 push	 eax
  002df	b8 00 01 00 00	 mov	 eax, 256		; 00000100H
  002e4	2b c6		 sub	 eax, esi
  002e6	68 00 00 00 00	 push	 OFFSET ??_C@_06FAMCNHHL@?3?$CFx?3?$CFd@
  002eb	50		 push	 eax
  002ec	8d 44 24 50	 lea	 eax, DWORD PTR _itemlink$14[esp+1368]
  002f0	03 c6		 add	 eax, esi
  002f2	50		 push	 eax
  002f3	e8 00 00 00 00	 call	 __snprintf
  002f8	83 c4 14	 add	 esp, 20			; 00000014H
  002fb	8d 7f 03	 lea	 edi, DWORD PTR [edi+3]
  002fe	03 f0		 add	 esi, eax
  00300	83 eb 01	 sub	 ebx, 1
  00303	75 d1		 jne	 SHORT $LL6@playerGetI

; 1206 : 							pPlayerItem->aAttr[i].bType, pPlayerItem->aAttr[i].sValue);
; 1207 : 					isAttr = true;
; 1208 : 				}
; 1209 : 			}
; 1210 : 
; 1211 : 			if( GetDefaultCodePage() == CP_ARABIC )

  00305	e8 00 00 00 00	 call	 ?GetDefaultCodePage@@YAKXZ ; GetDefaultCodePage
  0030a	8b 4c 24 10	 mov	 ecx, DWORD PTR _pItemData$[esp+1352]
  0030e	3d e8 04 00 00	 cmp	 eax, 1256		; 000004e8H
  00313	75 12		 jne	 SHORT $LN19@playerGetI

; 1212 : 			{
; 1213 : 				if (isAttr)
; 1214 : 					snprintf(buf, sizeof(buf), " |h|r[%s]|cffffc700|H%s|h", pItemData->GetName(), itemlink);

  00315	e8 00 00 00 00	 call	 ?GetName@CItemData@@QBEPBDXZ ; CItemData::GetName
  0031a	8b f8		 mov	 edi, eax

; 1215 : 				else
; 1216 : 					snprintf(buf, sizeof(buf), " |h|r[%s]|cfff1e6c0|H%s|h", pItemData->GetName(), itemlink);
; 1217 : 			}

  0031c	be 00 00 00 00	 mov	 esi, OFFSET ??_C@_0BK@MCOKCAKI@?5?$HMh?$HMr?$FL?$CFs?$FN?$HMcffffc700?$HMH?$CFs?$HMh@
  00321	8d 44 24 40	 lea	 eax, DWORD PTR _itemlink$14[esp+1352]
  00325	eb 0e		 jmp	 SHORT $LN26@playerGetI
$LN19@playerGetI:

; 1218 : 			else
; 1219 : 			{
; 1220 : 				if (isAttr)
; 1221 : 					snprintf(buf, sizeof(buf), "|cffffc700|H%s|h[%s]|h|r", itemlink, pItemData->GetName());
; 1222 : 				else
; 1223 : 					snprintf(buf, sizeof(buf), "|cfff1e6c0|H%s|h[%s]|h|r", itemlink, pItemData->GetName());
; 1224 : 			}
; 1225 : 		}
; 1226 : #else
; 1227 : 		len = snprintf(itemlink, sizeof(itemlink), "item:%x:%x:%x:%x:%x", 
; 1228 : 				pPlayerItem->vnum, pPlayerItem->flags,
; 1229 : 				pPlayerItem->alSockets[0], pPlayerItem->alSockets[1], pPlayerItem->alSockets[2]);
; 1230 : 
; 1231 : #ifdef ENABLE_CHANGE_LOOK_SYSTEM
; 1232 : 		len += snprintf(itemlink + len, sizeof(itemlink) - len, ":%x",
; 1233 : 			pPlayerItem->dwTransmutationVnum);
; 1234 : #endif
; 1235 : 
; 1236 : 		for (int i = 0; i < ITEM_ATTRIBUTE_SLOT_MAX_NUM; ++i)
; 1237 : 			if (pPlayerItem->aAttr[i].bType != 0)
; 1238 : 			{
; 1239 : 				len += snprintf(itemlink + len, sizeof(itemlink) - len, ":%x:%d", 
; 1240 : 						pPlayerItem->aAttr[i].bType, pPlayerItem->aAttr[i].sValue);
; 1241 : 				isAttr = true;
; 1242 : 			}
; 1243 : 
; 1244 : 		if( GetDefaultCodePage() == CP_ARABIC )
; 1245 : 		{
; 1246 : 			if (isAttr)
; 1247 : 				snprintf(buf, sizeof(buf), " |h|r[%s]|cffffc700|H%s|h", pItemData->GetName(), itemlink);
; 1248 : 			else
; 1249 : 				snprintf(buf, sizeof(buf), " |h|r[%s]|cfff1e6c0|H%s|h", pItemData->GetName(), itemlink);
; 1250 : 		}
; 1251 : 		else
; 1252 : 		{
; 1253 : 			if (isAttr)
; 1254 : 				snprintf(buf, sizeof(buf), "|cffffc700|H%s|h[%s]|h|r", itemlink, pItemData->GetName());
; 1255 : 			else
; 1256 : 				snprintf(buf, sizeof(buf), "|cfff1e6c0|H%s|h[%s]|h|r", itemlink, pItemData->GetName());
; 1257 : 		}
; 1258 : #endif
; 1259 : 	}

  00327	8d 7c 24 40	 lea	 edi, DWORD PTR _itemlink$14[esp+1352]
  0032b	be 00 00 00 00	 mov	 esi, OFFSET ??_C@_0BJ@DABMGIOF@?$HMcffffc700?$HMH?$CFs?$HMh?$FL?$CFs?$FN?$HMh?$HMr@
  00330	e8 00 00 00 00	 call	 ?GetName@CItemData@@QBEPBDXZ ; CItemData::GetName
$LN26@playerGetI:
  00335	50		 push	 eax
  00336	57		 push	 edi
  00337	56		 push	 esi
  00338	8d 84 24 4c 01
	00 00		 lea	 eax, DWORD PTR _buf$[esp+1364]
  0033f	68 00 04 00 00	 push	 1024			; 00000400H
  00344	50		 push	 eax
  00345	e8 00 00 00 00	 call	 __snprintf
  0034a	83 c4 14	 add	 esp, 20			; 00000014H
  0034d	eb 08		 jmp	 SHORT $LN14@playerGetI
$LN13@playerGetI:

; 1260 : 	else
; 1261 : 		buf[0] = '\0';

  0034f	c6 84 24 40 01
	00 00 00	 mov	 BYTE PTR _buf$[esp+1352], 0
$LN14@playerGetI:

; 1262 : 
; 1263 : 	return Py_BuildValue("s", buf);

  00357	8d 84 24 40 01
	00 00		 lea	 eax, DWORD PTR _buf$[esp+1352]
  0035e	50		 push	 eax
  0035f	68 00 00 00 00	 push	 OFFSET ??_C@_01LKDEMHDF@s@
  00364	ff 15 00 00 00
	00		 call	 DWORD PTR __imp__Py_BuildValue

; 1264 : }

  0036a	8b 8c 24 4c 05
	00 00		 mov	 ecx, DWORD PTR __$ArrayPad$[esp+1360]
  00371	83 c4 08	 add	 esp, 8
  00374	5f		 pop	 edi
  00375	5e		 pop	 esi
  00376	5b		 pop	 ebx
  00377	33 cc		 xor	 ecx, esp
  00379	e8 00 00 00 00	 call	 @__security_check_cookie@4
  0037e	8b e5		 mov	 esp, ebp
  00380	5d		 pop	 ebp
  00381	c3		 ret	 0
?playerGetItemLink@@YAPAU_object@@PAU1@0@Z ENDP		; playerGetItemLink
_TEXT	ENDS
; Function compile flags: /Ogtp
; File C:\Anka2Project\Anka2Project\Source\Binary\source\UserInterface\PythonPlayerModule.cpp
; File C:\Anka2Project\Anka2Project\Source\Binary\source\UserInterface\GameType.h
; File C:\Anka2Project\Anka2Project\Source\Binary\source\UserInterface\PythonPlayerModule.cpp
; File C:\Anka2Project\Anka2Project\Source\Binary\source\UserInterface\GameType.h
; File C:\Anka2Project\Anka2Project\Source\Binary\source\UserInterface\PythonPlayerModule.cpp
; File C:\Anka2Project\Anka2Project\Source\Binary\source\eterBase\Singleton.h
; File C:\Anka2Project\Anka2Project\Source\Binary\source\UserInterface\PythonPlayerModule.cpp
; File C:\Anka2Project\Anka2Project\Source\Binary\source\eterBase\Singleton.h
; File C:\Anka2Project\Anka2Project\Source\Binary\source\UserInterface\PythonPlayerModule.cpp
; File C:\Anka2Project\Anka2Project\Source\Binary\source\eterBase\Singleton.h
; File C:\Anka2Project\Anka2Project\Source\Binary\source\UserInterface\PythonPlayerModule.cpp
;	COMDAT ?playerGetISellItemPrice@@YAPAU_object@@PAU1@0@Z
_TEXT	SEGMENT
?ms_singleton@?$CSingleton@VCItemManager@@@@0PAVCItemManager@@A$1 = -12 ; size = 4
_pItemData$ = -8					; size = 4
_Cell$ = -4						; size = 3
_poSelf$ = 8						; size = 4
_poArgs$ = 12						; size = 4
?playerGetISellItemPrice@@YAPAU_object@@PAU1@0@Z PROC	; playerGetISellItemPrice, COMDAT

; 1267 : {

  00000	55		 push	 ebp
  00001	8b ec		 mov	 ebp, esp
  00003	83 ec 0c	 sub	 esp, 12			; 0000000cH
  00006	56		 push	 esi

; 1270 : 	switch (PyTuple_Size(poArgs))

  00007	8b 75 0c	 mov	 esi, DWORD PTR _poArgs$[ebp]
; File C:\Anka2Project\Anka2Project\Source\Binary\source\UserInterface\GameType.h

; 448  : 		cell = WORD_MAX;

  0000a	b8 ff ff 00 00	 mov	 eax, 65535		; 0000ffffH
; File C:\Anka2Project\Anka2Project\Source\Binary\source\UserInterface\PythonPlayerModule.cpp

; 1267 : {

  0000f	57		 push	 edi

; 1270 : 	switch (PyTuple_Size(poArgs))

  00010	56		 push	 esi
; File C:\Anka2Project\Anka2Project\Source\Binary\source\UserInterface\GameType.h

; 447  : 		window_type = INVENTORY;

  00011	c6 45 fc 01	 mov	 BYTE PTR _Cell$[ebp], 1

; 448  : 		cell = WORD_MAX;

  00015	66 89 45 fd	 mov	 WORD PTR _Cell$[ebp+1], ax
; File C:\Anka2Project\Anka2Project\Source\Binary\source\UserInterface\PythonPlayerModule.cpp

; 1270 : 	switch (PyTuple_Size(poArgs))

  00019	ff 15 00 00 00
	00		 call	 DWORD PTR __imp__PyTuple_Size
  0001f	83 c4 04	 add	 esp, 4
  00022	83 e8 01	 sub	 eax, 1
  00025	74 20		 je	 SHORT $LN4@playerGetI
  00027	83 e8 01	 sub	 eax, 1
  0002a	75 2e		 jne	 SHORT $LN40@playerGetI

; 1274 : 			return Py_BuildException();
; 1275 : 		break;
; 1276 : 	case 2:
; 1277 : 		if (!PyTuple_GetByte(poArgs, 0, &Cell.window_type))

  0002c	8d 45 fc	 lea	 eax, DWORD PTR _Cell$[ebp]
  0002f	50		 push	 eax
  00030	6a 00		 push	 0
  00032	56		 push	 esi
  00033	e8 00 00 00 00	 call	 ?PyTuple_GetByte@@YA_NPAU_object@@HPAE@Z ; PyTuple_GetByte
  00038	83 c4 0c	 add	 esp, 12			; 0000000cH
  0003b	84 c0		 test	 al, al
  0003d	74 1b		 je	 SHORT $LN40@playerGetI

; 1278 : 			return Py_BuildException();
; 1279 : 		if (!PyTuple_GetInteger(poArgs, 1, &Cell.cell))

  0003f	8d 45 fd	 lea	 eax, DWORD PTR _Cell$[ebp+1]
  00042	50		 push	 eax
  00043	6a 01		 push	 1

; 1280 : 			return Py_BuildException();

  00045	eb 06		 jmp	 SHORT $LN41@playerGetI
$LN4@playerGetI:

; 1271 : 	{
; 1272 : 	case 1:	
; 1273 : 		if (!PyTuple_GetInteger(poArgs, 0, &Cell.cell))

  00047	8d 45 fd	 lea	 eax, DWORD PTR _Cell$[ebp+1]
  0004a	50		 push	 eax
  0004b	6a 00		 push	 0
$LN41@playerGetI:

; 1299 : }

  0004d	56		 push	 esi
  0004e	e8 00 00 00 00	 call	 ?PyTuple_GetInteger@@YA_NPAU_object@@HPAG@Z ; PyTuple_GetInteger
  00053	83 c4 0c	 add	 esp, 12			; 0000000cH
  00056	84 c0		 test	 al, al
  00058	75 10		 jne	 SHORT $LN5@playerGetI
$LN40@playerGetI:
  0005a	6a 00		 push	 0
  0005c	e8 00 00 00 00	 call	 ?Py_BuildException@@YAPAU_object@@PBDZZ ; Py_BuildException
  00061	83 c4 04	 add	 esp, 4
  00064	5f		 pop	 edi
  00065	5e		 pop	 esi
  00066	8b e5		 mov	 esp, ebp
  00068	5d		 pop	 ebp
  00069	c3		 ret	 0
$LN5@playerGetI:
; File C:\Anka2Project\Anka2Project\Source\Binary\source\eterBase\Singleton.h

; 26   : 		assert(ms_singleton);

  0006a	a1 00 00 00 00	 mov	 eax, DWORD PTR ?ms_singleton@?$CSingleton@VCItemManager@@@@0PAVCItemManager@@A ; CSingleton<CItemManager>::ms_singleton
  0006f	89 45 f4	 mov	 DWORD PTR ?ms_singleton@?$CSingleton@VCItemManager@@@@0PAVCItemManager@@A$1[ebp], eax
  00072	85 c0		 test	 eax, eax
  00074	75 1c		 jne	 SHORT $LN18@playerGetI
  00076	6a 1a		 push	 26			; 0000001aH
  00078	68 00 00 00 00	 push	 OFFSET ??_C@_1IO@CAJLEEOI@?$AAC?$AA?3?$AA?2?$AAA?$AAn?$AAk?$AAa?$AA2?$AAP?$AAr?$AAo?$AAj?$AAe?$AAc?$AAt@
  0007d	68 00 00 00 00	 push	 OFFSET ??_C@_1BK@FMEHPMFE@?$AAm?$AAs?$AA_?$AAs?$AAi?$AAn?$AAg?$AAl?$AAe?$AAt?$AAo?$AAn@
  00082	e8 00 00 00 00	 call	 __wassert
  00087	a1 00 00 00 00	 mov	 eax, DWORD PTR ?ms_singleton@?$CSingleton@VCItemManager@@@@0PAVCItemManager@@A ; CSingleton<CItemManager>::ms_singleton
  0008c	83 c4 0c	 add	 esp, 12			; 0000000cH
  0008f	89 45 f4	 mov	 DWORD PTR ?ms_singleton@?$CSingleton@VCItemManager@@@@0PAVCItemManager@@A$1[ebp], eax
$LN18@playerGetI:
  00092	8b 3d 00 00 00
	00		 mov	 edi, DWORD PTR ?ms_singleton@?$CSingleton@VCPythonPlayer@@@@0PAVCPythonPlayer@@A ; CSingleton<CPythonPlayer>::ms_singleton
  00098	85 ff		 test	 edi, edi
  0009a	75 1a		 jne	 SHORT $LN21@playerGetI
  0009c	6a 1a		 push	 26			; 0000001aH
  0009e	68 00 00 00 00	 push	 OFFSET ??_C@_1IO@CAJLEEOI@?$AAC?$AA?3?$AA?2?$AAA?$AAn?$AAk?$AAa?$AA2?$AAP?$AAr?$AAo?$AAj?$AAe?$AAc?$AAt@
  000a3	68 00 00 00 00	 push	 OFFSET ??_C@_1BK@FMEHPMFE@?$AAm?$AAs?$AA_?$AAs?$AAi?$AAn?$AAg?$AAl?$AAe?$AAt?$AAo?$AAn@
  000a8	e8 00 00 00 00	 call	 __wassert
  000ad	8b 3d 00 00 00
	00		 mov	 edi, DWORD PTR ?ms_singleton@?$CSingleton@VCPythonPlayer@@@@0PAVCPythonPlayer@@A ; CSingleton<CPythonPlayer>::ms_singleton
  000b3	83 c4 0c	 add	 esp, 12			; 0000000cH
$LN21@playerGetI:
; File C:\Anka2Project\Anka2Project\Source\Binary\source\UserInterface\PythonPlayerModule.cpp

; 1287 : 	if (!CItemManager::Instance().GetItemDataPointer(CPythonPlayer::Instance().GetItemIndex(Cell), &pItemData))

  000b6	8b 47 04	 mov	 eax, DWORD PTR [edi+4]
  000b9	8a 4d fe	 mov	 cl, BYTE PTR _Cell$[ebp+2]
  000bc	66 8b 55 fc	 mov	 dx, WORD PTR _Cell$[ebp]
  000c0	51		 push	 ecx
  000c1	8b 70 48	 mov	 esi, DWORD PTR [eax+72]
  000c4	8b c4		 mov	 eax, esp
  000c6	66 89 10	 mov	 WORD PTR [eax], dx
  000c9	88 48 02	 mov	 BYTE PTR [eax+2], cl
  000cc	8d 4f 04	 lea	 ecx, DWORD PTR [edi+4]
  000cf	ff d6		 call	 esi
  000d1	8d 4d f8	 lea	 ecx, DWORD PTR _pItemData$[ebp]
  000d4	51		 push	 ecx
  000d5	8b 4d f4	 mov	 ecx, DWORD PTR ?ms_singleton@?$CSingleton@VCItemManager@@@@0PAVCItemManager@@A$1[ebp]
  000d8	50		 push	 eax
  000d9	e8 00 00 00 00	 call	 ?GetItemDataPointer@CItemManager@@QAEHKPAPAVCItemData@@@Z ; CItemManager::GetItemDataPointer
  000de	85 c0		 test	 eax, eax
  000e0	75 15		 jne	 SHORT $LN10@playerGetI

; 1288 : 		return Py_BuildValue("i", 0);

  000e2	50		 push	 eax

; 1299 : }

  000e3	68 00 00 00 00	 push	 OFFSET ??_C@_01KBJDNOO@i@
  000e8	ff 15 00 00 00
	00		 call	 DWORD PTR __imp__Py_BuildValue
  000ee	83 c4 08	 add	 esp, 8
  000f1	5f		 pop	 edi
  000f2	5e		 pop	 esi
  000f3	8b e5		 mov	 esp, ebp
  000f5	5d		 pop	 ebp
  000f6	c3		 ret	 0
$LN10@playerGetI:

; 1289 : 
; 1290 : 	int iPrice;
; 1291 : 
; 1292 : 	if (pItemData->IsFlag(CItemData::ITEM_FLAG_COUNT_PER_1GOLD))

  000f7	8b 4d f8	 mov	 ecx, DWORD PTR _pItemData$[ebp]
  000fa	6a 08		 push	 8
  000fc	e8 00 00 00 00	 call	 ?IsFlag@CItemData@@QBEHK@Z ; CItemData::IsFlag
  00101	8b 3d 00 00 00
	00		 mov	 edi, DWORD PTR ?ms_singleton@?$CSingleton@VCPythonPlayer@@@@0PAVCPythonPlayer@@A ; CSingleton<CPythonPlayer>::ms_singleton
  00107	85 c0		 test	 eax, eax
  00109	74 4d		 je	 SHORT $LN11@playerGetI
; File C:\Anka2Project\Anka2Project\Source\Binary\source\eterBase\Singleton.h

; 26   : 		assert(ms_singleton);

  0010b	85 ff		 test	 edi, edi
  0010d	75 1a		 jne	 SHORT $LN24@playerGetI
  0010f	6a 1a		 push	 26			; 0000001aH
  00111	68 00 00 00 00	 push	 OFFSET ??_C@_1IO@CAJLEEOI@?$AAC?$AA?3?$AA?2?$AAA?$AAn?$AAk?$AAa?$AA2?$AAP?$AAr?$AAo?$AAj?$AAe?$AAc?$AAt@
  00116	68 00 00 00 00	 push	 OFFSET ??_C@_1BK@FMEHPMFE@?$AAm?$AAs?$AA_?$AAs?$AAi?$AAn?$AAg?$AAl?$AAe?$AAt?$AAo?$AAn@
  0011b	e8 00 00 00 00	 call	 __wassert
  00120	8b 3d 00 00 00
	00		 mov	 edi, DWORD PTR ?ms_singleton@?$CSingleton@VCPythonPlayer@@@@0PAVCPythonPlayer@@A ; CSingleton<CPythonPlayer>::ms_singleton
  00126	83 c4 0c	 add	 esp, 12			; 0000000cH
$LN24@playerGetI:
; File C:\Anka2Project\Anka2Project\Source\Binary\source\UserInterface\PythonPlayerModule.cpp

; 1293 : 		iPrice = CPythonPlayer::Instance().GetItemCount(Cell) / pItemData->GetISellItemPrice();

  00129	8b 47 04	 mov	 eax, DWORD PTR [edi+4]
  0012c	8a 4d fe	 mov	 cl, BYTE PTR _Cell$[ebp+2]
  0012f	66 8b 55 fc	 mov	 dx, WORD PTR _Cell$[ebp]
  00133	51		 push	 ecx
  00134	8b 70 50	 mov	 esi, DWORD PTR [eax+80]
  00137	8b c4		 mov	 eax, esp
  00139	66 89 10	 mov	 WORD PTR [eax], dx
  0013c	88 48 02	 mov	 BYTE PTR [eax+2], cl
  0013f	8d 4f 04	 lea	 ecx, DWORD PTR [edi+4]
  00142	ff d6		 call	 esi
  00144	8b 4d f8	 mov	 ecx, DWORD PTR _pItemData$[ebp]
  00147	8b f0		 mov	 esi, eax
  00149	e8 00 00 00 00	 call	 ?GetISellItemPrice@CItemData@@QBEKXZ ; CItemData::GetISellItemPrice
  0014e	8b c8		 mov	 ecx, eax
  00150	33 d2		 xor	 edx, edx
  00152	8b c6		 mov	 eax, esi
  00154	f7 f1		 div	 ecx
  00156	eb 46		 jmp	 SHORT $LN12@playerGetI
$LN11@playerGetI:
; File C:\Anka2Project\Anka2Project\Source\Binary\source\eterBase\Singleton.h

; 26   : 		assert(ms_singleton);

  00158	85 ff		 test	 edi, edi
  0015a	75 1a		 jne	 SHORT $LN27@playerGetI
  0015c	6a 1a		 push	 26			; 0000001aH
  0015e	68 00 00 00 00	 push	 OFFSET ??_C@_1IO@CAJLEEOI@?$AAC?$AA?3?$AA?2?$AAA?$AAn?$AAk?$AAa?$AA2?$AAP?$AAr?$AAo?$AAj?$AAe?$AAc?$AAt@
  00163	68 00 00 00 00	 push	 OFFSET ??_C@_1BK@FMEHPMFE@?$AAm?$AAs?$AA_?$AAs?$AAi?$AAn?$AAg?$AAl?$AAe?$AAt?$AAo?$AAn@
  00168	e8 00 00 00 00	 call	 __wassert
  0016d	8b 3d 00 00 00
	00		 mov	 edi, DWORD PTR ?ms_singleton@?$CSingleton@VCPythonPlayer@@@@0PAVCPythonPlayer@@A ; CSingleton<CPythonPlayer>::ms_singleton
  00173	83 c4 0c	 add	 esp, 12			; 0000000cH
$LN27@playerGetI:
; File C:\Anka2Project\Anka2Project\Source\Binary\source\UserInterface\PythonPlayerModule.cpp

; 1295 : 		iPrice = pItemData->GetISellItemPrice() * CPythonPlayer::Instance().GetItemCount(Cell);

  00176	8b 47 04	 mov	 eax, DWORD PTR [edi+4]
  00179	8a 4d fe	 mov	 cl, BYTE PTR _Cell$[ebp+2]
  0017c	66 8b 55 fc	 mov	 dx, WORD PTR _Cell$[ebp]
  00180	51		 push	 ecx
  00181	8b 70 50	 mov	 esi, DWORD PTR [eax+80]
  00184	8b c4		 mov	 eax, esp
  00186	66 89 10	 mov	 WORD PTR [eax], dx
  00189	88 48 02	 mov	 BYTE PTR [eax+2], cl
  0018c	8d 4f 04	 lea	 ecx, DWORD PTR [edi+4]
  0018f	ff d6		 call	 esi
  00191	8b 4d f8	 mov	 ecx, DWORD PTR _pItemData$[ebp]
  00194	8b f0		 mov	 esi, eax
  00196	e8 00 00 00 00	 call	 ?GetISellItemPrice@CItemData@@QBEKXZ ; CItemData::GetISellItemPrice
  0019b	0f af c6	 imul	 eax, esi
$LN12@playerGetI:

; 1296 : 
; 1297 : 	iPrice /= 1;
; 1298 : 	return Py_BuildValue("i", iPrice);

  0019e	50		 push	 eax

; 1299 : }

  0019f	68 00 00 00 00	 push	 OFFSET ??_C@_01KBJDNOO@i@
  001a4	ff 15 00 00 00
	00		 call	 DWORD PTR __imp__Py_BuildValue
  001aa	83 c4 08	 add	 esp, 8
  001ad	5f		 pop	 edi
  001ae	5e		 pop	 esi
  001af	8b e5		 mov	 esp, ebp
  001b1	5d		 pop	 ebp
  001b2	c3		 ret	 0
?playerGetISellItemPrice@@YAPAU_object@@PAU1@0@Z ENDP	; playerGetISellItemPrice
_TEXT	ENDS
; Function compile flags: /Ogtp
; File C:\Anka2Project\Anka2Project\Source\Binary\source\UserInterface\PythonPlayerModule.cpp
; File C:\Anka2Project\Anka2Project\Source\Binary\source\eterBase\Singleton.h
; File C:\Anka2Project\Anka2Project\Source\Binary\source\UserInterface\PythonPlayerModule.cpp
;	COMDAT ?playerGetQuickPage@@YAPAU_object@@PAU1@0@Z
_TEXT	SEGMENT
_poSelf$ = 8						; size = 4
_poArgs$ = 12						; size = 4
?playerGetQuickPage@@YAPAU_object@@PAU1@0@Z PROC	; playerGetQuickPage, COMDAT
; File C:\Anka2Project\Anka2Project\Source\Binary\source\eterBase\Singleton.h

; 26   : 		assert(ms_singleton);

  00000	8b 0d 00 00 00
	00		 mov	 ecx, DWORD PTR ?ms_singleton@?$CSingleton@VCPythonPlayer@@@@0PAVCPythonPlayer@@A ; CSingleton<CPythonPlayer>::ms_singleton
  00006	85 c9		 test	 ecx, ecx
  00008	75 1a		 jne	 SHORT $LN5@playerGetQ
  0000a	6a 1a		 push	 26			; 0000001aH
  0000c	68 00 00 00 00	 push	 OFFSET ??_C@_1IO@CAJLEEOI@?$AAC?$AA?3?$AA?2?$AAA?$AAn?$AAk?$AAa?$AA2?$AAP?$AAr?$AAo?$AAj?$AAe?$AAc?$AAt@
  00011	68 00 00 00 00	 push	 OFFSET ??_C@_1BK@FMEHPMFE@?$AAm?$AAs?$AA_?$AAs?$AAi?$AAn?$AAg?$AAl?$AAe?$AAt?$AAo?$AAn@
  00016	e8 00 00 00 00	 call	 __wassert
  0001b	8b 0d 00 00 00
	00		 mov	 ecx, DWORD PTR ?ms_singleton@?$CSingleton@VCPythonPlayer@@@@0PAVCPythonPlayer@@A ; CSingleton<CPythonPlayer>::ms_singleton
  00021	83 c4 0c	 add	 esp, 12			; 0000000cH
$LN5@playerGetQ:
; File C:\Anka2Project\Anka2Project\Source\Binary\source\UserInterface\PythonPlayerModule.cpp

; 1303 : 	return Py_BuildValue("i", CPythonPlayer::Instance().GetQuickPage());

  00024	e8 00 00 00 00	 call	 ?GetQuickPage@CPythonPlayer@@QAEHXZ ; CPythonPlayer::GetQuickPage
  00029	50		 push	 eax
  0002a	68 00 00 00 00	 push	 OFFSET ??_C@_01KBJDNOO@i@
  0002f	ff 15 00 00 00
	00		 call	 DWORD PTR __imp__Py_BuildValue
  00035	83 c4 08	 add	 esp, 8

; 1304 : }

  00038	c3		 ret	 0
?playerGetQuickPage@@YAPAU_object@@PAU1@0@Z ENDP	; playerGetQuickPage
_TEXT	ENDS
; Function compile flags: /Ogtp
; File C:\Anka2Project\Anka2Project\Source\Binary\source\UserInterface\PythonPlayerModule.cpp
; File C:\Anka2Project\Anka2Project\Source\Binary\source\eterBase\Singleton.h
; File C:\Anka2Project\Anka2Project\Source\Binary\source\UserInterface\PythonPlayerModule.cpp
;	COMDAT ?playerLocalQuickSlotIndexToGlobalQuickSlotIndex@@YAPAU_object@@PAU1@0@Z
_TEXT	SEGMENT
_iLocalSlotIndex$ = -4					; size = 4
_poSelf$ = 8						; size = 4
_poArgs$ = 12						; size = 4
?playerLocalQuickSlotIndexToGlobalQuickSlotIndex@@YAPAU_object@@PAU1@0@Z PROC ; playerLocalQuickSlotIndexToGlobalQuickSlotIndex, COMDAT

; 1317 : {

  00000	55		 push	 ebp
  00001	8b ec		 mov	 ebp, esp
  00003	51		 push	 ecx

; 1318 : 	int iLocalSlotIndex;
; 1319 : 	if (!PyTuple_GetInteger(poArgs, 0, &iLocalSlotIndex))

  00004	8d 45 fc	 lea	 eax, DWORD PTR _iLocalSlotIndex$[ebp]
  00007	50		 push	 eax
  00008	6a 00		 push	 0
  0000a	ff 75 0c	 push	 DWORD PTR _poArgs$[ebp]
  0000d	e8 00 00 00 00	 call	 ?PyTuple_GetInteger@@YA_NPAU_object@@HPAH@Z ; PyTuple_GetInteger
  00012	83 c4 0c	 add	 esp, 12			; 0000000cH
  00015	84 c0		 test	 al, al
  00017	75 0e		 jne	 SHORT $LN2@playerLoca

; 1320 : 		return Py_BuildException();

  00019	6a 00		 push	 0
  0001b	e8 00 00 00 00	 call	 ?Py_BuildException@@YAPAU_object@@PBDZZ ; Py_BuildException
  00020	83 c4 04	 add	 esp, 4

; 1324 : }

  00023	8b e5		 mov	 esp, ebp
  00025	5d		 pop	 ebp
  00026	c3		 ret	 0
$LN2@playerLoca:
; File C:\Anka2Project\Anka2Project\Source\Binary\source\eterBase\Singleton.h

; 26   : 		assert(ms_singleton);

  00027	8b 0d 00 00 00
	00		 mov	 ecx, DWORD PTR ?ms_singleton@?$CSingleton@VCPythonPlayer@@@@0PAVCPythonPlayer@@A ; CSingleton<CPythonPlayer>::ms_singleton
  0002d	85 c9		 test	 ecx, ecx
  0002f	75 1a		 jne	 SHORT $LN6@playerLoca
  00031	6a 1a		 push	 26			; 0000001aH
  00033	68 00 00 00 00	 push	 OFFSET ??_C@_1IO@CAJLEEOI@?$AAC?$AA?3?$AA?2?$AAA?$AAn?$AAk?$AAa?$AA2?$AAP?$AAr?$AAo?$AAj?$AAe?$AAc?$AAt@
  00038	68 00 00 00 00	 push	 OFFSET ??_C@_1BK@FMEHPMFE@?$AAm?$AAs?$AA_?$AAs?$AAi?$AAn?$AAg?$AAl?$AAe?$AAt?$AAo?$AAn@
  0003d	e8 00 00 00 00	 call	 __wassert
  00042	8b 0d 00 00 00
	00		 mov	 ecx, DWORD PTR ?ms_singleton@?$CSingleton@VCPythonPlayer@@@@0PAVCPythonPlayer@@A ; CSingleton<CPythonPlayer>::ms_singleton
  00048	83 c4 0c	 add	 esp, 12			; 0000000cH
$LN6@playerLoca:
; File C:\Anka2Project\Anka2Project\Source\Binary\source\UserInterface\PythonPlayerModule.cpp

; 1323 : 	return Py_BuildValue("i", rkPlayer.LocalQuickSlotIndexToGlobalQuickSlotIndex(iLocalSlotIndex));

  0004b	ff 75 fc	 push	 DWORD PTR _iLocalSlotIndex$[ebp]
  0004e	e8 00 00 00 00	 call	 ?LocalQuickSlotIndexToGlobalQuickSlotIndex@CPythonPlayer@@QAEKK@Z ; CPythonPlayer::LocalQuickSlotIndexToGlobalQuickSlotIndex
  00053	50		 push	 eax
  00054	68 00 00 00 00	 push	 OFFSET ??_C@_01KBJDNOO@i@
  00059	ff 15 00 00 00
	00		 call	 DWORD PTR __imp__Py_BuildValue
  0005f	83 c4 08	 add	 esp, 8

; 1324 : }

  00062	8b e5		 mov	 esp, ebp
  00064	5d		 pop	 ebp
  00065	c3		 ret	 0
?playerLocalQuickSlotIndexToGlobalQuickSlotIndex@@YAPAU_object@@PAU1@0@Z ENDP ; playerLocalQuickSlotIndexToGlobalQuickSlotIndex
_TEXT	ENDS
; Function compile flags: /Ogtp
; File C:\Anka2Project\Anka2Project\Source\Binary\source\UserInterface\PythonPlayerModule.cpp
; File C:\Anka2Project\Anka2Project\Source\Binary\source\eterBase\Singleton.h
; File C:\Anka2Project\Anka2Project\Source\Binary\source\UserInterface\PythonPlayerModule.cpp
;	COMDAT ?playerGetLocalQuickSlot@@YAPAU_object@@PAU1@0@Z
_TEXT	SEGMENT
_dwWndType$ = -12					; size = 4
_dwWndItemPos$ = -8					; size = 4
_iSlotIndex$ = -4					; size = 4
_poSelf$ = 8						; size = 4
_poArgs$ = 12						; size = 4
?playerGetLocalQuickSlot@@YAPAU_object@@PAU1@0@Z PROC	; playerGetLocalQuickSlot, COMDAT

; 1328 : {

  00000	55		 push	 ebp
  00001	8b ec		 mov	 ebp, esp
  00003	83 ec 0c	 sub	 esp, 12			; 0000000cH

; 1329 : 	int iSlotIndex;
; 1330 : 	if (!PyTuple_GetInteger(poArgs, 0, &iSlotIndex))

  00006	8d 45 fc	 lea	 eax, DWORD PTR _iSlotIndex$[ebp]
  00009	50		 push	 eax
  0000a	6a 00		 push	 0
  0000c	ff 75 0c	 push	 DWORD PTR _poArgs$[ebp]
  0000f	e8 00 00 00 00	 call	 ?PyTuple_GetInteger@@YA_NPAU_object@@HPAH@Z ; PyTuple_GetInteger
  00014	83 c4 0c	 add	 esp, 12			; 0000000cH
  00017	84 c0		 test	 al, al
  00019	75 0e		 jne	 SHORT $LN2@playerGetL

; 1331 : 		return Py_BuildException();

  0001b	6a 00		 push	 0
  0001d	e8 00 00 00 00	 call	 ?Py_BuildException@@YAPAU_object@@PBDZZ ; Py_BuildException
  00022	83 c4 04	 add	 esp, 4

; 1340 : }

  00025	8b e5		 mov	 esp, ebp
  00027	5d		 pop	 ebp
  00028	c3		 ret	 0
$LN2@playerGetL:
; File C:\Anka2Project\Anka2Project\Source\Binary\source\eterBase\Singleton.h

; 26   : 		assert(ms_singleton);

  00029	8b 0d 00 00 00
	00		 mov	 ecx, DWORD PTR ?ms_singleton@?$CSingleton@VCPythonPlayer@@@@0PAVCPythonPlayer@@A ; CSingleton<CPythonPlayer>::ms_singleton
  0002f	85 c9		 test	 ecx, ecx
  00031	75 1a		 jne	 SHORT $LN6@playerGetL
  00033	6a 1a		 push	 26			; 0000001aH
  00035	68 00 00 00 00	 push	 OFFSET ??_C@_1IO@CAJLEEOI@?$AAC?$AA?3?$AA?2?$AAA?$AAn?$AAk?$AAa?$AA2?$AAP?$AAr?$AAo?$AAj?$AAe?$AAc?$AAt@
  0003a	68 00 00 00 00	 push	 OFFSET ??_C@_1BK@FMEHPMFE@?$AAm?$AAs?$AA_?$AAs?$AAi?$AAn?$AAg?$AAl?$AAe?$AAt?$AAo?$AAn@
  0003f	e8 00 00 00 00	 call	 __wassert
  00044	8b 0d 00 00 00
	00		 mov	 ecx, DWORD PTR ?ms_singleton@?$CSingleton@VCPythonPlayer@@@@0PAVCPythonPlayer@@A ; CSingleton<CPythonPlayer>::ms_singleton
  0004a	83 c4 0c	 add	 esp, 12			; 0000000cH
$LN6@playerGetL:
; File C:\Anka2Project\Anka2Project\Source\Binary\source\UserInterface\PythonPlayerModule.cpp

; 1337 : 	rkPlayer.GetLocalQuickSlotData(iSlotIndex, &dwWndType, &dwWndItemPos);

  0004d	8d 45 f8	 lea	 eax, DWORD PTR _dwWndItemPos$[ebp]
  00050	50		 push	 eax
  00051	8d 45 f4	 lea	 eax, DWORD PTR _dwWndType$[ebp]
  00054	50		 push	 eax
  00055	ff 75 fc	 push	 DWORD PTR _iSlotIndex$[ebp]
  00058	e8 00 00 00 00	 call	 ?GetLocalQuickSlotData@CPythonPlayer@@QAEXKPAK0@Z ; CPythonPlayer::GetLocalQuickSlotData

; 1338 : 
; 1339 : 	return Py_BuildValue("ii", dwWndType, dwWndItemPos);

  0005d	ff 75 f8	 push	 DWORD PTR _dwWndItemPos$[ebp]
  00060	ff 75 f4	 push	 DWORD PTR _dwWndType$[ebp]
  00063	68 00 00 00 00	 push	 OFFSET ??_C@_02PDIHAGKM@ii@
  00068	ff 15 00 00 00
	00		 call	 DWORD PTR __imp__Py_BuildValue
  0006e	83 c4 0c	 add	 esp, 12			; 0000000cH

; 1340 : }

  00071	8b e5		 mov	 esp, ebp
  00073	5d		 pop	 ebp
  00074	c3		 ret	 0
?playerGetLocalQuickSlot@@YAPAU_object@@PAU1@0@Z ENDP	; playerGetLocalQuickSlot
_TEXT	ENDS
; Function compile flags: /Ogtp
; File C:\Anka2Project\Anka2Project\Source\Binary\source\UserInterface\PythonPlayerModule.cpp
; File C:\Anka2Project\Anka2Project\Source\Binary\source\eterBase\Singleton.h
; File C:\Anka2Project\Anka2Project\Source\Binary\source\UserInterface\PythonPlayerModule.cpp
;	COMDAT ?playerGetGlobalQuickSlot@@YAPAU_object@@PAU1@0@Z
_TEXT	SEGMENT
_dwWndType$ = -12					; size = 4
_dwWndItemPos$ = -8					; size = 4
_iSlotIndex$ = -4					; size = 4
_poSelf$ = 8						; size = 4
_poArgs$ = 12						; size = 4
?playerGetGlobalQuickSlot@@YAPAU_object@@PAU1@0@Z PROC	; playerGetGlobalQuickSlot, COMDAT

; 1343 : {

  00000	55		 push	 ebp
  00001	8b ec		 mov	 ebp, esp
  00003	83 ec 0c	 sub	 esp, 12			; 0000000cH

; 1344 : 	int iSlotIndex;
; 1345 : 	if (!PyTuple_GetInteger(poArgs, 0, &iSlotIndex))

  00006	8d 45 fc	 lea	 eax, DWORD PTR _iSlotIndex$[ebp]
  00009	50		 push	 eax
  0000a	6a 00		 push	 0
  0000c	ff 75 0c	 push	 DWORD PTR _poArgs$[ebp]
  0000f	e8 00 00 00 00	 call	 ?PyTuple_GetInteger@@YA_NPAU_object@@HPAH@Z ; PyTuple_GetInteger
  00014	83 c4 0c	 add	 esp, 12			; 0000000cH
  00017	84 c0		 test	 al, al
  00019	75 0e		 jne	 SHORT $LN2@playerGetG

; 1346 : 		return Py_BuildException();

  0001b	6a 00		 push	 0
  0001d	e8 00 00 00 00	 call	 ?Py_BuildException@@YAPAU_object@@PBDZZ ; Py_BuildException
  00022	83 c4 04	 add	 esp, 4

; 1355 : }

  00025	8b e5		 mov	 esp, ebp
  00027	5d		 pop	 ebp
  00028	c3		 ret	 0
$LN2@playerGetG:
; File C:\Anka2Project\Anka2Project\Source\Binary\source\eterBase\Singleton.h

; 26   : 		assert(ms_singleton);

  00029	8b 0d 00 00 00
	00		 mov	 ecx, DWORD PTR ?ms_singleton@?$CSingleton@VCPythonPlayer@@@@0PAVCPythonPlayer@@A ; CSingleton<CPythonPlayer>::ms_singleton
  0002f	85 c9		 test	 ecx, ecx
  00031	75 1a		 jne	 SHORT $LN6@playerGetG
  00033	6a 1a		 push	 26			; 0000001aH
  00035	68 00 00 00 00	 push	 OFFSET ??_C@_1IO@CAJLEEOI@?$AAC?$AA?3?$AA?2?$AAA?$AAn?$AAk?$AAa?$AA2?$AAP?$AAr?$AAo?$AAj?$AAe?$AAc?$AAt@
  0003a	68 00 00 00 00	 push	 OFFSET ??_C@_1BK@FMEHPMFE@?$AAm?$AAs?$AA_?$AAs?$AAi?$AAn?$AAg?$AAl?$AAe?$AAt?$AAo?$AAn@
  0003f	e8 00 00 00 00	 call	 __wassert
  00044	8b 0d 00 00 00
	00		 mov	 ecx, DWORD PTR ?ms_singleton@?$CSingleton@VCPythonPlayer@@@@0PAVCPythonPlayer@@A ; CSingleton<CPythonPlayer>::ms_singleton
  0004a	83 c4 0c	 add	 esp, 12			; 0000000cH
$LN6@playerGetG:
; File C:\Anka2Project\Anka2Project\Source\Binary\source\UserInterface\PythonPlayerModule.cpp

; 1352 : 	rkPlayer.GetGlobalQuickSlotData(iSlotIndex, &dwWndType, &dwWndItemPos);

  0004d	8d 45 f8	 lea	 eax, DWORD PTR _dwWndItemPos$[ebp]
  00050	50		 push	 eax
  00051	8d 45 f4	 lea	 eax, DWORD PTR _dwWndType$[ebp]
  00054	50		 push	 eax
  00055	ff 75 fc	 push	 DWORD PTR _iSlotIndex$[ebp]
  00058	e8 00 00 00 00	 call	 ?GetGlobalQuickSlotData@CPythonPlayer@@QAEXKPAK0@Z ; CPythonPlayer::GetGlobalQuickSlotData

; 1353 : 
; 1354 : 	return Py_BuildValue("ii", dwWndType, dwWndItemPos);

  0005d	ff 75 f8	 push	 DWORD PTR _dwWndItemPos$[ebp]
  00060	ff 75 f4	 push	 DWORD PTR _dwWndType$[ebp]
  00063	68 00 00 00 00	 push	 OFFSET ??_C@_02PDIHAGKM@ii@
  00068	ff 15 00 00 00
	00		 call	 DWORD PTR __imp__Py_BuildValue
  0006e	83 c4 0c	 add	 esp, 12			; 0000000cH

; 1355 : }

  00071	8b e5		 mov	 esp, ebp
  00073	5d		 pop	 ebp
  00074	c3		 ret	 0
?playerGetGlobalQuickSlot@@YAPAU_object@@PAU1@0@Z ENDP	; playerGetGlobalQuickSlot
_TEXT	ENDS
; Function compile flags: /Ogtp
; File C:\Anka2Project\Anka2Project\Source\Binary\source\UserInterface\PythonPlayerModule.cpp
; File C:\Anka2Project\Anka2Project\Source\Binary\source\eterBase\Singleton.h
; File C:\Anka2Project\Anka2Project\Source\Binary\source\UserInterface\PythonPlayerModule.cpp
;	COMDAT ?playerisItem@@YAPAU_object@@PAU1@0@Z
_TEXT	SEGMENT
_iSlotIndex$ = -8					; size = 4
$T4 = -4						; size = 3
_poSelf$ = 8						; size = 4
_poArgs$ = 12						; size = 4
?playerisItem@@YAPAU_object@@PAU1@0@Z PROC		; playerisItem, COMDAT

; 1449 : {

  00000	55		 push	 ebp
  00001	8b ec		 mov	 ebp, esp
  00003	83 ec 08	 sub	 esp, 8

; 1450 : 	int iSlotIndex;
; 1451 : 	if (!PyTuple_GetInteger(poArgs, 0, &iSlotIndex))

  00006	8d 45 f8	 lea	 eax, DWORD PTR _iSlotIndex$[ebp]
  00009	50		 push	 eax
  0000a	6a 00		 push	 0
  0000c	ff 75 0c	 push	 DWORD PTR _poArgs$[ebp]
  0000f	e8 00 00 00 00	 call	 ?PyTuple_GetInteger@@YA_NPAU_object@@HPAH@Z ; PyTuple_GetInteger
  00014	83 c4 0c	 add	 esp, 12			; 0000000cH
  00017	84 c0		 test	 al, al
  00019	75 0e		 jne	 SHORT $LN2@playerisIt

; 1452 : 		return Py_BuildException();

  0001b	6a 00		 push	 0
  0001d	e8 00 00 00 00	 call	 ?Py_BuildException@@YAPAU_object@@PBDZZ ; Py_BuildException
  00022	83 c4 04	 add	 esp, 4

; 1457 : }

  00025	8b e5		 mov	 esp, ebp
  00027	5d		 pop	 ebp
  00028	c3		 ret	 0
$LN2@playerisIt:
; File C:\Anka2Project\Anka2Project\Source\Binary\source\eterBase\Singleton.h

; 26   : 		assert(ms_singleton);

  00029	8b 0d 00 00 00
	00		 mov	 ecx, DWORD PTR ?ms_singleton@?$CSingleton@VCPythonPlayer@@@@0PAVCPythonPlayer@@A ; CSingleton<CPythonPlayer>::ms_singleton
  0002f	85 c9		 test	 ecx, ecx
  00031	75 1a		 jne	 SHORT $LN6@playerisIt
  00033	6a 1a		 push	 26			; 0000001aH
  00035	68 00 00 00 00	 push	 OFFSET ??_C@_1IO@CAJLEEOI@?$AAC?$AA?3?$AA?2?$AAA?$AAn?$AAk?$AAa?$AA2?$AAP?$AAr?$AAo?$AAj?$AAe?$AAc?$AAt@
  0003a	68 00 00 00 00	 push	 OFFSET ??_C@_1BK@FMEHPMFE@?$AAm?$AAs?$AA_?$AAs?$AAi?$AAn?$AAg?$AAl?$AAe?$AAt?$AAo?$AAn@
  0003f	e8 00 00 00 00	 call	 __wassert
  00044	8b 0d 00 00 00
	00		 mov	 ecx, DWORD PTR ?ms_singleton@?$CSingleton@VCPythonPlayer@@@@0PAVCPythonPlayer@@A ; CSingleton<CPythonPlayer>::ms_singleton
  0004a	83 c4 0c	 add	 esp, 12			; 0000000cH
$LN6@playerisIt:
; File C:\Anka2Project\Anka2Project\Source\Binary\source\UserInterface\PythonPlayerModule.cpp

; 1454 : 	char Flag = CPythonPlayer::Instance().IsItem(TItemPos(INVENTORY, iSlotIndex));

  0004d	0f b7 45 f8	 movzx	 eax, WORD PTR _iSlotIndex$[ebp]
  00051	51		 push	 ecx
  00052	8b d4		 mov	 edx, esp
  00054	66 89 45 fd	 mov	 WORD PTR $T4[ebp+1], ax
  00058	c6 45 fc 01	 mov	 BYTE PTR $T4[ebp], 1
  0005c	0f b7 45 fc	 movzx	 eax, WORD PTR $T4[ebp]
  00060	66 89 02	 mov	 WORD PTR [edx], ax
  00063	8a 45 fe	 mov	 al, BYTE PTR $T4[ebp+2]
  00066	88 42 02	 mov	 BYTE PTR [edx+2], al
  00069	e8 00 00 00 00	 call	 ?IsItem@CPythonPlayer@@QAEDUSItemPos@@@Z ; CPythonPlayer::IsItem

; 1455 : 
; 1456 : 	return Py_BuildValue("i", Flag);

  0006e	0f be c0	 movsx	 eax, al
  00071	50		 push	 eax
  00072	68 00 00 00 00	 push	 OFFSET ??_C@_01KBJDNOO@i@
  00077	ff 15 00 00 00
	00		 call	 DWORD PTR __imp__Py_BuildValue
  0007d	83 c4 08	 add	 esp, 8

; 1457 : }

  00080	8b e5		 mov	 esp, ebp
  00082	5d		 pop	 ebp
  00083	c3		 ret	 0
?playerisItem@@YAPAU_object@@PAU1@0@Z ENDP		; playerisItem
_TEXT	ENDS
; Function compile flags: /Ogtp
; File C:\Anka2Project\Anka2Project\Source\Binary\source\UserInterface\PythonPlayerModule.cpp
; File C:\Anka2Project\Anka2Project\Source\Binary\source\eterBase\Singleton.h
; File C:\Anka2Project\Anka2Project\Source\Binary\source\UserInterface\PythonPlayerModule.cpp
;	COMDAT ?playerIsBeltInventorySlot@@YAPAU_object@@PAU1@0@Z
_TEXT	SEGMENT
_iSlotIndex$ = -8					; size = 4
$T4 = -4						; size = 3
_poSelf$ = 8						; size = 4
_poArgs$ = 12						; size = 4
?playerIsBeltInventorySlot@@YAPAU_object@@PAU1@0@Z PROC	; playerIsBeltInventorySlot, COMDAT

; 1461 : {

  00000	55		 push	 ebp
  00001	8b ec		 mov	 ebp, esp
  00003	83 ec 08	 sub	 esp, 8

; 1462 : 	int iSlotIndex;
; 1463 : 	if (!PyTuple_GetInteger(poArgs, 0, &iSlotIndex))

  00006	8d 45 f8	 lea	 eax, DWORD PTR _iSlotIndex$[ebp]
  00009	50		 push	 eax
  0000a	6a 00		 push	 0
  0000c	ff 75 0c	 push	 DWORD PTR _poArgs$[ebp]
  0000f	e8 00 00 00 00	 call	 ?PyTuple_GetInteger@@YA_NPAU_object@@HPAH@Z ; PyTuple_GetInteger
  00014	83 c4 0c	 add	 esp, 12			; 0000000cH
  00017	84 c0		 test	 al, al
  00019	75 0e		 jne	 SHORT $LN2@playerIsBe

; 1464 : 		return Py_BuildException();

  0001b	6a 00		 push	 0
  0001d	e8 00 00 00 00	 call	 ?Py_BuildException@@YAPAU_object@@PBDZZ ; Py_BuildException
  00022	83 c4 04	 add	 esp, 4

; 1469 : }

  00025	8b e5		 mov	 esp, ebp
  00027	5d		 pop	 ebp
  00028	c3		 ret	 0
$LN2@playerIsBe:
; File C:\Anka2Project\Anka2Project\Source\Binary\source\eterBase\Singleton.h

; 26   : 		assert(ms_singleton);

  00029	83 3d 00 00 00
	00 00		 cmp	 DWORD PTR ?ms_singleton@?$CSingleton@VCPythonPlayer@@@@0PAVCPythonPlayer@@A, 0 ; CSingleton<CPythonPlayer>::ms_singleton
  00030	75 14		 jne	 SHORT $LN6@playerIsBe
  00032	6a 1a		 push	 26			; 0000001aH
  00034	68 00 00 00 00	 push	 OFFSET ??_C@_1IO@CAJLEEOI@?$AAC?$AA?3?$AA?2?$AAA?$AAn?$AAk?$AAa?$AA2?$AAP?$AAr?$AAo?$AAj?$AAe?$AAc?$AAt@
  00039	68 00 00 00 00	 push	 OFFSET ??_C@_1BK@FMEHPMFE@?$AAm?$AAs?$AA_?$AAs?$AAi?$AAn?$AAg?$AAl?$AAe?$AAt?$AAo?$AAn@
  0003e	e8 00 00 00 00	 call	 __wassert
  00043	83 c4 0c	 add	 esp, 12			; 0000000cH
$LN6@playerIsBe:
; File C:\Anka2Project\Anka2Project\Source\Binary\source\UserInterface\PythonPlayerModule.cpp

; 1466 : 	char Flag = CPythonPlayer::Instance().IsBeltInventorySlot(TItemPos(INVENTORY, iSlotIndex));

  00046	0f b7 45 f8	 movzx	 eax, WORD PTR _iSlotIndex$[ebp]
  0004a	51		 push	 ecx
  0004b	8b cc		 mov	 ecx, esp
  0004d	66 89 45 fd	 mov	 WORD PTR $T4[ebp+1], ax
  00051	c6 45 fc 01	 mov	 BYTE PTR $T4[ebp], 1
  00055	0f b7 45 fc	 movzx	 eax, WORD PTR $T4[ebp]
  00059	66 89 01	 mov	 WORD PTR [ecx], ax
  0005c	8a 45 fe	 mov	 al, BYTE PTR $T4[ebp+2]
  0005f	88 41 02	 mov	 BYTE PTR [ecx+2], al
  00062	e8 00 00 00 00	 call	 ?IsBeltInventorySlot@CPythonPlayer@@QAE_NUSItemPos@@@Z ; CPythonPlayer::IsBeltInventorySlot

; 1467 : 
; 1468 : 	return Py_BuildValue("i", Flag);

  00067	0f b6 c0	 movzx	 eax, al
  0006a	50		 push	 eax
  0006b	68 00 00 00 00	 push	 OFFSET ??_C@_01KBJDNOO@i@
  00070	ff 15 00 00 00
	00		 call	 DWORD PTR __imp__Py_BuildValue
  00076	83 c4 08	 add	 esp, 8

; 1469 : }

  00079	8b e5		 mov	 esp, ebp
  0007b	5d		 pop	 ebp
  0007c	c3		 ret	 0
?playerIsBeltInventorySlot@@YAPAU_object@@PAU1@0@Z ENDP	; playerIsBeltInventorySlot
_TEXT	ENDS
; Function compile flags: /Ogtp
; File C:\Anka2Project\Anka2Project\Source\Binary\source\UserInterface\PythonPlayerModule.cpp
; File C:\Anka2Project\Anka2Project\Source\Binary\source\eterBase\Singleton.h
; File C:\Anka2Project\Anka2Project\Source\Binary\source\UserInterface\PythonPlayerModule.cpp
;	COMDAT ?playerIsSkillBookInventorySlot@@YAPAU_object@@PAU1@0@Z
_TEXT	SEGMENT
_iSlotIndex$ = -8					; size = 4
$T4 = -4						; size = 3
_poSelf$ = 8						; size = 4
_poArgs$ = 12						; size = 4
?playerIsSkillBookInventorySlot@@YAPAU_object@@PAU1@0@Z PROC ; playerIsSkillBookInventorySlot, COMDAT

; 1474 : {

  00000	55		 push	 ebp
  00001	8b ec		 mov	 ebp, esp
  00003	83 ec 08	 sub	 esp, 8

; 1475 : 	int iSlotIndex;
; 1476 : 	if (!PyTuple_GetInteger(poArgs, 0, &iSlotIndex))

  00006	8d 45 f8	 lea	 eax, DWORD PTR _iSlotIndex$[ebp]
  00009	50		 push	 eax
  0000a	6a 00		 push	 0
  0000c	ff 75 0c	 push	 DWORD PTR _poArgs$[ebp]
  0000f	e8 00 00 00 00	 call	 ?PyTuple_GetInteger@@YA_NPAU_object@@HPAH@Z ; PyTuple_GetInteger
  00014	83 c4 0c	 add	 esp, 12			; 0000000cH
  00017	84 c0		 test	 al, al
  00019	75 0e		 jne	 SHORT $LN2@playerIsSk

; 1477 : 		return Py_BuildException();

  0001b	6a 00		 push	 0
  0001d	e8 00 00 00 00	 call	 ?Py_BuildException@@YAPAU_object@@PBDZZ ; Py_BuildException
  00022	83 c4 04	 add	 esp, 4

; 1482 : }

  00025	8b e5		 mov	 esp, ebp
  00027	5d		 pop	 ebp
  00028	c3		 ret	 0
$LN2@playerIsSk:
; File C:\Anka2Project\Anka2Project\Source\Binary\source\eterBase\Singleton.h

; 26   : 		assert(ms_singleton);

  00029	83 3d 00 00 00
	00 00		 cmp	 DWORD PTR ?ms_singleton@?$CSingleton@VCPythonPlayer@@@@0PAVCPythonPlayer@@A, 0 ; CSingleton<CPythonPlayer>::ms_singleton
  00030	75 14		 jne	 SHORT $LN6@playerIsSk
  00032	6a 1a		 push	 26			; 0000001aH
  00034	68 00 00 00 00	 push	 OFFSET ??_C@_1IO@CAJLEEOI@?$AAC?$AA?3?$AA?2?$AAA?$AAn?$AAk?$AAa?$AA2?$AAP?$AAr?$AAo?$AAj?$AAe?$AAc?$AAt@
  00039	68 00 00 00 00	 push	 OFFSET ??_C@_1BK@FMEHPMFE@?$AAm?$AAs?$AA_?$AAs?$AAi?$AAn?$AAg?$AAl?$AAe?$AAt?$AAo?$AAn@
  0003e	e8 00 00 00 00	 call	 __wassert
  00043	83 c4 0c	 add	 esp, 12			; 0000000cH
$LN6@playerIsSk:
; File C:\Anka2Project\Anka2Project\Source\Binary\source\UserInterface\PythonPlayerModule.cpp

; 1479 : 	char Flag = CPythonPlayer::Instance().IsSkillBookInventorySlot(TItemPos(INVENTORY, iSlotIndex));

  00046	0f b7 45 f8	 movzx	 eax, WORD PTR _iSlotIndex$[ebp]
  0004a	51		 push	 ecx
  0004b	8b cc		 mov	 ecx, esp
  0004d	66 89 45 fd	 mov	 WORD PTR $T4[ebp+1], ax
  00051	c6 45 fc 01	 mov	 BYTE PTR $T4[ebp], 1
  00055	0f b7 45 fc	 movzx	 eax, WORD PTR $T4[ebp]
  00059	66 89 01	 mov	 WORD PTR [ecx], ax
  0005c	8a 45 fe	 mov	 al, BYTE PTR $T4[ebp+2]
  0005f	88 41 02	 mov	 BYTE PTR [ecx+2], al
  00062	e8 00 00 00 00	 call	 ?IsSkillBookInventorySlot@CPythonPlayer@@QAE_NUSItemPos@@@Z ; CPythonPlayer::IsSkillBookInventorySlot

; 1480 : 
; 1481 : 	return Py_BuildValue("i", Flag);

  00067	0f b6 c0	 movzx	 eax, al
  0006a	50		 push	 eax
  0006b	68 00 00 00 00	 push	 OFFSET ??_C@_01KBJDNOO@i@
  00070	ff 15 00 00 00
	00		 call	 DWORD PTR __imp__Py_BuildValue
  00076	83 c4 08	 add	 esp, 8

; 1482 : }

  00079	8b e5		 mov	 esp, ebp
  0007b	5d		 pop	 ebp
  0007c	c3		 ret	 0
?playerIsSkillBookInventorySlot@@YAPAU_object@@PAU1@0@Z ENDP ; playerIsSkillBookInventorySlot
_TEXT	ENDS
; Function compile flags: /Ogtp
; File C:\Anka2Project\Anka2Project\Source\Binary\source\UserInterface\PythonPlayerModule.cpp
; File C:\Anka2Project\Anka2Project\Source\Binary\source\eterBase\Singleton.h
; File C:\Anka2Project\Anka2Project\Source\Binary\source\UserInterface\PythonPlayerModule.cpp
;	COMDAT ?playerIsUpgradeItemsInventorySlot@@YAPAU_object@@PAU1@0@Z
_TEXT	SEGMENT
_iSlotIndex$ = -8					; size = 4
$T4 = -4						; size = 3
_poSelf$ = 8						; size = 4
_poArgs$ = 12						; size = 4
?playerIsUpgradeItemsInventorySlot@@YAPAU_object@@PAU1@0@Z PROC ; playerIsUpgradeItemsInventorySlot, COMDAT

; 1485 : {

  00000	55		 push	 ebp
  00001	8b ec		 mov	 ebp, esp
  00003	83 ec 08	 sub	 esp, 8

; 1486 : 	int iSlotIndex;
; 1487 : 	if (!PyTuple_GetInteger(poArgs, 0, &iSlotIndex))

  00006	8d 45 f8	 lea	 eax, DWORD PTR _iSlotIndex$[ebp]
  00009	50		 push	 eax
  0000a	6a 00		 push	 0
  0000c	ff 75 0c	 push	 DWORD PTR _poArgs$[ebp]
  0000f	e8 00 00 00 00	 call	 ?PyTuple_GetInteger@@YA_NPAU_object@@HPAH@Z ; PyTuple_GetInteger
  00014	83 c4 0c	 add	 esp, 12			; 0000000cH
  00017	84 c0		 test	 al, al
  00019	75 0e		 jne	 SHORT $LN2@playerIsUp

; 1488 : 		return Py_BuildException();

  0001b	6a 00		 push	 0
  0001d	e8 00 00 00 00	 call	 ?Py_BuildException@@YAPAU_object@@PBDZZ ; Py_BuildException
  00022	83 c4 04	 add	 esp, 4

; 1493 : }

  00025	8b e5		 mov	 esp, ebp
  00027	5d		 pop	 ebp
  00028	c3		 ret	 0
$LN2@playerIsUp:
; File C:\Anka2Project\Anka2Project\Source\Binary\source\eterBase\Singleton.h

; 26   : 		assert(ms_singleton);

  00029	83 3d 00 00 00
	00 00		 cmp	 DWORD PTR ?ms_singleton@?$CSingleton@VCPythonPlayer@@@@0PAVCPythonPlayer@@A, 0 ; CSingleton<CPythonPlayer>::ms_singleton
  00030	75 14		 jne	 SHORT $LN6@playerIsUp
  00032	6a 1a		 push	 26			; 0000001aH
  00034	68 00 00 00 00	 push	 OFFSET ??_C@_1IO@CAJLEEOI@?$AAC?$AA?3?$AA?2?$AAA?$AAn?$AAk?$AAa?$AA2?$AAP?$AAr?$AAo?$AAj?$AAe?$AAc?$AAt@
  00039	68 00 00 00 00	 push	 OFFSET ??_C@_1BK@FMEHPMFE@?$AAm?$AAs?$AA_?$AAs?$AAi?$AAn?$AAg?$AAl?$AAe?$AAt?$AAo?$AAn@
  0003e	e8 00 00 00 00	 call	 __wassert
  00043	83 c4 0c	 add	 esp, 12			; 0000000cH
$LN6@playerIsUp:
; File C:\Anka2Project\Anka2Project\Source\Binary\source\UserInterface\PythonPlayerModule.cpp

; 1490 : 	char Flag = CPythonPlayer::Instance().IsUpgradeItemsInventorySlot(TItemPos(INVENTORY, iSlotIndex));

  00046	0f b7 45 f8	 movzx	 eax, WORD PTR _iSlotIndex$[ebp]
  0004a	51		 push	 ecx
  0004b	8b cc		 mov	 ecx, esp
  0004d	66 89 45 fd	 mov	 WORD PTR $T4[ebp+1], ax
  00051	c6 45 fc 01	 mov	 BYTE PTR $T4[ebp], 1
  00055	0f b7 45 fc	 movzx	 eax, WORD PTR $T4[ebp]
  00059	66 89 01	 mov	 WORD PTR [ecx], ax
  0005c	8a 45 fe	 mov	 al, BYTE PTR $T4[ebp+2]
  0005f	88 41 02	 mov	 BYTE PTR [ecx+2], al
  00062	e8 00 00 00 00	 call	 ?IsUpgradeItemsInventorySlot@CPythonPlayer@@QAE_NUSItemPos@@@Z ; CPythonPlayer::IsUpgradeItemsInventorySlot

; 1491 : 
; 1492 : 	return Py_BuildValue("i", Flag);

  00067	0f b6 c0	 movzx	 eax, al
  0006a	50		 push	 eax
  0006b	68 00 00 00 00	 push	 OFFSET ??_C@_01KBJDNOO@i@
  00070	ff 15 00 00 00
	00		 call	 DWORD PTR __imp__Py_BuildValue
  00076	83 c4 08	 add	 esp, 8

; 1493 : }

  00079	8b e5		 mov	 esp, ebp
  0007b	5d		 pop	 ebp
  0007c	c3		 ret	 0
?playerIsUpgradeItemsInventorySlot@@YAPAU_object@@PAU1@0@Z ENDP ; playerIsUpgradeItemsInventorySlot
_TEXT	ENDS
; Function compile flags: /Ogtp
; File C:\Anka2Project\Anka2Project\Source\Binary\source\UserInterface\PythonPlayerModule.cpp
; File C:\Anka2Project\Anka2Project\Source\Binary\source\eterBase\Singleton.h
; File C:\Anka2Project\Anka2Project\Source\Binary\source\UserInterface\PythonPlayerModule.cpp
;	COMDAT ?playerIsStoneInventorySlot@@YAPAU_object@@PAU1@0@Z
_TEXT	SEGMENT
_iSlotIndex$ = -8					; size = 4
$T4 = -4						; size = 3
_poSelf$ = 8						; size = 4
_poArgs$ = 12						; size = 4
?playerIsStoneInventorySlot@@YAPAU_object@@PAU1@0@Z PROC ; playerIsStoneInventorySlot, COMDAT

; 1496 : {

  00000	55		 push	 ebp
  00001	8b ec		 mov	 ebp, esp
  00003	83 ec 08	 sub	 esp, 8

; 1497 : 	int iSlotIndex;
; 1498 : 	if (!PyTuple_GetInteger(poArgs, 0, &iSlotIndex))

  00006	8d 45 f8	 lea	 eax, DWORD PTR _iSlotIndex$[ebp]
  00009	50		 push	 eax
  0000a	6a 00		 push	 0
  0000c	ff 75 0c	 push	 DWORD PTR _poArgs$[ebp]
  0000f	e8 00 00 00 00	 call	 ?PyTuple_GetInteger@@YA_NPAU_object@@HPAH@Z ; PyTuple_GetInteger
  00014	83 c4 0c	 add	 esp, 12			; 0000000cH
  00017	84 c0		 test	 al, al
  00019	75 0e		 jne	 SHORT $LN2@playerIsSt

; 1499 : 		return Py_BuildException();

  0001b	6a 00		 push	 0
  0001d	e8 00 00 00 00	 call	 ?Py_BuildException@@YAPAU_object@@PBDZZ ; Py_BuildException
  00022	83 c4 04	 add	 esp, 4

; 1504 : }

  00025	8b e5		 mov	 esp, ebp
  00027	5d		 pop	 ebp
  00028	c3		 ret	 0
$LN2@playerIsSt:
; File C:\Anka2Project\Anka2Project\Source\Binary\source\eterBase\Singleton.h

; 26   : 		assert(ms_singleton);

  00029	83 3d 00 00 00
	00 00		 cmp	 DWORD PTR ?ms_singleton@?$CSingleton@VCPythonPlayer@@@@0PAVCPythonPlayer@@A, 0 ; CSingleton<CPythonPlayer>::ms_singleton
  00030	75 14		 jne	 SHORT $LN6@playerIsSt
  00032	6a 1a		 push	 26			; 0000001aH
  00034	68 00 00 00 00	 push	 OFFSET ??_C@_1IO@CAJLEEOI@?$AAC?$AA?3?$AA?2?$AAA?$AAn?$AAk?$AAa?$AA2?$AAP?$AAr?$AAo?$AAj?$AAe?$AAc?$AAt@
  00039	68 00 00 00 00	 push	 OFFSET ??_C@_1BK@FMEHPMFE@?$AAm?$AAs?$AA_?$AAs?$AAi?$AAn?$AAg?$AAl?$AAe?$AAt?$AAo?$AAn@
  0003e	e8 00 00 00 00	 call	 __wassert
  00043	83 c4 0c	 add	 esp, 12			; 0000000cH
$LN6@playerIsSt:
; File C:\Anka2Project\Anka2Project\Source\Binary\source\UserInterface\PythonPlayerModule.cpp

; 1501 : 	char Flag = CPythonPlayer::Instance().IsStoneInventorySlot(TItemPos(INVENTORY, iSlotIndex));

  00046	0f b7 45 f8	 movzx	 eax, WORD PTR _iSlotIndex$[ebp]
  0004a	51		 push	 ecx
  0004b	8b cc		 mov	 ecx, esp
  0004d	66 89 45 fd	 mov	 WORD PTR $T4[ebp+1], ax
  00051	c6 45 fc 01	 mov	 BYTE PTR $T4[ebp], 1
  00055	0f b7 45 fc	 movzx	 eax, WORD PTR $T4[ebp]
  00059	66 89 01	 mov	 WORD PTR [ecx], ax
  0005c	8a 45 fe	 mov	 al, BYTE PTR $T4[ebp+2]
  0005f	88 41 02	 mov	 BYTE PTR [ecx+2], al
  00062	e8 00 00 00 00	 call	 ?IsStoneInventorySlot@CPythonPlayer@@QAE_NUSItemPos@@@Z ; CPythonPlayer::IsStoneInventorySlot

; 1502 : 
; 1503 : 	return Py_BuildValue("i", Flag);

  00067	0f b6 c0	 movzx	 eax, al
  0006a	50		 push	 eax
  0006b	68 00 00 00 00	 push	 OFFSET ??_C@_01KBJDNOO@i@
  00070	ff 15 00 00 00
	00		 call	 DWORD PTR __imp__Py_BuildValue
  00076	83 c4 08	 add	 esp, 8

; 1504 : }

  00079	8b e5		 mov	 esp, ebp
  0007b	5d		 pop	 ebp
  0007c	c3		 ret	 0
?playerIsStoneInventorySlot@@YAPAU_object@@PAU1@0@Z ENDP ; playerIsStoneInventorySlot
_TEXT	ENDS
; Function compile flags: /Ogtp
; File C:\Anka2Project\Anka2Project\Source\Binary\source\UserInterface\PythonPlayerModule.cpp
; File C:\Anka2Project\Anka2Project\Source\Binary\source\eterBase\Singleton.h
; File C:\Anka2Project\Anka2Project\Source\Binary\source\UserInterface\PythonPlayerModule.cpp
;	COMDAT ?playerIsGiftBoxInventorySlot@@YAPAU_object@@PAU1@0@Z
_TEXT	SEGMENT
_iSlotIndex$ = -8					; size = 4
$T4 = -4						; size = 3
_poSelf$ = 8						; size = 4
_poArgs$ = 12						; size = 4
?playerIsGiftBoxInventorySlot@@YAPAU_object@@PAU1@0@Z PROC ; playerIsGiftBoxInventorySlot, COMDAT

; 1507 : {

  00000	55		 push	 ebp
  00001	8b ec		 mov	 ebp, esp
  00003	83 ec 08	 sub	 esp, 8

; 1508 : 	int iSlotIndex;
; 1509 : 	if (!PyTuple_GetInteger(poArgs, 0, &iSlotIndex))

  00006	8d 45 f8	 lea	 eax, DWORD PTR _iSlotIndex$[ebp]
  00009	50		 push	 eax
  0000a	6a 00		 push	 0
  0000c	ff 75 0c	 push	 DWORD PTR _poArgs$[ebp]
  0000f	e8 00 00 00 00	 call	 ?PyTuple_GetInteger@@YA_NPAU_object@@HPAH@Z ; PyTuple_GetInteger
  00014	83 c4 0c	 add	 esp, 12			; 0000000cH
  00017	84 c0		 test	 al, al
  00019	75 0e		 jne	 SHORT $LN2@playerIsGi

; 1510 : 		return Py_BuildException();

  0001b	6a 00		 push	 0
  0001d	e8 00 00 00 00	 call	 ?Py_BuildException@@YAPAU_object@@PBDZZ ; Py_BuildException
  00022	83 c4 04	 add	 esp, 4

; 1515 : }

  00025	8b e5		 mov	 esp, ebp
  00027	5d		 pop	 ebp
  00028	c3		 ret	 0
$LN2@playerIsGi:
; File C:\Anka2Project\Anka2Project\Source\Binary\source\eterBase\Singleton.h

; 26   : 		assert(ms_singleton);

  00029	83 3d 00 00 00
	00 00		 cmp	 DWORD PTR ?ms_singleton@?$CSingleton@VCPythonPlayer@@@@0PAVCPythonPlayer@@A, 0 ; CSingleton<CPythonPlayer>::ms_singleton
  00030	75 14		 jne	 SHORT $LN6@playerIsGi
  00032	6a 1a		 push	 26			; 0000001aH
  00034	68 00 00 00 00	 push	 OFFSET ??_C@_1IO@CAJLEEOI@?$AAC?$AA?3?$AA?2?$AAA?$AAn?$AAk?$AAa?$AA2?$AAP?$AAr?$AAo?$AAj?$AAe?$AAc?$AAt@
  00039	68 00 00 00 00	 push	 OFFSET ??_C@_1BK@FMEHPMFE@?$AAm?$AAs?$AA_?$AAs?$AAi?$AAn?$AAg?$AAl?$AAe?$AAt?$AAo?$AAn@
  0003e	e8 00 00 00 00	 call	 __wassert
  00043	83 c4 0c	 add	 esp, 12			; 0000000cH
$LN6@playerIsGi:
; File C:\Anka2Project\Anka2Project\Source\Binary\source\UserInterface\PythonPlayerModule.cpp

; 1512 : 	char Flag = CPythonPlayer::Instance().IsGiftBoxInventorySlot(TItemPos(INVENTORY, iSlotIndex));

  00046	0f b7 45 f8	 movzx	 eax, WORD PTR _iSlotIndex$[ebp]
  0004a	51		 push	 ecx
  0004b	8b cc		 mov	 ecx, esp
  0004d	66 89 45 fd	 mov	 WORD PTR $T4[ebp+1], ax
  00051	c6 45 fc 01	 mov	 BYTE PTR $T4[ebp], 1
  00055	0f b7 45 fc	 movzx	 eax, WORD PTR $T4[ebp]
  00059	66 89 01	 mov	 WORD PTR [ecx], ax
  0005c	8a 45 fe	 mov	 al, BYTE PTR $T4[ebp+2]
  0005f	88 41 02	 mov	 BYTE PTR [ecx+2], al
  00062	e8 00 00 00 00	 call	 ?IsGiftBoxInventorySlot@CPythonPlayer@@QAE_NUSItemPos@@@Z ; CPythonPlayer::IsGiftBoxInventorySlot

; 1513 : 
; 1514 : 	return Py_BuildValue("i", Flag);

  00067	0f b6 c0	 movzx	 eax, al
  0006a	50		 push	 eax
  0006b	68 00 00 00 00	 push	 OFFSET ??_C@_01KBJDNOO@i@
  00070	ff 15 00 00 00
	00		 call	 DWORD PTR __imp__Py_BuildValue
  00076	83 c4 08	 add	 esp, 8

; 1515 : }

  00079	8b e5		 mov	 esp, ebp
  0007b	5d		 pop	 ebp
  0007c	c3		 ret	 0
?playerIsGiftBoxInventorySlot@@YAPAU_object@@PAU1@0@Z ENDP ; playerIsGiftBoxInventorySlot
_TEXT	ENDS
; Function compile flags: /Ogtp
; File C:\Anka2Project\Anka2Project\Source\Binary\source\UserInterface\PythonPlayerModule.cpp
; File C:\Anka2Project\Anka2Project\Source\Binary\source\eterBase\Singleton.h
; File C:\Anka2Project\Anka2Project\Source\Binary\source\UserInterface\PythonPlayerModule.cpp
;	COMDAT ?playerIsChangersInventorySlot@@YAPAU_object@@PAU1@0@Z
_TEXT	SEGMENT
_iSlotIndex$ = -8					; size = 4
$T4 = -4						; size = 3
_poSelf$ = 8						; size = 4
_poArgs$ = 12						; size = 4
?playerIsChangersInventorySlot@@YAPAU_object@@PAU1@0@Z PROC ; playerIsChangersInventorySlot, COMDAT

; 1518 : {

  00000	55		 push	 ebp
  00001	8b ec		 mov	 ebp, esp
  00003	83 ec 08	 sub	 esp, 8

; 1519 : 	int iSlotIndex;
; 1520 : 	if (!PyTuple_GetInteger(poArgs, 0, &iSlotIndex))

  00006	8d 45 f8	 lea	 eax, DWORD PTR _iSlotIndex$[ebp]
  00009	50		 push	 eax
  0000a	6a 00		 push	 0
  0000c	ff 75 0c	 push	 DWORD PTR _poArgs$[ebp]
  0000f	e8 00 00 00 00	 call	 ?PyTuple_GetInteger@@YA_NPAU_object@@HPAH@Z ; PyTuple_GetInteger
  00014	83 c4 0c	 add	 esp, 12			; 0000000cH
  00017	84 c0		 test	 al, al
  00019	75 0e		 jne	 SHORT $LN2@playerIsCh

; 1521 : 		return Py_BuildException();

  0001b	6a 00		 push	 0
  0001d	e8 00 00 00 00	 call	 ?Py_BuildException@@YAPAU_object@@PBDZZ ; Py_BuildException
  00022	83 c4 04	 add	 esp, 4

; 1526 : }

  00025	8b e5		 mov	 esp, ebp
  00027	5d		 pop	 ebp
  00028	c3		 ret	 0
$LN2@playerIsCh:
; File C:\Anka2Project\Anka2Project\Source\Binary\source\eterBase\Singleton.h

; 26   : 		assert(ms_singleton);

  00029	83 3d 00 00 00
	00 00		 cmp	 DWORD PTR ?ms_singleton@?$CSingleton@VCPythonPlayer@@@@0PAVCPythonPlayer@@A, 0 ; CSingleton<CPythonPlayer>::ms_singleton
  00030	75 14		 jne	 SHORT $LN6@playerIsCh
  00032	6a 1a		 push	 26			; 0000001aH
  00034	68 00 00 00 00	 push	 OFFSET ??_C@_1IO@CAJLEEOI@?$AAC?$AA?3?$AA?2?$AAA?$AAn?$AAk?$AAa?$AA2?$AAP?$AAr?$AAo?$AAj?$AAe?$AAc?$AAt@
  00039	68 00 00 00 00	 push	 OFFSET ??_C@_1BK@FMEHPMFE@?$AAm?$AAs?$AA_?$AAs?$AAi?$AAn?$AAg?$AAl?$AAe?$AAt?$AAo?$AAn@
  0003e	e8 00 00 00 00	 call	 __wassert
  00043	83 c4 0c	 add	 esp, 12			; 0000000cH
$LN6@playerIsCh:
; File C:\Anka2Project\Anka2Project\Source\Binary\source\UserInterface\PythonPlayerModule.cpp

; 1523 : 	char Flag = CPythonPlayer::Instance().IsChangersInventorySlot(TItemPos(INVENTORY, iSlotIndex));

  00046	0f b7 45 f8	 movzx	 eax, WORD PTR _iSlotIndex$[ebp]
  0004a	51		 push	 ecx
  0004b	8b cc		 mov	 ecx, esp
  0004d	66 89 45 fd	 mov	 WORD PTR $T4[ebp+1], ax
  00051	c6 45 fc 01	 mov	 BYTE PTR $T4[ebp], 1
  00055	0f b7 45 fc	 movzx	 eax, WORD PTR $T4[ebp]
  00059	66 89 01	 mov	 WORD PTR [ecx], ax
  0005c	8a 45 fe	 mov	 al, BYTE PTR $T4[ebp+2]
  0005f	88 41 02	 mov	 BYTE PTR [ecx+2], al
  00062	e8 00 00 00 00	 call	 ?IsChangersInventorySlot@CPythonPlayer@@QAE_NUSItemPos@@@Z ; CPythonPlayer::IsChangersInventorySlot

; 1524 : 
; 1525 : 	return Py_BuildValue("i", Flag);

  00067	0f b6 c0	 movzx	 eax, al
  0006a	50		 push	 eax
  0006b	68 00 00 00 00	 push	 OFFSET ??_C@_01KBJDNOO@i@
  00070	ff 15 00 00 00
	00		 call	 DWORD PTR __imp__Py_BuildValue
  00076	83 c4 08	 add	 esp, 8

; 1526 : }

  00079	8b e5		 mov	 esp, ebp
  0007b	5d		 pop	 ebp
  0007c	c3		 ret	 0
?playerIsChangersInventorySlot@@YAPAU_object@@PAU1@0@Z ENDP ; playerIsChangersInventorySlot
_TEXT	ENDS
; Function compile flags: /Ogtp
; File C:\Anka2Project\Anka2Project\Source\Binary\source\UserInterface\PythonPlayerModule.cpp
;	COMDAT ?playerIsEquipmentSlot@@YAPAU_object@@PAU1@0@Z
_TEXT	SEGMENT
_iSlotIndex$ = -4					; size = 4
_poSelf$ = 8						; size = 4
_poArgs$ = 12						; size = 4
?playerIsEquipmentSlot@@YAPAU_object@@PAU1@0@Z PROC	; playerIsEquipmentSlot, COMDAT

; 1530 : {

  00000	55		 push	 ebp
  00001	8b ec		 mov	 ebp, esp
  00003	51		 push	 ecx

; 1531 : 	int iSlotIndex;
; 1532 : 	if (!PyTuple_GetInteger(poArgs, 0, &iSlotIndex))

  00004	8d 45 fc	 lea	 eax, DWORD PTR _iSlotIndex$[ebp]
  00007	50		 push	 eax
  00008	6a 00		 push	 0
  0000a	ff 75 0c	 push	 DWORD PTR _poArgs$[ebp]
  0000d	e8 00 00 00 00	 call	 ?PyTuple_GetInteger@@YA_NPAU_object@@HPAH@Z ; PyTuple_GetInteger
  00012	83 c4 0c	 add	 esp, 12			; 0000000cH
  00015	84 c0		 test	 al, al
  00017	75 0e		 jne	 SHORT $LN2@playerIsEq

; 1533 : 		return Py_BuildException();

  00019	6a 00		 push	 0
  0001b	e8 00 00 00 00	 call	 ?Py_BuildException@@YAPAU_object@@PBDZZ ; Py_BuildException
  00020	83 c4 04	 add	 esp, 4

; 1540 : }

  00023	8b e5		 mov	 esp, ebp
  00025	5d		 pop	 ebp
  00026	c3		 ret	 0
$LN2@playerIsEq:

; 1534 : 
; 1535 : 	if (iSlotIndex >= c_Equipment_Start)

  00027	8b 45 fc	 mov	 eax, DWORD PTR _iSlotIndex$[ebp]
  0002a	05 4c ff ff ff	 add	 eax, -180		; ffffff4cH
  0002f	83 f8 4c	 cmp	 eax, 76			; 0000004cH
  00032	77 14		 ja	 SHORT $LN4@playerIsEq

; 1536 : 	if (iSlotIndex <= c_DragonSoul_Equip_End)
; 1537 : 		return Py_BuildValue("i", 1);

  00034	6a 01		 push	 1

; 1540 : }

  00036	68 00 00 00 00	 push	 OFFSET ??_C@_01KBJDNOO@i@
  0003b	ff 15 00 00 00
	00		 call	 DWORD PTR __imp__Py_BuildValue
  00041	83 c4 08	 add	 esp, 8
  00044	8b e5		 mov	 esp, ebp
  00046	5d		 pop	 ebp
  00047	c3		 ret	 0
$LN4@playerIsEq:

; 1538 : 
; 1539 : 	return Py_BuildValue("i", 0);

  00048	6a 00		 push	 0

; 1540 : }

  0004a	68 00 00 00 00	 push	 OFFSET ??_C@_01KBJDNOO@i@
  0004f	ff 15 00 00 00
	00		 call	 DWORD PTR __imp__Py_BuildValue
  00055	83 c4 08	 add	 esp, 8
  00058	8b e5		 mov	 esp, ebp
  0005a	5d		 pop	 ebp
  0005b	c3		 ret	 0
?playerIsEquipmentSlot@@YAPAU_object@@PAU1@0@Z ENDP	; playerIsEquipmentSlot
_TEXT	ENDS
; Function compile flags: /Ogtp
; File C:\Anka2Project\Anka2Project\Source\Binary\source\UserInterface\PythonPlayerModule.cpp
;	COMDAT ?playerIsDSEquipmentSlot@@YAPAU_object@@PAU1@0@Z
_TEXT	SEGMENT
_iSlotIndex$ = -8					; size = 4
_bWindowType$ = -1					; size = 1
_poSelf$ = 8						; size = 4
_poArgs$ = 12						; size = 4
?playerIsDSEquipmentSlot@@YAPAU_object@@PAU1@0@Z PROC	; playerIsDSEquipmentSlot, COMDAT

; 1543 : {

  00000	55		 push	 ebp
  00001	8b ec		 mov	 ebp, esp
  00003	83 ec 08	 sub	 esp, 8

; 1544 : 	BYTE bWindowType;
; 1545 : 	if (!PyTuple_GetInteger(poArgs, 0, &bWindowType))

  00006	8d 45 ff	 lea	 eax, DWORD PTR _bWindowType$[ebp]
  00009	50		 push	 eax
  0000a	6a 00		 push	 0
  0000c	ff 75 0c	 push	 DWORD PTR _poArgs$[ebp]
  0000f	e8 00 00 00 00	 call	 ?PyTuple_GetInteger@@YA_NPAU_object@@HPAE@Z ; PyTuple_GetInteger
  00014	83 c4 0c	 add	 esp, 12			; 0000000cH
  00017	84 c0		 test	 al, al
  00019	75 0e		 jne	 SHORT $LN2@playerIsDS
$LN9@playerIsDS:

; 1557 : 
; 1558 : }

  0001b	6a 00		 push	 0
  0001d	e8 00 00 00 00	 call	 ?Py_BuildException@@YAPAU_object@@PBDZZ ; Py_BuildException
  00022	83 c4 04	 add	 esp, 4
  00025	8b e5		 mov	 esp, ebp
  00027	5d		 pop	 ebp
  00028	c3		 ret	 0
$LN2@playerIsDS:

; 1546 : 		return Py_BuildException();
; 1547 : 	int iSlotIndex;
; 1548 : 	if (!PyTuple_GetInteger(poArgs, 1, &iSlotIndex))

  00029	8d 45 f8	 lea	 eax, DWORD PTR _iSlotIndex$[ebp]
  0002c	50		 push	 eax
  0002d	6a 01		 push	 1
  0002f	ff 75 0c	 push	 DWORD PTR _poArgs$[ebp]
  00032	e8 00 00 00 00	 call	 ?PyTuple_GetInteger@@YA_NPAU_object@@HPAH@Z ; PyTuple_GetInteger
  00037	83 c4 0c	 add	 esp, 12			; 0000000cH
  0003a	84 c0		 test	 al, al
  0003c	74 dd		 je	 SHORT $LN9@playerIsDS

; 1549 : 		return Py_BuildException();
; 1550 : 
; 1551 : 	if (INVENTORY == bWindowType)

  0003e	80 7d ff 01	 cmp	 BYTE PTR _bWindowType$[ebp], 1
  00042	75 21		 jne	 SHORT $LN6@playerIsDS

; 1552 : 	if (iSlotIndex >= c_DragonSoul_Equip_Start)

  00044	8b 45 f8	 mov	 eax, DWORD PTR _iSlotIndex$[ebp]
  00047	05 0c ff ff ff	 add	 eax, -244		; ffffff0cH
  0004c	83 f8 0c	 cmp	 eax, 12			; 0000000cH
  0004f	77 14		 ja	 SHORT $LN6@playerIsDS

; 1553 : 	if (iSlotIndex <= c_DragonSoul_Equip_End)
; 1554 : 		return Py_BuildValue("i", 1);

  00051	6a 01		 push	 1

; 1557 : 
; 1558 : }

  00053	68 00 00 00 00	 push	 OFFSET ??_C@_01KBJDNOO@i@
  00058	ff 15 00 00 00
	00		 call	 DWORD PTR __imp__Py_BuildValue
  0005e	83 c4 08	 add	 esp, 8
  00061	8b e5		 mov	 esp, ebp
  00063	5d		 pop	 ebp
  00064	c3		 ret	 0
$LN6@playerIsDS:

; 1555 : 
; 1556 : 	return Py_BuildValue("i", 0);

  00065	6a 00		 push	 0

; 1557 : 
; 1558 : }

  00067	68 00 00 00 00	 push	 OFFSET ??_C@_01KBJDNOO@i@
  0006c	ff 15 00 00 00
	00		 call	 DWORD PTR __imp__Py_BuildValue
  00072	83 c4 08	 add	 esp, 8
  00075	8b e5		 mov	 esp, ebp
  00077	5d		 pop	 ebp
  00078	c3		 ret	 0
?playerIsDSEquipmentSlot@@YAPAU_object@@PAU1@0@Z ENDP	; playerIsDSEquipmentSlot
_TEXT	ENDS
; Function compile flags: /Ogtp
; File C:\Anka2Project\Anka2Project\Source\Binary\source\UserInterface\PythonPlayerModule.cpp
;	COMDAT ?playerIsCostumeSlot@@YAPAU_object@@PAU1@0@Z
_TEXT	SEGMENT
_iSlotIndex$ = -4					; size = 4
_poSelf$ = 8						; size = 4
_poArgs$ = 12						; size = 4
?playerIsCostumeSlot@@YAPAU_object@@PAU1@0@Z PROC	; playerIsCostumeSlot, COMDAT

; 1561 : {

  00000	55		 push	 ebp
  00001	8b ec		 mov	 ebp, esp
  00003	51		 push	 ecx

; 1562 : 	int iSlotIndex;
; 1563 : 	if (!PyTuple_GetInteger(poArgs, 0, &iSlotIndex))

  00004	8d 45 fc	 lea	 eax, DWORD PTR _iSlotIndex$[ebp]
  00007	50		 push	 eax
  00008	6a 00		 push	 0
  0000a	ff 75 0c	 push	 DWORD PTR _poArgs$[ebp]
  0000d	e8 00 00 00 00	 call	 ?PyTuple_GetInteger@@YA_NPAU_object@@HPAH@Z ; PyTuple_GetInteger
  00012	83 c4 0c	 add	 esp, 12			; 0000000cH
  00015	84 c0		 test	 al, al
  00017	75 0e		 jne	 SHORT $LN2@playerIsCo

; 1564 : 		return Py_BuildException();

  00019	6a 00		 push	 0
  0001b	e8 00 00 00 00	 call	 ?Py_BuildException@@YAPAU_object@@PBDZZ ; Py_BuildException
  00020	83 c4 04	 add	 esp, 4

; 1573 : }

  00023	8b e5		 mov	 esp, ebp
  00025	5d		 pop	 ebp
  00026	c3		 ret	 0
$LN2@playerIsCo:

; 1565 : 
; 1566 : #ifdef ENABLE_COSTUME_SYSTEM
; 1567 : 	if (iSlotIndex >= c_Costume_Slot_Start)

  00027	8b 45 fc	 mov	 eax, DWORD PTR _iSlotIndex$[ebp]
  0002a	05 39 ff ff ff	 add	 eax, -199		; ffffff39H
  0002f	83 f8 07	 cmp	 eax, 7
  00032	77 14		 ja	 SHORT $LN4@playerIsCo

; 1568 : 	if (iSlotIndex <= c_Costume_Slot_End)
; 1569 : 		return Py_BuildValue("i", 1);

  00034	6a 01		 push	 1

; 1573 : }

  00036	68 00 00 00 00	 push	 OFFSET ??_C@_01KBJDNOO@i@
  0003b	ff 15 00 00 00
	00		 call	 DWORD PTR __imp__Py_BuildValue
  00041	83 c4 08	 add	 esp, 8
  00044	8b e5		 mov	 esp, ebp
  00046	5d		 pop	 ebp
  00047	c3		 ret	 0
$LN4@playerIsCo:

; 1570 : #endif
; 1571 : 
; 1572 : 	return Py_BuildValue("i", 0);

  00048	6a 00		 push	 0

; 1573 : }

  0004a	68 00 00 00 00	 push	 OFFSET ??_C@_01KBJDNOO@i@
  0004f	ff 15 00 00 00
	00		 call	 DWORD PTR __imp__Py_BuildValue
  00055	83 c4 08	 add	 esp, 8
  00058	8b e5		 mov	 esp, ebp
  0005a	5d		 pop	 ebp
  0005b	c3		 ret	 0
?playerIsCostumeSlot@@YAPAU_object@@PAU1@0@Z ENDP	; playerIsCostumeSlot
_TEXT	ENDS
; Function compile flags: /Ogtp
; File C:\Anka2Project\Anka2Project\Source\Binary\source\UserInterface\PythonPlayerModule.cpp
; File C:\Anka2Project\Anka2Project\Source\Binary\source\eterBase\Singleton.h
; File C:\Anka2Project\Anka2Project\Source\Binary\source\UserInterface\PythonPlayerModule.cpp
;	COMDAT ?playerIsOpenPrivateShop@@YAPAU_object@@PAU1@0@Z
_TEXT	SEGMENT
_poSelf$ = 8						; size = 4
_poArgs$ = 12						; size = 4
?playerIsOpenPrivateShop@@YAPAU_object@@PAU1@0@Z PROC	; playerIsOpenPrivateShop, COMDAT
; File C:\Anka2Project\Anka2Project\Source\Binary\source\eterBase\Singleton.h

; 26   : 		assert(ms_singleton);

  00000	8b 0d 00 00 00
	00		 mov	 ecx, DWORD PTR ?ms_singleton@?$CSingleton@VCPythonPlayer@@@@0PAVCPythonPlayer@@A ; CSingleton<CPythonPlayer>::ms_singleton
  00006	85 c9		 test	 ecx, ecx
  00008	75 1a		 jne	 SHORT $LN5@playerIsOp
  0000a	6a 1a		 push	 26			; 0000001aH
  0000c	68 00 00 00 00	 push	 OFFSET ??_C@_1IO@CAJLEEOI@?$AAC?$AA?3?$AA?2?$AAA?$AAn?$AAk?$AAa?$AA2?$AAP?$AAr?$AAo?$AAj?$AAe?$AAc?$AAt@
  00011	68 00 00 00 00	 push	 OFFSET ??_C@_1BK@FMEHPMFE@?$AAm?$AAs?$AA_?$AAs?$AAi?$AAn?$AAg?$AAl?$AAe?$AAt?$AAo?$AAn@
  00016	e8 00 00 00 00	 call	 __wassert
  0001b	8b 0d 00 00 00
	00		 mov	 ecx, DWORD PTR ?ms_singleton@?$CSingleton@VCPythonPlayer@@@@0PAVCPythonPlayer@@A ; CSingleton<CPythonPlayer>::ms_singleton
  00021	83 c4 0c	 add	 esp, 12			; 0000000cH
$LN5@playerIsOp:
; File C:\Anka2Project\Anka2Project\Source\Binary\source\UserInterface\PythonPlayerModule.cpp

; 1577 : 	return Py_BuildValue("i", CPythonPlayer::Instance().IsOpenPrivateShop());

  00024	e8 00 00 00 00	 call	 ?IsOpenPrivateShop@CPythonPlayer@@QAE_NXZ ; CPythonPlayer::IsOpenPrivateShop
  00029	0f b6 c0	 movzx	 eax, al
  0002c	50		 push	 eax
  0002d	68 00 00 00 00	 push	 OFFSET ??_C@_01KBJDNOO@i@
  00032	ff 15 00 00 00
	00		 call	 DWORD PTR __imp__Py_BuildValue
  00038	83 c4 08	 add	 esp, 8

; 1578 : }

  0003b	c3		 ret	 0
?playerIsOpenPrivateShop@@YAPAU_object@@PAU1@0@Z ENDP	; playerIsOpenPrivateShop
_TEXT	ENDS
; Function compile flags: /Ogtp
; File C:\Anka2Project\Anka2Project\Source\Binary\source\UserInterface\PythonPlayerModule.cpp
; File C:\Anka2Project\Anka2Project\Source\Binary\source\UserInterface\GameType.h
; File C:\Anka2Project\Anka2Project\Source\Binary\source\UserInterface\PythonPlayerModule.cpp
; File C:\Anka2Project\Anka2Project\Source\Binary\source\UserInterface\GameType.h
; File C:\Anka2Project\Anka2Project\Source\Binary\source\UserInterface\PythonPlayerModule.cpp
; File C:\Anka2Project\Anka2Project\Source\Binary\source\eterBase\Singleton.h
; File C:\Anka2Project\Anka2Project\Source\Binary\source\UserInterface\PythonPlayerModule.cpp
; File C:\Anka2Project\Anka2Project\Source\Binary\source\eterBase\Singleton.h
; File C:\Anka2Project\Anka2Project\Source\Binary\source\UserInterface\PythonPlayerModule.cpp
; File C:\Anka2Project\Anka2Project\Source\Binary\source\eterBase\Singleton.h
; File C:\Anka2Project\Anka2Project\Source\Binary\source\UserInterface\PythonPlayerModule.cpp
; File C:\Anka2Project\Anka2Project\Source\Binary\source\eterBase\Singleton.h
; File C:\Anka2Project\Anka2Project\Source\Binary\source\UserInterface\PythonPlayerModule.cpp
; File C:\Anka2Project\Anka2Project\Source\Binary\source\eterBase\Singleton.h
; File C:\Anka2Project\Anka2Project\Source\Binary\source\UserInterface\PythonPlayerModule.cpp
;	COMDAT ?playerIsValuableItem@@YAPAU_object@@PAU1@0@Z
_TEXT	SEGMENT
_pItemData$1$ = -12					; size = 4
_i$1$ = -8						; size = 4
_SlotIndex$ = -4					; size = 3
_poSelf$ = 8						; size = 4
_poArgs$ = 12						; size = 4
?playerIsValuableItem@@YAPAU_object@@PAU1@0@Z PROC	; playerIsValuableItem, COMDAT

; 1581 : {

  00000	55		 push	 ebp
  00001	8b ec		 mov	 ebp, esp
  00003	83 ec 0c	 sub	 esp, 12			; 0000000cH
  00006	56		 push	 esi

; 1584 : 	switch (PyTuple_Size (poArgs))

  00007	8b 75 0c	 mov	 esi, DWORD PTR _poArgs$[ebp]
; File C:\Anka2Project\Anka2Project\Source\Binary\source\UserInterface\GameType.h

; 448  : 		cell = WORD_MAX;

  0000a	b8 ff ff 00 00	 mov	 eax, 65535		; 0000ffffH
; File C:\Anka2Project\Anka2Project\Source\Binary\source\UserInterface\PythonPlayerModule.cpp

; 1581 : {

  0000f	57		 push	 edi

; 1584 : 	switch (PyTuple_Size (poArgs))

  00010	56		 push	 esi
; File C:\Anka2Project\Anka2Project\Source\Binary\source\UserInterface\GameType.h

; 447  : 		window_type = INVENTORY;

  00011	c6 45 fc 01	 mov	 BYTE PTR _SlotIndex$[ebp], 1

; 448  : 		cell = WORD_MAX;

  00015	66 89 45 fd	 mov	 WORD PTR _SlotIndex$[ebp+1], ax
; File C:\Anka2Project\Anka2Project\Source\Binary\source\UserInterface\PythonPlayerModule.cpp

; 1584 : 	switch (PyTuple_Size (poArgs))

  00019	ff 15 00 00 00
	00		 call	 DWORD PTR __imp__PyTuple_Size
  0001f	83 c4 04	 add	 esp, 4
  00022	83 e8 01	 sub	 eax, 1
  00025	74 18		 je	 SHORT $LN7@playerIsVa
  00027	83 e8 01	 sub	 eax, 1
  0002a	75 26		 jne	 SHORT $LN50@playerIsVa

; 1585 : 	{
; 1586 : 	case 1:
; 1587 : 		if (!PyTuple_GetInteger(poArgs, 0, &SlotIndex.cell))
; 1588 : 			return Py_BuildException();
; 1589 : 		break;
; 1590 : 	case 2:
; 1591 : 		if (!PyTuple_GetInteger(poArgs, 0, &SlotIndex.window_type))

  0002c	8d 45 fc	 lea	 eax, DWORD PTR _SlotIndex$[ebp]
  0002f	50		 push	 eax
  00030	6a 00		 push	 0
  00032	56		 push	 esi
  00033	e8 00 00 00 00	 call	 ?PyTuple_GetInteger@@YA_NPAU_object@@HPAE@Z ; PyTuple_GetInteger
  00038	83 c4 0c	 add	 esp, 12			; 0000000cH
  0003b	84 c0		 test	 al, al
  0003d	74 13		 je	 SHORT $LN50@playerIsVa
$LN7@playerIsVa:

; 1618 : }

  0003f	8d 45 fd	 lea	 eax, DWORD PTR _SlotIndex$[ebp+1]
  00042	50		 push	 eax
  00043	6a 00		 push	 0
  00045	56		 push	 esi
  00046	e8 00 00 00 00	 call	 ?PyTuple_GetInteger@@YA_NPAU_object@@HPAG@Z ; PyTuple_GetInteger
  0004b	83 c4 0c	 add	 esp, 12			; 0000000cH
  0004e	84 c0		 test	 al, al
  00050	75 10		 jne	 SHORT $LN8@playerIsVa
$LN50@playerIsVa:
  00052	6a 00		 push	 0
  00054	e8 00 00 00 00	 call	 ?Py_BuildException@@YAPAU_object@@PBDZZ ; Py_BuildException
  00059	83 c4 04	 add	 esp, 4
  0005c	5f		 pop	 edi
  0005d	5e		 pop	 esi
  0005e	8b e5		 mov	 esp, ebp
  00060	5d		 pop	 ebp
  00061	c3		 ret	 0
$LN8@playerIsVa:
; File C:\Anka2Project\Anka2Project\Source\Binary\source\eterBase\Singleton.h

; 26   : 		assert(ms_singleton);

  00062	8b 3d 00 00 00
	00		 mov	 edi, DWORD PTR ?ms_singleton@?$CSingleton@VCPythonPlayer@@@@0PAVCPythonPlayer@@A ; CSingleton<CPythonPlayer>::ms_singleton
  00068	85 ff		 test	 edi, edi
  0006a	75 1a		 jne	 SHORT $LN23@playerIsVa
  0006c	6a 1a		 push	 26			; 0000001aH
  0006e	68 00 00 00 00	 push	 OFFSET ??_C@_1IO@CAJLEEOI@?$AAC?$AA?3?$AA?2?$AAA?$AAn?$AAk?$AAa?$AA2?$AAP?$AAr?$AAo?$AAj?$AAe?$AAc?$AAt@
  00073	68 00 00 00 00	 push	 OFFSET ??_C@_1BK@FMEHPMFE@?$AAm?$AAs?$AA_?$AAs?$AAi?$AAn?$AAg?$AAl?$AAe?$AAt?$AAo?$AAn@
  00078	e8 00 00 00 00	 call	 __wassert
  0007d	8b 3d 00 00 00
	00		 mov	 edi, DWORD PTR ?ms_singleton@?$CSingleton@VCPythonPlayer@@@@0PAVCPythonPlayer@@A ; CSingleton<CPythonPlayer>::ms_singleton
  00083	83 c4 0c	 add	 esp, 12			; 0000000cH
$LN23@playerIsVa:
; File C:\Anka2Project\Anka2Project\Source\Binary\source\UserInterface\PythonPlayerModule.cpp

; 1600 : 	DWORD dwItemIndex = CPythonPlayer::Instance().GetItemIndex(SlotIndex);

  00086	8b 47 04	 mov	 eax, DWORD PTR [edi+4]
  00089	8a 4d fe	 mov	 cl, BYTE PTR _SlotIndex$[ebp+2]
  0008c	66 8b 55 fc	 mov	 dx, WORD PTR _SlotIndex$[ebp]
  00090	51		 push	 ecx
  00091	8b 70 48	 mov	 esi, DWORD PTR [eax+72]
  00094	8b c4		 mov	 eax, esp
  00096	66 89 10	 mov	 WORD PTR [eax], dx
  00099	88 48 02	 mov	 BYTE PTR [eax+2], cl
  0009c	8d 4f 04	 lea	 ecx, DWORD PTR [edi+4]
  0009f	ff d6		 call	 esi
; File C:\Anka2Project\Anka2Project\Source\Binary\source\eterBase\Singleton.h

; 26   : 		assert(ms_singleton);

  000a1	8b 0d 00 00 00
	00		 mov	 ecx, DWORD PTR ?ms_singleton@?$CSingleton@VCItemManager@@@@0PAVCItemManager@@A ; CSingleton<CItemManager>::ms_singleton
; File C:\Anka2Project\Anka2Project\Source\Binary\source\UserInterface\PythonPlayerModule.cpp

; 1600 : 	DWORD dwItemIndex = CPythonPlayer::Instance().GetItemIndex(SlotIndex);

  000a7	8b f0		 mov	 esi, eax
; File C:\Anka2Project\Anka2Project\Source\Binary\source\eterBase\Singleton.h

; 26   : 		assert(ms_singleton);

  000a9	85 c9		 test	 ecx, ecx
  000ab	75 1a		 jne	 SHORT $LN26@playerIsVa
  000ad	6a 1a		 push	 26			; 0000001aH
  000af	68 00 00 00 00	 push	 OFFSET ??_C@_1IO@CAJLEEOI@?$AAC?$AA?3?$AA?2?$AAA?$AAn?$AAk?$AAa?$AA2?$AAP?$AAr?$AAo?$AAj?$AAe?$AAc?$AAt@
  000b4	68 00 00 00 00	 push	 OFFSET ??_C@_1BK@FMEHPMFE@?$AAm?$AAs?$AA_?$AAs?$AAi?$AAn?$AAg?$AAl?$AAe?$AAt?$AAo?$AAn@
  000b9	e8 00 00 00 00	 call	 __wassert
  000be	8b 0d 00 00 00
	00		 mov	 ecx, DWORD PTR ?ms_singleton@?$CSingleton@VCItemManager@@@@0PAVCItemManager@@A ; CSingleton<CItemManager>::ms_singleton
  000c4	83 c4 0c	 add	 esp, 12			; 0000000cH
$LN26@playerIsVa:
; File C:\Anka2Project\Anka2Project\Source\Binary\source\UserInterface\PythonPlayerModule.cpp

; 1601 : 	CItemManager::Instance().SelectItemData(dwItemIndex);

  000c7	56		 push	 esi
  000c8	e8 00 00 00 00	 call	 ?SelectItemData@CItemManager@@QAEHK@Z ; CItemManager::SelectItemData
; File C:\Anka2Project\Anka2Project\Source\Binary\source\eterBase\Singleton.h

; 26   : 		assert(ms_singleton);

  000cd	8b 0d 00 00 00
	00		 mov	 ecx, DWORD PTR ?ms_singleton@?$CSingleton@VCItemManager@@@@0PAVCItemManager@@A ; CSingleton<CItemManager>::ms_singleton
  000d3	85 c9		 test	 ecx, ecx
  000d5	75 1a		 jne	 SHORT $LN29@playerIsVa
  000d7	6a 1a		 push	 26			; 0000001aH
  000d9	68 00 00 00 00	 push	 OFFSET ??_C@_1IO@CAJLEEOI@?$AAC?$AA?3?$AA?2?$AAA?$AAn?$AAk?$AAa?$AA2?$AAP?$AAr?$AAo?$AAj?$AAe?$AAc?$AAt@
  000de	68 00 00 00 00	 push	 OFFSET ??_C@_1BK@FMEHPMFE@?$AAm?$AAs?$AA_?$AAs?$AAi?$AAn?$AAg?$AAl?$AAe?$AAt?$AAo?$AAn@
  000e3	e8 00 00 00 00	 call	 __wassert
  000e8	8b 0d 00 00 00
	00		 mov	 ecx, DWORD PTR ?ms_singleton@?$CSingleton@VCItemManager@@@@0PAVCItemManager@@A ; CSingleton<CItemManager>::ms_singleton
  000ee	83 c4 0c	 add	 esp, 12			; 0000000cH
$LN29@playerIsVa:
; File C:\Anka2Project\Anka2Project\Source\Binary\source\UserInterface\PythonPlayerModule.cpp

; 1602 : 	CItemData * pItemData = CItemManager::Instance().GetSelectedItemDataPointer();

  000f1	e8 00 00 00 00	 call	 ?GetSelectedItemDataPointer@CItemManager@@QAEPAVCItemData@@XZ ; CItemManager::GetSelectedItemDataPointer
  000f6	89 45 f4	 mov	 DWORD PTR _pItemData$1$[ebp], eax

; 1603 : 	if (!pItemData)

  000f9	85 c0		 test	 eax, eax
  000fb	75 13		 jne	 SHORT $LN13@playerIsVa

; 1604 : 		return Py_BuildException("Can't find item data");

  000fd	68 00 00 00 00	 push	 OFFSET ??_C@_0BF@BGKCJNBK@Can?8t?5find?5item?5data@
  00102	e8 00 00 00 00	 call	 ?Py_BuildException@@YAPAU_object@@PBDZZ ; Py_BuildException
  00107	83 c4 04	 add	 esp, 4

; 1618 : }

  0010a	5f		 pop	 edi
  0010b	5e		 pop	 esi
  0010c	8b e5		 mov	 esp, ebp
  0010e	5d		 pop	 ebp
  0010f	c3		 ret	 0
$LN13@playerIsVa:

; 1605 : 
; 1606 : 	BOOL hasMetinSocket = FALSE;

  00110	8b 35 00 00 00
	00		 mov	 esi, DWORD PTR ?ms_singleton@?$CSingleton@VCPythonPlayer@@@@0PAVCPythonPlayer@@A ; CSingleton<CPythonPlayer>::ms_singleton
  00116	33 ff		 xor	 edi, edi
  00118	33 c0		 xor	 eax, eax
  0011a	89 45 f8	 mov	 DWORD PTR _i$1$[ebp], eax
  0011d	0f 1f 00	 npad	 3
$LL6@playerIsVa:
; File C:\Anka2Project\Anka2Project\Source\Binary\source\eterBase\Singleton.h

; 26   : 		assert(ms_singleton);

  00120	85 f6		 test	 esi, esi
  00122	75 1d		 jne	 SHORT $LN32@playerIsVa
  00124	6a 1a		 push	 26			; 0000001aH
  00126	68 00 00 00 00	 push	 OFFSET ??_C@_1IO@CAJLEEOI@?$AAC?$AA?3?$AA?2?$AAA?$AAn?$AAk?$AAa?$AA2?$AAP?$AAr?$AAo?$AAj?$AAe?$AAc?$AAt@
  0012b	68 00 00 00 00	 push	 OFFSET ??_C@_1BK@FMEHPMFE@?$AAm?$AAs?$AA_?$AAs?$AAi?$AAn?$AAg?$AAl?$AAe?$AAt?$AAo?$AAn@
  00130	e8 00 00 00 00	 call	 __wassert
  00135	8b 35 00 00 00
	00		 mov	 esi, DWORD PTR ?ms_singleton@?$CSingleton@VCPythonPlayer@@@@0PAVCPythonPlayer@@A ; CSingleton<CPythonPlayer>::ms_singleton
  0013b	83 c4 0c	 add	 esp, 12			; 0000000cH
  0013e	8b 45 f8	 mov	 eax, DWORD PTR _i$1$[ebp]
$LN32@playerIsVa:
; File C:\Anka2Project\Anka2Project\Source\Binary\source\UserInterface\PythonPlayerModule.cpp

; 1610 : 		if (CPythonPlayer::METIN_SOCKET_TYPE_NONE != CPythonPlayer::Instance().GetItemMetinSocket(SlotIndex, i))

  00141	50		 push	 eax
  00142	66 8b 45 fc	 mov	 ax, WORD PTR _SlotIndex$[ebp]
  00146	51		 push	 ecx
  00147	8b cc		 mov	 ecx, esp
  00149	66 89 01	 mov	 WORD PTR [ecx], ax
  0014c	8a 45 fe	 mov	 al, BYTE PTR _SlotIndex$[ebp+2]
  0014f	88 41 02	 mov	 BYTE PTR [ecx+2], al
  00152	8b ce		 mov	 ecx, esi
  00154	e8 00 00 00 00	 call	 ?GetItemMetinSocket@CPythonPlayer@@QAEKUSItemPos@@K@Z ; CPythonPlayer::GetItemMetinSocket
  00159	85 c0		 test	 eax, eax
  0015b	b9 01 00 00 00	 mov	 ecx, 1
  00160	8b 45 f8	 mov	 eax, DWORD PTR _i$1$[ebp]
  00163	0f 45 f9	 cmovne	 edi, ecx
  00166	40		 inc	 eax
  00167	89 45 f8	 mov	 DWORD PTR _i$1$[ebp], eax
  0016a	83 f8 06	 cmp	 eax, 6
  0016d	7c b1		 jl	 SHORT $LL6@playerIsVa

; 1611 : 			hasMetinSocket = TRUE;
; 1612 : 
; 1613 : 	DWORD dwValue = pItemData->GetISellItemPrice();

  0016f	8b 4d f4	 mov	 ecx, DWORD PTR _pItemData$1$[ebp]
  00172	e8 00 00 00 00	 call	 ?GetISellItemPrice@CItemData@@QBEKXZ ; CItemData::GetISellItemPrice

; 1614 : 	if (dwValue > 5000)
; 1615 : 		isHighPrice = TRUE;
; 1616 : 
; 1617 : 	return Py_BuildValue("i", hasMetinSocket || isHighPrice);

  00177	85 ff		 test	 edi, edi
  00179	75 0b		 jne	 SHORT $LN17@playerIsVa
  0017b	3d 88 13 00 00	 cmp	 eax, 5000		; 00001388H
  00180	77 04		 ja	 SHORT $LN17@playerIsVa
  00182	33 c0		 xor	 eax, eax
  00184	eb 05		 jmp	 SHORT $LN18@playerIsVa
$LN17@playerIsVa:
  00186	b8 01 00 00 00	 mov	 eax, 1
$LN18@playerIsVa:
  0018b	50		 push	 eax
  0018c	68 00 00 00 00	 push	 OFFSET ??_C@_01KBJDNOO@i@
  00191	ff 15 00 00 00
	00		 call	 DWORD PTR __imp__Py_BuildValue
  00197	83 c4 08	 add	 esp, 8

; 1618 : }

  0019a	5f		 pop	 edi
  0019b	5e		 pop	 esi
  0019c	8b e5		 mov	 esp, ebp
  0019e	5d		 pop	 ebp
  0019f	c3		 ret	 0
?playerIsValuableItem@@YAPAU_object@@PAU1@0@Z ENDP	; playerIsValuableItem
_TEXT	ENDS
; Function compile flags: /Ogtp
; File C:\Anka2Project\Anka2Project\Source\Binary\source\UserInterface\PythonPlayerModule.cpp
; File C:\Anka2Project\Anka2Project\Source\Binary\source\UserInterface\GameType.h
; File C:\Anka2Project\Anka2Project\Source\Binary\source\UserInterface\PythonPlayerModule.cpp
; File C:\Anka2Project\Anka2Project\Source\Binary\source\UserInterface\GameType.h
; File C:\Anka2Project\Anka2Project\Source\Binary\source\UserInterface\PythonPlayerModule.cpp
; File C:\Anka2Project\Anka2Project\Source\Binary\source\eterBase\Singleton.h
; File C:\Anka2Project\Anka2Project\Source\Binary\source\UserInterface\PythonPlayerModule.cpp
; File C:\Anka2Project\Anka2Project\Source\Binary\source\eterBase\Singleton.h
; File C:\Anka2Project\Anka2Project\Source\Binary\source\UserInterface\PythonPlayerModule.cpp
; File C:\Anka2Project\Anka2Project\Source\Binary\source\eterBase\Singleton.h
; File C:\Anka2Project\Anka2Project\Source\Binary\source\UserInterface\PythonPlayerModule.cpp
; File C:\Anka2Project\Anka2Project\Source\Binary\source\eterBase\Singleton.h
; File C:\Anka2Project\Anka2Project\Source\Binary\source\UserInterface\PythonPlayerModule.cpp
;	COMDAT ?playerGetItemGrade@@YAPAU_object@@PAU1@0@Z
_TEXT	SEGMENT
_SlotIndex$ = -4					; size = 3
_poSelf$ = 8						; size = 4
_poArgs$ = 12						; size = 4
?playerGetItemGrade@@YAPAU_object@@PAU1@0@Z PROC	; playerGetItemGrade, COMDAT

; 1635 : {

  00000	53		 push	 ebx
  00001	8b dc		 mov	 ebx, esp
  00003	83 ec 08	 sub	 esp, 8
  00006	83 e4 f8	 and	 esp, -8			; fffffff8H
  00009	83 c4 04	 add	 esp, 4
  0000c	55		 push	 ebp
  0000d	8b 6b 04	 mov	 ebp, DWORD PTR [ebx+4]
  00010	89 6c 24 04	 mov	 DWORD PTR [esp+4], ebp
  00014	8b ec		 mov	 ebp, esp
  00016	83 ec 08	 sub	 esp, 8
  00019	56		 push	 esi

; 1637 : 	switch (PyTuple_Size(poArgs))

  0001a	8b 73 0c	 mov	 esi, DWORD PTR _poArgs$[ebx]
; File C:\Anka2Project\Anka2Project\Source\Binary\source\UserInterface\GameType.h

; 448  : 		cell = WORD_MAX;

  0001d	b8 ff ff 00 00	 mov	 eax, 65535		; 0000ffffH
; File C:\Anka2Project\Anka2Project\Source\Binary\source\UserInterface\PythonPlayerModule.cpp

; 1635 : {

  00022	57		 push	 edi

; 1637 : 	switch (PyTuple_Size(poArgs))

  00023	56		 push	 esi
; File C:\Anka2Project\Anka2Project\Source\Binary\source\UserInterface\GameType.h

; 447  : 		window_type = INVENTORY;

  00024	c6 45 fc 01	 mov	 BYTE PTR _SlotIndex$[ebp], 1

; 448  : 		cell = WORD_MAX;

  00028	66 89 45 fd	 mov	 WORD PTR _SlotIndex$[ebp+1], ax
; File C:\Anka2Project\Anka2Project\Source\Binary\source\UserInterface\PythonPlayerModule.cpp

; 1637 : 	switch (PyTuple_Size(poArgs))

  0002c	ff 15 00 00 00
	00		 call	 DWORD PTR __imp__PyTuple_Size
  00032	83 c4 04	 add	 esp, 4
  00035	83 e8 01	 sub	 eax, 1
  00038	74 20		 je	 SHORT $LN4@playerGetI
  0003a	83 e8 01	 sub	 eax, 1
  0003d	75 2e		 jne	 SHORT $LN23@playerGetI

; 1641 : 			return Py_BuildException();
; 1642 : 		break;
; 1643 : 	case 2:
; 1644 : 		if (!PyTuple_GetInteger(poArgs, 0, &SlotIndex.window_type))

  0003f	8d 45 fc	 lea	 eax, DWORD PTR _SlotIndex$[ebp]
  00042	50		 push	 eax
  00043	6a 00		 push	 0
  00045	56		 push	 esi
  00046	e8 00 00 00 00	 call	 ?PyTuple_GetInteger@@YA_NPAU_object@@HPAE@Z ; PyTuple_GetInteger
  0004b	83 c4 0c	 add	 esp, 12			; 0000000cH
  0004e	84 c0		 test	 al, al
  00050	74 1b		 je	 SHORT $LN23@playerGetI

; 1645 : 			return Py_BuildException();
; 1646 : 		if (!PyTuple_GetInteger(poArgs, 1, &SlotIndex.cell))

  00052	8d 45 fd	 lea	 eax, DWORD PTR _SlotIndex$[ebp+1]
  00055	50		 push	 eax
  00056	6a 01		 push	 1

; 1647 : 			return Py_BuildException();

  00058	eb 06		 jmp	 SHORT $LN24@playerGetI
$LN4@playerGetI:

; 1638 : 	{
; 1639 : 	case 1:
; 1640 : 		if (!PyTuple_GetInteger(poArgs, 0, &SlotIndex.cell))

  0005a	8d 45 fd	 lea	 eax, DWORD PTR _SlotIndex$[ebp+1]
  0005d	50		 push	 eax
  0005e	6a 00		 push	 0
$LN24@playerGetI:

; 1660 : }

  00060	56		 push	 esi
  00061	e8 00 00 00 00	 call	 ?PyTuple_GetInteger@@YA_NPAU_object@@HPAG@Z ; PyTuple_GetInteger
  00066	83 c4 0c	 add	 esp, 12			; 0000000cH
  00069	84 c0		 test	 al, al
  0006b	75 13		 jne	 SHORT $LN5@playerGetI
$LN23@playerGetI:
  0006d	6a 00		 push	 0
  0006f	e8 00 00 00 00	 call	 ?Py_BuildException@@YAPAU_object@@PBDZZ ; Py_BuildException
  00074	83 c4 04	 add	 esp, 4
  00077	5f		 pop	 edi
  00078	5e		 pop	 esi
  00079	8b e5		 mov	 esp, ebp
  0007b	5d		 pop	 ebp
  0007c	8b e3		 mov	 esp, ebx
  0007e	5b		 pop	 ebx
  0007f	c3		 ret	 0
$LN5@playerGetI:
; File C:\Anka2Project\Anka2Project\Source\Binary\source\eterBase\Singleton.h

; 26   : 		assert(ms_singleton);

  00080	8b 3d 00 00 00
	00		 mov	 edi, DWORD PTR ?ms_singleton@?$CSingleton@VCPythonPlayer@@@@0PAVCPythonPlayer@@A ; CSingleton<CPythonPlayer>::ms_singleton
  00086	85 ff		 test	 edi, edi
  00088	75 1a		 jne	 SHORT $LN16@playerGetI
  0008a	6a 1a		 push	 26			; 0000001aH
  0008c	68 00 00 00 00	 push	 OFFSET ??_C@_1IO@CAJLEEOI@?$AAC?$AA?3?$AA?2?$AAA?$AAn?$AAk?$AAa?$AA2?$AAP?$AAr?$AAo?$AAj?$AAe?$AAc?$AAt@
  00091	68 00 00 00 00	 push	 OFFSET ??_C@_1BK@FMEHPMFE@?$AAm?$AAs?$AA_?$AAs?$AAi?$AAn?$AAg?$AAl?$AAe?$AAt?$AAo?$AAn@
  00096	e8 00 00 00 00	 call	 __wassert
  0009b	8b 3d 00 00 00
	00		 mov	 edi, DWORD PTR ?ms_singleton@?$CSingleton@VCPythonPlayer@@@@0PAVCPythonPlayer@@A ; CSingleton<CPythonPlayer>::ms_singleton
  000a1	83 c4 0c	 add	 esp, 12			; 0000000cH
$LN16@playerGetI:
; File C:\Anka2Project\Anka2Project\Source\Binary\source\UserInterface\PythonPlayerModule.cpp

; 1653 : 	int iItemIndex = CPythonPlayer::Instance().GetItemIndex(SlotIndex);

  000a4	8b 47 04	 mov	 eax, DWORD PTR [edi+4]
  000a7	8a 4d fe	 mov	 cl, BYTE PTR _SlotIndex$[ebp+2]
  000aa	66 8b 55 fc	 mov	 dx, WORD PTR _SlotIndex$[ebp]
  000ae	51		 push	 ecx
  000af	8b 70 48	 mov	 esi, DWORD PTR [eax+72]
  000b2	8b c4		 mov	 eax, esp
  000b4	66 89 10	 mov	 WORD PTR [eax], dx
  000b7	88 48 02	 mov	 BYTE PTR [eax+2], cl
  000ba	8d 4f 04	 lea	 ecx, DWORD PTR [edi+4]
  000bd	ff d6		 call	 esi
; File C:\Anka2Project\Anka2Project\Source\Binary\source\eterBase\Singleton.h

; 26   : 		assert(ms_singleton);

  000bf	8b 0d 00 00 00
	00		 mov	 ecx, DWORD PTR ?ms_singleton@?$CSingleton@VCItemManager@@@@0PAVCItemManager@@A ; CSingleton<CItemManager>::ms_singleton
; File C:\Anka2Project\Anka2Project\Source\Binary\source\UserInterface\PythonPlayerModule.cpp

; 1653 : 	int iItemIndex = CPythonPlayer::Instance().GetItemIndex(SlotIndex);

  000c5	8b f0		 mov	 esi, eax
; File C:\Anka2Project\Anka2Project\Source\Binary\source\eterBase\Singleton.h

; 26   : 		assert(ms_singleton);

  000c7	85 c9		 test	 ecx, ecx
  000c9	75 1a		 jne	 SHORT $LN19@playerGetI
  000cb	6a 1a		 push	 26			; 0000001aH
  000cd	68 00 00 00 00	 push	 OFFSET ??_C@_1IO@CAJLEEOI@?$AAC?$AA?3?$AA?2?$AAA?$AAn?$AAk?$AAa?$AA2?$AAP?$AAr?$AAo?$AAj?$AAe?$AAc?$AAt@
  000d2	68 00 00 00 00	 push	 OFFSET ??_C@_1BK@FMEHPMFE@?$AAm?$AAs?$AA_?$AAs?$AAi?$AAn?$AAg?$AAl?$AAe?$AAt?$AAo?$AAn@
  000d7	e8 00 00 00 00	 call	 __wassert
  000dc	8b 0d 00 00 00
	00		 mov	 ecx, DWORD PTR ?ms_singleton@?$CSingleton@VCItemManager@@@@0PAVCItemManager@@A ; CSingleton<CItemManager>::ms_singleton
  000e2	83 c4 0c	 add	 esp, 12			; 0000000cH
$LN19@playerGetI:
; File C:\Anka2Project\Anka2Project\Source\Binary\source\UserInterface\PythonPlayerModule.cpp

; 1654 : 	CItemManager::Instance().SelectItemData(iItemIndex);

  000e5	56		 push	 esi
  000e6	e8 00 00 00 00	 call	 ?SelectItemData@CItemManager@@QAEHK@Z ; CItemManager::SelectItemData
; File C:\Anka2Project\Anka2Project\Source\Binary\source\eterBase\Singleton.h

; 26   : 		assert(ms_singleton);

  000eb	8b 0d 00 00 00
	00		 mov	 ecx, DWORD PTR ?ms_singleton@?$CSingleton@VCItemManager@@@@0PAVCItemManager@@A ; CSingleton<CItemManager>::ms_singleton
  000f1	85 c9		 test	 ecx, ecx
  000f3	75 1a		 jne	 SHORT $LN22@playerGetI
  000f5	6a 1a		 push	 26			; 0000001aH
  000f7	68 00 00 00 00	 push	 OFFSET ??_C@_1IO@CAJLEEOI@?$AAC?$AA?3?$AA?2?$AAA?$AAn?$AAk?$AAa?$AA2?$AAP?$AAr?$AAo?$AAj?$AAe?$AAc?$AAt@
  000fc	68 00 00 00 00	 push	 OFFSET ??_C@_1BK@FMEHPMFE@?$AAm?$AAs?$AA_?$AAs?$AAi?$AAn?$AAg?$AAl?$AAe?$AAt?$AAo?$AAn@
  00101	e8 00 00 00 00	 call	 __wassert
  00106	8b 0d 00 00 00
	00		 mov	 ecx, DWORD PTR ?ms_singleton@?$CSingleton@VCItemManager@@@@0PAVCItemManager@@A ; CSingleton<CItemManager>::ms_singleton
  0010c	83 c4 0c	 add	 esp, 12			; 0000000cH
$LN22@playerGetI:
; File C:\Anka2Project\Anka2Project\Source\Binary\source\UserInterface\PythonPlayerModule.cpp

; 1655 : 	CItemData * pItemData = CItemManager::Instance().GetSelectedItemDataPointer();

  0010f	e8 00 00 00 00	 call	 ?GetSelectedItemDataPointer@CItemManager@@QAEPAVCItemData@@XZ ; CItemManager::GetSelectedItemDataPointer

; 1656 : 	if (!pItemData)

  00114	85 c0		 test	 eax, eax
  00116	75 16		 jne	 SHORT $LN10@playerGetI

; 1657 : 		return Py_BuildException("Can't find item data");

  00118	68 00 00 00 00	 push	 OFFSET ??_C@_0BF@BGKCJNBK@Can?8t?5find?5item?5data@

; 1660 : }

  0011d	e8 00 00 00 00	 call	 ?Py_BuildException@@YAPAU_object@@PBDZZ ; Py_BuildException
  00122	83 c4 04	 add	 esp, 4
  00125	5f		 pop	 edi
  00126	5e		 pop	 esi
  00127	8b e5		 mov	 esp, ebp
  00129	5d		 pop	 ebp
  0012a	8b e3		 mov	 esp, ebx
  0012c	5b		 pop	 ebx
  0012d	c3		 ret	 0
$LN10@playerGetI:

; 1658 : 
; 1659 : 	return Py_BuildValue("i", GetItemGrade(pItemData->GetName()));

  0012e	8b c8		 mov	 ecx, eax
  00130	e8 00 00 00 00	 call	 ?GetName@CItemData@@QBEPBDXZ ; CItemData::GetName
  00135	8b c8		 mov	 ecx, eax
  00137	e8 00 00 00 00	 call	 ?GetItemGrade@@YAHPBD@Z	; GetItemGrade
  0013c	50		 push	 eax
  0013d	68 00 00 00 00	 push	 OFFSET ??_C@_01KBJDNOO@i@
  00142	ff 15 00 00 00
	00		 call	 DWORD PTR __imp__Py_BuildValue
  00148	83 c4 08	 add	 esp, 8

; 1660 : }

  0014b	5f		 pop	 edi
  0014c	5e		 pop	 esi
  0014d	8b e5		 mov	 esp, ebp
  0014f	5d		 pop	 ebp
  00150	8b e3		 mov	 esp, ebx
  00152	5b		 pop	 ebx
  00153	c3		 ret	 0
?playerGetItemGrade@@YAPAU_object@@PAU1@0@Z ENDP	; playerGetItemGrade
_TEXT	ENDS
; Function compile flags: /Ogtp
; File C:\Anka2Project\Anka2Project\Source\Binary\source\UserInterface\PythonPlayerModule.cpp
; File C:\Anka2Project\Anka2Project\Source\Binary\source\UserInterface\GameType.h
; File C:\Anka2Project\Anka2Project\Source\Binary\source\UserInterface\PythonPlayerModule.cpp
; File C:\Anka2Project\Anka2Project\Source\Binary\source\UserInterface\GameType.h
; File C:\Anka2Project\Anka2Project\Source\Binary\source\UserInterface\PythonPlayerModule.cpp
; File C:\Anka2Project\Anka2Project\Source\Binary\source\eterBase\Singleton.h
; File C:\Anka2Project\Anka2Project\Source\Binary\source\UserInterface\PythonPlayerModule.cpp
; File C:\Anka2Project\Anka2Project\Source\Binary\source\eterBase\Singleton.h
; File C:\Anka2Project\Anka2Project\Source\Binary\source\UserInterface\PythonPlayerModule.cpp
; File C:\Anka2Project\Anka2Project\Source\Binary\source\eterBase\Singleton.h
; File C:\Anka2Project\Anka2Project\Source\Binary\source\UserInterface\PythonPlayerModule.cpp
; File C:\Anka2Project\Anka2Project\Source\Binary\source\eterBase\Singleton.h
; File C:\Anka2Project\Anka2Project\Source\Binary\source\UserInterface\PythonPlayerModule.cpp
; File C:\Anka2Project\Anka2Project\Source\Binary\source\eterBase\Singleton.h
; File C:\Anka2Project\Anka2Project\Source\Binary\source\UserInterface\PythonPlayerModule.cpp
; File C:\Anka2Project\Anka2Project\Source\Binary\source\eterBase\Singleton.h
; File C:\Anka2Project\Anka2Project\Source\Binary\source\UserInterface\PythonPlayerModule.cpp
; File C:\Anka2Project\Anka2Project\Source\Binary\source\eterBase\Singleton.h
; File C:\Anka2Project\Anka2Project\Source\Binary\source\UserInterface\PythonPlayerModule.cpp
;	COMDAT ?playerCanRefine@@YAPAU_object@@PAU1@0@Z
_TEXT	SEGMENT
_iScrollItemIndex$ = -12				; size = 4
_TargetSlotIndex$ = -8					; size = 3
tv176 = -1						; size = 1
_poSelf$ = 8						; size = 4
_poArgs$ = 12						; size = 4
?playerCanRefine@@YAPAU_object@@PAU1@0@Z PROC		; playerCanRefine, COMDAT

; 1684 : {

  00000	55		 push	 ebp
  00001	8b ec		 mov	 ebp, esp
  00003	83 ec 0c	 sub	 esp, 12			; 0000000cH
  00006	56		 push	 esi

; 1688 : 	switch (PyTuple_Size(poArgs))

  00007	8b 75 0c	 mov	 esi, DWORD PTR _poArgs$[ebp]
; File C:\Anka2Project\Anka2Project\Source\Binary\source\UserInterface\GameType.h

; 448  : 		cell = WORD_MAX;

  0000a	b8 ff ff 00 00	 mov	 eax, 65535		; 0000ffffH
; File C:\Anka2Project\Anka2Project\Source\Binary\source\UserInterface\PythonPlayerModule.cpp

; 1684 : {

  0000f	57		 push	 edi

; 1688 : 	switch (PyTuple_Size(poArgs))

  00010	56		 push	 esi
; File C:\Anka2Project\Anka2Project\Source\Binary\source\UserInterface\GameType.h

; 447  : 		window_type = INVENTORY;

  00011	c6 45 f8 01	 mov	 BYTE PTR _TargetSlotIndex$[ebp], 1

; 448  : 		cell = WORD_MAX;

  00015	66 89 45 f9	 mov	 WORD PTR _TargetSlotIndex$[ebp+1], ax
; File C:\Anka2Project\Anka2Project\Source\Binary\source\UserInterface\PythonPlayerModule.cpp

; 1688 : 	switch (PyTuple_Size(poArgs))

  00019	ff 15 00 00 00
	00		 call	 DWORD PTR __imp__PyTuple_Size
  0001f	83 c4 04	 add	 esp, 4
  00022	83 e8 02	 sub	 eax, 2
  00025	74 49		 je	 SHORT $LN4@playerCanR
  00027	83 e8 01	 sub	 eax, 1
  0002a	75 39		 jne	 SHORT $LN66@playerCanR

; 1694 : 			return Py_BadArgument();
; 1695 : 		break;
; 1696 : 	case 3:
; 1697 : 		if (!PyTuple_GetInteger(poArgs, 0, &iScrollItemIndex))

  0002c	8d 45 f4	 lea	 eax, DWORD PTR _iScrollItemIndex$[ebp]
  0002f	50		 push	 eax
  00030	6a 00		 push	 0
  00032	56		 push	 esi
  00033	e8 00 00 00 00	 call	 ?PyTuple_GetInteger@@YA_NPAU_object@@HPAH@Z ; PyTuple_GetInteger
  00038	83 c4 0c	 add	 esp, 12			; 0000000cH
  0003b	84 c0		 test	 al, al
  0003d	74 26		 je	 SHORT $LN66@playerCanR

; 1698 : 			return Py_BadArgument();
; 1699 : 		if (!PyTuple_GetInteger(poArgs, 1, &TargetSlotIndex.window_type))

  0003f	8d 45 f8	 lea	 eax, DWORD PTR _TargetSlotIndex$[ebp]
  00042	50		 push	 eax
  00043	6a 01		 push	 1
  00045	56		 push	 esi
  00046	e8 00 00 00 00	 call	 ?PyTuple_GetInteger@@YA_NPAU_object@@HPAE@Z ; PyTuple_GetInteger
  0004b	83 c4 0c	 add	 esp, 12			; 0000000cH
  0004e	84 c0		 test	 al, al
  00050	74 13		 je	 SHORT $LN66@playerCanR

; 1700 : 			return Py_BadArgument();
; 1701 : 		if (!PyTuple_GetInteger(poArgs, 2, &TargetSlotIndex.cell))

  00052	8d 45 f9	 lea	 eax, DWORD PTR _TargetSlotIndex$[ebp+1]
  00055	50		 push	 eax
  00056	6a 02		 push	 2
  00058	56		 push	 esi
  00059	e8 00 00 00 00	 call	 ?PyTuple_GetInteger@@YA_NPAU_object@@HPAG@Z ; PyTuple_GetInteger
  0005e	83 c4 0c	 add	 esp, 12			; 0000000cH
  00061	84 c0		 test	 al, al
  00063	75 31		 jne	 SHORT $LN6@playerCanR
$LN66@playerCanR:

; 1746 : 	}
; 1747 : 
; 1748 : 	return Py_BuildValue("i", REFINE_CANT);
; 1749 : }

  00065	e8 00 00 00 00	 call	 ?Py_BadArgument@@YAPAU_object@@XZ ; Py_BadArgument
  0006a	5f		 pop	 edi
  0006b	5e		 pop	 esi
  0006c	8b e5		 mov	 esp, ebp
  0006e	5d		 pop	 ebp
  0006f	c3		 ret	 0
$LN4@playerCanR:

; 1689 : 	{
; 1690 : 	case 2:
; 1691 : 		if (!PyTuple_GetInteger(poArgs, 0, &iScrollItemIndex))

  00070	8d 45 f4	 lea	 eax, DWORD PTR _iScrollItemIndex$[ebp]
  00073	50		 push	 eax
  00074	6a 00		 push	 0
  00076	56		 push	 esi
  00077	e8 00 00 00 00	 call	 ?PyTuple_GetInteger@@YA_NPAU_object@@HPAH@Z ; PyTuple_GetInteger
  0007c	83 c4 0c	 add	 esp, 12			; 0000000cH
  0007f	84 c0		 test	 al, al
  00081	74 e2		 je	 SHORT $LN66@playerCanR

; 1692 : 			return Py_BadArgument();
; 1693 : 		if (!PyTuple_GetInteger(poArgs, 1, &TargetSlotIndex.cell))

  00083	8d 45 f9	 lea	 eax, DWORD PTR _TargetSlotIndex$[ebp+1]
  00086	50		 push	 eax
  00087	6a 01		 push	 1
  00089	56		 push	 esi
  0008a	e8 00 00 00 00	 call	 ?PyTuple_GetInteger@@YA_NPAU_object@@HPAG@Z ; PyTuple_GetInteger
  0008f	83 c4 0c	 add	 esp, 12			; 0000000cH
  00092	84 c0		 test	 al, al
  00094	74 cf		 je	 SHORT $LN66@playerCanR
$LN6@playerCanR:
; File C:\Anka2Project\Anka2Project\Source\Binary\source\eterBase\Singleton.h

; 26   : 		assert(ms_singleton);

  00096	83 3d 00 00 00
	00 00		 cmp	 DWORD PTR ?ms_singleton@?$CSingleton@VCPythonPlayer@@@@0PAVCPythonPlayer@@A, 0 ; CSingleton<CPythonPlayer>::ms_singleton
  0009d	75 14		 jne	 SHORT $LN26@playerCanR
  0009f	6a 1a		 push	 26			; 0000001aH
  000a1	68 00 00 00 00	 push	 OFFSET ??_C@_1IO@CAJLEEOI@?$AAC?$AA?3?$AA?2?$AAA?$AAn?$AAk?$AAa?$AA2?$AAP?$AAr?$AAo?$AAj?$AAe?$AAc?$AAt@
  000a6	68 00 00 00 00	 push	 OFFSET ??_C@_1BK@FMEHPMFE@?$AAm?$AAs?$AA_?$AAs?$AAi?$AAn?$AAg?$AAl?$AAe?$AAt?$AAo?$AAn@
  000ab	e8 00 00 00 00	 call	 __wassert
  000b0	83 c4 0c	 add	 esp, 12			; 0000000cH
$LN26@playerCanR:
; File C:\Anka2Project\Anka2Project\Source\Binary\source\UserInterface\PythonPlayerModule.cpp

; 1708 : 	if (CPythonPlayer::Instance().IsEquipmentSlot(TargetSlotIndex))

  000b3	66 8b 45 f8	 mov	 ax, WORD PTR _TargetSlotIndex$[ebp]
  000b7	51		 push	 ecx
  000b8	8b cc		 mov	 ecx, esp
  000ba	66 89 01	 mov	 WORD PTR [ecx], ax
  000bd	8a 45 fa	 mov	 al, BYTE PTR _TargetSlotIndex$[ebp+2]
  000c0	88 41 02	 mov	 BYTE PTR [ecx+2], al
  000c3	e8 00 00 00 00	 call	 ?IsEquipmentSlot@CPythonPlayer@@QAE_NUSItemPos@@@Z ; CPythonPlayer::IsEquipmentSlot
  000c8	84 c0		 test	 al, al
  000ca	74 16		 je	 SHORT $LN12@playerCanR

; 1709 : 	{
; 1710 : 		return Py_BuildValue("i", REFINE_CANT_REFINE_METIN_TO_EQUIPMENT);

  000cc	6a 06		 push	 6

; 1746 : 	}
; 1747 : 
; 1748 : 	return Py_BuildValue("i", REFINE_CANT);
; 1749 : }

  000ce	68 00 00 00 00	 push	 OFFSET ??_C@_01KBJDNOO@i@
  000d3	ff 15 00 00 00
	00		 call	 DWORD PTR __imp__Py_BuildValue
  000d9	83 c4 08	 add	 esp, 8
  000dc	5f		 pop	 edi
  000dd	5e		 pop	 esi
  000de	8b e5		 mov	 esp, ebp
  000e0	5d		 pop	 ebp
  000e1	c3		 ret	 0
$LN12@playerCanR:
; File C:\Anka2Project\Anka2Project\Source\Binary\source\eterBase\Singleton.h

; 26   : 		assert(ms_singleton);

  000e2	8b 0d 00 00 00
	00		 mov	 ecx, DWORD PTR ?ms_singleton@?$CSingleton@VCItemManager@@@@0PAVCItemManager@@A ; CSingleton<CItemManager>::ms_singleton
  000e8	85 c9		 test	 ecx, ecx
  000ea	75 1a		 jne	 SHORT $LN29@playerCanR
  000ec	6a 1a		 push	 26			; 0000001aH
  000ee	68 00 00 00 00	 push	 OFFSET ??_C@_1IO@CAJLEEOI@?$AAC?$AA?3?$AA?2?$AAA?$AAn?$AAk?$AAa?$AA2?$AAP?$AAr?$AAo?$AAj?$AAe?$AAc?$AAt@
  000f3	68 00 00 00 00	 push	 OFFSET ??_C@_1BK@FMEHPMFE@?$AAm?$AAs?$AA_?$AAs?$AAi?$AAn?$AAg?$AAl?$AAe?$AAt?$AAo?$AAn@
  000f8	e8 00 00 00 00	 call	 __wassert
  000fd	8b 0d 00 00 00
	00		 mov	 ecx, DWORD PTR ?ms_singleton@?$CSingleton@VCItemManager@@@@0PAVCItemManager@@A ; CSingleton<CItemManager>::ms_singleton
  00103	83 c4 0c	 add	 esp, 12			; 0000000cH
$LN29@playerCanR:
; File C:\Anka2Project\Anka2Project\Source\Binary\source\UserInterface\PythonPlayerModule.cpp

; 1713 : 	CItemManager::Instance().SelectItemData(iScrollItemIndex);

  00106	ff 75 f4	 push	 DWORD PTR _iScrollItemIndex$[ebp]
  00109	e8 00 00 00 00	 call	 ?SelectItemData@CItemManager@@QAEHK@Z ; CItemManager::SelectItemData
; File C:\Anka2Project\Anka2Project\Source\Binary\source\eterBase\Singleton.h

; 26   : 		assert(ms_singleton);

  0010e	8b 0d 00 00 00
	00		 mov	 ecx, DWORD PTR ?ms_singleton@?$CSingleton@VCItemManager@@@@0PAVCItemManager@@A ; CSingleton<CItemManager>::ms_singleton
  00114	85 c9		 test	 ecx, ecx
  00116	75 1a		 jne	 SHORT $LN32@playerCanR
  00118	6a 1a		 push	 26			; 0000001aH
  0011a	68 00 00 00 00	 push	 OFFSET ??_C@_1IO@CAJLEEOI@?$AAC?$AA?3?$AA?2?$AAA?$AAn?$AAk?$AAa?$AA2?$AAP?$AAr?$AAo?$AAj?$AAe?$AAc?$AAt@
  0011f	68 00 00 00 00	 push	 OFFSET ??_C@_1BK@FMEHPMFE@?$AAm?$AAs?$AA_?$AAs?$AAi?$AAn?$AAg?$AAl?$AAe?$AAt?$AAo?$AAn@
  00124	e8 00 00 00 00	 call	 __wassert
  00129	8b 0d 00 00 00
	00		 mov	 ecx, DWORD PTR ?ms_singleton@?$CSingleton@VCItemManager@@@@0PAVCItemManager@@A ; CSingleton<CItemManager>::ms_singleton
  0012f	83 c4 0c	 add	 esp, 12			; 0000000cH
$LN32@playerCanR:
; File C:\Anka2Project\Anka2Project\Source\Binary\source\UserInterface\PythonPlayerModule.cpp

; 1714 : 	CItemData * pScrollItemData = CItemManager::Instance().GetSelectedItemDataPointer();

  00132	e8 00 00 00 00	 call	 ?GetSelectedItemDataPointer@CItemManager@@QAEPAVCItemData@@XZ ; CItemManager::GetSelectedItemDataPointer
  00137	8b f0		 mov	 esi, eax

; 1715 : 	if (!pScrollItemData)

  00139	85 f6		 test	 esi, esi
  0013b	75 16		 jne	 SHORT $LN13@playerCanR
$LN65@playerCanR:

; 1746 : 	}
; 1747 : 
; 1748 : 	return Py_BuildValue("i", REFINE_CANT);
; 1749 : }

  0013d	6a 00		 push	 0
  0013f	68 00 00 00 00	 push	 OFFSET ??_C@_01KBJDNOO@i@
  00144	ff 15 00 00 00
	00		 call	 DWORD PTR __imp__Py_BuildValue
  0014a	83 c4 08	 add	 esp, 8
  0014d	5f		 pop	 edi
  0014e	5e		 pop	 esi
  0014f	8b e5		 mov	 esp, ebp
  00151	5d		 pop	 ebp
  00152	c3		 ret	 0
$LN13@playerCanR:

; 1716 : 		return Py_BuildValue("i", REFINE_CANT);
; 1717 : 	int iScrollType = pScrollItemData->GetType();

  00153	8b ce		 mov	 ecx, esi
  00155	e8 00 00 00 00	 call	 ?GetType@CItemData@@QBEEXZ ; CItemData::GetType

; 1718 : 	int iScrollSubType = pScrollItemData->GetSubType();

  0015a	8b ce		 mov	 ecx, esi
  0015c	88 45 ff	 mov	 BYTE PTR tv176[ebp], al
  0015f	e8 00 00 00 00	 call	 ?GetSubType@CItemData@@QBEEXZ ; CItemData::GetSubType

; 1719 : 	if (iScrollType != CItemData::ITEM_TYPE_USE)

  00164	80 7d ff 03	 cmp	 BYTE PTR tv176[ebp], 3
  00168	75 d3		 jne	 SHORT $LN65@playerCanR

; 1720 : 		return Py_BuildValue("i", REFINE_CANT);
; 1721 : 	if (iScrollSubType != CItemData::USE_TUNING)

  0016a	3c 02		 cmp	 al, 2
  0016c	75 cf		 jne	 SHORT $LN65@playerCanR
; File C:\Anka2Project\Anka2Project\Source\Binary\source\eterBase\Singleton.h

; 26   : 		assert(ms_singleton);

  0016e	8b 3d 00 00 00
	00		 mov	 edi, DWORD PTR ?ms_singleton@?$CSingleton@VCPythonPlayer@@@@0PAVCPythonPlayer@@A ; CSingleton<CPythonPlayer>::ms_singleton
  00174	85 ff		 test	 edi, edi
  00176	75 1a		 jne	 SHORT $LN35@playerCanR
  00178	6a 1a		 push	 26			; 0000001aH
  0017a	68 00 00 00 00	 push	 OFFSET ??_C@_1IO@CAJLEEOI@?$AAC?$AA?3?$AA?2?$AAA?$AAn?$AAk?$AAa?$AA2?$AAP?$AAr?$AAo?$AAj?$AAe?$AAc?$AAt@
  0017f	68 00 00 00 00	 push	 OFFSET ??_C@_1BK@FMEHPMFE@?$AAm?$AAs?$AA_?$AAs?$AAi?$AAn?$AAg?$AAl?$AAe?$AAt?$AAo?$AAn@
  00184	e8 00 00 00 00	 call	 __wassert
  00189	8b 3d 00 00 00
	00		 mov	 edi, DWORD PTR ?ms_singleton@?$CSingleton@VCPythonPlayer@@@@0PAVCPythonPlayer@@A ; CSingleton<CPythonPlayer>::ms_singleton
  0018f	83 c4 0c	 add	 esp, 12			; 0000000cH
$LN35@playerCanR:
; File C:\Anka2Project\Anka2Project\Source\Binary\source\UserInterface\PythonPlayerModule.cpp

; 1724 : 	int iTargetItemIndex = CPythonPlayer::Instance().GetItemIndex(TargetSlotIndex);

  00192	8b 47 04	 mov	 eax, DWORD PTR [edi+4]
  00195	8a 4d fa	 mov	 cl, BYTE PTR _TargetSlotIndex$[ebp+2]
  00198	66 8b 55 f8	 mov	 dx, WORD PTR _TargetSlotIndex$[ebp]
  0019c	51		 push	 ecx
  0019d	8b 70 48	 mov	 esi, DWORD PTR [eax+72]
  001a0	8b c4		 mov	 eax, esp
  001a2	66 89 10	 mov	 WORD PTR [eax], dx
  001a5	88 48 02	 mov	 BYTE PTR [eax+2], cl
  001a8	8d 4f 04	 lea	 ecx, DWORD PTR [edi+4]
  001ab	ff d6		 call	 esi
; File C:\Anka2Project\Anka2Project\Source\Binary\source\eterBase\Singleton.h

; 26   : 		assert(ms_singleton);

  001ad	8b 0d 00 00 00
	00		 mov	 ecx, DWORD PTR ?ms_singleton@?$CSingleton@VCItemManager@@@@0PAVCItemManager@@A ; CSingleton<CItemManager>::ms_singleton
; File C:\Anka2Project\Anka2Project\Source\Binary\source\UserInterface\PythonPlayerModule.cpp

; 1724 : 	int iTargetItemIndex = CPythonPlayer::Instance().GetItemIndex(TargetSlotIndex);

  001b3	8b f0		 mov	 esi, eax
; File C:\Anka2Project\Anka2Project\Source\Binary\source\eterBase\Singleton.h

; 26   : 		assert(ms_singleton);

  001b5	85 c9		 test	 ecx, ecx
  001b7	75 1a		 jne	 SHORT $LN38@playerCanR
  001b9	6a 1a		 push	 26			; 0000001aH
  001bb	68 00 00 00 00	 push	 OFFSET ??_C@_1IO@CAJLEEOI@?$AAC?$AA?3?$AA?2?$AAA?$AAn?$AAk?$AAa?$AA2?$AAP?$AAr?$AAo?$AAj?$AAe?$AAc?$AAt@
  001c0	68 00 00 00 00	 push	 OFFSET ??_C@_1BK@FMEHPMFE@?$AAm?$AAs?$AA_?$AAs?$AAi?$AAn?$AAg?$AAl?$AAe?$AAt?$AAo?$AAn@
  001c5	e8 00 00 00 00	 call	 __wassert
  001ca	8b 0d 00 00 00
	00		 mov	 ecx, DWORD PTR ?ms_singleton@?$CSingleton@VCItemManager@@@@0PAVCItemManager@@A ; CSingleton<CItemManager>::ms_singleton
  001d0	83 c4 0c	 add	 esp, 12			; 0000000cH
$LN38@playerCanR:
; File C:\Anka2Project\Anka2Project\Source\Binary\source\UserInterface\PythonPlayerModule.cpp

; 1725 : 	CItemManager::Instance().SelectItemData(iTargetItemIndex);

  001d3	56		 push	 esi
  001d4	e8 00 00 00 00	 call	 ?SelectItemData@CItemManager@@QAEHK@Z ; CItemManager::SelectItemData
; File C:\Anka2Project\Anka2Project\Source\Binary\source\eterBase\Singleton.h

; 26   : 		assert(ms_singleton);

  001d9	8b 0d 00 00 00
	00		 mov	 ecx, DWORD PTR ?ms_singleton@?$CSingleton@VCItemManager@@@@0PAVCItemManager@@A ; CSingleton<CItemManager>::ms_singleton
  001df	85 c9		 test	 ecx, ecx
  001e1	75 1a		 jne	 SHORT $LN41@playerCanR
  001e3	6a 1a		 push	 26			; 0000001aH
  001e5	68 00 00 00 00	 push	 OFFSET ??_C@_1IO@CAJLEEOI@?$AAC?$AA?3?$AA?2?$AAA?$AAn?$AAk?$AAa?$AA2?$AAP?$AAr?$AAo?$AAj?$AAe?$AAc?$AAt@
  001ea	68 00 00 00 00	 push	 OFFSET ??_C@_1BK@FMEHPMFE@?$AAm?$AAs?$AA_?$AAs?$AAi?$AAn?$AAg?$AAl?$AAe?$AAt?$AAo?$AAn@
  001ef	e8 00 00 00 00	 call	 __wassert
  001f4	8b 0d 00 00 00
	00		 mov	 ecx, DWORD PTR ?ms_singleton@?$CSingleton@VCItemManager@@@@0PAVCItemManager@@A ; CSingleton<CItemManager>::ms_singleton
  001fa	83 c4 0c	 add	 esp, 12			; 0000000cH
$LN41@playerCanR:
; File C:\Anka2Project\Anka2Project\Source\Binary\source\UserInterface\PythonPlayerModule.cpp

; 1726 : 	CItemData * pTargetItemData = CItemManager::Instance().GetSelectedItemDataPointer();

  001fd	e8 00 00 00 00	 call	 ?GetSelectedItemDataPointer@CItemManager@@QAEPAVCItemData@@XZ ; CItemManager::GetSelectedItemDataPointer
  00202	8b f0		 mov	 esi, eax

; 1727 : 	if (!pTargetItemData)

  00204	85 f6		 test	 esi, esi
  00206	0f 84 31 ff ff
	ff		 je	 $LN65@playerCanR

; 1728 : 		return Py_BuildValue("i", REFINE_CANT);
; 1729 : 
; 1730 : 	int iTargetType = pTargetItemData->GetType();

  0020c	8b ce		 mov	 ecx, esi
  0020e	e8 00 00 00 00	 call	 ?GetType@CItemData@@QBEEXZ ; CItemData::GetType

; 1731 : 	if (CItemData::ITEM_TYPE_ROD == iTargetType)

  00213	3c 0d		 cmp	 al, 13			; 0000000dH
  00215	75 16		 jne	 SHORT $LN17@playerCanR

; 1732 : 		return Py_BuildValue("i", REFINE_CANT_REFINE_ROD);

  00217	6a 07		 push	 7

; 1746 : 	}
; 1747 : 
; 1748 : 	return Py_BuildValue("i", REFINE_CANT);
; 1749 : }

  00219	68 00 00 00 00	 push	 OFFSET ??_C@_01KBJDNOO@i@
  0021e	ff 15 00 00 00
	00		 call	 DWORD PTR __imp__Py_BuildValue
  00224	83 c4 08	 add	 esp, 8
  00227	5f		 pop	 edi
  00228	5e		 pop	 esi
  00229	8b e5		 mov	 esp, ebp
  0022b	5d		 pop	 ebp
  0022c	c3		 ret	 0
$LN17@playerCanR:

; 1733 : 
; 1734 : #ifdef ENABLE_AURA_COSTUME_SYSTEM
; 1735 : 	if (pTargetItemData->GetType() == CItemData::ITEM_TYPE_COSTUME && pTargetItemData->GetSubType() == CItemData::COSTUME_AURA)

  0022d	8b ce		 mov	 ecx, esi
  0022f	e8 00 00 00 00	 call	 ?GetType@CItemData@@QBEEXZ ; CItemData::GetType
  00234	3c 1c		 cmp	 al, 28			; 0000001cH
  00236	75 21		 jne	 SHORT $LN18@playerCanR
  00238	8b ce		 mov	 ecx, esi
  0023a	e8 00 00 00 00	 call	 ?GetSubType@CItemData@@QBEEXZ ; CItemData::GetSubType
  0023f	3c 06		 cmp	 al, 6
  00241	75 16		 jne	 SHORT $LN18@playerCanR

; 1736 : 		return Py_BuildValue("i", REFINE_CANT_REFINE_AURA_ITEM);

  00243	6a 08		 push	 8

; 1746 : 	}
; 1747 : 
; 1748 : 	return Py_BuildValue("i", REFINE_CANT);
; 1749 : }

  00245	68 00 00 00 00	 push	 OFFSET ??_C@_01KBJDNOO@i@
  0024a	ff 15 00 00 00
	00		 call	 DWORD PTR __imp__Py_BuildValue
  00250	83 c4 08	 add	 esp, 8
  00253	5f		 pop	 edi
  00254	5e		 pop	 esi
  00255	8b e5		 mov	 esp, ebp
  00257	5d		 pop	 ebp
  00258	c3		 ret	 0
$LN18@playerCanR:

; 1737 : #endif
; 1738 : 
; 1739 : 	if (pTargetItemData->HasNextGrade())

  00259	8b ce		 mov	 ecx, esi
  0025b	e8 00 00 00 00	 call	 ?HasNextGrade@CItemData@@QBEHXZ ; CItemData::HasNextGrade
  00260	85 c0		 test	 eax, eax
  00262	74 16		 je	 SHORT $LN19@playerCanR

; 1740 : 	{
; 1741 : 		return Py_BuildValue("i", REFINE_OK);

  00264	6a 01		 push	 1

; 1746 : 	}
; 1747 : 
; 1748 : 	return Py_BuildValue("i", REFINE_CANT);
; 1749 : }

  00266	68 00 00 00 00	 push	 OFFSET ??_C@_01KBJDNOO@i@
  0026b	ff 15 00 00 00
	00		 call	 DWORD PTR __imp__Py_BuildValue
  00271	83 c4 08	 add	 esp, 8
  00274	5f		 pop	 edi
  00275	5e		 pop	 esi
  00276	8b e5		 mov	 esp, ebp
  00278	5d		 pop	 ebp
  00279	c3		 ret	 0
$LN19@playerCanR:

; 1742 : 	}
; 1743 : 	else
; 1744 : 	{
; 1745 : 		return Py_BuildValue("i", REFINE_NOT_NEXT_GRADE_ITEM);

  0027a	6a 05		 push	 5

; 1746 : 	}
; 1747 : 
; 1748 : 	return Py_BuildValue("i", REFINE_CANT);
; 1749 : }

  0027c	68 00 00 00 00	 push	 OFFSET ??_C@_01KBJDNOO@i@
  00281	ff 15 00 00 00
	00		 call	 DWORD PTR __imp__Py_BuildValue
  00287	83 c4 08	 add	 esp, 8
  0028a	5f		 pop	 edi
  0028b	5e		 pop	 esi
  0028c	8b e5		 mov	 esp, ebp
  0028e	5d		 pop	 ebp
  0028f	c3		 ret	 0
?playerCanRefine@@YAPAU_object@@PAU1@0@Z ENDP		; playerCanRefine
_TEXT	ENDS
; Function compile flags: /Ogtp
; File C:\Anka2Project\Anka2Project\Source\Binary\source\UserInterface\PythonPlayerModule.cpp
; File C:\Anka2Project\Anka2Project\Source\Binary\source\UserInterface\GameType.h
; File C:\Anka2Project\Anka2Project\Source\Binary\source\UserInterface\PythonPlayerModule.cpp
; File C:\Anka2Project\Anka2Project\Source\Binary\source\UserInterface\GameType.h
; File C:\Anka2Project\Anka2Project\Source\Binary\source\UserInterface\PythonPlayerModule.cpp
; File C:\Anka2Project\Anka2Project\Source\Binary\source\eterBase\Singleton.h
; File C:\Anka2Project\Anka2Project\Source\Binary\source\UserInterface\PythonPlayerModule.cpp
; File C:\Anka2Project\Anka2Project\Source\Binary\source\eterBase\Singleton.h
; File C:\Anka2Project\Anka2Project\Source\Binary\source\UserInterface\PythonPlayerModule.cpp
; File C:\Anka2Project\Anka2Project\Source\Binary\source\eterBase\Singleton.h
; File C:\Anka2Project\Anka2Project\Source\Binary\source\UserInterface\PythonPlayerModule.cpp
; File C:\Anka2Project\Anka2Project\Source\Binary\source\eterBase\Singleton.h
; File C:\Anka2Project\Anka2Project\Source\Binary\source\UserInterface\PythonPlayerModule.cpp
; File C:\Anka2Project\Anka2Project\Source\Binary\source\eterBase\Singleton.h
; File C:\Anka2Project\Anka2Project\Source\Binary\source\UserInterface\PythonPlayerModule.cpp
; File C:\Anka2Project\Anka2Project\Source\Binary\source\eterBase\Singleton.h
; File C:\Anka2Project\Anka2Project\Source\Binary\source\UserInterface\PythonPlayerModule.cpp
;	COMDAT ?playerCanAttachMetin@@YAPAU_object@@PAU1@0@Z
_TEXT	SEGMENT
_pMetinItemData$ = -20					; size = 4
_pTargetItemData$ = -16					; size = 4
_iMetinItemID$ = -12					; size = 4
_TargetSlotIndex$ = -8					; size = 3
tv239 = -1						; size = 1
_poSelf$ = 8						; size = 4
_poArgs$ = 12						; size = 4
?playerCanAttachMetin@@YAPAU_object@@PAU1@0@Z PROC	; playerCanAttachMetin, COMDAT

; 1762 : {

  00000	55		 push	 ebp
  00001	8b ec		 mov	 ebp, esp
  00003	83 ec 14	 sub	 esp, 20			; 00000014H
  00006	56		 push	 esi

; 1766 : 	switch (PyTuple_Size(poArgs))

  00007	8b 75 0c	 mov	 esi, DWORD PTR _poArgs$[ebp]
; File C:\Anka2Project\Anka2Project\Source\Binary\source\UserInterface\GameType.h

; 448  : 		cell = WORD_MAX;

  0000a	b8 ff ff 00 00	 mov	 eax, 65535		; 0000ffffH
; File C:\Anka2Project\Anka2Project\Source\Binary\source\UserInterface\PythonPlayerModule.cpp

; 1762 : {

  0000f	57		 push	 edi

; 1766 : 	switch (PyTuple_Size(poArgs))

  00010	56		 push	 esi
; File C:\Anka2Project\Anka2Project\Source\Binary\source\UserInterface\GameType.h

; 447  : 		window_type = INVENTORY;

  00011	c6 45 f8 01	 mov	 BYTE PTR _TargetSlotIndex$[ebp], 1

; 448  : 		cell = WORD_MAX;

  00015	66 89 45 f9	 mov	 WORD PTR _TargetSlotIndex$[ebp+1], ax
; File C:\Anka2Project\Anka2Project\Source\Binary\source\UserInterface\PythonPlayerModule.cpp

; 1766 : 	switch (PyTuple_Size(poArgs))

  00019	ff 15 00 00 00
	00		 call	 DWORD PTR __imp__PyTuple_Size
  0001f	83 c4 04	 add	 esp, 4
  00022	83 e8 02	 sub	 eax, 2
  00025	74 4e		 je	 SHORT $LN7@playerCanA
  00027	83 e8 01	 sub	 eax, 1
  0002a	75 39		 jne	 SHORT $LN77@playerCanA

; 1772 : 			return Py_BuildException();
; 1773 : 		break;
; 1774 : 	case 3:
; 1775 : 		if (!PyTuple_GetInteger(poArgs, 0, &iMetinItemID))

  0002c	8d 45 f4	 lea	 eax, DWORD PTR _iMetinItemID$[ebp]
  0002f	50		 push	 eax
  00030	6a 00		 push	 0
  00032	56		 push	 esi
  00033	e8 00 00 00 00	 call	 ?PyTuple_GetInteger@@YA_NPAU_object@@HPAH@Z ; PyTuple_GetInteger
  00038	83 c4 0c	 add	 esp, 12			; 0000000cH
  0003b	84 c0		 test	 al, al
  0003d	74 26		 je	 SHORT $LN77@playerCanA

; 1776 : 			return Py_BuildException();
; 1777 : 		if (!PyTuple_GetInteger(poArgs, 1, &TargetSlotIndex.window_type))

  0003f	8d 45 f8	 lea	 eax, DWORD PTR _TargetSlotIndex$[ebp]
  00042	50		 push	 eax
  00043	6a 01		 push	 1
  00045	56		 push	 esi
  00046	e8 00 00 00 00	 call	 ?PyTuple_GetInteger@@YA_NPAU_object@@HPAE@Z ; PyTuple_GetInteger
  0004b	83 c4 0c	 add	 esp, 12			; 0000000cH
  0004e	84 c0		 test	 al, al
  00050	74 13		 je	 SHORT $LN77@playerCanA

; 1778 : 			return Py_BuildException();
; 1779 : 		if (!PyTuple_GetInteger(poArgs, 2, &TargetSlotIndex.cell))

  00052	8d 45 f9	 lea	 eax, DWORD PTR _TargetSlotIndex$[ebp+1]
  00055	50		 push	 eax
  00056	6a 02		 push	 2
  00058	56		 push	 esi
  00059	e8 00 00 00 00	 call	 ?PyTuple_GetInteger@@YA_NPAU_object@@HPAG@Z ; PyTuple_GetInteger
  0005e	83 c4 0c	 add	 esp, 12			; 0000000cH
  00061	84 c0		 test	 al, al
  00063	75 36		 jne	 SHORT $LN9@playerCanA
$LN77@playerCanA:

; 1839 : }

  00065	6a 00		 push	 0
  00067	e8 00 00 00 00	 call	 ?Py_BuildException@@YAPAU_object@@PBDZZ ; Py_BuildException
  0006c	83 c4 04	 add	 esp, 4
  0006f	5f		 pop	 edi
  00070	5e		 pop	 esi
  00071	8b e5		 mov	 esp, ebp
  00073	5d		 pop	 ebp
  00074	c3		 ret	 0
$LN7@playerCanA:

; 1767 : 	{
; 1768 : 	case 2:
; 1769 : 		if (!PyTuple_GetInteger(poArgs, 0, &iMetinItemID))

  00075	8d 45 f4	 lea	 eax, DWORD PTR _iMetinItemID$[ebp]
  00078	50		 push	 eax
  00079	6a 00		 push	 0
  0007b	56		 push	 esi
  0007c	e8 00 00 00 00	 call	 ?PyTuple_GetInteger@@YA_NPAU_object@@HPAH@Z ; PyTuple_GetInteger
  00081	83 c4 0c	 add	 esp, 12			; 0000000cH
  00084	84 c0		 test	 al, al
  00086	74 dd		 je	 SHORT $LN77@playerCanA

; 1770 : 			return Py_BuildException();
; 1771 : 		if (!PyTuple_GetInteger(poArgs, 1, &TargetSlotIndex.cell))

  00088	8d 45 f9	 lea	 eax, DWORD PTR _TargetSlotIndex$[ebp+1]
  0008b	50		 push	 eax
  0008c	6a 01		 push	 1
  0008e	56		 push	 esi
  0008f	e8 00 00 00 00	 call	 ?PyTuple_GetInteger@@YA_NPAU_object@@HPAG@Z ; PyTuple_GetInteger
  00094	83 c4 0c	 add	 esp, 12			; 0000000cH
  00097	84 c0		 test	 al, al
  00099	74 ca		 je	 SHORT $LN77@playerCanA
$LN9@playerCanA:
; File C:\Anka2Project\Anka2Project\Source\Binary\source\eterBase\Singleton.h

; 26   : 		assert(ms_singleton);

  0009b	83 3d 00 00 00
	00 00		 cmp	 DWORD PTR ?ms_singleton@?$CSingleton@VCPythonPlayer@@@@0PAVCPythonPlayer@@A, 0 ; CSingleton<CPythonPlayer>::ms_singleton
  000a2	75 14		 jne	 SHORT $LN34@playerCanA
  000a4	6a 1a		 push	 26			; 0000001aH
  000a6	68 00 00 00 00	 push	 OFFSET ??_C@_1IO@CAJLEEOI@?$AAC?$AA?3?$AA?2?$AAA?$AAn?$AAk?$AAa?$AA2?$AAP?$AAr?$AAo?$AAj?$AAe?$AAc?$AAt@
  000ab	68 00 00 00 00	 push	 OFFSET ??_C@_1BK@FMEHPMFE@?$AAm?$AAs?$AA_?$AAs?$AAi?$AAn?$AAg?$AAl?$AAe?$AAt?$AAo?$AAn@
  000b0	e8 00 00 00 00	 call	 __wassert
  000b5	83 c4 0c	 add	 esp, 12			; 0000000cH
$LN34@playerCanA:
; File C:\Anka2Project\Anka2Project\Source\Binary\source\UserInterface\PythonPlayerModule.cpp

; 1785 : 	if (CPythonPlayer::Instance().IsEquipmentSlot(TargetSlotIndex))

  000b8	66 8b 45 f8	 mov	 ax, WORD PTR _TargetSlotIndex$[ebp]
  000bc	51		 push	 ecx
  000bd	8b cc		 mov	 ecx, esp
  000bf	66 89 01	 mov	 WORD PTR [ecx], ax
  000c2	8a 45 fa	 mov	 al, BYTE PTR _TargetSlotIndex$[ebp+2]
  000c5	88 41 02	 mov	 BYTE PTR [ecx+2], al
  000c8	e8 00 00 00 00	 call	 ?IsEquipmentSlot@CPythonPlayer@@QAE_NUSItemPos@@@Z ; CPythonPlayer::IsEquipmentSlot
  000cd	84 c0		 test	 al, al
  000cf	74 16		 je	 SHORT $LN15@playerCanA

; 1786 : 	{
; 1787 : 		return Py_BuildValue("i", ATTACH_METIN_CANT_ATTACH_TO_EQUIPMENT);

  000d1	6a 05		 push	 5

; 1839 : }

  000d3	68 00 00 00 00	 push	 OFFSET ??_C@_01KBJDNOO@i@
  000d8	ff 15 00 00 00
	00		 call	 DWORD PTR __imp__Py_BuildValue
  000de	83 c4 08	 add	 esp, 8
  000e1	5f		 pop	 edi
  000e2	5e		 pop	 esi
  000e3	8b e5		 mov	 esp, ebp
  000e5	5d		 pop	 ebp
  000e6	c3		 ret	 0
$LN15@playerCanA:
; File C:\Anka2Project\Anka2Project\Source\Binary\source\eterBase\Singleton.h

; 26   : 		assert(ms_singleton);

  000e7	8b 0d 00 00 00
	00		 mov	 ecx, DWORD PTR ?ms_singleton@?$CSingleton@VCItemManager@@@@0PAVCItemManager@@A ; CSingleton<CItemManager>::ms_singleton
  000ed	85 c9		 test	 ecx, ecx
  000ef	75 1a		 jne	 SHORT $LN37@playerCanA
  000f1	6a 1a		 push	 26			; 0000001aH
  000f3	68 00 00 00 00	 push	 OFFSET ??_C@_1IO@CAJLEEOI@?$AAC?$AA?3?$AA?2?$AAA?$AAn?$AAk?$AAa?$AA2?$AAP?$AAr?$AAo?$AAj?$AAe?$AAc?$AAt@
  000f8	68 00 00 00 00	 push	 OFFSET ??_C@_1BK@FMEHPMFE@?$AAm?$AAs?$AA_?$AAs?$AAi?$AAn?$AAg?$AAl?$AAe?$AAt?$AAo?$AAn@
  000fd	e8 00 00 00 00	 call	 __wassert
  00102	8b 0d 00 00 00
	00		 mov	 ecx, DWORD PTR ?ms_singleton@?$CSingleton@VCItemManager@@@@0PAVCItemManager@@A ; CSingleton<CItemManager>::ms_singleton
  00108	83 c4 0c	 add	 esp, 12			; 0000000cH
$LN37@playerCanA:
; File C:\Anka2Project\Anka2Project\Source\Binary\source\UserInterface\PythonPlayerModule.cpp

; 1791 : 	if (!CItemManager::Instance().GetItemDataPointer(iMetinItemID, &pMetinItemData))

  0010b	8d 45 ec	 lea	 eax, DWORD PTR _pMetinItemData$[ebp]
  0010e	50		 push	 eax
  0010f	ff 75 f4	 push	 DWORD PTR _iMetinItemID$[ebp]
  00112	e8 00 00 00 00	 call	 ?GetItemDataPointer@CItemManager@@QAEHKPAPAVCItemData@@@Z ; CItemManager::GetItemDataPointer
  00117	85 c0		 test	 eax, eax
  00119	75 13		 jne	 SHORT $LN16@playerCanA
$LN78@playerCanA:

; 1839 : }

  0011b	68 00 00 00 00	 push	 OFFSET ??_C@_0BF@IBGKLIMC@can?8t?5find?5item?5data@
  00120	e8 00 00 00 00	 call	 ?Py_BuildException@@YAPAU_object@@PBDZZ ; Py_BuildException
  00125	83 c4 04	 add	 esp, 4
  00128	5f		 pop	 edi
  00129	5e		 pop	 esi
  0012a	8b e5		 mov	 esp, ebp
  0012c	5d		 pop	 ebp
  0012d	c3		 ret	 0
$LN16@playerCanA:
; File C:\Anka2Project\Anka2Project\Source\Binary\source\eterBase\Singleton.h

; 26   : 		assert(ms_singleton);

  0012e	8b 3d 00 00 00
	00		 mov	 edi, DWORD PTR ?ms_singleton@?$CSingleton@VCPythonPlayer@@@@0PAVCPythonPlayer@@A ; CSingleton<CPythonPlayer>::ms_singleton
  00134	85 ff		 test	 edi, edi
  00136	75 1a		 jne	 SHORT $LN40@playerCanA
  00138	6a 1a		 push	 26			; 0000001aH
  0013a	68 00 00 00 00	 push	 OFFSET ??_C@_1IO@CAJLEEOI@?$AAC?$AA?3?$AA?2?$AAA?$AAn?$AAk?$AAa?$AA2?$AAP?$AAr?$AAo?$AAj?$AAe?$AAc?$AAt@
  0013f	68 00 00 00 00	 push	 OFFSET ??_C@_1BK@FMEHPMFE@?$AAm?$AAs?$AA_?$AAs?$AAi?$AAn?$AAg?$AAl?$AAe?$AAt?$AAo?$AAn@
  00144	e8 00 00 00 00	 call	 __wassert
  00149	8b 3d 00 00 00
	00		 mov	 edi, DWORD PTR ?ms_singleton@?$CSingleton@VCPythonPlayer@@@@0PAVCPythonPlayer@@A ; CSingleton<CPythonPlayer>::ms_singleton
  0014f	83 c4 0c	 add	 esp, 12			; 0000000cH
$LN40@playerCanA:
; File C:\Anka2Project\Anka2Project\Source\Binary\source\UserInterface\PythonPlayerModule.cpp

; 1794 : 	DWORD dwTargetItemIndex = CPythonPlayer::Instance().GetItemIndex(TargetSlotIndex);

  00152	8b 47 04	 mov	 eax, DWORD PTR [edi+4]
  00155	8a 4d fa	 mov	 cl, BYTE PTR _TargetSlotIndex$[ebp+2]
  00158	66 8b 55 f8	 mov	 dx, WORD PTR _TargetSlotIndex$[ebp]
  0015c	51		 push	 ecx
  0015d	8b 70 48	 mov	 esi, DWORD PTR [eax+72]
  00160	8b c4		 mov	 eax, esp
  00162	66 89 10	 mov	 WORD PTR [eax], dx
  00165	88 48 02	 mov	 BYTE PTR [eax+2], cl
  00168	8d 4f 04	 lea	 ecx, DWORD PTR [edi+4]
  0016b	ff d6		 call	 esi
; File C:\Anka2Project\Anka2Project\Source\Binary\source\eterBase\Singleton.h

; 26   : 		assert(ms_singleton);

  0016d	8b 0d 00 00 00
	00		 mov	 ecx, DWORD PTR ?ms_singleton@?$CSingleton@VCItemManager@@@@0PAVCItemManager@@A ; CSingleton<CItemManager>::ms_singleton
; File C:\Anka2Project\Anka2Project\Source\Binary\source\UserInterface\PythonPlayerModule.cpp

; 1794 : 	DWORD dwTargetItemIndex = CPythonPlayer::Instance().GetItemIndex(TargetSlotIndex);

  00173	8b f0		 mov	 esi, eax
; File C:\Anka2Project\Anka2Project\Source\Binary\source\eterBase\Singleton.h

; 26   : 		assert(ms_singleton);

  00175	85 c9		 test	 ecx, ecx
  00177	75 1a		 jne	 SHORT $LN43@playerCanA
  00179	6a 1a		 push	 26			; 0000001aH
  0017b	68 00 00 00 00	 push	 OFFSET ??_C@_1IO@CAJLEEOI@?$AAC?$AA?3?$AA?2?$AAA?$AAn?$AAk?$AAa?$AA2?$AAP?$AAr?$AAo?$AAj?$AAe?$AAc?$AAt@
  00180	68 00 00 00 00	 push	 OFFSET ??_C@_1BK@FMEHPMFE@?$AAm?$AAs?$AA_?$AAs?$AAi?$AAn?$AAg?$AAl?$AAe?$AAt?$AAo?$AAn@
  00185	e8 00 00 00 00	 call	 __wassert
  0018a	8b 0d 00 00 00
	00		 mov	 ecx, DWORD PTR ?ms_singleton@?$CSingleton@VCItemManager@@@@0PAVCItemManager@@A ; CSingleton<CItemManager>::ms_singleton
  00190	83 c4 0c	 add	 esp, 12			; 0000000cH
$LN43@playerCanA:
; File C:\Anka2Project\Anka2Project\Source\Binary\source\UserInterface\PythonPlayerModule.cpp

; 1796 : 	if (!CItemManager::Instance().GetItemDataPointer(dwTargetItemIndex, &pTargetItemData))

  00193	8d 45 f0	 lea	 eax, DWORD PTR _pTargetItemData$[ebp]
  00196	50		 push	 eax
  00197	56		 push	 esi
  00198	e8 00 00 00 00	 call	 ?GetItemDataPointer@CItemManager@@QAEHKPAPAVCItemData@@@Z ; CItemManager::GetItemDataPointer
  0019d	85 c0		 test	 eax, eax
  0019f	0f 84 76 ff ff
	ff		 je	 $LN78@playerCanA

; 1797 : 		return Py_BuildException("can't find item data");
; 1798 : 
; 1799 : 	DWORD dwMetinWearFlags = pMetinItemData->GetWearFlags();

  001a5	8b 4d ec	 mov	 ecx, DWORD PTR _pMetinItemData$[ebp]
  001a8	e8 00 00 00 00	 call	 ?GetWearFlags@CItemData@@QBEKXZ ; CItemData::GetWearFlags

; 1800 : 	DWORD dwTargetWearFlags = pTargetItemData->GetWearFlags();

  001ad	8b 4d f0	 mov	 ecx, DWORD PTR _pTargetItemData$[ebp]
  001b0	8b f0		 mov	 esi, eax
  001b2	e8 00 00 00 00	 call	 ?GetWearFlags@CItemData@@QBEKXZ ; CItemData::GetWearFlags

; 1801 : 	if (0 == (dwMetinWearFlags & dwTargetWearFlags))

  001b7	85 c6		 test	 eax, esi
  001b9	75 16		 jne	 SHORT $LN18@playerCanA

; 1802 : 		return Py_BuildValue("i", ATTACH_METIN_NOT_MATCHABLE_ITEM);

  001bb	6a 02		 push	 2

; 1839 : }

  001bd	68 00 00 00 00	 push	 OFFSET ??_C@_01KBJDNOO@i@
  001c2	ff 15 00 00 00
	00		 call	 DWORD PTR __imp__Py_BuildValue
  001c8	83 c4 08	 add	 esp, 8
  001cb	5f		 pop	 edi
  001cc	5e		 pop	 esi
  001cd	8b e5		 mov	 esp, ebp
  001cf	5d		 pop	 ebp
  001d0	c3		 ret	 0
$LN18@playerCanA:

; 1803 : 	if (CItemData::ITEM_TYPE_ROD == pTargetItemData->GetType())

  001d1	8b 4d f0	 mov	 ecx, DWORD PTR _pTargetItemData$[ebp]
  001d4	e8 00 00 00 00	 call	 ?GetType@CItemData@@QBEEXZ ; CItemData::GetType
  001d9	3c 0d		 cmp	 al, 13			; 0000000dH
  001db	75 16		 jne	 SHORT $LN19@playerCanA

; 1804 : 		return Py_BuildValue("i", ATTACH_METIN_CANT);

  001dd	6a 00		 push	 0

; 1839 : }

  001df	68 00 00 00 00	 push	 OFFSET ??_C@_01KBJDNOO@i@
  001e4	ff 15 00 00 00
	00		 call	 DWORD PTR __imp__Py_BuildValue
  001ea	83 c4 08	 add	 esp, 8
  001ed	5f		 pop	 edi
  001ee	5e		 pop	 esi
  001ef	8b e5		 mov	 esp, ebp
  001f1	5d		 pop	 ebp
  001f2	c3		 ret	 0
$LN19@playerCanA:

; 1805 : 
; 1806 : 	BOOL bNotExistGoldSocket = FALSE;
; 1807 : 
; 1808 : 	int iSubType = pMetinItemData->GetSubType();

  001f3	8b 4d ec	 mov	 ecx, DWORD PTR _pMetinItemData$[ebp]
  001f6	33 ff		 xor	 edi, edi
  001f8	e8 00 00 00 00	 call	 ?GetSubType@CItemData@@QBEEXZ ; CItemData::GetSubType
  001fd	88 45 ff	 mov	 BYTE PTR tv239[ebp], al

; 1809 : 	for (int i = 0; i < ITEM_SOCKET_SLOT_MAX_NUM; ++i)

  00200	33 f6		 xor	 esi, esi
$LL6@playerCanA:
; File C:\Anka2Project\Anka2Project\Source\Binary\source\eterBase\Singleton.h

; 26   : 		assert(ms_singleton);

  00202	83 3d 00 00 00
	00 00		 cmp	 DWORD PTR ?ms_singleton@?$CSingleton@VCPythonPlayer@@@@0PAVCPythonPlayer@@A, 0 ; CSingleton<CPythonPlayer>::ms_singleton
  00209	75 14		 jne	 SHORT $LN46@playerCanA
  0020b	6a 1a		 push	 26			; 0000001aH
  0020d	68 00 00 00 00	 push	 OFFSET ??_C@_1IO@CAJLEEOI@?$AAC?$AA?3?$AA?2?$AAA?$AAn?$AAk?$AAa?$AA2?$AAP?$AAr?$AAo?$AAj?$AAe?$AAc?$AAt@
  00212	68 00 00 00 00	 push	 OFFSET ??_C@_1BK@FMEHPMFE@?$AAm?$AAs?$AA_?$AAs?$AAi?$AAn?$AAg?$AAl?$AAe?$AAt?$AAo?$AAn@
  00217	e8 00 00 00 00	 call	 __wassert
  0021c	83 c4 0c	 add	 esp, 12			; 0000000cH
$LN46@playerCanA:
; File C:\Anka2Project\Anka2Project\Source\Binary\source\UserInterface\PythonPlayerModule.cpp

; 1811 : 		DWORD dwSocketType = CPythonPlayer::Instance().GetItemMetinSocket(TargetSlotIndex, i);

  0021f	66 8b 45 f8	 mov	 ax, WORD PTR _TargetSlotIndex$[ebp]
  00223	56		 push	 esi
  00224	51		 push	 ecx
  00225	8b cc		 mov	 ecx, esp
  00227	66 89 01	 mov	 WORD PTR [ecx], ax
  0022a	8a 45 fa	 mov	 al, BYTE PTR _TargetSlotIndex$[ebp+2]
  0022d	88 41 02	 mov	 BYTE PTR [ecx+2], al
  00230	8b 0d 00 00 00
	00		 mov	 ecx, DWORD PTR ?ms_singleton@?$CSingleton@VCPythonPlayer@@@@0PAVCPythonPlayer@@A ; CSingleton<CPythonPlayer>::ms_singleton
  00236	e8 00 00 00 00	 call	 ?GetItemMetinSocket@CPythonPlayer@@QAEKUSItemPos@@K@Z ; CPythonPlayer::GetItemMetinSocket

; 1812 : 		if (CItemData::METIN_NORMAL == iSubType)

  0023b	8a 4d ff	 mov	 cl, BYTE PTR tv239[ebp]
  0023e	84 c9		 test	 cl, cl
  00240	75 20		 jne	 SHORT $LN20@playerCanA

; 1813 : 		{
; 1814 : 			if (CPythonPlayer::METIN_SOCKET_TYPE_SILVER == dwSocketType ||

  00242	83 f8 01	 cmp	 eax, 1
  00245	74 05		 je	 SHORT $LN48@playerCanA
  00247	83 f8 02	 cmp	 eax, 2
  0024a	75 2b		 jne	 SHORT $LN4@playerCanA
$LN48@playerCanA:

; 1839 : }

  0024c	6a 01		 push	 1
  0024e	68 00 00 00 00	 push	 OFFSET ??_C@_01KBJDNOO@i@
  00253	ff 15 00 00 00
	00		 call	 DWORD PTR __imp__Py_BuildValue
  00259	83 c4 08	 add	 esp, 8
  0025c	5f		 pop	 edi
  0025d	5e		 pop	 esi
  0025e	8b e5		 mov	 esp, ebp
  00260	5d		 pop	 ebp
  00261	c3		 ret	 0
$LN20@playerCanA:

; 1815 : 				CPythonPlayer::METIN_SOCKET_TYPE_GOLD == dwSocketType)
; 1816 : 			{
; 1817 : 				return Py_BuildValue("i", ATTACH_METIN_OK);
; 1818 : 			}
; 1819 : 		}
; 1820 : 		else if (CItemData::METIN_GOLD == iSubType)

  00262	80 f9 01	 cmp	 cl, 1
  00265	75 10		 jne	 SHORT $LN4@playerCanA

; 1821 : 		{
; 1822 : 			if (CPythonPlayer::METIN_SOCKET_TYPE_GOLD == dwSocketType)

  00267	83 f8 02	 cmp	 eax, 2
  0026a	74 e0		 je	 SHORT $LN48@playerCanA

; 1823 : 			{
; 1824 : 				return Py_BuildValue("i", ATTACH_METIN_OK);
; 1825 : 			}
; 1826 : 			else if (CPythonPlayer::METIN_SOCKET_TYPE_SILVER == dwSocketType)

  0026c	83 f8 01	 cmp	 eax, 1
  0026f	b8 01 00 00 00	 mov	 eax, 1
  00274	0f 44 f8	 cmove	 edi, eax
$LN4@playerCanA:

; 1809 : 	for (int i = 0; i < ITEM_SOCKET_SLOT_MAX_NUM; ++i)

  00277	46		 inc	 esi
  00278	83 fe 03	 cmp	 esi, 3
  0027b	7c 85		 jl	 SHORT $LL6@playerCanA

; 1827 : 			{
; 1828 : 				bNotExistGoldSocket = TRUE;
; 1829 : 			}
; 1830 : 		}
; 1831 : 	}
; 1832 : 
; 1833 : 	if (bNotExistGoldSocket)

  0027d	85 ff		 test	 edi, edi
  0027f	74 16		 je	 SHORT $LN28@playerCanA

; 1834 : 	{
; 1835 : 		return Py_BuildValue("i", ATTACH_METIN_NOT_EXIST_GOLD_SOCKET);

  00281	6a 04		 push	 4

; 1839 : }

  00283	68 00 00 00 00	 push	 OFFSET ??_C@_01KBJDNOO@i@
  00288	ff 15 00 00 00
	00		 call	 DWORD PTR __imp__Py_BuildValue
  0028e	83 c4 08	 add	 esp, 8
  00291	5f		 pop	 edi
  00292	5e		 pop	 esi
  00293	8b e5		 mov	 esp, ebp
  00295	5d		 pop	 ebp
  00296	c3		 ret	 0
$LN28@playerCanA:

; 1836 : 	}
; 1837 : 
; 1838 : 	return Py_BuildValue("i", ATTACH_METIN_NO_MATCHABLE_SOCKET);

  00297	6a 03		 push	 3

; 1839 : }

  00299	68 00 00 00 00	 push	 OFFSET ??_C@_01KBJDNOO@i@
  0029e	ff 15 00 00 00
	00		 call	 DWORD PTR __imp__Py_BuildValue
  002a4	83 c4 08	 add	 esp, 8
  002a7	5f		 pop	 edi
  002a8	5e		 pop	 esi
  002a9	8b e5		 mov	 esp, ebp
  002ab	5d		 pop	 ebp
  002ac	c3		 ret	 0
?playerCanAttachMetin@@YAPAU_object@@PAU1@0@Z ENDP	; playerCanAttachMetin
_TEXT	ENDS
; Function compile flags: /Ogtp
; File C:\Anka2Project\Anka2Project\Source\Binary\source\UserInterface\PythonPlayerModule.cpp
; File C:\Anka2Project\Anka2Project\Source\Binary\source\UserInterface\GameType.h
; File C:\Anka2Project\Anka2Project\Source\Binary\source\UserInterface\PythonPlayerModule.cpp
; File C:\Anka2Project\Anka2Project\Source\Binary\source\UserInterface\GameType.h
; File C:\Anka2Project\Anka2Project\Source\Binary\source\UserInterface\PythonPlayerModule.cpp
; File C:\Anka2Project\Anka2Project\Source\Binary\source\eterBase\Singleton.h
; File C:\Anka2Project\Anka2Project\Source\Binary\source\UserInterface\PythonPlayerModule.cpp
; File C:\Anka2Project\Anka2Project\Source\Binary\source\eterBase\Singleton.h
; File C:\Anka2Project\Anka2Project\Source\Binary\source\UserInterface\PythonPlayerModule.cpp
; File C:\Anka2Project\Anka2Project\Source\Binary\source\eterBase\Singleton.h
; File C:\Anka2Project\Anka2Project\Source\Binary\source\UserInterface\PythonPlayerModule.cpp
; File C:\Anka2Project\Anka2Project\Source\Binary\source\eterBase\Singleton.h
; File C:\Anka2Project\Anka2Project\Source\Binary\source\UserInterface\PythonPlayerModule.cpp
; File C:\Anka2Project\Anka2Project\Source\Binary\source\eterBase\Singleton.h
; File C:\Anka2Project\Anka2Project\Source\Binary\source\UserInterface\PythonPlayerModule.cpp
; File C:\Anka2Project\Anka2Project\Source\Binary\source\eterBase\Singleton.h
; File C:\Anka2Project\Anka2Project\Source\Binary\source\UserInterface\PythonPlayerModule.cpp
; File C:\Anka2Project\Anka2Project\Source\Binary\source\eterBase\Singleton.h
; File C:\Anka2Project\Anka2Project\Source\Binary\source\UserInterface\PythonPlayerModule.cpp
; File C:\Anka2Project\Anka2Project\Source\Binary\source\eterBase\Singleton.h
; File C:\Anka2Project\Anka2Project\Source\Binary\source\UserInterface\PythonPlayerModule.cpp
;	COMDAT ?playerCanDetach@@YAPAU_object@@PAU1@0@Z
_TEXT	SEGMENT
_pScrollItemData$1$ = -16				; size = 4
_iScrollItemIndex$ = -12				; size = 4
_TargetSlotIndex$ = -8					; size = 3
tv214 = -1						; size = 1
_poSelf$ = 8						; size = 4
_poArgs$ = 12						; size = 4
?playerCanDetach@@YAPAU_object@@PAU1@0@Z PROC		; playerCanDetach, COMDAT

; 1848 : {

  00000	55		 push	 ebp
  00001	8b ec		 mov	 ebp, esp
  00003	83 ec 10	 sub	 esp, 16			; 00000010H
  00006	56		 push	 esi

; 1851 : 	switch (PyTuple_Size (poArgs))

  00007	8b 75 0c	 mov	 esi, DWORD PTR _poArgs$[ebp]
; File C:\Anka2Project\Anka2Project\Source\Binary\source\UserInterface\GameType.h

; 448  : 		cell = WORD_MAX;

  0000a	b8 ff ff 00 00	 mov	 eax, 65535		; 0000ffffH
; File C:\Anka2Project\Anka2Project\Source\Binary\source\UserInterface\PythonPlayerModule.cpp

; 1848 : {

  0000f	57		 push	 edi

; 1851 : 	switch (PyTuple_Size (poArgs))

  00010	56		 push	 esi
; File C:\Anka2Project\Anka2Project\Source\Binary\source\UserInterface\GameType.h

; 447  : 		window_type = INVENTORY;

  00011	c6 45 f8 01	 mov	 BYTE PTR _TargetSlotIndex$[ebp], 1

; 448  : 		cell = WORD_MAX;

  00015	66 89 45 f9	 mov	 WORD PTR _TargetSlotIndex$[ebp+1], ax
; File C:\Anka2Project\Anka2Project\Source\Binary\source\UserInterface\PythonPlayerModule.cpp

; 1851 : 	switch (PyTuple_Size (poArgs))

  00019	ff 15 00 00 00
	00		 call	 DWORD PTR __imp__PyTuple_Size
  0001f	83 c4 04	 add	 esp, 4
  00022	83 e8 02	 sub	 eax, 2
  00025	74 49		 je	 SHORT $LN7@playerCanD
  00027	83 e8 01	 sub	 eax, 1
  0002a	75 39		 jne	 SHORT $LN86@playerCanD

; 1857 : 			return Py_BadArgument();
; 1858 : 		break;
; 1859 : 	case 3:
; 1860 : 		if (!PyTuple_GetInteger(poArgs, 0, &iScrollItemIndex))

  0002c	8d 45 f4	 lea	 eax, DWORD PTR _iScrollItemIndex$[ebp]
  0002f	50		 push	 eax
  00030	6a 00		 push	 0
  00032	56		 push	 esi
  00033	e8 00 00 00 00	 call	 ?PyTuple_GetInteger@@YA_NPAU_object@@HPAH@Z ; PyTuple_GetInteger
  00038	83 c4 0c	 add	 esp, 12			; 0000000cH
  0003b	84 c0		 test	 al, al
  0003d	74 26		 je	 SHORT $LN86@playerCanD

; 1861 : 			return Py_BadArgument();
; 1862 : 		if (!PyTuple_GetInteger(poArgs, 1, &TargetSlotIndex.window_type))

  0003f	8d 45 f8	 lea	 eax, DWORD PTR _TargetSlotIndex$[ebp]
  00042	50		 push	 eax
  00043	6a 01		 push	 1
  00045	56		 push	 esi
  00046	e8 00 00 00 00	 call	 ?PyTuple_GetInteger@@YA_NPAU_object@@HPAE@Z ; PyTuple_GetInteger
  0004b	83 c4 0c	 add	 esp, 12			; 0000000cH
  0004e	84 c0		 test	 al, al
  00050	74 13		 je	 SHORT $LN86@playerCanD

; 1863 : 			return Py_BadArgument();
; 1864 : 		if (!PyTuple_GetInteger(poArgs, 2, &TargetSlotIndex.cell))

  00052	8d 45 f9	 lea	 eax, DWORD PTR _TargetSlotIndex$[ebp+1]
  00055	50		 push	 eax
  00056	6a 02		 push	 2
  00058	56		 push	 esi
  00059	e8 00 00 00 00	 call	 ?PyTuple_GetInteger@@YA_NPAU_object@@HPAG@Z ; PyTuple_GetInteger
  0005e	83 c4 0c	 add	 esp, 12			; 0000000cH
  00061	84 c0		 test	 al, al
  00063	75 31		 jne	 SHORT $LN9@playerCanD
$LN86@playerCanD:

; 1912 : 			{
; 1913 : 				return Py_BuildValue("i", DETACH_METIN_OK);
; 1914 : 			}
; 1915 : 	}
; 1916 : 
; 1917 : 	return Py_BuildValue("i", DETACH_METIN_CANT);
; 1918 : }

  00065	e8 00 00 00 00	 call	 ?Py_BadArgument@@YAPAU_object@@XZ ; Py_BadArgument
  0006a	5f		 pop	 edi
  0006b	5e		 pop	 esi
  0006c	8b e5		 mov	 esp, ebp
  0006e	5d		 pop	 ebp
  0006f	c3		 ret	 0
$LN7@playerCanD:

; 1852 : 	{
; 1853 : 	case 2:
; 1854 : 		if (!PyTuple_GetInteger(poArgs, 0, &iScrollItemIndex))

  00070	8d 45 f4	 lea	 eax, DWORD PTR _iScrollItemIndex$[ebp]
  00073	50		 push	 eax
  00074	6a 00		 push	 0
  00076	56		 push	 esi
  00077	e8 00 00 00 00	 call	 ?PyTuple_GetInteger@@YA_NPAU_object@@HPAH@Z ; PyTuple_GetInteger
  0007c	83 c4 0c	 add	 esp, 12			; 0000000cH
  0007f	84 c0		 test	 al, al
  00081	74 e2		 je	 SHORT $LN86@playerCanD

; 1855 : 			return Py_BadArgument();
; 1856 : 		if (!PyTuple_GetInteger(poArgs, 1, &TargetSlotIndex.cell))

  00083	8d 45 f9	 lea	 eax, DWORD PTR _TargetSlotIndex$[ebp+1]
  00086	50		 push	 eax
  00087	6a 01		 push	 1
  00089	56		 push	 esi
  0008a	e8 00 00 00 00	 call	 ?PyTuple_GetInteger@@YA_NPAU_object@@HPAG@Z ; PyTuple_GetInteger
  0008f	83 c4 0c	 add	 esp, 12			; 0000000cH
  00092	84 c0		 test	 al, al
  00094	74 cf		 je	 SHORT $LN86@playerCanD
$LN9@playerCanD:
; File C:\Anka2Project\Anka2Project\Source\Binary\source\eterBase\Singleton.h

; 26   : 		assert(ms_singleton);

  00096	8b 0d 00 00 00
	00		 mov	 ecx, DWORD PTR ?ms_singleton@?$CSingleton@VCItemManager@@@@0PAVCItemManager@@A ; CSingleton<CItemManager>::ms_singleton
  0009c	85 c9		 test	 ecx, ecx
  0009e	75 1a		 jne	 SHORT $LN34@playerCanD
  000a0	6a 1a		 push	 26			; 0000001aH
  000a2	68 00 00 00 00	 push	 OFFSET ??_C@_1IO@CAJLEEOI@?$AAC?$AA?3?$AA?2?$AAA?$AAn?$AAk?$AAa?$AA2?$AAP?$AAr?$AAo?$AAj?$AAe?$AAc?$AAt@
  000a7	68 00 00 00 00	 push	 OFFSET ??_C@_1BK@FMEHPMFE@?$AAm?$AAs?$AA_?$AAs?$AAi?$AAn?$AAg?$AAl?$AAe?$AAt?$AAo?$AAn@
  000ac	e8 00 00 00 00	 call	 __wassert
  000b1	8b 0d 00 00 00
	00		 mov	 ecx, DWORD PTR ?ms_singleton@?$CSingleton@VCItemManager@@@@0PAVCItemManager@@A ; CSingleton<CItemManager>::ms_singleton
  000b7	83 c4 0c	 add	 esp, 12			; 0000000cH
$LN34@playerCanD:
; File C:\Anka2Project\Anka2Project\Source\Binary\source\UserInterface\PythonPlayerModule.cpp

; 1871 : 	CItemManager::Instance().SelectItemData(iScrollItemIndex);

  000ba	ff 75 f4	 push	 DWORD PTR _iScrollItemIndex$[ebp]
  000bd	e8 00 00 00 00	 call	 ?SelectItemData@CItemManager@@QAEHK@Z ; CItemManager::SelectItemData
; File C:\Anka2Project\Anka2Project\Source\Binary\source\eterBase\Singleton.h

; 26   : 		assert(ms_singleton);

  000c2	8b 0d 00 00 00
	00		 mov	 ecx, DWORD PTR ?ms_singleton@?$CSingleton@VCItemManager@@@@0PAVCItemManager@@A ; CSingleton<CItemManager>::ms_singleton
  000c8	85 c9		 test	 ecx, ecx
  000ca	75 1a		 jne	 SHORT $LN37@playerCanD
  000cc	6a 1a		 push	 26			; 0000001aH
  000ce	68 00 00 00 00	 push	 OFFSET ??_C@_1IO@CAJLEEOI@?$AAC?$AA?3?$AA?2?$AAA?$AAn?$AAk?$AAa?$AA2?$AAP?$AAr?$AAo?$AAj?$AAe?$AAc?$AAt@
  000d3	68 00 00 00 00	 push	 OFFSET ??_C@_1BK@FMEHPMFE@?$AAm?$AAs?$AA_?$AAs?$AAi?$AAn?$AAg?$AAl?$AAe?$AAt?$AAo?$AAn@
  000d8	e8 00 00 00 00	 call	 __wassert
  000dd	8b 0d 00 00 00
	00		 mov	 ecx, DWORD PTR ?ms_singleton@?$CSingleton@VCItemManager@@@@0PAVCItemManager@@A ; CSingleton<CItemManager>::ms_singleton
  000e3	83 c4 0c	 add	 esp, 12			; 0000000cH
$LN37@playerCanD:
; File C:\Anka2Project\Anka2Project\Source\Binary\source\UserInterface\PythonPlayerModule.cpp

; 1872 : 	CItemData * pScrollItemData = CItemManager::Instance().GetSelectedItemDataPointer();

  000e6	e8 00 00 00 00	 call	 ?GetSelectedItemDataPointer@CItemManager@@QAEPAVCItemData@@XZ ; CItemManager::GetSelectedItemDataPointer
  000eb	8b f0		 mov	 esi, eax
  000ed	89 75 f0	 mov	 DWORD PTR _pScrollItemData$1$[ebp], esi

; 1873 : 	if (!pScrollItemData)

  000f0	85 f6		 test	 esi, esi
  000f2	75 13		 jne	 SHORT $LN15@playerCanD
$LN87@playerCanD:

; 1912 : 			{
; 1913 : 				return Py_BuildValue("i", DETACH_METIN_OK);
; 1914 : 			}
; 1915 : 	}
; 1916 : 
; 1917 : 	return Py_BuildValue("i", DETACH_METIN_CANT);
; 1918 : }

  000f4	68 00 00 00 00	 push	 OFFSET ??_C@_0BF@BGKCJNBK@Can?8t?5find?5item?5data@
  000f9	e8 00 00 00 00	 call	 ?Py_BuildException@@YAPAU_object@@PBDZZ ; Py_BuildException
  000fe	83 c4 04	 add	 esp, 4
  00101	5f		 pop	 edi
  00102	5e		 pop	 esi
  00103	8b e5		 mov	 esp, ebp
  00105	5d		 pop	 ebp
  00106	c3		 ret	 0
$LN15@playerCanD:

; 1874 : 		return Py_BuildException("Can't find item data");
; 1875 : 	int iScrollType = pScrollItemData->GetType();

  00107	8b ce		 mov	 ecx, esi
  00109	e8 00 00 00 00	 call	 ?GetType@CItemData@@QBEEXZ ; CItemData::GetType

; 1876 : 	int iScrollSubType = pScrollItemData->GetSubType();

  0010e	8b ce		 mov	 ecx, esi
  00110	88 45 ff	 mov	 BYTE PTR tv214[ebp], al
  00113	e8 00 00 00 00	 call	 ?GetSubType@CItemData@@QBEEXZ ; CItemData::GetSubType

; 1877 : 	if (iScrollType != CItemData::ITEM_TYPE_USE)

  00118	80 7d ff 03	 cmp	 BYTE PTR tv214[ebp], 3
  0011c	0f 85 a6 01 00
	00		 jne	 $LN22@playerCanD

; 1878 : 		return Py_BuildValue("i", DETACH_METIN_CANT);
; 1879 : 	if (iScrollSubType != CItemData::USE_DETACHMENT)

  00122	3c 0e		 cmp	 al, 14			; 0000000eH
  00124	0f 85 9e 01 00
	00		 jne	 $LN22@playerCanD
; File C:\Anka2Project\Anka2Project\Source\Binary\source\eterBase\Singleton.h

; 26   : 		assert(ms_singleton);

  0012a	8b 3d 00 00 00
	00		 mov	 edi, DWORD PTR ?ms_singleton@?$CSingleton@VCPythonPlayer@@@@0PAVCPythonPlayer@@A ; CSingleton<CPythonPlayer>::ms_singleton
  00130	85 ff		 test	 edi, edi
  00132	75 1a		 jne	 SHORT $LN40@playerCanD
  00134	6a 1a		 push	 26			; 0000001aH
  00136	68 00 00 00 00	 push	 OFFSET ??_C@_1IO@CAJLEEOI@?$AAC?$AA?3?$AA?2?$AAA?$AAn?$AAk?$AAa?$AA2?$AAP?$AAr?$AAo?$AAj?$AAe?$AAc?$AAt@
  0013b	68 00 00 00 00	 push	 OFFSET ??_C@_1BK@FMEHPMFE@?$AAm?$AAs?$AA_?$AAs?$AAi?$AAn?$AAg?$AAl?$AAe?$AAt?$AAo?$AAn@
  00140	e8 00 00 00 00	 call	 __wassert
  00145	8b 3d 00 00 00
	00		 mov	 edi, DWORD PTR ?ms_singleton@?$CSingleton@VCPythonPlayer@@@@0PAVCPythonPlayer@@A ; CSingleton<CPythonPlayer>::ms_singleton
  0014b	83 c4 0c	 add	 esp, 12			; 0000000cH
$LN40@playerCanD:
; File C:\Anka2Project\Anka2Project\Source\Binary\source\UserInterface\PythonPlayerModule.cpp

; 1882 : 	int iTargetItemIndex = CPythonPlayer::Instance().GetItemIndex(TargetSlotIndex);

  0014e	8b 47 04	 mov	 eax, DWORD PTR [edi+4]
  00151	8a 4d fa	 mov	 cl, BYTE PTR _TargetSlotIndex$[ebp+2]
  00154	66 8b 55 f8	 mov	 dx, WORD PTR _TargetSlotIndex$[ebp]
  00158	51		 push	 ecx
  00159	8b 70 48	 mov	 esi, DWORD PTR [eax+72]
  0015c	8b c4		 mov	 eax, esp
  0015e	66 89 10	 mov	 WORD PTR [eax], dx
  00161	88 48 02	 mov	 BYTE PTR [eax+2], cl
  00164	8d 4f 04	 lea	 ecx, DWORD PTR [edi+4]
  00167	ff d6		 call	 esi
; File C:\Anka2Project\Anka2Project\Source\Binary\source\eterBase\Singleton.h

; 26   : 		assert(ms_singleton);

  00169	8b 0d 00 00 00
	00		 mov	 ecx, DWORD PTR ?ms_singleton@?$CSingleton@VCItemManager@@@@0PAVCItemManager@@A ; CSingleton<CItemManager>::ms_singleton
; File C:\Anka2Project\Anka2Project\Source\Binary\source\UserInterface\PythonPlayerModule.cpp

; 1882 : 	int iTargetItemIndex = CPythonPlayer::Instance().GetItemIndex(TargetSlotIndex);

  0016f	8b f0		 mov	 esi, eax
; File C:\Anka2Project\Anka2Project\Source\Binary\source\eterBase\Singleton.h

; 26   : 		assert(ms_singleton);

  00171	85 c9		 test	 ecx, ecx
  00173	75 1a		 jne	 SHORT $LN43@playerCanD
  00175	6a 1a		 push	 26			; 0000001aH
  00177	68 00 00 00 00	 push	 OFFSET ??_C@_1IO@CAJLEEOI@?$AAC?$AA?3?$AA?2?$AAA?$AAn?$AAk?$AAa?$AA2?$AAP?$AAr?$AAo?$AAj?$AAe?$AAc?$AAt@
  0017c	68 00 00 00 00	 push	 OFFSET ??_C@_1BK@FMEHPMFE@?$AAm?$AAs?$AA_?$AAs?$AAi?$AAn?$AAg?$AAl?$AAe?$AAt?$AAo?$AAn@
  00181	e8 00 00 00 00	 call	 __wassert
  00186	8b 0d 00 00 00
	00		 mov	 ecx, DWORD PTR ?ms_singleton@?$CSingleton@VCItemManager@@@@0PAVCItemManager@@A ; CSingleton<CItemManager>::ms_singleton
  0018c	83 c4 0c	 add	 esp, 12			; 0000000cH
$LN43@playerCanD:
; File C:\Anka2Project\Anka2Project\Source\Binary\source\UserInterface\PythonPlayerModule.cpp

; 1883 : 	CItemManager::Instance().SelectItemData(iTargetItemIndex);

  0018f	56		 push	 esi
  00190	e8 00 00 00 00	 call	 ?SelectItemData@CItemManager@@QAEHK@Z ; CItemManager::SelectItemData
; File C:\Anka2Project\Anka2Project\Source\Binary\source\eterBase\Singleton.h

; 26   : 		assert(ms_singleton);

  00195	8b 0d 00 00 00
	00		 mov	 ecx, DWORD PTR ?ms_singleton@?$CSingleton@VCItemManager@@@@0PAVCItemManager@@A ; CSingleton<CItemManager>::ms_singleton
  0019b	85 c9		 test	 ecx, ecx
  0019d	75 1a		 jne	 SHORT $LN46@playerCanD
  0019f	6a 1a		 push	 26			; 0000001aH
  001a1	68 00 00 00 00	 push	 OFFSET ??_C@_1IO@CAJLEEOI@?$AAC?$AA?3?$AA?2?$AAA?$AAn?$AAk?$AAa?$AA2?$AAP?$AAr?$AAo?$AAj?$AAe?$AAc?$AAt@
  001a6	68 00 00 00 00	 push	 OFFSET ??_C@_1BK@FMEHPMFE@?$AAm?$AAs?$AA_?$AAs?$AAi?$AAn?$AAg?$AAl?$AAe?$AAt?$AAo?$AAn@
  001ab	e8 00 00 00 00	 call	 __wassert
  001b0	8b 0d 00 00 00
	00		 mov	 ecx, DWORD PTR ?ms_singleton@?$CSingleton@VCItemManager@@@@0PAVCItemManager@@A ; CSingleton<CItemManager>::ms_singleton
  001b6	83 c4 0c	 add	 esp, 12			; 0000000cH
$LN46@playerCanD:
; File C:\Anka2Project\Anka2Project\Source\Binary\source\UserInterface\PythonPlayerModule.cpp

; 1884 : 	CItemData * pTargetItemData = CItemManager::Instance().GetSelectedItemDataPointer();

  001b9	e8 00 00 00 00	 call	 ?GetSelectedItemDataPointer@CItemManager@@QAEPAVCItemData@@XZ ; CItemManager::GetSelectedItemDataPointer
  001be	8b f8		 mov	 edi, eax

; 1885 : 
; 1886 : 	if (!pTargetItemData)

  001c0	85 ff		 test	 edi, edi
  001c2	0f 84 2c ff ff
	ff		 je	 $LN87@playerCanD

; 1887 : 		return Py_BuildException("Can't find item data");
; 1888 : 
; 1889 : #ifdef ENABLE_ACCE_COSTUME_SYSTEM
; 1890 : 	if (pScrollItemData->GetValue(0) == ACCE_CLEAN_ATTR_VALUE0 || pScrollItemData->GetIndex() == ACCE_REVERSAL_VNUM_1 || pScrollItemData->GetIndex() == ACCE_REVERSAL_VNUM_2)

  001c8	8b 75 f0	 mov	 esi, DWORD PTR _pScrollItemData$1$[ebp]
  001cb	8b ce		 mov	 ecx, esi
  001cd	6a 00		 push	 0
  001cf	e8 00 00 00 00	 call	 ?GetValue@CItemData@@QBEJE@Z ; CItemData::GetValue
  001d4	83 f8 07	 cmp	 eax, 7
  001d7	0f 84 92 00 00
	00		 je	 $LN20@playerCanD
  001dd	8b ce		 mov	 ecx, esi
  001df	e8 00 00 00 00	 call	 ?GetIndex@CItemData@@QBEKXZ ; CItemData::GetIndex
  001e4	3d 86 98 00 00	 cmp	 eax, 39046		; 00009886H
  001e9	0f 84 80 00 00
	00		 je	 $LN20@playerCanD
  001ef	8b ce		 mov	 ecx, esi
  001f1	e8 00 00 00 00	 call	 ?GetIndex@CItemData@@QBEKXZ ; CItemData::GetIndex
  001f6	3d 90 5f 01 00	 cmp	 eax, 90000		; 00015f90H
  001fb	74 72		 je	 SHORT $LN20@playerCanD

; 1899 : 				return Py_BuildValue("i", DETACH_METIN_OK);
; 1900 : 			else
; 1901 : 				return Py_BuildValue("i", DETACH_METIN_CANT);
; 1902 : 		}
; 1903 : 		else
; 1904 : 			return Py_BuildValue("i", DETACH_METIN_CANT);
; 1905 : 	}
; 1906 : #endif
; 1907 : 
; 1908 : 	if (pTargetItemData->IsFlag(CItemData::ITEM_FLAG_REFINEABLE))

  001fd	6a 01		 push	 1
  001ff	8b cf		 mov	 ecx, edi
  00201	e8 00 00 00 00	 call	 ?IsFlag@CItemData@@QBEHK@Z ; CItemData::IsFlag
  00206	85 c0		 test	 eax, eax
  00208	0f 84 ba 00 00
	00		 je	 $LN22@playerCanD

; 1909 : 	{
; 1910 : 		for (int iSlotCount = 0; iSlotCount < METIN_SOCKET_COUNT; ++iSlotCount)

  0020e	8b 3d 00 00 00
	00		 mov	 edi, DWORD PTR ?ms_singleton@?$CSingleton@VCPythonPlayer@@@@0PAVCPythonPlayer@@A ; CSingleton<CPythonPlayer>::ms_singleton
  00214	33 f6		 xor	 esi, esi
$LL6@playerCanD:
; File C:\Anka2Project\Anka2Project\Source\Binary\source\eterBase\Singleton.h

; 26   : 		assert(ms_singleton);

  00216	85 ff		 test	 edi, edi
  00218	75 1a		 jne	 SHORT $LN49@playerCanD
  0021a	6a 1a		 push	 26			; 0000001aH
  0021c	68 00 00 00 00	 push	 OFFSET ??_C@_1IO@CAJLEEOI@?$AAC?$AA?3?$AA?2?$AAA?$AAn?$AAk?$AAa?$AA2?$AAP?$AAr?$AAo?$AAj?$AAe?$AAc?$AAt@
  00221	68 00 00 00 00	 push	 OFFSET ??_C@_1BK@FMEHPMFE@?$AAm?$AAs?$AA_?$AAs?$AAi?$AAn?$AAg?$AAl?$AAe?$AAt?$AAo?$AAn@
  00226	e8 00 00 00 00	 call	 __wassert
  0022b	8b 3d 00 00 00
	00		 mov	 edi, DWORD PTR ?ms_singleton@?$CSingleton@VCPythonPlayer@@@@0PAVCPythonPlayer@@A ; CSingleton<CPythonPlayer>::ms_singleton
  00231	83 c4 0c	 add	 esp, 12			; 0000000cH
$LN49@playerCanD:
; File C:\Anka2Project\Anka2Project\Source\Binary\source\UserInterface\PythonPlayerModule.cpp

; 1911 : 			if (CPythonPlayer::Instance().GetItemMetinSocket(TargetSlotIndex, iSlotCount) > 2)

  00234	66 8b 45 f8	 mov	 ax, WORD PTR _TargetSlotIndex$[ebp]
  00238	56		 push	 esi
  00239	51		 push	 ecx
  0023a	8b cc		 mov	 ecx, esp
  0023c	66 89 01	 mov	 WORD PTR [ecx], ax
  0023f	8a 45 fa	 mov	 al, BYTE PTR _TargetSlotIndex$[ebp+2]
  00242	88 41 02	 mov	 BYTE PTR [ecx+2], al
  00245	8b cf		 mov	 ecx, edi
  00247	e8 00 00 00 00	 call	 ?GetItemMetinSocket@CPythonPlayer@@QAEKUSItemPos@@K@Z ; CPythonPlayer::GetItemMetinSocket
  0024c	83 f8 02	 cmp	 eax, 2
  0024f	77 08		 ja	 SHORT $LN54@playerCanD

; 1909 : 	{
; 1910 : 		for (int iSlotCount = 0; iSlotCount < METIN_SOCKET_COUNT; ++iSlotCount)

  00251	46		 inc	 esi
  00252	83 fe 06	 cmp	 esi, 6
  00255	7c bf		 jl	 SHORT $LL6@playerCanD

; 1911 : 			if (CPythonPlayer::Instance().GetItemMetinSocket(TargetSlotIndex, iSlotCount) > 2)

  00257	eb 6f		 jmp	 SHORT $LN22@playerCanD
$LN54@playerCanD:

; 1912 : 			{
; 1913 : 				return Py_BuildValue("i", DETACH_METIN_OK);
; 1914 : 			}
; 1915 : 	}
; 1916 : 
; 1917 : 	return Py_BuildValue("i", DETACH_METIN_CANT);
; 1918 : }

  00259	6a 01		 push	 1
  0025b	68 00 00 00 00	 push	 OFFSET ??_C@_01KBJDNOO@i@
  00260	ff 15 00 00 00
	00		 call	 DWORD PTR __imp__Py_BuildValue
  00266	83 c4 08	 add	 esp, 8
  00269	5f		 pop	 edi
  0026a	5e		 pop	 esi
  0026b	8b e5		 mov	 esp, ebp
  0026d	5d		 pop	 ebp
  0026e	c3		 ret	 0
$LN20@playerCanD:

; 1891 : 	{
; 1892 : 		if ((pTargetItemData->GetType() != CItemData::ITEM_TYPE_COSTUME) || (pTargetItemData->GetSubType() != CItemData::COSTUME_ACCE))

  0026f	8b cf		 mov	 ecx, edi
  00271	e8 00 00 00 00	 call	 ?GetType@CItemData@@QBEEXZ ; CItemData::GetType
  00276	3c 1c		 cmp	 al, 28			; 0000001cH
  00278	75 4e		 jne	 SHORT $LN22@playerCanD
  0027a	8b cf		 mov	 ecx, edi
  0027c	e8 00 00 00 00	 call	 ?GetSubType@CItemData@@QBEEXZ ; CItemData::GetSubType
  00281	3c 02		 cmp	 al, 2
  00283	75 43		 jne	 SHORT $LN22@playerCanD
; File C:\Anka2Project\Anka2Project\Source\Binary\source\eterBase\Singleton.h

; 26   : 		assert(ms_singleton);

  00285	8b 0d 00 00 00
	00		 mov	 ecx, DWORD PTR ?ms_singleton@?$CSingleton@VCPythonPlayer@@@@0PAVCPythonPlayer@@A ; CSingleton<CPythonPlayer>::ms_singleton
  0028b	85 c9		 test	 ecx, ecx
  0028d	75 1a		 jne	 SHORT $LN52@playerCanD
  0028f	6a 1a		 push	 26			; 0000001aH
  00291	68 00 00 00 00	 push	 OFFSET ??_C@_1IO@CAJLEEOI@?$AAC?$AA?3?$AA?2?$AAA?$AAn?$AAk?$AAa?$AA2?$AAP?$AAr?$AAo?$AAj?$AAe?$AAc?$AAt@
  00296	68 00 00 00 00	 push	 OFFSET ??_C@_1BK@FMEHPMFE@?$AAm?$AAs?$AA_?$AAs?$AAi?$AAn?$AAg?$AAl?$AAe?$AAt?$AAo?$AAn@
  0029b	e8 00 00 00 00	 call	 __wassert
  002a0	8b 0d 00 00 00
	00		 mov	 ecx, DWORD PTR ?ms_singleton@?$CSingleton@VCPythonPlayer@@@@0PAVCPythonPlayer@@A ; CSingleton<CPythonPlayer>::ms_singleton
  002a6	83 c4 0c	 add	 esp, 12			; 0000000cH
$LN52@playerCanD:
; File C:\Anka2Project\Anka2Project\Source\Binary\source\UserInterface\PythonPlayerModule.cpp

; 1895 : 		const TItemData * pPlayerItem = CPythonPlayer::Instance().GetItemData(TargetSlotIndex);

  002a9	66 8b 45 f8	 mov	 ax, WORD PTR _TargetSlotIndex$[ebp]
  002ad	51		 push	 ecx
  002ae	8b d4		 mov	 edx, esp
  002b0	66 89 02	 mov	 WORD PTR [edx], ax
  002b3	8a 45 fa	 mov	 al, BYTE PTR _TargetSlotIndex$[ebp+2]
  002b6	88 42 02	 mov	 BYTE PTR [edx+2], al
  002b9	e8 00 00 00 00	 call	 ?GetItemData@CPythonPlayer@@QBEPBUpacket_item@@USItemPos@@@Z ; CPythonPlayer::GetItemData

; 1896 : 		if (pPlayerItem)

  002be	85 c0		 test	 eax, eax
  002c0	74 06		 je	 SHORT $LN22@playerCanD

; 1897 : 		{
; 1898 : 			if (pPlayerItem->alSockets[ACCE_ABSORBED_SOCKET] > 0)

  002c2	83 78 12 00	 cmp	 DWORD PTR [eax+18], 0
  002c6	7f 91		 jg	 SHORT $LN54@playerCanD
$LN22@playerCanD:

; 1912 : 			{
; 1913 : 				return Py_BuildValue("i", DETACH_METIN_OK);
; 1914 : 			}
; 1915 : 	}
; 1916 : 
; 1917 : 	return Py_BuildValue("i", DETACH_METIN_CANT);
; 1918 : }

  002c8	6a 00		 push	 0
  002ca	68 00 00 00 00	 push	 OFFSET ??_C@_01KBJDNOO@i@
  002cf	ff 15 00 00 00
	00		 call	 DWORD PTR __imp__Py_BuildValue
  002d5	83 c4 08	 add	 esp, 8
  002d8	5f		 pop	 edi
  002d9	5e		 pop	 esi
  002da	8b e5		 mov	 esp, ebp
  002dc	5d		 pop	 ebp
  002dd	c3		 ret	 0
?playerCanDetach@@YAPAU_object@@PAU1@0@Z ENDP		; playerCanDetach
_TEXT	ENDS
; Function compile flags: /Ogtp
; File C:\Anka2Project\Anka2Project\Source\Binary\source\UserInterface\PythonPlayerModule.cpp
; File C:\Anka2Project\Anka2Project\Source\Binary\source\UserInterface\GameType.h
; File C:\Anka2Project\Anka2Project\Source\Binary\source\UserInterface\PythonPlayerModule.cpp
; File C:\Anka2Project\Anka2Project\Source\Binary\source\UserInterface\GameType.h
; File C:\Anka2Project\Anka2Project\Source\Binary\source\UserInterface\PythonPlayerModule.cpp
; File C:\Anka2Project\Anka2Project\Source\Binary\source\eterBase\Singleton.h
; File C:\Anka2Project\Anka2Project\Source\Binary\source\UserInterface\PythonPlayerModule.cpp
; File C:\Anka2Project\Anka2Project\Source\Binary\source\eterBase\Singleton.h
; File C:\Anka2Project\Anka2Project\Source\Binary\source\UserInterface\PythonPlayerModule.cpp
; File C:\Anka2Project\Anka2Project\Source\Binary\source\eterBase\Singleton.h
; File C:\Anka2Project\Anka2Project\Source\Binary\source\UserInterface\PythonPlayerModule.cpp
; File C:\Anka2Project\Anka2Project\Source\Binary\source\eterBase\Singleton.h
; File C:\Anka2Project\Anka2Project\Source\Binary\source\UserInterface\PythonPlayerModule.cpp
; File C:\Anka2Project\Anka2Project\Source\Binary\source\eterBase\Singleton.h
; File C:\Anka2Project\Anka2Project\Source\Binary\source\UserInterface\PythonPlayerModule.cpp
; File C:\Anka2Project\Anka2Project\Source\Binary\source\eterBase\Singleton.h
; File C:\Anka2Project\Anka2Project\Source\Binary\source\UserInterface\PythonPlayerModule.cpp
;	COMDAT ?playerCanUnlock@@YAPAU_object@@PAU1@0@Z
_TEXT	SEGMENT
_iKeyItemIndex$ = -8					; size = 4
_TargetSlotIndex$ = -4					; size = 3
_poSelf$ = 8						; size = 4
_poArgs$ = 12						; size = 4
?playerCanUnlock@@YAPAU_object@@PAU1@0@Z PROC		; playerCanUnlock, COMDAT

; 1921 : {

  00000	55		 push	 ebp
  00001	8b ec		 mov	 ebp, esp
  00003	83 ec 08	 sub	 esp, 8
  00006	56		 push	 esi

; 1924 : 	switch (PyTuple_Size(poArgs))

  00007	8b 75 0c	 mov	 esi, DWORD PTR _poArgs$[ebp]
; File C:\Anka2Project\Anka2Project\Source\Binary\source\UserInterface\GameType.h

; 448  : 		cell = WORD_MAX;

  0000a	b8 ff ff 00 00	 mov	 eax, 65535		; 0000ffffH
; File C:\Anka2Project\Anka2Project\Source\Binary\source\UserInterface\PythonPlayerModule.cpp

; 1921 : {

  0000f	57		 push	 edi

; 1924 : 	switch (PyTuple_Size(poArgs))

  00010	56		 push	 esi
; File C:\Anka2Project\Anka2Project\Source\Binary\source\UserInterface\GameType.h

; 447  : 		window_type = INVENTORY;

  00011	c6 45 fc 01	 mov	 BYTE PTR _TargetSlotIndex$[ebp], 1

; 448  : 		cell = WORD_MAX;

  00015	66 89 45 fd	 mov	 WORD PTR _TargetSlotIndex$[ebp+1], ax
; File C:\Anka2Project\Anka2Project\Source\Binary\source\UserInterface\PythonPlayerModule.cpp

; 1924 : 	switch (PyTuple_Size(poArgs))

  00019	ff 15 00 00 00
	00		 call	 DWORD PTR __imp__PyTuple_Size
  0001f	83 c4 04	 add	 esp, 4
  00022	83 e8 02	 sub	 eax, 2
  00025	74 49		 je	 SHORT $LN4@playerCanU
  00027	83 e8 01	 sub	 eax, 1
  0002a	75 39		 jne	 SHORT $LN52@playerCanU

; 1930 : 			return Py_BadArgument();
; 1931 : 		break;
; 1932 : 	case 3:
; 1933 : 		if (!PyTuple_GetInteger(poArgs, 0, &iKeyItemIndex))

  0002c	8d 45 f8	 lea	 eax, DWORD PTR _iKeyItemIndex$[ebp]
  0002f	50		 push	 eax
  00030	6a 00		 push	 0
  00032	56		 push	 esi
  00033	e8 00 00 00 00	 call	 ?PyTuple_GetInteger@@YA_NPAU_object@@HPAH@Z ; PyTuple_GetInteger
  00038	83 c4 0c	 add	 esp, 12			; 0000000cH
  0003b	84 c0		 test	 al, al
  0003d	74 26		 je	 SHORT $LN52@playerCanU

; 1934 : 			return Py_BadArgument();
; 1935 : 		if (!PyTuple_GetInteger(poArgs, 1, &TargetSlotIndex.window_type))

  0003f	8d 45 fc	 lea	 eax, DWORD PTR _TargetSlotIndex$[ebp]
  00042	50		 push	 eax
  00043	6a 01		 push	 1
  00045	56		 push	 esi
  00046	e8 00 00 00 00	 call	 ?PyTuple_GetInteger@@YA_NPAU_object@@HPAE@Z ; PyTuple_GetInteger
  0004b	83 c4 0c	 add	 esp, 12			; 0000000cH
  0004e	84 c0		 test	 al, al
  00050	74 13		 je	 SHORT $LN52@playerCanU

; 1936 : 			return Py_BadArgument();
; 1937 : 		if (!PyTuple_GetInteger(poArgs, 2, &TargetSlotIndex.cell))

  00052	8d 45 fd	 lea	 eax, DWORD PTR _TargetSlotIndex$[ebp+1]
  00055	50		 push	 eax
  00056	6a 02		 push	 2
  00058	56		 push	 esi
  00059	e8 00 00 00 00	 call	 ?PyTuple_GetInteger@@YA_NPAU_object@@HPAG@Z ; PyTuple_GetInteger
  0005e	83 c4 0c	 add	 esp, 12			; 0000000cH
  00061	84 c0		 test	 al, al
  00063	75 31		 jne	 SHORT $LN6@playerCanU
$LN52@playerCanU:

; 1962 : }

  00065	e8 00 00 00 00	 call	 ?Py_BadArgument@@YAPAU_object@@XZ ; Py_BadArgument
  0006a	5f		 pop	 edi
  0006b	5e		 pop	 esi
  0006c	8b e5		 mov	 esp, ebp
  0006e	5d		 pop	 ebp
  0006f	c3		 ret	 0
$LN4@playerCanU:

; 1925 : 	{
; 1926 : 	case 2:
; 1927 : 		if (!PyTuple_GetInteger(poArgs, 0, &iKeyItemIndex))

  00070	8d 45 f8	 lea	 eax, DWORD PTR _iKeyItemIndex$[ebp]
  00073	50		 push	 eax
  00074	6a 00		 push	 0
  00076	56		 push	 esi
  00077	e8 00 00 00 00	 call	 ?PyTuple_GetInteger@@YA_NPAU_object@@HPAH@Z ; PyTuple_GetInteger
  0007c	83 c4 0c	 add	 esp, 12			; 0000000cH
  0007f	84 c0		 test	 al, al
  00081	74 e2		 je	 SHORT $LN52@playerCanU

; 1928 : 			return Py_BadArgument();
; 1929 : 		if (!PyTuple_GetInteger(poArgs, 1, &TargetSlotIndex.cell))

  00083	8d 45 fd	 lea	 eax, DWORD PTR _TargetSlotIndex$[ebp+1]
  00086	50		 push	 eax
  00087	6a 01		 push	 1
  00089	56		 push	 esi
  0008a	e8 00 00 00 00	 call	 ?PyTuple_GetInteger@@YA_NPAU_object@@HPAG@Z ; PyTuple_GetInteger
  0008f	83 c4 0c	 add	 esp, 12			; 0000000cH
  00092	84 c0		 test	 al, al
  00094	74 cf		 je	 SHORT $LN52@playerCanU
$LN6@playerCanU:
; File C:\Anka2Project\Anka2Project\Source\Binary\source\eterBase\Singleton.h

; 26   : 		assert(ms_singleton);

  00096	8b 0d 00 00 00
	00		 mov	 ecx, DWORD PTR ?ms_singleton@?$CSingleton@VCItemManager@@@@0PAVCItemManager@@A ; CSingleton<CItemManager>::ms_singleton
  0009c	85 c9		 test	 ecx, ecx
  0009e	75 1a		 jne	 SHORT $LN21@playerCanU
  000a0	6a 1a		 push	 26			; 0000001aH
  000a2	68 00 00 00 00	 push	 OFFSET ??_C@_1IO@CAJLEEOI@?$AAC?$AA?3?$AA?2?$AAA?$AAn?$AAk?$AAa?$AA2?$AAP?$AAr?$AAo?$AAj?$AAe?$AAc?$AAt@
  000a7	68 00 00 00 00	 push	 OFFSET ??_C@_1BK@FMEHPMFE@?$AAm?$AAs?$AA_?$AAs?$AAi?$AAn?$AAg?$AAl?$AAe?$AAt?$AAo?$AAn@
  000ac	e8 00 00 00 00	 call	 __wassert
  000b1	8b 0d 00 00 00
	00		 mov	 ecx, DWORD PTR ?ms_singleton@?$CSingleton@VCItemManager@@@@0PAVCItemManager@@A ; CSingleton<CItemManager>::ms_singleton
  000b7	83 c4 0c	 add	 esp, 12			; 0000000cH
$LN21@playerCanU:
; File C:\Anka2Project\Anka2Project\Source\Binary\source\UserInterface\PythonPlayerModule.cpp

; 1944 : 	CItemManager::Instance().SelectItemData(iKeyItemIndex);

  000ba	ff 75 f8	 push	 DWORD PTR _iKeyItemIndex$[ebp]
  000bd	e8 00 00 00 00	 call	 ?SelectItemData@CItemManager@@QAEHK@Z ; CItemManager::SelectItemData
; File C:\Anka2Project\Anka2Project\Source\Binary\source\eterBase\Singleton.h

; 26   : 		assert(ms_singleton);

  000c2	8b 0d 00 00 00
	00		 mov	 ecx, DWORD PTR ?ms_singleton@?$CSingleton@VCItemManager@@@@0PAVCItemManager@@A ; CSingleton<CItemManager>::ms_singleton
  000c8	85 c9		 test	 ecx, ecx
  000ca	75 1a		 jne	 SHORT $LN24@playerCanU
  000cc	6a 1a		 push	 26			; 0000001aH
  000ce	68 00 00 00 00	 push	 OFFSET ??_C@_1IO@CAJLEEOI@?$AAC?$AA?3?$AA?2?$AAA?$AAn?$AAk?$AAa?$AA2?$AAP?$AAr?$AAo?$AAj?$AAe?$AAc?$AAt@
  000d3	68 00 00 00 00	 push	 OFFSET ??_C@_1BK@FMEHPMFE@?$AAm?$AAs?$AA_?$AAs?$AAi?$AAn?$AAg?$AAl?$AAe?$AAt?$AAo?$AAn@
  000d8	e8 00 00 00 00	 call	 __wassert
  000dd	8b 0d 00 00 00
	00		 mov	 ecx, DWORD PTR ?ms_singleton@?$CSingleton@VCItemManager@@@@0PAVCItemManager@@A ; CSingleton<CItemManager>::ms_singleton
  000e3	83 c4 0c	 add	 esp, 12			; 0000000cH
$LN24@playerCanU:
; File C:\Anka2Project\Anka2Project\Source\Binary\source\UserInterface\PythonPlayerModule.cpp

; 1945 : 	CItemData * pKeyItemData = CItemManager::Instance().GetSelectedItemDataPointer();

  000e6	e8 00 00 00 00	 call	 ?GetSelectedItemDataPointer@CItemManager@@QAEPAVCItemData@@XZ ; CItemManager::GetSelectedItemDataPointer

; 1946 : 	if (!pKeyItemData)

  000eb	85 c0		 test	 eax, eax
  000ed	75 13		 jne	 SHORT $LN12@playerCanU
$LN53@playerCanU:

; 1962 : }

  000ef	68 00 00 00 00	 push	 OFFSET ??_C@_0BF@BGKCJNBK@Can?8t?5find?5item?5data@
  000f4	e8 00 00 00 00	 call	 ?Py_BuildException@@YAPAU_object@@PBDZZ ; Py_BuildException
  000f9	83 c4 04	 add	 esp, 4
  000fc	5f		 pop	 edi
  000fd	5e		 pop	 esi
  000fe	8b e5		 mov	 esp, ebp
  00100	5d		 pop	 ebp
  00101	c3		 ret	 0
$LN12@playerCanU:

; 1947 : 		return Py_BuildException("Can't find item data");
; 1948 : 	int iKeyType = pKeyItemData->GetType();

  00102	8b c8		 mov	 ecx, eax
  00104	e8 00 00 00 00	 call	 ?GetType@CItemData@@QBEEXZ ; CItemData::GetType

; 1949 : 	if (iKeyType != CItemData::ITEM_TYPE_TREASURE_KEY)

  00109	3c 15		 cmp	 al, 21			; 00000015H
  0010b	74 16		 je	 SHORT $LN13@playerCanU
$LN51@playerCanU:

; 1962 : }

  0010d	6a 00		 push	 0
  0010f	68 00 00 00 00	 push	 OFFSET ??_C@_01KBJDNOO@i@
  00114	ff 15 00 00 00
	00		 call	 DWORD PTR __imp__Py_BuildValue
  0011a	83 c4 08	 add	 esp, 8
  0011d	5f		 pop	 edi
  0011e	5e		 pop	 esi
  0011f	8b e5		 mov	 esp, ebp
  00121	5d		 pop	 ebp
  00122	c3		 ret	 0
$LN13@playerCanU:
; File C:\Anka2Project\Anka2Project\Source\Binary\source\eterBase\Singleton.h

; 26   : 		assert(ms_singleton);

  00123	8b 3d 00 00 00
	00		 mov	 edi, DWORD PTR ?ms_singleton@?$CSingleton@VCPythonPlayer@@@@0PAVCPythonPlayer@@A ; CSingleton<CPythonPlayer>::ms_singleton
  00129	85 ff		 test	 edi, edi
  0012b	75 1a		 jne	 SHORT $LN27@playerCanU
  0012d	6a 1a		 push	 26			; 0000001aH
  0012f	68 00 00 00 00	 push	 OFFSET ??_C@_1IO@CAJLEEOI@?$AAC?$AA?3?$AA?2?$AAA?$AAn?$AAk?$AAa?$AA2?$AAP?$AAr?$AAo?$AAj?$AAe?$AAc?$AAt@
  00134	68 00 00 00 00	 push	 OFFSET ??_C@_1BK@FMEHPMFE@?$AAm?$AAs?$AA_?$AAs?$AAi?$AAn?$AAg?$AAl?$AAe?$AAt?$AAo?$AAn@
  00139	e8 00 00 00 00	 call	 __wassert
  0013e	8b 3d 00 00 00
	00		 mov	 edi, DWORD PTR ?ms_singleton@?$CSingleton@VCPythonPlayer@@@@0PAVCPythonPlayer@@A ; CSingleton<CPythonPlayer>::ms_singleton
  00144	83 c4 0c	 add	 esp, 12			; 0000000cH
$LN27@playerCanU:
; File C:\Anka2Project\Anka2Project\Source\Binary\source\UserInterface\PythonPlayerModule.cpp

; 1952 : 	int iTargetItemIndex = CPythonPlayer::Instance().GetItemIndex(TargetSlotIndex);

  00147	8b 47 04	 mov	 eax, DWORD PTR [edi+4]
  0014a	8a 4d fe	 mov	 cl, BYTE PTR _TargetSlotIndex$[ebp+2]
  0014d	66 8b 55 fc	 mov	 dx, WORD PTR _TargetSlotIndex$[ebp]
  00151	51		 push	 ecx
  00152	8b 70 48	 mov	 esi, DWORD PTR [eax+72]
  00155	8b c4		 mov	 eax, esp
  00157	66 89 10	 mov	 WORD PTR [eax], dx
  0015a	88 48 02	 mov	 BYTE PTR [eax+2], cl
  0015d	8d 4f 04	 lea	 ecx, DWORD PTR [edi+4]
  00160	ff d6		 call	 esi
; File C:\Anka2Project\Anka2Project\Source\Binary\source\eterBase\Singleton.h

; 26   : 		assert(ms_singleton);

  00162	8b 0d 00 00 00
	00		 mov	 ecx, DWORD PTR ?ms_singleton@?$CSingleton@VCItemManager@@@@0PAVCItemManager@@A ; CSingleton<CItemManager>::ms_singleton
; File C:\Anka2Project\Anka2Project\Source\Binary\source\UserInterface\PythonPlayerModule.cpp

; 1952 : 	int iTargetItemIndex = CPythonPlayer::Instance().GetItemIndex(TargetSlotIndex);

  00168	8b f0		 mov	 esi, eax
; File C:\Anka2Project\Anka2Project\Source\Binary\source\eterBase\Singleton.h

; 26   : 		assert(ms_singleton);

  0016a	85 c9		 test	 ecx, ecx
  0016c	75 1a		 jne	 SHORT $LN30@playerCanU
  0016e	6a 1a		 push	 26			; 0000001aH
  00170	68 00 00 00 00	 push	 OFFSET ??_C@_1IO@CAJLEEOI@?$AAC?$AA?3?$AA?2?$AAA?$AAn?$AAk?$AAa?$AA2?$AAP?$AAr?$AAo?$AAj?$AAe?$AAc?$AAt@
  00175	68 00 00 00 00	 push	 OFFSET ??_C@_1BK@FMEHPMFE@?$AAm?$AAs?$AA_?$AAs?$AAi?$AAn?$AAg?$AAl?$AAe?$AAt?$AAo?$AAn@
  0017a	e8 00 00 00 00	 call	 __wassert
  0017f	8b 0d 00 00 00
	00		 mov	 ecx, DWORD PTR ?ms_singleton@?$CSingleton@VCItemManager@@@@0PAVCItemManager@@A ; CSingleton<CItemManager>::ms_singleton
  00185	83 c4 0c	 add	 esp, 12			; 0000000cH
$LN30@playerCanU:
; File C:\Anka2Project\Anka2Project\Source\Binary\source\UserInterface\PythonPlayerModule.cpp

; 1953 : 	CItemManager::Instance().SelectItemData(iTargetItemIndex);

  00188	56		 push	 esi
  00189	e8 00 00 00 00	 call	 ?SelectItemData@CItemManager@@QAEHK@Z ; CItemManager::SelectItemData
; File C:\Anka2Project\Anka2Project\Source\Binary\source\eterBase\Singleton.h

; 26   : 		assert(ms_singleton);

  0018e	8b 0d 00 00 00
	00		 mov	 ecx, DWORD PTR ?ms_singleton@?$CSingleton@VCItemManager@@@@0PAVCItemManager@@A ; CSingleton<CItemManager>::ms_singleton
  00194	85 c9		 test	 ecx, ecx
  00196	75 1a		 jne	 SHORT $LN33@playerCanU
  00198	6a 1a		 push	 26			; 0000001aH
  0019a	68 00 00 00 00	 push	 OFFSET ??_C@_1IO@CAJLEEOI@?$AAC?$AA?3?$AA?2?$AAA?$AAn?$AAk?$AAa?$AA2?$AAP?$AAr?$AAo?$AAj?$AAe?$AAc?$AAt@
  0019f	68 00 00 00 00	 push	 OFFSET ??_C@_1BK@FMEHPMFE@?$AAm?$AAs?$AA_?$AAs?$AAi?$AAn?$AAg?$AAl?$AAe?$AAt?$AAo?$AAn@
  001a4	e8 00 00 00 00	 call	 __wassert
  001a9	8b 0d 00 00 00
	00		 mov	 ecx, DWORD PTR ?ms_singleton@?$CSingleton@VCItemManager@@@@0PAVCItemManager@@A ; CSingleton<CItemManager>::ms_singleton
  001af	83 c4 0c	 add	 esp, 12			; 0000000cH
$LN33@playerCanU:
; File C:\Anka2Project\Anka2Project\Source\Binary\source\UserInterface\PythonPlayerModule.cpp

; 1954 : 	CItemData * pTargetItemData = CItemManager::Instance().GetSelectedItemDataPointer();

  001b2	e8 00 00 00 00	 call	 ?GetSelectedItemDataPointer@CItemManager@@QAEPAVCItemData@@XZ ; CItemManager::GetSelectedItemDataPointer

; 1955 : 	if (!pTargetItemData)

  001b7	85 c0		 test	 eax, eax
  001b9	0f 84 30 ff ff
	ff		 je	 $LN53@playerCanU

; 1956 : 		return Py_BuildException("Can't find item data");
; 1957 : 	int iTargetType = pTargetItemData->GetType();

  001bf	8b c8		 mov	 ecx, eax
  001c1	e8 00 00 00 00	 call	 ?GetType@CItemData@@QBEEXZ ; CItemData::GetType

; 1958 : 	if (iTargetType != CItemData::ITEM_TYPE_TREASURE_BOX)

  001c6	3c 14		 cmp	 al, 20			; 00000014H
  001c8	0f 85 3f ff ff
	ff		 jne	 $LN51@playerCanU

; 1959 : 		return Py_BuildValue("i", FALSE);
; 1960 : 
; 1961 : 	return Py_BuildValue("i", TRUE);

  001ce	6a 01		 push	 1

; 1962 : }

  001d0	68 00 00 00 00	 push	 OFFSET ??_C@_01KBJDNOO@i@
  001d5	ff 15 00 00 00
	00		 call	 DWORD PTR __imp__Py_BuildValue
  001db	83 c4 08	 add	 esp, 8
  001de	5f		 pop	 edi
  001df	5e		 pop	 esi
  001e0	8b e5		 mov	 esp, ebp
  001e2	5d		 pop	 ebp
  001e3	c3		 ret	 0
?playerCanUnlock@@YAPAU_object@@PAU1@0@Z ENDP		; playerCanUnlock
_TEXT	ENDS
; Function compile flags: /Ogtp
; File C:\Anka2Project\Anka2Project\Source\Binary\source\UserInterface\PythonPlayerModule.cpp
; File C:\Anka2Project\Anka2Project\Source\Binary\source\UserInterface\GameType.h
; File C:\Anka2Project\Anka2Project\Source\Binary\source\UserInterface\PythonPlayerModule.cpp
; File C:\Anka2Project\Anka2Project\Source\Binary\source\UserInterface\GameType.h
; File C:\Anka2Project\Anka2Project\Source\Binary\source\UserInterface\PythonPlayerModule.cpp
;	COMDAT ?playerIsRefineGradeScroll@@YAPAU_object@@PAU1@0@Z
_TEXT	SEGMENT
_ScrollSlotIndex$ = -4					; size = 3
_poSelf$ = 8						; size = 4
_poArgs$ = 12						; size = 4
?playerIsRefineGradeScroll@@YAPAU_object@@PAU1@0@Z PROC	; playerIsRefineGradeScroll, COMDAT

; 1965 : {

  00000	55		 push	 ebp
  00001	8b ec		 mov	 ebp, esp
  00003	51		 push	 ecx
  00004	56		 push	 esi

; 1967 : 	switch (PyTuple_Size(poArgs))

  00005	8b 75 0c	 mov	 esi, DWORD PTR _poArgs$[ebp]
; File C:\Anka2Project\Anka2Project\Source\Binary\source\UserInterface\GameType.h

; 448  : 		cell = WORD_MAX;

  00008	b8 ff ff 00 00	 mov	 eax, 65535		; 0000ffffH
; File C:\Anka2Project\Anka2Project\Source\Binary\source\UserInterface\PythonPlayerModule.cpp

; 1967 : 	switch (PyTuple_Size(poArgs))

  0000d	56		 push	 esi
; File C:\Anka2Project\Anka2Project\Source\Binary\source\UserInterface\GameType.h

; 447  : 		window_type = INVENTORY;

  0000e	c6 45 fc 01	 mov	 BYTE PTR _ScrollSlotIndex$[ebp], 1

; 448  : 		cell = WORD_MAX;

  00012	66 89 45 fd	 mov	 WORD PTR _ScrollSlotIndex$[ebp+1], ax
; File C:\Anka2Project\Anka2Project\Source\Binary\source\UserInterface\PythonPlayerModule.cpp

; 1967 : 	switch (PyTuple_Size(poArgs))

  00016	ff 15 00 00 00
	00		 call	 DWORD PTR __imp__PyTuple_Size
  0001c	83 c4 04	 add	 esp, 4
  0001f	83 e8 01	 sub	 eax, 1
  00022	74 14		 je	 SHORT $LN4@playerIsRe
  00024	83 e8 01	 sub	 eax, 1
  00027	74 22		 je	 SHORT $LN5@playerIsRe

; 1976 : 			return Py_BuildException();
; 1977 : 	default:
; 1978 : 		return Py_BuildException();
; 1979 : 	}
; 1980 : 
; 1981 : 	int iScrollItemIndex = CPythonPlayer::Instance().GetItemIndex(ScrollSlotIndex);
; 1982 : 	CItemManager::Instance().SelectItemData(iScrollItemIndex);
; 1983 : 	CItemData * pScrollItemData = CItemManager::Instance().GetSelectedItemDataPointer();
; 1984 : 	if (!pScrollItemData)
; 1985 : 		return Py_BuildException("Can't find item data");
; 1986 : 
; 1987 : 	return Py_BuildValue("i", REFINE_SCROLL_TYPE_UP_GRADE == pScrollItemData->GetValue(0));
; 1988 : }

  00029	6a 00		 push	 0
  0002b	e8 00 00 00 00	 call	 ?Py_BuildException@@YAPAU_object@@PBDZZ ; Py_BuildException
  00030	83 c4 04	 add	 esp, 4
  00033	5e		 pop	 esi
  00034	8b e5		 mov	 esp, ebp
  00036	5d		 pop	 ebp
  00037	c3		 ret	 0
$LN4@playerIsRe:

; 1968 : 	{
; 1969 : 	case 1:
; 1970 : 		if (!PyTuple_GetInteger(poArgs, 0, &ScrollSlotIndex.cell))

  00038	8d 45 fd	 lea	 eax, DWORD PTR _ScrollSlotIndex$[ebp+1]
  0003b	50		 push	 eax
  0003c	6a 00		 push	 0
  0003e	56		 push	 esi
  0003f	e8 00 00 00 00	 call	 ?PyTuple_GetInteger@@YA_NPAU_object@@HPAG@Z ; PyTuple_GetInteger
  00044	83 c4 0c	 add	 esp, 12			; 0000000cH
  00047	84 c0		 test	 al, al
  00049	74 22		 je	 SHORT $LN8@playerIsRe
$LN5@playerIsRe:

; 1971 : 			return Py_BuildException();
; 1972 : 	case 2:
; 1973 : 		if (!PyTuple_GetInteger(poArgs, 0, &ScrollSlotIndex.window_type))

  0004b	8d 45 fc	 lea	 eax, DWORD PTR _ScrollSlotIndex$[ebp]
  0004e	50		 push	 eax
  0004f	6a 00		 push	 0
  00051	56		 push	 esi
  00052	e8 00 00 00 00	 call	 ?PyTuple_GetInteger@@YA_NPAU_object@@HPAE@Z ; PyTuple_GetInteger
  00057	83 c4 0c	 add	 esp, 12			; 0000000cH
  0005a	84 c0		 test	 al, al
  0005c	74 0f		 je	 SHORT $LN8@playerIsRe

; 1974 : 			return Py_BuildException();
; 1975 : 		if (!PyTuple_GetInteger(poArgs, 1, &ScrollSlotIndex.cell))

  0005e	8d 45 fd	 lea	 eax, DWORD PTR _ScrollSlotIndex$[ebp+1]
  00061	50		 push	 eax
  00062	6a 01		 push	 1
  00064	56		 push	 esi
  00065	e8 00 00 00 00	 call	 ?PyTuple_GetInteger@@YA_NPAU_object@@HPAG@Z ; PyTuple_GetInteger
  0006a	83 c4 0c	 add	 esp, 12			; 0000000cH
$LN8@playerIsRe:

; 1976 : 			return Py_BuildException();
; 1977 : 	default:
; 1978 : 		return Py_BuildException();
; 1979 : 	}
; 1980 : 
; 1981 : 	int iScrollItemIndex = CPythonPlayer::Instance().GetItemIndex(ScrollSlotIndex);
; 1982 : 	CItemManager::Instance().SelectItemData(iScrollItemIndex);
; 1983 : 	CItemData * pScrollItemData = CItemManager::Instance().GetSelectedItemDataPointer();
; 1984 : 	if (!pScrollItemData)
; 1985 : 		return Py_BuildException("Can't find item data");
; 1986 : 
; 1987 : 	return Py_BuildValue("i", REFINE_SCROLL_TYPE_UP_GRADE == pScrollItemData->GetValue(0));
; 1988 : }

  0006d	6a 00		 push	 0
  0006f	e8 00 00 00 00	 call	 ?Py_BuildException@@YAPAU_object@@PBDZZ ; Py_BuildException
  00074	83 c4 04	 add	 esp, 4
  00077	5e		 pop	 esi
  00078	8b e5		 mov	 esp, ebp
  0007a	5d		 pop	 ebp
  0007b	c3		 ret	 0
?playerIsRefineGradeScroll@@YAPAU_object@@PAU1@0@Z ENDP	; playerIsRefineGradeScroll
_TEXT	ENDS
; Function compile flags: /Ogtp
; File C:\Anka2Project\Anka2Project\Source\Binary\source\UserInterface\PythonPlayerModule.cpp
; File C:\Anka2Project\Anka2Project\Source\Binary\source\eterBase\Singleton.h
; File C:\Anka2Project\Anka2Project\Source\Binary\source\UserInterface\PythonPlayerModule.cpp
;	COMDAT ?playerIsPartyMember@@YAPAU_object@@PAU1@0@Z
_TEXT	SEGMENT
_iVID$ = -4						; size = 4
_poSelf$ = 8						; size = 4
_poArgs$ = 12						; size = 4
?playerIsPartyMember@@YAPAU_object@@PAU1@0@Z PROC	; playerIsPartyMember, COMDAT

; 2034 : {

  00000	55		 push	 ebp
  00001	8b ec		 mov	 ebp, esp
  00003	51		 push	 ecx

; 2035 : 	int iVID;
; 2036 : 	if (!PyTuple_GetInteger(poArgs, 0, &iVID))

  00004	8d 45 fc	 lea	 eax, DWORD PTR _iVID$[ebp]
  00007	50		 push	 eax
  00008	6a 00		 push	 0
  0000a	ff 75 0c	 push	 DWORD PTR _poArgs$[ebp]
  0000d	e8 00 00 00 00	 call	 ?PyTuple_GetInteger@@YA_NPAU_object@@HPAH@Z ; PyTuple_GetInteger
  00012	83 c4 0c	 add	 esp, 12			; 0000000cH
  00015	84 c0		 test	 al, al
  00017	75 0e		 jne	 SHORT $LN2@playerIsPa

; 2037 : 		return Py_BuildException();

  00019	6a 00		 push	 0
  0001b	e8 00 00 00 00	 call	 ?Py_BuildException@@YAPAU_object@@PBDZZ ; Py_BuildException
  00020	83 c4 04	 add	 esp, 4

; 2040 : }

  00023	8b e5		 mov	 esp, ebp
  00025	5d		 pop	 ebp
  00026	c3		 ret	 0
$LN2@playerIsPa:
; File C:\Anka2Project\Anka2Project\Source\Binary\source\eterBase\Singleton.h

; 26   : 		assert(ms_singleton);

  00027	8b 0d 00 00 00
	00		 mov	 ecx, DWORD PTR ?ms_singleton@?$CSingleton@VCPythonPlayer@@@@0PAVCPythonPlayer@@A ; CSingleton<CPythonPlayer>::ms_singleton
  0002d	85 c9		 test	 ecx, ecx
  0002f	75 1a		 jne	 SHORT $LN6@playerIsPa
  00031	6a 1a		 push	 26			; 0000001aH
  00033	68 00 00 00 00	 push	 OFFSET ??_C@_1IO@CAJLEEOI@?$AAC?$AA?3?$AA?2?$AAA?$AAn?$AAk?$AAa?$AA2?$AAP?$AAr?$AAo?$AAj?$AAe?$AAc?$AAt@
  00038	68 00 00 00 00	 push	 OFFSET ??_C@_1BK@FMEHPMFE@?$AAm?$AAs?$AA_?$AAs?$AAi?$AAn?$AAg?$AAl?$AAe?$AAt?$AAo?$AAn@
  0003d	e8 00 00 00 00	 call	 __wassert
  00042	8b 0d 00 00 00
	00		 mov	 ecx, DWORD PTR ?ms_singleton@?$CSingleton@VCPythonPlayer@@@@0PAVCPythonPlayer@@A ; CSingleton<CPythonPlayer>::ms_singleton
  00048	83 c4 0c	 add	 esp, 12			; 0000000cH
$LN6@playerIsPa:
; File C:\Anka2Project\Anka2Project\Source\Binary\source\UserInterface\PythonPlayerModule.cpp

; 2039 : 	return Py_BuildValue("i", CPythonPlayer::Instance().IsPartyMemberByVID(iVID));

  0004b	8b 41 04	 mov	 eax, DWORD PTR [ecx+4]
  0004e	83 c1 04	 add	 ecx, 4
  00051	ff 75 fc	 push	 DWORD PTR _iVID$[ebp]
  00054	8b 40 28	 mov	 eax, DWORD PTR [eax+40]
  00057	ff d0		 call	 eax
  00059	0f b6 c0	 movzx	 eax, al
  0005c	50		 push	 eax
  0005d	68 00 00 00 00	 push	 OFFSET ??_C@_01KBJDNOO@i@
  00062	ff 15 00 00 00
	00		 call	 DWORD PTR __imp__Py_BuildValue
  00068	83 c4 08	 add	 esp, 8

; 2040 : }

  0006b	8b e5		 mov	 esp, ebp
  0006d	5d		 pop	 ebp
  0006e	c3		 ret	 0
?playerIsPartyMember@@YAPAU_object@@PAU1@0@Z ENDP	; playerIsPartyMember
_TEXT	ENDS
; Function compile flags: /Ogtp
; File C:\Anka2Project\Anka2Project\Source\Binary\source\UserInterface\PythonPlayerModule.cpp
; File C:\Anka2Project\Anka2Project\Source\Binary\source\eterBase\Singleton.h
; File C:\Anka2Project\Anka2Project\Source\Binary\source\UserInterface\PythonPlayerModule.cpp
; File C:\Anka2Project\Anka2Project\Source\Binary\source\eterBase\Singleton.h
; File C:\Anka2Project\Anka2Project\Source\Binary\source\UserInterface\PythonPlayerModule.cpp
;	COMDAT ?playerIsPartyLeader@@YAPAU_object@@PAU1@0@Z
_TEXT	SEGMENT
_pPartyMemberInfo$ = -12				; size = 4
_dwPID$ = -8						; size = 4
_iVID$ = -4						; size = 4
_poSelf$ = 8						; size = 4
_poArgs$ = 12						; size = 4
?playerIsPartyLeader@@YAPAU_object@@PAU1@0@Z PROC	; playerIsPartyLeader, COMDAT

; 2043 : {

  00000	55		 push	 ebp
  00001	8b ec		 mov	 ebp, esp
  00003	83 ec 0c	 sub	 esp, 12			; 0000000cH

; 2044 : 	int iVID;
; 2045 : 	if (!PyTuple_GetInteger(poArgs, 0, &iVID))

  00006	8d 45 fc	 lea	 eax, DWORD PTR _iVID$[ebp]
  00009	50		 push	 eax
  0000a	6a 00		 push	 0
  0000c	ff 75 0c	 push	 DWORD PTR _poArgs$[ebp]
  0000f	e8 00 00 00 00	 call	 ?PyTuple_GetInteger@@YA_NPAU_object@@HPAH@Z ; PyTuple_GetInteger
  00014	83 c4 0c	 add	 esp, 12			; 0000000cH
  00017	84 c0		 test	 al, al
  00019	75 0e		 jne	 SHORT $LN2@playerIsPa

; 2046 : 		return Py_BuildException();

  0001b	6a 00		 push	 0
  0001d	e8 00 00 00 00	 call	 ?Py_BuildException@@YAPAU_object@@PBDZZ ; Py_BuildException
  00022	83 c4 04	 add	 esp, 4

; 2057 : }

  00025	8b e5		 mov	 esp, ebp
  00027	5d		 pop	 ebp
  00028	c3		 ret	 0
$LN2@playerIsPa:
; File C:\Anka2Project\Anka2Project\Source\Binary\source\eterBase\Singleton.h

; 26   : 		assert(ms_singleton);

  00029	8b 0d 00 00 00
	00		 mov	 ecx, DWORD PTR ?ms_singleton@?$CSingleton@VCPythonPlayer@@@@0PAVCPythonPlayer@@A ; CSingleton<CPythonPlayer>::ms_singleton
  0002f	85 c9		 test	 ecx, ecx
  00031	75 1a		 jne	 SHORT $LN8@playerIsPa
  00033	6a 1a		 push	 26			; 0000001aH
  00035	68 00 00 00 00	 push	 OFFSET ??_C@_1IO@CAJLEEOI@?$AAC?$AA?3?$AA?2?$AAA?$AAn?$AAk?$AAa?$AA2?$AAP?$AAr?$AAo?$AAj?$AAe?$AAc?$AAt@
  0003a	68 00 00 00 00	 push	 OFFSET ??_C@_1BK@FMEHPMFE@?$AAm?$AAs?$AA_?$AAs?$AAi?$AAn?$AAg?$AAl?$AAe?$AAt?$AAo?$AAn@
  0003f	e8 00 00 00 00	 call	 __wassert
  00044	8b 0d 00 00 00
	00		 mov	 ecx, DWORD PTR ?ms_singleton@?$CSingleton@VCPythonPlayer@@@@0PAVCPythonPlayer@@A ; CSingleton<CPythonPlayer>::ms_singleton
  0004a	83 c4 0c	 add	 esp, 12			; 0000000cH
$LN8@playerIsPa:
; File C:\Anka2Project\Anka2Project\Source\Binary\source\UserInterface\PythonPlayerModule.cpp

; 2049 : 	if (!CPythonPlayer::Instance().PartyMemberVIDToPID(iVID, &dwPID))

  0004d	8b 41 04	 mov	 eax, DWORD PTR [ecx+4]
  00050	8d 55 f8	 lea	 edx, DWORD PTR _dwPID$[ebp]
  00053	83 c1 04	 add	 ecx, 4
  00056	52		 push	 edx
  00057	ff 75 fc	 push	 DWORD PTR _iVID$[ebp]
  0005a	8b 40 2c	 mov	 eax, DWORD PTR [eax+44]
  0005d	ff d0		 call	 eax
  0005f	84 c0		 test	 al, al
  00061	75 14		 jne	 SHORT $LN3@playerIsPa
$LN13@playerIsPa:

; 2057 : }

  00063	6a 00		 push	 0
  00065	68 00 00 00 00	 push	 OFFSET ??_C@_01KBJDNOO@i@
  0006a	ff 15 00 00 00
	00		 call	 DWORD PTR __imp__Py_BuildValue
  00070	83 c4 08	 add	 esp, 8
  00073	8b e5		 mov	 esp, ebp
  00075	5d		 pop	 ebp
  00076	c3		 ret	 0
$LN3@playerIsPa:
; File C:\Anka2Project\Anka2Project\Source\Binary\source\eterBase\Singleton.h

; 26   : 		assert(ms_singleton);

  00077	8b 0d 00 00 00
	00		 mov	 ecx, DWORD PTR ?ms_singleton@?$CSingleton@VCPythonPlayer@@@@0PAVCPythonPlayer@@A ; CSingleton<CPythonPlayer>::ms_singleton
  0007d	85 c9		 test	 ecx, ecx
  0007f	75 1a		 jne	 SHORT $LN11@playerIsPa
  00081	6a 1a		 push	 26			; 0000001aH
  00083	68 00 00 00 00	 push	 OFFSET ??_C@_1IO@CAJLEEOI@?$AAC?$AA?3?$AA?2?$AAA?$AAn?$AAk?$AAa?$AA2?$AAP?$AAr?$AAo?$AAj?$AAe?$AAc?$AAt@
  00088	68 00 00 00 00	 push	 OFFSET ??_C@_1BK@FMEHPMFE@?$AAm?$AAs?$AA_?$AAs?$AAi?$AAn?$AAg?$AAl?$AAe?$AAt?$AAo?$AAn@
  0008d	e8 00 00 00 00	 call	 __wassert
  00092	8b 0d 00 00 00
	00		 mov	 ecx, DWORD PTR ?ms_singleton@?$CSingleton@VCPythonPlayer@@@@0PAVCPythonPlayer@@A ; CSingleton<CPythonPlayer>::ms_singleton
  00098	83 c4 0c	 add	 esp, 12			; 0000000cH
$LN11@playerIsPa:
; File C:\Anka2Project\Anka2Project\Source\Binary\source\UserInterface\PythonPlayerModule.cpp

; 2053 : 	if (!CPythonPlayer::Instance().GetPartyMemberPtr(dwPID, &pPartyMemberInfo))

  0009b	8d 45 f4	 lea	 eax, DWORD PTR _pPartyMemberInfo$[ebp]
  0009e	50		 push	 eax
  0009f	ff 75 f8	 push	 DWORD PTR _dwPID$[ebp]
  000a2	e8 00 00 00 00	 call	 ?GetPartyMemberPtr@CPythonPlayer@@QAE_NKPAPAUSPartyMemberInfo@1@@Z ; CPythonPlayer::GetPartyMemberPtr
  000a7	84 c0		 test	 al, al
  000a9	74 b8		 je	 SHORT $LN13@playerIsPa

; 2054 : 		return Py_BuildValue("i", FALSE);
; 2055 : 
; 2056 : 	return Py_BuildValue("i", CPythonPlayer::PARTY_ROLE_LEADER == pPartyMemberInfo->byState);

  000ab	8b 45 f4	 mov	 eax, DWORD PTR _pPartyMemberInfo$[ebp]
  000ae	33 c9		 xor	 ecx, ecx
  000b0	80 78 20 01	 cmp	 BYTE PTR [eax+32], 1
  000b4	0f 94 c1	 sete	 cl
  000b7	51		 push	 ecx

; 2057 : }

  000b8	68 00 00 00 00	 push	 OFFSET ??_C@_01KBJDNOO@i@
  000bd	ff 15 00 00 00
	00		 call	 DWORD PTR __imp__Py_BuildValue
  000c3	83 c4 08	 add	 esp, 8
  000c6	8b e5		 mov	 esp, ebp
  000c8	5d		 pop	 ebp
  000c9	c3		 ret	 0
?playerIsPartyLeader@@YAPAU_object@@PAU1@0@Z ENDP	; playerIsPartyLeader
_TEXT	ENDS
; Function compile flags: /Ogtp
; File C:\Anka2Project\Anka2Project\Source\Binary\source\UserInterface\PythonPlayerModule.cpp
; File C:\Anka2Project\Anka2Project\Source\Binary\source\eterBase\Singleton.h
; File C:\Anka2Project\Anka2Project\Source\Binary\source\UserInterface\PythonPlayerModule.cpp
;	COMDAT ?playerIsPartyLeaderByPID@@YAPAU_object@@PAU1@0@Z
_TEXT	SEGMENT
_pPartyMemberInfo$ = -8					; size = 4
_iPID$ = -4						; size = 4
_poSelf$ = 8						; size = 4
_poArgs$ = 12						; size = 4
?playerIsPartyLeaderByPID@@YAPAU_object@@PAU1@0@Z PROC	; playerIsPartyLeaderByPID, COMDAT

; 2060 : {

  00000	55		 push	 ebp
  00001	8b ec		 mov	 ebp, esp
  00003	83 ec 08	 sub	 esp, 8

; 2061 : 	int iPID;
; 2062 : 	if (!PyTuple_GetInteger(poArgs, 0, &iPID))

  00006	8d 45 fc	 lea	 eax, DWORD PTR _iPID$[ebp]
  00009	50		 push	 eax
  0000a	6a 00		 push	 0
  0000c	ff 75 0c	 push	 DWORD PTR _poArgs$[ebp]
  0000f	e8 00 00 00 00	 call	 ?PyTuple_GetInteger@@YA_NPAU_object@@HPAH@Z ; PyTuple_GetInteger
  00014	83 c4 0c	 add	 esp, 12			; 0000000cH
  00017	84 c0		 test	 al, al
  00019	75 0e		 jne	 SHORT $LN2@playerIsPa

; 2063 : 		return Py_BuildException();

  0001b	6a 00		 push	 0
  0001d	e8 00 00 00 00	 call	 ?Py_BuildException@@YAPAU_object@@PBDZZ ; Py_BuildException
  00022	83 c4 04	 add	 esp, 4

; 2070 : }

  00025	8b e5		 mov	 esp, ebp
  00027	5d		 pop	 ebp
  00028	c3		 ret	 0
$LN2@playerIsPa:
; File C:\Anka2Project\Anka2Project\Source\Binary\source\eterBase\Singleton.h

; 26   : 		assert(ms_singleton);

  00029	8b 0d 00 00 00
	00		 mov	 ecx, DWORD PTR ?ms_singleton@?$CSingleton@VCPythonPlayer@@@@0PAVCPythonPlayer@@A ; CSingleton<CPythonPlayer>::ms_singleton
  0002f	85 c9		 test	 ecx, ecx
  00031	75 1a		 jne	 SHORT $LN7@playerIsPa
  00033	6a 1a		 push	 26			; 0000001aH
  00035	68 00 00 00 00	 push	 OFFSET ??_C@_1IO@CAJLEEOI@?$AAC?$AA?3?$AA?2?$AAA?$AAn?$AAk?$AAa?$AA2?$AAP?$AAr?$AAo?$AAj?$AAe?$AAc?$AAt@
  0003a	68 00 00 00 00	 push	 OFFSET ??_C@_1BK@FMEHPMFE@?$AAm?$AAs?$AA_?$AAs?$AAi?$AAn?$AAg?$AAl?$AAe?$AAt?$AAo?$AAn@
  0003f	e8 00 00 00 00	 call	 __wassert
  00044	8b 0d 00 00 00
	00		 mov	 ecx, DWORD PTR ?ms_singleton@?$CSingleton@VCPythonPlayer@@@@0PAVCPythonPlayer@@A ; CSingleton<CPythonPlayer>::ms_singleton
  0004a	83 c4 0c	 add	 esp, 12			; 0000000cH
$LN7@playerIsPa:
; File C:\Anka2Project\Anka2Project\Source\Binary\source\UserInterface\PythonPlayerModule.cpp

; 2066 : 	if (!CPythonPlayer::Instance().GetPartyMemberPtr(iPID, &pPartyMemberInfo))

  0004d	8d 45 f8	 lea	 eax, DWORD PTR _pPartyMemberInfo$[ebp]
  00050	50		 push	 eax
  00051	ff 75 fc	 push	 DWORD PTR _iPID$[ebp]
  00054	e8 00 00 00 00	 call	 ?GetPartyMemberPtr@CPythonPlayer@@QAE_NKPAPAUSPartyMemberInfo@1@@Z ; CPythonPlayer::GetPartyMemberPtr
  00059	84 c0		 test	 al, al
  0005b	75 14		 jne	 SHORT $LN3@playerIsPa

; 2067 : 		return Py_BuildValue("i", FALSE);

  0005d	6a 00		 push	 0

; 2070 : }

  0005f	68 00 00 00 00	 push	 OFFSET ??_C@_01KBJDNOO@i@
  00064	ff 15 00 00 00
	00		 call	 DWORD PTR __imp__Py_BuildValue
  0006a	83 c4 08	 add	 esp, 8
  0006d	8b e5		 mov	 esp, ebp
  0006f	5d		 pop	 ebp
  00070	c3		 ret	 0
$LN3@playerIsPa:

; 2068 : 
; 2069 : 	return Py_BuildValue("i", CPythonPlayer::PARTY_ROLE_LEADER == pPartyMemberInfo->byState);

  00071	8b 45 f8	 mov	 eax, DWORD PTR _pPartyMemberInfo$[ebp]
  00074	33 c9		 xor	 ecx, ecx
  00076	80 78 20 01	 cmp	 BYTE PTR [eax+32], 1
  0007a	0f 94 c1	 sete	 cl
  0007d	51		 push	 ecx

; 2070 : }

  0007e	68 00 00 00 00	 push	 OFFSET ??_C@_01KBJDNOO@i@
  00083	ff 15 00 00 00
	00		 call	 DWORD PTR __imp__Py_BuildValue
  00089	83 c4 08	 add	 esp, 8
  0008c	8b e5		 mov	 esp, ebp
  0008e	5d		 pop	 ebp
  0008f	c3		 ret	 0
?playerIsPartyLeaderByPID@@YAPAU_object@@PAU1@0@Z ENDP	; playerIsPartyLeaderByPID
_TEXT	ENDS
; Function compile flags: /Ogtp
; File C:\Anka2Project\Anka2Project\Source\Binary\source\UserInterface\PythonPlayerModule.cpp
; File C:\Anka2Project\Anka2Project\Source\Binary\source\eterBase\Singleton.h
; File C:\Anka2Project\Anka2Project\Source\Binary\source\UserInterface\PythonPlayerModule.cpp
;	COMDAT ?playerGetPartyMemberHPPercentage@@YAPAU_object@@PAU1@0@Z
_TEXT	SEGMENT
_pPartyMemberInfo$ = -8					; size = 4
_iPID$ = -4						; size = 4
_poSelf$ = 8						; size = 4
_poArgs$ = 12						; size = 4
?playerGetPartyMemberHPPercentage@@YAPAU_object@@PAU1@0@Z PROC ; playerGetPartyMemberHPPercentage, COMDAT

; 2073 : {

  00000	55		 push	 ebp
  00001	8b ec		 mov	 ebp, esp
  00003	83 ec 08	 sub	 esp, 8

; 2074 : 	int iPID;
; 2075 : 	if (!PyTuple_GetInteger(poArgs, 0, &iPID))

  00006	8d 45 fc	 lea	 eax, DWORD PTR _iPID$[ebp]
  00009	50		 push	 eax
  0000a	6a 00		 push	 0
  0000c	ff 75 0c	 push	 DWORD PTR _poArgs$[ebp]
  0000f	e8 00 00 00 00	 call	 ?PyTuple_GetInteger@@YA_NPAU_object@@HPAH@Z ; PyTuple_GetInteger
  00014	83 c4 0c	 add	 esp, 12			; 0000000cH
  00017	84 c0		 test	 al, al
  00019	75 0e		 jne	 SHORT $LN2@playerGetP

; 2076 : 		return Py_BuildException();

  0001b	6a 00		 push	 0
  0001d	e8 00 00 00 00	 call	 ?Py_BuildException@@YAPAU_object@@PBDZZ ; Py_BuildException
  00022	83 c4 04	 add	 esp, 4

; 2083 : }

  00025	8b e5		 mov	 esp, ebp
  00027	5d		 pop	 ebp
  00028	c3		 ret	 0
$LN2@playerGetP:
; File C:\Anka2Project\Anka2Project\Source\Binary\source\eterBase\Singleton.h

; 26   : 		assert(ms_singleton);

  00029	8b 0d 00 00 00
	00		 mov	 ecx, DWORD PTR ?ms_singleton@?$CSingleton@VCPythonPlayer@@@@0PAVCPythonPlayer@@A ; CSingleton<CPythonPlayer>::ms_singleton
  0002f	85 c9		 test	 ecx, ecx
  00031	75 1a		 jne	 SHORT $LN7@playerGetP
  00033	6a 1a		 push	 26			; 0000001aH
  00035	68 00 00 00 00	 push	 OFFSET ??_C@_1IO@CAJLEEOI@?$AAC?$AA?3?$AA?2?$AAA?$AAn?$AAk?$AAa?$AA2?$AAP?$AAr?$AAo?$AAj?$AAe?$AAc?$AAt@
  0003a	68 00 00 00 00	 push	 OFFSET ??_C@_1BK@FMEHPMFE@?$AAm?$AAs?$AA_?$AAs?$AAi?$AAn?$AAg?$AAl?$AAe?$AAt?$AAo?$AAn@
  0003f	e8 00 00 00 00	 call	 __wassert
  00044	8b 0d 00 00 00
	00		 mov	 ecx, DWORD PTR ?ms_singleton@?$CSingleton@VCPythonPlayer@@@@0PAVCPythonPlayer@@A ; CSingleton<CPythonPlayer>::ms_singleton
  0004a	83 c4 0c	 add	 esp, 12			; 0000000cH
$LN7@playerGetP:
; File C:\Anka2Project\Anka2Project\Source\Binary\source\UserInterface\PythonPlayerModule.cpp

; 2079 : 	if (!CPythonPlayer::Instance().GetPartyMemberPtr(iPID, &pPartyMemberInfo))

  0004d	8d 45 f8	 lea	 eax, DWORD PTR _pPartyMemberInfo$[ebp]
  00050	50		 push	 eax
  00051	ff 75 fc	 push	 DWORD PTR _iPID$[ebp]
  00054	e8 00 00 00 00	 call	 ?GetPartyMemberPtr@CPythonPlayer@@QAE_NKPAPAUSPartyMemberInfo@1@@Z ; CPythonPlayer::GetPartyMemberPtr
  00059	84 c0		 test	 al, al
  0005b	75 14		 jne	 SHORT $LN3@playerGetP

; 2080 : 		return Py_BuildValue("i", FALSE);

  0005d	6a 00		 push	 0

; 2083 : }

  0005f	68 00 00 00 00	 push	 OFFSET ??_C@_01KBJDNOO@i@
  00064	ff 15 00 00 00
	00		 call	 DWORD PTR __imp__Py_BuildValue
  0006a	83 c4 08	 add	 esp, 8
  0006d	8b e5		 mov	 esp, ebp
  0006f	5d		 pop	 ebp
  00070	c3		 ret	 0
$LN3@playerGetP:

; 2081 : 
; 2082 : 	return Py_BuildValue("i", pPartyMemberInfo->byHPPercentage);

  00071	8b 45 f8	 mov	 eax, DWORD PTR _pPartyMemberInfo$[ebp]
  00074	0f b6 40 21	 movzx	 eax, BYTE PTR [eax+33]
  00078	50		 push	 eax

; 2083 : }

  00079	68 00 00 00 00	 push	 OFFSET ??_C@_01KBJDNOO@i@
  0007e	ff 15 00 00 00
	00		 call	 DWORD PTR __imp__Py_BuildValue
  00084	83 c4 08	 add	 esp, 8
  00087	8b e5		 mov	 esp, ebp
  00089	5d		 pop	 ebp
  0008a	c3		 ret	 0
?playerGetPartyMemberHPPercentage@@YAPAU_object@@PAU1@0@Z ENDP ; playerGetPartyMemberHPPercentage
_TEXT	ENDS
; Function compile flags: /Ogtp
; File C:\Anka2Project\Anka2Project\Source\Binary\source\UserInterface\PythonPlayerModule.cpp
; File C:\Anka2Project\Anka2Project\Source\Binary\source\eterBase\Singleton.h
; File C:\Anka2Project\Anka2Project\Source\Binary\source\UserInterface\PythonPlayerModule.cpp
;	COMDAT ?playerGetPartyMemberState@@YAPAU_object@@PAU1@0@Z
_TEXT	SEGMENT
_pPartyMemberInfo$ = -8					; size = 4
_iPID$ = -4						; size = 4
_poSelf$ = 8						; size = 4
_poArgs$ = 12						; size = 4
?playerGetPartyMemberState@@YAPAU_object@@PAU1@0@Z PROC	; playerGetPartyMemberState, COMDAT

; 2086 : {

  00000	55		 push	 ebp
  00001	8b ec		 mov	 ebp, esp
  00003	83 ec 08	 sub	 esp, 8

; 2087 : 	int iPID;
; 2088 : 	if (!PyTuple_GetInteger(poArgs, 0, &iPID))

  00006	8d 45 fc	 lea	 eax, DWORD PTR _iPID$[ebp]
  00009	50		 push	 eax
  0000a	6a 00		 push	 0
  0000c	ff 75 0c	 push	 DWORD PTR _poArgs$[ebp]
  0000f	e8 00 00 00 00	 call	 ?PyTuple_GetInteger@@YA_NPAU_object@@HPAH@Z ; PyTuple_GetInteger
  00014	83 c4 0c	 add	 esp, 12			; 0000000cH
  00017	84 c0		 test	 al, al
  00019	75 0e		 jne	 SHORT $LN2@playerGetP

; 2089 : 		return Py_BuildException();

  0001b	6a 00		 push	 0
  0001d	e8 00 00 00 00	 call	 ?Py_BuildException@@YAPAU_object@@PBDZZ ; Py_BuildException
  00022	83 c4 04	 add	 esp, 4

; 2096 : }

  00025	8b e5		 mov	 esp, ebp
  00027	5d		 pop	 ebp
  00028	c3		 ret	 0
$LN2@playerGetP:
; File C:\Anka2Project\Anka2Project\Source\Binary\source\eterBase\Singleton.h

; 26   : 		assert(ms_singleton);

  00029	8b 0d 00 00 00
	00		 mov	 ecx, DWORD PTR ?ms_singleton@?$CSingleton@VCPythonPlayer@@@@0PAVCPythonPlayer@@A ; CSingleton<CPythonPlayer>::ms_singleton
  0002f	85 c9		 test	 ecx, ecx
  00031	75 1a		 jne	 SHORT $LN7@playerGetP
  00033	6a 1a		 push	 26			; 0000001aH
  00035	68 00 00 00 00	 push	 OFFSET ??_C@_1IO@CAJLEEOI@?$AAC?$AA?3?$AA?2?$AAA?$AAn?$AAk?$AAa?$AA2?$AAP?$AAr?$AAo?$AAj?$AAe?$AAc?$AAt@
  0003a	68 00 00 00 00	 push	 OFFSET ??_C@_1BK@FMEHPMFE@?$AAm?$AAs?$AA_?$AAs?$AAi?$AAn?$AAg?$AAl?$AAe?$AAt?$AAo?$AAn@
  0003f	e8 00 00 00 00	 call	 __wassert
  00044	8b 0d 00 00 00
	00		 mov	 ecx, DWORD PTR ?ms_singleton@?$CSingleton@VCPythonPlayer@@@@0PAVCPythonPlayer@@A ; CSingleton<CPythonPlayer>::ms_singleton
  0004a	83 c4 0c	 add	 esp, 12			; 0000000cH
$LN7@playerGetP:
; File C:\Anka2Project\Anka2Project\Source\Binary\source\UserInterface\PythonPlayerModule.cpp

; 2092 : 	if (!CPythonPlayer::Instance().GetPartyMemberPtr(iPID, &pPartyMemberInfo))

  0004d	8d 45 f8	 lea	 eax, DWORD PTR _pPartyMemberInfo$[ebp]
  00050	50		 push	 eax
  00051	ff 75 fc	 push	 DWORD PTR _iPID$[ebp]
  00054	e8 00 00 00 00	 call	 ?GetPartyMemberPtr@CPythonPlayer@@QAE_NKPAPAUSPartyMemberInfo@1@@Z ; CPythonPlayer::GetPartyMemberPtr
  00059	84 c0		 test	 al, al
  0005b	75 14		 jne	 SHORT $LN3@playerGetP

; 2093 : 		return Py_BuildValue("i", FALSE);

  0005d	6a 00		 push	 0

; 2096 : }

  0005f	68 00 00 00 00	 push	 OFFSET ??_C@_01KBJDNOO@i@
  00064	ff 15 00 00 00
	00		 call	 DWORD PTR __imp__Py_BuildValue
  0006a	83 c4 08	 add	 esp, 8
  0006d	8b e5		 mov	 esp, ebp
  0006f	5d		 pop	 ebp
  00070	c3		 ret	 0
$LN3@playerGetP:

; 2094 : 
; 2095 : 	return Py_BuildValue("i", pPartyMemberInfo->byState);

  00071	8b 45 f8	 mov	 eax, DWORD PTR _pPartyMemberInfo$[ebp]
  00074	0f b6 40 20	 movzx	 eax, BYTE PTR [eax+32]
  00078	50		 push	 eax

; 2096 : }

  00079	68 00 00 00 00	 push	 OFFSET ??_C@_01KBJDNOO@i@
  0007e	ff 15 00 00 00
	00		 call	 DWORD PTR __imp__Py_BuildValue
  00084	83 c4 08	 add	 esp, 8
  00087	8b e5		 mov	 esp, ebp
  00089	5d		 pop	 ebp
  0008a	c3		 ret	 0
?playerGetPartyMemberState@@YAPAU_object@@PAU1@0@Z ENDP	; playerGetPartyMemberState
_TEXT	ENDS
; Function compile flags: /Ogtp
; File C:\Anka2Project\Anka2Project\Source\Binary\source\UserInterface\PythonPlayerModule.cpp
; File C:\Anka2Project\Anka2Project\Source\Binary\source\eterBase\Singleton.h
; File C:\Anka2Project\Anka2Project\Source\Binary\source\UserInterface\PythonPlayerModule.cpp
;	COMDAT ?playerGetPartyMemberAffects@@YAPAU_object@@PAU1@0@Z
_TEXT	SEGMENT
_pPartyMemberInfo$ = -8					; size = 4
_iPID$ = -4						; size = 4
_poSelf$ = 8						; size = 4
_poArgs$ = 12						; size = 4
?playerGetPartyMemberAffects@@YAPAU_object@@PAU1@0@Z PROC ; playerGetPartyMemberAffects, COMDAT

; 2099 : {

  00000	55		 push	 ebp
  00001	8b ec		 mov	 ebp, esp
  00003	83 ec 08	 sub	 esp, 8

; 2100 : 	int iPID;
; 2101 : 	if (!PyTuple_GetInteger(poArgs, 0, &iPID))

  00006	8d 45 fc	 lea	 eax, DWORD PTR _iPID$[ebp]
  00009	50		 push	 eax
  0000a	6a 00		 push	 0
  0000c	ff 75 0c	 push	 DWORD PTR _poArgs$[ebp]
  0000f	e8 00 00 00 00	 call	 ?PyTuple_GetInteger@@YA_NPAU_object@@HPAH@Z ; PyTuple_GetInteger
  00014	83 c4 0c	 add	 esp, 12			; 0000000cH
  00017	84 c0		 test	 al, al
  00019	75 0e		 jne	 SHORT $LN2@playerGetP

; 2102 : 		return Py_BuildException();

  0001b	6a 00		 push	 0
  0001d	e8 00 00 00 00	 call	 ?Py_BuildException@@YAPAU_object@@PBDZZ ; Py_BuildException
  00022	83 c4 04	 add	 esp, 4

; 2109 : 									pPartyMemberInfo->sAffects[1],
; 2110 : 									pPartyMemberInfo->sAffects[2],
; 2111 : 									pPartyMemberInfo->sAffects[3],
; 2112 : 									pPartyMemberInfo->sAffects[4],
; 2113 : 									pPartyMemberInfo->sAffects[5],
; 2114 : 									pPartyMemberInfo->sAffects[6]);
; 2115 : }

  00025	8b e5		 mov	 esp, ebp
  00027	5d		 pop	 ebp
  00028	c3		 ret	 0
$LN2@playerGetP:
; File C:\Anka2Project\Anka2Project\Source\Binary\source\eterBase\Singleton.h

; 26   : 		assert(ms_singleton);

  00029	8b 0d 00 00 00
	00		 mov	 ecx, DWORD PTR ?ms_singleton@?$CSingleton@VCPythonPlayer@@@@0PAVCPythonPlayer@@A ; CSingleton<CPythonPlayer>::ms_singleton
  0002f	85 c9		 test	 ecx, ecx
  00031	75 1a		 jne	 SHORT $LN7@playerGetP
  00033	6a 1a		 push	 26			; 0000001aH
  00035	68 00 00 00 00	 push	 OFFSET ??_C@_1IO@CAJLEEOI@?$AAC?$AA?3?$AA?2?$AAA?$AAn?$AAk?$AAa?$AA2?$AAP?$AAr?$AAo?$AAj?$AAe?$AAc?$AAt@
  0003a	68 00 00 00 00	 push	 OFFSET ??_C@_1BK@FMEHPMFE@?$AAm?$AAs?$AA_?$AAs?$AAi?$AAn?$AAg?$AAl?$AAe?$AAt?$AAo?$AAn@
  0003f	e8 00 00 00 00	 call	 __wassert
  00044	8b 0d 00 00 00
	00		 mov	 ecx, DWORD PTR ?ms_singleton@?$CSingleton@VCPythonPlayer@@@@0PAVCPythonPlayer@@A ; CSingleton<CPythonPlayer>::ms_singleton
  0004a	83 c4 0c	 add	 esp, 12			; 0000000cH
$LN7@playerGetP:
; File C:\Anka2Project\Anka2Project\Source\Binary\source\UserInterface\PythonPlayerModule.cpp

; 2105 : 	if (!CPythonPlayer::Instance().GetPartyMemberPtr(iPID, &pPartyMemberInfo))

  0004d	8d 45 f8	 lea	 eax, DWORD PTR _pPartyMemberInfo$[ebp]
  00050	50		 push	 eax
  00051	ff 75 fc	 push	 DWORD PTR _iPID$[ebp]
  00054	e8 00 00 00 00	 call	 ?GetPartyMemberPtr@CPythonPlayer@@QAE_NKPAPAUSPartyMemberInfo@1@@Z ; CPythonPlayer::GetPartyMemberPtr
  00059	84 c0		 test	 al, al
  0005b	75 14		 jne	 SHORT $LN3@playerGetP

; 2106 : 		return Py_BuildValue("i", FALSE);

  0005d	6a 00		 push	 0
  0005f	68 00 00 00 00	 push	 OFFSET ??_C@_01KBJDNOO@i@
  00064	ff 15 00 00 00
	00		 call	 DWORD PTR __imp__Py_BuildValue
  0006a	83 c4 08	 add	 esp, 8

; 2109 : 									pPartyMemberInfo->sAffects[1],
; 2110 : 									pPartyMemberInfo->sAffects[2],
; 2111 : 									pPartyMemberInfo->sAffects[3],
; 2112 : 									pPartyMemberInfo->sAffects[4],
; 2113 : 									pPartyMemberInfo->sAffects[5],
; 2114 : 									pPartyMemberInfo->sAffects[6]);
; 2115 : }

  0006d	8b e5		 mov	 esp, ebp
  0006f	5d		 pop	 ebp
  00070	c3		 ret	 0
$LN3@playerGetP:

; 2107 : 
; 2108 : 	return Py_BuildValue("iiiiiii",	pPartyMemberInfo->sAffects[0],

  00071	8b 4d f8	 mov	 ecx, DWORD PTR _pPartyMemberInfo$[ebp]
  00074	0f bf 41 2e	 movsx	 eax, WORD PTR [ecx+46]
  00078	50		 push	 eax
  00079	0f bf 41 2c	 movsx	 eax, WORD PTR [ecx+44]
  0007d	50		 push	 eax
  0007e	0f bf 41 2a	 movsx	 eax, WORD PTR [ecx+42]
  00082	50		 push	 eax
  00083	0f bf 41 28	 movsx	 eax, WORD PTR [ecx+40]
  00087	50		 push	 eax
  00088	0f bf 41 26	 movsx	 eax, WORD PTR [ecx+38]
  0008c	50		 push	 eax
  0008d	0f bf 41 24	 movsx	 eax, WORD PTR [ecx+36]
  00091	50		 push	 eax
  00092	0f bf 41 22	 movsx	 eax, WORD PTR [ecx+34]
  00096	50		 push	 eax
  00097	68 00 00 00 00	 push	 OFFSET ??_C@_07EFJJEBFG@iiiiiii@
  0009c	ff 15 00 00 00
	00		 call	 DWORD PTR __imp__Py_BuildValue
  000a2	83 c4 20	 add	 esp, 32			; 00000020H

; 2109 : 									pPartyMemberInfo->sAffects[1],
; 2110 : 									pPartyMemberInfo->sAffects[2],
; 2111 : 									pPartyMemberInfo->sAffects[3],
; 2112 : 									pPartyMemberInfo->sAffects[4],
; 2113 : 									pPartyMemberInfo->sAffects[5],
; 2114 : 									pPartyMemberInfo->sAffects[6]);
; 2115 : }

  000a5	8b e5		 mov	 esp, ebp
  000a7	5d		 pop	 ebp
  000a8	c3		 ret	 0
?playerGetPartyMemberAffects@@YAPAU_object@@PAU1@0@Z ENDP ; playerGetPartyMemberAffects
_TEXT	ENDS
; Function compile flags: /Ogtp
; File C:\Anka2Project\Anka2Project\Source\Binary\source\UserInterface\PythonPlayerModule.cpp
; File C:\Anka2Project\Anka2Project\Source\Binary\source\eterBase\Singleton.h
; File C:\Anka2Project\Anka2Project\Source\Binary\source\UserInterface\PythonPlayerModule.cpp
;	COMDAT ?playerGetPKMode@@YAPAU_object@@PAU1@0@Z
_TEXT	SEGMENT
_poSelf$ = 8						; size = 4
_poArgs$ = 12						; size = 4
?playerGetPKMode@@YAPAU_object@@PAU1@0@Z PROC		; playerGetPKMode, COMDAT
; File C:\Anka2Project\Anka2Project\Source\Binary\source\eterBase\Singleton.h

; 26   : 		assert(ms_singleton);

  00000	8b 0d 00 00 00
	00		 mov	 ecx, DWORD PTR ?ms_singleton@?$CSingleton@VCPythonPlayer@@@@0PAVCPythonPlayer@@A ; CSingleton<CPythonPlayer>::ms_singleton
  00006	85 c9		 test	 ecx, ecx
  00008	75 1a		 jne	 SHORT $LN5@playerGetP
  0000a	6a 1a		 push	 26			; 0000001aH
  0000c	68 00 00 00 00	 push	 OFFSET ??_C@_1IO@CAJLEEOI@?$AAC?$AA?3?$AA?2?$AAA?$AAn?$AAk?$AAa?$AA2?$AAP?$AAr?$AAo?$AAj?$AAe?$AAc?$AAt@
  00011	68 00 00 00 00	 push	 OFFSET ??_C@_1BK@FMEHPMFE@?$AAm?$AAs?$AA_?$AAs?$AAi?$AAn?$AAg?$AAl?$AAe?$AAt?$AAo?$AAn@
  00016	e8 00 00 00 00	 call	 __wassert
  0001b	8b 0d 00 00 00
	00		 mov	 ecx, DWORD PTR ?ms_singleton@?$CSingleton@VCPythonPlayer@@@@0PAVCPythonPlayer@@A ; CSingleton<CPythonPlayer>::ms_singleton
  00021	83 c4 0c	 add	 esp, 12			; 0000000cH
$LN5@playerGetP:
; File C:\Anka2Project\Anka2Project\Source\Binary\source\UserInterface\PythonPlayerModule.cpp

; 2135 : 	return Py_BuildValue("i", CPythonPlayer::Instance().GetPKMode());

  00024	e8 00 00 00 00	 call	 ?GetPKMode@CPythonPlayer@@QAEKXZ ; CPythonPlayer::GetPKMode
  00029	50		 push	 eax
  0002a	68 00 00 00 00	 push	 OFFSET ??_C@_01KBJDNOO@i@
  0002f	ff 15 00 00 00
	00		 call	 DWORD PTR __imp__Py_BuildValue
  00035	83 c4 08	 add	 esp, 8

; 2136 : }

  00038	c3		 ret	 0
?playerGetPKMode@@YAPAU_object@@PAU1@0@Z ENDP		; playerGetPKMode
_TEXT	ENDS
; Function compile flags: /Ogtp
; File C:\Anka2Project\Anka2Project\Source\Binary\source\UserInterface\PythonPlayerModule.cpp
; File C:\Anka2Project\Anka2Project\Source\Binary\source\eterBase\Singleton.h
; File C:\Anka2Project\Anka2Project\Source\Binary\source\UserInterface\PythonPlayerModule.cpp
;	COMDAT ?playerToggleCoolTime@@YAPAU_object@@PAU1@0@Z
_TEXT	SEGMENT
_poSelf$ = 8						; size = 4
_poArgs$ = 12						; size = 4
?playerToggleCoolTime@@YAPAU_object@@PAU1@0@Z PROC	; playerToggleCoolTime, COMDAT
; File C:\Anka2Project\Anka2Project\Source\Binary\source\eterBase\Singleton.h

; 26   : 		assert(ms_singleton);

  00000	8b 0d 00 00 00
	00		 mov	 ecx, DWORD PTR ?ms_singleton@?$CSingleton@VCPythonPlayer@@@@0PAVCPythonPlayer@@A ; CSingleton<CPythonPlayer>::ms_singleton
  00006	85 c9		 test	 ecx, ecx
  00008	75 1a		 jne	 SHORT $LN5@playerTogg
  0000a	6a 1a		 push	 26			; 0000001aH
  0000c	68 00 00 00 00	 push	 OFFSET ??_C@_1IO@CAJLEEOI@?$AAC?$AA?3?$AA?2?$AAA?$AAn?$AAk?$AAa?$AA2?$AAP?$AAr?$AAo?$AAj?$AAe?$AAc?$AAt@
  00011	68 00 00 00 00	 push	 OFFSET ??_C@_1BK@FMEHPMFE@?$AAm?$AAs?$AA_?$AAs?$AAi?$AAn?$AAg?$AAl?$AAe?$AAt?$AAo?$AAn@
  00016	e8 00 00 00 00	 call	 __wassert
  0001b	8b 0d 00 00 00
	00		 mov	 ecx, DWORD PTR ?ms_singleton@?$CSingleton@VCPythonPlayer@@@@0PAVCPythonPlayer@@A ; CSingleton<CPythonPlayer>::ms_singleton
  00021	83 c4 0c	 add	 esp, 12			; 0000000cH
$LN5@playerTogg:
; File C:\Anka2Project\Anka2Project\Source\Binary\source\UserInterface\PythonPlayerModule.cpp

; 2149 : 	return Py_BuildValue("i", CPythonPlayer::Instance().__ToggleCoolTime());

  00024	e8 00 00 00 00	 call	 ?__ToggleCoolTime@CPythonPlayer@@QAEHXZ ; CPythonPlayer::__ToggleCoolTime
  00029	50		 push	 eax
  0002a	68 00 00 00 00	 push	 OFFSET ??_C@_01KBJDNOO@i@
  0002f	ff 15 00 00 00
	00		 call	 DWORD PTR __imp__Py_BuildValue
  00035	83 c4 08	 add	 esp, 8

; 2150 : }

  00038	c3		 ret	 0
?playerToggleCoolTime@@YAPAU_object@@PAU1@0@Z ENDP	; playerToggleCoolTime
_TEXT	ENDS
; Function compile flags: /Ogtp
; File C:\Anka2Project\Anka2Project\Source\Binary\source\UserInterface\PythonPlayerModule.cpp
; File C:\Anka2Project\Anka2Project\Source\Binary\source\eterBase\Singleton.h
; File C:\Anka2Project\Anka2Project\Source\Binary\source\UserInterface\PythonPlayerModule.cpp
;	COMDAT ?playerToggleLevelLimit@@YAPAU_object@@PAU1@0@Z
_TEXT	SEGMENT
_poSelf$ = 8						; size = 4
_poArgs$ = 12						; size = 4
?playerToggleLevelLimit@@YAPAU_object@@PAU1@0@Z PROC	; playerToggleLevelLimit, COMDAT
; File C:\Anka2Project\Anka2Project\Source\Binary\source\eterBase\Singleton.h

; 26   : 		assert(ms_singleton);

  00000	8b 0d 00 00 00
	00		 mov	 ecx, DWORD PTR ?ms_singleton@?$CSingleton@VCPythonPlayer@@@@0PAVCPythonPlayer@@A ; CSingleton<CPythonPlayer>::ms_singleton
  00006	85 c9		 test	 ecx, ecx
  00008	75 1a		 jne	 SHORT $LN5@playerTogg
  0000a	6a 1a		 push	 26			; 0000001aH
  0000c	68 00 00 00 00	 push	 OFFSET ??_C@_1IO@CAJLEEOI@?$AAC?$AA?3?$AA?2?$AAA?$AAn?$AAk?$AAa?$AA2?$AAP?$AAr?$AAo?$AAj?$AAe?$AAc?$AAt@
  00011	68 00 00 00 00	 push	 OFFSET ??_C@_1BK@FMEHPMFE@?$AAm?$AAs?$AA_?$AAs?$AAi?$AAn?$AAg?$AAl?$AAe?$AAt?$AAo?$AAn@
  00016	e8 00 00 00 00	 call	 __wassert
  0001b	8b 0d 00 00 00
	00		 mov	 ecx, DWORD PTR ?ms_singleton@?$CSingleton@VCPythonPlayer@@@@0PAVCPythonPlayer@@A ; CSingleton<CPythonPlayer>::ms_singleton
  00021	83 c4 0c	 add	 esp, 12			; 0000000cH
$LN5@playerTogg:
; File C:\Anka2Project\Anka2Project\Source\Binary\source\UserInterface\PythonPlayerModule.cpp

; 2154 : 	return Py_BuildValue("i", CPythonPlayer::Instance().__ToggleLevelLimit());

  00024	e8 00 00 00 00	 call	 ?__ToggleLevelLimit@CPythonPlayer@@QAEHXZ ; CPythonPlayer::__ToggleLevelLimit
  00029	50		 push	 eax
  0002a	68 00 00 00 00	 push	 OFFSET ??_C@_01KBJDNOO@i@
  0002f	ff 15 00 00 00
	00		 call	 DWORD PTR __imp__Py_BuildValue
  00035	83 c4 08	 add	 esp, 8

; 2155 : }

  00038	c3		 ret	 0
?playerToggleLevelLimit@@YAPAU_object@@PAU1@0@Z ENDP	; playerToggleLevelLimit
_TEXT	ENDS
; Function compile flags: /Ogtp
; File C:\Anka2Project\Anka2Project\Source\Binary\source\UserInterface\PythonPlayerModule.cpp
; File C:\Anka2Project\Anka2Project\Source\Binary\source\eterBase\Singleton.h
; File C:\Anka2Project\Anka2Project\Source\Binary\source\UserInterface\PythonPlayerModule.cpp
;	COMDAT ?playerGetTargetVID@@YAPAU_object@@PAU1@0@Z
_TEXT	SEGMENT
_poSelf$ = 8						; size = 4
_poArgs$ = 12						; size = 4
?playerGetTargetVID@@YAPAU_object@@PAU1@0@Z PROC	; playerGetTargetVID, COMDAT
; File C:\Anka2Project\Anka2Project\Source\Binary\source\eterBase\Singleton.h

; 26   : 		assert(ms_singleton);

  00000	8b 0d 00 00 00
	00		 mov	 ecx, DWORD PTR ?ms_singleton@?$CSingleton@VCPythonPlayer@@@@0PAVCPythonPlayer@@A ; CSingleton<CPythonPlayer>::ms_singleton
  00006	85 c9		 test	 ecx, ecx
  00008	75 1a		 jne	 SHORT $LN5@playerGetT
  0000a	6a 1a		 push	 26			; 0000001aH
  0000c	68 00 00 00 00	 push	 OFFSET ??_C@_1IO@CAJLEEOI@?$AAC?$AA?3?$AA?2?$AAA?$AAn?$AAk?$AAa?$AA2?$AAP?$AAr?$AAo?$AAj?$AAe?$AAc?$AAt@
  00011	68 00 00 00 00	 push	 OFFSET ??_C@_1BK@FMEHPMFE@?$AAm?$AAs?$AA_?$AAs?$AAi?$AAn?$AAg?$AAl?$AAe?$AAt?$AAo?$AAn@
  00016	e8 00 00 00 00	 call	 __wassert
  0001b	8b 0d 00 00 00
	00		 mov	 ecx, DWORD PTR ?ms_singleton@?$CSingleton@VCPythonPlayer@@@@0PAVCPythonPlayer@@A ; CSingleton<CPythonPlayer>::ms_singleton
  00021	83 c4 0c	 add	 esp, 12			; 0000000cH
$LN5@playerGetT:
; File C:\Anka2Project\Anka2Project\Source\Binary\source\UserInterface\PythonPlayerModule.cpp

; 2159 : 	return Py_BuildValue("i", CPythonPlayer::Instance().GetTargetVID());

  00024	e8 00 00 00 00	 call	 ?GetTargetVID@CPythonPlayer@@QAEKXZ ; CPythonPlayer::GetTargetVID
  00029	50		 push	 eax
  0002a	68 00 00 00 00	 push	 OFFSET ??_C@_01KBJDNOO@i@
  0002f	ff 15 00 00 00
	00		 call	 DWORD PTR __imp__Py_BuildValue
  00035	83 c4 08	 add	 esp, 8

; 2160 : }

  00038	c3		 ret	 0
?playerGetTargetVID@@YAPAU_object@@PAU1@0@Z ENDP	; playerGetTargetVID
_TEXT	ENDS
; Function compile flags: /Ogtp
; File C:\Anka2Project\Anka2Project\Source\Binary\source\UserInterface\PythonPlayerModule.cpp
; File C:\Program Files\Microsoft Visual Studio\2022\Community\VC\Tools\MSVC\14.44.35207\include\xtree
; File C:\Program Files\Microsoft Visual Studio\2022\Community\VC\Tools\MSVC\14.44.35207\include\type_traits
; File C:\Program Files\Microsoft Visual Studio\2022\Community\VC\Tools\MSVC\14.44.35207\include\xtree
; File C:\Program Files\Microsoft Visual Studio\2022\Community\VC\Tools\MSVC\14.44.35207\include\type_traits
; File C:\Program Files\Microsoft Visual Studio\2022\Community\VC\Tools\MSVC\14.44.35207\include\xtree
; File C:\Anka2Project\Anka2Project\Source\Binary\source\UserInterface\PythonPlayerModule.cpp
;	COMDAT ?playerGetEmotionIconImage@@YAPAU_object@@PAU1@0@Z
_TEXT	SEGMENT
_iIndex$ = -4						; size = 4
_poSelf$ = 8						; size = 4
_poArgs$ = 12						; size = 4
?playerGetEmotionIconImage@@YAPAU_object@@PAU1@0@Z PROC	; playerGetEmotionIconImage, COMDAT

; 2178 : {

  00000	55		 push	 ebp
  00001	8b ec		 mov	 ebp, esp
  00003	51		 push	 ecx
  00004	56		 push	 esi

; 2179 : 	int iIndex;
; 2180 : 	if (!PyTuple_GetInteger(poArgs, 0, &iIndex))

  00005	8d 45 fc	 lea	 eax, DWORD PTR _iIndex$[ebp]
  00008	50		 push	 eax
  00009	6a 00		 push	 0
  0000b	ff 75 0c	 push	 DWORD PTR _poArgs$[ebp]
  0000e	e8 00 00 00 00	 call	 ?PyTuple_GetInteger@@YA_NPAU_object@@HPAH@Z ; PyTuple_GetInteger
  00013	83 c4 0c	 add	 esp, 12			; 0000000cH
  00016	84 c0		 test	 al, al
  00018	75 0f		 jne	 SHORT $LN2@playerGetE

; 2181 : 		return Py_BuildException();

  0001a	6a 00		 push	 0
  0001c	e8 00 00 00 00	 call	 ?Py_BuildException@@YAPAU_object@@PBDZZ ; Py_BuildException
  00021	83 c4 04	 add	 esp, 4

; 2187 : }

  00024	5e		 pop	 esi
  00025	8b e5		 mov	 esp, ebp
  00027	5d		 pop	 ebp
  00028	c3		 ret	 0
$LN2@playerGetE:
; File C:\Program Files\Microsoft Visual Studio\2022\Community\VC\Tools\MSVC\14.44.35207\include\xtree

; 1630 :         _Tree_find_result<_Nodeptr> _Result{{_Scary->_Myhead->_Parent, _Tree_child::_Right}, _Scary->_Myhead};

  00029	8b 35 00 00 00
	00		 mov	 esi, DWORD PTR ?m_kMap_iEmotionIndex_pkIconImage@@3V?$map@HPAVCGraphicImage@@U?$less@H@std@@V?$allocator@U?$pair@$$CBHPAVCGraphicImage@@@std@@@3@@std@@A
  0002f	8b ce		 mov	 ecx, esi

; 1631 :         _Nodeptr _Trynode = _Result._Location._Parent;
; 1632 :         while (!_Trynode->_Isnil) {

  00031	8b 55 fc	 mov	 edx, DWORD PTR _iIndex$[ebp]
  00034	8b 46 04	 mov	 eax, DWORD PTR [esi+4]
  00037	80 78 0d 00	 cmp	 BYTE PTR [eax+13], 0
  0003b	75 17		 jne	 SHORT $LN24@playerGetE
  0003d	0f 1f 00	 npad	 3
$LL23@playerGetE:
; File C:\Program Files\Microsoft Visual Studio\2022\Community\VC\Tools\MSVC\14.44.35207\include\type_traits

; 2380 :         return _Left < _Right;

  00040	39 50 10	 cmp	 DWORD PTR [eax+16], edx
; File C:\Program Files\Microsoft Visual Studio\2022\Community\VC\Tools\MSVC\14.44.35207\include\xtree

; 1634 :             if (_DEBUG_LT_PRED(_Getcomp(), _Traits::_Kfn(_Trynode->_Myval), _Keyval)) {

  00043	7d 05		 jge	 SHORT $LN25@playerGetE

; 1635 :                 _Result._Location._Child = _Tree_child::_Right;
; 1636 :                 _Trynode                 = _Trynode->_Right;

  00045	8b 40 08	 mov	 eax, DWORD PTR [eax+8]

; 1637 :             } else {

  00048	eb 04		 jmp	 SHORT $LN26@playerGetE
$LN25@playerGetE:

; 1638 :                 _Result._Location._Child = _Tree_child::_Left;
; 1639 :                 _Result._Bound           = _Trynode;

  0004a	8b c8		 mov	 ecx, eax

; 1640 :                 _Trynode                 = _Trynode->_Left;

  0004c	8b 00		 mov	 eax, DWORD PTR [eax]
$LN26@playerGetE:

; 1631 :         _Nodeptr _Trynode = _Result._Location._Parent;
; 1632 :         while (!_Trynode->_Isnil) {

  0004e	80 78 0d 00	 cmp	 BYTE PTR [eax+13], 0
  00052	74 ec		 je	 SHORT $LL23@playerGetE
$LN24@playerGetE:

; 1624 :         return !_Bound->_Isnil && !_DEBUG_LT_PRED(_Getcomp(), _Keyval, _Traits::_Kfn(_Bound->_Myval));

  00054	80 79 0d 00	 cmp	 BYTE PTR [ecx+13], 0
  00058	75 05		 jne	 SHORT $LN20@playerGetE
; File C:\Program Files\Microsoft Visual Studio\2022\Community\VC\Tools\MSVC\14.44.35207\include\type_traits

; 2380 :         return _Left < _Right;

  0005a	3b 51 10	 cmp	 edx, DWORD PTR [ecx+16]
; File C:\Program Files\Microsoft Visual Studio\2022\Community\VC\Tools\MSVC\14.44.35207\include\xtree

; 1624 :         return !_Bound->_Isnil && !_DEBUG_LT_PRED(_Getcomp(), _Keyval, _Traits::_Kfn(_Bound->_Myval));

  0005d	7d 02		 jge	 SHORT $LN19@playerGetE
$LN20@playerGetE:

; 1389 :         return _Get_scary()->_Myhead;

  0005f	8b ce		 mov	 ecx, esi
$LN19@playerGetE:

; 232  :         return this->_Ptr == _Right._Ptr;

  00061	3b f1		 cmp	 esi, ecx
; File C:\Anka2Project\Anka2Project\Source\Binary\source\UserInterface\PythonPlayerModule.cpp

; 2183 : 	if (m_kMap_iEmotionIndex_pkIconImage.end() == m_kMap_iEmotionIndex_pkIconImage.find(iIndex))

  00063	75 15		 jne	 SHORT $LN3@playerGetE

; 2184 : 		return Py_BuildValue("i", 0);

  00065	6a 00		 push	 0

; 2187 : }

  00067	68 00 00 00 00	 push	 OFFSET ??_C@_01KBJDNOO@i@
  0006c	ff 15 00 00 00
	00		 call	 DWORD PTR __imp__Py_BuildValue
  00072	83 c4 08	 add	 esp, 8
  00075	5e		 pop	 esi
  00076	8b e5		 mov	 esp, ebp
  00078	5d		 pop	 ebp
  00079	c3		 ret	 0
$LN3@playerGetE:

; 2185 : 
; 2186 : 	return Py_BuildValue("i", m_kMap_iEmotionIndex_pkIconImage[iIndex]);

  0007a	8d 45 fc	 lea	 eax, DWORD PTR _iIndex$[ebp]
  0007d	50		 push	 eax
  0007e	e8 00 00 00 00	 call	 ??A?$map@HPAVCGraphicImage@@U?$less@H@std@@V?$allocator@U?$pair@$$CBHPAVCGraphicImage@@@std@@@3@@std@@QAEAAPAVCGraphicImage@@ABH@Z ; std::map<int,CGraphicImage *,std::less<int>,std::allocator<std::pair<int const ,CGraphicImage *> > >::operator[]
  00083	ff 30		 push	 DWORD PTR [eax]

; 2187 : }

  00085	68 00 00 00 00	 push	 OFFSET ??_C@_01KBJDNOO@i@
  0008a	ff 15 00 00 00
	00		 call	 DWORD PTR __imp__Py_BuildValue
  00090	83 c4 08	 add	 esp, 8
  00093	5e		 pop	 esi
  00094	8b e5		 mov	 esp, ebp
  00096	5d		 pop	 ebp
  00097	c3		 ret	 0
?playerGetEmotionIconImage@@YAPAU_object@@PAU1@0@Z ENDP	; playerGetEmotionIconImage
_TEXT	ENDS
; Function compile flags: /Ogtp
; File C:\Anka2Project\Anka2Project\Source\Binary\source\UserInterface\PythonPlayerModule.cpp
; File C:\Anka2Project\Anka2Project\Source\Binary\source\UserInterface\GameType.h
; File C:\Anka2Project\Anka2Project\Source\Binary\source\UserInterface\PythonPlayerModule.cpp
; File C:\Anka2Project\Anka2Project\Source\Binary\source\UserInterface\GameType.h
; File C:\Anka2Project\Anka2Project\Source\Binary\source\UserInterface\PythonPlayerModule.cpp
; File C:\Anka2Project\Anka2Project\Source\Binary\source\eterBase\Singleton.h
; File C:\Anka2Project\Anka2Project\Source\Binary\source\UserInterface\PythonPlayerModule.cpp
;	COMDAT ?playerSetItemMetinSocket@@YAPAU_object@@PAU1@0@Z
_TEXT	SEGMENT
_iMetinSocketNumber$ = -12				; size = 4
_iNum$ = -8						; size = 4
_ItemPos$ = -4						; size = 3
_poSelf$ = 8						; size = 4
_poArgs$ = 12						; size = 4
?playerSetItemMetinSocket@@YAPAU_object@@PAU1@0@Z PROC	; playerSetItemMetinSocket, COMDAT

; 2212 : {

  00000	55		 push	 ebp
  00001	8b ec		 mov	 ebp, esp
  00003	83 ec 0c	 sub	 esp, 12			; 0000000cH
  00006	56		 push	 esi

; 2217 : 	switch (PyTuple_Size(poArgs))

  00007	8b 75 0c	 mov	 esi, DWORD PTR _poArgs$[ebp]
; File C:\Anka2Project\Anka2Project\Source\Binary\source\UserInterface\GameType.h

; 448  : 		cell = WORD_MAX;

  0000a	b8 ff ff 00 00	 mov	 eax, 65535		; 0000ffffH
; File C:\Anka2Project\Anka2Project\Source\Binary\source\UserInterface\PythonPlayerModule.cpp

; 2217 : 	switch (PyTuple_Size(poArgs))

  0000f	56		 push	 esi
; File C:\Anka2Project\Anka2Project\Source\Binary\source\UserInterface\GameType.h

; 447  : 		window_type = INVENTORY;

  00010	c6 45 fc 01	 mov	 BYTE PTR _ItemPos$[ebp], 1

; 448  : 		cell = WORD_MAX;

  00014	66 89 45 fd	 mov	 WORD PTR _ItemPos$[ebp+1], ax
; File C:\Anka2Project\Anka2Project\Source\Binary\source\UserInterface\PythonPlayerModule.cpp

; 2217 : 	switch (PyTuple_Size(poArgs))

  00018	ff 15 00 00 00
	00		 call	 DWORD PTR __imp__PyTuple_Size
  0001e	83 c4 04	 add	 esp, 4
  00021	83 e8 03	 sub	 eax, 3
  00024	74 60		 je	 SHORT $LN4@playerSetI
  00026	83 e8 01	 sub	 eax, 1
  00029	75 4c		 jne	 SHORT $LN30@playerSetI

; 2227 : 			return Py_BuildException();
; 2228 : 
; 2229 : 		break;
; 2230 : 	case 4:
; 2231 : 		if (!PyTuple_GetInteger(poArgs, 0, &ItemPos.window_type))

  0002b	8d 45 fc	 lea	 eax, DWORD PTR _ItemPos$[ebp]
  0002e	50		 push	 eax
  0002f	6a 00		 push	 0
  00031	56		 push	 esi
  00032	e8 00 00 00 00	 call	 ?PyTuple_GetInteger@@YA_NPAU_object@@HPAE@Z ; PyTuple_GetInteger
  00037	83 c4 0c	 add	 esp, 12			; 0000000cH
  0003a	84 c0		 test	 al, al
  0003c	74 39		 je	 SHORT $LN30@playerSetI

; 2232 : 			return Py_BuildException();
; 2233 : 		if (!PyTuple_GetInteger(poArgs, 1, &ItemPos.cell))

  0003e	8d 45 fd	 lea	 eax, DWORD PTR _ItemPos$[ebp+1]
  00041	50		 push	 eax
  00042	6a 01		 push	 1
  00044	56		 push	 esi
  00045	e8 00 00 00 00	 call	 ?PyTuple_GetInteger@@YA_NPAU_object@@HPAG@Z ; PyTuple_GetInteger
  0004a	83 c4 0c	 add	 esp, 12			; 0000000cH
  0004d	84 c0		 test	 al, al
  0004f	74 26		 je	 SHORT $LN30@playerSetI

; 2234 : 			return Py_BuildException();
; 2235 : 		if (!PyTuple_GetInteger(poArgs, 2, &iMetinSocketNumber))

  00051	8d 45 f4	 lea	 eax, DWORD PTR _iMetinSocketNumber$[ebp]
  00054	50		 push	 eax
  00055	6a 02		 push	 2
  00057	56		 push	 esi
  00058	e8 00 00 00 00	 call	 ?PyTuple_GetInteger@@YA_NPAU_object@@HPAH@Z ; PyTuple_GetInteger
  0005d	83 c4 0c	 add	 esp, 12			; 0000000cH
  00060	84 c0		 test	 al, al
  00062	74 13		 je	 SHORT $LN30@playerSetI

; 2236 : 			return Py_BuildException();
; 2237 : 		if (!PyTuple_GetInteger(poArgs, 3, &iNum))

  00064	8d 45 f8	 lea	 eax, DWORD PTR _iNum$[ebp]
  00067	50		 push	 eax
  00068	6a 03		 push	 3
  0006a	56		 push	 esi
  0006b	e8 00 00 00 00	 call	 ?PyTuple_GetInteger@@YA_NPAU_object@@HPAH@Z ; PyTuple_GetInteger
  00070	83 c4 0c	 add	 esp, 12			; 0000000cH
  00073	84 c0		 test	 al, al
  00075	75 48		 jne	 SHORT $LN7@playerSetI
$LN30@playerSetI:

; 2247 : }

  00077	6a 00		 push	 0
  00079	e8 00 00 00 00	 call	 ?Py_BuildException@@YAPAU_object@@PBDZZ ; Py_BuildException
  0007e	83 c4 04	 add	 esp, 4
  00081	5e		 pop	 esi
  00082	8b e5		 mov	 esp, ebp
  00084	5d		 pop	 ebp
  00085	c3		 ret	 0
$LN4@playerSetI:

; 2218 : 	{
; 2219 : 	case 3:
; 2220 : 		if (!PyTuple_GetInteger(poArgs, 0, &ItemPos.cell))

  00086	8d 45 fd	 lea	 eax, DWORD PTR _ItemPos$[ebp+1]
  00089	50		 push	 eax
  0008a	6a 00		 push	 0
  0008c	56		 push	 esi
  0008d	e8 00 00 00 00	 call	 ?PyTuple_GetInteger@@YA_NPAU_object@@HPAG@Z ; PyTuple_GetInteger
  00092	83 c4 0c	 add	 esp, 12			; 0000000cH
  00095	84 c0		 test	 al, al
  00097	74 de		 je	 SHORT $LN30@playerSetI

; 2221 : 			return Py_BuildException();
; 2222 : 
; 2223 : 		if (!PyTuple_GetInteger(poArgs, 1, &iMetinSocketNumber))

  00099	8d 45 f4	 lea	 eax, DWORD PTR _iMetinSocketNumber$[ebp]
  0009c	50		 push	 eax
  0009d	6a 01		 push	 1
  0009f	56		 push	 esi
  000a0	e8 00 00 00 00	 call	 ?PyTuple_GetInteger@@YA_NPAU_object@@HPAH@Z ; PyTuple_GetInteger
  000a5	83 c4 0c	 add	 esp, 12			; 0000000cH
  000a8	84 c0		 test	 al, al
  000aa	74 cb		 je	 SHORT $LN30@playerSetI

; 2224 : 			return Py_BuildException();
; 2225 : 
; 2226 : 		if (!PyTuple_GetInteger(poArgs, 2, &iNum))

  000ac	8d 45 f8	 lea	 eax, DWORD PTR _iNum$[ebp]
  000af	50		 push	 eax
  000b0	6a 02		 push	 2
  000b2	56		 push	 esi
  000b3	e8 00 00 00 00	 call	 ?PyTuple_GetInteger@@YA_NPAU_object@@HPAH@Z ; PyTuple_GetInteger
  000b8	83 c4 0c	 add	 esp, 12			; 0000000cH
  000bb	84 c0		 test	 al, al
  000bd	74 b8		 je	 SHORT $LN30@playerSetI
$LN7@playerSetI:
; File C:\Anka2Project\Anka2Project\Source\Binary\source\eterBase\Singleton.h

; 26   : 		assert(ms_singleton);

  000bf	8b 0d 00 00 00
	00		 mov	 ecx, DWORD PTR ?ms_singleton@?$CSingleton@VCPythonPlayer@@@@0PAVCPythonPlayer@@A ; CSingleton<CPythonPlayer>::ms_singleton
  000c5	85 c9		 test	 ecx, ecx
  000c7	75 1a		 jne	 SHORT $LN19@playerSetI
  000c9	6a 1a		 push	 26			; 0000001aH
  000cb	68 00 00 00 00	 push	 OFFSET ??_C@_1IO@CAJLEEOI@?$AAC?$AA?3?$AA?2?$AAA?$AAn?$AAk?$AAa?$AA2?$AAP?$AAr?$AAo?$AAj?$AAe?$AAc?$AAt@
  000d0	68 00 00 00 00	 push	 OFFSET ??_C@_1BK@FMEHPMFE@?$AAm?$AAs?$AA_?$AAs?$AAi?$AAn?$AAg?$AAl?$AAe?$AAt?$AAo?$AAn@
  000d5	e8 00 00 00 00	 call	 __wassert
  000da	8b 0d 00 00 00
	00		 mov	 ecx, DWORD PTR ?ms_singleton@?$CSingleton@VCPythonPlayer@@@@0PAVCPythonPlayer@@A ; CSingleton<CPythonPlayer>::ms_singleton
  000e0	83 c4 0c	 add	 esp, 12			; 0000000cH
$LN19@playerSetI:
; File C:\Anka2Project\Anka2Project\Source\Binary\source\UserInterface\PythonPlayerModule.cpp

; 2245 : 	CPythonPlayer::Instance().SetItemMetinSocket(ItemPos, iMetinSocketNumber, iNum);

  000e3	ff 75 f8	 push	 DWORD PTR _iNum$[ebp]
  000e6	66 8b 45 fc	 mov	 ax, WORD PTR _ItemPos$[ebp]
  000ea	83 c1 04	 add	 ecx, 4
  000ed	ff 75 f4	 push	 DWORD PTR _iMetinSocketNumber$[ebp]
  000f0	51		 push	 ecx
  000f1	8b 31		 mov	 esi, DWORD PTR [ecx]
  000f3	8b d4		 mov	 edx, esp
  000f5	66 89 02	 mov	 WORD PTR [edx], ax
  000f8	8a 45 fe	 mov	 al, BYTE PTR _ItemPos$[ebp+2]
  000fb	88 42 02	 mov	 BYTE PTR [edx+2], al
  000fe	ff 56 3c	 call	 DWORD PTR [esi+60]

; 2246 : 	return Py_BuildNone();

  00101	e8 00 00 00 00	 call	 ?Py_BuildNone@@YAPAU_object@@XZ ; Py_BuildNone

; 2247 : }

  00106	5e		 pop	 esi
  00107	8b e5		 mov	 esp, ebp
  00109	5d		 pop	 ebp
  0010a	c3		 ret	 0
?playerSetItemMetinSocket@@YAPAU_object@@PAU1@0@Z ENDP	; playerSetItemMetinSocket
_TEXT	ENDS
; Function compile flags: /Ogtp
; File C:\Anka2Project\Anka2Project\Source\Binary\source\UserInterface\PythonPlayerModule.cpp
; File C:\Anka2Project\Anka2Project\Source\Binary\source\UserInterface\GameType.h
; File C:\Anka2Project\Anka2Project\Source\Binary\source\UserInterface\PythonPlayerModule.cpp
; File C:\Anka2Project\Anka2Project\Source\Binary\source\UserInterface\GameType.h
; File C:\Anka2Project\Anka2Project\Source\Binary\source\UserInterface\PythonPlayerModule.cpp
; File C:\Anka2Project\Anka2Project\Source\Binary\source\eterBase\Singleton.h
; File C:\Anka2Project\Anka2Project\Source\Binary\source\UserInterface\PythonPlayerModule.cpp
;	COMDAT ?playerSetItemAttribute@@YAPAU_object@@PAU1@0@Z
_TEXT	SEGMENT
_iAttributeSlotIndex$ = -16				; size = 4
_iAttributeType$ = -12					; size = 4
_iAttributeValue$ = -8					; size = 4
_ItemPos$ = -4						; size = 3
_poSelf$ = 8						; size = 4
_poArgs$ = 12						; size = 4
?playerSetItemAttribute@@YAPAU_object@@PAU1@0@Z PROC	; playerSetItemAttribute, COMDAT

; 2250 : {

  00000	55		 push	 ebp
  00001	8b ec		 mov	 ebp, esp
  00003	83 ec 10	 sub	 esp, 16			; 00000010H
  00006	56		 push	 esi

; 2256 : 	switch (PyTuple_Size(poArgs))

  00007	8b 75 0c	 mov	 esi, DWORD PTR _poArgs$[ebp]
; File C:\Anka2Project\Anka2Project\Source\Binary\source\UserInterface\GameType.h

; 448  : 		cell = WORD_MAX;

  0000a	b8 ff ff 00 00	 mov	 eax, 65535		; 0000ffffH
; File C:\Anka2Project\Anka2Project\Source\Binary\source\UserInterface\PythonPlayerModule.cpp

; 2256 : 	switch (PyTuple_Size(poArgs))

  0000f	56		 push	 esi
; File C:\Anka2Project\Anka2Project\Source\Binary\source\UserInterface\GameType.h

; 447  : 		window_type = INVENTORY;

  00010	c6 45 fc 01	 mov	 BYTE PTR _ItemPos$[ebp], 1

; 448  : 		cell = WORD_MAX;

  00014	66 89 45 fd	 mov	 WORD PTR _ItemPos$[ebp+1], ax
; File C:\Anka2Project\Anka2Project\Source\Binary\source\UserInterface\PythonPlayerModule.cpp

; 2256 : 	switch (PyTuple_Size(poArgs))

  00018	ff 15 00 00 00
	00		 call	 DWORD PTR __imp__PyTuple_Size
  0001e	83 c4 04	 add	 esp, 4
  00021	83 e8 04	 sub	 eax, 4
  00024	74 77		 je	 SHORT $LN4@playerSetI
  00026	83 e8 01	 sub	 eax, 1
  00029	0f 85 ba 00 00
	00		 jne	 $LN8@playerSetI

; 2269 : 			return Py_BuildException();
; 2270 : 		break;
; 2271 : 	case 5:
; 2272 : 		if (!PyTuple_GetInteger(poArgs, 0, &ItemPos.window_type))

  0002f	8d 45 fc	 lea	 eax, DWORD PTR _ItemPos$[ebp]
  00032	50		 push	 eax
  00033	6a 00		 push	 0
  00035	56		 push	 esi
  00036	e8 00 00 00 00	 call	 ?PyTuple_GetInteger@@YA_NPAU_object@@HPAE@Z ; PyTuple_GetInteger
  0003b	83 c4 0c	 add	 esp, 12			; 0000000cH
  0003e	84 c0		 test	 al, al
  00040	74 4c		 je	 SHORT $LN33@playerSetI

; 2273 : 			return Py_BuildException();
; 2274 : 
; 2275 : 		if (!PyTuple_GetInteger(poArgs, 1, &ItemPos.cell))

  00042	8d 45 fd	 lea	 eax, DWORD PTR _ItemPos$[ebp+1]
  00045	50		 push	 eax
  00046	6a 01		 push	 1
  00048	56		 push	 esi
  00049	e8 00 00 00 00	 call	 ?PyTuple_GetInteger@@YA_NPAU_object@@HPAG@Z ; PyTuple_GetInteger
  0004e	83 c4 0c	 add	 esp, 12			; 0000000cH
  00051	84 c0		 test	 al, al
  00053	74 39		 je	 SHORT $LN33@playerSetI

; 2276 : 			return Py_BuildException();
; 2277 : 
; 2278 : 		if (!PyTuple_GetInteger(poArgs, 2, &iAttributeSlotIndex))

  00055	8d 45 f0	 lea	 eax, DWORD PTR _iAttributeSlotIndex$[ebp]
  00058	50		 push	 eax
  00059	6a 02		 push	 2
  0005b	56		 push	 esi
  0005c	e8 00 00 00 00	 call	 ?PyTuple_GetInteger@@YA_NPAU_object@@HPAH@Z ; PyTuple_GetInteger
  00061	83 c4 0c	 add	 esp, 12			; 0000000cH
  00064	84 c0		 test	 al, al
  00066	74 26		 je	 SHORT $LN33@playerSetI

; 2279 : 			return Py_BuildException();
; 2280 : 
; 2281 : 		if (!PyTuple_GetInteger(poArgs, 3, &iAttributeType))

  00068	8d 45 f4	 lea	 eax, DWORD PTR _iAttributeType$[ebp]
  0006b	50		 push	 eax
  0006c	6a 03		 push	 3
  0006e	56		 push	 esi
  0006f	e8 00 00 00 00	 call	 ?PyTuple_GetInteger@@YA_NPAU_object@@HPAH@Z ; PyTuple_GetInteger
  00074	83 c4 0c	 add	 esp, 12			; 0000000cH
  00077	84 c0		 test	 al, al
  00079	74 13		 je	 SHORT $LN33@playerSetI

; 2282 : 			return Py_BuildException();
; 2283 : 
; 2284 : 		if (!PyTuple_GetInteger(poArgs, 4, &iAttributeValue))

  0007b	8d 45 f8	 lea	 eax, DWORD PTR _iAttributeValue$[ebp]
  0007e	50		 push	 eax
  0007f	6a 04		 push	 4
  00081	56		 push	 esi
  00082	e8 00 00 00 00	 call	 ?PyTuple_GetInteger@@YA_NPAU_object@@HPAH@Z ; PyTuple_GetInteger
  00087	83 c4 0c	 add	 esp, 12			; 0000000cH
  0008a	84 c0		 test	 al, al
  0008c	75 5b		 jne	 SHORT $LN8@playerSetI
$LN33@playerSetI:

; 2290 : }

  0008e	6a 00		 push	 0
  00090	e8 00 00 00 00	 call	 ?Py_BuildException@@YAPAU_object@@PBDZZ ; Py_BuildException
  00095	83 c4 04	 add	 esp, 4
  00098	5e		 pop	 esi
  00099	8b e5		 mov	 esp, ebp
  0009b	5d		 pop	 ebp
  0009c	c3		 ret	 0
$LN4@playerSetI:

; 2257 : 	{
; 2258 : 	case 4:
; 2259 : 		if (!PyTuple_GetInteger(poArgs, 0, &ItemPos.cell))

  0009d	8d 45 fd	 lea	 eax, DWORD PTR _ItemPos$[ebp+1]
  000a0	50		 push	 eax
  000a1	6a 00		 push	 0
  000a3	56		 push	 esi
  000a4	e8 00 00 00 00	 call	 ?PyTuple_GetInteger@@YA_NPAU_object@@HPAG@Z ; PyTuple_GetInteger
  000a9	83 c4 0c	 add	 esp, 12			; 0000000cH
  000ac	84 c0		 test	 al, al
  000ae	74 de		 je	 SHORT $LN33@playerSetI

; 2260 : 			return Py_BuildException();
; 2261 : 
; 2262 : 		if (!PyTuple_GetInteger(poArgs, 1, &iAttributeSlotIndex))

  000b0	8d 45 f0	 lea	 eax, DWORD PTR _iAttributeSlotIndex$[ebp]
  000b3	50		 push	 eax
  000b4	6a 01		 push	 1
  000b6	56		 push	 esi
  000b7	e8 00 00 00 00	 call	 ?PyTuple_GetInteger@@YA_NPAU_object@@HPAH@Z ; PyTuple_GetInteger
  000bc	83 c4 0c	 add	 esp, 12			; 0000000cH
  000bf	84 c0		 test	 al, al
  000c1	74 cb		 je	 SHORT $LN33@playerSetI

; 2263 : 			return Py_BuildException();
; 2264 : 
; 2265 : 		if (!PyTuple_GetInteger(poArgs, 2, &iAttributeType))

  000c3	8d 45 f4	 lea	 eax, DWORD PTR _iAttributeType$[ebp]
  000c6	50		 push	 eax
  000c7	6a 02		 push	 2
  000c9	56		 push	 esi
  000ca	e8 00 00 00 00	 call	 ?PyTuple_GetInteger@@YA_NPAU_object@@HPAH@Z ; PyTuple_GetInteger
  000cf	83 c4 0c	 add	 esp, 12			; 0000000cH
  000d2	84 c0		 test	 al, al
  000d4	74 b8		 je	 SHORT $LN33@playerSetI

; 2266 : 			return Py_BuildException();
; 2267 : 
; 2268 : 		if (!PyTuple_GetInteger(poArgs, 3, &iAttributeValue))

  000d6	8d 45 f8	 lea	 eax, DWORD PTR _iAttributeValue$[ebp]
  000d9	50		 push	 eax
  000da	6a 03		 push	 3
  000dc	56		 push	 esi
  000dd	e8 00 00 00 00	 call	 ?PyTuple_GetInteger@@YA_NPAU_object@@HPAH@Z ; PyTuple_GetInteger
  000e2	83 c4 0c	 add	 esp, 12			; 0000000cH
  000e5	84 c0		 test	 al, al
  000e7	74 a5		 je	 SHORT $LN33@playerSetI
$LN8@playerSetI:
; File C:\Anka2Project\Anka2Project\Source\Binary\source\eterBase\Singleton.h

; 26   : 		assert(ms_singleton);

  000e9	8b 0d 00 00 00
	00		 mov	 ecx, DWORD PTR ?ms_singleton@?$CSingleton@VCPythonPlayer@@@@0PAVCPythonPlayer@@A ; CSingleton<CPythonPlayer>::ms_singleton
  000ef	85 c9		 test	 ecx, ecx
  000f1	75 1a		 jne	 SHORT $LN20@playerSetI
  000f3	6a 1a		 push	 26			; 0000001aH
  000f5	68 00 00 00 00	 push	 OFFSET ??_C@_1IO@CAJLEEOI@?$AAC?$AA?3?$AA?2?$AAA?$AAn?$AAk?$AAa?$AA2?$AAP?$AAr?$AAo?$AAj?$AAe?$AAc?$AAt@
  000fa	68 00 00 00 00	 push	 OFFSET ??_C@_1BK@FMEHPMFE@?$AAm?$AAs?$AA_?$AAs?$AAi?$AAn?$AAg?$AAl?$AAe?$AAt?$AAo?$AAn@
  000ff	e8 00 00 00 00	 call	 __wassert
  00104	8b 0d 00 00 00
	00		 mov	 ecx, DWORD PTR ?ms_singleton@?$CSingleton@VCPythonPlayer@@@@0PAVCPythonPlayer@@A ; CSingleton<CPythonPlayer>::ms_singleton
  0010a	83 c4 0c	 add	 esp, 12			; 0000000cH
$LN20@playerSetI:
; File C:\Anka2Project\Anka2Project\Source\Binary\source\UserInterface\PythonPlayerModule.cpp

; 2288 : 	CPythonPlayer::Instance().SetItemAttribute(ItemPos, iAttributeSlotIndex, iAttributeType, iAttributeValue);

  0010d	ff 75 f8	 push	 DWORD PTR _iAttributeValue$[ebp]
  00110	66 8b 45 fc	 mov	 ax, WORD PTR _ItemPos$[ebp]
  00114	83 c1 04	 add	 ecx, 4
  00117	ff 75 f4	 push	 DWORD PTR _iAttributeType$[ebp]
  0011a	ff 75 f0	 push	 DWORD PTR _iAttributeSlotIndex$[ebp]
  0011d	8b 31		 mov	 esi, DWORD PTR [ecx]
  0011f	51		 push	 ecx
  00120	8b d4		 mov	 edx, esp
  00122	66 89 02	 mov	 WORD PTR [edx], ax
  00125	8a 45 fe	 mov	 al, BYTE PTR _ItemPos$[ebp+2]
  00128	88 42 02	 mov	 BYTE PTR [edx+2], al
  0012b	ff 56 40	 call	 DWORD PTR [esi+64]

; 2289 : 	return Py_BuildNone();

  0012e	e8 00 00 00 00	 call	 ?Py_BuildNone@@YAPAU_object@@XZ ; Py_BuildNone

; 2290 : }

  00133	5e		 pop	 esi
  00134	8b e5		 mov	 esp, ebp
  00136	5d		 pop	 ebp
  00137	c3		 ret	 0
?playerSetItemAttribute@@YAPAU_object@@PAU1@0@Z ENDP	; playerSetItemAttribute
_TEXT	ENDS
; Function compile flags: /Ogtp
; File C:\Anka2Project\Anka2Project\Source\Binary\source\UserInterface\PythonPlayerModule.cpp
; File C:\Anka2Project\Anka2Project\Source\Binary\source\UserInterface\PythonPlayer.h
; File C:\Anka2Project\Anka2Project\Source\Binary\source\UserInterface\PythonPlayerModule.cpp
;	COMDAT ?playerGetAutoPotionInfo@@YAPAU_object@@PAU1@0@Z
_TEXT	SEGMENT
_potionType$ = -4					; size = 4
_poSelf$ = 8						; size = 4
_poArgs$ = 12						; size = 4
?playerGetAutoPotionInfo@@YAPAU_object@@PAU1@0@Z PROC	; playerGetAutoPotionInfo, COMDAT

; 2318 : {

  00000	55		 push	 ebp
  00001	8b ec		 mov	 ebp, esp
  00003	51		 push	 ecx
  00004	56		 push	 esi

; 2319 : 	CPythonPlayer* player = CPythonPlayer::InstancePtr();

  00005	8b 35 00 00 00
	00		 mov	 esi, DWORD PTR ?ms_singleton@?$CSingleton@VCPythonPlayer@@@@0PAVCPythonPlayer@@A ; CSingleton<CPythonPlayer>::ms_singleton

; 2320 : 
; 2321 : 	int potionType = 0;
; 2322 : 	if (!PyTuple_GetInteger(poArgs, 0, &potionType))

  0000b	8d 45 fc	 lea	 eax, DWORD PTR _potionType$[ebp]
  0000e	50		 push	 eax
  0000f	6a 00		 push	 0
  00011	ff 75 0c	 push	 DWORD PTR _poArgs$[ebp]
  00014	c7 45 fc 00 00
	00 00		 mov	 DWORD PTR _potionType$[ebp], 0
  0001b	e8 00 00 00 00	 call	 ?PyTuple_GetInteger@@YA_NPAU_object@@HPAH@Z ; PyTuple_GetInteger
  00020	83 c4 0c	 add	 esp, 12			; 0000000cH
  00023	84 c0		 test	 al, al
  00025	75 0a		 jne	 SHORT $LN2@playerGetA

; 2323 : 		return Py_BadArgument();

  00027	e8 00 00 00 00	 call	 ?Py_BadArgument@@YAPAU_object@@XZ ; Py_BadArgument
  0002c	5e		 pop	 esi

; 2328 : }

  0002d	8b e5		 mov	 esp, ebp
  0002f	5d		 pop	 ebp
  00030	c3		 ret	 0
$LN2@playerGetA:
; File C:\Anka2Project\Anka2Project\Source\Binary\source\UserInterface\PythonPlayer.h

; 567  : 		__inline		SAutoPotionInfo& GetAutoPotionInfo(int type)		{ return m_kAutoPotionInfo[type]; }

  00031	8b 45 fc	 mov	 eax, DWORD PTR _potionType$[ebp]
  00034	05 3b 1b 00 00	 add	 eax, 6971		; 00001b3bH
  00039	c1 e0 04	 shl	 eax, 4
  0003c	03 c6		 add	 eax, esi
; File C:\Anka2Project\Anka2Project\Source\Binary\source\UserInterface\PythonPlayerModule.cpp

; 2327 : 	return Py_BuildValue("biii", potionInfo.bActivated, int(potionInfo.currentAmount), int(potionInfo.totalAmount), int(potionInfo.inventorySlotIndex));

  0003e	ff 70 0c	 push	 DWORD PTR [eax+12]
  00041	ff 70 08	 push	 DWORD PTR [eax+8]
  00044	ff 70 04	 push	 DWORD PTR [eax+4]
  00047	0f b6 00	 movzx	 eax, BYTE PTR [eax]
  0004a	50		 push	 eax
  0004b	68 00 00 00 00	 push	 OFFSET ??_C@_04GPDILEAH@biii@
  00050	ff 15 00 00 00
	00		 call	 DWORD PTR __imp__Py_BuildValue
  00056	83 c4 14	 add	 esp, 20			; 00000014H
  00059	5e		 pop	 esi

; 2328 : }

  0005a	8b e5		 mov	 esp, ebp
  0005c	5d		 pop	 ebp
  0005d	c3		 ret	 0
?playerGetAutoPotionInfo@@YAPAU_object@@PAU1@0@Z ENDP	; playerGetAutoPotionInfo
_TEXT	ENDS
; Function compile flags: /Ogtp
; File C:\Anka2Project\Anka2Project\Source\Binary\source\UserInterface\PythonPlayerModule.cpp
;	COMDAT ?playerSlotTypeToInvenType@@YAPAU_object@@PAU1@0@Z
_TEXT	SEGMENT
_slotType$ = -4						; size = 4
_poSelf$ = 8						; size = 4
_poArgs$ = 12						; size = 4
?playerSlotTypeToInvenType@@YAPAU_object@@PAU1@0@Z PROC	; playerSlotTypeToInvenType, COMDAT

; 2331 : {

  00000	55		 push	 ebp
  00001	8b ec		 mov	 ebp, esp
  00003	51		 push	 ecx

; 2332 : 	int slotType = 0;
; 2333 : 	if (!PyTuple_GetInteger(poArgs, 0, &slotType))

  00004	8d 45 fc	 lea	 eax, DWORD PTR _slotType$[ebp]
  00007	c7 45 fc 00 00
	00 00		 mov	 DWORD PTR _slotType$[ebp], 0
  0000e	50		 push	 eax
  0000f	6a 00		 push	 0
  00011	ff 75 0c	 push	 DWORD PTR _poArgs$[ebp]
  00014	e8 00 00 00 00	 call	 ?PyTuple_GetInteger@@YA_NPAU_object@@HPAH@Z ; PyTuple_GetInteger
  00019	83 c4 0c	 add	 esp, 12			; 0000000cH
  0001c	84 c0		 test	 al, al
  0001e	75 09		 jne	 SHORT $LN2@playerSlot

; 2334 : 		return Py_BadArgument();

  00020	e8 00 00 00 00	 call	 ?Py_BadArgument@@YAPAU_object@@XZ ; Py_BadArgument

; 2337 : }

  00025	8b e5		 mov	 esp, ebp
  00027	5d		 pop	 ebp
  00028	c3		 ret	 0
$LN2@playerSlot:

; 2335 : 
; 2336 : 	return Py_BuildValue("i", SlotTypeToInvenType((BYTE)slotType));

  00029	8a 4d fc	 mov	 cl, BYTE PTR _slotType$[ebp]
  0002c	e8 00 00 00 00	 call	 ?SlotTypeToInvenType@@YAEE@Z ; SlotTypeToInvenType
  00031	0f b6 c0	 movzx	 eax, al
  00034	50		 push	 eax
  00035	68 00 00 00 00	 push	 OFFSET ??_C@_01KBJDNOO@i@
  0003a	ff 15 00 00 00
	00		 call	 DWORD PTR __imp__Py_BuildValue
  00040	83 c4 08	 add	 esp, 8

; 2337 : }

  00043	8b e5		 mov	 esp, ebp
  00045	5d		 pop	 ebp
  00046	c3		 ret	 0
?playerSlotTypeToInvenType@@YAPAU_object@@PAU1@0@Z ENDP	; playerSlotTypeToInvenType
_TEXT	ENDS
; Function compile flags: /Ogtp
; File C:\Anka2Project\Anka2Project\Source\Binary\source\UserInterface\PythonPlayerModule.cpp
;	COMDAT ?playerIsEquippingBelt@@YAPAU_object@@PAU1@0@Z
_TEXT	SEGMENT
_poSelf$ = 8						; size = 4
_poArgs$ = 12						; size = 4
?playerIsEquippingBelt@@YAPAU_object@@PAU1@0@Z PROC	; playerIsEquippingBelt, COMDAT

; 2342 : 	const CPythonPlayer* player = CPythonPlayer::InstancePtr();
; 2343 : 	bool bEquipping = false;
; 2344 : 
; 2345 : #ifdef DEFAULT_BELT_SYSTEM
; 2346 : 	const TItemData* data = player->GetItemData(TItemPos(EQUIPMENT, c_Equipment_Belt));
; 2347 : 
; 2348 : 	if (NULL != data)
; 2349 : 		bEquipping = 0 < data->count;
; 2350 : #endif
; 2351 : 
; 2352 : 	return Py_BuildValue("b", bEquipping);

  00000	6a 00		 push	 0
  00002	68 00 00 00 00	 push	 OFFSET ??_C@_01OJONOECF@b@
  00007	ff 15 00 00 00
	00		 call	 DWORD PTR __imp__Py_BuildValue
  0000d	83 c4 08	 add	 esp, 8

; 2353 : }

  00010	c3		 ret	 0
?playerIsEquippingBelt@@YAPAU_object@@PAU1@0@Z ENDP	; playerIsEquippingBelt
_TEXT	ENDS
; Function compile flags: /Ogtp
; File C:\Anka2Project\Anka2Project\Source\Binary\source\UserInterface\PythonPlayerModule.cpp
; File C:\Anka2Project\Anka2Project\Source\Binary\source\eterBase\Singleton.h
; File C:\Anka2Project\Anka2Project\Source\Binary\source\UserInterface\PythonPlayerModule.cpp
;	COMDAT ?playerIsAvailableBeltInventoryCell@@YAPAU_object@@PAU1@0@Z
_TEXT	SEGMENT
_pos$ = -4						; size = 4
_poSelf$ = 8						; size = 4
_poArgs$ = 12						; size = 4
?playerIsAvailableBeltInventoryCell@@YAPAU_object@@PAU1@0@Z PROC ; playerIsAvailableBeltInventoryCell, COMDAT

; 2356 : {

  00000	55		 push	 ebp
  00001	8b ec		 mov	 ebp, esp
  00003	51		 push	 ecx
; File C:\Anka2Project\Anka2Project\Source\Binary\source\eterBase\Singleton.h

; 26   : 		assert(ms_singleton);

  00004	8b 0d 00 00 00
	00		 mov	 ecx, DWORD PTR ?ms_singleton@?$CSingleton@VCItemManager@@@@0PAVCItemManager@@A ; CSingleton<CItemManager>::ms_singleton
  0000a	85 c9		 test	 ecx, ecx
  0000c	75 1a		 jne	 SHORT $LN6@playerIsAv
  0000e	6a 1a		 push	 26			; 0000001aH
  00010	68 00 00 00 00	 push	 OFFSET ??_C@_1IO@CAJLEEOI@?$AAC?$AA?3?$AA?2?$AAA?$AAn?$AAk?$AAa?$AA2?$AAP?$AAr?$AAo?$AAj?$AAe?$AAc?$AAt@
  00015	68 00 00 00 00	 push	 OFFSET ??_C@_1BK@FMEHPMFE@?$AAm?$AAs?$AA_?$AAs?$AAi?$AAn?$AAg?$AAl?$AAe?$AAt?$AAo?$AAn@
  0001a	e8 00 00 00 00	 call	 __wassert
  0001f	8b 0d 00 00 00
	00		 mov	 ecx, DWORD PTR ?ms_singleton@?$CSingleton@VCItemManager@@@@0PAVCItemManager@@A ; CSingleton<CItemManager>::ms_singleton
  00025	83 c4 0c	 add	 esp, 12			; 0000000cH
$LN6@playerIsAv:
  00028	56		 push	 esi
; File C:\Anka2Project\Anka2Project\Source\Binary\source\UserInterface\PythonPlayerModule.cpp

; 2366 : 	CItemData * pItem = CItemManager::Instance().GetSelectedItemDataPointer();

  00029	e8 00 00 00 00	 call	 ?GetSelectedItemDataPointer@CItemManager@@QAEPAVCItemData@@XZ ; CItemManager::GetSelectedItemDataPointer

; 2367 : 
; 2368 : 	long beltGrade = pItem->GetValue(0);

  0002e	6a 00		 push	 0
  00030	8b c8		 mov	 ecx, eax
  00032	e8 00 00 00 00	 call	 ?GetValue@CItemData@@QBEJE@Z ; CItemData::GetValue
  00037	8b f0		 mov	 esi, eax

; 2369 : 
; 2370 : 	int pos = 0;

  00039	c7 45 fc 00 00
	00 00		 mov	 DWORD PTR _pos$[ebp], 0

; 2371 : 	if (!PyTuple_GetInteger(poArgs, 0, &pos))

  00040	8d 45 fc	 lea	 eax, DWORD PTR _pos$[ebp]
  00043	50		 push	 eax
  00044	6a 00		 push	 0
  00046	ff 75 0c	 push	 DWORD PTR _poArgs$[ebp]
  00049	e8 00 00 00 00	 call	 ?PyTuple_GetInteger@@YA_NPAU_object@@HPAH@Z ; PyTuple_GetInteger
  0004e	83 c4 0c	 add	 esp, 12			; 0000000cH
  00051	84 c0		 test	 al, al
  00053	75 0a		 jne	 SHORT $LN2@playerIsAv

; 2372 : 		return Py_BadArgument();

  00055	e8 00 00 00 00	 call	 ?Py_BadArgument@@YAPAU_object@@XZ ; Py_BadArgument
  0005a	5e		 pop	 esi

; 2375 : }

  0005b	8b e5		 mov	 esp, ebp
  0005d	5d		 pop	 ebp
  0005e	c3		 ret	 0
$LN2@playerIsAv:

; 2373 : 
; 2374 : 	return Py_BuildValue("b", CBeltInventoryHelper::IsAvailableCell(pos - c_Belt_Inventory_Slot_Start, beltGrade));

  0005f	8b 45 fc	 mov	 eax, DWORD PTR _pos$[ebp]

; 52   : 			return ruleTable[cell] <= beltGrade;

  00062	33 c9		 xor	 ecx, ecx

; 2373 : 
; 2374 : 	return Py_BuildValue("b", CBeltInventoryHelper::IsAvailableCell(pos - c_Belt_Inventory_Slot_Start, beltGrade));

  00064	05 ee fe ff ff	 add	 eax, -274		; fffffeeeH

; 52   : 			return ruleTable[cell] <= beltGrade;

  00069	0f b7 c0	 movzx	 eax, ax
  0006c	0f b6 80 00 00
	00 00		 movzx	 eax, BYTE PTR ?availableRuleByGrade@?1??GetAvailableRuleTableByGrade@CBeltInventoryHelper@@SAPBEXZ@4PAEA[eax]
  00073	3b c6		 cmp	 eax, esi
  00075	0f 9e c1	 setle	 cl

; 2373 : 
; 2374 : 	return Py_BuildValue("b", CBeltInventoryHelper::IsAvailableCell(pos - c_Belt_Inventory_Slot_Start, beltGrade));

  00078	51		 push	 ecx
  00079	68 00 00 00 00	 push	 OFFSET ??_C@_01OJONOECF@b@
  0007e	ff 15 00 00 00
	00		 call	 DWORD PTR __imp__Py_BuildValue
  00084	83 c4 08	 add	 esp, 8
  00087	5e		 pop	 esi

; 2375 : }

  00088	8b e5		 mov	 esp, ebp
  0008a	5d		 pop	 ebp
  0008b	c3		 ret	 0
?playerIsAvailableBeltInventoryCell@@YAPAU_object@@PAU1@0@Z ENDP ; playerIsAvailableBeltInventoryCell
_TEXT	ENDS
; Function compile flags: /Ogtp
; File C:\Anka2Project\Anka2Project\Source\Binary\source\UserInterface\PythonPlayerModule.cpp
; File C:\Anka2Project\Anka2Project\Source\Binary\source\UserInterface\GameType.h
; File C:\Anka2Project\Anka2Project\Source\Binary\source\UserInterface\PythonPlayerModule.cpp
; File C:\Anka2Project\Anka2Project\Source\Binary\source\eterBase\Singleton.h
; File C:\Anka2Project\Anka2Project\Source\Binary\source\UserInterface\PythonPlayerModule.cpp
;	COMDAT ?playerSendDragonSoulRefine@@YAPAU_object@@PAU1@0@Z
_TEXT	SEGMENT
_bSubHeader$ = -72					; size = 1
_pos$3 = -68						; size = 4
_key$4 = -64						; size = 4
_pDic$ = -60						; size = 4
_value$5 = -56						; size = 4
_RefineItemPoses$ = -52					; size = 45
__$ArrayPad$ = -4					; size = 4
_poSelf$ = 8						; size = 4
_poArgs$ = 12						; size = 4
?playerSendDragonSoulRefine@@YAPAU_object@@PAU1@0@Z PROC ; playerSendDragonSoulRefine, COMDAT

; 2379 : {

  00000	55		 push	 ebp
  00001	8b ec		 mov	 ebp, esp
  00003	83 ec 48	 sub	 esp, 72			; 00000048H
  00006	a1 00 00 00 00	 mov	 eax, DWORD PTR ___security_cookie
  0000b	33 c5		 xor	 eax, ebp
  0000d	89 45 fc	 mov	 DWORD PTR __$ArrayPad$[ebp], eax
  00010	56		 push	 esi
  00011	8b 75 0c	 mov	 esi, DWORD PTR _poArgs$[ebp]

; 2380 : 	BYTE bSubHeader;
; 2381 : 	PyObject *pDic;
; 2382 : 	TItemPos RefineItemPoses[DS_REFINE_WINDOW_MAX_NUM];

  00014	8d 45 cc	 lea	 eax, DWORD PTR _RefineItemPoses$[ebp]
  00017	b9 0f 00 00 00	 mov	 ecx, 15			; 0000000fH
  0001c	ba ff ff 00 00	 mov	 edx, 65535		; 0000ffffH
$LL33@playerSend:
; File C:\Anka2Project\Anka2Project\Source\Binary\source\UserInterface\GameType.h

; 447  : 		window_type = INVENTORY;

  00021	c6 00 01	 mov	 BYTE PTR [eax], 1
  00024	8d 40 03	 lea	 eax, DWORD PTR [eax+3]

; 448  : 		cell = WORD_MAX;

  00027	66 89 50 fe	 mov	 WORD PTR [eax-2], dx
  0002b	83 e9 01	 sub	 ecx, 1
  0002e	75 f1		 jne	 SHORT $LL33@playerSend
; File C:\Anka2Project\Anka2Project\Source\Binary\source\UserInterface\PythonPlayerModule.cpp

; 2383 : 	if (!PyTuple_GetByte(poArgs, 0, &bSubHeader))

  00030	8d 45 b8	 lea	 eax, DWORD PTR _bSubHeader$[ebp]
  00033	50		 push	 eax
  00034	51		 push	 ecx
  00035	56		 push	 esi
  00036	e8 00 00 00 00	 call	 ?PyTuple_GetByte@@YA_NPAU_object@@HPAE@Z ; PyTuple_GetByte
  0003b	83 c4 0c	 add	 esp, 12			; 0000000cH
  0003e	84 c0		 test	 al, al
  00040	75 19		 jne	 SHORT $LN6@playerSend

; 2384 : 		return Py_BuildException();

  00042	6a 00		 push	 0
  00044	e8 00 00 00 00	 call	 ?Py_BuildException@@YAPAU_object@@PBDZZ ; Py_BuildException
  00049	83 c4 04	 add	 esp, 4
  0004c	5e		 pop	 esi

; 2419 : }

  0004d	8b 4d fc	 mov	 ecx, DWORD PTR __$ArrayPad$[ebp]
  00050	33 cd		 xor	 ecx, ebp
  00052	e8 00 00 00 00	 call	 @__security_check_cookie@4
  00057	8b e5		 mov	 esp, ebp
  00059	5d		 pop	 ebp
  0005a	c3		 ret	 0
$LN6@playerSend:

; 2385 : 	switch (bSubHeader)

  0005b	0f b6 45 b8	 movzx	 eax, BYTE PTR _bSubHeader$[ebp]
  0005f	53		 push	 ebx
  00060	57		 push	 edi
  00061	83 e8 02	 sub	 eax, 2
  00064	74 0e		 je	 SHORT $LN8@playerSend
  00066	83 e8 01	 sub	 eax, 1
  00069	74 09		 je	 SHORT $LN8@playerSend
  0006b	83 e8 01	 sub	 eax, 1
  0006e	0f 85 a6 00 00
	00		 jne	 $LN38@playerSend
$LN8@playerSend:

; 2386 : 	{
; 2387 : 	case DS_SUB_HEADER_CLOSE:
; 2388 : 		break;
; 2389 : 	case DS_SUB_HEADER_DO_UPGRADE:
; 2390 : 	case DS_SUB_HEADER_DO_IMPROVEMENT:
; 2391 : 	case DS_SUB_HEADER_DO_REFINE:
; 2392 : 		{
; 2393 : 			if (!PyTuple_GetObject(poArgs, 1, &pDic))

  00074	8d 45 c4	 lea	 eax, DWORD PTR _pDic$[ebp]
  00077	50		 push	 eax
  00078	6a 01		 push	 1
  0007a	56		 push	 esi
  0007b	e8 00 00 00 00	 call	 ?PyTuple_GetObject@@YA_NPAU_object@@HPAPAU1@@Z ; PyTuple_GetObject
  00080	83 c4 0c	 add	 esp, 12			; 0000000cH
  00083	84 c0		 test	 al, al
  00085	0f 84 d5 00 00
	00		 je	 $LN29@playerSend

; 2394 : 				return Py_BuildException();
; 2395 : 			int pos = 0;
; 2396 : 			PyObject *key, *value;
; 2397 : 			int size = PyDict_Size(pDic);

  0008b	ff 75 c4	 push	 DWORD PTR _pDic$[ebp]
  0008e	c7 45 bc 00 00
	00 00		 mov	 DWORD PTR _pos$3[ebp], 0
  00095	ff 15 00 00 00
	00		 call	 DWORD PTR __imp__PyDict_Size

; 2398 : 
; 2399 : 			while (PyDict_Next(pDic, &pos, &key, &value))

  0009b	8b 1d 00 00 00
	00		 mov	 ebx, DWORD PTR __imp__PyDict_Next
  000a1	8d 45 c8	 lea	 eax, DWORD PTR _value$5[ebp]
  000a4	50		 push	 eax
  000a5	8d 45 c0	 lea	 eax, DWORD PTR _key$4[ebp]
  000a8	50		 push	 eax
  000a9	8d 45 bc	 lea	 eax, DWORD PTR _pos$3[ebp]
  000ac	50		 push	 eax
  000ad	ff 75 c4	 push	 DWORD PTR _pDic$[ebp]
  000b0	ff d3		 call	 ebx
  000b2	83 c4 14	 add	 esp, 20			; 00000014H
  000b5	85 c0		 test	 eax, eax
  000b7	74 61		 je	 SHORT $LN38@playerSend
  000b9	8b 3d 00 00 00
	00		 mov	 edi, DWORD PTR __imp__PyInt_AsLong
  000bf	90		 npad	 1
$LL4@playerSend:

; 2400 : 			{
; 2401 : 				int i = PyInt_AsLong(key);

  000c0	ff 75 c0	 push	 DWORD PTR _key$4[ebp]
  000c3	ff d7		 call	 edi
  000c5	83 c4 04	 add	 esp, 4

; 2402 : 				if (i > DS_REFINE_WINDOW_MAX_NUM)

  000c8	83 f8 0f	 cmp	 eax, 15			; 0000000fH
  000cb	0f 8f 8f 00 00
	00		 jg	 $LN29@playerSend

; 2404 : 
; 2405 : 				if (!PyTuple_GetByte(value, 0, &RefineItemPoses[i].window_type) 
; 2406 : 					|| !PyTuple_GetInteger(value, 1, &RefineItemPoses[i].cell))

  000d1	8d 34 40	 lea	 esi, DWORD PTR [eax+eax*2]
  000d4	8d 45 cc	 lea	 eax, DWORD PTR _RefineItemPoses$[ebp]
  000d7	03 c6		 add	 eax, esi
  000d9	50		 push	 eax
  000da	6a 00		 push	 0
  000dc	ff 75 c8	 push	 DWORD PTR _value$5[ebp]
  000df	e8 00 00 00 00	 call	 ?PyTuple_GetByte@@YA_NPAU_object@@HPAE@Z ; PyTuple_GetByte
  000e4	83 c4 0c	 add	 esp, 12			; 0000000cH
  000e7	84 c0		 test	 al, al
  000e9	74 75		 je	 SHORT $LN29@playerSend
  000eb	8d 45 cd	 lea	 eax, DWORD PTR _RefineItemPoses$[ebp+1]
  000ee	03 c6		 add	 eax, esi
  000f0	50		 push	 eax
  000f1	6a 01		 push	 1
  000f3	ff 75 c8	 push	 DWORD PTR _value$5[ebp]
  000f6	e8 00 00 00 00	 call	 ?PyTuple_GetInteger@@YA_NPAU_object@@HPAG@Z ; PyTuple_GetInteger
  000fb	83 c4 0c	 add	 esp, 12			; 0000000cH
  000fe	84 c0		 test	 al, al
  00100	74 5e		 je	 SHORT $LN29@playerSend

; 2398 : 
; 2399 : 			while (PyDict_Next(pDic, &pos, &key, &value))

  00102	8d 45 c8	 lea	 eax, DWORD PTR _value$5[ebp]
  00105	50		 push	 eax
  00106	8d 45 c0	 lea	 eax, DWORD PTR _key$4[ebp]
  00109	50		 push	 eax
  0010a	8d 45 bc	 lea	 eax, DWORD PTR _pos$3[ebp]
  0010d	50		 push	 eax
  0010e	ff 75 c4	 push	 DWORD PTR _pDic$[ebp]
  00111	ff d3		 call	 ebx
  00113	83 c4 10	 add	 esp, 16			; 00000010H
  00116	85 c0		 test	 eax, eax
  00118	75 a6		 jne	 SHORT $LL4@playerSend
$LN38@playerSend:
; File C:\Anka2Project\Anka2Project\Source\Binary\source\eterBase\Singleton.h

; 26   : 		assert(ms_singleton);

  0011a	8b 0d 00 00 00
	00		 mov	 ecx, DWORD PTR ?ms_singleton@?$CSingleton@VCPythonNetworkStream@@@@0PAVCPythonNetworkStream@@A ; CSingleton<CPythonNetworkStream>::ms_singleton
  00120	85 c9		 test	 ecx, ecx
  00122	75 1a		 jne	 SHORT $LN26@playerSend
  00124	6a 1a		 push	 26			; 0000001aH
  00126	68 00 00 00 00	 push	 OFFSET ??_C@_1IO@CAJLEEOI@?$AAC?$AA?3?$AA?2?$AAA?$AAn?$AAk?$AAa?$AA2?$AAP?$AAr?$AAo?$AAj?$AAe?$AAc?$AAt@
  0012b	68 00 00 00 00	 push	 OFFSET ??_C@_1BK@FMEHPMFE@?$AAm?$AAs?$AA_?$AAs?$AAi?$AAn?$AAg?$AAl?$AAe?$AAt?$AAo?$AAn@
  00130	e8 00 00 00 00	 call	 __wassert
  00135	8b 0d 00 00 00
	00		 mov	 ecx, DWORD PTR ?ms_singleton@?$CSingleton@VCPythonNetworkStream@@@@0PAVCPythonNetworkStream@@A ; CSingleton<CPythonNetworkStream>::ms_singleton
  0013b	83 c4 0c	 add	 esp, 12			; 0000000cH
$LN26@playerSend:
; File C:\Anka2Project\Anka2Project\Source\Binary\source\UserInterface\PythonPlayerModule.cpp

; 2416 : 	rns.SendDragonSoulRefinePacket(bSubHeader, RefineItemPoses);

  0013e	8d 45 cc	 lea	 eax, DWORD PTR _RefineItemPoses$[ebp]
  00141	50		 push	 eax
  00142	ff 75 b8	 push	 DWORD PTR _bSubHeader$[ebp]
  00145	e8 00 00 00 00	 call	 ?SendDragonSoulRefinePacket@CPythonNetworkStream@@QAE_NEPAUSItemPos@@@Z ; CPythonNetworkStream::SendDragonSoulRefinePacket

; 2417 : 	
; 2418 : 	return Py_BuildNone();

  0014a	e8 00 00 00 00	 call	 ?Py_BuildNone@@YAPAU_object@@XZ ; Py_BuildNone
  0014f	5f		 pop	 edi
  00150	5b		 pop	 ebx
  00151	5e		 pop	 esi

; 2419 : }

  00152	8b 4d fc	 mov	 ecx, DWORD PTR __$ArrayPad$[ebp]
  00155	33 cd		 xor	 ecx, ebp
  00157	e8 00 00 00 00	 call	 @__security_check_cookie@4
  0015c	8b e5		 mov	 esp, ebp
  0015e	5d		 pop	 ebp
  0015f	c3		 ret	 0
$LN29@playerSend:

; 2403 : 					return Py_BuildException();

  00160	6a 00		 push	 0
  00162	e8 00 00 00 00	 call	 ?Py_BuildException@@YAPAU_object@@PBDZZ ; Py_BuildException

; 2419 : }

  00167	8b 4d fc	 mov	 ecx, DWORD PTR __$ArrayPad$[ebp]
  0016a	83 c4 04	 add	 esp, 4
  0016d	33 cd		 xor	 ecx, ebp
  0016f	5f		 pop	 edi
  00170	5b		 pop	 ebx
  00171	5e		 pop	 esi
  00172	e8 00 00 00 00	 call	 @__security_check_cookie@4
  00177	8b e5		 mov	 esp, ebp
  00179	5d		 pop	 ebp
  0017a	c3		 ret	 0
?playerSendDragonSoulRefine@@YAPAU_object@@PAU1@0@Z ENDP ; playerSendDragonSoulRefine
_TEXT	ENDS
; Function compile flags: /Ogtp
; File C:\Anka2Project\Anka2Project\Source\Binary\source\UserInterface\PythonPlayerModule.cpp
;	COMDAT ?playerNPOS@@YAPAU_object@@PAU1@0@Z
_TEXT	SEGMENT
_poSelf$ = 8						; size = 4
_poArgs$ = 12						; size = 4
?playerNPOS@@YAPAU_object@@PAU1@0@Z PROC		; playerNPOS, COMDAT

; 2429 : 	return Py_BuildValue("(ii)", NPOS.window_type, NPOS.cell);

  00000	0f b7 05 01 00
	00 00		 movzx	 eax, WORD PTR ?NPOS@@3USItemPos@@B+1
  00007	50		 push	 eax
  00008	0f b6 05 00 00
	00 00		 movzx	 eax, BYTE PTR ?NPOS@@3USItemPos@@B
  0000f	50		 push	 eax
  00010	68 00 00 00 00	 push	 OFFSET ??_C@_04INACLLOK@?$CIii?$CJ@
  00015	ff 15 00 00 00
	00		 call	 DWORD PTR __imp__Py_BuildValue
  0001b	83 c4 0c	 add	 esp, 12			; 0000000cH

; 2430 : }

  0001e	c3		 ret	 0
?playerNPOS@@YAPAU_object@@PAU1@0@Z ENDP		; playerNPOS
_TEXT	ENDS
; Function compile flags: /Ogtp
; File C:\Anka2Project\Anka2Project\Source\Binary\source\UserInterface\PythonPlayerModule.cpp
; File C:\Anka2Project\Anka2Project\Source\Binary\source\eterBase\Singleton.h
; File C:\Anka2Project\Anka2Project\Source\Binary\source\UserInterface\PythonPlayerModule.cpp
;	COMDAT ?playerGetMainCharacterPart@@YAPAU_object@@PAU1@0@Z
_TEXT	SEGMENT
_iPartIndex$ = -4					; size = 4
_poSelf$ = 8						; size = 4
_poArgs$ = 12						; size = 4
?playerGetMainCharacterPart@@YAPAU_object@@PAU1@0@Z PROC ; playerGetMainCharacterPart, COMDAT

; 2433 : {

  00000	55		 push	 ebp
  00001	8b ec		 mov	 ebp, esp
  00003	51		 push	 ecx

; 2434 : 	int iPartIndex;
; 2435 : 	if (!PyTuple_GetInteger(poArgs, 0, &iPartIndex))

  00004	8d 45 fc	 lea	 eax, DWORD PTR _iPartIndex$[ebp]
  00007	50		 push	 eax
  00008	6a 00		 push	 0
  0000a	ff 75 0c	 push	 DWORD PTR _poArgs$[ebp]
  0000d	e8 00 00 00 00	 call	 ?PyTuple_GetInteger@@YA_NPAU_object@@HPAH@Z ; PyTuple_GetInteger
  00012	83 c4 0c	 add	 esp, 12			; 0000000cH
  00015	84 c0		 test	 al, al
  00017	75 09		 jne	 SHORT $LN2@playerGetM

; 2436 : 		return Py_BadArgument();

  00019	e8 00 00 00 00	 call	 ?Py_BadArgument@@YAPAU_object@@XZ ; Py_BadArgument

; 2440 : }

  0001e	8b e5		 mov	 esp, ebp
  00020	5d		 pop	 ebp
  00021	c3		 ret	 0
$LN2@playerGetM:
; File C:\Anka2Project\Anka2Project\Source\Binary\source\eterBase\Singleton.h

; 26   : 		assert(ms_singleton);

  00022	8b 0d 00 00 00
	00		 mov	 ecx, DWORD PTR ?ms_singleton@?$CSingleton@VCPythonCharacterManager@@@@0PAVCPythonCharacterManager@@A ; CSingleton<CPythonCharacterManager>::ms_singleton
  00028	85 c9		 test	 ecx, ecx
  0002a	75 1a		 jne	 SHORT $LN8@playerGetM
  0002c	6a 1a		 push	 26			; 0000001aH
  0002e	68 00 00 00 00	 push	 OFFSET ??_C@_1IO@CAJLEEOI@?$AAC?$AA?3?$AA?2?$AAA?$AAn?$AAk?$AAa?$AA2?$AAP?$AAr?$AAo?$AAj?$AAe?$AAc?$AAt@
  00033	68 00 00 00 00	 push	 OFFSET ??_C@_1BK@FMEHPMFE@?$AAm?$AAs?$AA_?$AAs?$AAi?$AAn?$AAg?$AAl?$AAe?$AAt?$AAo?$AAn@
  00038	e8 00 00 00 00	 call	 __wassert
  0003d	8b 0d 00 00 00
	00		 mov	 ecx, DWORD PTR ?ms_singleton@?$CSingleton@VCPythonCharacterManager@@@@0PAVCPythonCharacterManager@@A ; CSingleton<CPythonCharacterManager>::ms_singleton
  00043	83 c4 0c	 add	 esp, 12			; 0000000cH
$LN8@playerGetM:
; File C:\Anka2Project\Anka2Project\Source\Binary\source\UserInterface\PythonPlayerModule.cpp

; 2438 : 	CInstanceBase* pMainInstance = CPythonCharacterManager::Instance().GetMainInstancePtr();

  00046	e8 00 00 00 00	 call	 ?GetMainInstancePtr@CPythonCharacterManager@@QAEPAVCInstanceBase@@XZ ; CPythonCharacterManager::GetMainInstancePtr

; 2439 : 	return Py_BuildValue("i", pMainInstance ? pMainInstance->GetPartData(iPartIndex) : 0);

  0004b	85 c0		 test	 eax, eax
  0004d	74 1d		 je	 SHORT $LN4@playerGetM
  0004f	ff 75 fc	 push	 DWORD PTR _iPartIndex$[ebp]
  00052	8b c8		 mov	 ecx, eax
  00054	e8 00 00 00 00	 call	 ?GetPartData@CInstanceBase@@QAEKE@Z ; CInstanceBase::GetPartData
  00059	50		 push	 eax
  0005a	68 00 00 00 00	 push	 OFFSET ??_C@_01KBJDNOO@i@
  0005f	ff 15 00 00 00
	00		 call	 DWORD PTR __imp__Py_BuildValue
  00065	83 c4 08	 add	 esp, 8

; 2440 : }

  00068	8b e5		 mov	 esp, ebp
  0006a	5d		 pop	 ebp
  0006b	c3		 ret	 0
$LN4@playerGetM:

; 2439 : 	return Py_BuildValue("i", pMainInstance ? pMainInstance->GetPartData(iPartIndex) : 0);

  0006c	33 c0		 xor	 eax, eax
  0006e	50		 push	 eax
  0006f	68 00 00 00 00	 push	 OFFSET ??_C@_01KBJDNOO@i@
  00074	ff 15 00 00 00
	00		 call	 DWORD PTR __imp__Py_BuildValue
  0007a	83 c4 08	 add	 esp, 8

; 2440 : }

  0007d	8b e5		 mov	 esp, ebp
  0007f	5d		 pop	 ebp
  00080	c3		 ret	 0
?playerGetMainCharacterPart@@YAPAU_object@@PAU1@0@Z ENDP ; playerGetMainCharacterPart
_TEXT	ENDS
; Function compile flags: /Ogtp
; File C:\Anka2Project\Anka2Project\Source\Binary\source\UserInterface\PythonPlayerModule.cpp
; File C:\Anka2Project\Anka2Project\Source\Binary\source\eterBase\Singleton.h
; File C:\Anka2Project\Anka2Project\Source\Binary\source\UserInterface\PythonPlayerModule.cpp
;	COMDAT ?playerGetItemSlotIndex@@YAPAU_object@@PAU1@0@Z
_TEXT	SEGMENT
_iVnum$ = -4						; size = 4
_poSelf$ = 8						; size = 4
_poArgs$ = 12						; size = 4
?playerGetItemSlotIndex@@YAPAU_object@@PAU1@0@Z PROC	; playerGetItemSlotIndex, COMDAT

; 2443 : {

  00000	55		 push	 ebp
  00001	8b ec		 mov	 ebp, esp
  00003	51		 push	 ecx

; 2444 : 	int iVnum;
; 2445 : 	if (!PyTuple_GetInteger(poArgs, 0, &iVnum))

  00004	8d 45 fc	 lea	 eax, DWORD PTR _iVnum$[ebp]
  00007	50		 push	 eax
  00008	6a 00		 push	 0
  0000a	ff 75 0c	 push	 DWORD PTR _poArgs$[ebp]
  0000d	e8 00 00 00 00	 call	 ?PyTuple_GetInteger@@YA_NPAU_object@@HPAH@Z ; PyTuple_GetInteger
  00012	83 c4 0c	 add	 esp, 12			; 0000000cH
  00015	84 c0		 test	 al, al
  00017	75 0e		 jne	 SHORT $LN2@playerGetI

; 2446 : 		return Py_BuildException();

  00019	6a 00		 push	 0
  0001b	e8 00 00 00 00	 call	 ?Py_BuildException@@YAPAU_object@@PBDZZ ; Py_BuildException
  00020	83 c4 04	 add	 esp, 4

; 2450 : }

  00023	8b e5		 mov	 esp, ebp
  00025	5d		 pop	 ebp
  00026	c3		 ret	 0
$LN2@playerGetI:
; File C:\Anka2Project\Anka2Project\Source\Binary\source\eterBase\Singleton.h

; 26   : 		assert(ms_singleton);

  00027	8b 0d 00 00 00
	00		 mov	 ecx, DWORD PTR ?ms_singleton@?$CSingleton@VCPythonPlayer@@@@0PAVCPythonPlayer@@A ; CSingleton<CPythonPlayer>::ms_singleton
  0002d	85 c9		 test	 ecx, ecx
  0002f	75 1a		 jne	 SHORT $LN6@playerGetI
  00031	6a 1a		 push	 26			; 0000001aH
  00033	68 00 00 00 00	 push	 OFFSET ??_C@_1IO@CAJLEEOI@?$AAC?$AA?3?$AA?2?$AAA?$AAn?$AAk?$AAa?$AA2?$AAP?$AAr?$AAo?$AAj?$AAe?$AAc?$AAt@
  00038	68 00 00 00 00	 push	 OFFSET ??_C@_1BK@FMEHPMFE@?$AAm?$AAs?$AA_?$AAs?$AAi?$AAn?$AAg?$AAl?$AAe?$AAt?$AAo?$AAn@
  0003d	e8 00 00 00 00	 call	 __wassert
  00042	8b 0d 00 00 00
	00		 mov	 ecx, DWORD PTR ?ms_singleton@?$CSingleton@VCPythonPlayer@@@@0PAVCPythonPlayer@@A ; CSingleton<CPythonPlayer>::ms_singleton
  00048	83 c4 0c	 add	 esp, 12			; 0000000cH
$LN6@playerGetI:
; File C:\Anka2Project\Anka2Project\Source\Binary\source\UserInterface\PythonPlayerModule.cpp

; 2448 : 	int slotIndex = CPythonPlayer::Instance().GetItemSlotIndex(iVnum);

  0004b	ff 75 fc	 push	 DWORD PTR _iVnum$[ebp]
  0004e	e8 00 00 00 00	 call	 ?GetItemSlotIndex@CPythonPlayer@@QAEHK@Z ; CPythonPlayer::GetItemSlotIndex

; 2449 : 	return Py_BuildValue("i", slotIndex);

  00053	50		 push	 eax
  00054	68 00 00 00 00	 push	 OFFSET ??_C@_01KBJDNOO@i@
  00059	ff 15 00 00 00
	00		 call	 DWORD PTR __imp__Py_BuildValue
  0005f	83 c4 08	 add	 esp, 8

; 2450 : }

  00062	8b e5		 mov	 esp, ebp
  00064	5d		 pop	 ebp
  00065	c3		 ret	 0
?playerGetItemSlotIndex@@YAPAU_object@@PAU1@0@Z ENDP	; playerGetItemSlotIndex
_TEXT	ENDS
; Function compile flags: /Ogtp
; File C:\Anka2Project\Anka2Project\Source\Binary\source\UserInterface\PythonPlayerModule.cpp
; File C:\Anka2Project\Anka2Project\Source\Binary\source\eterBase\Singleton.h
; File C:\Anka2Project\Anka2Project\Source\Binary\source\UserInterface\PythonPlayerModule.cpp
;	COMDAT ?playerCanInteract@@YAPAU_object@@PAU1@0@Z
_TEXT	SEGMENT
_poSelf$ = 8						; size = 4
_poArgs$ = 12						; size = 4
?playerCanInteract@@YAPAU_object@@PAU1@0@Z PROC		; playerCanInteract, COMDAT
; File C:\Anka2Project\Anka2Project\Source\Binary\source\eterBase\Singleton.h

; 26   : 		assert(ms_singleton);

  00000	8b 0d 00 00 00
	00		 mov	 ecx, DWORD PTR ?ms_singleton@?$CSingleton@VCPythonPlayer@@@@0PAVCPythonPlayer@@A ; CSingleton<CPythonPlayer>::ms_singleton
  00006	85 c9		 test	 ecx, ecx
  00008	75 1a		 jne	 SHORT $LN5@playerCanI
  0000a	6a 1a		 push	 26			; 0000001aH
  0000c	68 00 00 00 00	 push	 OFFSET ??_C@_1IO@CAJLEEOI@?$AAC?$AA?3?$AA?2?$AAA?$AAn?$AAk?$AAa?$AA2?$AAP?$AAr?$AAo?$AAj?$AAe?$AAc?$AAt@
  00011	68 00 00 00 00	 push	 OFFSET ??_C@_1BK@FMEHPMFE@?$AAm?$AAs?$AA_?$AAs?$AAi?$AAn?$AAg?$AAl?$AAe?$AAt?$AAo?$AAn@
  00016	e8 00 00 00 00	 call	 __wassert
  0001b	8b 0d 00 00 00
	00		 mov	 ecx, DWORD PTR ?ms_singleton@?$CSingleton@VCPythonPlayer@@@@0PAVCPythonPlayer@@A ; CSingleton<CPythonPlayer>::ms_singleton
  00021	83 c4 0c	 add	 esp, 12			; 0000000cH
$LN5@playerCanI:
; File C:\Anka2Project\Anka2Project\Source\Binary\source\UserInterface\PythonPlayerModule.cpp

; 2455 : 	CInstanceBase* pMainInstance = CPythonPlayer::Instance().NEW_GetMainActorPtr();

  00024	8b 41 04	 mov	 eax, DWORD PTR [ecx+4]
  00027	83 c1 04	 add	 ecx, 4
  0002a	ff 90 8c 00 00
	00		 call	 DWORD PTR [eax+140]

; 2456 : 	return Py_BuildValue("i", (int)pMainInstance->CanInteract());

  00030	8b c8		 mov	 ecx, eax
  00032	e8 00 00 00 00	 call	 ?CanInteract@CInstanceBase@@QAE_NXZ ; CInstanceBase::CanInteract
  00037	0f b6 c0	 movzx	 eax, al
  0003a	50		 push	 eax
  0003b	68 00 00 00 00	 push	 OFFSET ??_C@_01KBJDNOO@i@
  00040	ff 15 00 00 00
	00		 call	 DWORD PTR __imp__Py_BuildValue
  00046	83 c4 08	 add	 esp, 8

; 2457 : }

  00049	c3		 ret	 0
?playerCanInteract@@YAPAU_object@@PAU1@0@Z ENDP		; playerCanInteract
_TEXT	ENDS
; Function compile flags: /Ogtp
; File C:\Anka2Project\Anka2Project\Source\Binary\source\UserInterface\PythonPlayerModule.cpp
; File C:\Anka2Project\Anka2Project\Source\Binary\source\eterBase\Singleton.h
; File C:\Anka2Project\Anka2Project\Source\Binary\source\UserInterface\PythonPlayerModule.cpp
;	COMDAT ?playerGetPremiumBattlePassID@@YAPAU_object@@PAU1@0@Z
_TEXT	SEGMENT
_poSelf$ = 8						; size = 4
_poArgs$ = 12						; size = 4
?playerGetPremiumBattlePassID@@YAPAU_object@@PAU1@0@Z PROC ; playerGetPremiumBattlePassID, COMDAT

; 2462 : {

  00000	55		 push	 ebp
  00001	8b ec		 mov	 ebp, esp
  00003	83 e4 f8	 and	 esp, -8			; fffffff8H
; File C:\Anka2Project\Anka2Project\Source\Binary\source\eterBase\Singleton.h

; 26   : 		assert(ms_singleton);

  00006	8b 0d 00 00 00
	00		 mov	 ecx, DWORD PTR ?ms_singleton@?$CSingleton@VCPythonPlayer@@@@0PAVCPythonPlayer@@A ; CSingleton<CPythonPlayer>::ms_singleton
  0000c	85 c9		 test	 ecx, ecx
  0000e	75 1a		 jne	 SHORT $LN5@playerGetP
  00010	6a 1a		 push	 26			; 0000001aH
  00012	68 00 00 00 00	 push	 OFFSET ??_C@_1IO@CAJLEEOI@?$AAC?$AA?3?$AA?2?$AAA?$AAn?$AAk?$AAa?$AA2?$AAP?$AAr?$AAo?$AAj?$AAe?$AAc?$AAt@
  00017	68 00 00 00 00	 push	 OFFSET ??_C@_1BK@FMEHPMFE@?$AAm?$AAs?$AA_?$AAs?$AAi?$AAn?$AAg?$AAl?$AAe?$AAt?$AAo?$AAn@
  0001c	e8 00 00 00 00	 call	 __wassert
  00021	8b 0d 00 00 00
	00		 mov	 ecx, DWORD PTR ?ms_singleton@?$CSingleton@VCPythonPlayer@@@@0PAVCPythonPlayer@@A ; CSingleton<CPythonPlayer>::ms_singleton
  00027	83 c4 0c	 add	 esp, 12			; 0000000cH
$LN5@playerGetP:
; File C:\Anka2Project\Anka2Project\Source\Binary\source\UserInterface\PythonPlayerModule.cpp

; 2463 : 	return Py_BuildValue("b", CPythonPlayer::Instance().GetStatus(POINT_BATTLE_PASS_PREMIUM_ID));

  0002a	8b 41 04	 mov	 eax, DWORD PTR [ecx+4]
  0002d	83 c1 04	 add	 ecx, 4
  00030	68 a5 00 00 00	 push	 165			; 000000a5H
  00035	8b 40 10	 mov	 eax, DWORD PTR [eax+16]
  00038	ff d0		 call	 eax
  0003a	52		 push	 edx
  0003b	50		 push	 eax
  0003c	68 00 00 00 00	 push	 OFFSET ??_C@_01OJONOECF@b@
  00041	ff 15 00 00 00
	00		 call	 DWORD PTR __imp__Py_BuildValue
  00047	83 c4 0c	 add	 esp, 12			; 0000000cH

; 2464 : }

  0004a	8b e5		 mov	 esp, ebp
  0004c	5d		 pop	 ebp
  0004d	c3		 ret	 0
?playerGetPremiumBattlePassID@@YAPAU_object@@PAU1@0@Z ENDP ; playerGetPremiumBattlePassID
_TEXT	ENDS
; Function compile flags: /Ogtp
; File C:\Anka2Project\Anka2Project\Source\Binary\source\UserInterface\PythonPlayerModule.cpp
; File C:\Anka2Project\Anka2Project\Source\Binary\source\eterBase\Singleton.h
; File C:\Anka2Project\Anka2Project\Source\Binary\source\UserInterface\PythonPlayerModule.cpp
;	COMDAT ?playerGetSkillColor@@YAPAU_object@@PAU1@0@Z
_TEXT	SEGMENT
_iSkillSlot$ = -4					; size = 4
_poSelf$ = 8						; size = 4
_poArgs$ = 12						; size = 4
?playerGetSkillColor@@YAPAU_object@@PAU1@0@Z PROC	; playerGetSkillColor, COMDAT

; 2504 : {

  00000	55		 push	 ebp
  00001	8b ec		 mov	 ebp, esp
  00003	51		 push	 ecx

; 2505 : 	int iSkillSlot;
; 2506 : 	if (!PyTuple_GetInteger(poArgs, 0, &iSkillSlot))

  00004	8d 45 fc	 lea	 eax, DWORD PTR _iSkillSlot$[ebp]
  00007	50		 push	 eax
  00008	6a 00		 push	 0
  0000a	ff 75 0c	 push	 DWORD PTR _poArgs$[ebp]
  0000d	e8 00 00 00 00	 call	 ?PyTuple_GetInteger@@YA_NPAU_object@@HPAH@Z ; PyTuple_GetInteger
  00012	83 c4 0c	 add	 esp, 12			; 0000000cH
  00015	84 c0		 test	 al, al
  00017	74 7e		 je	 SHORT $LN4@playerGetS

; 2507 : 		return Py_BadArgument();
; 2508 : 
; 2509 : 	if (iSkillSlot >= 255 || iSkillSlot < 0)

  00019	81 7d fc fe 00
	00 00		 cmp	 DWORD PTR _iSkillSlot$[ebp], 254 ; 000000feH
  00020	77 75		 ja	 SHORT $LN4@playerGetS
; File C:\Anka2Project\Anka2Project\Source\Binary\source\eterBase\Singleton.h

; 26   : 		assert(ms_singleton);

  00022	8b 0d 00 00 00
	00		 mov	 ecx, DWORD PTR ?ms_singleton@?$CSingleton@VCPythonPlayer@@@@0PAVCPythonPlayer@@A ; CSingleton<CPythonPlayer>::ms_singleton
  00028	85 c9		 test	 ecx, ecx
  0002a	75 1a		 jne	 SHORT $LN9@playerGetS
  0002c	6a 1a		 push	 26			; 0000001aH
  0002e	68 00 00 00 00	 push	 OFFSET ??_C@_1IO@CAJLEEOI@?$AAC?$AA?3?$AA?2?$AAA?$AAn?$AAk?$AAa?$AA2?$AAP?$AAr?$AAo?$AAj?$AAe?$AAc?$AAt@
  00033	68 00 00 00 00	 push	 OFFSET ??_C@_1BK@FMEHPMFE@?$AAm?$AAs?$AA_?$AAs?$AAi?$AAn?$AAg?$AAl?$AAe?$AAt?$AAo?$AAn@
  00038	e8 00 00 00 00	 call	 __wassert
  0003d	8b 0d 00 00 00
	00		 mov	 ecx, DWORD PTR ?ms_singleton@?$CSingleton@VCPythonPlayer@@@@0PAVCPythonPlayer@@A ; CSingleton<CPythonPlayer>::ms_singleton
  00043	83 c4 0c	 add	 esp, 12			; 0000000cH
$LN9@playerGetS:
; File C:\Anka2Project\Anka2Project\Source\Binary\source\UserInterface\PythonPlayerModule.cpp

; 2512 : 	CInstanceBase* pMainInstance = CPythonPlayer::Instance().NEW_GetMainActorPtr();

  00046	8b 41 04	 mov	 eax, DWORD PTR [ecx+4]
  00049	83 c1 04	 add	 ecx, 4
  0004c	ff 90 8c 00 00
	00		 call	 DWORD PTR [eax+140]

; 2513 : 	DWORD* dwSkillColor = pMainInstance->GetSkillColor(iSkillSlot);

  00052	ff 75 fc	 push	 DWORD PTR _iSkillSlot$[ebp]
  00055	8b c8		 mov	 ecx, eax
  00057	e8 00 00 00 00	 call	 ?GetSkillColor@CInstanceBase@@QAEPAKK@Z ; CInstanceBase::GetSkillColor

; 2514 : 	if (!dwSkillColor)

  0005c	85 c0		 test	 eax, eax
  0005e	75 17		 jne	 SHORT $LN5@playerGetS

; 2515 : 		return Py_BuildValue("iiiii", 0, 0, 0, 0, 0);

  00060	50		 push	 eax
  00061	50		 push	 eax
  00062	50		 push	 eax
  00063	50		 push	 eax
  00064	50		 push	 eax
  00065	68 00 00 00 00	 push	 OFFSET ??_C@_05EAPDINDK@iiiii@
  0006a	ff 15 00 00 00
	00		 call	 DWORD PTR __imp__Py_BuildValue
  00070	83 c4 18	 add	 esp, 24			; 00000018H

; 2518 : }

  00073	8b e5		 mov	 esp, ebp
  00075	5d		 pop	 ebp
  00076	c3		 ret	 0
$LN5@playerGetS:

; 2516 : 
; 2517 : 	return Py_BuildValue("iiiii", dwSkillColor[0], dwSkillColor[1], dwSkillColor[2], dwSkillColor[3], dwSkillColor[4]);

  00077	ff 70 10	 push	 DWORD PTR [eax+16]
  0007a	ff 70 0c	 push	 DWORD PTR [eax+12]
  0007d	ff 70 08	 push	 DWORD PTR [eax+8]
  00080	ff 70 04	 push	 DWORD PTR [eax+4]
  00083	ff 30		 push	 DWORD PTR [eax]
  00085	68 00 00 00 00	 push	 OFFSET ??_C@_05EAPDINDK@iiiii@
  0008a	ff 15 00 00 00
	00		 call	 DWORD PTR __imp__Py_BuildValue
  00090	83 c4 18	 add	 esp, 24			; 00000018H

; 2518 : }

  00093	8b e5		 mov	 esp, ebp
  00095	5d		 pop	 ebp
  00096	c3		 ret	 0
$LN4@playerGetS:
  00097	e8 00 00 00 00	 call	 ?Py_BadArgument@@YAPAU_object@@XZ ; Py_BadArgument
  0009c	8b e5		 mov	 esp, ebp
  0009e	5d		 pop	 ebp
  0009f	c3		 ret	 0
?playerGetSkillColor@@YAPAU_object@@PAU1@0@Z ENDP	; playerGetSkillColor
_TEXT	ENDS
; Function compile flags: /Ogtp
; File C:\Anka2Project\Anka2Project\Source\Binary\source\UserInterface\PythonPlayerModule.cpp
; File C:\Anka2Project\Anka2Project\Source\Binary\source\eterBase\Singleton.h
; File C:\Anka2Project\Anka2Project\Source\Binary\source\UserInterface\PythonPlayerModule.cpp
;	COMDAT ?playerGetAuraItemID@@YAPAU_object@@PAU1@0@Z
_TEXT	SEGMENT
_pAuraItemInstance$ = -8				; size = 4
_iSlotPos$ = -4						; size = 4
_poSelf$ = 8						; size = 4
_poArgs$ = 12						; size = 4
?playerGetAuraItemID@@YAPAU_object@@PAU1@0@Z PROC	; playerGetAuraItemID, COMDAT

; 2523 : {

  00000	55		 push	 ebp
  00001	8b ec		 mov	 ebp, esp
  00003	83 ec 08	 sub	 esp, 8

; 2524 : 	int iSlotPos;
; 2525 : 	if (!PyTuple_GetInteger(poArgs, 0, &iSlotPos))

  00006	8d 45 fc	 lea	 eax, DWORD PTR _iSlotPos$[ebp]
  00009	50		 push	 eax
  0000a	6a 00		 push	 0
  0000c	ff 75 0c	 push	 DWORD PTR _poArgs$[ebp]
  0000f	e8 00 00 00 00	 call	 ?PyTuple_GetInteger@@YA_NPAU_object@@HPAH@Z ; PyTuple_GetInteger
  00014	83 c4 0c	 add	 esp, 12			; 0000000cH
  00017	84 c0		 test	 al, al
  00019	75 09		 jne	 SHORT $LN2@playerGetA

; 2526 : 		return Py_BadArgument();

  0001b	e8 00 00 00 00	 call	 ?Py_BadArgument@@YAPAU_object@@XZ ; Py_BadArgument

; 2533 : }

  00020	8b e5		 mov	 esp, ebp
  00022	5d		 pop	 ebp
  00023	c3		 ret	 0
$LN2@playerGetA:
; File C:\Anka2Project\Anka2Project\Source\Binary\source\eterBase\Singleton.h

; 26   : 		assert(ms_singleton);

  00024	8b 0d 00 00 00
	00		 mov	 ecx, DWORD PTR ?ms_singleton@?$CSingleton@VCPythonPlayer@@@@0PAVCPythonPlayer@@A ; CSingleton<CPythonPlayer>::ms_singleton
  0002a	85 c9		 test	 ecx, ecx
  0002c	75 1a		 jne	 SHORT $LN7@playerGetA
  0002e	6a 1a		 push	 26			; 0000001aH
  00030	68 00 00 00 00	 push	 OFFSET ??_C@_1IO@CAJLEEOI@?$AAC?$AA?3?$AA?2?$AAA?$AAn?$AAk?$AAa?$AA2?$AAP?$AAr?$AAo?$AAj?$AAe?$AAc?$AAt@
  00035	68 00 00 00 00	 push	 OFFSET ??_C@_1BK@FMEHPMFE@?$AAm?$AAs?$AA_?$AAs?$AAi?$AAn?$AAg?$AAl?$AAe?$AAt?$AAo?$AAn@
  0003a	e8 00 00 00 00	 call	 __wassert
  0003f	8b 0d 00 00 00
	00		 mov	 ecx, DWORD PTR ?ms_singleton@?$CSingleton@VCPythonPlayer@@@@0PAVCPythonPlayer@@A ; CSingleton<CPythonPlayer>::ms_singleton
  00045	83 c4 0c	 add	 esp, 12			; 0000000cH
$LN7@playerGetA:
; File C:\Anka2Project\Anka2Project\Source\Binary\source\UserInterface\PythonPlayerModule.cpp

; 2529 : 	if (!CPythonPlayer::Instance().GetAuraItemDataPtr(iSlotPos, &pAuraItemInstance))

  00048	8d 45 f8	 lea	 eax, DWORD PTR _pAuraItemInstance$[ebp]
  0004b	50		 push	 eax
  0004c	ff 75 fc	 push	 DWORD PTR _iSlotPos$[ebp]
  0004f	e8 00 00 00 00	 call	 ?GetAuraItemDataPtr@CPythonPlayer@@QAEHEPAPAUpacket_item@@@Z ; CPythonPlayer::GetAuraItemDataPtr
  00054	85 c0		 test	 eax, eax
  00056	75 0d		 jne	 SHORT $LN3@playerGetA

; 2530 : 		return Py_BuildException();

  00058	50		 push	 eax
  00059	e8 00 00 00 00	 call	 ?Py_BuildException@@YAPAU_object@@PBDZZ ; Py_BuildException
  0005e	83 c4 04	 add	 esp, 4

; 2533 : }

  00061	8b e5		 mov	 esp, ebp
  00063	5d		 pop	 ebp
  00064	c3		 ret	 0
$LN3@playerGetA:

; 2531 : 
; 2532 : 	return Py_BuildValue("i", pAuraItemInstance->vnum);

  00065	8b 45 f8	 mov	 eax, DWORD PTR _pAuraItemInstance$[ebp]
  00068	ff 30		 push	 DWORD PTR [eax]
  0006a	68 00 00 00 00	 push	 OFFSET ??_C@_01KBJDNOO@i@
  0006f	ff 15 00 00 00
	00		 call	 DWORD PTR __imp__Py_BuildValue
  00075	83 c4 08	 add	 esp, 8

; 2533 : }

  00078	8b e5		 mov	 esp, ebp
  0007a	5d		 pop	 ebp
  0007b	c3		 ret	 0
?playerGetAuraItemID@@YAPAU_object@@PAU1@0@Z ENDP	; playerGetAuraItemID
_TEXT	ENDS
; Function compile flags: /Ogtp
; File C:\Anka2Project\Anka2Project\Source\Binary\source\UserInterface\PythonPlayerModule.cpp
; File C:\Anka2Project\Anka2Project\Source\Binary\source\eterBase\Singleton.h
; File C:\Anka2Project\Anka2Project\Source\Binary\source\UserInterface\PythonPlayerModule.cpp
;	COMDAT ?playerGetAuraItemCount@@YAPAU_object@@PAU1@0@Z
_TEXT	SEGMENT
_pAuraItemInstance$ = -8				; size = 4
_iSlotPos$ = -4						; size = 4
_poSelf$ = 8						; size = 4
_poArgs$ = 12						; size = 4
?playerGetAuraItemCount@@YAPAU_object@@PAU1@0@Z PROC	; playerGetAuraItemCount, COMDAT

; 2536 : {

  00000	55		 push	 ebp
  00001	8b ec		 mov	 ebp, esp
  00003	83 ec 08	 sub	 esp, 8

; 2537 : 	int iSlotPos;
; 2538 : 	if (!PyTuple_GetInteger(poArgs, 0, &iSlotPos))

  00006	8d 45 fc	 lea	 eax, DWORD PTR _iSlotPos$[ebp]
  00009	50		 push	 eax
  0000a	6a 00		 push	 0
  0000c	ff 75 0c	 push	 DWORD PTR _poArgs$[ebp]
  0000f	e8 00 00 00 00	 call	 ?PyTuple_GetInteger@@YA_NPAU_object@@HPAH@Z ; PyTuple_GetInteger
  00014	83 c4 0c	 add	 esp, 12			; 0000000cH
  00017	84 c0		 test	 al, al
  00019	75 09		 jne	 SHORT $LN2@playerGetA

; 2539 : 		return Py_BadArgument();

  0001b	e8 00 00 00 00	 call	 ?Py_BadArgument@@YAPAU_object@@XZ ; Py_BadArgument

; 2546 : }

  00020	8b e5		 mov	 esp, ebp
  00022	5d		 pop	 ebp
  00023	c3		 ret	 0
$LN2@playerGetA:
; File C:\Anka2Project\Anka2Project\Source\Binary\source\eterBase\Singleton.h

; 26   : 		assert(ms_singleton);

  00024	8b 0d 00 00 00
	00		 mov	 ecx, DWORD PTR ?ms_singleton@?$CSingleton@VCPythonPlayer@@@@0PAVCPythonPlayer@@A ; CSingleton<CPythonPlayer>::ms_singleton
  0002a	85 c9		 test	 ecx, ecx
  0002c	75 1a		 jne	 SHORT $LN7@playerGetA
  0002e	6a 1a		 push	 26			; 0000001aH
  00030	68 00 00 00 00	 push	 OFFSET ??_C@_1IO@CAJLEEOI@?$AAC?$AA?3?$AA?2?$AAA?$AAn?$AAk?$AAa?$AA2?$AAP?$AAr?$AAo?$AAj?$AAe?$AAc?$AAt@
  00035	68 00 00 00 00	 push	 OFFSET ??_C@_1BK@FMEHPMFE@?$AAm?$AAs?$AA_?$AAs?$AAi?$AAn?$AAg?$AAl?$AAe?$AAt?$AAo?$AAn@
  0003a	e8 00 00 00 00	 call	 __wassert
  0003f	8b 0d 00 00 00
	00		 mov	 ecx, DWORD PTR ?ms_singleton@?$CSingleton@VCPythonPlayer@@@@0PAVCPythonPlayer@@A ; CSingleton<CPythonPlayer>::ms_singleton
  00045	83 c4 0c	 add	 esp, 12			; 0000000cH
$LN7@playerGetA:
; File C:\Anka2Project\Anka2Project\Source\Binary\source\UserInterface\PythonPlayerModule.cpp

; 2542 : 	if (!CPythonPlayer::Instance().GetAuraItemDataPtr(iSlotPos, &pAuraItemInstance))

  00048	8d 45 f8	 lea	 eax, DWORD PTR _pAuraItemInstance$[ebp]
  0004b	50		 push	 eax
  0004c	ff 75 fc	 push	 DWORD PTR _iSlotPos$[ebp]
  0004f	e8 00 00 00 00	 call	 ?GetAuraItemDataPtr@CPythonPlayer@@QAEHEPAPAUpacket_item@@@Z ; CPythonPlayer::GetAuraItemDataPtr
  00054	85 c0		 test	 eax, eax
  00056	75 0d		 jne	 SHORT $LN3@playerGetA

; 2543 : 		return Py_BuildException();

  00058	50		 push	 eax
  00059	e8 00 00 00 00	 call	 ?Py_BuildException@@YAPAU_object@@PBDZZ ; Py_BuildException
  0005e	83 c4 04	 add	 esp, 4

; 2546 : }

  00061	8b e5		 mov	 esp, ebp
  00063	5d		 pop	 ebp
  00064	c3		 ret	 0
$LN3@playerGetA:

; 2544 : 
; 2545 : 	return Py_BuildValue("i", pAuraItemInstance->count);

  00065	8b 45 f8	 mov	 eax, DWORD PTR _pAuraItemInstance$[ebp]
  00068	0f b7 40 04	 movzx	 eax, WORD PTR [eax+4]
  0006c	50		 push	 eax
  0006d	68 00 00 00 00	 push	 OFFSET ??_C@_01KBJDNOO@i@
  00072	ff 15 00 00 00
	00		 call	 DWORD PTR __imp__Py_BuildValue
  00078	83 c4 08	 add	 esp, 8

; 2546 : }

  0007b	8b e5		 mov	 esp, ebp
  0007d	5d		 pop	 ebp
  0007e	c3		 ret	 0
?playerGetAuraItemCount@@YAPAU_object@@PAU1@0@Z ENDP	; playerGetAuraItemCount
_TEXT	ENDS
; Function compile flags: /Ogtp
; File C:\Anka2Project\Anka2Project\Source\Binary\source\UserInterface\PythonPlayerModule.cpp
; File C:\Anka2Project\Anka2Project\Source\Binary\source\eterBase\Singleton.h
; File C:\Anka2Project\Anka2Project\Source\Binary\source\UserInterface\PythonPlayerModule.cpp
;	COMDAT ?playerGetAuraItemMetinSocket@@YAPAU_object@@PAU1@0@Z
_TEXT	SEGMENT
_pAuraItemInstance$ = -12				; size = 4
_iMetinSocketIndex$ = -8				; size = 4
_iSlotPos$ = -4						; size = 4
_poSelf$ = 8						; size = 4
_poArgs$ = 12						; size = 4
?playerGetAuraItemMetinSocket@@YAPAU_object@@PAU1@0@Z PROC ; playerGetAuraItemMetinSocket, COMDAT

; 2549 : {

  00000	55		 push	 ebp
  00001	8b ec		 mov	 ebp, esp
  00003	83 ec 0c	 sub	 esp, 12			; 0000000cH

; 2550 : 	int iSlotPos;
; 2551 : 	if (!PyTuple_GetInteger(poArgs, 0, &iSlotPos))

  00006	8d 45 fc	 lea	 eax, DWORD PTR _iSlotPos$[ebp]
  00009	50		 push	 eax
  0000a	6a 00		 push	 0
  0000c	ff 75 0c	 push	 DWORD PTR _poArgs$[ebp]
  0000f	e8 00 00 00 00	 call	 ?PyTuple_GetInteger@@YA_NPAU_object@@HPAH@Z ; PyTuple_GetInteger
  00014	83 c4 0c	 add	 esp, 12			; 0000000cH
  00017	84 c0		 test	 al, al
  00019	75 09		 jne	 SHORT $LN2@playerGetA
$LN11@playerGetA:

; 2566 : }

  0001b	e8 00 00 00 00	 call	 ?Py_BadArgument@@YAPAU_object@@XZ ; Py_BadArgument
  00020	8b e5		 mov	 esp, ebp
  00022	5d		 pop	 ebp
  00023	c3		 ret	 0
$LN2@playerGetA:

; 2552 : 		return Py_BadArgument();
; 2553 : 
; 2554 : 	int iMetinSocketIndex;
; 2555 : 	if (!PyTuple_GetInteger(poArgs, 1, &iMetinSocketIndex))

  00024	8d 45 f8	 lea	 eax, DWORD PTR _iMetinSocketIndex$[ebp]
  00027	50		 push	 eax
  00028	6a 01		 push	 1
  0002a	ff 75 0c	 push	 DWORD PTR _poArgs$[ebp]
  0002d	e8 00 00 00 00	 call	 ?PyTuple_GetInteger@@YA_NPAU_object@@HPAH@Z ; PyTuple_GetInteger
  00032	83 c4 0c	 add	 esp, 12			; 0000000cH
  00035	84 c0		 test	 al, al
  00037	74 e2		 je	 SHORT $LN11@playerGetA
; File C:\Anka2Project\Anka2Project\Source\Binary\source\eterBase\Singleton.h

; 26   : 		assert(ms_singleton);

  00039	8b 0d 00 00 00
	00		 mov	 ecx, DWORD PTR ?ms_singleton@?$CSingleton@VCPythonPlayer@@@@0PAVCPythonPlayer@@A ; CSingleton<CPythonPlayer>::ms_singleton
  0003f	85 c9		 test	 ecx, ecx
  00041	75 1a		 jne	 SHORT $LN10@playerGetA
  00043	6a 1a		 push	 26			; 0000001aH
  00045	68 00 00 00 00	 push	 OFFSET ??_C@_1IO@CAJLEEOI@?$AAC?$AA?3?$AA?2?$AAA?$AAn?$AAk?$AAa?$AA2?$AAP?$AAr?$AAo?$AAj?$AAe?$AAc?$AAt@
  0004a	68 00 00 00 00	 push	 OFFSET ??_C@_1BK@FMEHPMFE@?$AAm?$AAs?$AA_?$AAs?$AAi?$AAn?$AAg?$AAl?$AAe?$AAt?$AAo?$AAn@
  0004f	e8 00 00 00 00	 call	 __wassert
  00054	8b 0d 00 00 00
	00		 mov	 ecx, DWORD PTR ?ms_singleton@?$CSingleton@VCPythonPlayer@@@@0PAVCPythonPlayer@@A ; CSingleton<CPythonPlayer>::ms_singleton
  0005a	83 c4 0c	 add	 esp, 12			; 0000000cH
$LN10@playerGetA:
; File C:\Anka2Project\Anka2Project\Source\Binary\source\UserInterface\PythonPlayerModule.cpp

; 2559 : 	if (!CPythonPlayer::Instance().GetAuraItemDataPtr(iSlotPos, &pAuraItemInstance))

  0005d	8d 45 f4	 lea	 eax, DWORD PTR _pAuraItemInstance$[ebp]
  00060	50		 push	 eax
  00061	ff 75 fc	 push	 DWORD PTR _iSlotPos$[ebp]
  00064	e8 00 00 00 00	 call	 ?GetAuraItemDataPtr@CPythonPlayer@@QAEHEPAPAUpacket_item@@@Z ; CPythonPlayer::GetAuraItemDataPtr
  00069	85 c0		 test	 eax, eax
  0006b	74 21		 je	 SHORT $LN6@playerGetA

; 2560 : 		return Py_BuildException();
; 2561 : 
; 2562 : 	if (iMetinSocketIndex >= ITEM_SOCKET_SLOT_MAX_NUM || iMetinSocketIndex < 0)

  0006d	8b 4d f8	 mov	 ecx, DWORD PTR _iMetinSocketIndex$[ebp]
  00070	83 f9 02	 cmp	 ecx, 2
  00073	77 19		 ja	 SHORT $LN6@playerGetA

; 2563 : 		return Py_BuildException();
; 2564 : 
; 2565 : 	return Py_BuildValue("i", pAuraItemInstance->alSockets[iMetinSocketIndex]);

  00075	8b 45 f4	 mov	 eax, DWORD PTR _pAuraItemInstance$[ebp]
  00078	ff 74 88 0e	 push	 DWORD PTR [eax+ecx*4+14]
  0007c	68 00 00 00 00	 push	 OFFSET ??_C@_01KBJDNOO@i@
  00081	ff 15 00 00 00
	00		 call	 DWORD PTR __imp__Py_BuildValue
  00087	83 c4 08	 add	 esp, 8

; 2566 : }

  0008a	8b e5		 mov	 esp, ebp
  0008c	5d		 pop	 ebp
  0008d	c3		 ret	 0
$LN6@playerGetA:
  0008e	6a 00		 push	 0
  00090	e8 00 00 00 00	 call	 ?Py_BuildException@@YAPAU_object@@PBDZZ ; Py_BuildException
  00095	83 c4 04	 add	 esp, 4
  00098	8b e5		 mov	 esp, ebp
  0009a	5d		 pop	 ebp
  0009b	c3		 ret	 0
?playerGetAuraItemMetinSocket@@YAPAU_object@@PAU1@0@Z ENDP ; playerGetAuraItemMetinSocket
_TEXT	ENDS
; Function compile flags: /Ogtp
; File C:\Anka2Project\Anka2Project\Source\Binary\source\UserInterface\PythonPlayerModule.cpp
; File C:\Anka2Project\Anka2Project\Source\Binary\source\eterBase\Singleton.h
; File C:\Anka2Project\Anka2Project\Source\Binary\source\UserInterface\PythonPlayerModule.cpp
;	COMDAT ?playerGetAuraItemAttribute@@YAPAU_object@@PAU1@0@Z
_TEXT	SEGMENT
_iAttributeSlotIndex$ = -12				; size = 4
_iSlotPos$ = -8						; size = 4
_pAuraItemInstance$ = -4				; size = 4
_kAttr$ = -4						; size = 3
_poSelf$ = 8						; size = 4
_poArgs$ = 12						; size = 4
?playerGetAuraItemAttribute@@YAPAU_object@@PAU1@0@Z PROC ; playerGetAuraItemAttribute, COMDAT

; 2569 : {

  00000	55		 push	 ebp
  00001	8b ec		 mov	 ebp, esp
  00003	83 ec 0c	 sub	 esp, 12			; 0000000cH

; 2570 : 	int iSlotPos;
; 2571 : 	if (!PyTuple_GetInteger(poArgs, 0, &iSlotPos))

  00006	8d 45 f8	 lea	 eax, DWORD PTR _iSlotPos$[ebp]
  00009	50		 push	 eax
  0000a	6a 00		 push	 0
  0000c	ff 75 0c	 push	 DWORD PTR _poArgs$[ebp]
  0000f	e8 00 00 00 00	 call	 ?PyTuple_GetInteger@@YA_NPAU_object@@HPAH@Z ; PyTuple_GetInteger
  00014	83 c4 0c	 add	 esp, 12			; 0000000cH
  00017	84 c0		 test	 al, al
  00019	75 09		 jne	 SHORT $LN2@playerGetA
$LN12@playerGetA:

; 2584 : }

  0001b	e8 00 00 00 00	 call	 ?Py_BadArgument@@YAPAU_object@@XZ ; Py_BadArgument
  00020	8b e5		 mov	 esp, ebp
  00022	5d		 pop	 ebp
  00023	c3		 ret	 0
$LN2@playerGetA:

; 2572 : 		return Py_BadArgument();
; 2573 : 
; 2574 : 	int iAttributeSlotIndex;
; 2575 : 	if (!PyTuple_GetInteger(poArgs, 1, &iAttributeSlotIndex))

  00024	8d 45 f4	 lea	 eax, DWORD PTR _iAttributeSlotIndex$[ebp]
  00027	50		 push	 eax
  00028	6a 01		 push	 1
  0002a	ff 75 0c	 push	 DWORD PTR _poArgs$[ebp]
  0002d	e8 00 00 00 00	 call	 ?PyTuple_GetInteger@@YA_NPAU_object@@HPAH@Z ; PyTuple_GetInteger
  00032	83 c4 0c	 add	 esp, 12			; 0000000cH
  00035	84 c0		 test	 al, al
  00037	74 e2		 je	 SHORT $LN12@playerGetA
; File C:\Anka2Project\Anka2Project\Source\Binary\source\eterBase\Singleton.h

; 26   : 		assert(ms_singleton);

  00039	8b 0d 00 00 00
	00		 mov	 ecx, DWORD PTR ?ms_singleton@?$CSingleton@VCPythonPlayer@@@@0PAVCPythonPlayer@@A ; CSingleton<CPythonPlayer>::ms_singleton
  0003f	85 c9		 test	 ecx, ecx
  00041	75 1a		 jne	 SHORT $LN10@playerGetA
  00043	6a 1a		 push	 26			; 0000001aH
  00045	68 00 00 00 00	 push	 OFFSET ??_C@_1IO@CAJLEEOI@?$AAC?$AA?3?$AA?2?$AAA?$AAn?$AAk?$AAa?$AA2?$AAP?$AAr?$AAo?$AAj?$AAe?$AAc?$AAt@
  0004a	68 00 00 00 00	 push	 OFFSET ??_C@_1BK@FMEHPMFE@?$AAm?$AAs?$AA_?$AAs?$AAi?$AAn?$AAg?$AAl?$AAe?$AAt?$AAo?$AAn@
  0004f	e8 00 00 00 00	 call	 __wassert
  00054	8b 0d 00 00 00
	00		 mov	 ecx, DWORD PTR ?ms_singleton@?$CSingleton@VCPythonPlayer@@@@0PAVCPythonPlayer@@A ; CSingleton<CPythonPlayer>::ms_singleton
  0005a	83 c4 0c	 add	 esp, 12			; 0000000cH
$LN10@playerGetA:
; File C:\Anka2Project\Anka2Project\Source\Binary\source\UserInterface\PythonPlayerModule.cpp

; 2579 : 	if (!CPythonPlayer::Instance().GetAuraItemDataPtr(iSlotPos, &pAuraItemInstance) || (iAttributeSlotIndex >= ITEM_ATTRIBUTE_SLOT_MAX_NUM || iAttributeSlotIndex < 0))

  0005d	8d 45 fc	 lea	 eax, DWORD PTR _pAuraItemInstance$[ebp]
  00060	50		 push	 eax
  00061	ff 75 f8	 push	 DWORD PTR _iSlotPos$[ebp]
  00064	e8 00 00 00 00	 call	 ?GetAuraItemDataPtr@CPythonPlayer@@QAEHEPAPAUpacket_item@@@Z ; CPythonPlayer::GetAuraItemDataPtr
  00069	85 c0		 test	 eax, eax
  0006b	74 3a		 je	 SHORT $LN6@playerGetA
  0006d	8b 4d f4	 mov	 ecx, DWORD PTR _iAttributeSlotIndex$[ebp]
  00070	83 f9 06	 cmp	 ecx, 6
  00073	77 32		 ja	 SHORT $LN6@playerGetA

; 2581 : 
; 2582 : 	TPlayerItemAttribute kAttr = pAuraItemInstance->aAttr[iAttributeSlotIndex];

  00075	8b 45 fc	 mov	 eax, DWORD PTR _pAuraItemInstance$[ebp]
  00078	8d 04 48	 lea	 eax, DWORD PTR [eax+ecx*2]
  0007b	03 c8		 add	 ecx, eax
  0007d	66 8b 41 1a	 mov	 ax, WORD PTR [ecx+26]
  00081	66 89 45 fc	 mov	 WORD PTR _kAttr$[ebp], ax
  00085	8a 41 1c	 mov	 al, BYTE PTR [ecx+28]
  00088	88 45 fe	 mov	 BYTE PTR _kAttr$[ebp+2], al

; 2583 : 	return Py_BuildValue("ii", kAttr.bType, kAttr.sValue);

  0008b	0f bf 45 fd	 movsx	 eax, WORD PTR _kAttr$[ebp+1]
  0008f	50		 push	 eax
  00090	0f b6 45 fc	 movzx	 eax, BYTE PTR _kAttr$[ebp]
  00094	50		 push	 eax

; 2584 : }

  00095	68 00 00 00 00	 push	 OFFSET ??_C@_02PDIHAGKM@ii@
  0009a	ff 15 00 00 00
	00		 call	 DWORD PTR __imp__Py_BuildValue
  000a0	83 c4 0c	 add	 esp, 12			; 0000000cH
  000a3	8b e5		 mov	 esp, ebp
  000a5	5d		 pop	 ebp
  000a6	c3		 ret	 0
$LN6@playerGetA:

; 2580 : 		return Py_BuildValue("ii", 0, 0);

  000a7	6a 00		 push	 0
  000a9	6a 00		 push	 0

; 2584 : }

  000ab	68 00 00 00 00	 push	 OFFSET ??_C@_02PDIHAGKM@ii@
  000b0	ff 15 00 00 00
	00		 call	 DWORD PTR __imp__Py_BuildValue
  000b6	83 c4 0c	 add	 esp, 12			; 0000000cH
  000b9	8b e5		 mov	 esp, ebp
  000bb	5d		 pop	 ebp
  000bc	c3		 ret	 0
?playerGetAuraItemAttribute@@YAPAU_object@@PAU1@0@Z ENDP ; playerGetAuraItemAttribute
_TEXT	ENDS
; Function compile flags: /Ogtp
; File C:\Anka2Project\Anka2Project\Source\Binary\source\UserInterface\PythonPlayerModule.cpp
; File C:\Anka2Project\Anka2Project\Source\Binary\source\eterBase\Singleton.h
; File C:\Anka2Project\Anka2Project\Source\Binary\source\UserInterface\PythonPlayerModule.cpp
;	COMDAT ?playerIsAuraRefineWindowEmpty@@YAPAU_object@@PAU1@0@Z
_TEXT	SEGMENT
_poSelf$ = 8						; size = 4
_poArgs$ = 12						; size = 4
?playerIsAuraRefineWindowEmpty@@YAPAU_object@@PAU1@0@Z PROC ; playerIsAuraRefineWindowEmpty, COMDAT
; File C:\Anka2Project\Anka2Project\Source\Binary\source\eterBase\Singleton.h

; 26   : 		assert(ms_singleton);

  00000	8b 0d 00 00 00
	00		 mov	 ecx, DWORD PTR ?ms_singleton@?$CSingleton@VCPythonPlayer@@@@0PAVCPythonPlayer@@A ; CSingleton<CPythonPlayer>::ms_singleton
  00006	85 c9		 test	 ecx, ecx
  00008	75 1a		 jne	 SHORT $LN5@playerIsAu
  0000a	6a 1a		 push	 26			; 0000001aH
  0000c	68 00 00 00 00	 push	 OFFSET ??_C@_1IO@CAJLEEOI@?$AAC?$AA?3?$AA?2?$AAA?$AAn?$AAk?$AAa?$AA2?$AAP?$AAr?$AAo?$AAj?$AAe?$AAc?$AAt@
  00011	68 00 00 00 00	 push	 OFFSET ??_C@_1BK@FMEHPMFE@?$AAm?$AAs?$AA_?$AAs?$AAi?$AAn?$AAg?$AAl?$AAe?$AAt?$AAo?$AAn@
  00016	e8 00 00 00 00	 call	 __wassert
  0001b	8b 0d 00 00 00
	00		 mov	 ecx, DWORD PTR ?ms_singleton@?$CSingleton@VCPythonPlayer@@@@0PAVCPythonPlayer@@A ; CSingleton<CPythonPlayer>::ms_singleton
  00021	83 c4 0c	 add	 esp, 12			; 0000000cH
$LN5@playerIsAu:
; File C:\Anka2Project\Anka2Project\Source\Binary\source\UserInterface\PythonPlayerModule.cpp

; 2588 : 	return Py_BuildValue("i", CPythonPlayer::Instance().IsAuraRefineWindowEmpty());

  00024	e8 00 00 00 00	 call	 ?IsAuraRefineWindowEmpty@CPythonPlayer@@QAE_NXZ ; CPythonPlayer::IsAuraRefineWindowEmpty
  00029	0f b6 c0	 movzx	 eax, al
  0002c	50		 push	 eax
  0002d	68 00 00 00 00	 push	 OFFSET ??_C@_01KBJDNOO@i@
  00032	ff 15 00 00 00
	00		 call	 DWORD PTR __imp__Py_BuildValue
  00038	83 c4 08	 add	 esp, 8

; 2589 : }

  0003b	c3		 ret	 0
?playerIsAuraRefineWindowEmpty@@YAPAU_object@@PAU1@0@Z ENDP ; playerIsAuraRefineWindowEmpty
_TEXT	ENDS
; Function compile flags: /Ogtp
; File C:\Anka2Project\Anka2Project\Source\Binary\source\UserInterface\PythonPlayerModule.cpp
; File C:\Anka2Project\Anka2Project\Source\Binary\source\eterBase\Singleton.h
; File C:\Anka2Project\Anka2Project\Source\Binary\source\UserInterface\PythonPlayerModule.cpp
;	COMDAT ?playerGetAuraCurrentItemSlotCount@@YAPAU_object@@PAU1@0@Z
_TEXT	SEGMENT
_poSelf$ = 8						; size = 4
_poArgs$ = 12						; size = 4
?playerGetAuraCurrentItemSlotCount@@YAPAU_object@@PAU1@0@Z PROC ; playerGetAuraCurrentItemSlotCount, COMDAT
; File C:\Anka2Project\Anka2Project\Source\Binary\source\eterBase\Singleton.h

; 26   : 		assert(ms_singleton);

  00000	8b 0d 00 00 00
	00		 mov	 ecx, DWORD PTR ?ms_singleton@?$CSingleton@VCPythonPlayer@@@@0PAVCPythonPlayer@@A ; CSingleton<CPythonPlayer>::ms_singleton
  00006	85 c9		 test	 ecx, ecx
  00008	75 1a		 jne	 SHORT $LN5@playerGetA
  0000a	6a 1a		 push	 26			; 0000001aH
  0000c	68 00 00 00 00	 push	 OFFSET ??_C@_1IO@CAJLEEOI@?$AAC?$AA?3?$AA?2?$AAA?$AAn?$AAk?$AAa?$AA2?$AAP?$AAr?$AAo?$AAj?$AAe?$AAc?$AAt@
  00011	68 00 00 00 00	 push	 OFFSET ??_C@_1BK@FMEHPMFE@?$AAm?$AAs?$AA_?$AAs?$AAi?$AAn?$AAg?$AAl?$AAe?$AAt?$AAo?$AAn@
  00016	e8 00 00 00 00	 call	 __wassert
  0001b	8b 0d 00 00 00
	00		 mov	 ecx, DWORD PTR ?ms_singleton@?$CSingleton@VCPythonPlayer@@@@0PAVCPythonPlayer@@A ; CSingleton<CPythonPlayer>::ms_singleton
  00021	83 c4 0c	 add	 esp, 12			; 0000000cH
$LN5@playerGetA:
; File C:\Anka2Project\Anka2Project\Source\Binary\source\UserInterface\PythonPlayerModule.cpp

; 2593 : 	return Py_BuildValue("i", CPythonPlayer::Instance().GetAuraCurrentItemSlotCount());

  00024	e8 00 00 00 00	 call	 ?GetAuraCurrentItemSlotCount@CPythonPlayer@@QAEEXZ ; CPythonPlayer::GetAuraCurrentItemSlotCount
  00029	0f b6 c0	 movzx	 eax, al
  0002c	50		 push	 eax
  0002d	68 00 00 00 00	 push	 OFFSET ??_C@_01KBJDNOO@i@
  00032	ff 15 00 00 00
	00		 call	 DWORD PTR __imp__Py_BuildValue
  00038	83 c4 08	 add	 esp, 8

; 2594 : }

  0003b	c3		 ret	 0
?playerGetAuraCurrentItemSlotCount@@YAPAU_object@@PAU1@0@Z ENDP ; playerGetAuraCurrentItemSlotCount
_TEXT	ENDS
; Function compile flags: /Ogtp
; File C:\Anka2Project\Anka2Project\Source\Binary\source\UserInterface\PythonPlayerModule.cpp
; File C:\Anka2Project\Anka2Project\Source\Binary\source\eterBase\Singleton.h
; File C:\Anka2Project\Anka2Project\Source\Binary\source\UserInterface\PythonPlayerModule.cpp
;	COMDAT ?playerIsAuraRefineWindowOpen@@YAPAU_object@@PAU1@0@Z
_TEXT	SEGMENT
_poSelf$ = 8						; size = 4
_poArgs$ = 12						; size = 4
?playerIsAuraRefineWindowOpen@@YAPAU_object@@PAU1@0@Z PROC ; playerIsAuraRefineWindowOpen, COMDAT
; File C:\Anka2Project\Anka2Project\Source\Binary\source\eterBase\Singleton.h

; 26   : 		assert(ms_singleton);

  00000	a1 00 00 00 00	 mov	 eax, DWORD PTR ?ms_singleton@?$CSingleton@VCPythonPlayer@@@@0PAVCPythonPlayer@@A ; CSingleton<CPythonPlayer>::ms_singleton
  00005	85 c0		 test	 eax, eax
  00007	75 19		 jne	 SHORT $LN5@playerIsAu
  00009	6a 1a		 push	 26			; 0000001aH
  0000b	68 00 00 00 00	 push	 OFFSET ??_C@_1IO@CAJLEEOI@?$AAC?$AA?3?$AA?2?$AAA?$AAn?$AAk?$AAa?$AA2?$AAP?$AAr?$AAo?$AAj?$AAe?$AAc?$AAt@
  00010	68 00 00 00 00	 push	 OFFSET ??_C@_1BK@FMEHPMFE@?$AAm?$AAs?$AA_?$AAs?$AAi?$AAn?$AAg?$AAl?$AAe?$AAt?$AAo?$AAn@
  00015	e8 00 00 00 00	 call	 __wassert
  0001a	a1 00 00 00 00	 mov	 eax, DWORD PTR ?ms_singleton@?$CSingleton@VCPythonPlayer@@@@0PAVCPythonPlayer@@A ; CSingleton<CPythonPlayer>::ms_singleton
  0001f	83 c4 0c	 add	 esp, 12			; 0000000cH
$LN5@playerIsAu:
; File C:\Anka2Project\Anka2Project\Source\Binary\source\UserInterface\PythonPlayerModule.cpp

; 2598 : 	return Py_BuildValue("i", CPythonPlayer::Instance().IsAuraRefineWindowOpen());

  00022	0f b6 80 e8 b3
	01 00		 movzx	 eax, BYTE PTR [eax+111592]
  00029	50		 push	 eax
  0002a	68 00 00 00 00	 push	 OFFSET ??_C@_01KBJDNOO@i@
  0002f	ff 15 00 00 00
	00		 call	 DWORD PTR __imp__Py_BuildValue
  00035	83 c4 08	 add	 esp, 8

; 2599 : }

  00038	c3		 ret	 0
?playerIsAuraRefineWindowOpen@@YAPAU_object@@PAU1@0@Z ENDP ; playerIsAuraRefineWindowOpen
_TEXT	ENDS
; Function compile flags: /Ogtp
; File C:\Anka2Project\Anka2Project\Source\Binary\source\UserInterface\PythonPlayerModule.cpp
; File C:\Anka2Project\Anka2Project\Source\Binary\source\eterBase\Singleton.h
; File C:\Anka2Project\Anka2Project\Source\Binary\source\UserInterface\PythonPlayerModule.cpp
;	COMDAT ?playerGetAuraRefineWindowType@@YAPAU_object@@PAU1@0@Z
_TEXT	SEGMENT
_poSelf$ = 8						; size = 4
_poArgs$ = 12						; size = 4
?playerGetAuraRefineWindowType@@YAPAU_object@@PAU1@0@Z PROC ; playerGetAuraRefineWindowType, COMDAT
; File C:\Anka2Project\Anka2Project\Source\Binary\source\eterBase\Singleton.h

; 26   : 		assert(ms_singleton);

  00000	a1 00 00 00 00	 mov	 eax, DWORD PTR ?ms_singleton@?$CSingleton@VCPythonPlayer@@@@0PAVCPythonPlayer@@A ; CSingleton<CPythonPlayer>::ms_singleton
  00005	85 c0		 test	 eax, eax
  00007	75 19		 jne	 SHORT $LN5@playerGetA
  00009	6a 1a		 push	 26			; 0000001aH
  0000b	68 00 00 00 00	 push	 OFFSET ??_C@_1IO@CAJLEEOI@?$AAC?$AA?3?$AA?2?$AAA?$AAn?$AAk?$AAa?$AA2?$AAP?$AAr?$AAo?$AAj?$AAe?$AAc?$AAt@
  00010	68 00 00 00 00	 push	 OFFSET ??_C@_1BK@FMEHPMFE@?$AAm?$AAs?$AA_?$AAs?$AAi?$AAn?$AAg?$AAl?$AAe?$AAt?$AAo?$AAn@
  00015	e8 00 00 00 00	 call	 __wassert
  0001a	a1 00 00 00 00	 mov	 eax, DWORD PTR ?ms_singleton@?$CSingleton@VCPythonPlayer@@@@0PAVCPythonPlayer@@A ; CSingleton<CPythonPlayer>::ms_singleton
  0001f	83 c4 0c	 add	 esp, 12			; 0000000cH
$LN5@playerGetA:
; File C:\Anka2Project\Anka2Project\Source\Binary\source\UserInterface\PythonPlayerModule.cpp

; 2603 : 	return Py_BuildValue("i", CPythonPlayer::Instance().GetAuraRefineWindowType());

  00022	0f b6 80 e9 b3
	01 00		 movzx	 eax, BYTE PTR [eax+111593]
  00029	50		 push	 eax
  0002a	68 00 00 00 00	 push	 OFFSET ??_C@_01KBJDNOO@i@
  0002f	ff 15 00 00 00
	00		 call	 DWORD PTR __imp__Py_BuildValue
  00035	83 c4 08	 add	 esp, 8

; 2604 : }

  00038	c3		 ret	 0
?playerGetAuraRefineWindowType@@YAPAU_object@@PAU1@0@Z ENDP ; playerGetAuraRefineWindowType
_TEXT	ENDS
; Function compile flags: /Ogtp
; File C:\Anka2Project\Anka2Project\Source\Binary\source\UserInterface\PythonPlayerModule.cpp
; File C:\Anka2Project\Anka2Project\Source\Binary\source\eterBase\Singleton.h
; File C:\Anka2Project\Anka2Project\Source\Binary\source\UserInterface\PythonPlayerModule.cpp
;	COMDAT ?playerFineMoveAuraItemSlot@@YAPAU_object@@PAU1@0@Z
_TEXT	SEGMENT
_poSelf$ = 8						; size = 4
_poArgs$ = 12						; size = 4
?playerFineMoveAuraItemSlot@@YAPAU_object@@PAU1@0@Z PROC ; playerFineMoveAuraItemSlot, COMDAT
; File C:\Anka2Project\Anka2Project\Source\Binary\source\eterBase\Singleton.h

; 26   : 		assert(ms_singleton);

  00000	8b 0d 00 00 00
	00		 mov	 ecx, DWORD PTR ?ms_singleton@?$CSingleton@VCPythonPlayer@@@@0PAVCPythonPlayer@@A ; CSingleton<CPythonPlayer>::ms_singleton
  00006	85 c9		 test	 ecx, ecx
  00008	75 1a		 jne	 SHORT $LN5@playerFine
  0000a	6a 1a		 push	 26			; 0000001aH
  0000c	68 00 00 00 00	 push	 OFFSET ??_C@_1IO@CAJLEEOI@?$AAC?$AA?3?$AA?2?$AAA?$AAn?$AAk?$AAa?$AA2?$AAP?$AAr?$AAo?$AAj?$AAe?$AAc?$AAt@
  00011	68 00 00 00 00	 push	 OFFSET ??_C@_1BK@FMEHPMFE@?$AAm?$AAs?$AA_?$AAs?$AAi?$AAn?$AAg?$AAl?$AAe?$AAt?$AAo?$AAn@
  00016	e8 00 00 00 00	 call	 __wassert
  0001b	8b 0d 00 00 00
	00		 mov	 ecx, DWORD PTR ?ms_singleton@?$CSingleton@VCPythonPlayer@@@@0PAVCPythonPlayer@@A ; CSingleton<CPythonPlayer>::ms_singleton
  00021	83 c4 0c	 add	 esp, 12			; 0000000cH
$LN5@playerFine:
; File C:\Anka2Project\Anka2Project\Source\Binary\source\UserInterface\PythonPlayerModule.cpp

; 2608 : 	return Py_BuildValue("i", CPythonPlayer::Instance().FineMoveAuraItemSlot());

  00024	e8 00 00 00 00	 call	 ?FineMoveAuraItemSlot@CPythonPlayer@@QAEEXZ ; CPythonPlayer::FineMoveAuraItemSlot
  00029	0f b6 c0	 movzx	 eax, al
  0002c	50		 push	 eax
  0002d	68 00 00 00 00	 push	 OFFSET ??_C@_01KBJDNOO@i@
  00032	ff 15 00 00 00
	00		 call	 DWORD PTR __imp__Py_BuildValue
  00038	83 c4 08	 add	 esp, 8

; 2609 : }

  0003b	c3		 ret	 0
?playerFineMoveAuraItemSlot@@YAPAU_object@@PAU1@0@Z ENDP ; playerFineMoveAuraItemSlot
_TEXT	ENDS
; Function compile flags: /Ogtp
; File C:\Anka2Project\Anka2Project\Source\Binary\source\UserInterface\PythonPlayerModule.cpp
; File C:\Anka2Project\Anka2Project\Source\Binary\source\UserInterface\GameType.h
; File C:\Anka2Project\Anka2Project\Source\Binary\source\UserInterface\PythonPlayerModule.cpp
; File C:\Anka2Project\Anka2Project\Source\Binary\source\eterBase\Singleton.h
; File C:\Anka2Project\Anka2Project\Source\Binary\source\UserInterface\PythonPlayerModule.cpp
;	COMDAT ?playerFindActivatedAuraSlot@@YAPAU_object@@PAU1@0@Z
_TEXT	SEGMENT
_ItemCell$ = -4						; size = 3
_poSelf$ = 8						; size = 4
_poArgs$ = 12						; size = 4
?playerFindActivatedAuraSlot@@YAPAU_object@@PAU1@0@Z PROC ; playerFindActivatedAuraSlot, COMDAT

; 2629 : {

  00000	55		 push	 ebp
  00001	8b ec		 mov	 ebp, esp
  00003	51		 push	 ecx
; File C:\Anka2Project\Anka2Project\Source\Binary\source\UserInterface\GameType.h

; 448  : 		cell = WORD_MAX;

  00004	b8 ff ff 00 00	 mov	 eax, 65535		; 0000ffffH
  00009	c6 45 fc 01	 mov	 BYTE PTR _ItemCell$[ebp], 1
  0000d	66 89 45 fd	 mov	 WORD PTR _ItemCell$[ebp+1], ax
; File C:\Anka2Project\Anka2Project\Source\Binary\source\UserInterface\PythonPlayerModule.cpp

; 2631 : 	if (!PyTuple_GetByte(poArgs, 0, &ItemCell.window_type))

  00011	8d 45 fc	 lea	 eax, DWORD PTR _ItemCell$[ebp]
  00014	50		 push	 eax
  00015	6a 00		 push	 0
  00017	ff 75 0c	 push	 DWORD PTR _poArgs$[ebp]
  0001a	e8 00 00 00 00	 call	 ?PyTuple_GetByte@@YA_NPAU_object@@HPAE@Z ; PyTuple_GetByte
  0001f	83 c4 0c	 add	 esp, 12			; 0000000cH
  00022	84 c0		 test	 al, al
  00024	75 0e		 jne	 SHORT $LN2@playerFind
$LN10@playerFind:

; 2638 : }

  00026	6a 00		 push	 0
  00028	e8 00 00 00 00	 call	 ?Py_BuildException@@YAPAU_object@@PBDZZ ; Py_BuildException
  0002d	83 c4 04	 add	 esp, 4
  00030	8b e5		 mov	 esp, ebp
  00032	5d		 pop	 ebp
  00033	c3		 ret	 0
$LN2@playerFind:

; 2632 : 		return Py_BuildException();
; 2633 : 
; 2634 : 	if (!PyTuple_GetInteger(poArgs, 1, &ItemCell.cell))

  00034	8d 45 fd	 lea	 eax, DWORD PTR _ItemCell$[ebp+1]
  00037	50		 push	 eax
  00038	6a 01		 push	 1
  0003a	ff 75 0c	 push	 DWORD PTR _poArgs$[ebp]
  0003d	e8 00 00 00 00	 call	 ?PyTuple_GetInteger@@YA_NPAU_object@@HPAG@Z ; PyTuple_GetInteger
  00042	83 c4 0c	 add	 esp, 12			; 0000000cH
  00045	84 c0		 test	 al, al
  00047	74 dd		 je	 SHORT $LN10@playerFind
; File C:\Anka2Project\Anka2Project\Source\Binary\source\eterBase\Singleton.h

; 26   : 		assert(ms_singleton);

  00049	8b 0d 00 00 00
	00		 mov	 ecx, DWORD PTR ?ms_singleton@?$CSingleton@VCPythonPlayer@@@@0PAVCPythonPlayer@@A ; CSingleton<CPythonPlayer>::ms_singleton
  0004f	85 c9		 test	 ecx, ecx
  00051	75 1a		 jne	 SHORT $LN9@playerFind
  00053	6a 1a		 push	 26			; 0000001aH
  00055	68 00 00 00 00	 push	 OFFSET ??_C@_1IO@CAJLEEOI@?$AAC?$AA?3?$AA?2?$AAA?$AAn?$AAk?$AAa?$AA2?$AAP?$AAr?$AAo?$AAj?$AAe?$AAc?$AAt@
  0005a	68 00 00 00 00	 push	 OFFSET ??_C@_1BK@FMEHPMFE@?$AAm?$AAs?$AA_?$AAs?$AAi?$AAn?$AAg?$AAl?$AAe?$AAt?$AAo?$AAn@
  0005f	e8 00 00 00 00	 call	 __wassert
  00064	8b 0d 00 00 00
	00		 mov	 ecx, DWORD PTR ?ms_singleton@?$CSingleton@VCPythonPlayer@@@@0PAVCPythonPlayer@@A ; CSingleton<CPythonPlayer>::ms_singleton
  0006a	83 c4 0c	 add	 esp, 12			; 0000000cH
$LN9@playerFind:
; File C:\Anka2Project\Anka2Project\Source\Binary\source\UserInterface\PythonPlayerModule.cpp

; 2637 : 	return Py_BuildValue("i", CPythonPlayer::Instance().FindActivatedAuraSlot(ItemCell));

  0006d	66 8b 45 fc	 mov	 ax, WORD PTR _ItemCell$[ebp]
  00071	51		 push	 ecx
  00072	8b d4		 mov	 edx, esp
  00074	66 89 02	 mov	 WORD PTR [edx], ax
  00077	8a 45 fe	 mov	 al, BYTE PTR _ItemCell$[ebp+2]
  0007a	88 42 02	 mov	 BYTE PTR [edx+2], al
  0007d	e8 00 00 00 00	 call	 ?FindActivatedAuraSlot@CPythonPlayer@@QAEEUSItemPos@@@Z ; CPythonPlayer::FindActivatedAuraSlot
  00082	0f b6 c0	 movzx	 eax, al
  00085	50		 push	 eax
  00086	68 00 00 00 00	 push	 OFFSET ??_C@_01KBJDNOO@i@
  0008b	ff 15 00 00 00
	00		 call	 DWORD PTR __imp__Py_BuildValue
  00091	83 c4 08	 add	 esp, 8

; 2638 : }

  00094	8b e5		 mov	 esp, ebp
  00096	5d		 pop	 ebp
  00097	c3		 ret	 0
?playerFindActivatedAuraSlot@@YAPAU_object@@PAU1@0@Z ENDP ; playerFindActivatedAuraSlot
_TEXT	ENDS
; Function compile flags: /Ogtp
; File C:\Anka2Project\Anka2Project\Source\Binary\source\UserInterface\PythonPlayerModule.cpp
; File C:\Anka2Project\Anka2Project\Source\Binary\source\eterBase\Singleton.h
; File C:\Anka2Project\Anka2Project\Source\Binary\source\UserInterface\PythonPlayerModule.cpp
;	COMDAT ?playerFindUsingAuraSlot@@YAPAU_object@@PAU1@0@Z
_TEXT	SEGMENT
_bAuraSlotPos$ = -8					; size = 1
_ItemCell$ = -4						; size = 3
_poSelf$ = 8						; size = 4
_poArgs$ = 12						; size = 4
?playerFindUsingAuraSlot@@YAPAU_object@@PAU1@0@Z PROC	; playerFindUsingAuraSlot, COMDAT

; 2641 : {

  00000	55		 push	 ebp
  00001	8b ec		 mov	 ebp, esp
  00003	83 ec 08	 sub	 esp, 8

; 2642 : 	BYTE bAuraSlotPos;
; 2643 : 	if (!PyTuple_GetInteger(poArgs, 0, &bAuraSlotPos))

  00006	8d 45 f8	 lea	 eax, DWORD PTR _bAuraSlotPos$[ebp]
  00009	50		 push	 eax
  0000a	6a 00		 push	 0
  0000c	ff 75 0c	 push	 DWORD PTR _poArgs$[ebp]
  0000f	e8 00 00 00 00	 call	 ?PyTuple_GetInteger@@YA_NPAU_object@@HPAE@Z ; PyTuple_GetInteger
  00014	83 c4 0c	 add	 esp, 12			; 0000000cH
  00017	84 c0		 test	 al, al
  00019	75 0e		 jne	 SHORT $LN2@playerFind

; 2644 : 		return Py_BuildException();

  0001b	6a 00		 push	 0
  0001d	e8 00 00 00 00	 call	 ?Py_BuildException@@YAPAU_object@@PBDZZ ; Py_BuildException
  00022	83 c4 04	 add	 esp, 4

; 2648 : }

  00025	8b e5		 mov	 esp, ebp
  00027	5d		 pop	 ebp
  00028	c3		 ret	 0
$LN2@playerFind:
; File C:\Anka2Project\Anka2Project\Source\Binary\source\eterBase\Singleton.h

; 26   : 		assert(ms_singleton);

  00029	8b 0d 00 00 00
	00		 mov	 ecx, DWORD PTR ?ms_singleton@?$CSingleton@VCPythonPlayer@@@@0PAVCPythonPlayer@@A ; CSingleton<CPythonPlayer>::ms_singleton
  0002f	85 c9		 test	 ecx, ecx
  00031	75 1a		 jne	 SHORT $LN6@playerFind
  00033	6a 1a		 push	 26			; 0000001aH
  00035	68 00 00 00 00	 push	 OFFSET ??_C@_1IO@CAJLEEOI@?$AAC?$AA?3?$AA?2?$AAA?$AAn?$AAk?$AAa?$AA2?$AAP?$AAr?$AAo?$AAj?$AAe?$AAc?$AAt@
  0003a	68 00 00 00 00	 push	 OFFSET ??_C@_1BK@FMEHPMFE@?$AAm?$AAs?$AA_?$AAs?$AAi?$AAn?$AAg?$AAl?$AAe?$AAt?$AAo?$AAn@
  0003f	e8 00 00 00 00	 call	 __wassert
  00044	8b 0d 00 00 00
	00		 mov	 ecx, DWORD PTR ?ms_singleton@?$CSingleton@VCPythonPlayer@@@@0PAVCPythonPlayer@@A ; CSingleton<CPythonPlayer>::ms_singleton
  0004a	83 c4 0c	 add	 esp, 12			; 0000000cH
$LN6@playerFind:
; File C:\Anka2Project\Anka2Project\Source\Binary\source\UserInterface\PythonPlayerModule.cpp

; 2646 : 	TItemPos ItemCell = CPythonPlayer::Instance().FindUsingAuraSlot(bAuraSlotPos);

  0004d	ff 75 f8	 push	 DWORD PTR _bAuraSlotPos$[ebp]
  00050	8d 45 fc	 lea	 eax, DWORD PTR _ItemCell$[ebp]
  00053	50		 push	 eax
  00054	e8 00 00 00 00	 call	 ?FindUsingAuraSlot@CPythonPlayer@@QAE?AUSItemPos@@E@Z ; CPythonPlayer::FindUsingAuraSlot

; 2647 : 	return Py_BuildValue("(ii)", ItemCell.window_type, ItemCell.cell);

  00059	0f b7 45 fd	 movzx	 eax, WORD PTR _ItemCell$[ebp+1]
  0005d	50		 push	 eax
  0005e	0f b6 45 fc	 movzx	 eax, BYTE PTR _ItemCell$[ebp]
  00062	50		 push	 eax
  00063	68 00 00 00 00	 push	 OFFSET ??_C@_04INACLLOK@?$CIii?$CJ@
  00068	ff 15 00 00 00
	00		 call	 DWORD PTR __imp__Py_BuildValue
  0006e	83 c4 0c	 add	 esp, 12			; 0000000cH

; 2648 : }

  00071	8b e5		 mov	 esp, ebp
  00073	5d		 pop	 ebp
  00074	c3		 ret	 0
?playerFindUsingAuraSlot@@YAPAU_object@@PAU1@0@Z ENDP	; playerFindUsingAuraSlot
_TEXT	ENDS
; Function compile flags: /Ogtp
; File C:\Anka2Project\Anka2Project\Source\Binary\source\UserInterface\PythonPlayerModule.cpp
;	COMDAT ?playerGetAuraRefineInfo@@YAPAU_object@@PAU1@0@Z
_TEXT	SEGMENT
_bRefineInfoIndex$ = -2					; size = 1
_bLevel$ = -1						; size = 1
_poSelf$ = 8						; size = 4
_poArgs$ = 12						; size = 4
?playerGetAuraRefineInfo@@YAPAU_object@@PAU1@0@Z PROC	; playerGetAuraRefineInfo, COMDAT

; 2651 : {

  00000	55		 push	 ebp
  00001	8b ec		 mov	 ebp, esp
  00003	51		 push	 ecx

; 2652 : 	BYTE bLevel;
; 2653 : 	if (!PyTuple_GetByte(poArgs, 0, &bLevel))

  00004	8d 45 ff	 lea	 eax, DWORD PTR _bLevel$[ebp]
  00007	50		 push	 eax
  00008	6a 00		 push	 0
  0000a	ff 75 0c	 push	 DWORD PTR _poArgs$[ebp]
  0000d	e8 00 00 00 00	 call	 ?PyTuple_GetByte@@YA_NPAU_object@@HPAE@Z ; PyTuple_GetByte
  00012	83 c4 0c	 add	 esp, 12			; 0000000cH
  00015	84 c0		 test	 al, al
  00017	75 0e		 jne	 SHORT $LN2@playerGetA
$LN8@playerGetA:

; 2665 : }

  00019	6a 00		 push	 0
  0001b	e8 00 00 00 00	 call	 ?Py_BuildException@@YAPAU_object@@PBDZZ ; Py_BuildException
  00020	83 c4 04	 add	 esp, 4
  00023	8b e5		 mov	 esp, ebp
  00025	5d		 pop	 ebp
  00026	c3		 ret	 0
$LN2@playerGetA:

; 2654 : 		return Py_BuildException();
; 2655 : 
; 2656 : 	BYTE bRefineInfoIndex;
; 2657 : 	if (!PyTuple_GetByte(poArgs, 1, &bRefineInfoIndex))

  00027	8d 45 fe	 lea	 eax, DWORD PTR _bRefineInfoIndex$[ebp]
  0002a	50		 push	 eax
  0002b	6a 01		 push	 1
  0002d	ff 75 0c	 push	 DWORD PTR _poArgs$[ebp]
  00030	e8 00 00 00 00	 call	 ?PyTuple_GetByte@@YA_NPAU_object@@HPAE@Z ; PyTuple_GetByte
  00035	83 c4 0c	 add	 esp, 12			; 0000000cH
  00038	84 c0		 test	 al, al
  0003a	74 dd		 je	 SHORT $LN8@playerGetA

; 2658 : 		return Py_BuildException();
; 2659 : 
; 2660 : 	const int *info = GetAuraRefineInfo(bLevel);

  0003c	8a 4d ff	 mov	 cl, BYTE PTR _bLevel$[ebp]
  0003f	e8 00 00 00 00	 call	 ?GetAuraRefineInfo@@YAPAHE@Z ; GetAuraRefineInfo

; 2661 : 	if (!info || bRefineInfoIndex < AURA_REFINE_INFO_STEP || bRefineInfoIndex >= AURA_REFINE_INFO_MAX)

  00044	85 c0		 test	 eax, eax
  00046	74 20		 je	 SHORT $LN5@playerGetA
  00048	8a 4d fe	 mov	 cl, BYTE PTR _bRefineInfoIndex$[ebp]
  0004b	80 f9 08	 cmp	 cl, 8
  0004e	73 18		 jae	 SHORT $LN5@playerGetA

; 2663 : 
; 2664 : 	return Py_BuildValue("i", info[bRefineInfoIndex]);

  00050	0f b6 c9	 movzx	 ecx, cl
  00053	ff 34 88	 push	 DWORD PTR [eax+ecx*4]

; 2665 : }

  00056	68 00 00 00 00	 push	 OFFSET ??_C@_01KBJDNOO@i@
  0005b	ff 15 00 00 00
	00		 call	 DWORD PTR __imp__Py_BuildValue
  00061	83 c4 08	 add	 esp, 8
  00064	8b e5		 mov	 esp, ebp
  00066	5d		 pop	 ebp
  00067	c3		 ret	 0
$LN5@playerGetA:

; 2662 : 		return Py_BuildValue("i", 0);

  00068	6a 00		 push	 0

; 2665 : }

  0006a	68 00 00 00 00	 push	 OFFSET ??_C@_01KBJDNOO@i@
  0006f	ff 15 00 00 00
	00		 call	 DWORD PTR __imp__Py_BuildValue
  00075	83 c4 08	 add	 esp, 8
  00078	8b e5		 mov	 esp, ebp
  0007a	5d		 pop	 ebp
  0007b	c3		 ret	 0
?playerGetAuraRefineInfo@@YAPAU_object@@PAU1@0@Z ENDP	; playerGetAuraRefineInfo
_TEXT	ENDS
; Function compile flags: /Ogtp
; File C:\Anka2Project\Anka2Project\Source\Binary\source\UserInterface\PythonPlayerModule.cpp
; File C:\Anka2Project\Anka2Project\Source\Binary\source\eterBase\Singleton.h
; File C:\Anka2Project\Anka2Project\Source\Binary\source\UserInterface\PythonPlayerModule.cpp
;	COMDAT ?playerGetAuraRefineInfoExpPer@@YAPAU_object@@PAU1@0@Z
_TEXT	SEGMENT
_bAuraRefineInfoSlot$ = -4				; size = 1
_poSelf$ = 8						; size = 4
_poArgs$ = 12						; size = 4
?playerGetAuraRefineInfoExpPer@@YAPAU_object@@PAU1@0@Z PROC ; playerGetAuraRefineInfoExpPer, COMDAT

; 2668 : {

  00000	55		 push	 ebp
  00001	8b ec		 mov	 ebp, esp
  00003	51		 push	 ecx

; 2669 : 	BYTE bAuraRefineInfoSlot;
; 2670 : 	if (!PyTuple_GetInteger(poArgs, 0, &bAuraRefineInfoSlot))

  00004	8d 45 fc	 lea	 eax, DWORD PTR _bAuraRefineInfoSlot$[ebp]
  00007	50		 push	 eax
  00008	6a 00		 push	 0
  0000a	ff 75 0c	 push	 DWORD PTR _poArgs$[ebp]
  0000d	e8 00 00 00 00	 call	 ?PyTuple_GetInteger@@YA_NPAU_object@@HPAE@Z ; PyTuple_GetInteger
  00012	83 c4 0c	 add	 esp, 12			; 0000000cH
  00015	84 c0		 test	 al, al
  00017	75 0e		 jne	 SHORT $LN2@playerGetA

; 2671 : 		return Py_BuildException();

  00019	6a 00		 push	 0
  0001b	e8 00 00 00 00	 call	 ?Py_BuildException@@YAPAU_object@@PBDZZ ; Py_BuildException
  00020	83 c4 04	 add	 esp, 4

; 2674 : }

  00023	8b e5		 mov	 esp, ebp
  00025	5d		 pop	 ebp
  00026	c3		 ret	 0
$LN2@playerGetA:
; File C:\Anka2Project\Anka2Project\Source\Binary\source\eterBase\Singleton.h

; 26   : 		assert(ms_singleton);

  00027	8b 0d 00 00 00
	00		 mov	 ecx, DWORD PTR ?ms_singleton@?$CSingleton@VCPythonPlayer@@@@0PAVCPythonPlayer@@A ; CSingleton<CPythonPlayer>::ms_singleton
  0002d	85 c9		 test	 ecx, ecx
  0002f	75 1a		 jne	 SHORT $LN6@playerGetA
  00031	6a 1a		 push	 26			; 0000001aH
  00033	68 00 00 00 00	 push	 OFFSET ??_C@_1IO@CAJLEEOI@?$AAC?$AA?3?$AA?2?$AAA?$AAn?$AAk?$AAa?$AA2?$AAP?$AAr?$AAo?$AAj?$AAe?$AAc?$AAt@
  00038	68 00 00 00 00	 push	 OFFSET ??_C@_1BK@FMEHPMFE@?$AAm?$AAs?$AA_?$AAs?$AAi?$AAn?$AAg?$AAl?$AAe?$AAt?$AAo?$AAn@
  0003d	e8 00 00 00 00	 call	 __wassert
  00042	8b 0d 00 00 00
	00		 mov	 ecx, DWORD PTR ?ms_singleton@?$CSingleton@VCPythonPlayer@@@@0PAVCPythonPlayer@@A ; CSingleton<CPythonPlayer>::ms_singleton
  00048	83 c4 0c	 add	 esp, 12			; 0000000cH
$LN6@playerGetA:
; File C:\Anka2Project\Anka2Project\Source\Binary\source\UserInterface\PythonPlayerModule.cpp

; 2673 : 	return Py_BuildValue("i", CPythonPlayer::Instance().GetAuraRefineInfoExpPct(bAuraRefineInfoSlot));

  0004b	ff 75 fc	 push	 DWORD PTR _bAuraRefineInfoSlot$[ebp]
  0004e	e8 00 00 00 00	 call	 ?GetAuraRefineInfoExpPct@CPythonPlayer@@QAEEE@Z ; CPythonPlayer::GetAuraRefineInfoExpPct
  00053	0f b6 c0	 movzx	 eax, al
  00056	50		 push	 eax
  00057	68 00 00 00 00	 push	 OFFSET ??_C@_01KBJDNOO@i@
  0005c	ff 15 00 00 00
	00		 call	 DWORD PTR __imp__Py_BuildValue
  00062	83 c4 08	 add	 esp, 8

; 2674 : }

  00065	8b e5		 mov	 esp, ebp
  00067	5d		 pop	 ebp
  00068	c3		 ret	 0
?playerGetAuraRefineInfoExpPer@@YAPAU_object@@PAU1@0@Z ENDP ; playerGetAuraRefineInfoExpPer
_TEXT	ENDS
; Function compile flags: /Ogtp
; File C:\Anka2Project\Anka2Project\Source\Binary\source\UserInterface\PythonPlayerModule.cpp
; File C:\Anka2Project\Anka2Project\Source\Binary\source\eterBase\Singleton.h
; File C:\Anka2Project\Anka2Project\Source\Binary\source\UserInterface\PythonPlayerModule.cpp
;	COMDAT ?playerGetAuraRefineInfoLevel@@YAPAU_object@@PAU1@0@Z
_TEXT	SEGMENT
_bAuraRefineInfoSlot$ = -4				; size = 1
_poSelf$ = 8						; size = 4
_poArgs$ = 12						; size = 4
?playerGetAuraRefineInfoLevel@@YAPAU_object@@PAU1@0@Z PROC ; playerGetAuraRefineInfoLevel, COMDAT

; 2677 : {

  00000	55		 push	 ebp
  00001	8b ec		 mov	 ebp, esp
  00003	51		 push	 ecx

; 2678 : 	BYTE bAuraRefineInfoSlot;
; 2679 : 	if (!PyTuple_GetInteger(poArgs, 0, &bAuraRefineInfoSlot))

  00004	8d 45 fc	 lea	 eax, DWORD PTR _bAuraRefineInfoSlot$[ebp]
  00007	50		 push	 eax
  00008	6a 00		 push	 0
  0000a	ff 75 0c	 push	 DWORD PTR _poArgs$[ebp]
  0000d	e8 00 00 00 00	 call	 ?PyTuple_GetInteger@@YA_NPAU_object@@HPAE@Z ; PyTuple_GetInteger
  00012	83 c4 0c	 add	 esp, 12			; 0000000cH
  00015	84 c0		 test	 al, al
  00017	75 0e		 jne	 SHORT $LN2@playerGetA

; 2680 : 		return Py_BuildException();

  00019	6a 00		 push	 0
  0001b	e8 00 00 00 00	 call	 ?Py_BuildException@@YAPAU_object@@PBDZZ ; Py_BuildException
  00020	83 c4 04	 add	 esp, 4

; 2683 : }

  00023	8b e5		 mov	 esp, ebp
  00025	5d		 pop	 ebp
  00026	c3		 ret	 0
$LN2@playerGetA:
; File C:\Anka2Project\Anka2Project\Source\Binary\source\eterBase\Singleton.h

; 26   : 		assert(ms_singleton);

  00027	8b 0d 00 00 00
	00		 mov	 ecx, DWORD PTR ?ms_singleton@?$CSingleton@VCPythonPlayer@@@@0PAVCPythonPlayer@@A ; CSingleton<CPythonPlayer>::ms_singleton
  0002d	85 c9		 test	 ecx, ecx
  0002f	75 1a		 jne	 SHORT $LN6@playerGetA
  00031	6a 1a		 push	 26			; 0000001aH
  00033	68 00 00 00 00	 push	 OFFSET ??_C@_1IO@CAJLEEOI@?$AAC?$AA?3?$AA?2?$AAA?$AAn?$AAk?$AAa?$AA2?$AAP?$AAr?$AAo?$AAj?$AAe?$AAc?$AAt@
  00038	68 00 00 00 00	 push	 OFFSET ??_C@_1BK@FMEHPMFE@?$AAm?$AAs?$AA_?$AAs?$AAi?$AAn?$AAg?$AAl?$AAe?$AAt?$AAo?$AAn@
  0003d	e8 00 00 00 00	 call	 __wassert
  00042	8b 0d 00 00 00
	00		 mov	 ecx, DWORD PTR ?ms_singleton@?$CSingleton@VCPythonPlayer@@@@0PAVCPythonPlayer@@A ; CSingleton<CPythonPlayer>::ms_singleton
  00048	83 c4 0c	 add	 esp, 12			; 0000000cH
$LN6@playerGetA:
; File C:\Anka2Project\Anka2Project\Source\Binary\source\UserInterface\PythonPlayerModule.cpp

; 2682 : 	return Py_BuildValue("i", CPythonPlayer::Instance().GetAuraRefineInfoLevel(bAuraRefineInfoSlot));

  0004b	ff 75 fc	 push	 DWORD PTR _bAuraRefineInfoSlot$[ebp]
  0004e	e8 00 00 00 00	 call	 ?GetAuraRefineInfoLevel@CPythonPlayer@@QAEEE@Z ; CPythonPlayer::GetAuraRefineInfoLevel
  00053	0f b6 c0	 movzx	 eax, al
  00056	50		 push	 eax
  00057	68 00 00 00 00	 push	 OFFSET ??_C@_01KBJDNOO@i@
  0005c	ff 15 00 00 00
	00		 call	 DWORD PTR __imp__Py_BuildValue
  00062	83 c4 08	 add	 esp, 8

; 2683 : }

  00065	8b e5		 mov	 esp, ebp
  00067	5d		 pop	 ebp
  00068	c3		 ret	 0
?playerGetAuraRefineInfoLevel@@YAPAU_object@@PAU1@0@Z ENDP ; playerGetAuraRefineInfoLevel
_TEXT	ENDS
; Function compile flags: /Ogtp
; File C:\Anka2Project\Anka2Project\Source\Binary\source\UserInterface\PythonPlayerModule.cpp
; File C:\Anka2Project\Anka2Project\Source\Binary\source\eterBase\Singleton.h
; File C:\Anka2Project\Anka2Project\Source\Binary\source\UserInterface\PythonPlayerModule.cpp
;	COMDAT ?playerIsOpenPetHatchingWindow@@YAPAU_object@@PAU1@0@Z
_TEXT	SEGMENT
_poSelf$ = 8						; size = 4
_poArgs$ = 12						; size = 4
?playerIsOpenPetHatchingWindow@@YAPAU_object@@PAU1@0@Z PROC ; playerIsOpenPetHatchingWindow, COMDAT
; File C:\Anka2Project\Anka2Project\Source\Binary\source\eterBase\Singleton.h

; 26   : 		assert(ms_singleton);

  00000	a1 00 00 00 00	 mov	 eax, DWORD PTR ?ms_singleton@?$CSingleton@VCPythonPlayer@@@@0PAVCPythonPlayer@@A ; CSingleton<CPythonPlayer>::ms_singleton
  00005	85 c0		 test	 eax, eax
  00007	75 19		 jne	 SHORT $LN5@playerIsOp
  00009	6a 1a		 push	 26			; 0000001aH
  0000b	68 00 00 00 00	 push	 OFFSET ??_C@_1IO@CAJLEEOI@?$AAC?$AA?3?$AA?2?$AAA?$AAn?$AAk?$AAa?$AA2?$AAP?$AAr?$AAo?$AAj?$AAe?$AAc?$AAt@
  00010	68 00 00 00 00	 push	 OFFSET ??_C@_1BK@FMEHPMFE@?$AAm?$AAs?$AA_?$AAs?$AAi?$AAn?$AAg?$AAl?$AAe?$AAt?$AAo?$AAn@
  00015	e8 00 00 00 00	 call	 __wassert
  0001a	a1 00 00 00 00	 mov	 eax, DWORD PTR ?ms_singleton@?$CSingleton@VCPythonPlayer@@@@0PAVCPythonPlayer@@A ; CSingleton<CPythonPlayer>::ms_singleton
  0001f	83 c4 0c	 add	 esp, 12			; 0000000cH
$LN5@playerIsOp:
; File C:\Anka2Project\Anka2Project\Source\Binary\source\UserInterface\PythonPlayerModule.cpp

; 2719 : 	return Py_BuildValue("b", CPythonPlayer::Instance().IsOpenPetHatchingWindow());

  00022	0f b6 80 2c b4
	01 00		 movzx	 eax, BYTE PTR [eax+111660]
  00029	50		 push	 eax
  0002a	68 00 00 00 00	 push	 OFFSET ??_C@_01OJONOECF@b@
  0002f	ff 15 00 00 00
	00		 call	 DWORD PTR __imp__Py_BuildValue
  00035	83 c4 08	 add	 esp, 8

; 2720 : }

  00038	c3		 ret	 0
?playerIsOpenPetHatchingWindow@@YAPAU_object@@PAU1@0@Z ENDP ; playerIsOpenPetHatchingWindow
_TEXT	ENDS
; Function compile flags: /Ogtp
; File C:\Anka2Project\Anka2Project\Source\Binary\source\UserInterface\PythonPlayerModule.cpp
; File C:\Anka2Project\Anka2Project\Source\Binary\source\eterBase\Singleton.h
; File C:\Anka2Project\Anka2Project\Source\Binary\source\UserInterface\PythonPlayerModule.cpp
;	COMDAT ?playerIsOpenPetNameChangeWindow@@YAPAU_object@@PAU1@0@Z
_TEXT	SEGMENT
_poSelf$ = 8						; size = 4
_poArgs$ = 12						; size = 4
?playerIsOpenPetNameChangeWindow@@YAPAU_object@@PAU1@0@Z PROC ; playerIsOpenPetNameChangeWindow, COMDAT
; File C:\Anka2Project\Anka2Project\Source\Binary\source\eterBase\Singleton.h

; 26   : 		assert(ms_singleton);

  00000	a1 00 00 00 00	 mov	 eax, DWORD PTR ?ms_singleton@?$CSingleton@VCPythonPlayer@@@@0PAVCPythonPlayer@@A ; CSingleton<CPythonPlayer>::ms_singleton
  00005	85 c0		 test	 eax, eax
  00007	75 19		 jne	 SHORT $LN5@playerIsOp
  00009	6a 1a		 push	 26			; 0000001aH
  0000b	68 00 00 00 00	 push	 OFFSET ??_C@_1IO@CAJLEEOI@?$AAC?$AA?3?$AA?2?$AAA?$AAn?$AAk?$AAa?$AA2?$AAP?$AAr?$AAo?$AAj?$AAe?$AAc?$AAt@
  00010	68 00 00 00 00	 push	 OFFSET ??_C@_1BK@FMEHPMFE@?$AAm?$AAs?$AA_?$AAs?$AAi?$AAn?$AAg?$AAl?$AAe?$AAt?$AAo?$AAn@
  00015	e8 00 00 00 00	 call	 __wassert
  0001a	a1 00 00 00 00	 mov	 eax, DWORD PTR ?ms_singleton@?$CSingleton@VCPythonPlayer@@@@0PAVCPythonPlayer@@A ; CSingleton<CPythonPlayer>::ms_singleton
  0001f	83 c4 0c	 add	 esp, 12			; 0000000cH
$LN5@playerIsOp:
; File C:\Anka2Project\Anka2Project\Source\Binary\source\UserInterface\PythonPlayerModule.cpp

; 2724 : 	return Py_BuildValue("b", CPythonPlayer::Instance().IsOpenPetNameChangeWindow());

  00022	0f b6 80 2d b4
	01 00		 movzx	 eax, BYTE PTR [eax+111661]
  00029	50		 push	 eax
  0002a	68 00 00 00 00	 push	 OFFSET ??_C@_01OJONOECF@b@
  0002f	ff 15 00 00 00
	00		 call	 DWORD PTR __imp__Py_BuildValue
  00035	83 c4 08	 add	 esp, 8

; 2725 : }

  00038	c3		 ret	 0
?playerIsOpenPetNameChangeWindow@@YAPAU_object@@PAU1@0@Z ENDP ; playerIsOpenPetNameChangeWindow
_TEXT	ENDS
; Function compile flags: /Ogtp
; File C:\Anka2Project\Anka2Project\Source\Binary\source\UserInterface\PythonPlayerModule.cpp
; File C:\Anka2Project\Anka2Project\Source\Binary\source\eterBase\Singleton.h
; File C:\Anka2Project\Anka2Project\Source\Binary\source\UserInterface\PythonPlayerModule.cpp
;	COMDAT ?playerIsOpenPetFeedWindow@@YAPAU_object@@PAU1@0@Z
_TEXT	SEGMENT
_poSelf$ = 8						; size = 4
_poArgs$ = 12						; size = 4
?playerIsOpenPetFeedWindow@@YAPAU_object@@PAU1@0@Z PROC	; playerIsOpenPetFeedWindow, COMDAT
; File C:\Anka2Project\Anka2Project\Source\Binary\source\eterBase\Singleton.h

; 26   : 		assert(ms_singleton);

  00000	a1 00 00 00 00	 mov	 eax, DWORD PTR ?ms_singleton@?$CSingleton@VCPythonPlayer@@@@0PAVCPythonPlayer@@A ; CSingleton<CPythonPlayer>::ms_singleton
  00005	85 c0		 test	 eax, eax
  00007	75 19		 jne	 SHORT $LN5@playerIsOp
  00009	6a 1a		 push	 26			; 0000001aH
  0000b	68 00 00 00 00	 push	 OFFSET ??_C@_1IO@CAJLEEOI@?$AAC?$AA?3?$AA?2?$AAA?$AAn?$AAk?$AAa?$AA2?$AAP?$AAr?$AAo?$AAj?$AAe?$AAc?$AAt@
  00010	68 00 00 00 00	 push	 OFFSET ??_C@_1BK@FMEHPMFE@?$AAm?$AAs?$AA_?$AAs?$AAi?$AAn?$AAg?$AAl?$AAe?$AAt?$AAo?$AAn@
  00015	e8 00 00 00 00	 call	 __wassert
  0001a	a1 00 00 00 00	 mov	 eax, DWORD PTR ?ms_singleton@?$CSingleton@VCPythonPlayer@@@@0PAVCPythonPlayer@@A ; CSingleton<CPythonPlayer>::ms_singleton
  0001f	83 c4 0c	 add	 esp, 12			; 0000000cH
$LN5@playerIsOp:
; File C:\Anka2Project\Anka2Project\Source\Binary\source\UserInterface\PythonPlayerModule.cpp

; 2729 : 	return Py_BuildValue("b", CPythonPlayer::Instance().IsOpenPetFeedWindow());

  00022	0f b6 80 2e b4
	01 00		 movzx	 eax, BYTE PTR [eax+111662]
  00029	50		 push	 eax
  0002a	68 00 00 00 00	 push	 OFFSET ??_C@_01OJONOECF@b@
  0002f	ff 15 00 00 00
	00		 call	 DWORD PTR __imp__Py_BuildValue
  00035	83 c4 08	 add	 esp, 8

; 2730 : }

  00038	c3		 ret	 0
?playerIsOpenPetFeedWindow@@YAPAU_object@@PAU1@0@Z ENDP	; playerIsOpenPetFeedWindow
_TEXT	ENDS
; Function compile flags: /Ogtp
; File C:\Anka2Project\Anka2Project\Source\Binary\source\UserInterface\PythonPlayerModule.cpp
; File C:\Anka2Project\Anka2Project\Source\Binary\source\eterBase\Singleton.h
; File C:\Anka2Project\Anka2Project\Source\Binary\source\UserInterface\PythonPlayerModule.cpp
;	COMDAT ?playerIsOpenMall@@YAPAU_object@@PAU1@0@Z
_TEXT	SEGMENT
_poSelf$ = 8						; size = 4
_poArgs$ = 12						; size = 4
?playerIsOpenMall@@YAPAU_object@@PAU1@0@Z PROC		; playerIsOpenMall, COMDAT
; File C:\Anka2Project\Anka2Project\Source\Binary\source\eterBase\Singleton.h

; 26   : 		assert(ms_singleton);

  00000	a1 00 00 00 00	 mov	 eax, DWORD PTR ?ms_singleton@?$CSingleton@VCPythonPlayer@@@@0PAVCPythonPlayer@@A ; CSingleton<CPythonPlayer>::ms_singleton
  00005	85 c0		 test	 eax, eax
  00007	75 19		 jne	 SHORT $LN5@playerIsOp
  00009	6a 1a		 push	 26			; 0000001aH
  0000b	68 00 00 00 00	 push	 OFFSET ??_C@_1IO@CAJLEEOI@?$AAC?$AA?3?$AA?2?$AAA?$AAn?$AAk?$AAa?$AA2?$AAP?$AAr?$AAo?$AAj?$AAe?$AAc?$AAt@
  00010	68 00 00 00 00	 push	 OFFSET ??_C@_1BK@FMEHPMFE@?$AAm?$AAs?$AA_?$AAs?$AAi?$AAn?$AAg?$AAl?$AAe?$AAt?$AAo?$AAn@
  00015	e8 00 00 00 00	 call	 __wassert
  0001a	a1 00 00 00 00	 mov	 eax, DWORD PTR ?ms_singleton@?$CSingleton@VCPythonPlayer@@@@0PAVCPythonPlayer@@A ; CSingleton<CPythonPlayer>::ms_singleton
  0001f	83 c4 0c	 add	 esp, 12			; 0000000cH
$LN5@playerIsOp:
; File C:\Anka2Project\Anka2Project\Source\Binary\source\UserInterface\PythonPlayerModule.cpp

; 2754 : 	return Py_BuildValue("b", CPythonPlayer::Instance().IsOpenMall());

  00022	0f b6 80 30 b4
	01 00		 movzx	 eax, BYTE PTR [eax+111664]
  00029	50		 push	 eax
  0002a	68 00 00 00 00	 push	 OFFSET ??_C@_01OJONOECF@b@
  0002f	ff 15 00 00 00
	00		 call	 DWORD PTR __imp__Py_BuildValue
  00035	83 c4 08	 add	 esp, 8

; 2755 : }

  00038	c3		 ret	 0
?playerIsOpenMall@@YAPAU_object@@PAU1@0@Z ENDP		; playerIsOpenMall
_TEXT	ENDS
; Function compile flags: /Ogtp
; File C:\Anka2Project\Anka2Project\Source\Binary\source\UserInterface\PythonPlayerModule.cpp
; File C:\Anka2Project\Anka2Project\Source\Binary\source\eterBase\Singleton.h
; File C:\Anka2Project\Anka2Project\Source\Binary\source\UserInterface\PythonPlayerModule.cpp
;	COMDAT ?playerGetActivePetItemId@@YAPAU_object@@PAU1@0@Z
_TEXT	SEGMENT
_poSelf$ = 8						; size = 4
_poArgs$ = 12						; size = 4
?playerGetActivePetItemId@@YAPAU_object@@PAU1@0@Z PROC	; playerGetActivePetItemId, COMDAT
; File C:\Anka2Project\Anka2Project\Source\Binary\source\eterBase\Singleton.h

; 26   : 		assert(ms_singleton);

  00000	8b 0d 00 00 00
	00		 mov	 ecx, DWORD PTR ?ms_singleton@?$CSingleton@VCPythonPlayer@@@@0PAVCPythonPlayer@@A ; CSingleton<CPythonPlayer>::ms_singleton
  00006	85 c9		 test	 ecx, ecx
  00008	75 1a		 jne	 SHORT $LN5@playerGetA
  0000a	6a 1a		 push	 26			; 0000001aH
  0000c	68 00 00 00 00	 push	 OFFSET ??_C@_1IO@CAJLEEOI@?$AAC?$AA?3?$AA?2?$AAA?$AAn?$AAk?$AAa?$AA2?$AAP?$AAr?$AAo?$AAj?$AAe?$AAc?$AAt@
  00011	68 00 00 00 00	 push	 OFFSET ??_C@_1BK@FMEHPMFE@?$AAm?$AAs?$AA_?$AAs?$AAi?$AAn?$AAg?$AAl?$AAe?$AAt?$AAo?$AAn@
  00016	e8 00 00 00 00	 call	 __wassert
  0001b	8b 0d 00 00 00
	00		 mov	 ecx, DWORD PTR ?ms_singleton@?$CSingleton@VCPythonPlayer@@@@0PAVCPythonPlayer@@A ; CSingleton<CPythonPlayer>::ms_singleton
  00021	83 c4 0c	 add	 esp, 12			; 0000000cH
$LN5@playerGetA:
; File C:\Anka2Project\Anka2Project\Source\Binary\source\UserInterface\PythonPlayerModule.cpp

; 2759 : 	return Py_BuildValue("i", CPythonPlayer::Instance().GetActivePet());

  00024	e8 00 00 00 00	 call	 ?GetActivePet@CPythonPlayer@@QAEKXZ ; CPythonPlayer::GetActivePet
  00029	50		 push	 eax
  0002a	68 00 00 00 00	 push	 OFFSET ??_C@_01KBJDNOO@i@
  0002f	ff 15 00 00 00
	00		 call	 DWORD PTR __imp__Py_BuildValue
  00035	83 c4 08	 add	 esp, 8

; 2760 : }

  00038	c3		 ret	 0
?playerGetActivePetItemId@@YAPAU_object@@PAU1@0@Z ENDP	; playerGetActivePetItemId
_TEXT	ENDS
; Function compile flags: /Ogtp
; File C:\Anka2Project\Anka2Project\Source\Binary\source\UserInterface\PythonPlayerModule.cpp
; File C:\Anka2Project\Anka2Project\Source\Binary\source\eterBase\Singleton.h
; File C:\Anka2Project\Anka2Project\Source\Binary\source\UserInterface\PythonPlayerModule.cpp
; File C:\Anka2Project\Anka2Project\Source\Binary\source\eterBase\Singleton.h
; File C:\Anka2Project\Anka2Project\Source\Binary\source\UserInterface\PythonPlayerModule.cpp
;	COMDAT ?playerGetPetItemVNumInBag@@YAPAU_object@@PAU1@0@Z
_TEXT	SEGMENT
_iPetID$ = -8						; size = 4
_pPet$ = -4						; size = 4
_poSelf$ = 8						; size = 4
_poArgs$ = 12						; size = 4
?playerGetPetItemVNumInBag@@YAPAU_object@@PAU1@0@Z PROC	; playerGetPetItemVNumInBag, COMDAT

; 2763 : {

  00000	55		 push	 ebp
  00001	8b ec		 mov	 ebp, esp
  00003	83 ec 08	 sub	 esp, 8

; 2764 : 	int iPetID;
; 2765 : 	if (!PyTuple_GetInteger(poArgs, 0, &iPetID))

  00006	8d 45 f8	 lea	 eax, DWORD PTR _iPetID$[ebp]
  00009	50		 push	 eax
  0000a	6a 00		 push	 0
  0000c	ff 75 0c	 push	 DWORD PTR _poArgs$[ebp]
  0000f	e8 00 00 00 00	 call	 ?PyTuple_GetInteger@@YA_NPAU_object@@HPAH@Z ; PyTuple_GetInteger
  00014	83 c4 0c	 add	 esp, 12			; 0000000cH
  00017	84 c0		 test	 al, al
  00019	75 09		 jne	 SHORT $LN2@playerGetP

; 2766 : 		return Py_BadArgument();

  0001b	e8 00 00 00 00	 call	 ?Py_BadArgument@@YAPAU_object@@XZ ; Py_BadArgument

; 2775 : }

  00020	8b e5		 mov	 esp, ebp
  00022	5d		 pop	 ebp
  00023	c3		 ret	 0
$LN2@playerGetP:
; File C:\Anka2Project\Anka2Project\Source\Binary\source\eterBase\Singleton.h

; 26   : 		assert(ms_singleton);

  00024	8b 0d 00 00 00
	00		 mov	 ecx, DWORD PTR ?ms_singleton@?$CSingleton@VCPythonPlayer@@@@0PAVCPythonPlayer@@A ; CSingleton<CPythonPlayer>::ms_singleton
; File C:\Anka2Project\Anka2Project\Source\Binary\source\UserInterface\PythonPlayerModule.cpp

; 2768 : 	CPythonPlayer::TPetData* pPet = nullptr;

  0002a	c7 45 fc 00 00
	00 00		 mov	 DWORD PTR _pPet$[ebp], 0
; File C:\Anka2Project\Anka2Project\Source\Binary\source\eterBase\Singleton.h

; 26   : 		assert(ms_singleton);

  00031	85 c9		 test	 ecx, ecx
  00033	75 1a		 jne	 SHORT $LN7@playerGetP
  00035	6a 1a		 push	 26			; 0000001aH
  00037	68 00 00 00 00	 push	 OFFSET ??_C@_1IO@CAJLEEOI@?$AAC?$AA?3?$AA?2?$AAA?$AAn?$AAk?$AAa?$AA2?$AAP?$AAr?$AAo?$AAj?$AAe?$AAc?$AAt@
  0003c	68 00 00 00 00	 push	 OFFSET ??_C@_1BK@FMEHPMFE@?$AAm?$AAs?$AA_?$AAs?$AAi?$AAn?$AAg?$AAl?$AAe?$AAt?$AAo?$AAn@
  00041	e8 00 00 00 00	 call	 __wassert
  00046	8b 0d 00 00 00
	00		 mov	 ecx, DWORD PTR ?ms_singleton@?$CSingleton@VCPythonPlayer@@@@0PAVCPythonPlayer@@A ; CSingleton<CPythonPlayer>::ms_singleton
  0004c	83 c4 0c	 add	 esp, 12			; 0000000cH
$LN7@playerGetP:
; File C:\Anka2Project\Anka2Project\Source\Binary\source\UserInterface\PythonPlayerModule.cpp

; 2769 : 	CPythonPlayer::Instance().GetPetInfo(iPetID, &pPet);

  0004f	8d 45 fc	 lea	 eax, DWORD PTR _pPet$[ebp]
  00052	50		 push	 eax
  00053	ff 75 f8	 push	 DWORD PTR _iPetID$[ebp]
  00056	e8 00 00 00 00	 call	 ?GetPetInfo@CPythonPlayer@@QAE_NKPAPAUSPetData@1@@Z ; CPythonPlayer::GetPetInfo

; 2770 : 
; 2771 : 	if (!pPet)

  0005b	8b 45 fc	 mov	 eax, DWORD PTR _pPet$[ebp]
  0005e	85 c0		 test	 eax, eax
  00060	75 13		 jne	 SHORT $LN3@playerGetP

; 2772 : 		return Py_BuildValue("i", 0);

  00062	50		 push	 eax

; 2775 : }

  00063	68 00 00 00 00	 push	 OFFSET ??_C@_01KBJDNOO@i@
  00068	ff 15 00 00 00
	00		 call	 DWORD PTR __imp__Py_BuildValue
  0006e	83 c4 08	 add	 esp, 8
  00071	8b e5		 mov	 esp, ebp
  00073	5d		 pop	 ebp
  00074	c3		 ret	 0
$LN3@playerGetP:

; 2773 : 
; 2774 : 	return Py_BuildValue("i", pPet->GetSummonItemVnum());

  00075	ff 70 04	 push	 DWORD PTR [eax+4]

; 2775 : }

  00078	68 00 00 00 00	 push	 OFFSET ??_C@_01KBJDNOO@i@
  0007d	ff 15 00 00 00
	00		 call	 DWORD PTR __imp__Py_BuildValue
  00083	83 c4 08	 add	 esp, 8
  00086	8b e5		 mov	 esp, ebp
  00088	5d		 pop	 ebp
  00089	c3		 ret	 0
?playerGetPetItemVNumInBag@@YAPAU_object@@PAU1@0@Z ENDP	; playerGetPetItemVNumInBag
_TEXT	ENDS
; Function compile flags: /Ogtp
; File C:\Anka2Project\Anka2Project\Source\Binary\source\UserInterface\PythonPlayerModule.cpp
; File C:\Anka2Project\Anka2Project\Source\Binary\source\eterBase\Singleton.h
; File C:\Anka2Project\Anka2Project\Source\Binary\source\UserInterface\PythonPlayerModule.cpp
; File C:\Anka2Project\Anka2Project\Source\Binary\source\eterBase\Singleton.h
; File C:\Anka2Project\Anka2Project\Source\Binary\source\UserInterface\PythonPlayerModule.cpp
;	COMDAT ?playerGetPetSkill@@YAPAU_object@@PAU1@0@Z
_TEXT	SEGMENT
_iPetID$ = -8						; size = 4
_pPet$ = -4						; size = 4
_poSelf$ = 8						; size = 4
_poArgs$ = 12						; size = 4
?playerGetPetSkill@@YAPAU_object@@PAU1@0@Z PROC		; playerGetPetSkill, COMDAT

; 2778 : {

  00000	55		 push	 ebp
  00001	8b ec		 mov	 ebp, esp
  00003	83 ec 08	 sub	 esp, 8

; 2779 : 	int iPetID;
; 2780 : 	if (!PyTuple_GetInteger(poArgs, 0, &iPetID))

  00006	8d 45 f8	 lea	 eax, DWORD PTR _iPetID$[ebp]
  00009	50		 push	 eax
  0000a	6a 00		 push	 0
  0000c	ff 75 0c	 push	 DWORD PTR _poArgs$[ebp]
  0000f	e8 00 00 00 00	 call	 ?PyTuple_GetInteger@@YA_NPAU_object@@HPAH@Z ; PyTuple_GetInteger
  00014	83 c4 0c	 add	 esp, 12			; 0000000cH
  00017	84 c0		 test	 al, al
  00019	75 09		 jne	 SHORT $LN2@playerGetP

; 2781 : 		return Py_BadArgument();

  0001b	e8 00 00 00 00	 call	 ?Py_BadArgument@@YAPAU_object@@XZ ; Py_BadArgument

; 2790 : 		pPet->skillData.bSkillCount,
; 2791 : 		pPet->skillData.aSkillInfo[0].bSkill,
; 2792 : 		pPet->skillData.aSkillInfo[0].bLevel,
; 2793 : 		pPet->skillData.aSkillInfo[0].dwCooltime,
; 2794 : 		pPet->skillData.aSkillInfo[1].bSkill,
; 2795 : 		pPet->skillData.aSkillInfo[1].bLevel,
; 2796 : 		pPet->skillData.aSkillInfo[1].dwCooltime,
; 2797 : 		pPet->skillData.aSkillInfo[2].bSkill,
; 2798 : 		pPet->skillData.aSkillInfo[2].bLevel,
; 2799 : 		pPet->skillData.aSkillInfo[2].dwCooltime);
; 2800 : }

  00020	8b e5		 mov	 esp, ebp
  00022	5d		 pop	 ebp
  00023	c3		 ret	 0
$LN2@playerGetP:
; File C:\Anka2Project\Anka2Project\Source\Binary\source\eterBase\Singleton.h

; 26   : 		assert(ms_singleton);

  00024	8b 0d 00 00 00
	00		 mov	 ecx, DWORD PTR ?ms_singleton@?$CSingleton@VCPythonPlayer@@@@0PAVCPythonPlayer@@A ; CSingleton<CPythonPlayer>::ms_singleton
; File C:\Anka2Project\Anka2Project\Source\Binary\source\UserInterface\PythonPlayerModule.cpp

; 2783 : 	CPythonPlayer::TPetData* pPet = nullptr;

  0002a	c7 45 fc 00 00
	00 00		 mov	 DWORD PTR _pPet$[ebp], 0
; File C:\Anka2Project\Anka2Project\Source\Binary\source\eterBase\Singleton.h

; 26   : 		assert(ms_singleton);

  00031	85 c9		 test	 ecx, ecx
  00033	75 1a		 jne	 SHORT $LN7@playerGetP
  00035	6a 1a		 push	 26			; 0000001aH
  00037	68 00 00 00 00	 push	 OFFSET ??_C@_1IO@CAJLEEOI@?$AAC?$AA?3?$AA?2?$AAA?$AAn?$AAk?$AAa?$AA2?$AAP?$AAr?$AAo?$AAj?$AAe?$AAc?$AAt@
  0003c	68 00 00 00 00	 push	 OFFSET ??_C@_1BK@FMEHPMFE@?$AAm?$AAs?$AA_?$AAs?$AAi?$AAn?$AAg?$AAl?$AAe?$AAt?$AAo?$AAn@
  00041	e8 00 00 00 00	 call	 __wassert
  00046	8b 0d 00 00 00
	00		 mov	 ecx, DWORD PTR ?ms_singleton@?$CSingleton@VCPythonPlayer@@@@0PAVCPythonPlayer@@A ; CSingleton<CPythonPlayer>::ms_singleton
  0004c	83 c4 0c	 add	 esp, 12			; 0000000cH
$LN7@playerGetP:
; File C:\Anka2Project\Anka2Project\Source\Binary\source\UserInterface\PythonPlayerModule.cpp

; 2784 : 	CPythonPlayer::Instance().GetPetInfo(iPetID, &pPet);

  0004f	8d 45 fc	 lea	 eax, DWORD PTR _pPet$[ebp]
  00052	50		 push	 eax
  00053	ff 75 f8	 push	 DWORD PTR _iPetID$[ebp]
  00056	e8 00 00 00 00	 call	 ?GetPetInfo@CPythonPlayer@@QAE_NKPAPAUSPetData@1@@Z ; CPythonPlayer::GetPetInfo

; 2785 : 
; 2786 : 	if (!pPet)

  0005b	8b 4d fc	 mov	 ecx, DWORD PTR _pPet$[ebp]
  0005e	85 c9		 test	 ecx, ecx
  00060	75 1c		 jne	 SHORT $LN3@playerGetP

; 2787 : 		return Py_BuildValue("iiiiiiiiii", 0, 0, 0, 0, 0, 0, 0, 0, 0, 0);

  00062	51		 push	 ecx
  00063	51		 push	 ecx
  00064	51		 push	 ecx
  00065	51		 push	 ecx
  00066	51		 push	 ecx
  00067	51		 push	 ecx
  00068	51		 push	 ecx
  00069	51		 push	 ecx
  0006a	51		 push	 ecx
  0006b	51		 push	 ecx

; 2790 : 		pPet->skillData.bSkillCount,
; 2791 : 		pPet->skillData.aSkillInfo[0].bSkill,
; 2792 : 		pPet->skillData.aSkillInfo[0].bLevel,
; 2793 : 		pPet->skillData.aSkillInfo[0].dwCooltime,
; 2794 : 		pPet->skillData.aSkillInfo[1].bSkill,
; 2795 : 		pPet->skillData.aSkillInfo[1].bLevel,
; 2796 : 		pPet->skillData.aSkillInfo[1].dwCooltime,
; 2797 : 		pPet->skillData.aSkillInfo[2].bSkill,
; 2798 : 		pPet->skillData.aSkillInfo[2].bLevel,
; 2799 : 		pPet->skillData.aSkillInfo[2].dwCooltime);
; 2800 : }

  0006c	68 00 00 00 00	 push	 OFFSET ??_C@_0L@LNJHJPCL@iiiiiiiiii@
  00071	ff 15 00 00 00
	00		 call	 DWORD PTR __imp__Py_BuildValue
  00077	83 c4 2c	 add	 esp, 44			; 0000002cH
  0007a	8b e5		 mov	 esp, ebp
  0007c	5d		 pop	 ebp
  0007d	c3		 ret	 0
$LN3@playerGetP:

; 2788 : 
; 2789 : 	return Py_BuildValue("iiiiiiiiii", 

  0007e	ff b1 04 01 00
	00		 push	 DWORD PTR [ecx+260]
  00084	0f b6 81 01 01
	00 00		 movzx	 eax, BYTE PTR [ecx+257]
  0008b	50		 push	 eax
  0008c	0f b6 81 00 01
	00 00		 movzx	 eax, BYTE PTR [ecx+256]
  00093	50		 push	 eax
  00094	ff b1 ac 00 00
	00		 push	 DWORD PTR [ecx+172]
  0009a	0f b6 81 a9 00
	00 00		 movzx	 eax, BYTE PTR [ecx+169]
  000a1	50		 push	 eax
  000a2	0f b6 81 a8 00
	00 00		 movzx	 eax, BYTE PTR [ecx+168]
  000a9	50		 push	 eax
  000aa	ff 71 54	 push	 DWORD PTR [ecx+84]
  000ad	0f b6 41 51	 movzx	 eax, BYTE PTR [ecx+81]
  000b1	50		 push	 eax
  000b2	0f b6 41 50	 movzx	 eax, BYTE PTR [ecx+80]
  000b6	50		 push	 eax
  000b7	0f b6 41 4c	 movzx	 eax, BYTE PTR [ecx+76]
  000bb	50		 push	 eax

; 2790 : 		pPet->skillData.bSkillCount,
; 2791 : 		pPet->skillData.aSkillInfo[0].bSkill,
; 2792 : 		pPet->skillData.aSkillInfo[0].bLevel,
; 2793 : 		pPet->skillData.aSkillInfo[0].dwCooltime,
; 2794 : 		pPet->skillData.aSkillInfo[1].bSkill,
; 2795 : 		pPet->skillData.aSkillInfo[1].bLevel,
; 2796 : 		pPet->skillData.aSkillInfo[1].dwCooltime,
; 2797 : 		pPet->skillData.aSkillInfo[2].bSkill,
; 2798 : 		pPet->skillData.aSkillInfo[2].bLevel,
; 2799 : 		pPet->skillData.aSkillInfo[2].dwCooltime);
; 2800 : }

  000bc	68 00 00 00 00	 push	 OFFSET ??_C@_0L@LNJHJPCL@iiiiiiiiii@
  000c1	ff 15 00 00 00
	00		 call	 DWORD PTR __imp__Py_BuildValue
  000c7	83 c4 2c	 add	 esp, 44			; 0000002cH
  000ca	8b e5		 mov	 esp, ebp
  000cc	5d		 pop	 ebp
  000cd	c3		 ret	 0
?playerGetPetSkill@@YAPAU_object@@PAU1@0@Z ENDP		; playerGetPetSkill
_TEXT	ENDS
; Function compile flags: /Ogtp
; File C:\Anka2Project\Anka2Project\Source\Binary\source\UserInterface\PythonPlayerModule.cpp
; File C:\Anka2Project\Anka2Project\Source\Binary\source\eterBase\Singleton.h
; File C:\Anka2Project\Anka2Project\Source\Binary\source\UserInterface\PythonPlayerModule.cpp
; File C:\Anka2Project\Anka2Project\Source\Binary\source\eterBase\Singleton.h
; File C:\Anka2Project\Anka2Project\Source\Binary\source\UserInterface\PythonPlayerModule.cpp
;	COMDAT ?playerGetPetSkillByIndex@@YAPAU_object@@PAU1@0@Z
_TEXT	SEGMENT
tv434 = -24						; size = 4
tv407 = -20						; size = 4
_iSkillIndex$ = -16					; size = 4
_iPetID$ = -12						; size = 4
_pPet$ = -8						; size = 4
_dwNextSkillLevel$1$ = -1				; size = 1
_poSelf$ = 8						; size = 4
_poArgs$ = 12						; size = 4
?playerGetPetSkillByIndex@@YAPAU_object@@PAU1@0@Z PROC	; playerGetPetSkillByIndex, COMDAT

; 2803 : {

  00000	55		 push	 ebp
  00001	8b ec		 mov	 ebp, esp
  00003	83 ec 18	 sub	 esp, 24			; 00000018H

; 2804 : 	int iPetID;
; 2805 : 	if (!PyTuple_GetInteger(poArgs, 0, &iPetID))

  00006	8d 45 f4	 lea	 eax, DWORD PTR _iPetID$[ebp]
  00009	56		 push	 esi
  0000a	8b 75 0c	 mov	 esi, DWORD PTR _poArgs$[ebp]
  0000d	50		 push	 eax
  0000e	6a 00		 push	 0
  00010	56		 push	 esi
  00011	e8 00 00 00 00	 call	 ?PyTuple_GetInteger@@YA_NPAU_object@@HPAH@Z ; PyTuple_GetInteger
  00016	83 c4 0c	 add	 esp, 12			; 0000000cH
  00019	84 c0		 test	 al, al
  0001b	75 0f		 jne	 SHORT $LN2@playerGetP

; 2806 : 		return Py_BuildException();

  0001d	6a 00		 push	 0
  0001f	e8 00 00 00 00	 call	 ?Py_BuildException@@YAPAU_object@@PBDZZ ; Py_BuildException
  00024	83 c4 04	 add	 esp, 4
  00027	5e		 pop	 esi

; 2827 : 		pPet->skillData.aSkillInfo[iSkillIndex].bSkill,
; 2828 : 		pPet->skillData.aSkillInfo[iSkillIndex].bLevel,
; 2829 : 		pPet->skillData.aSkillInfo[iSkillIndex].dwFormula1[dwSkillLevel],
; 2830 : 		pPet->skillData.aSkillInfo[iSkillIndex].dwFormula2[dwSkillLevel],
; 2831 : 		pPet->skillData.aSkillInfo[iSkillIndex].dwFormula3[dwSkillLevel],
; 2832 : 		pPet->skillData.aSkillInfo[iSkillIndex].dwFormula1[dwNextSkillLevel],
; 2833 : 		pPet->skillData.aSkillInfo[iSkillIndex].dwFormula2[dwNextSkillLevel],
; 2834 : 		pPet->skillData.aSkillInfo[iSkillIndex].dwFormula3[dwNextSkillLevel],
; 2835 : 		bBonusValue);
; 2836 : }

  00028	8b e5		 mov	 esp, ebp
  0002a	5d		 pop	 ebp
  0002b	c3		 ret	 0
$LN2@playerGetP:

; 2807 : 
; 2808 : 	int iSkillIndex;
; 2809 : 	if (!PyTuple_GetInteger(poArgs, 1, &iSkillIndex))

  0002c	8d 45 f0	 lea	 eax, DWORD PTR _iSkillIndex$[ebp]
  0002f	50		 push	 eax
  00030	6a 01		 push	 1
  00032	56		 push	 esi
  00033	e8 00 00 00 00	 call	 ?PyTuple_GetInteger@@YA_NPAU_object@@HPAH@Z ; PyTuple_GetInteger
  00038	83 c4 0c	 add	 esp, 12			; 0000000cH
  0003b	84 c0		 test	 al, al
  0003d	75 0a		 jne	 SHORT $LN3@playerGetP

; 2810 : 		return Py_BadArgument();

  0003f	e8 00 00 00 00	 call	 ?Py_BadArgument@@YAPAU_object@@XZ ; Py_BadArgument
  00044	5e		 pop	 esi

; 2827 : 		pPet->skillData.aSkillInfo[iSkillIndex].bSkill,
; 2828 : 		pPet->skillData.aSkillInfo[iSkillIndex].bLevel,
; 2829 : 		pPet->skillData.aSkillInfo[iSkillIndex].dwFormula1[dwSkillLevel],
; 2830 : 		pPet->skillData.aSkillInfo[iSkillIndex].dwFormula2[dwSkillLevel],
; 2831 : 		pPet->skillData.aSkillInfo[iSkillIndex].dwFormula3[dwSkillLevel],
; 2832 : 		pPet->skillData.aSkillInfo[iSkillIndex].dwFormula1[dwNextSkillLevel],
; 2833 : 		pPet->skillData.aSkillInfo[iSkillIndex].dwFormula2[dwNextSkillLevel],
; 2834 : 		pPet->skillData.aSkillInfo[iSkillIndex].dwFormula3[dwNextSkillLevel],
; 2835 : 		bBonusValue);
; 2836 : }

  00045	8b e5		 mov	 esp, ebp
  00047	5d		 pop	 ebp
  00048	c3		 ret	 0
$LN3@playerGetP:
; File C:\Anka2Project\Anka2Project\Source\Binary\source\eterBase\Singleton.h

; 26   : 		assert(ms_singleton);

  00049	8b 0d 00 00 00
	00		 mov	 ecx, DWORD PTR ?ms_singleton@?$CSingleton@VCPythonPlayer@@@@0PAVCPythonPlayer@@A ; CSingleton<CPythonPlayer>::ms_singleton
; File C:\Anka2Project\Anka2Project\Source\Binary\source\UserInterface\PythonPlayerModule.cpp

; 2812 : 	CPythonPlayer::TPetData* pPet = nullptr;

  0004f	c7 45 f8 00 00
	00 00		 mov	 DWORD PTR _pPet$[ebp], 0
; File C:\Anka2Project\Anka2Project\Source\Binary\source\eterBase\Singleton.h

; 26   : 		assert(ms_singleton);

  00056	85 c9		 test	 ecx, ecx
  00058	75 1a		 jne	 SHORT $LN9@playerGetP
  0005a	6a 1a		 push	 26			; 0000001aH
  0005c	68 00 00 00 00	 push	 OFFSET ??_C@_1IO@CAJLEEOI@?$AAC?$AA?3?$AA?2?$AAA?$AAn?$AAk?$AAa?$AA2?$AAP?$AAr?$AAo?$AAj?$AAe?$AAc?$AAt@
  00061	68 00 00 00 00	 push	 OFFSET ??_C@_1BK@FMEHPMFE@?$AAm?$AAs?$AA_?$AAs?$AAi?$AAn?$AAg?$AAl?$AAe?$AAt?$AAo?$AAn@
  00066	e8 00 00 00 00	 call	 __wassert
  0006b	8b 0d 00 00 00
	00		 mov	 ecx, DWORD PTR ?ms_singleton@?$CSingleton@VCPythonPlayer@@@@0PAVCPythonPlayer@@A ; CSingleton<CPythonPlayer>::ms_singleton
  00071	83 c4 0c	 add	 esp, 12			; 0000000cH
$LN9@playerGetP:
; File C:\Anka2Project\Anka2Project\Source\Binary\source\UserInterface\PythonPlayerModule.cpp

; 2813 : 	CPythonPlayer::Instance().GetPetInfo(iPetID, &pPet);

  00074	8d 45 f8	 lea	 eax, DWORD PTR _pPet$[ebp]
  00077	50		 push	 eax
  00078	ff 75 f4	 push	 DWORD PTR _iPetID$[ebp]
  0007b	e8 00 00 00 00	 call	 ?GetPetInfo@CPythonPlayer@@QAE_NKPAPAUSPetData@1@@Z ; CPythonPlayer::GetPetInfo

; 2814 : 
; 2815 : 	if (!pPet)

  00080	8b 75 f8	 mov	 esi, DWORD PTR _pPet$[ebp]
  00083	85 f6		 test	 esi, esi
  00085	75 1c		 jne	 SHORT $LN4@playerGetP

; 2816 : 		return Py_BuildValue("iiiiiiiii", 0, 0, 0, 0, 0, 0, 0, 0, 0);

  00087	56		 push	 esi
  00088	56		 push	 esi
  00089	56		 push	 esi
  0008a	56		 push	 esi
  0008b	56		 push	 esi
  0008c	56		 push	 esi
  0008d	56		 push	 esi
  0008e	56		 push	 esi
  0008f	56		 push	 esi
  00090	68 00 00 00 00	 push	 OFFSET ??_C@_09BOADOOAM@iiiiiiiii@
  00095	ff 15 00 00 00
	00		 call	 DWORD PTR __imp__Py_BuildValue
  0009b	83 c4 28	 add	 esp, 40			; 00000028H
  0009e	5e		 pop	 esi

; 2827 : 		pPet->skillData.aSkillInfo[iSkillIndex].bSkill,
; 2828 : 		pPet->skillData.aSkillInfo[iSkillIndex].bLevel,
; 2829 : 		pPet->skillData.aSkillInfo[iSkillIndex].dwFormula1[dwSkillLevel],
; 2830 : 		pPet->skillData.aSkillInfo[iSkillIndex].dwFormula2[dwSkillLevel],
; 2831 : 		pPet->skillData.aSkillInfo[iSkillIndex].dwFormula3[dwSkillLevel],
; 2832 : 		pPet->skillData.aSkillInfo[iSkillIndex].dwFormula1[dwNextSkillLevel],
; 2833 : 		pPet->skillData.aSkillInfo[iSkillIndex].dwFormula2[dwNextSkillLevel],
; 2834 : 		pPet->skillData.aSkillInfo[iSkillIndex].dwFormula3[dwNextSkillLevel],
; 2835 : 		bBonusValue);
; 2836 : }

  0009f	8b e5		 mov	 esp, ebp
  000a1	5d		 pop	 ebp
  000a2	c3		 ret	 0
$LN4@playerGetP:
  000a3	53		 push	 ebx

; 2817 : 
; 2818 : 	BYTE dwSkillLevel = pPet->skillData.aSkillInfo[iSkillIndex].bLevel - 1;

  000a4	6b 5d f0 58	 imul	 ebx, DWORD PTR _iSkillIndex$[ebp], 88
  000a8	8a 54 33 51	 mov	 dl, BYTE PTR [ebx+esi+81]
  000ac	8d 04 33	 lea	 eax, DWORD PTR [ebx+esi]
  000af	89 45 e8	 mov	 DWORD PTR tv434[ebp], eax

; 2819 : 	BYTE dwNextSkillLevel = dwSkillLevel + 1;
; 2820 : 
; 2821 : 	if (dwNextSkillLevel > PET_GROWTH_SKILL_LEVEL_MAX)

  000b2	80 fa 14	 cmp	 dl, 20			; 00000014H
  000b5	0f b6 c2	 movzx	 eax, dl
  000b8	88 55 ff	 mov	 BYTE PTR _dwNextSkillLevel$1$[ebp], dl
  000bb	8d 4a ff	 lea	 ecx, DWORD PTR [edx-1]
  000be	c7 45 ec 14 00
	00 00		 mov	 DWORD PTR tv407[ebp], 20 ; 00000014H
  000c5	0f 47 45 ec	 cmova	 eax, DWORD PTR tv407[ebp]

; 2822 : 		dwNextSkillLevel = PET_GROWTH_SKILL_LEVEL_MAX;
; 2823 : 
; 2824 : 	BYTE bBonusValue = (pPet->skillData.aSkillInfo[iSkillIndex].bLevel == PET_GROWTH_SKILL_LEVEL_MAX) ? 0 : 1;
; 2825 : 
; 2826 : 	return Py_BuildValue("iiiiiiiii", 

  000c9	0f b6 d0	 movzx	 edx, al
  000cc	57		 push	 edi
  000cd	6b 7d f0 2c	 imul	 edi, DWORD PTR _iSkillIndex$[ebp], 44
  000d1	0f b6 c9	 movzx	 ecx, cl
  000d4	8d 04 1a	 lea	 eax, DWORD PTR [edx+ebx]
  000d7	03 f0		 add	 esi, eax
  000d9	8d 04 19	 lea	 eax, DWORD PTR [ecx+ebx]
  000dc	8b 5d f8	 mov	 ebx, DWORD PTR _pPet$[ebp]
  000df	03 d8		 add	 ebx, eax
  000e1	33 c0		 xor	 eax, eax
  000e3	80 7d ff 14	 cmp	 BYTE PTR _dwNextSkillLevel$1$[ebp], 20 ; 00000014H
  000e7	0f 95 c0	 setne	 al
  000ea	50		 push	 eax
  000eb	0f b6 86 94 00
	00 00		 movzx	 eax, BYTE PTR [esi+148]
  000f2	50		 push	 eax
  000f3	8d 04 17	 lea	 eax, DWORD PTR [edi+edx]
  000f6	8b 55 f8	 mov	 edx, DWORD PTR _pPet$[ebp]
  000f9	0f b7 44 42 6c	 movzx	 eax, WORD PTR [edx+eax*2+108]
  000fe	50		 push	 eax
  000ff	0f b6 46 58	 movzx	 eax, BYTE PTR [esi+88]
  00103	50		 push	 eax
  00104	0f b6 83 94 00
	00 00		 movzx	 eax, BYTE PTR [ebx+148]
  0010b	50		 push	 eax
  0010c	8d 04 39	 lea	 eax, DWORD PTR [ecx+edi]
  0010f	0f b7 44 42 6c	 movzx	 eax, WORD PTR [edx+eax*2+108]
  00114	50		 push	 eax
  00115	0f b6 43 58	 movzx	 eax, BYTE PTR [ebx+88]
  00119	50		 push	 eax
  0011a	0f b6 45 ff	 movzx	 eax, BYTE PTR _dwNextSkillLevel$1$[ebp]
  0011e	50		 push	 eax
  0011f	8b 45 e8	 mov	 eax, DWORD PTR tv434[ebp]
  00122	0f b6 40 50	 movzx	 eax, BYTE PTR [eax+80]
  00126	50		 push	 eax
  00127	68 00 00 00 00	 push	 OFFSET ??_C@_09BOADOOAM@iiiiiiiii@
  0012c	ff 15 00 00 00
	00		 call	 DWORD PTR __imp__Py_BuildValue
  00132	83 c4 28	 add	 esp, 40			; 00000028H
  00135	5f		 pop	 edi
  00136	5b		 pop	 ebx
  00137	5e		 pop	 esi

; 2827 : 		pPet->skillData.aSkillInfo[iSkillIndex].bSkill,
; 2828 : 		pPet->skillData.aSkillInfo[iSkillIndex].bLevel,
; 2829 : 		pPet->skillData.aSkillInfo[iSkillIndex].dwFormula1[dwSkillLevel],
; 2830 : 		pPet->skillData.aSkillInfo[iSkillIndex].dwFormula2[dwSkillLevel],
; 2831 : 		pPet->skillData.aSkillInfo[iSkillIndex].dwFormula3[dwSkillLevel],
; 2832 : 		pPet->skillData.aSkillInfo[iSkillIndex].dwFormula1[dwNextSkillLevel],
; 2833 : 		pPet->skillData.aSkillInfo[iSkillIndex].dwFormula2[dwNextSkillLevel],
; 2834 : 		pPet->skillData.aSkillInfo[iSkillIndex].dwFormula3[dwNextSkillLevel],
; 2835 : 		bBonusValue);
; 2836 : }

  00138	8b e5		 mov	 esp, ebp
  0013a	5d		 pop	 ebp
  0013b	c3		 ret	 0
?playerGetPetSkillByIndex@@YAPAU_object@@PAU1@0@Z ENDP	; playerGetPetSkillByIndex
_TEXT	ENDS
; Function compile flags: /Ogtp
; File C:\Anka2Project\Anka2Project\Source\Binary\source\UserInterface\PythonPlayerModule.cpp
; File C:\Anka2Project\Anka2Project\Source\Binary\source\eterBase\Singleton.h
; File C:\Anka2Project\Anka2Project\Source\Binary\source\UserInterface\PythonPlayerModule.cpp
; File C:\Anka2Project\Anka2Project\Source\Binary\source\eterBase\Singleton.h
; File C:\Anka2Project\Anka2Project\Source\Binary\source\UserInterface\PythonPlayerModule.cpp
; File C:\Anka2Project\Anka2Project\Source\Binary\source\UserInterface\PythonPlayer.h
; File C:\Anka2Project\Anka2Project\Source\Binary\source\UserInterface\PythonPlayerModule.cpp
;	COMDAT ?playerGetActivePetItemVNum@@YAPAU_object@@PAU1@0@Z
_TEXT	SEGMENT
_pPet$ = -4						; size = 4
_poSelf$ = 8						; size = 4
_poArgs$ = 12						; size = 4
?playerGetActivePetItemVNum@@YAPAU_object@@PAU1@0@Z PROC ; playerGetActivePetItemVNum, COMDAT

; 2839 : {

  00000	55		 push	 ebp
  00001	8b ec		 mov	 ebp, esp
  00003	51		 push	 ecx
; File C:\Anka2Project\Anka2Project\Source\Binary\source\eterBase\Singleton.h

; 26   : 		assert(ms_singleton);

  00004	8b 0d 00 00 00
	00		 mov	 ecx, DWORD PTR ?ms_singleton@?$CSingleton@VCPythonPlayer@@@@0PAVCPythonPlayer@@A ; CSingleton<CPythonPlayer>::ms_singleton
; File C:\Anka2Project\Anka2Project\Source\Binary\source\UserInterface\PythonPlayerModule.cpp

; 2840 : 	CPythonPlayer::TPetData* pPet = nullptr;

  0000a	c7 45 fc 00 00
	00 00		 mov	 DWORD PTR _pPet$[ebp], 0
; File C:\Anka2Project\Anka2Project\Source\Binary\source\eterBase\Singleton.h

; 26   : 		assert(ms_singleton);

  00011	85 c9		 test	 ecx, ecx
  00013	75 1a		 jne	 SHORT $LN5@playerGetA
  00015	6a 1a		 push	 26			; 0000001aH
  00017	68 00 00 00 00	 push	 OFFSET ??_C@_1IO@CAJLEEOI@?$AAC?$AA?3?$AA?2?$AAA?$AAn?$AAk?$AAa?$AA2?$AAP?$AAr?$AAo?$AAj?$AAe?$AAc?$AAt@
  0001c	68 00 00 00 00	 push	 OFFSET ??_C@_1BK@FMEHPMFE@?$AAm?$AAs?$AA_?$AAs?$AAi?$AAn?$AAg?$AAl?$AAe?$AAt?$AAo?$AAn@
  00021	e8 00 00 00 00	 call	 __wassert
  00026	8b 0d 00 00 00
	00		 mov	 ecx, DWORD PTR ?ms_singleton@?$CSingleton@VCPythonPlayer@@@@0PAVCPythonPlayer@@A ; CSingleton<CPythonPlayer>::ms_singleton
  0002c	83 c4 0c	 add	 esp, 12			; 0000000cH
$LN5@playerGetA:
  0002f	56		 push	 esi

; 27   : 		return (*ms_singleton);

  00030	8b f1		 mov	 esi, ecx
  00032	85 f6		 test	 esi, esi

; 26   : 		assert(ms_singleton);

  00034	75 1a		 jne	 SHORT $LN8@playerGetA
  00036	6a 1a		 push	 26			; 0000001aH
  00038	68 00 00 00 00	 push	 OFFSET ??_C@_1IO@CAJLEEOI@?$AAC?$AA?3?$AA?2?$AAA?$AAn?$AAk?$AAa?$AA2?$AAP?$AAr?$AAo?$AAj?$AAe?$AAc?$AAt@
  0003d	68 00 00 00 00	 push	 OFFSET ??_C@_1BK@FMEHPMFE@?$AAm?$AAs?$AA_?$AAs?$AAi?$AAn?$AAg?$AAl?$AAe?$AAt?$AAo?$AAn@
  00042	e8 00 00 00 00	 call	 __wassert
  00047	8b 0d 00 00 00
	00		 mov	 ecx, DWORD PTR ?ms_singleton@?$CSingleton@VCPythonPlayer@@@@0PAVCPythonPlayer@@A ; CSingleton<CPythonPlayer>::ms_singleton
  0004d	83 c4 0c	 add	 esp, 12			; 0000000cH
$LN8@playerGetA:
; File C:\Anka2Project\Anka2Project\Source\Binary\source\UserInterface\PythonPlayerModule.cpp

; 2841 : 	CPythonPlayer::Instance().GetPetInfo(CPythonPlayer::Instance().GetActivePet(), &pPet);

  00050	e8 00 00 00 00	 call	 ?GetActivePet@CPythonPlayer@@QAEKXZ ; CPythonPlayer::GetActivePet
  00055	8d 4d fc	 lea	 ecx, DWORD PTR _pPet$[ebp]
  00058	51		 push	 ecx
  00059	50		 push	 eax
  0005a	8b ce		 mov	 ecx, esi
  0005c	e8 00 00 00 00	 call	 ?GetPetInfo@CPythonPlayer@@QAE_NKPAPAUSPetData@1@@Z ; CPythonPlayer::GetPetInfo
; File C:\Anka2Project\Anka2Project\Source\Binary\source\UserInterface\PythonPlayer.h

; 949  : 			DWORD GetSummonItemVnum() { return dwSummonItemVnum; }

  00061	8b 45 fc	 mov	 eax, DWORD PTR _pPet$[ebp]
; File C:\Anka2Project\Anka2Project\Source\Binary\source\UserInterface\PythonPlayerModule.cpp

; 2842 : 	return Py_BuildValue("i", pPet->GetSummonItemVnum());

  00064	ff 70 04	 push	 DWORD PTR [eax+4]
  00067	68 00 00 00 00	 push	 OFFSET ??_C@_01KBJDNOO@i@
  0006c	ff 15 00 00 00
	00		 call	 DWORD PTR __imp__Py_BuildValue
  00072	83 c4 08	 add	 esp, 8
  00075	5e		 pop	 esi

; 2843 : }

  00076	8b e5		 mov	 esp, ebp
  00078	5d		 pop	 ebp
  00079	c3		 ret	 0
?playerGetActivePetItemVNum@@YAPAU_object@@PAU1@0@Z ENDP ; playerGetActivePetItemVNum
_TEXT	ENDS
; Function compile flags: /Ogtp
; File C:\Anka2Project\Anka2Project\Source\Binary\source\UserInterface\PythonPlayerModule.cpp
; File C:\Anka2Project\Anka2Project\Source\Binary\source\eterBase\Singleton.h
; File C:\Anka2Project\Anka2Project\Source\Binary\source\UserInterface\PythonPlayerModule.cpp
; File C:\Anka2Project\Anka2Project\Source\Binary\source\eterBase\Singleton.h
; File C:\Anka2Project\Anka2Project\Source\Binary\source\UserInterface\PythonPlayerModule.cpp
;	COMDAT ?playerGetPetExpPoints@@YAPAU_object@@PAU1@0@Z
_TEXT	SEGMENT
_pPet$ = -8						; size = 4
_iPetID$ = -4						; size = 4
_poSelf$ = 8						; size = 4
_poArgs$ = 12						; size = 4
?playerGetPetExpPoints@@YAPAU_object@@PAU1@0@Z PROC	; playerGetPetExpPoints, COMDAT

; 2846 : {

  00000	55		 push	 ebp
  00001	8b ec		 mov	 ebp, esp
  00003	83 ec 08	 sub	 esp, 8

; 2847 : 	int iPetID = 0;
; 2848 : 	if (!PyTuple_GetInteger(poArgs, 0, &iPetID))

  00006	8d 45 fc	 lea	 eax, DWORD PTR _iPetID$[ebp]
  00009	c7 45 fc 00 00
	00 00		 mov	 DWORD PTR _iPetID$[ebp], 0
  00010	50		 push	 eax
  00011	6a 00		 push	 0
  00013	ff 75 0c	 push	 DWORD PTR _poArgs$[ebp]
  00016	e8 00 00 00 00	 call	 ?PyTuple_GetInteger@@YA_NPAU_object@@HPAH@Z ; PyTuple_GetInteger
  0001b	83 c4 0c	 add	 esp, 12			; 0000000cH
  0001e	84 c0		 test	 al, al
  00020	75 09		 jne	 SHORT $LN2@playerGetP

; 2849 : 		return Py_BadArgument();

  00022	e8 00 00 00 00	 call	 ?Py_BadArgument@@YAPAU_object@@XZ ; Py_BadArgument

; 2861 : }

  00027	8b e5		 mov	 esp, ebp
  00029	5d		 pop	 ebp
  0002a	c3		 ret	 0
$LN2@playerGetP:
; File C:\Anka2Project\Anka2Project\Source\Binary\source\eterBase\Singleton.h

; 26   : 		assert(ms_singleton);

  0002b	8b 0d 00 00 00
	00		 mov	 ecx, DWORD PTR ?ms_singleton@?$CSingleton@VCPythonPlayer@@@@0PAVCPythonPlayer@@A ; CSingleton<CPythonPlayer>::ms_singleton
; File C:\Anka2Project\Anka2Project\Source\Binary\source\UserInterface\PythonPlayerModule.cpp

; 2851 : 	CPythonPlayer::TPetData* pPet = nullptr;

  00031	c7 45 f8 00 00
	00 00		 mov	 DWORD PTR _pPet$[ebp], 0
; File C:\Anka2Project\Anka2Project\Source\Binary\source\eterBase\Singleton.h

; 26   : 		assert(ms_singleton);

  00038	85 c9		 test	 ecx, ecx
  0003a	75 1a		 jne	 SHORT $LN7@playerGetP
  0003c	6a 1a		 push	 26			; 0000001aH
  0003e	68 00 00 00 00	 push	 OFFSET ??_C@_1IO@CAJLEEOI@?$AAC?$AA?3?$AA?2?$AAA?$AAn?$AAk?$AAa?$AA2?$AAP?$AAr?$AAo?$AAj?$AAe?$AAc?$AAt@
  00043	68 00 00 00 00	 push	 OFFSET ??_C@_1BK@FMEHPMFE@?$AAm?$AAs?$AA_?$AAs?$AAi?$AAn?$AAg?$AAl?$AAe?$AAt?$AAo?$AAn@
  00048	e8 00 00 00 00	 call	 __wassert
  0004d	8b 0d 00 00 00
	00		 mov	 ecx, DWORD PTR ?ms_singleton@?$CSingleton@VCPythonPlayer@@@@0PAVCPythonPlayer@@A ; CSingleton<CPythonPlayer>::ms_singleton
  00053	83 c4 0c	 add	 esp, 12			; 0000000cH
$LN7@playerGetP:
  00056	56		 push	 esi
; File C:\Anka2Project\Anka2Project\Source\Binary\source\UserInterface\PythonPlayerModule.cpp

; 2852 : 	CPythonPlayer::Instance().GetPetInfo(iPetID, &pPet);

  00057	8d 45 f8	 lea	 eax, DWORD PTR _pPet$[ebp]
  0005a	50		 push	 eax
  0005b	ff 75 fc	 push	 DWORD PTR _iPetID$[ebp]
  0005e	e8 00 00 00 00	 call	 ?GetPetInfo@CPythonPlayer@@QAE_NKPAPAUSPetData@1@@Z ; CPythonPlayer::GetPetInfo

; 2853 : 
; 2854 : 	if (!pPet)

  00063	8b 75 f8	 mov	 esi, DWORD PTR _pPet$[ebp]
  00066	85 f6		 test	 esi, esi
  00068	75 17		 jne	 SHORT $LN3@playerGetP

; 2855 : 		return Py_BuildValue("iiii", 0, 0, 0, 0);

  0006a	56		 push	 esi
  0006b	56		 push	 esi
  0006c	56		 push	 esi
  0006d	56		 push	 esi

; 2858 : 	DWORD nextEXP = pPet->GetNextEXP() - itemMaxEXP;
; 2859 : 
; 2860 : 	return Py_BuildValue("iiii", pPet->GetEXP(), nextEXP, pPet->GetItemEXP(), itemMaxEXP);

  0006e	68 00 00 00 00	 push	 OFFSET ??_C@_04BIOIIFBG@iiii@
  00073	ff 15 00 00 00
	00		 call	 DWORD PTR __imp__Py_BuildValue
  00079	83 c4 14	 add	 esp, 20			; 00000014H
  0007c	5e		 pop	 esi

; 2861 : }

  0007d	8b e5		 mov	 esp, ebp
  0007f	5d		 pop	 ebp
  00080	c3		 ret	 0
$LN3@playerGetP:

; 2856 : 
; 2857 : 	DWORD itemMaxEXP = pPet->GetNextEXP() / 10;

  00081	8b 4e 2c	 mov	 ecx, DWORD PTR [esi+44]
  00084	b8 cd cc cc cc	 mov	 eax, -858993459		; cccccccdH
  00089	f7 e1		 mul	 ecx
  0008b	c1 ea 03	 shr	 edx, 3

; 2858 : 	DWORD nextEXP = pPet->GetNextEXP() - itemMaxEXP;
; 2859 : 
; 2860 : 	return Py_BuildValue("iiii", pPet->GetEXP(), nextEXP, pPet->GetItemEXP(), itemMaxEXP);

  0008e	52		 push	 edx
  0008f	ff 76 28	 push	 DWORD PTR [esi+40]
  00092	2b ca		 sub	 ecx, edx
  00094	51		 push	 ecx
  00095	ff 76 24	 push	 DWORD PTR [esi+36]
  00098	68 00 00 00 00	 push	 OFFSET ??_C@_04BIOIIFBG@iiii@
  0009d	ff 15 00 00 00
	00		 call	 DWORD PTR __imp__Py_BuildValue
  000a3	83 c4 14	 add	 esp, 20			; 00000014H
  000a6	5e		 pop	 esi

; 2861 : }

  000a7	8b e5		 mov	 esp, ebp
  000a9	5d		 pop	 ebp
  000aa	c3		 ret	 0
?playerGetPetExpPoints@@YAPAU_object@@PAU1@0@Z ENDP	; playerGetPetExpPoints
_TEXT	ENDS
; Function compile flags: /Ogtp
; File C:\Anka2Project\Anka2Project\Source\Binary\source\UserInterface\PythonPlayerModule.cpp
; File C:\Anka2Project\Anka2Project\Source\Binary\source\eterBase\Singleton.h
; File C:\Anka2Project\Anka2Project\Source\Binary\source\UserInterface\PythonPlayerModule.cpp
; File C:\Anka2Project\Anka2Project\Source\Binary\source\eterBase\Singleton.h
; File C:\Anka2Project\Anka2Project\Source\Binary\source\UserInterface\PythonPlayerModule.cpp
; File C:\Anka2Project\Anka2Project\Source\Binary\source\UserInterface\PythonPlayer.h
; File C:\Anka2Project\Anka2Project\Source\Binary\source\UserInterface\PythonPlayerModule.cpp
; File C:\Anka2Project\Anka2Project\Source\Binary\source\UserInterface\PythonPlayer.h
; File C:\Anka2Project\Anka2Project\Source\Binary\source\UserInterface\PythonPlayerModule.cpp
; File C:\Anka2Project\Anka2Project\Source\Binary\source\UserInterface\PythonPlayer.h
; File C:\Program Files\Microsoft Visual Studio\2022\Community\VC\Tools\MSVC\14.44.35207\include\xstring
; File C:\Anka2Project\Anka2Project\Source\Binary\source\UserInterface\PythonPlayerModule.cpp
; File C:\Program Files\Microsoft Visual Studio\2022\Community\VC\Tools\MSVC\14.44.35207\include\xstring
; File C:\Anka2Project\Anka2Project\Source\Binary\source\UserInterface\PythonPlayerModule.cpp
; File C:\Program Files\Microsoft Visual Studio\2022\Community\VC\Tools\MSVC\14.44.35207\include\xstring
; File C:\Anka2Project\Anka2Project\Source\Binary\source\UserInterface\PythonPlayerModule.cpp
; File C:\Program Files\Microsoft Visual Studio\2022\Community\VC\Tools\MSVC\14.44.35207\include\xstring
; File C:\Anka2Project\Anka2Project\Source\Binary\source\UserInterface\PythonPlayerModule.cpp
;	COMDAT ?playerGetPetItem@@YAPAU_object@@PAU1@0@Z
_TEXT	SEGMENT
_iPetID$ = -60						; size = 4
_pPet$ = -56						; size = 4
tv188 = -56						; size = 8
tv77 = -48						; size = 8
tv79 = -40						; size = 8
$T3 = -28						; size = 24
__$ArrayPad$ = -4					; size = 4
_poSelf$ = 8						; size = 4
_poArgs$ = 12						; size = 4
?playerGetPetItem@@YAPAU_object@@PAU1@0@Z PROC		; playerGetPetItem, COMDAT

; 2864 : {

  00000	55		 push	 ebp
  00001	8b ec		 mov	 ebp, esp
  00003	83 e4 c0	 and	 esp, -64		; ffffffc0H
  00006	83 ec 3c	 sub	 esp, 60			; 0000003cH
  00009	a1 00 00 00 00	 mov	 eax, DWORD PTR ___security_cookie
  0000e	33 c4		 xor	 eax, esp
  00010	89 44 24 38	 mov	 DWORD PTR __$ArrayPad$[esp+60], eax
  00014	8b 45 0c	 mov	 eax, DWORD PTR _poArgs$[ebp]

; 2865 : 	int iPetID = 0;
; 2866 : 	if (!PyTuple_GetInteger(poArgs, 0, &iPetID))

  00017	8d 0c 24	 lea	 ecx, DWORD PTR _iPetID$[esp+60]
  0001a	56		 push	 esi
  0001b	51		 push	 ecx
  0001c	6a 00		 push	 0
  0001e	50		 push	 eax
  0001f	c7 44 24 10 00
	00 00 00	 mov	 DWORD PTR _iPetID$[esp+76], 0
  00027	e8 00 00 00 00	 call	 ?PyTuple_GetInteger@@YA_NPAU_object@@HPAH@Z ; PyTuple_GetInteger
  0002c	83 c4 0c	 add	 esp, 12			; 0000000cH
  0002f	84 c0		 test	 al, al
  00031	75 15		 jne	 SHORT $LN2@playerGetP

; 2867 : 		return Py_BadArgument();

  00033	e8 00 00 00 00	 call	 ?Py_BadArgument@@YAPAU_object@@XZ ; Py_BadArgument

; 2884 : }

  00038	5e		 pop	 esi
  00039	8b 4c 24 38	 mov	 ecx, DWORD PTR __$ArrayPad$[esp+60]
  0003d	33 cc		 xor	 ecx, esp
  0003f	e8 00 00 00 00	 call	 @__security_check_cookie@4
  00044	8b e5		 mov	 esp, ebp
  00046	5d		 pop	 ebp
  00047	c3		 ret	 0
$LN2@playerGetP:
; File C:\Anka2Project\Anka2Project\Source\Binary\source\eterBase\Singleton.h

; 26   : 		assert(ms_singleton);

  00048	8b 0d 00 00 00
	00		 mov	 ecx, DWORD PTR ?ms_singleton@?$CSingleton@VCPythonPlayer@@@@0PAVCPythonPlayer@@A ; CSingleton<CPythonPlayer>::ms_singleton
; File C:\Anka2Project\Anka2Project\Source\Binary\source\UserInterface\PythonPlayerModule.cpp

; 2869 : 	CPythonPlayer::TPetData* pPet = nullptr;

  0004e	c7 44 24 08 00
	00 00 00	 mov	 DWORD PTR _pPet$[esp+64], 0
; File C:\Anka2Project\Anka2Project\Source\Binary\source\eterBase\Singleton.h

; 26   : 		assert(ms_singleton);

  00056	85 c9		 test	 ecx, ecx
  00058	75 1a		 jne	 SHORT $LN8@playerGetP
  0005a	6a 1a		 push	 26			; 0000001aH
  0005c	68 00 00 00 00	 push	 OFFSET ??_C@_1IO@CAJLEEOI@?$AAC?$AA?3?$AA?2?$AAA?$AAn?$AAk?$AAa?$AA2?$AAP?$AAr?$AAo?$AAj?$AAe?$AAc?$AAt@
  00061	68 00 00 00 00	 push	 OFFSET ??_C@_1BK@FMEHPMFE@?$AAm?$AAs?$AA_?$AAs?$AAi?$AAn?$AAg?$AAl?$AAe?$AAt?$AAo?$AAn@
  00066	e8 00 00 00 00	 call	 __wassert
  0006b	8b 0d 00 00 00
	00		 mov	 ecx, DWORD PTR ?ms_singleton@?$CSingleton@VCPythonPlayer@@@@0PAVCPythonPlayer@@A ; CSingleton<CPythonPlayer>::ms_singleton
  00071	83 c4 0c	 add	 esp, 12			; 0000000cH
$LN8@playerGetP:
; File C:\Anka2Project\Anka2Project\Source\Binary\source\UserInterface\PythonPlayerModule.cpp

; 2870 : 	CPythonPlayer::Instance().GetPetInfo(iPetID, &pPet);

  00074	8d 44 24 08	 lea	 eax, DWORD PTR _pPet$[esp+64]
  00078	50		 push	 eax
  00079	ff 74 24 08	 push	 DWORD PTR _iPetID$[esp+68]
  0007d	e8 00 00 00 00	 call	 ?GetPetInfo@CPythonPlayer@@QAE_NKPAPAUSPetData@1@@Z ; CPythonPlayer::GetPetInfo

; 2871 : 
; 2872 : 	if(!pPet)

  00082	8b 74 24 08	 mov	 esi, DWORD PTR _pPet$[esp+64]
  00086	85 f6		 test	 esi, esi
  00088	75 25		 jne	 SHORT $LN3@playerGetP

; 2873 : 		return Py_BuildValue("iiisfff", 0, 0, 0, 0, 0, 0, 0);

  0008a	56		 push	 esi
  0008b	56		 push	 esi
  0008c	56		 push	 esi
  0008d	56		 push	 esi
  0008e	56		 push	 esi
  0008f	56		 push	 esi
  00090	56		 push	 esi
  00091	68 00 00 00 00	 push	 OFFSET ??_C@_07LLGOIFNB@iiisfff@
  00096	ff 15 00 00 00
	00		 call	 DWORD PTR __imp__Py_BuildValue
  0009c	83 c4 20	 add	 esp, 32			; 00000020H

; 2884 : }

  0009f	5e		 pop	 esi
  000a0	8b 4c 24 38	 mov	 ecx, DWORD PTR __$ArrayPad$[esp+60]
  000a4	33 cc		 xor	 ecx, esp
  000a6	e8 00 00 00 00	 call	 @__security_check_cookie@4
  000ab	8b e5		 mov	 esp, ebp
  000ad	5d		 pop	 ebp
  000ae	c3		 ret	 0
$LN3@playerGetP:

; 2875 : 	return Py_BuildValue("iiisfff",

  000af	8b 46 3c	 mov	 eax, DWORD PTR [esi+60]
; File C:\Anka2Project\Anka2Project\Source\Binary\source\UserInterface\PythonPlayer.h

; 950  : 			std::string	GetName() { return strName; }

  000b2	8d 4c 24 24	 lea	 ecx, DWORD PTR $T3[esp+64]
; File C:\Anka2Project\Anka2Project\Source\Binary\source\UserInterface\PythonPlayerModule.cpp

; 2875 : 	return Py_BuildValue("iiisfff",

  000b6	f3 0f 10 0d 00
	00 00 00	 movss	 xmm1, DWORD PTR __real@41200000
  000be	66 0f 6e c0	 movd	 xmm0, eax
  000c2	f3 0f e6 c0	 cvtdq2pd xmm0, xmm0
  000c6	c1 e8 1f	 shr	 eax, 31			; 0000001fH
  000c9	f2 0f 58 04 c5
	00 00 00 00	 addsd	 xmm0, QWORD PTR __xmm@41f00000000000000000000000000000[eax*8]
  000d2	8b 46 38	 mov	 eax, DWORD PTR [esi+56]
  000d5	66 0f 5a c0	 cvtpd2ps xmm0, xmm0
  000d9	f3 0f 5e c1	 divss	 xmm0, xmm1
  000dd	0f 5a c0	 cvtps2pd xmm0, xmm0
  000e0	f2 0f 11 44 24
	08		 movsd	 QWORD PTR tv188[esp+64], xmm0
  000e6	66 0f 6e c0	 movd	 xmm0, eax
  000ea	f3 0f e6 c0	 cvtdq2pd xmm0, xmm0
  000ee	c1 e8 1f	 shr	 eax, 31			; 0000001fH
  000f1	f2 0f 58 04 c5
	00 00 00 00	 addsd	 xmm0, QWORD PTR __xmm@41f00000000000000000000000000000[eax*8]
  000fa	8b 46 34	 mov	 eax, DWORD PTR [esi+52]
  000fd	66 0f 5a c0	 cvtpd2ps xmm0, xmm0
  00101	f3 0f 5e c1	 divss	 xmm0, xmm1
  00105	0f 5a c0	 cvtps2pd xmm0, xmm0
  00108	f2 0f 11 44 24
	10		 movsd	 QWORD PTR tv77[esp+64], xmm0
  0010e	66 0f 6e c0	 movd	 xmm0, eax
  00112	f3 0f e6 c0	 cvtdq2pd xmm0, xmm0
  00116	c1 e8 1f	 shr	 eax, 31			; 0000001fH
  00119	f2 0f 58 04 c5
	00 00 00 00	 addsd	 xmm0, QWORD PTR __xmm@41f00000000000000000000000000000[eax*8]
; File C:\Anka2Project\Anka2Project\Source\Binary\source\UserInterface\PythonPlayer.h

; 950  : 			std::string	GetName() { return strName; }

  00122	8d 46 08	 lea	 eax, DWORD PTR [esi+8]
  00125	50		 push	 eax
; File C:\Anka2Project\Anka2Project\Source\Binary\source\UserInterface\PythonPlayerModule.cpp

; 2875 : 	return Py_BuildValue("iiisfff",

  00126	66 0f 5a c0	 cvtpd2ps xmm0, xmm0
  0012a	f3 0f 5e c1	 divss	 xmm0, xmm1
  0012e	0f 5a c0	 cvtps2pd xmm0, xmm0
  00131	f2 0f 11 44 24
	1c		 movsd	 QWORD PTR tv79[esp+68], xmm0
; File C:\Anka2Project\Anka2Project\Source\Binary\source\UserInterface\PythonPlayer.h

; 950  : 			std::string	GetName() { return strName; }

  00137	e8 00 00 00 00	 call	 ??0?$basic_string@DU?$char_traits@D@std@@V?$allocator@D@2@@std@@QAE@ABV01@@Z ; std::basic_string<char,std::char_traits<char>,std::allocator<char> >::basic_string<char,std::char_traits<char>,std::allocator<char> >
; File C:\Program Files\Microsoft Visual Studio\2022\Community\VC\Tools\MSVC\14.44.35207\include\xstring

; 453  :         return _Myres > _Small_string_capacity;

  0013c	83 7c 24 38 0f	 cmp	 DWORD PTR $T3[esp+84], 15 ; 0000000fH

; 444  :         const value_type* _Result = _Bx._Buf;

  00141	8d 44 24 24	 lea	 eax, DWORD PTR $T3[esp+64]
; File C:\Anka2Project\Anka2Project\Source\Binary\source\UserInterface\PythonPlayerModule.cpp

; 2875 : 	return Py_BuildValue("iiisfff",

  00145	f2 0f 10 44 24
	08		 movsd	 xmm0, QWORD PTR tv188[esp+64]
; File C:\Program Files\Microsoft Visual Studio\2022\Community\VC\Tools\MSVC\14.44.35207\include\xstring

; 445  :         if (_Large_mode_engaged()) {

  0014b	0f 47 44 24 24	 cmova	 eax, DWORD PTR $T3[esp+64]
; File C:\Anka2Project\Anka2Project\Source\Binary\source\UserInterface\PythonPlayerModule.cpp

; 2875 : 	return Py_BuildValue("iiisfff",

  00150	83 ec 18	 sub	 esp, 24			; 00000018H
  00153	f2 0f 11 44 24
	10		 movsd	 QWORD PTR [esp+16], xmm0
  00159	f2 0f 10 44 24
	28		 movsd	 xmm0, QWORD PTR tv77[esp+88]
  0015f	f2 0f 11 44 24
	08		 movsd	 QWORD PTR [esp+8], xmm0
  00165	f2 0f 10 44 24
	30		 movsd	 xmm0, QWORD PTR tv79[esp+88]
  0016b	f2 0f 11 04 24	 movsd	 QWORD PTR [esp], xmm0
  00170	50		 push	 eax
  00171	ff 76 48	 push	 DWORD PTR [esi+72]
  00174	ff 76 30	 push	 DWORD PTR [esi+48]
  00177	ff 76 20	 push	 DWORD PTR [esi+32]
  0017a	68 00 00 00 00	 push	 OFFSET ??_C@_07LLGOIFNB@iiisfff@
  0017f	ff 15 00 00 00
	00		 call	 DWORD PTR __imp__Py_BuildValue
  00185	83 c4 2c	 add	 esp, 44			; 0000002cH
; File C:\Program Files\Microsoft Visual Studio\2022\Community\VC\Tools\MSVC\14.44.35207\include\xstring

; 1383 :         _Tidy_deallocate();

  00188	8d 4c 24 24	 lea	 ecx, DWORD PTR $T3[esp+64]
; File C:\Anka2Project\Anka2Project\Source\Binary\source\UserInterface\PythonPlayerModule.cpp

; 2875 : 	return Py_BuildValue("iiisfff",

  0018c	8b f0		 mov	 esi, eax
; File C:\Program Files\Microsoft Visual Studio\2022\Community\VC\Tools\MSVC\14.44.35207\include\xstring

; 1383 :         _Tidy_deallocate();

  0018e	e8 00 00 00 00	 call	 ?_Tidy_deallocate@?$basic_string@DU?$char_traits@D@std@@V?$allocator@D@2@@std@@AAEXXZ ; std::basic_string<char,std::char_traits<char>,std::allocator<char> >::_Tidy_deallocate
; File C:\Anka2Project\Anka2Project\Source\Binary\source\UserInterface\PythonPlayerModule.cpp

; 2884 : }

  00193	8b 4c 24 3c	 mov	 ecx, DWORD PTR __$ArrayPad$[esp+64]
  00197	8b c6		 mov	 eax, esi
  00199	5e		 pop	 esi
  0019a	33 cc		 xor	 ecx, esp
  0019c	e8 00 00 00 00	 call	 @__security_check_cookie@4
  001a1	8b e5		 mov	 esp, ebp
  001a3	5d		 pop	 ebp
  001a4	c3		 ret	 0
?playerGetPetItem@@YAPAU_object@@PAU1@0@Z ENDP		; playerGetPetItem
_TEXT	ENDS
; Function compile flags: /Ogtp
; File C:\Anka2Project\Anka2Project\Source\Binary\source\UserInterface\PythonPlayerModule.cpp
; File C:\Anka2Project\Anka2Project\Source\Binary\source\eterBase\Singleton.h
; File C:\Anka2Project\Anka2Project\Source\Binary\source\UserInterface\PythonPlayerModule.cpp
; File C:\Anka2Project\Anka2Project\Source\Binary\source\eterBase\Singleton.h
; File C:\Anka2Project\Anka2Project\Source\Binary\source\UserInterface\PythonPlayerModule.cpp
;	COMDAT ?playerGetPetLifeTime@@YAPAU_object@@PAU1@0@Z
_TEXT	SEGMENT
_pPet$ = -8						; size = 4
_iPetID$ = -4						; size = 4
_poSelf$ = 8						; size = 4
_poArgs$ = 12						; size = 4
?playerGetPetLifeTime@@YAPAU_object@@PAU1@0@Z PROC	; playerGetPetLifeTime, COMDAT

; 2887 : {

  00000	55		 push	 ebp
  00001	8b ec		 mov	 ebp, esp
  00003	83 ec 08	 sub	 esp, 8

; 2888 : 	int iPetID = 0;
; 2889 : 	if (!PyTuple_GetInteger(poArgs, 0, &iPetID))

  00006	8d 45 fc	 lea	 eax, DWORD PTR _iPetID$[ebp]
  00009	c7 45 fc 00 00
	00 00		 mov	 DWORD PTR _iPetID$[ebp], 0
  00010	50		 push	 eax
  00011	6a 00		 push	 0
  00013	ff 75 0c	 push	 DWORD PTR _poArgs$[ebp]
  00016	e8 00 00 00 00	 call	 ?PyTuple_GetInteger@@YA_NPAU_object@@HPAH@Z ; PyTuple_GetInteger
  0001b	83 c4 0c	 add	 esp, 12			; 0000000cH
  0001e	84 c0		 test	 al, al
  00020	75 09		 jne	 SHORT $LN2@playerGetP

; 2890 : 		return Py_BadArgument();

  00022	e8 00 00 00 00	 call	 ?Py_BadArgument@@YAPAU_object@@XZ ; Py_BadArgument

; 2899 : }

  00027	8b e5		 mov	 esp, ebp
  00029	5d		 pop	 ebp
  0002a	c3		 ret	 0
$LN2@playerGetP:
; File C:\Anka2Project\Anka2Project\Source\Binary\source\eterBase\Singleton.h

; 26   : 		assert(ms_singleton);

  0002b	8b 0d 00 00 00
	00		 mov	 ecx, DWORD PTR ?ms_singleton@?$CSingleton@VCPythonPlayer@@@@0PAVCPythonPlayer@@A ; CSingleton<CPythonPlayer>::ms_singleton
; File C:\Anka2Project\Anka2Project\Source\Binary\source\UserInterface\PythonPlayerModule.cpp

; 2892 : 	CPythonPlayer::TPetData* pPet = nullptr;

  00031	c7 45 f8 00 00
	00 00		 mov	 DWORD PTR _pPet$[ebp], 0
; File C:\Anka2Project\Anka2Project\Source\Binary\source\eterBase\Singleton.h

; 26   : 		assert(ms_singleton);

  00038	85 c9		 test	 ecx, ecx
  0003a	75 1a		 jne	 SHORT $LN7@playerGetP
  0003c	6a 1a		 push	 26			; 0000001aH
  0003e	68 00 00 00 00	 push	 OFFSET ??_C@_1IO@CAJLEEOI@?$AAC?$AA?3?$AA?2?$AAA?$AAn?$AAk?$AAa?$AA2?$AAP?$AAr?$AAo?$AAj?$AAe?$AAc?$AAt@
  00043	68 00 00 00 00	 push	 OFFSET ??_C@_1BK@FMEHPMFE@?$AAm?$AAs?$AA_?$AAs?$AAi?$AAn?$AAg?$AAl?$AAe?$AAt?$AAo?$AAn@
  00048	e8 00 00 00 00	 call	 __wassert
  0004d	8b 0d 00 00 00
	00		 mov	 ecx, DWORD PTR ?ms_singleton@?$CSingleton@VCPythonPlayer@@@@0PAVCPythonPlayer@@A ; CSingleton<CPythonPlayer>::ms_singleton
  00053	83 c4 0c	 add	 esp, 12			; 0000000cH
$LN7@playerGetP:
; File C:\Anka2Project\Anka2Project\Source\Binary\source\UserInterface\PythonPlayerModule.cpp

; 2893 : 	CPythonPlayer::Instance().GetPetInfo(iPetID, &pPet);

  00056	8d 45 f8	 lea	 eax, DWORD PTR _pPet$[ebp]
  00059	50		 push	 eax
  0005a	ff 75 fc	 push	 DWORD PTR _iPetID$[ebp]
  0005d	e8 00 00 00 00	 call	 ?GetPetInfo@CPythonPlayer@@QAE_NKPAPAUSPetData@1@@Z ; CPythonPlayer::GetPetInfo

; 2894 : 
; 2895 : 	if (!pPet)

  00062	8b 45 f8	 mov	 eax, DWORD PTR _pPet$[ebp]
  00065	85 c0		 test	 eax, eax
  00067	75 14		 jne	 SHORT $LN3@playerGetP

; 2896 : 		return Py_BuildValue("ii", 0, 0);

  00069	50		 push	 eax
  0006a	50		 push	 eax

; 2899 : }

  0006b	68 00 00 00 00	 push	 OFFSET ??_C@_02PDIHAGKM@ii@
  00070	ff 15 00 00 00
	00		 call	 DWORD PTR __imp__Py_BuildValue
  00076	83 c4 0c	 add	 esp, 12			; 0000000cH
  00079	8b e5		 mov	 esp, ebp
  0007b	5d		 pop	 ebp
  0007c	c3		 ret	 0
$LN3@playerGetP:

; 2897 : 
; 2898 : 	return Py_BuildValue("ii", pPet->GetDuration(), pPet->GetMaxDuration());

  0007d	ff 70 44	 push	 DWORD PTR [eax+68]
  00080	ff 70 40	 push	 DWORD PTR [eax+64]

; 2899 : }

  00083	68 00 00 00 00	 push	 OFFSET ??_C@_02PDIHAGKM@ii@
  00088	ff 15 00 00 00
	00		 call	 DWORD PTR __imp__Py_BuildValue
  0008e	83 c4 0c	 add	 esp, 12			; 0000000cH
  00091	8b e5		 mov	 esp, ebp
  00093	5d		 pop	 ebp
  00094	c3		 ret	 0
?playerGetPetLifeTime@@YAPAU_object@@PAU1@0@Z ENDP	; playerGetPetLifeTime
_TEXT	ENDS
; Function compile flags: /Ogtp
; File C:\Anka2Project\Anka2Project\Source\Binary\source\UserInterface\PythonPlayerModule.cpp
; File C:\Anka2Project\Anka2Project\Source\Binary\source\eterBase\Singleton.h
; File C:\Anka2Project\Anka2Project\Source\Binary\source\UserInterface\PythonPlayerModule.cpp
;	COMDAT ?playerCanUseGrowthPetQuickSlot@@YAPAU_object@@PAU1@0@Z
_TEXT	SEGMENT
_iLocalSlotIndex$ = -4					; size = 4
_poSelf$ = 8						; size = 4
_poArgs$ = 12						; size = 4
?playerCanUseGrowthPetQuickSlot@@YAPAU_object@@PAU1@0@Z PROC ; playerCanUseGrowthPetQuickSlot, COMDAT

; 2902 : {

  00000	55		 push	 ebp
  00001	8b ec		 mov	 ebp, esp
  00003	51		 push	 ecx

; 2903 : 	int iLocalSlotIndex;
; 2904 : 	if (!PyTuple_GetInteger(poArgs, 0, &iLocalSlotIndex))

  00004	8d 45 fc	 lea	 eax, DWORD PTR _iLocalSlotIndex$[ebp]
  00007	50		 push	 eax
  00008	6a 00		 push	 0
  0000a	ff 75 0c	 push	 DWORD PTR _poArgs$[ebp]
  0000d	e8 00 00 00 00	 call	 ?PyTuple_GetInteger@@YA_NPAU_object@@HPAH@Z ; PyTuple_GetInteger
  00012	83 c4 0c	 add	 esp, 12			; 0000000cH
  00015	84 c0		 test	 al, al
  00017	75 09		 jne	 SHORT $LN2@playerCanU

; 2905 : 		return Py_BadArgument();

  00019	e8 00 00 00 00	 call	 ?Py_BadArgument@@YAPAU_object@@XZ ; Py_BadArgument

; 2908 : }

  0001e	8b e5		 mov	 esp, ebp
  00020	5d		 pop	 ebp
  00021	c3		 ret	 0
$LN2@playerCanU:
; File C:\Anka2Project\Anka2Project\Source\Binary\source\eterBase\Singleton.h

; 26   : 		assert(ms_singleton);

  00022	8b 0d 00 00 00
	00		 mov	 ecx, DWORD PTR ?ms_singleton@?$CSingleton@VCPythonPlayer@@@@0PAVCPythonPlayer@@A ; CSingleton<CPythonPlayer>::ms_singleton
  00028	85 c9		 test	 ecx, ecx
  0002a	75 1a		 jne	 SHORT $LN6@playerCanU
  0002c	6a 1a		 push	 26			; 0000001aH
  0002e	68 00 00 00 00	 push	 OFFSET ??_C@_1IO@CAJLEEOI@?$AAC?$AA?3?$AA?2?$AAA?$AAn?$AAk?$AAa?$AA2?$AAP?$AAr?$AAo?$AAj?$AAe?$AAc?$AAt@
  00033	68 00 00 00 00	 push	 OFFSET ??_C@_1BK@FMEHPMFE@?$AAm?$AAs?$AA_?$AAs?$AAi?$AAn?$AAg?$AAl?$AAe?$AAt?$AAo?$AAn@
  00038	e8 00 00 00 00	 call	 __wassert
  0003d	8b 0d 00 00 00
	00		 mov	 ecx, DWORD PTR ?ms_singleton@?$CSingleton@VCPythonPlayer@@@@0PAVCPythonPlayer@@A ; CSingleton<CPythonPlayer>::ms_singleton
  00043	83 c4 0c	 add	 esp, 12			; 0000000cH
$LN6@playerCanU:
; File C:\Anka2Project\Anka2Project\Source\Binary\source\UserInterface\PythonPlayerModule.cpp

; 2907 : 	return Py_BuildValue("i", CPythonPlayer::Instance().CanUseGrowthPetQuickSlot(iLocalSlotIndex));

  00046	ff 75 fc	 push	 DWORD PTR _iLocalSlotIndex$[ebp]
  00049	e8 00 00 00 00	 call	 ?CanUseGrowthPetQuickSlot@CPythonPlayer@@QAEKK@Z ; CPythonPlayer::CanUseGrowthPetQuickSlot
  0004e	50		 push	 eax
  0004f	68 00 00 00 00	 push	 OFFSET ??_C@_01KBJDNOO@i@
  00054	ff 15 00 00 00
	00		 call	 DWORD PTR __imp__Py_BuildValue
  0005a	83 c4 08	 add	 esp, 8

; 2908 : }

  0005d	8b e5		 mov	 esp, ebp
  0005f	5d		 pop	 ebp
  00060	c3		 ret	 0
?playerCanUseGrowthPetQuickSlot@@YAPAU_object@@PAU1@0@Z ENDP ; playerCanUseGrowthPetQuickSlot
_TEXT	ENDS
; Function compile flags: /Ogtp
; File C:\Anka2Project\Anka2Project\Source\Binary\source\UserInterface\PythonPlayerModule.cpp
; File C:\Anka2Project\Anka2Project\Source\Binary\source\UserInterface\GameType.h
; File C:\Anka2Project\Anka2Project\Source\Binary\source\UserInterface\PythonPlayerModule.cpp
; File C:\Anka2Project\Anka2Project\Source\Binary\source\eterBase\Singleton.h
; File C:\Anka2Project\Anka2Project\Source\Binary\source\UserInterface\PythonPlayerModule.cpp
;	COMDAT ?playerGetChangeLookVnum@@YAPAU_object@@PAU1@0@Z
_TEXT	SEGMENT
_Cell$ = -4						; size = 3
_poSelf$ = 8						; size = 4
_poArgs$ = 12						; size = 4
?playerGetChangeLookVnum@@YAPAU_object@@PAU1@0@Z PROC	; playerGetChangeLookVnum, COMDAT

; 2921 : {

  00000	55		 push	 ebp
  00001	8b ec		 mov	 ebp, esp
  00003	51		 push	 ecx
; File C:\Anka2Project\Anka2Project\Source\Binary\source\UserInterface\GameType.h

; 448  : 		cell = WORD_MAX;

  00004	b8 ff ff 00 00	 mov	 eax, 65535		; 0000ffffH
  00009	c6 45 fc 01	 mov	 BYTE PTR _Cell$[ebp], 1
  0000d	66 89 45 fd	 mov	 WORD PTR _Cell$[ebp+1], ax
; File C:\Anka2Project\Anka2Project\Source\Binary\source\UserInterface\PythonPlayerModule.cpp

; 2923 : 	if (!PyTuple_GetByte(poArgs, 0, &Cell.window_type))

  00011	8d 45 fc	 lea	 eax, DWORD PTR _Cell$[ebp]
  00014	50		 push	 eax
  00015	6a 00		 push	 0
  00017	ff 75 0c	 push	 DWORD PTR _poArgs$[ebp]
  0001a	e8 00 00 00 00	 call	 ?PyTuple_GetByte@@YA_NPAU_object@@HPAE@Z ; PyTuple_GetByte
  0001f	83 c4 0c	 add	 esp, 12			; 0000000cH
  00022	84 c0		 test	 al, al
  00024	75 0e		 jne	 SHORT $LN2@playerGetC
$LN10@playerGetC:

; 2930 : }

  00026	6a 00		 push	 0
  00028	e8 00 00 00 00	 call	 ?Py_BuildException@@YAPAU_object@@PBDZZ ; Py_BuildException
  0002d	83 c4 04	 add	 esp, 4
  00030	8b e5		 mov	 esp, ebp
  00032	5d		 pop	 ebp
  00033	c3		 ret	 0
$LN2@playerGetC:

; 2924 : 		return Py_BuildException();
; 2925 : 
; 2926 : 	if (!PyTuple_GetInteger(poArgs, 1, &Cell.cell))

  00034	8d 45 fd	 lea	 eax, DWORD PTR _Cell$[ebp+1]
  00037	50		 push	 eax
  00038	6a 01		 push	 1
  0003a	ff 75 0c	 push	 DWORD PTR _poArgs$[ebp]
  0003d	e8 00 00 00 00	 call	 ?PyTuple_GetInteger@@YA_NPAU_object@@HPAG@Z ; PyTuple_GetInteger
  00042	83 c4 0c	 add	 esp, 12			; 0000000cH
  00045	84 c0		 test	 al, al
  00047	74 dd		 je	 SHORT $LN10@playerGetC
; File C:\Anka2Project\Anka2Project\Source\Binary\source\eterBase\Singleton.h

; 26   : 		assert(ms_singleton);

  00049	8b 0d 00 00 00
	00		 mov	 ecx, DWORD PTR ?ms_singleton@?$CSingleton@VCPythonPlayer@@@@0PAVCPythonPlayer@@A ; CSingleton<CPythonPlayer>::ms_singleton
  0004f	85 c9		 test	 ecx, ecx
  00051	75 1a		 jne	 SHORT $LN9@playerGetC
  00053	6a 1a		 push	 26			; 0000001aH
  00055	68 00 00 00 00	 push	 OFFSET ??_C@_1IO@CAJLEEOI@?$AAC?$AA?3?$AA?2?$AAA?$AAn?$AAk?$AAa?$AA2?$AAP?$AAr?$AAo?$AAj?$AAe?$AAc?$AAt@
  0005a	68 00 00 00 00	 push	 OFFSET ??_C@_1BK@FMEHPMFE@?$AAm?$AAs?$AA_?$AAs?$AAi?$AAn?$AAg?$AAl?$AAe?$AAt?$AAo?$AAn@
  0005f	e8 00 00 00 00	 call	 __wassert
  00064	8b 0d 00 00 00
	00		 mov	 ecx, DWORD PTR ?ms_singleton@?$CSingleton@VCPythonPlayer@@@@0PAVCPythonPlayer@@A ; CSingleton<CPythonPlayer>::ms_singleton
  0006a	83 c4 0c	 add	 esp, 12			; 0000000cH
$LN9@playerGetC:
; File C:\Anka2Project\Anka2Project\Source\Binary\source\UserInterface\PythonPlayerModule.cpp

; 2929 : 	return Py_BuildValue("i", CPythonPlayer::Instance().GetItemChangeLookVnum(Cell));

  0006d	8d 45 fc	 lea	 eax, DWORD PTR _Cell$[ebp]
  00070	50		 push	 eax
  00071	e8 00 00 00 00	 call	 ?GetItemChangeLookVnum@CPythonPlayer@@QBEKAAUSItemPos@@@Z ; CPythonPlayer::GetItemChangeLookVnum
  00076	50		 push	 eax
  00077	68 00 00 00 00	 push	 OFFSET ??_C@_01KBJDNOO@i@
  0007c	ff 15 00 00 00
	00		 call	 DWORD PTR __imp__Py_BuildValue
  00082	83 c4 08	 add	 esp, 8

; 2930 : }

  00085	8b e5		 mov	 esp, ebp
  00087	5d		 pop	 ebp
  00088	c3		 ret	 0
?playerGetChangeLookVnum@@YAPAU_object@@PAU1@0@Z ENDP	; playerGetChangeLookVnum
_TEXT	ENDS
; Function compile flags: /Ogtp
; File C:\Anka2Project\Anka2Project\Source\Binary\source\UserInterface\PythonPlayerModule.cpp
; File C:\Anka2Project\Anka2Project\Source\Binary\source\eterBase\Singleton.h
; File C:\Anka2Project\Anka2Project\Source\Binary\source\UserInterface\PythonPlayerModule.cpp
;	COMDAT ?playerGetChangeLookWindowOpen@@YAPAU_object@@PAU1@0@Z
_TEXT	SEGMENT
_poSelf$ = 8						; size = 4
_poArgs$ = 12						; size = 4
?playerGetChangeLookWindowOpen@@YAPAU_object@@PAU1@0@Z PROC ; playerGetChangeLookWindowOpen, COMDAT
; File C:\Anka2Project\Anka2Project\Source\Binary\source\eterBase\Singleton.h

; 26   : 		assert(ms_singleton);

  00000	8b 0d 00 00 00
	00		 mov	 ecx, DWORD PTR ?ms_singleton@?$CSingleton@VCPythonPlayer@@@@0PAVCPythonPlayer@@A ; CSingleton<CPythonPlayer>::ms_singleton
  00006	85 c9		 test	 ecx, ecx
  00008	75 1a		 jne	 SHORT $LN5@playerGetC
  0000a	6a 1a		 push	 26			; 0000001aH
  0000c	68 00 00 00 00	 push	 OFFSET ??_C@_1IO@CAJLEEOI@?$AAC?$AA?3?$AA?2?$AAA?$AAn?$AAk?$AAa?$AA2?$AAP?$AAr?$AAo?$AAj?$AAe?$AAc?$AAt@
  00011	68 00 00 00 00	 push	 OFFSET ??_C@_1BK@FMEHPMFE@?$AAm?$AAs?$AA_?$AAs?$AAi?$AAn?$AAg?$AAl?$AAe?$AAt?$AAo?$AAn@
  00016	e8 00 00 00 00	 call	 __wassert
  0001b	8b 0d 00 00 00
	00		 mov	 ecx, DWORD PTR ?ms_singleton@?$CSingleton@VCPythonPlayer@@@@0PAVCPythonPlayer@@A ; CSingleton<CPythonPlayer>::ms_singleton
  00021	83 c4 0c	 add	 esp, 12			; 0000000cH
$LN5@playerGetC:
; File C:\Anka2Project\Anka2Project\Source\Binary\source\UserInterface\PythonPlayerModule.cpp

; 2945 : 	return Py_BuildValue("b", CPythonPlayer::Instance().GetChangeLookWindowOpen());

  00024	e8 00 00 00 00	 call	 ?GetChangeLookWindowOpen@CPythonPlayer@@QBE_NXZ ; CPythonPlayer::GetChangeLookWindowOpen
  00029	0f b6 c0	 movzx	 eax, al
  0002c	50		 push	 eax
  0002d	68 00 00 00 00	 push	 OFFSET ??_C@_01OJONOECF@b@
  00032	ff 15 00 00 00
	00		 call	 DWORD PTR __imp__Py_BuildValue
  00038	83 c4 08	 add	 esp, 8

; 2946 : }

  0003b	c3		 ret	 0
?playerGetChangeLookWindowOpen@@YAPAU_object@@PAU1@0@Z ENDP ; playerGetChangeLookWindowOpen
_TEXT	ENDS
; Function compile flags: /Ogtp
; File C:\Anka2Project\Anka2Project\Source\Binary\source\UserInterface\PythonPlayerModule.cpp
; File C:\Anka2Project\Anka2Project\Source\Binary\source\eterBase\Singleton.h
; File C:\Anka2Project\Anka2Project\Source\Binary\source\UserInterface\PythonPlayerModule.cpp
; File C:\Anka2Project\Anka2Project\Source\Binary\source\eterBase\Singleton.h
; File C:\Anka2Project\Anka2Project\Source\Binary\source\UserInterface\PythonPlayerModule.cpp
;	COMDAT ?playerGetChangeLookItemID@@YAPAU_object@@PAU1@0@Z
_TEXT	SEGMENT
_bSlotType$ = -8					; size = 1
$T5 = -4						; size = 3
_poSelf$ = 8						; size = 4
_poArgs$ = 12						; size = 4
?playerGetChangeLookItemID@@YAPAU_object@@PAU1@0@Z PROC	; playerGetChangeLookItemID, COMDAT

; 2960 : {

  00000	55		 push	 ebp
  00001	8b ec		 mov	 ebp, esp
  00003	83 ec 08	 sub	 esp, 8

; 2961 : 	BYTE bSlotType;
; 2962 : 	if (!PyTuple_GetByte(poArgs, 0, &bSlotType))

  00006	8d 45 f8	 lea	 eax, DWORD PTR _bSlotType$[ebp]
  00009	56		 push	 esi
  0000a	50		 push	 eax
  0000b	6a 00		 push	 0
  0000d	ff 75 0c	 push	 DWORD PTR _poArgs$[ebp]
  00010	e8 00 00 00 00	 call	 ?PyTuple_GetByte@@YA_NPAU_object@@HPAE@Z ; PyTuple_GetByte
  00015	83 c4 0c	 add	 esp, 12			; 0000000cH
  00018	84 c0		 test	 al, al
  0001a	75 0a		 jne	 SHORT $LN2@playerGetC

; 2963 : 		return Py_BadArgument();

  0001c	e8 00 00 00 00	 call	 ?Py_BadArgument@@YAPAU_object@@XZ ; Py_BadArgument

; 2977 : }

  00021	5e		 pop	 esi
  00022	8b e5		 mov	 esp, ebp
  00024	5d		 pop	 ebp
  00025	c3		 ret	 0
$LN2@playerGetC:

; 2964 : 
; 2965 : 	if (bSlotType >= static_cast<BYTE>(ETRANSMUTATIONSLOTTYPE::TRANSMUTATION_SLOT_MAX))

  00026	8b 45 f8	 mov	 eax, DWORD PTR _bSlotType$[ebp]
  00029	3c 02		 cmp	 al, 2
  0002b	72 0f		 jb	 SHORT $LN3@playerGetC

; 2966 : 		return Py_BuildException();

  0002d	6a 00		 push	 0
  0002f	e8 00 00 00 00	 call	 ?Py_BuildException@@YAPAU_object@@PBDZZ ; Py_BuildException
  00034	83 c4 04	 add	 esp, 4

; 2977 : }

  00037	5e		 pop	 esi
  00038	8b e5		 mov	 esp, ebp
  0003a	5d		 pop	 ebp
  0003b	c3		 ret	 0
$LN3@playerGetC:
; File C:\Anka2Project\Anka2Project\Source\Binary\source\eterBase\Singleton.h

; 26   : 		assert(ms_singleton);

  0003c	8b 0d 00 00 00
	00		 mov	 ecx, DWORD PTR ?ms_singleton@?$CSingleton@VCPythonPlayer@@@@0PAVCPythonPlayer@@A ; CSingleton<CPythonPlayer>::ms_singleton
  00042	85 c9		 test	 ecx, ecx
  00044	75 1d		 jne	 SHORT $LN9@playerGetC
  00046	6a 1a		 push	 26			; 0000001aH
  00048	68 00 00 00 00	 push	 OFFSET ??_C@_1IO@CAJLEEOI@?$AAC?$AA?3?$AA?2?$AAA?$AAn?$AAk?$AAa?$AA2?$AAP?$AAr?$AAo?$AAj?$AAe?$AAc?$AAt@
  0004d	68 00 00 00 00	 push	 OFFSET ??_C@_1BK@FMEHPMFE@?$AAm?$AAs?$AA_?$AAs?$AAi?$AAn?$AAg?$AAl?$AAe?$AAt?$AAo?$AAn@
  00052	e8 00 00 00 00	 call	 __wassert
  00057	8b 45 f8	 mov	 eax, DWORD PTR _bSlotType$[ebp]
  0005a	83 c4 0c	 add	 esp, 12			; 0000000cH
  0005d	8b 0d 00 00 00
	00		 mov	 ecx, DWORD PTR ?ms_singleton@?$CSingleton@VCPythonPlayer@@@@0PAVCPythonPlayer@@A ; CSingleton<CPythonPlayer>::ms_singleton
$LN9@playerGetC:
; File C:\Anka2Project\Anka2Project\Source\Binary\source\UserInterface\PythonPlayerModule.cpp

; 2968 : 	const TPacketGCTransmutationItemSet *item = CPythonPlayer::Instance().GetChangeLookItemData(bSlotType);

  00063	50		 push	 eax
  00064	e8 00 00 00 00	 call	 ?GetChangeLookItemData@CPythonPlayer@@QAEPAUpacket_set_transmutation@@E@Z ; CPythonPlayer::GetChangeLookItemData
  00069	8b f0		 mov	 esi, eax

; 2969 : 	if (!item)

  0006b	85 f6		 test	 esi, esi
  0006d	75 15		 jne	 SHORT $LN4@playerGetC
$LN22@playerGetC:

; 2977 : }

  0006f	6a 00		 push	 0
  00071	68 00 00 00 00	 push	 OFFSET ??_C@_01KBJDNOO@i@
  00076	ff 15 00 00 00
	00		 call	 DWORD PTR __imp__Py_BuildValue
  0007c	83 c4 08	 add	 esp, 8
  0007f	5e		 pop	 esi
  00080	8b e5		 mov	 esp, ebp
  00082	5d		 pop	 ebp
  00083	c3		 ret	 0
$LN4@playerGetC:
; File C:\Anka2Project\Anka2Project\Source\Binary\source\eterBase\Singleton.h

; 26   : 		assert(ms_singleton);

  00084	85 c9		 test	 ecx, ecx
  00086	75 1a		 jne	 SHORT $LN12@playerGetC
  00088	6a 1a		 push	 26			; 0000001aH
  0008a	68 00 00 00 00	 push	 OFFSET ??_C@_1IO@CAJLEEOI@?$AAC?$AA?3?$AA?2?$AAA?$AAn?$AAk?$AAa?$AA2?$AAP?$AAr?$AAo?$AAj?$AAe?$AAc?$AAt@
  0008f	68 00 00 00 00	 push	 OFFSET ??_C@_1BK@FMEHPMFE@?$AAm?$AAs?$AA_?$AAs?$AAi?$AAn?$AAg?$AAl?$AAe?$AAt?$AAo?$AAn@
  00094	e8 00 00 00 00	 call	 __wassert
  00099	8b 0d 00 00 00
	00		 mov	 ecx, DWORD PTR ?ms_singleton@?$CSingleton@VCPythonPlayer@@@@0PAVCPythonPlayer@@A ; CSingleton<CPythonPlayer>::ms_singleton
  0009f	83 c4 0c	 add	 esp, 12			; 0000000cH
$LN12@playerGetC:
; File C:\Anka2Project\Anka2Project\Source\Binary\source\UserInterface\PythonPlayerModule.cpp

; 2972 : 	const TItemData *pPlayerItem = CPythonPlayer::Instance().GetItemData(TItemPos(INVENTORY, item->wCell));

  000a2	0f b7 46 01	 movzx	 eax, WORD PTR [esi+1]
  000a6	51		 push	 ecx
  000a7	8b d4		 mov	 edx, esp
  000a9	66 89 45 fd	 mov	 WORD PTR $T5[ebp+1], ax
  000ad	c6 45 fc 01	 mov	 BYTE PTR $T5[ebp], 1
  000b1	0f b7 45 fc	 movzx	 eax, WORD PTR $T5[ebp]
  000b5	66 89 02	 mov	 WORD PTR [edx], ax
  000b8	8a 45 fe	 mov	 al, BYTE PTR $T5[ebp+2]
  000bb	88 42 02	 mov	 BYTE PTR [edx+2], al
  000be	e8 00 00 00 00	 call	 ?GetItemData@CPythonPlayer@@QBEPBUpacket_item@@USItemPos@@@Z ; CPythonPlayer::GetItemData

; 2973 : 	if (!pPlayerItem)

  000c3	85 c0		 test	 eax, eax
  000c5	74 a8		 je	 SHORT $LN22@playerGetC

; 2974 : 		return Py_BuildValue("i", 0);
; 2975 : 
; 2976 : 	return Py_BuildValue("i", pPlayerItem->vnum);

  000c7	ff 30		 push	 DWORD PTR [eax]

; 2977 : }

  000c9	68 00 00 00 00	 push	 OFFSET ??_C@_01KBJDNOO@i@
  000ce	ff 15 00 00 00
	00		 call	 DWORD PTR __imp__Py_BuildValue
  000d4	83 c4 08	 add	 esp, 8
  000d7	5e		 pop	 esi
  000d8	8b e5		 mov	 esp, ebp
  000da	5d		 pop	 ebp
  000db	c3		 ret	 0
?playerGetChangeLookItemID@@YAPAU_object@@PAU1@0@Z ENDP	; playerGetChangeLookItemID
_TEXT	ENDS
; Function compile flags: /Ogtp
; File C:\Anka2Project\Anka2Project\Source\Binary\source\UserInterface\PythonPlayerModule.cpp
; File C:\Anka2Project\Anka2Project\Source\Binary\source\eterBase\Singleton.h
; File C:\Anka2Project\Anka2Project\Source\Binary\source\UserInterface\PythonPlayerModule.cpp
;	COMDAT ?playerGetChangeLookItemInvenSlot@@YAPAU_object@@PAU1@0@Z
_TEXT	SEGMENT
_bSlotType$ = -4					; size = 1
_poSelf$ = 8						; size = 4
_poArgs$ = 12						; size = 4
?playerGetChangeLookItemInvenSlot@@YAPAU_object@@PAU1@0@Z PROC ; playerGetChangeLookItemInvenSlot, COMDAT

; 2980 : {

  00000	55		 push	 ebp
  00001	8b ec		 mov	 ebp, esp
  00003	51		 push	 ecx

; 2981 : 	BYTE bSlotType;
; 2982 : 	if (!PyTuple_GetByte(poArgs, 0, &bSlotType))

  00004	8d 45 fc	 lea	 eax, DWORD PTR _bSlotType$[ebp]
  00007	50		 push	 eax
  00008	6a 00		 push	 0
  0000a	ff 75 0c	 push	 DWORD PTR _poArgs$[ebp]
  0000d	e8 00 00 00 00	 call	 ?PyTuple_GetByte@@YA_NPAU_object@@HPAE@Z ; PyTuple_GetByte
  00012	83 c4 0c	 add	 esp, 12			; 0000000cH
  00015	84 c0		 test	 al, al
  00017	75 09		 jne	 SHORT $LN2@playerGetC

; 2983 : 		return Py_BadArgument();

  00019	e8 00 00 00 00	 call	 ?Py_BadArgument@@YAPAU_object@@XZ ; Py_BadArgument

; 2993 : }

  0001e	8b e5		 mov	 esp, ebp
  00020	5d		 pop	 ebp
  00021	c3		 ret	 0
$LN2@playerGetC:

; 2984 : 
; 2985 : 	if (bSlotType >= static_cast<BYTE>(ETRANSMUTATIONSLOTTYPE::TRANSMUTATION_SLOT_MAX))

  00022	8b 45 fc	 mov	 eax, DWORD PTR _bSlotType$[ebp]
  00025	3c 02		 cmp	 al, 2
  00027	72 0e		 jb	 SHORT $LN3@playerGetC

; 2986 : 		return Py_BuildException();

  00029	6a 00		 push	 0
  0002b	e8 00 00 00 00	 call	 ?Py_BuildException@@YAPAU_object@@PBDZZ ; Py_BuildException
  00030	83 c4 04	 add	 esp, 4

; 2993 : }

  00033	8b e5		 mov	 esp, ebp
  00035	5d		 pop	 ebp
  00036	c3		 ret	 0
$LN3@playerGetC:
; File C:\Anka2Project\Anka2Project\Source\Binary\source\eterBase\Singleton.h

; 26   : 		assert(ms_singleton);

  00037	8b 0d 00 00 00
	00		 mov	 ecx, DWORD PTR ?ms_singleton@?$CSingleton@VCPythonPlayer@@@@0PAVCPythonPlayer@@A ; CSingleton<CPythonPlayer>::ms_singleton
  0003d	85 c9		 test	 ecx, ecx
  0003f	75 1d		 jne	 SHORT $LN8@playerGetC
  00041	6a 1a		 push	 26			; 0000001aH
  00043	68 00 00 00 00	 push	 OFFSET ??_C@_1IO@CAJLEEOI@?$AAC?$AA?3?$AA?2?$AAA?$AAn?$AAk?$AAa?$AA2?$AAP?$AAr?$AAo?$AAj?$AAe?$AAc?$AAt@
  00048	68 00 00 00 00	 push	 OFFSET ??_C@_1BK@FMEHPMFE@?$AAm?$AAs?$AA_?$AAs?$AAi?$AAn?$AAg?$AAl?$AAe?$AAt?$AAo?$AAn@
  0004d	e8 00 00 00 00	 call	 __wassert
  00052	8b 45 fc	 mov	 eax, DWORD PTR _bSlotType$[ebp]
  00055	83 c4 0c	 add	 esp, 12			; 0000000cH
  00058	8b 0d 00 00 00
	00		 mov	 ecx, DWORD PTR ?ms_singleton@?$CSingleton@VCPythonPlayer@@@@0PAVCPythonPlayer@@A ; CSingleton<CPythonPlayer>::ms_singleton
$LN8@playerGetC:
; File C:\Anka2Project\Anka2Project\Source\Binary\source\UserInterface\PythonPlayerModule.cpp

; 2988 : 	const TPacketGCTransmutationItemSet *item = CPythonPlayer::Instance().GetChangeLookItemData(bSlotType);

  0005e	50		 push	 eax
  0005f	e8 00 00 00 00	 call	 ?GetChangeLookItemData@CPythonPlayer@@QAEPAUpacket_set_transmutation@@E@Z ; CPythonPlayer::GetChangeLookItemData

; 2989 : 	if (item)

  00064	85 c0		 test	 eax, eax
  00066	74 17		 je	 SHORT $LN4@playerGetC

; 2990 : 		return Py_BuildValue("i", item->wCell);

  00068	0f b7 40 01	 movzx	 eax, WORD PTR [eax+1]
  0006c	50		 push	 eax

; 2993 : }

  0006d	68 00 00 00 00	 push	 OFFSET ??_C@_01KBJDNOO@i@
  00072	ff 15 00 00 00
	00		 call	 DWORD PTR __imp__Py_BuildValue
  00078	83 c4 08	 add	 esp, 8
  0007b	8b e5		 mov	 esp, ebp
  0007d	5d		 pop	 ebp
  0007e	c3		 ret	 0
$LN4@playerGetC:

; 2991 : 
; 2992 : 	return Py_BuildValue("i", 0);

  0007f	6a 00		 push	 0

; 2993 : }

  00081	68 00 00 00 00	 push	 OFFSET ??_C@_01KBJDNOO@i@
  00086	ff 15 00 00 00
	00		 call	 DWORD PTR __imp__Py_BuildValue
  0008c	83 c4 08	 add	 esp, 8
  0008f	8b e5		 mov	 esp, ebp
  00091	5d		 pop	 ebp
  00092	c3		 ret	 0
?playerGetChangeLookItemInvenSlot@@YAPAU_object@@PAU1@0@Z ENDP ; playerGetChangeLookItemInvenSlot
_TEXT	ENDS
; Function compile flags: /Ogtp
; File C:\Anka2Project\Anka2Project\Source\Binary\source\UserInterface\PythonPlayerModule.cpp
; File C:\Anka2Project\Anka2Project\Source\Binary\source\eterBase\Singleton.h
; File C:\Anka2Project\Anka2Project\Source\Binary\source\UserInterface\PythonPlayerModule.cpp
; File C:\Anka2Project\Anka2Project\Source\Binary\source\eterBase\Singleton.h
; File C:\Anka2Project\Anka2Project\Source\Binary\source\UserInterface\PythonPlayerModule.cpp
; File C:\Anka2Project\Anka2Project\Source\Binary\source\eterBase\Singleton.h
; File C:\Anka2Project\Anka2Project\Source\Binary\source\UserInterface\PythonPlayerModule.cpp
;	COMDAT ?playerGetChangeLookFreeYangItemID@@YAPAU_object@@PAU1@0@Z
_TEXT	SEGMENT
$T5 = -4						; size = 3
_poSelf$ = 8						; size = 4
_poArgs$ = 12						; size = 4
?playerGetChangeLookFreeYangItemID@@YAPAU_object@@PAU1@0@Z PROC ; playerGetChangeLookFreeYangItemID, COMDAT

; 2996 : {

  00000	55		 push	 ebp
  00001	8b ec		 mov	 ebp, esp
  00003	51		 push	 ecx
; File C:\Anka2Project\Anka2Project\Source\Binary\source\eterBase\Singleton.h

; 26   : 		assert(ms_singleton);

  00004	8b 0d 00 00 00
	00		 mov	 ecx, DWORD PTR ?ms_singleton@?$CSingleton@VCPythonPlayer@@@@0PAVCPythonPlayer@@A ; CSingleton<CPythonPlayer>::ms_singleton
; File C:\Anka2Project\Anka2Project\Source\Binary\source\UserInterface\PythonPlayerModule.cpp

; 2996 : {

  0000a	56		 push	 esi
; File C:\Anka2Project\Anka2Project\Source\Binary\source\eterBase\Singleton.h

; 26   : 		assert(ms_singleton);

  0000b	85 c9		 test	 ecx, ecx
  0000d	75 1a		 jne	 SHORT $LN7@playerGetC
  0000f	6a 1a		 push	 26			; 0000001aH
  00011	68 00 00 00 00	 push	 OFFSET ??_C@_1IO@CAJLEEOI@?$AAC?$AA?3?$AA?2?$AAA?$AAn?$AAk?$AAa?$AA2?$AAP?$AAr?$AAo?$AAj?$AAe?$AAc?$AAt@
  00016	68 00 00 00 00	 push	 OFFSET ??_C@_1BK@FMEHPMFE@?$AAm?$AAs?$AA_?$AAs?$AAi?$AAn?$AAg?$AAl?$AAe?$AAt?$AAo?$AAn@
  0001b	e8 00 00 00 00	 call	 __wassert
  00020	8b 0d 00 00 00
	00		 mov	 ecx, DWORD PTR ?ms_singleton@?$CSingleton@VCPythonPlayer@@@@0PAVCPythonPlayer@@A ; CSingleton<CPythonPlayer>::ms_singleton
  00026	83 c4 0c	 add	 esp, 12			; 0000000cH
$LN7@playerGetC:
; File C:\Anka2Project\Anka2Project\Source\Binary\source\UserInterface\PythonPlayerModule.cpp

; 2997 : 	const TPacketGCTransmutationItemSet* item = CPythonPlayer::Instance().GetChangeLookFreeItemData();

  00029	e8 00 00 00 00	 call	 ?GetChangeLookFreeItemData@CPythonPlayer@@QAEPAUpacket_set_transmutation@@XZ ; CPythonPlayer::GetChangeLookFreeItemData
  0002e	8b f0		 mov	 esi, eax

; 2998 : 	if (!item)

  00030	85 f6		 test	 esi, esi
  00032	75 15		 jne	 SHORT $LN2@playerGetC
$LN18@playerGetC:

; 3006 : }

  00034	6a 00		 push	 0
  00036	68 00 00 00 00	 push	 OFFSET ??_C@_01KBJDNOO@i@
  0003b	ff 15 00 00 00
	00		 call	 DWORD PTR __imp__Py_BuildValue
  00041	83 c4 08	 add	 esp, 8
  00044	5e		 pop	 esi
  00045	8b e5		 mov	 esp, ebp
  00047	5d		 pop	 ebp
  00048	c3		 ret	 0
$LN2@playerGetC:
; File C:\Anka2Project\Anka2Project\Source\Binary\source\eterBase\Singleton.h

; 26   : 		assert(ms_singleton);

  00049	85 c9		 test	 ecx, ecx
  0004b	75 1a		 jne	 SHORT $LN10@playerGetC
  0004d	6a 1a		 push	 26			; 0000001aH
  0004f	68 00 00 00 00	 push	 OFFSET ??_C@_1IO@CAJLEEOI@?$AAC?$AA?3?$AA?2?$AAA?$AAn?$AAk?$AAa?$AA2?$AAP?$AAr?$AAo?$AAj?$AAe?$AAc?$AAt@
  00054	68 00 00 00 00	 push	 OFFSET ??_C@_1BK@FMEHPMFE@?$AAm?$AAs?$AA_?$AAs?$AAi?$AAn?$AAg?$AAl?$AAe?$AAt?$AAo?$AAn@
  00059	e8 00 00 00 00	 call	 __wassert
  0005e	8b 0d 00 00 00
	00		 mov	 ecx, DWORD PTR ?ms_singleton@?$CSingleton@VCPythonPlayer@@@@0PAVCPythonPlayer@@A ; CSingleton<CPythonPlayer>::ms_singleton
  00064	83 c4 0c	 add	 esp, 12			; 0000000cH
$LN10@playerGetC:
; File C:\Anka2Project\Anka2Project\Source\Binary\source\UserInterface\PythonPlayerModule.cpp

; 3001 : 	const TItemData *pPlayerItem = CPythonPlayer::Instance().GetItemData(TItemPos(INVENTORY, item->wCell));

  00067	0f b7 46 01	 movzx	 eax, WORD PTR [esi+1]
  0006b	51		 push	 ecx
  0006c	8b d4		 mov	 edx, esp
  0006e	66 89 45 fd	 mov	 WORD PTR $T5[ebp+1], ax
  00072	c6 45 fc 01	 mov	 BYTE PTR $T5[ebp], 1
  00076	0f b7 45 fc	 movzx	 eax, WORD PTR $T5[ebp]
  0007a	66 89 02	 mov	 WORD PTR [edx], ax
  0007d	8a 45 fe	 mov	 al, BYTE PTR $T5[ebp+2]
  00080	88 42 02	 mov	 BYTE PTR [edx+2], al
  00083	e8 00 00 00 00	 call	 ?GetItemData@CPythonPlayer@@QBEPBUpacket_item@@USItemPos@@@Z ; CPythonPlayer::GetItemData

; 3002 : 	if (!pPlayerItem)

  00088	85 c0		 test	 eax, eax
  0008a	74 a8		 je	 SHORT $LN18@playerGetC

; 3003 : 		return Py_BuildValue("i", 0);
; 3004 : 
; 3005 : 	return Py_BuildValue("i", pPlayerItem->vnum);

  0008c	ff 30		 push	 DWORD PTR [eax]

; 3006 : }

  0008e	68 00 00 00 00	 push	 OFFSET ??_C@_01KBJDNOO@i@
  00093	ff 15 00 00 00
	00		 call	 DWORD PTR __imp__Py_BuildValue
  00099	83 c4 08	 add	 esp, 8
  0009c	5e		 pop	 esi
  0009d	8b e5		 mov	 esp, ebp
  0009f	5d		 pop	 ebp
  000a0	c3		 ret	 0
?playerGetChangeLookFreeYangItemID@@YAPAU_object@@PAU1@0@Z ENDP ; playerGetChangeLookFreeYangItemID
_TEXT	ENDS
; Function compile flags: /Ogtp
; File C:\Anka2Project\Anka2Project\Source\Binary\source\UserInterface\PythonPlayerModule.cpp
; File C:\Anka2Project\Anka2Project\Source\Binary\source\eterBase\Singleton.h
; File C:\Anka2Project\Anka2Project\Source\Binary\source\UserInterface\PythonPlayerModule.cpp
;	COMDAT ?playerGetChangeLookFreeYangInvenSlotPos@@YAPAU_object@@PAU1@0@Z
_TEXT	SEGMENT
_poSelf$ = 8						; size = 4
_poArgs$ = 12						; size = 4
?playerGetChangeLookFreeYangInvenSlotPos@@YAPAU_object@@PAU1@0@Z PROC ; playerGetChangeLookFreeYangInvenSlotPos, COMDAT
; File C:\Anka2Project\Anka2Project\Source\Binary\source\eterBase\Singleton.h

; 26   : 		assert(ms_singleton);

  00000	8b 0d 00 00 00
	00		 mov	 ecx, DWORD PTR ?ms_singleton@?$CSingleton@VCPythonPlayer@@@@0PAVCPythonPlayer@@A ; CSingleton<CPythonPlayer>::ms_singleton
  00006	85 c9		 test	 ecx, ecx
  00008	75 1a		 jne	 SHORT $LN6@playerGetC
  0000a	6a 1a		 push	 26			; 0000001aH
  0000c	68 00 00 00 00	 push	 OFFSET ??_C@_1IO@CAJLEEOI@?$AAC?$AA?3?$AA?2?$AAA?$AAn?$AAk?$AAa?$AA2?$AAP?$AAr?$AAo?$AAj?$AAe?$AAc?$AAt@
  00011	68 00 00 00 00	 push	 OFFSET ??_C@_1BK@FMEHPMFE@?$AAm?$AAs?$AA_?$AAs?$AAi?$AAn?$AAg?$AAl?$AAe?$AAt?$AAo?$AAn@
  00016	e8 00 00 00 00	 call	 __wassert
  0001b	8b 0d 00 00 00
	00		 mov	 ecx, DWORD PTR ?ms_singleton@?$CSingleton@VCPythonPlayer@@@@0PAVCPythonPlayer@@A ; CSingleton<CPythonPlayer>::ms_singleton
  00021	83 c4 0c	 add	 esp, 12			; 0000000cH
$LN6@playerGetC:
; File C:\Anka2Project\Anka2Project\Source\Binary\source\UserInterface\PythonPlayerModule.cpp

; 3010 : 	const TPacketGCTransmutationItemSet *item = CPythonPlayer::Instance().GetChangeLookFreeItemData();

  00024	e8 00 00 00 00	 call	 ?GetChangeLookFreeItemData@CPythonPlayer@@QAEPAUpacket_set_transmutation@@XZ ; CPythonPlayer::GetChangeLookFreeItemData

; 3011 : 	if (item)

  00029	85 c0		 test	 eax, eax
  0002b	74 14		 je	 SHORT $LN2@playerGetC

; 3012 : 		return Py_BuildValue("i", item->wCell);

  0002d	0f b7 40 01	 movzx	 eax, WORD PTR [eax+1]
  00031	50		 push	 eax

; 3015 : }

  00032	68 00 00 00 00	 push	 OFFSET ??_C@_01KBJDNOO@i@
  00037	ff 15 00 00 00
	00		 call	 DWORD PTR __imp__Py_BuildValue
  0003d	83 c4 08	 add	 esp, 8
  00040	c3		 ret	 0
$LN2@playerGetC:

; 3013 : 
; 3014 : 	return Py_BuildValue("i", 0);

  00041	6a 00		 push	 0

; 3015 : }

  00043	68 00 00 00 00	 push	 OFFSET ??_C@_01KBJDNOO@i@
  00048	ff 15 00 00 00
	00		 call	 DWORD PTR __imp__Py_BuildValue
  0004e	83 c4 08	 add	 esp, 8
  00051	c3		 ret	 0
?playerGetChangeLookFreeYangInvenSlotPos@@YAPAU_object@@PAU1@0@Z ENDP ; playerGetChangeLookFreeYangInvenSlotPos
_TEXT	ENDS
; Function compile flags: /Ogtp
; File C:\Anka2Project\Anka2Project\Source\Binary\source\UserInterface\PythonPlayerModule.cpp
; File C:\Anka2Project\Anka2Project\Source\Binary\source\UserInterface\GameType.h
; File C:\Anka2Project\Anka2Project\Source\Binary\source\UserInterface\PythonPlayerModule.cpp
; File C:\Anka2Project\Anka2Project\Source\Binary\source\eterBase\Singleton.h
; File C:\Anka2Project\Anka2Project\Source\Binary\source\UserInterface\PythonPlayerModule.cpp
; File C:\Anka2Project\Anka2Project\Source\Binary\source\eterBase\Singleton.h
; File C:\Anka2Project\Anka2Project\Source\Binary\source\UserInterface\PythonPlayerModule.cpp
; File C:\Anka2Project\Anka2Project\Source\Binary\source\eterBase\Singleton.h
; File C:\Anka2Project\Anka2Project\Source\Binary\source\UserInterface\PythonPlayerModule.cpp
;	COMDAT ?playerCanChangeLookClearItem@@YAPAU_object@@PAU1@0@Z
_TEXT	SEGMENT
_iItemVID$ = -8						; size = 4
_Cell$ = -4						; size = 3
_poSelf$ = 8						; size = 4
_poArgs$ = 12						; size = 4
?playerCanChangeLookClearItem@@YAPAU_object@@PAU1@0@Z PROC ; playerCanChangeLookClearItem, COMDAT

; 3018 : {

  00000	55		 push	 ebp
  00001	8b ec		 mov	 ebp, esp
  00003	83 ec 08	 sub	 esp, 8

; 3019 : 	int iItemVID;
; 3020 : 	if (!PyTuple_GetInteger(poArgs, 0, &iItemVID))

  00006	8d 45 f8	 lea	 eax, DWORD PTR _iItemVID$[ebp]
  00009	56		 push	 esi
  0000a	8b 75 0c	 mov	 esi, DWORD PTR _poArgs$[ebp]
  0000d	50		 push	 eax
  0000e	6a 00		 push	 0
  00010	56		 push	 esi
  00011	e8 00 00 00 00	 call	 ?PyTuple_GetInteger@@YA_NPAU_object@@HPAH@Z ; PyTuple_GetInteger
  00016	83 c4 0c	 add	 esp, 12			; 0000000cH
  00019	84 c0		 test	 al, al
  0001b	75 0a		 jne	 SHORT $LN2@playerCanC

; 3021 : 		return Py_BadArgument();

  0001d	e8 00 00 00 00	 call	 ?Py_BadArgument@@YAPAU_object@@XZ ; Py_BadArgument

; 3041 : }

  00022	5e		 pop	 esi
  00023	8b e5		 mov	 esp, ebp
  00025	5d		 pop	 ebp
  00026	c3		 ret	 0
$LN2@playerCanC:
; File C:\Anka2Project\Anka2Project\Source\Binary\source\UserInterface\GameType.h

; 448  : 		cell = WORD_MAX;

  00027	b8 ff ff 00 00	 mov	 eax, 65535		; 0000ffffH
  0002c	c6 45 fc 01	 mov	 BYTE PTR _Cell$[ebp], 1
  00030	66 89 45 fd	 mov	 WORD PTR _Cell$[ebp+1], ax
; File C:\Anka2Project\Anka2Project\Source\Binary\source\UserInterface\PythonPlayerModule.cpp

; 3024 : 	if (!PyTuple_GetByte(poArgs, 1, &Cell.window_type))

  00034	8d 45 fc	 lea	 eax, DWORD PTR _Cell$[ebp]
  00037	50		 push	 eax
  00038	6a 01		 push	 1
  0003a	56		 push	 esi
  0003b	e8 00 00 00 00	 call	 ?PyTuple_GetByte@@YA_NPAU_object@@HPAE@Z ; PyTuple_GetByte
  00040	83 c4 0c	 add	 esp, 12			; 0000000cH
  00043	84 c0		 test	 al, al
  00045	75 0f		 jne	 SHORT $LN3@playerCanC
$LN28@playerCanC:

; 3041 : }

  00047	6a 00		 push	 0
  00049	e8 00 00 00 00	 call	 ?Py_BuildException@@YAPAU_object@@PBDZZ ; Py_BuildException
  0004e	83 c4 04	 add	 esp, 4
  00051	5e		 pop	 esi
  00052	8b e5		 mov	 esp, ebp
  00054	5d		 pop	 ebp
  00055	c3		 ret	 0
$LN3@playerCanC:

; 3025 : 		return Py_BuildException();
; 3026 : 
; 3027 : 	if (!PyTuple_GetInteger(poArgs, 2, &Cell.cell))

  00056	8d 45 fd	 lea	 eax, DWORD PTR _Cell$[ebp+1]
  00059	50		 push	 eax
  0005a	6a 02		 push	 2
  0005c	56		 push	 esi
  0005d	e8 00 00 00 00	 call	 ?PyTuple_GetInteger@@YA_NPAU_object@@HPAG@Z ; PyTuple_GetInteger
  00062	83 c4 0c	 add	 esp, 12			; 0000000cH
  00065	84 c0		 test	 al, al
  00067	74 de		 je	 SHORT $LN28@playerCanC
; File C:\Anka2Project\Anka2Project\Source\Binary\source\eterBase\Singleton.h

; 26   : 		assert(ms_singleton);

  00069	8b 0d 00 00 00
	00		 mov	 ecx, DWORD PTR ?ms_singleton@?$CSingleton@VCItemManager@@@@0PAVCItemManager@@A ; CSingleton<CItemManager>::ms_singleton
  0006f	85 c9		 test	 ecx, ecx
  00071	75 1a		 jne	 SHORT $LN12@playerCanC
  00073	6a 1a		 push	 26			; 0000001aH
  00075	68 00 00 00 00	 push	 OFFSET ??_C@_1IO@CAJLEEOI@?$AAC?$AA?3?$AA?2?$AAA?$AAn?$AAk?$AAa?$AA2?$AAP?$AAr?$AAo?$AAj?$AAe?$AAc?$AAt@
  0007a	68 00 00 00 00	 push	 OFFSET ??_C@_1BK@FMEHPMFE@?$AAm?$AAs?$AA_?$AAs?$AAi?$AAn?$AAg?$AAl?$AAe?$AAt?$AAo?$AAn@
  0007f	e8 00 00 00 00	 call	 __wassert
  00084	8b 0d 00 00 00
	00		 mov	 ecx, DWORD PTR ?ms_singleton@?$CSingleton@VCItemManager@@@@0PAVCItemManager@@A ; CSingleton<CItemManager>::ms_singleton
  0008a	83 c4 0c	 add	 esp, 12			; 0000000cH
$LN12@playerCanC:
; File C:\Anka2Project\Anka2Project\Source\Binary\source\UserInterface\PythonPlayerModule.cpp

; 3030 : 	CItemManager::Instance().SelectItemData(iItemVID);

  0008d	ff 75 f8	 push	 DWORD PTR _iItemVID$[ebp]
  00090	e8 00 00 00 00	 call	 ?SelectItemData@CItemManager@@QAEHK@Z ; CItemManager::SelectItemData
; File C:\Anka2Project\Anka2Project\Source\Binary\source\eterBase\Singleton.h

; 26   : 		assert(ms_singleton);

  00095	8b 0d 00 00 00
	00		 mov	 ecx, DWORD PTR ?ms_singleton@?$CSingleton@VCItemManager@@@@0PAVCItemManager@@A ; CSingleton<CItemManager>::ms_singleton
  0009b	85 c9		 test	 ecx, ecx
  0009d	75 1a		 jne	 SHORT $LN15@playerCanC
  0009f	6a 1a		 push	 26			; 0000001aH
  000a1	68 00 00 00 00	 push	 OFFSET ??_C@_1IO@CAJLEEOI@?$AAC?$AA?3?$AA?2?$AAA?$AAn?$AAk?$AAa?$AA2?$AAP?$AAr?$AAo?$AAj?$AAe?$AAc?$AAt@
  000a6	68 00 00 00 00	 push	 OFFSET ??_C@_1BK@FMEHPMFE@?$AAm?$AAs?$AA_?$AAs?$AAi?$AAn?$AAg?$AAl?$AAe?$AAt?$AAo?$AAn@
  000ab	e8 00 00 00 00	 call	 __wassert
  000b0	8b 0d 00 00 00
	00		 mov	 ecx, DWORD PTR ?ms_singleton@?$CSingleton@VCItemManager@@@@0PAVCItemManager@@A ; CSingleton<CItemManager>::ms_singleton
  000b6	83 c4 0c	 add	 esp, 12			; 0000000cH
$LN15@playerCanC:
; File C:\Anka2Project\Anka2Project\Source\Binary\source\UserInterface\PythonPlayerModule.cpp

; 3031 : 	CItemData *pItemData = CItemManager::Instance().GetSelectedItemDataPointer();

  000b9	e8 00 00 00 00	 call	 ?GetSelectedItemDataPointer@CItemManager@@QAEPAVCItemData@@XZ ; CItemManager::GetSelectedItemDataPointer

; 3032 : 
; 3033 : 	if (!pItemData)

  000be	85 c0		 test	 eax, eax
  000c0	75 12		 jne	 SHORT $LN5@playerCanC

; 3034 : 		return Py_BuildException("Can't find select item data");

  000c2	68 00 00 00 00	 push	 OFFSET ??_C@_0BM@KPLEGEEH@Can?8t?5find?5select?5item?5data@
  000c7	e8 00 00 00 00	 call	 ?Py_BuildException@@YAPAU_object@@PBDZZ ; Py_BuildException
  000cc	83 c4 04	 add	 esp, 4

; 3041 : }

  000cf	5e		 pop	 esi
  000d0	8b e5		 mov	 esp, ebp
  000d2	5d		 pop	 ebp
  000d3	c3		 ret	 0
$LN5@playerCanC:
; File C:\Anka2Project\Anka2Project\Source\Binary\source\eterBase\Singleton.h

; 26   : 		assert(ms_singleton);

  000d4	8b 0d 00 00 00
	00		 mov	 ecx, DWORD PTR ?ms_singleton@?$CSingleton@VCPythonPlayer@@@@0PAVCPythonPlayer@@A ; CSingleton<CPythonPlayer>::ms_singleton
  000da	85 c9		 test	 ecx, ecx
  000dc	75 1a		 jne	 SHORT $LN18@playerCanC
  000de	6a 1a		 push	 26			; 0000001aH
  000e0	68 00 00 00 00	 push	 OFFSET ??_C@_1IO@CAJLEEOI@?$AAC?$AA?3?$AA?2?$AAA?$AAn?$AAk?$AAa?$AA2?$AAP?$AAr?$AAo?$AAj?$AAe?$AAc?$AAt@
  000e5	68 00 00 00 00	 push	 OFFSET ??_C@_1BK@FMEHPMFE@?$AAm?$AAs?$AA_?$AAs?$AAi?$AAn?$AAg?$AAl?$AAe?$AAt?$AAo?$AAn@
  000ea	e8 00 00 00 00	 call	 __wassert
  000ef	8b 0d 00 00 00
	00		 mov	 ecx, DWORD PTR ?ms_singleton@?$CSingleton@VCPythonPlayer@@@@0PAVCPythonPlayer@@A ; CSingleton<CPythonPlayer>::ms_singleton
  000f5	83 c4 0c	 add	 esp, 12			; 0000000cH
$LN18@playerCanC:
; File C:\Anka2Project\Anka2Project\Source\Binary\source\UserInterface\PythonPlayerModule.cpp

; 3036 : 	const TItemData *pPlayerItem = CPythonPlayer::Instance().GetItemData(Cell);

  000f8	66 8b 45 fc	 mov	 ax, WORD PTR _Cell$[ebp]
  000fc	51		 push	 ecx
  000fd	8b d4		 mov	 edx, esp
  000ff	66 89 02	 mov	 WORD PTR [edx], ax
  00102	8a 45 fe	 mov	 al, BYTE PTR _Cell$[ebp+2]
  00105	88 42 02	 mov	 BYTE PTR [edx+2], al
  00108	e8 00 00 00 00	 call	 ?GetItemData@CPythonPlayer@@QBEPBUpacket_item@@USItemPos@@@Z ; CPythonPlayer::GetItemData
  0010d	8b c8		 mov	 ecx, eax

; 3037 : 	if (pPlayerItem)

  0010f	85 c9		 test	 ecx, ecx
  00111	74 1c		 je	 SHORT $LN6@playerCanC

; 3038 : 		return Py_BuildValue("b", pPlayerItem->dwTransmutationVnum != 0);

  00113	33 c0		 xor	 eax, eax
  00115	39 41 2f	 cmp	 DWORD PTR [ecx+47], eax
  00118	0f 95 c0	 setne	 al
  0011b	50		 push	 eax

; 3041 : }

  0011c	68 00 00 00 00	 push	 OFFSET ??_C@_01OJONOECF@b@
  00121	ff 15 00 00 00
	00		 call	 DWORD PTR __imp__Py_BuildValue
  00127	83 c4 08	 add	 esp, 8
  0012a	5e		 pop	 esi
  0012b	8b e5		 mov	 esp, ebp
  0012d	5d		 pop	 ebp
  0012e	c3		 ret	 0
$LN6@playerCanC:

; 3039 : 
; 3040 : 	return Py_BuildValue("b", false);

  0012f	6a 00		 push	 0

; 3041 : }

  00131	68 00 00 00 00	 push	 OFFSET ??_C@_01OJONOECF@b@
  00136	ff 15 00 00 00
	00		 call	 DWORD PTR __imp__Py_BuildValue
  0013c	83 c4 08	 add	 esp, 8
  0013f	5e		 pop	 esi
  00140	8b e5		 mov	 esp, ebp
  00142	5d		 pop	 ebp
  00143	c3		 ret	 0
?playerCanChangeLookClearItem@@YAPAU_object@@PAU1@0@Z ENDP ; playerCanChangeLookClearItem
_TEXT	ENDS
; Function compile flags: /Ogtp
; File C:\Anka2Project\Anka2Project\Source\Binary\source\UserInterface\PythonPlayerModule.cpp
; File C:\Anka2Project\Anka2Project\Source\Binary\source\eterBase\Singleton.h
; File C:\Anka2Project\Anka2Project\Source\Binary\source\UserInterface\PythonPlayerModule.cpp
; File C:\Anka2Project\Anka2Project\Source\Binary\source\eterBase\Singleton.h
; File C:\Anka2Project\Anka2Project\Source\Binary\source\UserInterface\PythonPlayerModule.cpp
;	COMDAT ?playerGetChangeWIndowChangeLookVnum@@YAPAU_object@@PAU1@0@Z
_TEXT	SEGMENT
_bSlotType$ = -8					; size = 1
$T5 = -4						; size = 3
_poSelf$ = 8						; size = 4
_poArgs$ = 12						; size = 4
?playerGetChangeWIndowChangeLookVnum@@YAPAU_object@@PAU1@0@Z PROC ; playerGetChangeWIndowChangeLookVnum, COMDAT

; 3044 : {

  00000	55		 push	 ebp
  00001	8b ec		 mov	 ebp, esp
  00003	83 ec 08	 sub	 esp, 8

; 3045 : 	BYTE bSlotType;
; 3046 : 	if (!PyTuple_GetByte(poArgs, 0, &bSlotType))

  00006	8d 45 f8	 lea	 eax, DWORD PTR _bSlotType$[ebp]
  00009	56		 push	 esi
  0000a	50		 push	 eax
  0000b	6a 00		 push	 0
  0000d	ff 75 0c	 push	 DWORD PTR _poArgs$[ebp]
  00010	e8 00 00 00 00	 call	 ?PyTuple_GetByte@@YA_NPAU_object@@HPAE@Z ; PyTuple_GetByte
  00015	83 c4 0c	 add	 esp, 12			; 0000000cH
  00018	84 c0		 test	 al, al
  0001a	75 0a		 jne	 SHORT $LN2@playerGetC

; 3047 : 		return Py_BadArgument();

  0001c	e8 00 00 00 00	 call	 ?Py_BadArgument@@YAPAU_object@@XZ ; Py_BadArgument

; 3061 : }

  00021	5e		 pop	 esi
  00022	8b e5		 mov	 esp, ebp
  00024	5d		 pop	 ebp
  00025	c3		 ret	 0
$LN2@playerGetC:

; 3048 : 
; 3049 : 	if (bSlotType >= static_cast<BYTE>(ETRANSMUTATIONSLOTTYPE::TRANSMUTATION_SLOT_MAX))

  00026	8b 45 f8	 mov	 eax, DWORD PTR _bSlotType$[ebp]
  00029	3c 02		 cmp	 al, 2
  0002b	72 0f		 jb	 SHORT $LN3@playerGetC

; 3050 : 		return Py_BuildException();

  0002d	6a 00		 push	 0
  0002f	e8 00 00 00 00	 call	 ?Py_BuildException@@YAPAU_object@@PBDZZ ; Py_BuildException
  00034	83 c4 04	 add	 esp, 4

; 3061 : }

  00037	5e		 pop	 esi
  00038	8b e5		 mov	 esp, ebp
  0003a	5d		 pop	 ebp
  0003b	c3		 ret	 0
$LN3@playerGetC:
; File C:\Anka2Project\Anka2Project\Source\Binary\source\eterBase\Singleton.h

; 26   : 		assert(ms_singleton);

  0003c	8b 0d 00 00 00
	00		 mov	 ecx, DWORD PTR ?ms_singleton@?$CSingleton@VCPythonPlayer@@@@0PAVCPythonPlayer@@A ; CSingleton<CPythonPlayer>::ms_singleton
  00042	85 c9		 test	 ecx, ecx
  00044	75 1d		 jne	 SHORT $LN9@playerGetC
  00046	6a 1a		 push	 26			; 0000001aH
  00048	68 00 00 00 00	 push	 OFFSET ??_C@_1IO@CAJLEEOI@?$AAC?$AA?3?$AA?2?$AAA?$AAn?$AAk?$AAa?$AA2?$AAP?$AAr?$AAo?$AAj?$AAe?$AAc?$AAt@
  0004d	68 00 00 00 00	 push	 OFFSET ??_C@_1BK@FMEHPMFE@?$AAm?$AAs?$AA_?$AAs?$AAi?$AAn?$AAg?$AAl?$AAe?$AAt?$AAo?$AAn@
  00052	e8 00 00 00 00	 call	 __wassert
  00057	8b 45 f8	 mov	 eax, DWORD PTR _bSlotType$[ebp]
  0005a	83 c4 0c	 add	 esp, 12			; 0000000cH
  0005d	8b 0d 00 00 00
	00		 mov	 ecx, DWORD PTR ?ms_singleton@?$CSingleton@VCPythonPlayer@@@@0PAVCPythonPlayer@@A ; CSingleton<CPythonPlayer>::ms_singleton
$LN9@playerGetC:
; File C:\Anka2Project\Anka2Project\Source\Binary\source\UserInterface\PythonPlayerModule.cpp

; 3052 : 	const TPacketGCTransmutationItemSet *item = CPythonPlayer::Instance().GetChangeLookItemData(bSlotType);

  00063	50		 push	 eax
  00064	e8 00 00 00 00	 call	 ?GetChangeLookItemData@CPythonPlayer@@QAEPAUpacket_set_transmutation@@E@Z ; CPythonPlayer::GetChangeLookItemData
  00069	8b f0		 mov	 esi, eax

; 3053 : 	if (!item)

  0006b	85 f6		 test	 esi, esi
  0006d	75 15		 jne	 SHORT $LN4@playerGetC
$LN22@playerGetC:

; 3061 : }

  0006f	6a 00		 push	 0
  00071	68 00 00 00 00	 push	 OFFSET ??_C@_01KBJDNOO@i@
  00076	ff 15 00 00 00
	00		 call	 DWORD PTR __imp__Py_BuildValue
  0007c	83 c4 08	 add	 esp, 8
  0007f	5e		 pop	 esi
  00080	8b e5		 mov	 esp, ebp
  00082	5d		 pop	 ebp
  00083	c3		 ret	 0
$LN4@playerGetC:
; File C:\Anka2Project\Anka2Project\Source\Binary\source\eterBase\Singleton.h

; 26   : 		assert(ms_singleton);

  00084	85 c9		 test	 ecx, ecx
  00086	75 1a		 jne	 SHORT $LN12@playerGetC
  00088	6a 1a		 push	 26			; 0000001aH
  0008a	68 00 00 00 00	 push	 OFFSET ??_C@_1IO@CAJLEEOI@?$AAC?$AA?3?$AA?2?$AAA?$AAn?$AAk?$AAa?$AA2?$AAP?$AAr?$AAo?$AAj?$AAe?$AAc?$AAt@
  0008f	68 00 00 00 00	 push	 OFFSET ??_C@_1BK@FMEHPMFE@?$AAm?$AAs?$AA_?$AAs?$AAi?$AAn?$AAg?$AAl?$AAe?$AAt?$AAo?$AAn@
  00094	e8 00 00 00 00	 call	 __wassert
  00099	8b 0d 00 00 00
	00		 mov	 ecx, DWORD PTR ?ms_singleton@?$CSingleton@VCPythonPlayer@@@@0PAVCPythonPlayer@@A ; CSingleton<CPythonPlayer>::ms_singleton
  0009f	83 c4 0c	 add	 esp, 12			; 0000000cH
$LN12@playerGetC:
; File C:\Anka2Project\Anka2Project\Source\Binary\source\UserInterface\PythonPlayerModule.cpp

; 3056 : 	const TItemData *pPlayerItem = CPythonPlayer::Instance().GetItemData(TItemPos(INVENTORY, item->wCell));

  000a2	0f b7 46 01	 movzx	 eax, WORD PTR [esi+1]
  000a6	51		 push	 ecx
  000a7	8b d4		 mov	 edx, esp
  000a9	66 89 45 fd	 mov	 WORD PTR $T5[ebp+1], ax
  000ad	c6 45 fc 01	 mov	 BYTE PTR $T5[ebp], 1
  000b1	0f b7 45 fc	 movzx	 eax, WORD PTR $T5[ebp]
  000b5	66 89 02	 mov	 WORD PTR [edx], ax
  000b8	8a 45 fe	 mov	 al, BYTE PTR $T5[ebp+2]
  000bb	88 42 02	 mov	 BYTE PTR [edx+2], al
  000be	e8 00 00 00 00	 call	 ?GetItemData@CPythonPlayer@@QBEPBUpacket_item@@USItemPos@@@Z ; CPythonPlayer::GetItemData

; 3057 : 	if (!pPlayerItem)

  000c3	85 c0		 test	 eax, eax
  000c5	74 a8		 je	 SHORT $LN22@playerGetC

; 3058 : 		return Py_BuildValue("i", 0);
; 3059 : 
; 3060 : 	return Py_BuildValue("i", pPlayerItem->dwTransmutationVnum);

  000c7	ff 70 2f	 push	 DWORD PTR [eax+47]

; 3061 : }

  000ca	68 00 00 00 00	 push	 OFFSET ??_C@_01KBJDNOO@i@
  000cf	ff 15 00 00 00
	00		 call	 DWORD PTR __imp__Py_BuildValue
  000d5	83 c4 08	 add	 esp, 8
  000d8	5e		 pop	 esi
  000d9	8b e5		 mov	 esp, ebp
  000db	5d		 pop	 ebp
  000dc	c3		 ret	 0
?playerGetChangeWIndowChangeLookVnum@@YAPAU_object@@PAU1@0@Z ENDP ; playerGetChangeWIndowChangeLookVnum
_TEXT	ENDS
; Function compile flags: /Ogtp
; File C:\Anka2Project\Anka2Project\Source\Binary\source\UserInterface\PythonPlayerModule.cpp
; File C:\Anka2Project\Anka2Project\Source\Binary\source\eterBase\Singleton.h
; File C:\Anka2Project\Anka2Project\Source\Binary\source\UserInterface\PythonPlayerModule.cpp
;	COMDAT ?playerGetChangeChangeLookPrice@@YAPAU_object@@PAU1@0@Z
_TEXT	SEGMENT
_poSelf$ = 8						; size = 4
_poArgs$ = 12						; size = 4
?playerGetChangeChangeLookPrice@@YAPAU_object@@PAU1@0@Z PROC ; playerGetChangeChangeLookPrice, COMDAT
; File C:\Anka2Project\Anka2Project\Source\Binary\source\eterBase\Singleton.h

; 26   : 		assert(ms_singleton);

  00000	8b 0d 00 00 00
	00		 mov	 ecx, DWORD PTR ?ms_singleton@?$CSingleton@VCPythonPlayer@@@@0PAVCPythonPlayer@@A ; CSingleton<CPythonPlayer>::ms_singleton
  00006	85 c9		 test	 ecx, ecx
  00008	75 1a		 jne	 SHORT $LN9@playerGetC
  0000a	6a 1a		 push	 26			; 0000001aH
  0000c	68 00 00 00 00	 push	 OFFSET ??_C@_1IO@CAJLEEOI@?$AAC?$AA?3?$AA?2?$AAA?$AAn?$AAk?$AAa?$AA2?$AAP?$AAr?$AAo?$AAj?$AAe?$AAc?$AAt@
  00011	68 00 00 00 00	 push	 OFFSET ??_C@_1BK@FMEHPMFE@?$AAm?$AAs?$AA_?$AAs?$AAi?$AAn?$AAg?$AAl?$AAe?$AAt?$AAo?$AAn@
  00016	e8 00 00 00 00	 call	 __wassert
  0001b	8b 0d 00 00 00
	00		 mov	 ecx, DWORD PTR ?ms_singleton@?$CSingleton@VCPythonPlayer@@@@0PAVCPythonPlayer@@A ; CSingleton<CPythonPlayer>::ms_singleton
  00021	83 c4 0c	 add	 esp, 12			; 0000000cH
$LN9@playerGetC:
; File C:\Anka2Project\Anka2Project\Source\Binary\source\UserInterface\PythonPlayerModule.cpp

; 3065 : 	const bool bType = CPythonPlayer::Instance().GetChangeLookWindowType();

  00024	e8 00 00 00 00	 call	 ?GetChangeLookWindowType@CPythonPlayer@@QBE_NXZ ; CPythonPlayer::GetChangeLookWindowType

; 3066 : 	switch (static_cast<ETRANSMUTATIONTYPE>(bType))

  00029	0f b6 c0	 movzx	 eax, al
  0002c	83 e8 00	 sub	 eax, 0
  0002f	74 2a		 je	 SHORT $LN4@playerGetC
  00031	83 e8 01	 sub	 eax, 1
  00034	74 11		 je	 SHORT $LN5@playerGetC

; 3073 : 	}
; 3074 : 
; 3075 : 	return Py_BuildValue("i", 0);

  00036	6a 00		 push	 0

; 3076 : }

  00038	68 00 00 00 00	 push	 OFFSET ??_C@_01KBJDNOO@i@
  0003d	ff 15 00 00 00
	00		 call	 DWORD PTR __imp__Py_BuildValue
  00043	83 c4 08	 add	 esp, 8
  00046	c3		 ret	 0
$LN5@playerGetC:

; 3070 : 
; 3071 : 		case ETRANSMUTATIONTYPE::TRANSMUTATION_TYPE_ITEM:
; 3072 : 			return Py_BuildValue("i", static_cast<DWORD>(ETRANSMUTATIONSETTINGS::TRANSMUTATION_ITEM_PRICE));

  00047	68 80 f0 fa 02	 push	 50000000		; 02faf080H

; 3076 : }

  0004c	68 00 00 00 00	 push	 OFFSET ??_C@_01KBJDNOO@i@
  00051	ff 15 00 00 00
	00		 call	 DWORD PTR __imp__Py_BuildValue
  00057	83 c4 08	 add	 esp, 8
  0005a	c3		 ret	 0
$LN4@playerGetC:

; 3067 : 	{
; 3068 : 		case ETRANSMUTATIONTYPE::TRANSMUTATION_TYPE_MOUNT:
; 3069 : 			return Py_BuildValue("i", static_cast<DWORD>(ETRANSMUTATIONSETTINGS::TRANSMUTATION_MOUNT_PRICE));

  0005b	68 80 c3 c9 01	 push	 30000000		; 01c9c380H

; 3076 : }

  00060	68 00 00 00 00	 push	 OFFSET ??_C@_01KBJDNOO@i@
  00065	ff 15 00 00 00
	00		 call	 DWORD PTR __imp__Py_BuildValue
  0006b	83 c4 08	 add	 esp, 8
  0006e	c3		 ret	 0
?playerGetChangeChangeLookPrice@@YAPAU_object@@PAU1@0@Z ENDP ; playerGetChangeChangeLookPrice
_TEXT	ENDS
; Function compile flags: /Ogtp
; File C:\Anka2Project\Anka2Project\Source\Binary\source\UserInterface\PythonPlayerModule.cpp
; File C:\Program Files\Microsoft Visual Studio\2022\Community\VC\Tools\MSVC\14.44.35207\include\xstring
; File C:\Anka2Project\Anka2Project\Source\Binary\source\UserInterface\PythonPlayerModule.cpp
; File C:\Program Files\Microsoft Visual Studio\2022\Community\VC\Tools\MSVC\14.44.35207\include\xstring
; File C:\Anka2Project\Anka2Project\Source\Binary\source\UserInterface\PythonPlayerModule.cpp
; File C:\Program Files\Microsoft Visual Studio\2022\Community\VC\Tools\MSVC\14.44.35207\include\xstring
; File C:\Anka2Project\Anka2Project\Source\Binary\source\UserInterface\PythonPlayerModule.cpp
;	COMDAT ?initPlayer@@YAXXZ
_TEXT	SEGMENT
$T1 = -28						; size = 24
__$ArrayPad$ = -4					; size = 4
?initPlayer@@YAXXZ PROC					; initPlayer, COMDAT

; 3080 : {

  00000	55		 push	 ebp
  00001	8b ec		 mov	 ebp, esp
  00003	83 ec 20	 sub	 esp, 32			; 00000020H
  00006	a1 00 00 00 00	 mov	 eax, DWORD PTR ___security_cookie
  0000b	33 c5		 xor	 eax, ebp
  0000d	89 45 fc	 mov	 DWORD PTR __$ArrayPad$[ebp], eax
  00010	56		 push	 esi
  00011	57		 push	 edi

; 3353 : 	PyObject *poModule = Py_InitModule(GetModuleName(PLAYER_MODULE).c_str(), s_methods);

  00012	8d 45 e4	 lea	 eax, DWORD PTR $T1[ebp]
  00015	6a 05		 push	 5
  00017	50		 push	 eax
  00018	e8 00 00 00 00	 call	 ?GetModuleName@@YA?AV?$basic_string@DU?$char_traits@D@std@@V?$allocator@D@2@@std@@H@Z ; GetModuleName
  0001d	83 c4 08	 add	 esp, 8
; File C:\Program Files\Microsoft Visual Studio\2022\Community\VC\Tools\MSVC\14.44.35207\include\xstring

; 453  :         return _Myres > _Small_string_capacity;

  00020	83 78 14 0f	 cmp	 DWORD PTR [eax+20], 15	; 0000000fH

; 445  :         if (_Large_mode_engaged()) {

  00024	76 02		 jbe	 SHORT $LN8@initPlayer

; 446  :             _Result = _Unfancy(_Bx._Ptr);

  00026	8b 00		 mov	 eax, DWORD PTR [eax]
$LN8@initPlayer:
; File C:\Anka2Project\Anka2Project\Source\Binary\source\UserInterface\PythonPlayerModule.cpp

; 3353 : 	PyObject *poModule = Py_InitModule(GetModuleName(PLAYER_MODULE).c_str(), s_methods);

  00028	68 f5 03 00 00	 push	 1013			; 000003f5H
  0002d	6a 00		 push	 0
  0002f	6a 00		 push	 0
  00031	68 00 00 00 00	 push	 OFFSET ?s_methods@?1??initPlayer@@YAXXZ@4PAUPyMethodDef@@A
  00036	50		 push	 eax
  00037	ff 15 00 00 00
	00		 call	 DWORD PTR __imp__Py_InitModule4
  0003d	83 c4 14	 add	 esp, 20			; 00000014H
; File C:\Program Files\Microsoft Visual Studio\2022\Community\VC\Tools\MSVC\14.44.35207\include\xstring

; 1383 :         _Tidy_deallocate();

  00040	8d 4d e4	 lea	 ecx, DWORD PTR $T1[ebp]
; File C:\Anka2Project\Anka2Project\Source\Binary\source\UserInterface\PythonPlayerModule.cpp

; 3353 : 	PyObject *poModule = Py_InitModule(GetModuleName(PLAYER_MODULE).c_str(), s_methods);

  00043	8b f8		 mov	 edi, eax
; File C:\Program Files\Microsoft Visual Studio\2022\Community\VC\Tools\MSVC\14.44.35207\include\xstring

; 1383 :         _Tidy_deallocate();

  00045	e8 00 00 00 00	 call	 ?_Tidy_deallocate@?$basic_string@DU?$char_traits@D@std@@V?$allocator@D@2@@std@@AAEXXZ ; std::basic_string<char,std::char_traits<char>,std::allocator<char> >::_Tidy_deallocate
; File C:\Anka2Project\Anka2Project\Source\Binary\source\UserInterface\PythonPlayerModule.cpp

; 3358 : 	PyModule_AddIntConstant(poModule, "LEVEL", POINT_LEVEL);

  0004a	8b 35 00 00 00
	00		 mov	 esi, DWORD PTR __imp__PyModule_AddIntConstant
  00050	6a 01		 push	 1
  00052	68 00 00 00 00	 push	 OFFSET ??_C@_05GCEPFMCO@LEVEL@
  00057	57		 push	 edi
  00058	ff d6		 call	 esi
  0005a	83 c4 0c	 add	 esp, 12			; 0000000cH

; 3359 : 	PyModule_AddIntConstant(poModule, "VOICE", POINT_VOICE);

  0005d	6a 02		 push	 2
  0005f	68 00 00 00 00	 push	 OFFSET ??_C@_05FHIHOFEA@VOICE@
  00064	57		 push	 edi
  00065	ff d6		 call	 esi
  00067	83 c4 0c	 add	 esp, 12			; 0000000cH

; 3360 : 	PyModule_AddIntConstant(poModule, "EXP", POINT_EXP);

  0006a	6a 03		 push	 3
  0006c	68 00 00 00 00	 push	 OFFSET ??_C@_03KKGFKKLA@EXP@
  00071	57		 push	 edi
  00072	ff d6		 call	 esi
  00074	83 c4 0c	 add	 esp, 12			; 0000000cH

; 3361 : 	PyModule_AddIntConstant(poModule, "NEXT_EXP", POINT_NEXT_EXP);

  00077	6a 04		 push	 4
  00079	68 00 00 00 00	 push	 OFFSET ??_C@_08CHGDMADF@NEXT_EXP@
  0007e	57		 push	 edi
  0007f	ff d6		 call	 esi
  00081	83 c4 0c	 add	 esp, 12			; 0000000cH

; 3362 : 	PyModule_AddIntConstant(poModule, "HP", POINT_HP);

  00084	6a 05		 push	 5
  00086	68 00 00 00 00	 push	 OFFSET ??_C@_02MEIMKHMB@HP@
  0008b	57		 push	 edi
  0008c	ff d6		 call	 esi
  0008e	83 c4 0c	 add	 esp, 12			; 0000000cH

; 3363 : 	PyModule_AddIntConstant(poModule, "MAX_HP", POINT_MAX_HP);

  00091	6a 06		 push	 6
  00093	68 00 00 00 00	 push	 OFFSET ??_C@_06NMHEPHCD@MAX_HP@
  00098	57		 push	 edi
  00099	ff d6		 call	 esi
  0009b	83 c4 0c	 add	 esp, 12			; 0000000cH

; 3364 : 	PyModule_AddIntConstant(poModule, "SP", POINT_SP);

  0009e	6a 07		 push	 7
  000a0	68 00 00 00 00	 push	 OFFSET ??_C@_02NEPPOLFA@SP@
  000a5	57		 push	 edi
  000a6	ff d6		 call	 esi
  000a8	83 c4 0c	 add	 esp, 12			; 0000000cH

; 3365 : 	PyModule_AddIntConstant(poModule, "MAX_SP", POINT_MAX_SP);

  000ab	6a 08		 push	 8
  000ad	68 00 00 00 00	 push	 OFFSET ??_C@_06MMAHLLLC@MAX_SP@
  000b2	57		 push	 edi
  000b3	ff d6		 call	 esi
  000b5	83 c4 0c	 add	 esp, 12			; 0000000cH

; 3366 : 	PyModule_AddIntConstant(poModule, "STAMINA", POINT_STAMINA);

  000b8	6a 09		 push	 9
  000ba	68 00 00 00 00	 push	 OFFSET ??_C@_07IHPDJFBP@STAMINA@
  000bf	57		 push	 edi
  000c0	ff d6		 call	 esi
  000c2	83 c4 0c	 add	 esp, 12			; 0000000cH

; 3367 : 	PyModule_AddIntConstant(poModule, "MAX_STAMINA", POINT_MAX_STAMINA);

  000c5	6a 0a		 push	 10			; 0000000aH
  000c7	68 00 00 00 00	 push	 OFFSET ??_C@_0M@CHCGLEDD@MAX_STAMINA@
  000cc	57		 push	 edi
  000cd	ff d6		 call	 esi
  000cf	83 c4 0c	 add	 esp, 12			; 0000000cH

; 3368 : 	PyModule_AddIntConstant(poModule, "ELK", POINT_GOLD);

  000d2	6a 0b		 push	 11			; 0000000bH
  000d4	68 00 00 00 00	 push	 OFFSET ??_C@_03BIHMGKIG@ELK@
  000d9	57		 push	 edi
  000da	ff d6		 call	 esi
  000dc	83 c4 0c	 add	 esp, 12			; 0000000cH

; 3369 : 	PyModule_AddIntConstant(poModule, "ST", POINT_ST);

  000df	6a 0c		 push	 12			; 0000000cH
  000e1	68 00 00 00 00	 push	 OFFSET ??_C@_02LAJDCOFE@ST@
  000e6	57		 push	 edi
  000e7	ff d6		 call	 esi
  000e9	83 c4 0c	 add	 esp, 12			; 0000000cH

; 3370 : 	PyModule_AddIntConstant(poModule, "HT", POINT_HT);

  000ec	6a 0d		 push	 13			; 0000000dH
  000ee	68 00 00 00 00	 push	 OFFSET ??_C@_02KAOAGCMF@HT@
  000f3	57		 push	 edi
  000f4	ff d6		 call	 esi
  000f6	83 c4 0c	 add	 esp, 12			; 0000000cH

; 3371 : 	PyModule_AddIntConstant(poModule, "DX", POINT_DX);

  000f9	6a 0e		 push	 14			; 0000000eH
  000fb	68 00 00 00 00	 push	 OFFSET ??_C@_02FEPNEKN@DX@
  00100	57		 push	 edi
  00101	ff d6		 call	 esi
  00103	83 c4 0c	 add	 esp, 12			; 0000000cH

; 3372 : 	PyModule_AddIntConstant(poModule, "IQ", POINT_IQ);

  00106	6a 0f		 push	 15			; 0000000fH
  00108	68 00 00 00 00	 push	 OFFSET ??_C@_02NMFFPMLH@IQ@
  0010d	57		 push	 edi
  0010e	ff d6		 call	 esi
  00110	83 c4 0c	 add	 esp, 12			; 0000000cH

; 3373 : 	PyModule_AddIntConstant(poModule, "ATT_POWER", POINT_ATT_POWER);

  00113	6a 10		 push	 16			; 00000010H
  00115	68 00 00 00 00	 push	 OFFSET ??_C@_09DIGJAPIG@ATT_POWER@
  0011a	57		 push	 edi
  0011b	ff d6		 call	 esi
  0011d	83 c4 0c	 add	 esp, 12			; 0000000cH

; 3374 : 	PyModule_AddIntConstant(poModule, "ATT_MIN", POINT_MIN_ATK);

  00120	6a 1d		 push	 29			; 0000001dH
  00122	68 00 00 00 00	 push	 OFFSET ??_C@_07PNODGJJO@ATT_MIN@
  00127	57		 push	 edi
  00128	ff d6		 call	 esi
  0012a	83 c4 0c	 add	 esp, 12			; 0000000cH

; 3375 : 	PyModule_AddIntConstant(poModule, "ATT_MAX", POINT_MAX_ATK);

  0012d	6a 1e		 push	 30			; 0000001eH
  0012f	68 00 00 00 00	 push	 OFFSET ??_C@_07OPGIINPB@ATT_MAX@
  00134	57		 push	 edi
  00135	ff d6		 call	 esi
  00137	83 c4 0c	 add	 esp, 12			; 0000000cH

; 3376 : 	PyModule_AddIntConstant(poModule, "MIN_MAGIC_WEP", POINT_MIN_MAGIC_WEP);

  0013a	68 ca 00 00 00	 push	 202			; 000000caH
  0013f	68 00 00 00 00	 push	 OFFSET ??_C@_0O@CJNCLCGL@MIN_MAGIC_WEP@
  00144	57		 push	 edi
  00145	ff d6		 call	 esi
  00147	83 c4 0c	 add	 esp, 12			; 0000000cH

; 3377 : 	PyModule_AddIntConstant(poModule, "MAX_MAGIC_WEP", POINT_MAX_MAGIC_WEP);

  0014a	68 cb 00 00 00	 push	 203			; 000000cbH
  0014f	68 00 00 00 00	 push	 OFFSET ??_C@_0O@JAPECJBK@MAX_MAGIC_WEP@
  00154	57		 push	 edi
  00155	ff d6		 call	 esi
  00157	83 c4 0c	 add	 esp, 12			; 0000000cH

; 3378 : 	PyModule_AddIntConstant(poModule, "ATT_SPEED", POINT_ATT_SPEED);

  0015a	6a 11		 push	 17			; 00000011H
  0015c	68 00 00 00 00	 push	 OFFSET ??_C@_09LKMFFHLI@ATT_SPEED@
  00161	57		 push	 edi
  00162	ff d6		 call	 esi
  00164	83 c4 0c	 add	 esp, 12			; 0000000cH

; 3379 : 	PyModule_AddIntConstant(poModule, "ATT_BONUS", POINT_ATT_GRADE_BONUS);

  00167	6a 5f		 push	 95			; 0000005fH
  00169	68 00 00 00 00	 push	 OFFSET ??_C@_09FOFLCGDC@ATT_BONUS@
  0016e	57		 push	 edi
  0016f	ff d6		 call	 esi
  00171	83 c4 0c	 add	 esp, 12			; 0000000cH

; 3380 : 	PyModule_AddIntConstant(poModule, "EVADE_RATE", POINT_EVADE_RATE);

  00174	6a 12		 push	 18			; 00000012H
  00176	68 00 00 00 00	 push	 OFFSET ??_C@_0L@IPHIKIMB@EVADE_RATE@
  0017b	57		 push	 edi
  0017c	ff d6		 call	 esi
  0017e	83 c4 0c	 add	 esp, 12			; 0000000cH

; 3381 : 	PyModule_AddIntConstant(poModule, "MOVING_SPEED", POINT_MOV_SPEED);

  00181	6a 13		 push	 19			; 00000013H
  00183	68 00 00 00 00	 push	 OFFSET ??_C@_0N@KGGLAJKM@MOVING_SPEED@
  00188	57		 push	 edi
  00189	ff d6		 call	 esi
  0018b	83 c4 0c	 add	 esp, 12			; 0000000cH

; 3382 : 	PyModule_AddIntConstant(poModule, "DEF_GRADE", POINT_DEF_GRADE);

  0018e	6a 14		 push	 20			; 00000014H
  00190	68 00 00 00 00	 push	 OFFSET ??_C@_09KMPFCDFE@DEF_GRADE@
  00195	57		 push	 edi
  00196	ff d6		 call	 esi
  00198	83 c4 0c	 add	 esp, 12			; 0000000cH

; 3383 : 	PyModule_AddIntConstant(poModule, "DEF_BONUS", POINT_DEF_GRADE_BONUS);

  0019b	6a 60		 push	 96			; 00000060H
  0019d	68 00 00 00 00	 push	 OFFSET ??_C@_09DNFHINBC@DEF_BONUS@
  001a2	57		 push	 edi
  001a3	ff d6		 call	 esi
  001a5	83 c4 0c	 add	 esp, 12			; 0000000cH

; 3384 : 	PyModule_AddIntConstant(poModule, "CASTING_SPEED", POINT_CASTING_SPEED);

  001a8	6a 15		 push	 21			; 00000015H
  001aa	68 00 00 00 00	 push	 OFFSET ??_C@_0O@IOLIEEIE@CASTING_SPEED@
  001af	57		 push	 edi
  001b0	ff d6		 call	 esi
  001b2	83 c4 0c	 add	 esp, 12			; 0000000cH

; 3385 : 	PyModule_AddIntConstant(poModule, "MAG_ATT", POINT_MAGIC_ATT_GRADE);

  001b5	6a 16		 push	 22			; 00000016H
  001b7	68 00 00 00 00	 push	 OFFSET ??_C@_07PEONMKMN@MAG_ATT@
  001bc	57		 push	 edi
  001bd	ff d6		 call	 esi
  001bf	83 c4 0c	 add	 esp, 12			; 0000000cH

; 3386 : 	PyModule_AddIntConstant(poModule, "MAG_DEF", POINT_MAGIC_DEF_GRADE);

  001c2	6a 17		 push	 23			; 00000017H
  001c4	68 00 00 00 00	 push	 OFFSET ??_C@_07KGCDIDGL@MAG_DEF@
  001c9	57		 push	 edi
  001ca	ff d6		 call	 esi
  001cc	83 c4 0c	 add	 esp, 12			; 0000000cH

; 3387 : 	PyModule_AddIntConstant(poModule, "EMPIRE_POINT", POINT_EMPIRE_POINT);

  001cf	6a 18		 push	 24			; 00000018H
  001d1	68 00 00 00 00	 push	 OFFSET ??_C@_0N@JIFCAIPA@EMPIRE_POINT@
  001d6	57		 push	 edi
  001d7	ff d6		 call	 esi
  001d9	83 c4 0c	 add	 esp, 12			; 0000000cH

; 3388 : 	PyModule_AddIntConstant(poModule, "STAT", POINT_STAT);

  001dc	6a 1a		 push	 26			; 0000001aH
  001de	68 00 00 00 00	 push	 OFFSET ??_C@_04KNIOFKKL@STAT@
  001e3	57		 push	 edi
  001e4	ff d6		 call	 esi
  001e6	83 c4 0c	 add	 esp, 12			; 0000000cH

; 3389 : 	PyModule_AddIntConstant(poModule, "SKILL_PASSIVE", POINT_SUB_SKILL);

  001e9	6a 1b		 push	 27			; 0000001bH
  001eb	68 00 00 00 00	 push	 OFFSET ??_C@_0O@DGEPJFAK@SKILL_PASSIVE@
  001f0	57		 push	 edi
  001f1	ff d6		 call	 esi
  001f3	83 c4 0c	 add	 esp, 12			; 0000000cH

; 3390 : 	PyModule_AddIntConstant(poModule, "SKILL_SUPPORT", POINT_SUB_SKILL);

  001f6	6a 1b		 push	 27			; 0000001bH
  001f8	68 00 00 00 00	 push	 OFFSET ??_C@_0O@JLNOPGFK@SKILL_SUPPORT@
  001fd	57		 push	 edi
  001fe	ff d6		 call	 esi
  00200	83 c4 0c	 add	 esp, 12			; 0000000cH

; 3391 : 	PyModule_AddIntConstant(poModule, "SKILL_ACTIVE", POINT_SKILL);

  00203	6a 1c		 push	 28			; 0000001cH
  00205	68 00 00 00 00	 push	 OFFSET ??_C@_0N@DNBJLBPA@SKILL_ACTIVE@
  0020a	57		 push	 edi
  0020b	ff d6		 call	 esi
  0020d	83 c4 0c	 add	 esp, 12			; 0000000cH

; 3392 : 	PyModule_AddIntConstant(poModule, "SKILL_HORSE", POINT_HORSE_SKILL);

  00210	6a 71		 push	 113			; 00000071H
  00212	68 00 00 00 00	 push	 OFFSET ??_C@_0M@HAFIBGFL@SKILL_HORSE@
  00217	57		 push	 edi
  00218	ff d6		 call	 esi
  0021a	83 c4 0c	 add	 esp, 12			; 0000000cH

; 3393 : 	PyModule_AddIntConstant(poModule, "PLAYTIME", POINT_PLAYTIME);

  0021d	6a 1f		 push	 31			; 0000001fH
  0021f	68 00 00 00 00	 push	 OFFSET ??_C@_08CKIIBBI@PLAYTIME@
  00224	57		 push	 edi
  00225	ff d6		 call	 esi
  00227	83 c4 0c	 add	 esp, 12			; 0000000cH

; 3394 : 	PyModule_AddIntConstant(poModule, "BOW_DISTANCE", POINT_BOW_DISTANCE);

  0022a	6a 22		 push	 34			; 00000022H
  0022c	68 00 00 00 00	 push	 OFFSET ??_C@_0N@KHDDEEFG@BOW_DISTANCE@
  00231	57		 push	 edi
  00232	ff d6		 call	 esi
  00234	83 c4 0c	 add	 esp, 12			; 0000000cH

; 3395 : 	PyModule_AddIntConstant(poModule, "HP_RECOVERY", POINT_HP_RECOVERY);

  00237	6a 23		 push	 35			; 00000023H
  00239	68 00 00 00 00	 push	 OFFSET ??_C@_0M@CLAIAEPM@HP_RECOVERY@
  0023e	57		 push	 edi
  0023f	ff d6		 call	 esi
  00241	83 c4 0c	 add	 esp, 12			; 0000000cH

; 3396 : 	PyModule_AddIntConstant(poModule, "SP_RECOVERY", POINT_SP_RECOVERY);

  00244	6a 24		 push	 36			; 00000024H
  00246	68 00 00 00 00	 push	 OFFSET ??_C@_0M@FGICENAO@SP_RECOVERY@
  0024b	57		 push	 edi
  0024c	ff d6		 call	 esi
  0024e	83 c4 0c	 add	 esp, 12			; 0000000cH

; 3397 : 	PyModule_AddIntConstant(poModule, "ATTACKER_BONUS", POINT_PARTY_ATT_GRADE);

  00251	6a 5b		 push	 91			; 0000005bH
  00253	68 00 00 00 00	 push	 OFFSET ??_C@_0P@GAAMLPFK@ATTACKER_BONUS@
  00258	57		 push	 edi
  00259	ff d6		 call	 esi
  0025b	83 c4 0c	 add	 esp, 12			; 0000000cH

; 3398 : 	PyModule_AddIntConstant(poModule, "MAX_NUM", POINT_MAX_NUM);

  0025e	68 ff 00 00 00	 push	 255			; 000000ffH
  00263	68 00 00 00 00	 push	 OFFSET ??_C@_07MEMMKJPK@MAX_NUM@
  00268	57		 push	 edi
  00269	ff d6		 call	 esi
  0026b	83 c4 0c	 add	 esp, 12			; 0000000cH

; 3399 : 
; 3400 : 	PyModule_AddIntConstant(poModule, "POINT_CRITICAL_PCT", POINT_CRITICAL_PCT);

  0026e	6a 28		 push	 40			; 00000028H
  00270	68 00 00 00 00	 push	 OFFSET ??_C@_0BD@CPEECKKP@POINT_CRITICAL_PCT@
  00275	57		 push	 edi
  00276	ff d6		 call	 esi
  00278	83 c4 0c	 add	 esp, 12			; 0000000cH

; 3401 : 	PyModule_AddIntConstant(poModule, "POINT_PENETRATE_PCT", POINT_PENETRATE_PCT);

  0027b	6a 29		 push	 41			; 00000029H
  0027d	68 00 00 00 00	 push	 OFFSET ??_C@_0BE@BGNEFMNJ@POINT_PENETRATE_PCT@
  00282	57		 push	 edi
  00283	ff d6		 call	 esi
  00285	83 c4 0c	 add	 esp, 12			; 0000000cH

; 3402 : 	PyModule_AddIntConstant(poModule, "POINT_MALL_ATTBONUS", POINT_MALL_ATTBONUS);

  00288	6a 72		 push	 114			; 00000072H
  0028a	68 00 00 00 00	 push	 OFFSET ??_C@_0BE@FDGMKOPN@POINT_MALL_ATTBONUS@
  0028f	57		 push	 edi
  00290	ff d6		 call	 esi
  00292	83 c4 0c	 add	 esp, 12			; 0000000cH

; 3403 : 	PyModule_AddIntConstant(poModule, "POINT_MALL_DEFBONUS", POINT_MALL_DEFBONUS);

  00295	6a 73		 push	 115			; 00000073H
  00297	68 00 00 00 00	 push	 OFFSET ??_C@_0BE@FJKLFHOA@POINT_MALL_DEFBONUS@
  0029c	57		 push	 edi
  0029d	ff d6		 call	 esi
  0029f	83 c4 0c	 add	 esp, 12			; 0000000cH

; 3404 : 	PyModule_AddIntConstant(poModule, "POINT_MALL_EXPBONUS", POINT_MALL_EXPBONUS);

  002a2	6a 74		 push	 116			; 00000074H
  002a4	68 00 00 00 00	 push	 OFFSET ??_C@_0BE@KNGAMOKN@POINT_MALL_EXPBONUS@
  002a9	57		 push	 edi
  002aa	ff d6		 call	 esi
  002ac	83 c4 0c	 add	 esp, 12			; 0000000cH

; 3405 : 	PyModule_AddIntConstant(poModule, "POINT_MALL_ITEMBONUS", POINT_MALL_ITEMBONUS);

  002af	6a 75		 push	 117			; 00000075H
  002b1	68 00 00 00 00	 push	 OFFSET ??_C@_0BF@FCMHLHC@POINT_MALL_ITEMBONUS@
  002b6	57		 push	 edi
  002b7	ff d6		 call	 esi
  002b9	83 c4 0c	 add	 esp, 12			; 0000000cH

; 3406 : 	PyModule_AddIntConstant(poModule, "POINT_MALL_GOLDBONUS", POINT_MALL_GOLDBONUS);

  002bc	6a 76		 push	 118			; 00000076H
  002be	68 00 00 00 00	 push	 OFFSET ??_C@_0BF@LPKHMJJF@POINT_MALL_GOLDBONUS@
  002c3	57		 push	 edi
  002c4	ff d6		 call	 esi
  002c6	83 c4 0c	 add	 esp, 12			; 0000000cH

; 3407 : 	PyModule_AddIntConstant(poModule, "POINT_MAX_HP_PCT", POINT_MAX_HP_PCT);

  002c9	6a 77		 push	 119			; 00000077H
  002cb	68 00 00 00 00	 push	 OFFSET ??_C@_0BB@OCODMABI@POINT_MAX_HP_PCT@
  002d0	57		 push	 edi
  002d1	ff d6		 call	 esi
  002d3	83 c4 0c	 add	 esp, 12			; 0000000cH

; 3408 : 	PyModule_AddIntConstant(poModule, "POINT_MAX_SP_PCT", POINT_MAX_SP_PCT);

  002d6	6a 78		 push	 120			; 00000078H
  002d8	68 00 00 00 00	 push	 OFFSET ??_C@_0BB@IHDKAICM@POINT_MAX_SP_PCT@
  002dd	57		 push	 edi
  002de	ff d6		 call	 esi
  002e0	83 c4 0c	 add	 esp, 12			; 0000000cH

; 3409 : 	PyModule_AddIntConstant(poModule, "POINT_ATT_BONUS", POINT_ATT_BONUS);

  002e3	6a 5d		 push	 93			; 0000005dH
  002e5	68 00 00 00 00	 push	 OFFSET ??_C@_0BA@HLPPKIKO@POINT_ATT_BONUS@
  002ea	57		 push	 edi
  002eb	ff d6		 call	 esi
  002ed	83 c4 0c	 add	 esp, 12			; 0000000cH

; 3410 : 
; 3411 : 	PyModule_AddIntConstant(poModule, "POINT_SKILL_DAMAGE_BONUS", POINT_SKILL_DAMAGE_BONUS);

  002f0	6a 79		 push	 121			; 00000079H
  002f2	68 00 00 00 00	 push	 OFFSET ??_C@_0BJ@PGEFOCDG@POINT_SKILL_DAMAGE_BONUS@
  002f7	57		 push	 edi
  002f8	ff d6		 call	 esi
  002fa	83 c4 0c	 add	 esp, 12			; 0000000cH

; 3412 : 	PyModule_AddIntConstant(poModule, "POINT_NORMAL_HIT_DAMAGE_BONUS", POINT_NORMAL_HIT_DAMAGE_BONUS);

  002fd	6a 7a		 push	 122			; 0000007aH
  002ff	68 00 00 00 00	 push	 OFFSET ??_C@_0BO@GNDIKOOF@POINT_NORMAL_HIT_DAMAGE_BONUS@
  00304	57		 push	 edi
  00305	ff d6		 call	 esi
  00307	83 c4 0c	 add	 esp, 12			; 0000000cH

; 3413 : 	PyModule_AddIntConstant(poModule, "POINT_SKILL_DEFEND_BONUS", POINT_SKILL_DEFEND_BONUS);

  0030a	6a 7b		 push	 123			; 0000007bH
  0030c	68 00 00 00 00	 push	 OFFSET ??_C@_0BJ@LPIAEILC@POINT_SKILL_DEFEND_BONUS@
  00311	57		 push	 edi
  00312	ff d6		 call	 esi
  00314	83 c4 0c	 add	 esp, 12			; 0000000cH

; 3414 : 	PyModule_AddIntConstant(poModule, "POINT_NORMAL_HIT_DEFEND_BONUS", POINT_NORMAL_HIT_DEFEND_BONUS);

  00317	6a 7c		 push	 124			; 0000007cH
  00319	68 00 00 00 00	 push	 OFFSET ??_C@_0BO@CEPNAEGB@POINT_NORMAL_HIT_DEFEND_BONUS@
  0031e	57		 push	 edi
  0031f	ff d6		 call	 esi
  00321	83 c4 0c	 add	 esp, 12			; 0000000cH

; 3415 : 
; 3416 : 	PyModule_AddIntConstant(poModule, "RESIST_MAGIC", POINT_RESIST_MAGIC);

  00324	6a 4d		 push	 77			; 0000004dH
  00326	68 00 00 00 00	 push	 OFFSET ??_C@_0N@IJMJNHHP@RESIST_MAGIC@
  0032b	57		 push	 edi
  0032c	ff d6		 call	 esi
  0032e	83 c4 0c	 add	 esp, 12			; 0000000cH

; 3417 : 	PyModule_AddIntConstant(poModule, "POINT_ATTBONUS_MONSTER", POINT_ATTBONUS_MONSTER);

  00331	6a 35		 push	 53			; 00000035H
  00333	68 00 00 00 00	 push	 OFFSET ??_C@_0BH@PDEJPPI@POINT_ATTBONUS_MONSTER@
  00338	57		 push	 edi
  00339	ff d6		 call	 esi
  0033b	83 c4 0c	 add	 esp, 12			; 0000000cH

; 3418 : 
; 3419 : 	PyModule_AddIntConstant(poModule, "ENERGY", POINT_ENERGY);

  0033e	6a 7e		 push	 126			; 0000007eH
  00340	68 00 00 00 00	 push	 OFFSET ??_C@_06KOEJHMAL@ENERGY@
  00345	57		 push	 edi
  00346	ff d6		 call	 esi
  00348	83 c4 0c	 add	 esp, 12			; 0000000cH

; 3420 : 	PyModule_AddIntConstant(poModule, "ENERGY_END_TIME", POINT_ENERGY_END_TIME);

  0034b	6a 7f		 push	 127			; 0000007fH
  0034d	68 00 00 00 00	 push	 OFFSET ??_C@_0BA@PIHNCBED@ENERGY_END_TIME@
  00352	57		 push	 edi
  00353	ff d6		 call	 esi
  00355	83 c4 0c	 add	 esp, 12			; 0000000cH

; 3421 : 
; 3422 : 	PyModule_AddIntConstant(poModule, "POINT_COSTUME_ATTR_BONUS", POINT_COSTUME_ATTR_BONUS);

  00358	68 80 00 00 00	 push	 128			; 00000080H
  0035d	68 00 00 00 00	 push	 OFFSET ??_C@_0BJ@PLDLOAKE@POINT_COSTUME_ATTR_BONUS@
  00362	57		 push	 edi
  00363	ff d6		 call	 esi
  00365	83 c4 0c	 add	 esp, 12			; 0000000cH

; 3423 : 	PyModule_AddIntConstant(poModule, "POINT_MAGIC_ATT_BONUS_PER", POINT_MAGIC_ATT_BONUS_PER);

  00368	68 81 00 00 00	 push	 129			; 00000081H
  0036d	68 00 00 00 00	 push	 OFFSET ??_C@_0BK@IHLHEPKN@POINT_MAGIC_ATT_BONUS_PER@
  00372	57		 push	 edi
  00373	ff d6		 call	 esi
  00375	83 c4 0c	 add	 esp, 12			; 0000000cH

; 3424 : 	PyModule_AddIntConstant(poModule, "POINT_MELEE_MAGIC_ATT_BONUS_PER", POINT_MELEE_MAGIC_ATT_BONUS_PER);

  00378	68 82 00 00 00	 push	 130			; 00000082H
  0037d	68 00 00 00 00	 push	 OFFSET ??_C@_0CA@GOGOBLID@POINT_MELEE_MAGIC_ATT_BONUS_PER@
  00382	57		 push	 edi
  00383	ff d6		 call	 esi
  00385	83 c4 0c	 add	 esp, 12			; 0000000cH

; 3425 : 
; 3426 : 	PyModule_AddIntConstant(poModule, "SKILL_GRADE_NORMAL", CPythonPlayer::SKILL_NORMAL);

  00388	6a 00		 push	 0
  0038a	68 00 00 00 00	 push	 OFFSET ??_C@_0BD@LAKFNFGD@SKILL_GRADE_NORMAL@
  0038f	57		 push	 edi
  00390	ff d6		 call	 esi
  00392	83 c4 0c	 add	 esp, 12			; 0000000cH

; 3427 : 	PyModule_AddIntConstant(poModule, "SKILL_GRADE_MASTER", CPythonPlayer::SKILL_MASTER);

  00395	6a 01		 push	 1
  00397	68 00 00 00 00	 push	 OFFSET ??_C@_0BD@HIHOAICI@SKILL_GRADE_MASTER@
  0039c	57		 push	 edi
  0039d	ff d6		 call	 esi
  0039f	83 c4 0c	 add	 esp, 12			; 0000000cH

; 3428 : 	PyModule_AddIntConstant(poModule, "SKILL_GRADE_GRAND_MASTER", CPythonPlayer::SKILL_GRAND_MASTER);

  003a2	6a 02		 push	 2
  003a4	68 00 00 00 00	 push	 OFFSET ??_C@_0BJ@CFOEIGCN@SKILL_GRADE_GRAND_MASTER@
  003a9	57		 push	 edi
  003aa	ff d6		 call	 esi
  003ac	83 c4 0c	 add	 esp, 12			; 0000000cH

; 3429 : 	PyModule_AddIntConstant(poModule, "SKILL_GRADE_PERFECT_MASTER", CPythonPlayer::SKILL_PERFECT_MASTER);

  003af	6a 03		 push	 3
  003b1	68 00 00 00 00	 push	 OFFSET ??_C@_0BL@DCIPLDCA@SKILL_GRADE_PERFECT_MASTER@
  003b6	57		 push	 edi
  003b7	ff d6		 call	 esi
  003b9	83 c4 0c	 add	 esp, 12			; 0000000cH

; 3430 : 
; 3431 : 	PyModule_AddIntConstant(poModule, "CATEGORY_ACTIVE", CPythonPlayer::CATEGORY_ACTIVE);

  003bc	6a 01		 push	 1
  003be	68 00 00 00 00	 push	 OFFSET ??_C@_0BA@LCKKFCJM@CATEGORY_ACTIVE@
  003c3	57		 push	 edi
  003c4	ff d6		 call	 esi
  003c6	83 c4 0c	 add	 esp, 12			; 0000000cH

; 3432 : 	PyModule_AddIntConstant(poModule, "CATEGORY_PASSIVE", CPythonPlayer::CATEGORY_PASSIVE);

  003c9	6a 02		 push	 2
  003cb	68 00 00 00 00	 push	 OFFSET ??_C@_0BB@HCMEALJK@CATEGORY_PASSIVE@
  003d0	57		 push	 edi
  003d1	ff d6		 call	 esi
  003d3	83 c4 0c	 add	 esp, 12			; 0000000cH

; 3433 : 
; 3434 : 	PyModule_AddIntConstant(poModule, "INVENTORY_PAGE_SIZE", c_Inventory_Page_Size);

  003d6	6a 2d		 push	 45			; 0000002dH
  003d8	68 00 00 00 00	 push	 OFFSET ??_C@_0BE@CEBDMLGH@INVENTORY_PAGE_SIZE@
  003dd	57		 push	 edi
  003de	ff d6		 call	 esi
  003e0	83 c4 0c	 add	 esp, 12			; 0000000cH

; 3435 : 	PyModule_AddIntConstant(poModule, "INVENTORY_PAGE_COUNT", c_Inventory_Page_Count);

  003e3	6a 04		 push	 4
  003e5	68 00 00 00 00	 push	 OFFSET ??_C@_0BF@NFIFHHOM@INVENTORY_PAGE_COUNT@
  003ea	57		 push	 edi
  003eb	ff d6		 call	 esi
  003ed	83 c4 0c	 add	 esp, 12			; 0000000cH

; 3436 : 	PyModule_AddIntConstant(poModule, "INVENTORY_SLOT_COUNT", c_Inventory_Count);

  003f0	68 ce 03 00 00	 push	 974			; 000003ceH
  003f5	68 00 00 00 00	 push	 OFFSET ??_C@_0BF@LCFAAJPA@INVENTORY_SLOT_COUNT@
  003fa	57		 push	 edi
  003fb	ff d6		 call	 esi
  003fd	83 c4 0c	 add	 esp, 12			; 0000000cH

; 3437 : 	PyModule_AddIntConstant(poModule, "EQUIPMENT_SLOT_START", c_Equipment_Start);

  00400	68 b4 00 00 00	 push	 180			; 000000b4H
  00405	68 00 00 00 00	 push	 OFFSET ??_C@_0BF@HJEBPPMM@EQUIPMENT_SLOT_START@
  0040a	57		 push	 edi
  0040b	ff d6		 call	 esi
  0040d	83 c4 0c	 add	 esp, 12			; 0000000cH

; 3438 : 	PyModule_AddIntConstant(poModule, "EQUIPMENT_PAGE_COUNT", c_Equipment_Count);

  00410	6a 0c		 push	 12			; 0000000cH
  00412	68 00 00 00 00	 push	 OFFSET ??_C@_0BF@MADFLPAE@EQUIPMENT_PAGE_COUNT@
  00417	57		 push	 edi
  00418	ff d6		 call	 esi
  0041a	83 c4 0c	 add	 esp, 12			; 0000000cH

; 3439 : 
; 3440 : #ifdef ENABLE_NEW_EQUIPMENT_SYSTEM
; 3441 : 	PyModule_AddIntConstant(poModule, "NEW_EQUIPMENT_SLOT_START", c_New_Equipment_Start);

  0041d	68 ce 00 00 00	 push	 206			; 000000ceH
  00422	68 00 00 00 00	 push	 OFFSET ??_C@_0BJ@COKKCHPJ@NEW_EQUIPMENT_SLOT_START@
  00427	57		 push	 edi
  00428	ff d6		 call	 esi
  0042a	83 c4 0c	 add	 esp, 12			; 0000000cH

; 3442 : 	PyModule_AddIntConstant(poModule, "NEW_EQUIPMENT_SLOT_COUNT", c_New_Equipment_Count);

  0042d	6a 26		 push	 38			; 00000026H
  0042f	68 00 00 00 00	 push	 OFFSET ??_C@_0BJ@PAALBJCN@NEW_EQUIPMENT_SLOT_COUNT@
  00434	57		 push	 edi
  00435	ff d6		 call	 esi
  00437	83 c4 0c	 add	 esp, 12			; 0000000cH

; 3443 : #endif
; 3444 : 
; 3445 : #ifdef ENABLE_SPECIAL_INVENTORY
; 3446 : 	PyModule_AddIntConstant(poModule, "SPECIAL_INVENTORY_PAGE_SIZE", c_Special_Inventory_Page_Size);

  0043a	6a 2d		 push	 45			; 0000002dH
  0043c	68 00 00 00 00	 push	 OFFSET ??_C@_0BM@JDPNNKAI@SPECIAL_INVENTORY_PAGE_SIZE@
  00441	57		 push	 edi
  00442	ff d6		 call	 esi
  00444	83 c4 0c	 add	 esp, 12			; 0000000cH

; 3447 : 	PyModule_AddIntConstant(poModule, "SPECIAL_INVENTORY_PAGE_COUNT", c_Special_Inventory_Page_Count);

  00447	6a 03		 push	 3
  00449	68 00 00 00 00	 push	 OFFSET ??_C@_0BN@IDPOFDE@SPECIAL_INVENTORY_PAGE_COUNT@
  0044e	57		 push	 edi
  0044f	ff d6		 call	 esi
  00451	83 c4 0c	 add	 esp, 12			; 0000000cH

; 3448 : 
; 3449 : 	PyModule_AddIntConstant(poModule, "SKILL_BOOK_INVENTORY_SLOT_COUNT", c_Skill_Book_Inventory_Slot_Count);

  00454	68 87 00 00 00	 push	 135			; 00000087H
  00459	68 00 00 00 00	 push	 OFFSET ??_C@_0CA@LILLGBFC@SKILL_BOOK_INVENTORY_SLOT_COUNT@
  0045e	57		 push	 edi
  0045f	ff d6		 call	 esi
  00461	83 c4 0c	 add	 esp, 12			; 0000000cH

; 3450 : 	PyModule_AddIntConstant(poModule, "UPGRADE_ITEMS_INVENTORY_SLOT_COUNT", c_Upgrade_Items_Inventory_Slot_Count);

  00464	68 87 00 00 00	 push	 135			; 00000087H
  00469	68 00 00 00 00	 push	 OFFSET ??_C@_0CD@PILBODE@UPGRADE_ITEMS_INVENTORY_SLOT_CO@
  0046e	57		 push	 edi
  0046f	ff d6		 call	 esi
  00471	83 c4 0c	 add	 esp, 12			; 0000000cH

; 3451 : 	PyModule_AddIntConstant(poModule, "STONE_INVENTORY_SLOT_COUNT", c_Stone_Inventory_Slot_Count);

  00474	68 87 00 00 00	 push	 135			; 00000087H
  00479	68 00 00 00 00	 push	 OFFSET ??_C@_0BL@NOCNFKMC@STONE_INVENTORY_SLOT_COUNT@
  0047e	57		 push	 edi
  0047f	ff d6		 call	 esi
  00481	83 c4 0c	 add	 esp, 12			; 0000000cH

; 3452 : 	PyModule_AddIntConstant(poModule, "GIFT_BOX_INVENTORY_SLOT_COUNT", c_GiftBox_Inventory_Slot_Count);

  00484	68 87 00 00 00	 push	 135			; 00000087H
  00489	68 00 00 00 00	 push	 OFFSET ??_C@_0BO@KGEOCGGA@GIFT_BOX_INVENTORY_SLOT_COUNT@
  0048e	57		 push	 edi
  0048f	ff d6		 call	 esi
  00491	83 c4 0c	 add	 esp, 12			; 0000000cH

; 3453 : 	PyModule_AddIntConstant(poModule, "CHANGERS_INVENTORY_SLOT_COUNT", c_Changers_Inventory_Slot_Count);

  00494	68 87 00 00 00	 push	 135			; 00000087H
  00499	68 00 00 00 00	 push	 OFFSET ??_C@_0BO@HDBPIDOG@CHANGERS_INVENTORY_SLOT_COUNT@
  0049e	57		 push	 edi
  0049f	ff d6		 call	 esi
  004a1	83 c4 0c	 add	 esp, 12			; 0000000cH

; 3454 : #endif
; 3455 : 
; 3456 : 	PyModule_AddIntConstant(poModule, "MBF_SKILL", CPythonPlayer::MBF_SKILL);

  004a4	6a 04		 push	 4
  004a6	68 00 00 00 00	 push	 OFFSET ??_C@_09NLFDBCDH@MBF_SKILL@
  004ab	57		 push	 edi
  004ac	ff d6		 call	 esi
  004ae	83 c4 0c	 add	 esp, 12			; 0000000cH

; 3457 : 	PyModule_AddIntConstant(poModule, "MBF_ATTACK", CPythonPlayer::MBF_ATTACK);

  004b1	6a 03		 push	 3
  004b3	68 00 00 00 00	 push	 OFFSET ??_C@_0L@MIGMJBKJ@MBF_ATTACK@
  004b8	57		 push	 edi
  004b9	ff d6		 call	 esi
  004bb	83 c4 0c	 add	 esp, 12			; 0000000cH

; 3458 : 	PyModule_AddIntConstant(poModule, "MBF_CAMERA", CPythonPlayer::MBF_CAMERA);

  004be	6a 02		 push	 2
  004c0	68 00 00 00 00	 push	 OFFSET ??_C@_0L@JHBFAMB@MBF_CAMERA@
  004c5	57		 push	 edi
  004c6	ff d6		 call	 esi
  004c8	83 c4 0c	 add	 esp, 12			; 0000000cH

; 3459 : 	PyModule_AddIntConstant(poModule, "MBF_SMART", CPythonPlayer::MBF_SMART);

  004cb	6a 00		 push	 0
  004cd	68 00 00 00 00	 push	 OFFSET ??_C@_09FAENJFL@MBF_SMART@
  004d2	57		 push	 edi
  004d3	ff d6		 call	 esi
  004d5	83 c4 0c	 add	 esp, 12			; 0000000cH

; 3460 : 	PyModule_AddIntConstant(poModule, "MBF_MOVE", CPythonPlayer::MBF_MOVE);

  004d8	6a 01		 push	 1
  004da	68 00 00 00 00	 push	 OFFSET ??_C@_08BLLANCB@MBF_MOVE@
  004df	57		 push	 edi
  004e0	ff d6		 call	 esi
  004e2	83 c4 0c	 add	 esp, 12			; 0000000cH

; 3461 : 	PyModule_AddIntConstant(poModule, "MBF_AUTO", CPythonPlayer::MBF_AUTO);

  004e5	6a 05		 push	 5
  004e7	68 00 00 00 00	 push	 OFFSET ??_C@_08CIEGLDP@MBF_AUTO@
  004ec	57		 push	 edi
  004ed	ff d6		 call	 esi
  004ef	83 c4 0c	 add	 esp, 12			; 0000000cH

; 3462 : 	PyModule_AddIntConstant(poModule, "MBS_PRESS", CPythonPlayer::MBS_PRESS);

  004f2	6a 01		 push	 1
  004f4	68 00 00 00 00	 push	 OFFSET ??_C@_09JEJKPPEO@MBS_PRESS@
  004f9	57		 push	 edi
  004fa	ff d6		 call	 esi
  004fc	83 c4 0c	 add	 esp, 12			; 0000000cH

; 3463 : 	PyModule_AddIntConstant(poModule, "MBS_CLICK", CPythonPlayer::MBS_CLICK);

  004ff	6a 00		 push	 0
  00501	68 00 00 00 00	 push	 OFFSET ??_C@_09BKODCCAJ@MBS_CLICK@
  00506	57		 push	 edi
  00507	ff d6		 call	 esi
  00509	83 c4 0c	 add	 esp, 12			; 0000000cH

; 3464 : 	PyModule_AddIntConstant(poModule, "MBT_RIGHT", CPythonPlayer::MBT_RIGHT);

  0050c	6a 01		 push	 1
  0050e	68 00 00 00 00	 push	 OFFSET ??_C@_09DBJMODBC@MBT_RIGHT@
  00513	57		 push	 edi
  00514	ff d6		 call	 esi
  00516	83 c4 0c	 add	 esp, 12			; 0000000cH

; 3465 : 	PyModule_AddIntConstant(poModule, "MBT_LEFT", CPythonPlayer::MBT_LEFT);

  00519	6a 00		 push	 0
  0051b	68 00 00 00 00	 push	 OFFSET ??_C@_08OMNIMJHC@MBT_LEFT@
  00520	57		 push	 edi
  00521	ff d6		 call	 esi
  00523	83 c4 0c	 add	 esp, 12			; 0000000cH

; 3466 : 
; 3467 : 	PyModule_AddIntConstant(poModule, "SLOT_TYPE_NONE", SLOT_TYPE_NONE);

  00526	6a 00		 push	 0
  00528	68 00 00 00 00	 push	 OFFSET ??_C@_0P@JBDPGPGM@SLOT_TYPE_NONE@
  0052d	57		 push	 edi
  0052e	ff d6		 call	 esi
  00530	83 c4 0c	 add	 esp, 12			; 0000000cH

; 3468 : 	PyModule_AddIntConstant(poModule, "SLOT_TYPE_INVENTORY", SLOT_TYPE_INVENTORY);

  00533	6a 01		 push	 1
  00535	68 00 00 00 00	 push	 OFFSET ??_C@_0BE@BNOEBHPE@SLOT_TYPE_INVENTORY@
  0053a	57		 push	 edi
  0053b	ff d6		 call	 esi
  0053d	83 c4 0c	 add	 esp, 12			; 0000000cH

; 3469 : 	PyModule_AddIntConstant(poModule, "SLOT_TYPE_SKILL", SLOT_TYPE_SKILL);

  00540	6a 02		 push	 2
  00542	68 00 00 00 00	 push	 OFFSET ??_C@_0BA@MAJHKGKG@SLOT_TYPE_SKILL@
  00547	57		 push	 edi
  00548	ff d6		 call	 esi
  0054a	83 c4 0c	 add	 esp, 12			; 0000000cH

; 3470 : 	PyModule_AddIntConstant(poModule, "SLOT_TYPE_SHOP", SLOT_TYPE_SHOP);

  0054d	6a 04		 push	 4
  0054f	68 00 00 00 00	 push	 OFFSET ??_C@_0P@KCOPIIMF@SLOT_TYPE_SHOP@
  00554	57		 push	 edi
  00555	ff d6		 call	 esi
  00557	83 c4 0c	 add	 esp, 12			; 0000000cH

; 3471 : 	PyModule_AddIntConstant(poModule, "SLOT_TYPE_EXCHANGE_OWNER", SLOT_TYPE_EXCHANGE_OWNER);

  0055a	6a 05		 push	 5
  0055c	68 00 00 00 00	 push	 OFFSET ??_C@_0BJ@DBNHPJKE@SLOT_TYPE_EXCHANGE_OWNER@
  00561	57		 push	 edi
  00562	ff d6		 call	 esi
  00564	83 c4 0c	 add	 esp, 12			; 0000000cH

; 3472 : 	PyModule_AddIntConstant(poModule, "SLOT_TYPE_EXCHANGE_TARGET", SLOT_TYPE_EXCHANGE_TARGET);

  00567	6a 06		 push	 6
  00569	68 00 00 00 00	 push	 OFFSET ??_C@_0BK@KJHLAGBH@SLOT_TYPE_EXCHANGE_TARGET@
  0056e	57		 push	 edi
  0056f	ff d6		 call	 esi
  00571	83 c4 0c	 add	 esp, 12			; 0000000cH

; 3473 : 	PyModule_AddIntConstant(poModule, "SLOT_TYPE_QUICK_SLOT", SLOT_TYPE_QUICK_SLOT);

  00574	6a 07		 push	 7
  00576	68 00 00 00 00	 push	 OFFSET ??_C@_0BF@CPPFMLHN@SLOT_TYPE_QUICK_SLOT@
  0057b	57		 push	 edi
  0057c	ff d6		 call	 esi
  0057e	83 c4 0c	 add	 esp, 12			; 0000000cH

; 3474 : 	PyModule_AddIntConstant(poModule, "SLOT_TYPE_SAFEBOX", SLOT_TYPE_SAFEBOX);

  00581	6a 08		 push	 8
  00583	68 00 00 00 00	 push	 OFFSET ??_C@_0BC@HGKFDIFN@SLOT_TYPE_SAFEBOX@
  00588	57		 push	 edi
  00589	ff d6		 call	 esi
  0058b	83 c4 0c	 add	 esp, 12			; 0000000cH

; 3475 : 	PyModule_AddIntConstant(poModule, "SLOT_TYPE_PRIVATE_SHOP", SLOT_TYPE_PRIVATE_SHOP);

  0058e	6a 09		 push	 9
  00590	68 00 00 00 00	 push	 OFFSET ??_C@_0BH@MJAEADNE@SLOT_TYPE_PRIVATE_SHOP@
  00595	57		 push	 edi
  00596	ff d6		 call	 esi
  00598	83 c4 0c	 add	 esp, 12			; 0000000cH

; 3476 : 	PyModule_AddIntConstant(poModule, "SLOT_TYPE_MALL", SLOT_TYPE_MALL);

  0059b	6a 0a		 push	 10			; 0000000aH
  0059d	68 00 00 00 00	 push	 OFFSET ??_C@_0P@OEAGANKI@SLOT_TYPE_MALL@
  005a2	57		 push	 edi
  005a3	ff d6		 call	 esi
  005a5	83 c4 0c	 add	 esp, 12			; 0000000cH

; 3477 : 	PyModule_AddIntConstant(poModule, "SLOT_TYPE_EMOTION", SLOT_TYPE_EMOTION);

  005a8	6a 03		 push	 3
  005aa	68 00 00 00 00	 push	 OFFSET ??_C@_0BC@LKMHLHKJ@SLOT_TYPE_EMOTION@
  005af	57		 push	 edi
  005b0	ff d6		 call	 esi
  005b2	83 c4 0c	 add	 esp, 12			; 0000000cH

; 3478 : 	PyModule_AddIntConstant(poModule, "SLOT_TYPE_DRAGON_SOUL_INVENTORY", SLOT_TYPE_DRAGON_SOUL_INVENTORY);

  005b5	6a 0b		 push	 11			; 0000000bH
  005b7	68 00 00 00 00	 push	 OFFSET ??_C@_0CA@FHKIPOOP@SLOT_TYPE_DRAGON_SOUL_INVENTORY@
  005bc	57		 push	 edi
  005bd	ff d6		 call	 esi
  005bf	83 c4 0c	 add	 esp, 12			; 0000000cH

; 3479 : 	PyModule_AddIntConstant(poModule, "SLOT_TYPE_BELT_INVENTORY", SLOT_TYPE_BELT_INVENTORY);

  005c2	6a 0c		 push	 12			; 0000000cH
  005c4	68 00 00 00 00	 push	 OFFSET ??_C@_0BJ@BIEENKEI@SLOT_TYPE_BELT_INVENTORY@
  005c9	57		 push	 edi
  005ca	ff d6		 call	 esi
  005cc	83 c4 0c	 add	 esp, 12			; 0000000cH

; 3480 : #ifdef ENABLE_SPECIAL_INVENTORY
; 3481 : 	PyModule_AddIntConstant(poModule, "SLOT_TYPE_SKILL_BOOK_INVENTORY", SLOT_TYPE_SKILL_BOOK_INVENTORY);

  005cf	6a 0e		 push	 14			; 0000000eH
  005d1	68 00 00 00 00	 push	 OFFSET ??_C@_0BP@KGAMMBDG@SLOT_TYPE_SKILL_BOOK_INVENTORY@
  005d6	57		 push	 edi
  005d7	ff d6		 call	 esi
  005d9	83 c4 0c	 add	 esp, 12			; 0000000cH

; 3482 : 	PyModule_AddIntConstant(poModule, "SLOT_TYPE_UPGRADE_ITEMS_INVENTORY", SLOT_TYPE_UPGRADE_ITEMS_INVENTORY);

  005dc	6a 0f		 push	 15			; 0000000fH
  005de	68 00 00 00 00	 push	 OFFSET ??_C@_0CC@PPMGELGN@SLOT_TYPE_UPGRADE_ITEMS_INVENTO@
  005e3	57		 push	 edi
  005e4	ff d6		 call	 esi
  005e6	83 c4 0c	 add	 esp, 12			; 0000000cH

; 3483 : 	PyModule_AddIntConstant(poModule, "SLOT_TYPE_STONE_INVENTORY", SLOT_TYPE_STONE_INVENTORY);

  005e9	6a 10		 push	 16			; 00000010H
  005eb	68 00 00 00 00	 push	 OFFSET ??_C@_0BK@OKEJBABA@SLOT_TYPE_STONE_INVENTORY@
  005f0	57		 push	 edi
  005f1	ff d6		 call	 esi
  005f3	83 c4 0c	 add	 esp, 12			; 0000000cH

; 3484 : 	PyModule_AddIntConstant(poModule, "SLOT_TYPE_GIFT_BOX_INVENTORY", SLOT_TYPE_GIFT_BOX_INVENTORY);

  005f6	6a 11		 push	 17			; 00000011H
  005f8	68 00 00 00 00	 push	 OFFSET ??_C@_0BN@HAJHAAOF@SLOT_TYPE_GIFT_BOX_INVENTORY@
  005fd	57		 push	 edi
  005fe	ff d6		 call	 esi
  00600	83 c4 0c	 add	 esp, 12			; 0000000cH

; 3485 : 	PyModule_AddIntConstant(poModule, "SLOT_TYPE_CHANGERS_INVENTORY", SLOT_TYPE_CHANGERS_INVENTORY);

  00603	6a 12		 push	 18			; 00000012H
  00605	68 00 00 00 00	 push	 OFFSET ??_C@_0BN@CIDENILN@SLOT_TYPE_CHANGERS_INVENTORY@
  0060a	57		 push	 edi
  0060b	ff d6		 call	 esi
  0060d	83 c4 0c	 add	 esp, 12			; 0000000cH

; 3486 : #endif
; 3487 : 
; 3488 : 	PyModule_AddIntConstant(poModule, "RESERVED_WINDOW", RESERVED_WINDOW);

  00610	6a 00		 push	 0
  00612	68 00 00 00 00	 push	 OFFSET ??_C@_0BA@NKAFFIGF@RESERVED_WINDOW@
  00617	57		 push	 edi
  00618	ff d6		 call	 esi
  0061a	83 c4 0c	 add	 esp, 12			; 0000000cH

; 3489 : 	PyModule_AddIntConstant(poModule, "INVENTORY", INVENTORY);

  0061d	6a 01		 push	 1
  0061f	68 00 00 00 00	 push	 OFFSET ??_C@_09NCAHJFFG@INVENTORY@
  00624	57		 push	 edi
  00625	ff d6		 call	 esi
  00627	83 c4 0c	 add	 esp, 12			; 0000000cH

; 3490 : 	PyModule_AddIntConstant(poModule, "EQUIPMENT", EQUIPMENT);

  0062a	6a 02		 push	 2
  0062c	68 00 00 00 00	 push	 OFFSET ??_C@_09GJGOMHMK@EQUIPMENT@
  00631	57		 push	 edi
  00632	ff d6		 call	 esi
  00634	83 c4 0c	 add	 esp, 12			; 0000000cH

; 3491 : 	PyModule_AddIntConstant(poModule, "SAFEBOX", SAFEBOX);

  00637	6a 03		 push	 3
  00639	68 00 00 00 00	 push	 OFFSET ??_C@_07NCKDBJCB@SAFEBOX@
  0063e	57		 push	 edi
  0063f	ff d6		 call	 esi
  00641	83 c4 0c	 add	 esp, 12			; 0000000cH

; 3492 : 	PyModule_AddIntConstant(poModule, "MALL", MALL);

  00644	6a 04		 push	 4
  00646	68 00 00 00 00	 push	 OFFSET ??_C@_04JPFKNPOP@MALL@
  0064b	57		 push	 edi
  0064c	ff d6		 call	 esi
  0064e	83 c4 0c	 add	 esp, 12			; 0000000cH

; 3493 : 	PyModule_AddIntConstant(poModule, "DRAGON_SOUL_INVENTORY", DRAGON_SOUL_INVENTORY);

  00651	6a 05		 push	 5
  00653	68 00 00 00 00	 push	 OFFSET ??_C@_0BG@FHEDCCNN@DRAGON_SOUL_INVENTORY@
  00658	57		 push	 edi
  00659	ff d6		 call	 esi
  0065b	83 c4 0c	 add	 esp, 12			; 0000000cH

; 3494 : 	PyModule_AddIntConstant(poModule, "BELT_INVENTORY", BELT_INVENTORY);

  0065e	6a 06		 push	 6
  00660	68 00 00 00 00	 push	 OFFSET ??_C@_0P@LCDFMNHG@BELT_INVENTORY@
  00665	57		 push	 edi
  00666	ff d6		 call	 esi
  00668	83 c4 0c	 add	 esp, 12			; 0000000cH

; 3495 : 	PyModule_AddIntConstant(poModule, "GROUND", GROUND);

  0066b	6a 0f		 push	 15			; 0000000fH
  0066d	68 00 00 00 00	 push	 OFFSET ??_C@_06GKBINIEJ@GROUND@
  00672	57		 push	 edi
  00673	ff d6		 call	 esi
  00675	83 c4 0c	 add	 esp, 12			; 0000000cH

; 3496 : 
; 3497 : #ifdef ENABLE_RENEWAL_SWITCHBOT
; 3498 : 	PyModule_AddIntConstant(poModule, "SWITCHBOT", SWITCHBOT);

  00678	6a 07		 push	 7
  0067a	68 00 00 00 00	 push	 OFFSET ??_C@_09MMGODLEO@SWITCHBOT@
  0067f	57		 push	 edi
  00680	ff d6		 call	 esi
  00682	83 c4 0c	 add	 esp, 12			; 0000000cH

; 3499 : 	PyModule_AddIntConstant(poModule, "SLOT_TYPE_SWITCHBOT", SLOT_TYPE_SWITCHBOT);

  00685	6a 0d		 push	 13			; 0000000dH
  00687	68 00 00 00 00	 push	 OFFSET ??_C@_0BE@DINLJOM@SLOT_TYPE_SWITCHBOT@
  0068c	57		 push	 edi
  0068d	ff d6		 call	 esi
  0068f	83 c4 0c	 add	 esp, 12			; 0000000cH

; 3500 : #endif
; 3501 : 
; 3502 : #ifdef ENABLE_CHANGE_LOOK_SYSTEM
; 3503 : 	PyModule_AddIntConstant(poModule, "SLOT_TYPE_CHANGE_LOOK", ESlotType::SLOT_TYPE_CHANGE_LOOK);

  00692	6a 14		 push	 20			; 00000014H
  00694	68 00 00 00 00	 push	 OFFSET ??_C@_0BG@KJHPGJKN@SLOT_TYPE_CHANGE_LOOK@
  00699	57		 push	 edi
  0069a	ff d6		 call	 esi
  0069c	83 c4 0c	 add	 esp, 12			; 0000000cH

; 3504 : 	PyModule_AddIntConstant(poModule, "ITEM_SLOT_COUNT", c_ItemSlot_Count);

  0069f	68 b4 00 00 00	 push	 180			; 000000b4H
  006a4	68 00 00 00 00	 push	 OFFSET ??_C@_0BA@POJPOEAE@ITEM_SLOT_COUNT@
  006a9	57		 push	 edi
  006aa	ff d6		 call	 esi
  006ac	83 c4 0c	 add	 esp, 12			; 0000000cH

; 3505 : 	PyModule_AddIntConstant(poModule, "ITEM_SLOT_COUNT", c_ItemSlot_Count);

  006af	68 b4 00 00 00	 push	 180			; 000000b4H
  006b4	68 00 00 00 00	 push	 OFFSET ??_C@_0BA@POJPOEAE@ITEM_SLOT_COUNT@
  006b9	57		 push	 edi
  006ba	ff d6		 call	 esi
  006bc	83 c4 0c	 add	 esp, 12			; 0000000cH

; 3506 : 	PyModule_AddIntConstant(poModule, "TRANSMUTATION_TYPE_MOUNT", static_cast<BYTE>(ETRANSMUTATIONTYPE::TRANSMUTATION_TYPE_MOUNT));

  006bf	6a 00		 push	 0
  006c1	68 00 00 00 00	 push	 OFFSET ??_C@_0BJ@LHJDGDBJ@TRANSMUTATION_TYPE_MOUNT@
  006c6	57		 push	 edi
  006c7	ff d6		 call	 esi
  006c9	83 c4 0c	 add	 esp, 12			; 0000000cH

; 3507 : 	PyModule_AddIntConstant(poModule, "TRANSMUTATION_TYPE_ITEM", static_cast<BYTE>(ETRANSMUTATIONTYPE::TRANSMUTATION_TYPE_ITEM));

  006cc	6a 01		 push	 1
  006ce	68 00 00 00 00	 push	 OFFSET ??_C@_0BI@HKKDBHO@TRANSMUTATION_TYPE_ITEM@
  006d3	57		 push	 edi
  006d4	ff d6		 call	 esi
  006d6	83 c4 0c	 add	 esp, 12			; 0000000cH

; 3508 : #endif
; 3509 : 
; 3510 : 	PyModule_AddIntConstant(poModule, "ITEM_MONEY", -1);

  006d9	6a ff		 push	 -1
  006db	68 00 00 00 00	 push	 OFFSET ??_C@_0L@HFAEBHHD@ITEM_MONEY@
  006e0	57		 push	 edi
  006e1	ff d6		 call	 esi
  006e3	83 c4 0c	 add	 esp, 12			; 0000000cH

; 3511 : 
; 3512 : 	PyModule_AddIntConstant(poModule, "SKILL_SLOT_COUNT", SKILL_MAX_NUM);

  006e6	68 ff 00 00 00	 push	 255			; 000000ffH
  006eb	68 00 00 00 00	 push	 OFFSET ??_C@_0BB@IOEKBHAE@SKILL_SLOT_COUNT@
  006f0	57		 push	 edi
  006f1	ff d6		 call	 esi
  006f3	83 c4 0c	 add	 esp, 12			; 0000000cH

; 3513 : 
; 3514 : 	PyModule_AddIntConstant(poModule, "EFFECT_PICK", CPythonPlayer::EFFECT_PICK);

  006f6	6a 00		 push	 0
  006f8	68 00 00 00 00	 push	 OFFSET ??_C@_0M@CHLINENA@EFFECT_PICK@
  006fd	57		 push	 edi
  006fe	ff d6		 call	 esi
  00700	83 c4 0c	 add	 esp, 12			; 0000000cH

; 3515 : 
; 3516 : 	PyModule_AddIntConstant(poModule, "METIN_SOCKET_TYPE_NONE", CPythonPlayer::METIN_SOCKET_TYPE_NONE);

  00703	6a 00		 push	 0
  00705	68 00 00 00 00	 push	 OFFSET ??_C@_0BH@FCKCIMBH@METIN_SOCKET_TYPE_NONE@
  0070a	57		 push	 edi
  0070b	ff d6		 call	 esi
  0070d	83 c4 0c	 add	 esp, 12			; 0000000cH

; 3517 : 	PyModule_AddIntConstant(poModule, "METIN_SOCKET_TYPE_SILVER", CPythonPlayer::METIN_SOCKET_TYPE_SILVER);

  00710	6a 01		 push	 1
  00712	68 00 00 00 00	 push	 OFFSET ??_C@_0BJ@PHGNNMMA@METIN_SOCKET_TYPE_SILVER@
  00717	57		 push	 edi
  00718	ff d6		 call	 esi
  0071a	83 c4 0c	 add	 esp, 12			; 0000000cH

; 3518 : 	PyModule_AddIntConstant(poModule, "METIN_SOCKET_TYPE_GOLD", CPythonPlayer::METIN_SOCKET_TYPE_GOLD);

  0071d	6a 02		 push	 2
  0071f	68 00 00 00 00	 push	 OFFSET ??_C@_0BH@EFCNALEJ@METIN_SOCKET_TYPE_GOLD@
  00724	57		 push	 edi
  00725	ff d6		 call	 esi
  00727	83 c4 0c	 add	 esp, 12			; 0000000cH

; 3519 : 	PyModule_AddIntConstant(poModule, "METIN_SOCKET_MAX_NUM", ITEM_SOCKET_SLOT_MAX_NUM);

  0072a	6a 03		 push	 3
  0072c	68 00 00 00 00	 push	 OFFSET ??_C@_0BF@HOKBLOCN@METIN_SOCKET_MAX_NUM@
  00731	57		 push	 edi
  00732	ff d6		 call	 esi
  00734	83 c4 0c	 add	 esp, 12			; 0000000cH

; 3520 : 
; 3521 : 	PyModule_AddIntConstant(poModule, "ATTRIBUTE_SLOT_NORM_NUM", ITEM_ATTRIBUTE_SLOT_NORM_NUM);

  00737	6a 05		 push	 5
  00739	68 00 00 00 00	 push	 OFFSET ??_C@_0BI@BJGENDOO@ATTRIBUTE_SLOT_NORM_NUM@
  0073e	57		 push	 edi
  0073f	ff d6		 call	 esi
  00741	83 c4 0c	 add	 esp, 12			; 0000000cH

; 3522 : 	PyModule_AddIntConstant(poModule, "ATTRIBUTE_SLOT_RARE_NUM", ITEM_ATTRIBUTE_SLOT_RARE_NUM);

  00744	6a 02		 push	 2
  00746	68 00 00 00 00	 push	 OFFSET ??_C@_0BI@KKEJPCNE@ATTRIBUTE_SLOT_RARE_NUM@
  0074b	57		 push	 edi
  0074c	ff d6		 call	 esi
  0074e	83 c4 0c	 add	 esp, 12			; 0000000cH

; 3523 : 	PyModule_AddIntConstant(poModule, "ATTRIBUTE_SLOT_NORM_START", ITEM_ATTRIBUTE_SLOT_NORM_START);

  00751	6a 00		 push	 0
  00753	68 00 00 00 00	 push	 OFFSET ??_C@_0BK@KGDGKBKL@ATTRIBUTE_SLOT_NORM_START@
  00758	57		 push	 edi
  00759	ff d6		 call	 esi
  0075b	83 c4 0c	 add	 esp, 12			; 0000000cH

; 3524 : 	PyModule_AddIntConstant(poModule, "ATTRIBUTE_SLOT_NORM_END", ITEM_ATTRIBUTE_SLOT_NORM_END);

  0075e	6a 05		 push	 5
  00760	68 00 00 00 00	 push	 OFFSET ??_C@_0BI@PNEKDDH@ATTRIBUTE_SLOT_NORM_END@
  00765	57		 push	 edi
  00766	ff d6		 call	 esi
  00768	83 c4 0c	 add	 esp, 12			; 0000000cH

; 3525 : 	PyModule_AddIntConstant(poModule, "ATTRIBUTE_SLOT_RARE_START", ITEM_ATTRIBUTE_SLOT_RARE_START);

  0076b	6a 05		 push	 5
  0076d	68 00 00 00 00	 push	 OFFSET ??_C@_0BK@MPPGNMKB@ATTRIBUTE_SLOT_RARE_START@
  00772	57		 push	 edi
  00773	ff d6		 call	 esi
  00775	83 c4 0c	 add	 esp, 12			; 0000000cH

; 3526 : 	PyModule_AddIntConstant(poModule, "ATTRIBUTE_SLOT_RARE_END", ITEM_ATTRIBUTE_SLOT_RARE_END);

  00778	6a 07		 push	 7
  0077a	68 00 00 00 00	 push	 OFFSET ??_C@_0BI@LMPJICAN@ATTRIBUTE_SLOT_RARE_END@
  0077f	57		 push	 edi
  00780	ff d6		 call	 esi
  00782	83 c4 0c	 add	 esp, 12			; 0000000cH

; 3527 : 	PyModule_AddIntConstant(poModule, "ATTRIBUTE_SLOT_MAX_NUM", ITEM_ATTRIBUTE_SLOT_RARE_END);

  00785	6a 07		 push	 7
  00787	68 00 00 00 00	 push	 OFFSET ??_C@_0BH@BPEONNLD@ATTRIBUTE_SLOT_MAX_NUM@
  0078c	57		 push	 edi
  0078d	ff d6		 call	 esi
  0078f	83 c4 0c	 add	 esp, 12			; 0000000cH

; 3528 : 
; 3529 : #ifdef ENABLE_BONUS_COSTUME_SYSTEM
; 3530 : 	PyModule_AddIntConstant(poModule, "COSTUME_ATTRIBUTE_MAX_NUM", CItemData::COSTUME_ATTRIBUTE_MAX_NUM);

  00792	6a 03		 push	 3
  00794	68 00 00 00 00	 push	 OFFSET ??_C@_0BK@MOFNOJPN@COSTUME_ATTRIBUTE_MAX_NUM@
  00799	57		 push	 edi
  0079a	ff d6		 call	 esi
  0079c	83 c4 0c	 add	 esp, 12			; 0000000cH

; 3531 : #endif
; 3532 : 
; 3533 : 	PyModule_AddIntConstant(poModule, "REFINE_CANT", REFINE_CANT);

  0079f	6a 00		 push	 0
  007a1	68 00 00 00 00	 push	 OFFSET ??_C@_0M@FNDEJPGN@REFINE_CANT@
  007a6	57		 push	 edi
  007a7	ff d6		 call	 esi
  007a9	83 c4 0c	 add	 esp, 12			; 0000000cH

; 3534 : 	PyModule_AddIntConstant(poModule, "REFINE_OK", REFINE_OK);

  007ac	6a 01		 push	 1
  007ae	68 00 00 00 00	 push	 OFFSET ??_C@_09FFJEIDJG@REFINE_OK@
  007b3	57		 push	 edi
  007b4	ff d6		 call	 esi
  007b6	83 c4 0c	 add	 esp, 12			; 0000000cH

; 3535 : 	PyModule_AddIntConstant(poModule, "REFINE_ALREADY_MAX_SOCKET_COUNT", REFINE_ALREADY_MAX_SOCKET_COUNT);

  007b9	6a 02		 push	 2
  007bb	68 00 00 00 00	 push	 OFFSET ??_C@_0CA@CPLGFHBD@REFINE_ALREADY_MAX_SOCKET_COUNT@
  007c0	57		 push	 edi
  007c1	ff d6		 call	 esi
  007c3	83 c4 0c	 add	 esp, 12			; 0000000cH

; 3536 : 	PyModule_AddIntConstant(poModule, "REFINE_NEED_MORE_GOOD_SCROLL", REFINE_NEED_MORE_GOOD_SCROLL);

  007c6	6a 03		 push	 3
  007c8	68 00 00 00 00	 push	 OFFSET ??_C@_0BN@FMBLMMOD@REFINE_NEED_MORE_GOOD_SCROLL@
  007cd	57		 push	 edi
  007ce	ff d6		 call	 esi
  007d0	83 c4 0c	 add	 esp, 12			; 0000000cH

; 3537 : 	PyModule_AddIntConstant(poModule, "REFINE_CANT_MAKE_SOCKET_ITEM", REFINE_CANT_MAKE_SOCKET_ITEM);

  007d3	6a 04		 push	 4
  007d5	68 00 00 00 00	 push	 OFFSET ??_C@_0BN@JPDLJDPD@REFINE_CANT_MAKE_SOCKET_ITEM@
  007da	57		 push	 edi
  007db	ff d6		 call	 esi
  007dd	83 c4 0c	 add	 esp, 12			; 0000000cH

; 3538 : 	PyModule_AddIntConstant(poModule, "REFINE_NOT_NEXT_GRADE_ITEM", REFINE_NOT_NEXT_GRADE_ITEM);

  007e0	6a 05		 push	 5
  007e2	68 00 00 00 00	 push	 OFFSET ??_C@_0BL@EILCCEPE@REFINE_NOT_NEXT_GRADE_ITEM@
  007e7	57		 push	 edi
  007e8	ff d6		 call	 esi
  007ea	83 c4 0c	 add	 esp, 12			; 0000000cH

; 3539 : 	PyModule_AddIntConstant(poModule, "REFINE_CANT_REFINE_METIN_TO_EQUIPMENT", REFINE_CANT_REFINE_METIN_TO_EQUIPMENT);

  007ed	6a 06		 push	 6
  007ef	68 00 00 00 00	 push	 OFFSET ??_C@_0CG@LFLLDFCE@REFINE_CANT_REFINE_METIN_TO_EQU@
  007f4	57		 push	 edi
  007f5	ff d6		 call	 esi
  007f7	83 c4 0c	 add	 esp, 12			; 0000000cH

; 3540 : 	PyModule_AddIntConstant(poModule, "REFINE_CANT_REFINE_ROD", REFINE_CANT_REFINE_ROD);

  007fa	6a 07		 push	 7
  007fc	68 00 00 00 00	 push	 OFFSET ??_C@_0BH@OENPPLJB@REFINE_CANT_REFINE_ROD@
  00801	57		 push	 edi
  00802	ff d6		 call	 esi
  00804	83 c4 0c	 add	 esp, 12			; 0000000cH

; 3541 : 	PyModule_AddIntConstant(poModule, "ATTACH_METIN_CANT", ATTACH_METIN_CANT);

  00807	6a 00		 push	 0
  00809	68 00 00 00 00	 push	 OFFSET ??_C@_0BC@CBCJMHP@ATTACH_METIN_CANT@
  0080e	57		 push	 edi
  0080f	ff d6		 call	 esi
  00811	83 c4 0c	 add	 esp, 12			; 0000000cH

; 3542 : 	PyModule_AddIntConstant(poModule, "ATTACH_METIN_OK", ATTACH_METIN_OK);

  00814	6a 01		 push	 1
  00816	68 00 00 00 00	 push	 OFFSET ??_C@_0BA@HOJAFGB@ATTACH_METIN_OK@
  0081b	57		 push	 edi
  0081c	ff d6		 call	 esi
  0081e	83 c4 0c	 add	 esp, 12			; 0000000cH

; 3543 : 	PyModule_AddIntConstant(poModule, "ATTACH_METIN_NOT_MATCHABLE_ITEM", ATTACH_METIN_NOT_MATCHABLE_ITEM);

  00821	6a 02		 push	 2
  00823	68 00 00 00 00	 push	 OFFSET ??_C@_0CA@OFAKGLFM@ATTACH_METIN_NOT_MATCHABLE_ITEM@
  00828	57		 push	 edi
  00829	ff d6		 call	 esi
  0082b	83 c4 0c	 add	 esp, 12			; 0000000cH

; 3544 : 	PyModule_AddIntConstant(poModule, "ATTACH_METIN_NO_MATCHABLE_SOCKET", ATTACH_METIN_NO_MATCHABLE_SOCKET);

  0082e	6a 03		 push	 3
  00830	68 00 00 00 00	 push	 OFFSET ??_C@_0CB@MAILDNNI@ATTACH_METIN_NO_MATCHABLE_SOCKE@
  00835	57		 push	 edi
  00836	ff d6		 call	 esi
  00838	83 c4 0c	 add	 esp, 12			; 0000000cH

; 3545 : 	PyModule_AddIntConstant(poModule, "ATTACH_METIN_NOT_EXIST_GOLD_SOCKET", ATTACH_METIN_NOT_EXIST_GOLD_SOCKET);

  0083b	6a 04		 push	 4
  0083d	68 00 00 00 00	 push	 OFFSET ??_C@_0CD@JNOPKOFJ@ATTACH_METIN_NOT_EXIST_GOLD_SOC@
  00842	57		 push	 edi
  00843	ff d6		 call	 esi
  00845	83 c4 0c	 add	 esp, 12			; 0000000cH

; 3546 : 	PyModule_AddIntConstant(poModule, "ATTACH_METIN_CANT_ATTACH_TO_EQUIPMENT", ATTACH_METIN_CANT_ATTACH_TO_EQUIPMENT);

  00848	6a 05		 push	 5
  0084a	68 00 00 00 00	 push	 OFFSET ??_C@_0CG@BCIFDNEM@ATTACH_METIN_CANT_ATTACH_TO_EQU@
  0084f	57		 push	 edi
  00850	ff d6		 call	 esi
  00852	83 c4 0c	 add	 esp, 12			; 0000000cH

; 3547 : 	PyModule_AddIntConstant(poModule, "DETACH_METIN_CANT", DETACH_METIN_CANT);

  00855	6a 00		 push	 0
  00857	68 00 00 00 00	 push	 OFFSET ??_C@_0BC@HGBPKPKG@DETACH_METIN_CANT@
  0085c	57		 push	 edi
  0085d	ff d6		 call	 esi
  0085f	83 c4 0c	 add	 esp, 12			; 0000000cH

; 3548 : 	PyModule_AddIntConstant(poModule, "DETACH_METIN_OK", DETACH_METIN_OK);

  00862	6a 01		 push	 1
  00864	68 00 00 00 00	 push	 OFFSET ??_C@_0BA@IACJJMNA@DETACH_METIN_OK@
  00869	57		 push	 edi
  0086a	ff d6		 call	 esi
  0086c	83 c4 0c	 add	 esp, 12			; 0000000cH

; 3549 : 
; 3550 : 	PyModule_AddIntConstant(poModule, "PARTY_STATE_NORMAL", CPythonPlayer::PARTY_ROLE_NORMAL);

  0086f	6a 00		 push	 0
  00871	68 00 00 00 00	 push	 OFFSET ??_C@_0BD@PNFBHDHD@PARTY_STATE_NORMAL@
  00876	57		 push	 edi
  00877	ff d6		 call	 esi
  00879	83 c4 0c	 add	 esp, 12			; 0000000cH

; 3551 : 	PyModule_AddIntConstant(poModule, "PARTY_STATE_LEADER", CPythonPlayer::PARTY_ROLE_LEADER);

  0087c	6a 01		 push	 1
  0087e	68 00 00 00 00	 push	 OFFSET ??_C@_0BD@ECFFHEOH@PARTY_STATE_LEADER@
  00883	57		 push	 edi
  00884	ff d6		 call	 esi
  00886	83 c4 0c	 add	 esp, 12			; 0000000cH

; 3552 : 	PyModule_AddIntConstant(poModule, "PARTY_STATE_ATTACKER", CPythonPlayer::PARTY_ROLE_ATTACKER);

  00889	6a 02		 push	 2
  0088b	68 00 00 00 00	 push	 OFFSET ??_C@_0BF@DOKPPLCL@PARTY_STATE_ATTACKER@
  00890	57		 push	 edi
  00891	ff d6		 call	 esi
  00893	83 c4 0c	 add	 esp, 12			; 0000000cH

; 3553 : 	PyModule_AddIntConstant(poModule, "PARTY_STATE_TANKER", CPythonPlayer::PARTY_ROLE_TANKER);

  00896	6a 03		 push	 3
  00898	68 00 00 00 00	 push	 OFFSET ??_C@_0BD@FHMGGDNP@PARTY_STATE_TANKER@
  0089d	57		 push	 edi
  0089e	ff d6		 call	 esi
  008a0	83 c4 0c	 add	 esp, 12			; 0000000cH

; 3554 : 	PyModule_AddIntConstant(poModule, "PARTY_STATE_BUFFER", CPythonPlayer::PARTY_ROLE_BUFFER);

  008a3	6a 04		 push	 4
  008a5	68 00 00 00 00	 push	 OFFSET ??_C@_0BD@JJFBJLK@PARTY_STATE_BUFFER@
  008aa	57		 push	 edi
  008ab	ff d6		 call	 esi
  008ad	83 c4 0c	 add	 esp, 12			; 0000000cH

; 3555 : 	PyModule_AddIntConstant(poModule, "PARTY_STATE_SKILL_MASTER", CPythonPlayer::PARTY_ROLE_SKILL_MASTER);

  008b0	6a 05		 push	 5
  008b2	68 00 00 00 00	 push	 OFFSET ??_C@_0BJ@EIPCPJKC@PARTY_STATE_SKILL_MASTER@
  008b7	57		 push	 edi
  008b8	ff d6		 call	 esi
  008ba	83 c4 0c	 add	 esp, 12			; 0000000cH

; 3556 : 	PyModule_AddIntConstant(poModule, "PARTY_STATE_BERSERKER", CPythonPlayer::PARTY_ROLE_BERSERKER);

  008bd	6a 06		 push	 6
  008bf	68 00 00 00 00	 push	 OFFSET ??_C@_0BG@LCNEBE@PARTY_STATE_BERSERKER@
  008c4	57		 push	 edi
  008c5	ff d6		 call	 esi
  008c7	83 c4 0c	 add	 esp, 12			; 0000000cH

; 3557 : 	PyModule_AddIntConstant(poModule, "PARTY_STATE_DEFENDER", CPythonPlayer::PARTY_ROLE_DEFENDER);

  008ca	6a 07		 push	 7
  008cc	68 00 00 00 00	 push	 OFFSET ??_C@_0BF@PAKJEMH@PARTY_STATE_DEFENDER@
  008d1	57		 push	 edi
  008d2	ff d6		 call	 esi
  008d4	83 c4 0c	 add	 esp, 12			; 0000000cH

; 3558 : 	PyModule_AddIntConstant(poModule, "PARTY_STATE_MAX_NUM", CPythonPlayer::PARTY_ROLE_MAX_NUM);

  008d7	6a 08		 push	 8
  008d9	68 00 00 00 00	 push	 OFFSET ??_C@_0BE@KCLJFDCO@PARTY_STATE_MAX_NUM@
  008de	57		 push	 edi
  008df	ff d6		 call	 esi
  008e1	83 c4 0c	 add	 esp, 12			; 0000000cH

; 3559 : 
; 3560 : 	PyModule_AddIntConstant(poModule, "SKILL_INDEX_TONGSOL", c_iSkillIndex_Tongsol);

  008e4	6a 79		 push	 121			; 00000079H
  008e6	68 00 00 00 00	 push	 OFFSET ??_C@_0BE@MNBFKLPI@SKILL_INDEX_TONGSOL@
  008eb	57		 push	 edi
  008ec	ff d6		 call	 esi
  008ee	83 c4 0c	 add	 esp, 12			; 0000000cH

; 3561 : 	PyModule_AddIntConstant(poModule, "SKILL_INDEX_FISHING", c_iSkillIndex_Fishing);

  008f1	6a 7b		 push	 123			; 0000007bH
  008f3	68 00 00 00 00	 push	 OFFSET ??_C@_0BE@HANBCKAH@SKILL_INDEX_FISHING@
  008f8	57		 push	 edi
  008f9	ff d6		 call	 esi
  008fb	83 c4 0c	 add	 esp, 12			; 0000000cH

; 3562 : 	PyModule_AddIntConstant(poModule, "SKILL_INDEX_MINING", c_iSkillIndex_Mining);

  008fe	6a 7c		 push	 124			; 0000007cH
  00900	68 00 00 00 00	 push	 OFFSET ??_C@_0BD@KFCAJBFG@SKILL_INDEX_MINING@
  00905	57		 push	 edi
  00906	ff d6		 call	 esi
  00908	83 c4 0c	 add	 esp, 12			; 0000000cH

; 3563 : 	PyModule_AddIntConstant(poModule, "SKILL_INDEX_MAKING", c_iSkillIndex_Making);

  0090b	6a 7d		 push	 125			; 0000007dH
  0090d	68 00 00 00 00	 push	 OFFSET ??_C@_0BD@IBJDJMEL@SKILL_INDEX_MAKING@
  00912	57		 push	 edi
  00913	ff d6		 call	 esi
  00915	83 c4 0c	 add	 esp, 12			; 0000000cH

; 3564 : 	PyModule_AddIntConstant(poModule, "SKILL_INDEX_COMBO", c_iSkillIndex_Combo);

  00918	6a 7a		 push	 122			; 0000007aH
  0091a	68 00 00 00 00	 push	 OFFSET ??_C@_0BC@HACNAMIK@SKILL_INDEX_COMBO@
  0091f	57		 push	 edi
  00920	ff d6		 call	 esi
  00922	83 c4 0c	 add	 esp, 12			; 0000000cH

; 3565 : 	PyModule_AddIntConstant(poModule, "SKILL_INDEX_LANGUAGE1", c_iSkillIndex_Language1);

  00925	6a 7e		 push	 126			; 0000007eH
  00927	68 00 00 00 00	 push	 OFFSET ??_C@_0BG@GPLOFEKK@SKILL_INDEX_LANGUAGE1@
  0092c	57		 push	 edi
  0092d	ff d6		 call	 esi
  0092f	83 c4 0c	 add	 esp, 12			; 0000000cH

; 3566 : 	PyModule_AddIntConstant(poModule, "SKILL_INDEX_LANGUAGE2", c_iSkillIndex_Language2);

  00932	6a 7f		 push	 127			; 0000007fH
  00934	68 00 00 00 00	 push	 OFFSET ??_C@_0BG@EEJDAHGJ@SKILL_INDEX_LANGUAGE2@
  00939	57		 push	 edi
  0093a	ff d6		 call	 esi
  0093c	83 c4 0c	 add	 esp, 12			; 0000000cH

; 3567 : 	PyModule_AddIntConstant(poModule, "SKILL_INDEX_LANGUAGE3", c_iSkillIndex_Language3);

  0093f	68 80 00 00 00	 push	 128			; 00000080H
  00944	68 00 00 00 00	 push	 OFFSET ??_C@_0BG@FNIIDGCI@SKILL_INDEX_LANGUAGE3@
  00949	57		 push	 edi
  0094a	ff d6		 call	 esi
  0094c	83 c4 0c	 add	 esp, 12			; 0000000cH

; 3568 : 	PyModule_AddIntConstant(poModule, "SKILL_INDEX_POLYMORPH", c_iSkillIndex_Polymorph);

  0094f	68 81 00 00 00	 push	 129			; 00000081H
  00954	68 00 00 00 00	 push	 OFFSET ??_C@_0BG@DMEIDEKO@SKILL_INDEX_POLYMORPH@
  00959	57		 push	 edi
  0095a	ff d6		 call	 esi
  0095c	83 c4 0c	 add	 esp, 12			; 0000000cH

; 3569 : 	PyModule_AddIntConstant(poModule, "SKILL_INDEX_RIDING", c_iSkillIndex_Riding);

  0095f	68 82 00 00 00	 push	 130			; 00000082H
  00964	68 00 00 00 00	 push	 OFFSET ??_C@_0BD@HOAGGFNA@SKILL_INDEX_RIDING@
  00969	57		 push	 edi
  0096a	ff d6		 call	 esi
  0096c	83 c4 0c	 add	 esp, 12			; 0000000cH

; 3570 : 	PyModule_AddIntConstant(poModule, "SKILL_INDEX_SUMMON", c_iSkillIndex_Summon);

  0096f	68 83 00 00 00	 push	 131			; 00000083H
  00974	68 00 00 00 00	 push	 OFFSET ??_C@_0BD@POBHIINM@SKILL_INDEX_SUMMON@
  00979	57		 push	 edi
  0097a	ff d6		 call	 esi
  0097c	83 c4 0c	 add	 esp, 12			; 0000000cH

; 3571 : 
; 3572 : 	PyModule_AddIntConstant(poModule, "PK_MODE_PEACE", PK_MODE_PEACE);

  0097f	6a 00		 push	 0
  00981	68 00 00 00 00	 push	 OFFSET ??_C@_0O@BIPAMBIG@PK_MODE_PEACE@
  00986	57		 push	 edi
  00987	ff d6		 call	 esi
  00989	83 c4 0c	 add	 esp, 12			; 0000000cH

; 3573 : 	PyModule_AddIntConstant(poModule, "PK_MODE_REVENGE", PK_MODE_REVENGE);

  0098c	6a 01		 push	 1
  0098e	68 00 00 00 00	 push	 OFFSET ??_C@_0BA@HNNGLCOB@PK_MODE_REVENGE@
  00993	57		 push	 edi
  00994	ff d6		 call	 esi
  00996	83 c4 0c	 add	 esp, 12			; 0000000cH

; 3574 : 	PyModule_AddIntConstant(poModule, "PK_MODE_FREE", PK_MODE_FREE);

  00999	6a 02		 push	 2
  0099b	68 00 00 00 00	 push	 OFFSET ??_C@_0N@DCANEGJG@PK_MODE_FREE@
  009a0	57		 push	 edi
  009a1	ff d6		 call	 esi
  009a3	83 c4 0c	 add	 esp, 12			; 0000000cH

; 3575 : 	PyModule_AddIntConstant(poModule, "PK_MODE_PROTECT", PK_MODE_PROTECT);

  009a6	6a 03		 push	 3
  009a8	68 00 00 00 00	 push	 OFFSET ??_C@_0BA@GHACPGHA@PK_MODE_PROTECT@
  009ad	57		 push	 edi
  009ae	ff d6		 call	 esi
  009b0	83 c4 0c	 add	 esp, 12			; 0000000cH

; 3576 : 	PyModule_AddIntConstant(poModule, "PK_MODE_GUILD", PK_MODE_GUILD);

  009b3	6a 04		 push	 4
  009b5	68 00 00 00 00	 push	 OFFSET ??_C@_0O@LBDADKLE@PK_MODE_GUILD@
  009ba	57		 push	 edi
  009bb	ff d6		 call	 esi
  009bd	83 c4 0c	 add	 esp, 12			; 0000000cH

; 3577 : 	PyModule_AddIntConstant(poModule, "PK_MODE_MAX_NUM", PK_MODE_MAX_NUM);

  009c0	6a 05		 push	 5
  009c2	68 00 00 00 00	 push	 OFFSET ??_C@_0BA@OLCDKGDA@PK_MODE_MAX_NUM@
  009c7	57		 push	 edi
  009c8	ff d6		 call	 esi
  009ca	83 c4 0c	 add	 esp, 12			; 0000000cH

; 3578 : 
; 3579 : 	PyModule_AddIntConstant(poModule, "BLOCK_EXCHANGE", BLOCK_EXCHANGE);

  009cd	6a 01		 push	 1
  009cf	68 00 00 00 00	 push	 OFFSET ??_C@_0P@CDMGAFPE@BLOCK_EXCHANGE@
  009d4	57		 push	 edi
  009d5	ff d6		 call	 esi
  009d7	83 c4 0c	 add	 esp, 12			; 0000000cH

; 3580 : 	PyModule_AddIntConstant(poModule, "BLOCK_PARTY", BLOCK_PARTY_INVITE);

  009da	6a 02		 push	 2
  009dc	68 00 00 00 00	 push	 OFFSET ??_C@_0M@KFDBGBIL@BLOCK_PARTY@
  009e1	57		 push	 edi
  009e2	ff d6		 call	 esi
  009e4	83 c4 0c	 add	 esp, 12			; 0000000cH

; 3581 : 	PyModule_AddIntConstant(poModule, "BLOCK_GUILD", BLOCK_GUILD_INVITE);

  009e7	6a 04		 push	 4
  009e9	68 00 00 00 00	 push	 OFFSET ??_C@_0M@EEMDCMKA@BLOCK_GUILD@
  009ee	57		 push	 edi
  009ef	ff d6		 call	 esi
  009f1	83 c4 0c	 add	 esp, 12			; 0000000cH

; 3582 : 	PyModule_AddIntConstant(poModule, "BLOCK_WHISPER", BLOCK_WHISPER);

  009f4	6a 08		 push	 8
  009f6	68 00 00 00 00	 push	 OFFSET ??_C@_0O@CFHKOIIK@BLOCK_WHISPER@
  009fb	57		 push	 edi
  009fc	ff d6		 call	 esi
  009fe	83 c4 0c	 add	 esp, 12			; 0000000cH

; 3583 : 	PyModule_AddIntConstant(poModule, "BLOCK_FRIEND", BLOCK_MESSENGER_INVITE);

  00a01	6a 10		 push	 16			; 00000010H
  00a03	68 00 00 00 00	 push	 OFFSET ??_C@_0N@IJGKBLJF@BLOCK_FRIEND@
  00a08	57		 push	 edi
  00a09	ff d6		 call	 esi
  00a0b	83 c4 0c	 add	 esp, 12			; 0000000cH

; 3584 : 	PyModule_AddIntConstant(poModule, "BLOCK_PARTY_REQUEST", BLOCK_PARTY_REQUEST);

  00a0e	6a 20		 push	 32			; 00000020H
  00a10	68 00 00 00 00	 push	 OFFSET ??_C@_0BE@NDGMABKO@BLOCK_PARTY_REQUEST@
  00a15	57		 push	 edi
  00a16	ff d6		 call	 esi
  00a18	83 c4 0c	 add	 esp, 12			; 0000000cH

; 3585 : #ifdef ENABLE_TELEPORT_TO_A_FRIEND
; 3586 : 	PyModule_AddIntConstant(poModule, "BLOCK_WARP_REQUEST", BLOCK_WARP_REQUEST);

  00a1b	6a 40		 push	 64			; 00000040H
  00a1d	68 00 00 00 00	 push	 OFFSET ??_C@_0BD@ICDJFAGE@BLOCK_WARP_REQUEST@
  00a22	57		 push	 edi
  00a23	ff d6		 call	 esi
  00a25	83 c4 0c	 add	 esp, 12			; 0000000cH

; 3587 : #endif
; 3588 : 
; 3589 : 	PyModule_AddIntConstant(poModule, "PARTY_EXP_NON_DISTRIBUTION", PARTY_EXP_DISTRIBUTION_NON_PARITY);

  00a28	6a 00		 push	 0
  00a2a	68 00 00 00 00	 push	 OFFSET ??_C@_0BL@OELLICOI@PARTY_EXP_NON_DISTRIBUTION@
  00a2f	57		 push	 edi
  00a30	ff d6		 call	 esi
  00a32	83 c4 0c	 add	 esp, 12			; 0000000cH

; 3590 : 	PyModule_AddIntConstant(poModule, "PARTY_EXP_DISTRIBUTION_PARITY", PARTY_EXP_DISTRIBUTION_PARITY);

  00a35	6a 01		 push	 1
  00a37	68 00 00 00 00	 push	 OFFSET ??_C@_0BO@CBJBDFJC@PARTY_EXP_DISTRIBUTION_PARITY@
  00a3c	57		 push	 edi
  00a3d	ff d6		 call	 esi
  00a3f	83 c4 0c	 add	 esp, 12			; 0000000cH

; 3591 : 
; 3592 : 	PyModule_AddIntConstant(poModule, "EMOTION_CLAP", NPlayerData::EMOTION_CLAP);

  00a42	6a 01		 push	 1
  00a44	68 00 00 00 00	 push	 OFFSET ??_C@_0N@GFLIEIGE@EMOTION_CLAP@
  00a49	57		 push	 edi
  00a4a	ff d6		 call	 esi
  00a4c	83 c4 0c	 add	 esp, 12			; 0000000cH

; 3593 : 	PyModule_AddIntConstant(poModule, "EMOTION_CHEERS_1", NPlayerData::EMOTION_CHEERS_1);

  00a4f	6a 0b		 push	 11			; 0000000bH
  00a51	68 00 00 00 00	 push	 OFFSET ??_C@_0BB@MCMBOGFC@EMOTION_CHEERS_1@
  00a56	57		 push	 edi
  00a57	ff d6		 call	 esi
  00a59	83 c4 0c	 add	 esp, 12			; 0000000cH

; 3594 : 	PyModule_AddIntConstant(poModule, "EMOTION_CHEERS_2", NPlayerData::EMOTION_CHEERS_2);

  00a5c	6a 0c		 push	 12			; 0000000cH
  00a5e	68 00 00 00 00	 push	 OFFSET ??_C@_0BB@OJOMLFJB@EMOTION_CHEERS_2@
  00a63	57		 push	 edi
  00a64	ff d6		 call	 esi
  00a66	83 c4 0c	 add	 esp, 12			; 0000000cH

; 3595 : 	PyModule_AddIntConstant(poModule, "EMOTION_DANCE_1", NPlayerData::EMOTION_DANCE_1);

  00a69	6a 0d		 push	 13			; 0000000dH
  00a6b	68 00 00 00 00	 push	 OFFSET ??_C@_0BA@CLHGMEE@EMOTION_DANCE_1@
  00a70	57		 push	 edi
  00a71	ff d6		 call	 esi
  00a73	83 c4 0c	 add	 esp, 12			; 0000000cH

; 3596 : 	PyModule_AddIntConstant(poModule, "EMOTION_DANCE_2", NPlayerData::EMOTION_DANCE_2);

  00a76	6a 0e		 push	 14			; 0000000eH
  00a78	68 00 00 00 00	 push	 OFFSET ??_C@_0BA@CJJKDPIH@EMOTION_DANCE_2@
  00a7d	57		 push	 edi
  00a7e	ff d6		 call	 esi
  00a80	83 c4 0c	 add	 esp, 12			; 0000000cH

; 3597 : 	PyModule_AddIntConstant(poModule, "EMOTION_DANCE_3", NPlayerData::EMOTION_DANCE_3);

  00a83	6a 0f		 push	 15			; 0000000fH
  00a85	68 00 00 00 00	 push	 OFFSET ??_C@_0BA@DAIBAOMG@EMOTION_DANCE_3@
  00a8a	57		 push	 edi
  00a8b	ff d6		 call	 esi
  00a8d	83 c4 0c	 add	 esp, 12			; 0000000cH

; 3598 : 	PyModule_AddIntConstant(poModule, "EMOTION_DANCE_4", NPlayerData::EMOTION_DANCE_4);

  00a90	6a 10		 push	 16			; 00000010H
  00a92	68 00 00 00 00	 push	 OFFSET ??_C@_0BA@HPMAJIAB@EMOTION_DANCE_4@
  00a97	57		 push	 edi
  00a98	ff d6		 call	 esi
  00a9a	83 c4 0c	 add	 esp, 12			; 0000000cH

; 3599 : 	PyModule_AddIntConstant(poModule, "EMOTION_DANCE_5", NPlayerData::EMOTION_DANCE_5);

  00a9d	6a 11		 push	 17			; 00000011H
  00a9f	68 00 00 00 00	 push	 OFFSET ??_C@_0BA@GGNLKJEA@EMOTION_DANCE_5@
  00aa4	57		 push	 edi
  00aa5	ff d6		 call	 esi
  00aa7	83 c4 0c	 add	 esp, 12			; 0000000cH

; 3600 : 	PyModule_AddIntConstant(poModule, "EMOTION_DANCE_6", NPlayerData::EMOTION_DANCE_6);

  00aaa	6a 12		 push	 18			; 00000012H
  00aac	68 00 00 00 00	 push	 OFFSET ??_C@_0BA@ENPGPKID@EMOTION_DANCE_6@
  00ab1	57		 push	 edi
  00ab2	ff d6		 call	 esi
  00ab4	83 c4 0c	 add	 esp, 12			; 0000000cH

; 3601 : 	PyModule_AddIntConstant(poModule, "EMOTION_CONGRATULATION", NPlayerData::EMOTION_CONGRATULATION);

  00ab7	6a 02		 push	 2
  00ab9	68 00 00 00 00	 push	 OFFSET ??_C@_0BH@FIIEKKHF@EMOTION_CONGRATULATION@
  00abe	57		 push	 edi
  00abf	ff d6		 call	 esi
  00ac1	83 c4 0c	 add	 esp, 12			; 0000000cH

; 3602 : 	PyModule_AddIntConstant(poModule, "EMOTION_SELFIE", NPlayerData::EMOTION_SELFIE);

  00ac4	6a 14		 push	 20			; 00000014H
  00ac6	68 00 00 00 00	 push	 OFFSET ??_C@_0P@EGOAAOEC@EMOTION_SELFIE@
  00acb	57		 push	 edi
  00acc	ff d6		 call	 esi
  00ace	83 c4 0c	 add	 esp, 12			; 0000000cH

; 3603 : 	PyModule_AddIntConstant(poModule, "EMOTION_DANCE_7", NPlayerData::EMOTION_DANCE_7);

  00ad1	6a 13		 push	 19			; 00000013H
  00ad3	68 00 00 00 00	 push	 OFFSET ??_C@_0BA@FEONMLMC@EMOTION_DANCE_7@
  00ad8	57		 push	 edi
  00ad9	ff d6		 call	 esi
  00adb	83 c4 0c	 add	 esp, 12			; 0000000cH

; 3604 : 	PyModule_AddIntConstant(poModule, "EMOTION_DOZE", NPlayerData::EMOTION_DOZE);

  00ade	6a 15		 push	 21			; 00000015H
  00ae0	68 00 00 00 00	 push	 OFFSET ??_C@_0N@OCOLJBBP@EMOTION_DOZE@
  00ae5	57		 push	 edi
  00ae6	ff d6		 call	 esi
  00ae8	83 c4 0c	 add	 esp, 12			; 0000000cH

; 3605 : 	PyModule_AddIntConstant(poModule, "EMOTION_EXERCISE", NPlayerData::EMOTION_EXERCISE);

  00aeb	6a 16		 push	 22			; 00000016H
  00aed	68 00 00 00 00	 push	 OFFSET ??_C@_0BB@PDNONAIP@EMOTION_EXERCISE@
  00af2	57		 push	 edi
  00af3	ff d6		 call	 esi
  00af5	83 c4 0c	 add	 esp, 12			; 0000000cH

; 3606 : 	PyModule_AddIntConstant(poModule, "EMOTION_PUSHUP", NPlayerData::EMOTION_PUSHUP);

  00af8	6a 17		 push	 23			; 00000017H
  00afa	68 00 00 00 00	 push	 OFFSET ??_C@_0P@FEDINNCE@EMOTION_PUSHUP@
  00aff	57		 push	 edi
  00b00	ff d6		 call	 esi
  00b02	83 c4 0c	 add	 esp, 12			; 0000000cH

; 3607 : 	PyModule_AddIntConstant(poModule, "EMOTION_EMOTION_1", NPlayerData::EMOTION_EMOTION_1);

  00b05	6a 3d		 push	 61			; 0000003dH
  00b07	68 00 00 00 00	 push	 OFFSET ??_C@_0BC@DCPHBGDN@EMOTION_EMOTION_1@
  00b0c	57		 push	 edi
  00b0d	ff d6		 call	 esi
  00b0f	83 c4 0c	 add	 esp, 12			; 0000000cH

; 3608 : 	PyModule_AddIntConstant(poModule, "EMOTION_EMOTION_2", NPlayerData::EMOTION_EMOTION_2);

  00b12	6a 3e		 push	 62			; 0000003eH
  00b14	68 00 00 00 00	 push	 OFFSET ??_C@_0BC@BJNKEFPO@EMOTION_EMOTION_2@
  00b19	57		 push	 edi
  00b1a	ff d6		 call	 esi
  00b1c	83 c4 0c	 add	 esp, 12			; 0000000cH

; 3609 : 	PyModule_AddIntConstant(poModule, "EMOTION_EMOTION_3", NPlayerData::EMOTION_EMOTION_3);

  00b1f	6a 3f		 push	 63			; 0000003fH
  00b21	68 00 00 00 00	 push	 OFFSET ??_C@_0BC@MBHELP@EMOTION_EMOTION_3@
  00b26	57		 push	 edi
  00b27	ff d6		 call	 esi
  00b29	83 c4 0c	 add	 esp, 12			; 0000000cH

; 3610 : 	PyModule_AddIntConstant(poModule, "EMOTION_EMOTION_4", NPlayerData::EMOTION_EMOTION_4);

  00b2c	6a 40		 push	 64			; 00000040H
  00b2e	68 00 00 00 00	 push	 OFFSET ??_C@_0BC@EPIAOCHI@EMOTION_EMOTION_4@
  00b33	57		 push	 edi
  00b34	ff d6		 call	 esi
  00b36	83 c4 0c	 add	 esp, 12			; 0000000cH

; 3611 : 	PyModule_AddIntConstant(poModule, "EMOTION_EMOTION_5", NPlayerData::EMOTION_EMOTION_5);

  00b39	6a 41		 push	 65			; 00000041H
  00b3b	68 00 00 00 00	 push	 OFFSET ??_C@_0BC@FGJLNDDJ@EMOTION_EMOTION_5@
  00b40	57		 push	 edi
  00b41	ff d6		 call	 esi
  00b43	83 c4 0c	 add	 esp, 12			; 0000000cH

; 3612 : 	PyModule_AddIntConstant(poModule, "EMOTION_EMOTION_6", NPlayerData::EMOTION_EMOTION_6);

  00b46	6a 42		 push	 66			; 00000042H
  00b48	68 00 00 00 00	 push	 OFFSET ??_C@_0BC@HNLGIAPK@EMOTION_EMOTION_6@
  00b4d	57		 push	 edi
  00b4e	ff d6		 call	 esi
  00b50	83 c4 0c	 add	 esp, 12			; 0000000cH

; 3613 : 	PyModule_AddIntConstant(poModule, "EMOTION_EMOTION_7", NPlayerData::EMOTION_EMOTION_7);

  00b53	6a 43		 push	 67			; 00000043H
  00b55	68 00 00 00 00	 push	 OFFSET ??_C@_0BC@GEKNLBLL@EMOTION_EMOTION_7@
  00b5a	57		 push	 edi
  00b5b	ff d6		 call	 esi
  00b5d	83 c4 0c	 add	 esp, 12			; 0000000cH

; 3614 : 	PyModule_AddIntConstant(poModule, "EMOTION_EMOTION_8", NPlayerData::EMOTION_EMOTION_8);

  00b60	6a 44		 push	 68			; 00000044H
  00b62	68 00 00 00 00	 push	 OFFSET ??_C@_0BC@ODDFKNHE@EMOTION_EMOTION_8@
  00b67	57		 push	 edi
  00b68	ff d6		 call	 esi
  00b6a	83 c4 0c	 add	 esp, 12			; 0000000cH

; 3615 : 	PyModule_AddIntConstant(poModule, "EMOTION_EMOTION_9", NPlayerData::EMOTION_EMOTION_9);

  00b6d	6a 45		 push	 69			; 00000045H
  00b6f	68 00 00 00 00	 push	 OFFSET ??_C@_0BC@PKCOJMDF@EMOTION_EMOTION_9@
  00b74	57		 push	 edi
  00b75	ff d6		 call	 esi
  00b77	83 c4 0c	 add	 esp, 12			; 0000000cH

; 3616 : 	PyModule_AddIntConstant(poModule, "EMOTION_EMOTION_10", NPlayerData::EMOTION_EMOTION_10);

  00b7a	6a 46		 push	 70			; 00000046H
  00b7c	68 00 00 00 00	 push	 OFFSET ??_C@_0BD@IHBMINPE@EMOTION_EMOTION_10@
  00b81	57		 push	 edi
  00b82	ff d6		 call	 esi
  00b84	83 c4 0c	 add	 esp, 12			; 0000000cH

; 3617 : 	PyModule_AddIntConstant(poModule, "EMOTION_EMOTION_11", NPlayerData::EMOTION_EMOTION_11);

  00b87	6a 47		 push	 71			; 00000047H
  00b89	68 00 00 00 00	 push	 OFFSET ??_C@_0BD@JOAHLMLF@EMOTION_EMOTION_11@
  00b8e	57		 push	 edi
  00b8f	ff d6		 call	 esi
  00b91	83 c4 0c	 add	 esp, 12			; 0000000cH

; 3618 : 	PyModule_AddIntConstant(poModule, "EMOTION_EMOTION_12", NPlayerData::EMOTION_EMOTION_12);

  00b94	6a 48		 push	 72			; 00000048H
  00b96	68 00 00 00 00	 push	 OFFSET ??_C@_0BD@LFCKOPHG@EMOTION_EMOTION_12@
  00b9b	57		 push	 edi
  00b9c	ff d6		 call	 esi
  00b9e	83 c4 0c	 add	 esp, 12			; 0000000cH

; 3619 : 
; 3620 : 	PyModule_AddIntConstant(poModule, "EMOTION_EMOTION_13", NPlayerData::EMOTION_EMOTION_13);

  00ba1	6a 49		 push	 73			; 00000049H
  00ba3	68 00 00 00 00	 push	 OFFSET ??_C@_0BD@KMDBNODH@EMOTION_EMOTION_13@
  00ba8	57		 push	 edi
  00ba9	ff d6		 call	 esi
  00bab	83 c4 0c	 add	 esp, 12			; 0000000cH

; 3621 : 	PyModule_AddIntConstant(poModule, "EMOTION_EMOTION_14", NPlayerData::EMOTION_EMOTION_14);

  00bae	6a 4a		 push	 74			; 0000004aH
  00bb0	68 00 00 00 00	 push	 OFFSET ??_C@_0BD@ODHAEIPA@EMOTION_EMOTION_14@
  00bb5	57		 push	 edi
  00bb6	ff d6		 call	 esi
  00bb8	83 c4 0c	 add	 esp, 12			; 0000000cH

; 3622 : 	PyModule_AddIntConstant(poModule, "EMOTION_EMOTION_15", NPlayerData::EMOTION_EMOTION_15);

  00bbb	6a 4b		 push	 75			; 0000004bH
  00bbd	68 00 00 00 00	 push	 OFFSET ??_C@_0BD@PKGLHJLB@EMOTION_EMOTION_15@
  00bc2	57		 push	 edi
  00bc3	ff d6		 call	 esi
  00bc5	83 c4 0c	 add	 esp, 12			; 0000000cH

; 3623 : 	PyModule_AddIntConstant(poModule, "EMOTION_EMOTION_16", NPlayerData::EMOTION_EMOTION_16);

  00bc8	6a 4c		 push	 76			; 0000004cH
  00bca	68 00 00 00 00	 push	 OFFSET ??_C@_0BD@NBEGCKHC@EMOTION_EMOTION_16@
  00bcf	57		 push	 edi
  00bd0	ff d6		 call	 esi
  00bd2	83 c4 0c	 add	 esp, 12			; 0000000cH

; 3624 : 	PyModule_AddIntConstant(poModule, "EMOTION_EMOTION_17", NPlayerData::EMOTION_EMOTION_17);

  00bd5	6a 4d		 push	 77			; 0000004dH
  00bd7	68 00 00 00 00	 push	 OFFSET ??_C@_0BD@MIFNBLDD@EMOTION_EMOTION_17@
  00bdc	57		 push	 edi
  00bdd	ff d6		 call	 esi
  00bdf	83 c4 0c	 add	 esp, 12			; 0000000cH

; 3625 : 	PyModule_AddIntConstant(poModule, "EMOTION_EMOTION_18", NPlayerData::EMOTION_EMOTION_18);

  00be2	6a 4e		 push	 78			; 0000004eH
  00be4	68 00 00 00 00	 push	 OFFSET ??_C@_0BD@EPMFAHPM@EMOTION_EMOTION_18@
  00be9	57		 push	 edi
  00bea	ff d6		 call	 esi
  00bec	83 c4 0c	 add	 esp, 12			; 0000000cH

; 3626 : 	PyModule_AddIntConstant(poModule, "EMOTION_EMOTION_19", NPlayerData::EMOTION_EMOTION_19);

  00bef	6a 4f		 push	 79			; 0000004fH
  00bf1	68 00 00 00 00	 push	 OFFSET ??_C@_0BD@FGNODGLN@EMOTION_EMOTION_19@
  00bf6	57		 push	 edi
  00bf7	ff d6		 call	 esi
  00bf9	83 c4 0c	 add	 esp, 12			; 0000000cH

; 3627 : 	PyModule_AddIntConstant(poModule, "EMOTION_EMOTION_20", NPlayerData::EMOTION_EMOTION_20);

  00bfc	6a 50		 push	 80			; 00000050H
  00bfe	68 00 00 00 00	 push	 OFFSET ??_C@_0BD@IFFKDDKN@EMOTION_EMOTION_20@
  00c03	57		 push	 edi
  00c04	ff d6		 call	 esi
  00c06	83 c4 0c	 add	 esp, 12			; 0000000cH

; 3628 : 	PyModule_AddIntConstant(poModule, "EMOTION_EMOTION_21", NPlayerData::EMOTION_EMOTION_21);

  00c09	6a 51		 push	 81			; 00000051H
  00c0b	68 00 00 00 00	 push	 OFFSET ??_C@_0BD@JMEBACOM@EMOTION_EMOTION_21@
  00c10	57		 push	 edi
  00c11	ff d6		 call	 esi
  00c13	83 c4 0c	 add	 esp, 12			; 0000000cH

; 3629 : 	PyModule_AddIntConstant(poModule, "EMOTION_FORGIVE", NPlayerData::EMOTION_FORGIVE);

  00c16	6a 03		 push	 3
  00c18	68 00 00 00 00	 push	 OFFSET ??_C@_0BA@JPGNEMIB@EMOTION_FORGIVE@
  00c1d	57		 push	 edi
  00c1e	ff d6		 call	 esi
  00c20	83 c4 0c	 add	 esp, 12			; 0000000cH

; 3630 : 	PyModule_AddIntConstant(poModule, "EMOTION_ANGRY", NPlayerData::EMOTION_ANGRY);

  00c23	6a 04		 push	 4
  00c25	68 00 00 00 00	 push	 OFFSET ??_C@_0O@DACEICMN@EMOTION_ANGRY@
  00c2a	57		 push	 edi
  00c2b	ff d6		 call	 esi
  00c2d	83 c4 0c	 add	 esp, 12			; 0000000cH

; 3631 : 	PyModule_AddIntConstant(poModule, "EMOTION_ATTRACTIVE", NPlayerData::EMOTION_ATTRACTIVE);

  00c30	6a 05		 push	 5
  00c32	68 00 00 00 00	 push	 OFFSET ??_C@_0BD@FLNIBF@EMOTION_ATTRACTIVE@
  00c37	57		 push	 edi
  00c38	ff d6		 call	 esi
  00c3a	83 c4 0c	 add	 esp, 12			; 0000000cH

; 3632 : 	PyModule_AddIntConstant(poModule, "EMOTION_SAD", NPlayerData::EMOTION_SAD);

  00c3d	6a 06		 push	 6
  00c3f	68 00 00 00 00	 push	 OFFSET ??_C@_0M@EGEMMDCF@EMOTION_SAD@
  00c44	57		 push	 edi
  00c45	ff d6		 call	 esi
  00c47	83 c4 0c	 add	 esp, 12			; 0000000cH

; 3633 : 	PyModule_AddIntConstant(poModule, "EMOTION_SHY", NPlayerData::EMOTION_SHY);

  00c4a	6a 07		 push	 7
  00c4c	68 00 00 00 00	 push	 OFFSET ??_C@_0M@LGPBJELG@EMOTION_SHY@
  00c51	57		 push	 edi
  00c52	ff d6		 call	 esi
  00c54	83 c4 0c	 add	 esp, 12			; 0000000cH

; 3634 : 	PyModule_AddIntConstant(poModule, "EMOTION_CHEERUP", NPlayerData::EMOTION_CHEERUP);

  00c57	6a 08		 push	 8
  00c59	68 00 00 00 00	 push	 OFFSET ??_C@_0BA@MENCJFPL@EMOTION_CHEERUP@
  00c5e	57		 push	 edi
  00c5f	ff d6		 call	 esi
  00c61	83 c4 0c	 add	 esp, 12			; 0000000cH

; 3635 : 	PyModule_AddIntConstant(poModule, "EMOTION_BANTER", NPlayerData::EMOTION_BANTER);

  00c64	6a 09		 push	 9
  00c66	68 00 00 00 00	 push	 OFFSET ??_C@_0P@JAJBGKKI@EMOTION_BANTER@
  00c6b	57		 push	 edi
  00c6c	ff d6		 call	 esi
  00c6e	83 c4 0c	 add	 esp, 12			; 0000000cH

; 3636 : 	PyModule_AddIntConstant(poModule, "EMOTION_JOY", NPlayerData::EMOTION_JOY);

  00c71	6a 0a		 push	 10			; 0000000aH
  00c73	68 00 00 00 00	 push	 OFFSET ??_C@_0M@JOKPJKCG@EMOTION_JOY@
  00c78	57		 push	 edi
  00c79	ff d6		 call	 esi
  00c7b	83 c4 0c	 add	 esp, 12			; 0000000cH

; 3637 : 
; 3638 : 	PyModule_AddIntConstant(poModule, "EMOTION_KISS", NPlayerData::EMOTION_KISS);

  00c7e	6a 33		 push	 51			; 00000033H
  00c80	68 00 00 00 00	 push	 OFFSET ??_C@_0N@FGJJNHEK@EMOTION_KISS@
  00c85	57		 push	 edi
  00c86	ff d6		 call	 esi
  00c88	83 c4 0c	 add	 esp, 12			; 0000000cH

; 3639 : 	PyModule_AddIntConstant(poModule, "EMOTION_FRENCH_KISS", NPlayerData::EMOTION_FRENCH_KISS);

  00c8b	6a 34		 push	 52			; 00000034H
  00c8d	68 00 00 00 00	 push	 OFFSET ??_C@_0BE@KCAKKBPE@EMOTION_FRENCH_KISS@
  00c92	57		 push	 edi
  00c93	ff d6		 call	 esi
  00c95	83 c4 0c	 add	 esp, 12			; 0000000cH

; 3640 : 	PyModule_AddIntConstant(poModule, "EMOTION_SLAP", NPlayerData::EMOTION_SLAP);

  00c98	6a 35		 push	 53			; 00000035H
  00c9a	68 00 00 00 00	 push	 OFFSET ??_C@_0N@FFINPOG@EMOTION_SLAP@
  00c9f	57		 push	 edi
  00ca0	ff d6		 call	 esi
  00ca2	83 c4 0c	 add	 esp, 12			; 0000000cH

; 3641 : 
; 3642 : 	PyModule_AddIntConstant(poModule, "AUTO_POTION_TYPE_HP", CPythonPlayer::AUTO_POTION_TYPE_HP);

  00ca5	6a 00		 push	 0
  00ca7	68 00 00 00 00	 push	 OFFSET ??_C@_0BE@LLABJENL@AUTO_POTION_TYPE_HP@
  00cac	57		 push	 edi
  00cad	ff d6		 call	 esi
  00caf	83 c4 0c	 add	 esp, 12			; 0000000cH

; 3643 : 	PyModule_AddIntConstant(poModule, "AUTO_POTION_TYPE_SP", CPythonPlayer::AUTO_POTION_TYPE_SP);

  00cb2	6a 01		 push	 1
  00cb4	68 00 00 00 00	 push	 OFFSET ??_C@_0BE@KLHCNIEK@AUTO_POTION_TYPE_SP@
  00cb9	57		 push	 edi
  00cba	ff d6		 call	 esi
  00cbc	83 c4 0c	 add	 esp, 12			; 0000000cH

; 3644 : 
; 3645 : 	PyModule_AddIntConstant(poModule, "DRAGON_SOUL_PAGE_SIZE", c_DragonSoul_Inventory_Box_Size);

  00cbf	6a 20		 push	 32			; 00000020H
  00cc1	68 00 00 00 00	 push	 OFFSET ??_C@_0BG@FEPFCIIM@DRAGON_SOUL_PAGE_SIZE@
  00cc6	57		 push	 edi
  00cc7	ff d6		 call	 esi
  00cc9	83 c4 0c	 add	 esp, 12			; 0000000cH

; 3646 : 	PyModule_AddIntConstant(poModule, "DRAGON_SOUL_PAGE_COUNT", DRAGON_SOUL_GRADE_MAX);

  00ccc	6a 05		 push	 5
  00cce	68 00 00 00 00	 push	 OFFSET ??_C@_0BH@OCCNKKPP@DRAGON_SOUL_PAGE_COUNT@
  00cd3	57		 push	 edi
  00cd4	ff d6		 call	 esi
  00cd6	83 c4 0c	 add	 esp, 12			; 0000000cH

; 3647 : 	PyModule_AddIntConstant(poModule, "DRAGON_SOUL_SLOT_COUNT", c_DragonSoul_Inventory_Count);

  00cd9	68 c0 03 00 00	 push	 960			; 000003c0H
  00cde	68 00 00 00 00	 push	 OFFSET ??_C@_0BH@IFPINEOD@DRAGON_SOUL_SLOT_COUNT@
  00ce3	57		 push	 edi
  00ce4	ff d6		 call	 esi
  00ce6	83 c4 0c	 add	 esp, 12			; 0000000cH

; 3648 : 	PyModule_AddIntConstant(poModule, "DRAGON_SOUL_EQUIPMENT_SLOT_START", c_DragonSoul_Equip_Start);

  00ce9	68 f4 00 00 00	 push	 244			; 000000f4H
  00cee	68 00 00 00 00	 push	 OFFSET ??_C@_0CB@NJAOAEOC@DRAGON_SOUL_EQUIPMENT_SLOT_STAR@
  00cf3	57		 push	 edi
  00cf4	ff d6		 call	 esi
  00cf6	83 c4 0c	 add	 esp, 12			; 0000000cH

; 3649 : 	PyModule_AddIntConstant(poModule, "DRAGON_SOUL_EQUIPMENT_PAGE_COUNT", DS_DECK_MAX_NUM);

  00cf9	6a 02		 push	 2
  00cfb	68 00 00 00 00	 push	 OFFSET ??_C@_0CB@GAHKEECK@DRAGON_SOUL_EQUIPMENT_PAGE_COUN@
  00d00	57		 push	 edi
  00d01	ff d6		 call	 esi
  00d03	83 c4 0c	 add	 esp, 12			; 0000000cH

; 3650 : 	PyModule_AddIntConstant(poModule, "DRAGON_SOUL_EQUIPMENT_FIRST_SIZE", c_DragonSoul_Equip_Slot_Max);

  00d06	6a 06		 push	 6
  00d08	68 00 00 00 00	 push	 OFFSET ??_C@_0CB@OIFHBJMG@DRAGON_SOUL_EQUIPMENT_FIRST_SIZ@
  00d0d	57		 push	 edi
  00d0e	ff d6		 call	 esi
  00d10	83 c4 0c	 add	 esp, 12			; 0000000cH

; 3651 : 
; 3652 : 	PyModule_AddIntConstant(poModule, "DRAGON_SOUL_REFINE_CLOSE", DS_SUB_HEADER_CLOSE);

  00d13	6a 01		 push	 1
  00d15	68 00 00 00 00	 push	 OFFSET ??_C@_0BJ@MMGGGOHJ@DRAGON_SOUL_REFINE_CLOSE@
  00d1a	57		 push	 edi
  00d1b	ff d6		 call	 esi
  00d1d	83 c4 0c	 add	 esp, 12			; 0000000cH

; 3653 : 	PyModule_AddIntConstant(poModule, "DS_SUB_HEADER_DO_UPGRADE", DS_SUB_HEADER_DO_UPGRADE);

  00d20	6a 02		 push	 2
  00d22	68 00 00 00 00	 push	 OFFSET ??_C@_0BJ@JKFAJIJN@DS_SUB_HEADER_DO_UPGRADE@
  00d27	57		 push	 edi
  00d28	ff d6		 call	 esi
  00d2a	83 c4 0c	 add	 esp, 12			; 0000000cH

; 3654 : 	PyModule_AddIntConstant(poModule, "DS_SUB_HEADER_DO_IMPROVEMENT", DS_SUB_HEADER_DO_IMPROVEMENT);

  00d2d	6a 03		 push	 3
  00d2f	68 00 00 00 00	 push	 OFFSET ??_C@_0BN@PCPINHKH@DS_SUB_HEADER_DO_IMPROVEMENT@
  00d34	57		 push	 edi
  00d35	ff d6		 call	 esi
  00d37	83 c4 0c	 add	 esp, 12			; 0000000cH

; 3655 : 	PyModule_AddIntConstant(poModule, "DS_SUB_HEADER_DO_REFINE", DS_SUB_HEADER_DO_REFINE);

  00d3a	6a 04		 push	 4
  00d3c	68 00 00 00 00	 push	 OFFSET ??_C@_0BI@NHBOLMGK@DS_SUB_HEADER_DO_REFINE@
  00d41	57		 push	 edi
  00d42	ff d6		 call	 esi
  00d44	83 c4 0c	 add	 esp, 12			; 0000000cH

; 3656 : 
; 3657 : #ifdef ENABLE_RENEWAL_DEAD_PACKET
; 3658 : 	PyModule_AddIntConstant(poModule, "REVIVE_TYPE_HERE", REVIVE_TYPE_HERE);

  00d47	6a 00		 push	 0
  00d49	68 00 00 00 00	 push	 OFFSET ??_C@_0BB@KDMFEIAD@REVIVE_TYPE_HERE@
  00d4e	57		 push	 edi
  00d4f	ff d6		 call	 esi
  00d51	83 c4 0c	 add	 esp, 12			; 0000000cH

; 3659 : 	PyModule_AddIntConstant(poModule, "REVIVE_TYPE_TOWN", REVIVE_TYPE_TOWN);

  00d54	6a 01		 push	 1
  00d56	68 00 00 00 00	 push	 OFFSET ??_C@_0BB@IMFHMJME@REVIVE_TYPE_TOWN@
  00d5b	57		 push	 edi
  00d5c	ff d6		 call	 esi
  00d5e	83 c4 0c	 add	 esp, 12			; 0000000cH

; 3660 : 	PyModule_AddIntConstant(poModule, "REVIVE_TYPE_AUTO_TOWN", REVIVE_TYPE_AUTO_TOWN);

  00d61	6a 02		 push	 2
  00d63	68 00 00 00 00	 push	 OFFSET ??_C@_0BG@MNLBEPAN@REVIVE_TYPE_AUTO_TOWN@
  00d68	57		 push	 edi
  00d69	ff d6		 call	 esi
  00d6b	83 c4 0c	 add	 esp, 12			; 0000000cH

; 3661 : 	PyModule_AddIntConstant(poModule, "REVIVE_TYPE_MAX", REVIVE_TYPE_MAX);

  00d6e	6a 03		 push	 3
  00d70	68 00 00 00 00	 push	 OFFSET ??_C@_0BA@LFMGHCBJ@REVIVE_TYPE_MAX@
  00d75	57		 push	 edi
  00d76	ff d6		 call	 esi
  00d78	83 c4 0c	 add	 esp, 12			; 0000000cH

; 3662 : #endif
; 3663 : 
; 3664 : #ifdef ENABLE_COINS_INVENTORY
; 3665 : 	PyModule_AddIntConstant(poModule, "COINS", POINT_COINS);

  00d7b	68 8e 00 00 00	 push	 142			; 0000008eH
  00d80	68 00 00 00 00	 push	 OFFSET ??_C@_05BANMFAOM@COINS@
  00d85	57		 push	 edi
  00d86	ff d6		 call	 esi
  00d88	83 c4 0c	 add	 esp, 12			; 0000000cH

; 3666 : #endif
; 3667 : 
; 3668 : #ifdef ENABLE_AUTOMATIC_PICK_UP_SYSTEM
; 3669 : 	PyModule_AddIntConstant(poModule, "AUTOMATIC_PICK_UP_ACTIVATE", AUTOMATIC_PICK_UP_ACTIVATE);

  00d8b	6a 01		 push	 1
  00d8d	68 00 00 00 00	 push	 OFFSET ??_C@_0BL@MNIINOMA@AUTOMATIC_PICK_UP_ACTIVATE@
  00d92	57		 push	 edi
  00d93	ff d6		 call	 esi
  00d95	83 c4 0c	 add	 esp, 12			; 0000000cH

; 3670 : #endif
; 3671 : 
; 3672 : #ifdef ENABLE_RIDING_EXTENDED
; 3673 : 	PyModule_AddIntConstant(poModule, "HORSE_MAX_LEVEL", HORSE_MAX_LEVEL);

  00d98	6a 28		 push	 40			; 00000028H
  00d9a	68 00 00 00 00	 push	 OFFSET ??_C@_0BA@DMHIDAHJ@HORSE_MAX_LEVEL@
  00d9f	57		 push	 edi
  00da0	ff d6		 call	 esi
  00da2	83 c4 0c	 add	 esp, 12			; 0000000cH

; 3674 : #endif
; 3675 : 
; 3676 : #ifdef ENABLE_SLOT_MARKING_SYSTEM
; 3677 : 	PyModule_AddIntConstant(poModule, "ON_TOP_WND_NONE", ON_TOP_WND_NONE);

  00da5	6a 00		 push	 0
  00da7	68 00 00 00 00	 push	 OFFSET ??_C@_0BA@OKKEOOGP@ON_TOP_WND_NONE@
  00dac	57		 push	 edi
  00dad	ff d6		 call	 esi
  00daf	83 c4 0c	 add	 esp, 12			; 0000000cH

; 3678 : 	PyModule_AddIntConstant(poModule, "ON_TOP_WND_SHOP", ON_TOP_WND_SHOP);

  00db2	6a 01		 push	 1
  00db4	68 00 00 00 00	 push	 OFFSET ??_C@_0BA@NJHEAJMG@ON_TOP_WND_SHOP@
  00db9	57		 push	 edi
  00dba	ff d6		 call	 esi
  00dbc	83 c4 0c	 add	 esp, 12			; 0000000cH

; 3679 : 	PyModule_AddIntConstant(poModule, "ON_TOP_WND_EXCHANGE", ON_TOP_WND_EXCHANGE);

  00dbf	6a 02		 push	 2
  00dc1	68 00 00 00 00	 push	 OFFSET ??_C@_0BE@IFGMMCHH@ON_TOP_WND_EXCHANGE@
  00dc6	57		 push	 edi
  00dc7	ff d6		 call	 esi
  00dc9	83 c4 0c	 add	 esp, 12			; 0000000cH

; 3680 : 	PyModule_AddIntConstant(poModule, "ON_TOP_WND_SAFEBOX", ON_TOP_WND_SAFEBOX);

  00dcc	6a 03		 push	 3
  00dce	68 00 00 00 00	 push	 OFFSET ??_C@_0BD@DBKGGFLJ@ON_TOP_WND_SAFEBOX@
  00dd3	57		 push	 edi
  00dd4	ff d6		 call	 esi
  00dd6	83 c4 0c	 add	 esp, 12			; 0000000cH

; 3681 : 	PyModule_AddIntConstant(poModule, "ON_TOP_WND_PRIVATE_SHOP", ON_TOP_WND_PRIVATE_SHOP);

  00dd9	6a 04		 push	 4
  00ddb	68 00 00 00 00	 push	 OFFSET ??_C@_0BI@JAEJNCCP@ON_TOP_WND_PRIVATE_SHOP@
  00de0	57		 push	 edi
  00de1	ff d6		 call	 esi
  00de3	83 c4 0c	 add	 esp, 12			; 0000000cH

; 3682 : 	PyModule_AddIntConstant(poModule, "ON_TOP_WND_ITEM_COMB", ON_TOP_WND_ITEM_COMB);

  00de6	6a 05		 push	 5
  00de8	68 00 00 00 00	 push	 OFFSET ??_C@_0BF@GOBPEOGN@ON_TOP_WND_ITEM_COMB@
  00ded	57		 push	 edi
  00dee	ff d6		 call	 esi
  00df0	83 c4 0c	 add	 esp, 12			; 0000000cH

; 3683 : 	PyModule_AddIntConstant(poModule, "ON_TOP_WND_PET_FEED", ON_TOP_WND_PET_FEED);

  00df3	6a 08		 push	 8
  00df5	68 00 00 00 00	 push	 OFFSET ??_C@_0BE@EHJBMPOO@ON_TOP_WND_PET_FEED@
  00dfa	57		 push	 edi
  00dfb	ff d6		 call	 esi
  00dfd	83 c4 0c	 add	 esp, 12			; 0000000cH

; 3684 : #ifdef ENABLE_ACCE_COSTUME_SYSTEM
; 3685 : 	PyModule_AddIntConstant(poModule, "ON_TOP_WND_ACCE_COMBINE", ON_TOP_WND_ACCE_COMBINE);

  00e00	6a 06		 push	 6
  00e02	68 00 00 00 00	 push	 OFFSET ??_C@_0BI@GLAKGGPH@ON_TOP_WND_ACCE_COMBINE@
  00e07	57		 push	 edi
  00e08	ff d6		 call	 esi
  00e0a	83 c4 0c	 add	 esp, 12			; 0000000cH

; 3686 : 	PyModule_AddIntConstant(poModule, "ON_TOP_WND_ACCE_ABSORB", ON_TOP_WND_ACCE_ABSORB);

  00e0d	6a 07		 push	 7
  00e0f	68 00 00 00 00	 push	 OFFSET ??_C@_0BH@NNPMEGBL@ON_TOP_WND_ACCE_ABSORB@
  00e14	57		 push	 edi
  00e15	ff d6		 call	 esi
  00e17	83 c4 0c	 add	 esp, 12			; 0000000cH

; 3687 : #endif
; 3688 : #ifdef ENABLE_GROWTH_PET_SYSTEM
; 3689 : 	PyModule_AddIntConstant(poModule, "ON_TOP_WND_PET_FEED", ON_TOP_WND_PET_FEED);

  00e1a	6a 08		 push	 8
  00e1c	68 00 00 00 00	 push	 OFFSET ??_C@_0BE@EHJBMPOO@ON_TOP_WND_PET_FEED@
  00e21	57		 push	 edi
  00e22	ff d6		 call	 esi
  00e24	83 c4 0c	 add	 esp, 12			; 0000000cH

; 3690 : 	PyModule_AddIntConstant(poModule, "ON_TOP_WND_PET_ATTR_CHANGE", ON_TOP_WND_PET_ATTR_CHANGE);

  00e27	6a 09		 push	 9
  00e29	68 00 00 00 00	 push	 OFFSET ??_C@_0BL@KJLPEENL@ON_TOP_WND_PET_ATTR_CHANGE@
  00e2e	57		 push	 edi
  00e2f	ff d6		 call	 esi
  00e31	83 c4 0c	 add	 esp, 12			; 0000000cH

; 3691 : 	PyModule_AddIntConstant(poModule, "ON_TOP_WND_PET_PRIMIUM_FEEDSTUFF", ON_TOP_WND_PET_PRIMIUM_FEEDSTUFF);

  00e34	6a 0a		 push	 10			; 0000000aH
  00e36	68 00 00 00 00	 push	 OFFSET ??_C@_0CB@NFMKANIJ@ON_TOP_WND_PET_PRIMIUM_FEEDSTUF@
  00e3b	57		 push	 edi
  00e3c	ff d6		 call	 esi
  00e3e	83 c4 0c	 add	 esp, 12			; 0000000cH

; 3692 : #endif
; 3693 : #endif
; 3694 : 
; 3695 : #ifdef ENABLE_AURA_COSTUME_SYSTEM
; 3696 : 	PyModule_AddIntConstant(poModule, "REFINE_CANT_REFINE_AURA_ITEM", REFINE_CANT_REFINE_AURA_ITEM);

  00e41	6a 08		 push	 8
  00e43	68 00 00 00 00	 push	 OFFSET ??_C@_0BN@ELAPKHPA@REFINE_CANT_REFINE_AURA_ITEM@
  00e48	57		 push	 edi
  00e49	ff d6		 call	 esi
  00e4b	83 c4 0c	 add	 esp, 12			; 0000000cH

; 3697 : 
; 3698 : 	PyModule_AddIntConstant(poModule, "SLOT_TYPE_AURA", SLOT_TYPE_AURA);

  00e4e	6a 13		 push	 19			; 00000013H
  00e50	68 00 00 00 00	 push	 OFFSET ??_C@_0P@FNJLNAFG@SLOT_TYPE_AURA@
  00e55	57		 push	 edi
  00e56	ff d6		 call	 esi
  00e58	83 c4 0c	 add	 esp, 12			; 0000000cH

; 3699 : 
; 3700 : 	PyModule_AddIntConstant(poModule, "AURA_REFINE", AURA_REFINE);

  00e5b	6a 0d		 push	 13			; 0000000dH
  00e5d	68 00 00 00 00	 push	 OFFSET ??_C@_0M@PDHBNBKH@AURA_REFINE@
  00e62	57		 push	 edi
  00e63	ff d6		 call	 esi
  00e65	83 c4 0c	 add	 esp, 12			; 0000000cH

; 3701 : 	PyModule_AddIntConstant(poModule, "AURA_MAX_LEVEL", c_AuraMaxLevel);

  00e68	68 fa 00 00 00	 push	 250			; 000000faH
  00e6d	68 00 00 00 00	 push	 OFFSET ??_C@_0P@MFDEBDB@AURA_MAX_LEVEL@
  00e72	57		 push	 edi
  00e73	ff d6		 call	 esi
  00e75	83 c4 0c	 add	 esp, 12			; 0000000cH

; 3702 : 	PyModule_AddIntConstant(poModule, "AURA_SLOT_MAIN", AURA_SLOT_MAIN);

  00e78	6a 00		 push	 0
  00e7a	68 00 00 00 00	 push	 OFFSET ??_C@_0P@PDNCLEMB@AURA_SLOT_MAIN@
  00e7f	57		 push	 edi
  00e80	ff d6		 call	 esi
  00e82	83 c4 0c	 add	 esp, 12			; 0000000cH

; 3703 : 	PyModule_AddIntConstant(poModule, "AURA_SLOT_SUB", AURA_SLOT_SUB);

  00e85	6a 01		 push	 1
  00e87	68 00 00 00 00	 push	 OFFSET ??_C@_0O@LCLMBHEO@AURA_SLOT_SUB@
  00e8c	57		 push	 edi
  00e8d	ff d6		 call	 esi
  00e8f	83 c4 0c	 add	 esp, 12			; 0000000cH

; 3704 : 	PyModule_AddIntConstant(poModule, "AURA_SLOT_RESULT", AURA_SLOT_RESULT);

  00e92	6a 02		 push	 2
  00e94	68 00 00 00 00	 push	 OFFSET ??_C@_0BB@BOPFHPDA@AURA_SLOT_RESULT@
  00e99	57		 push	 edi
  00e9a	ff d6		 call	 esi
  00e9c	83 c4 0c	 add	 esp, 12			; 0000000cH

; 3705 : 	PyModule_AddIntConstant(poModule, "AURA_SLOT_MAX", AURA_SLOT_MAX);

  00e9f	6a 03		 push	 3
  00ea1	68 00 00 00 00	 push	 OFFSET ??_C@_0O@KJHIMGJF@AURA_SLOT_MAX@
  00ea6	57		 push	 edi
  00ea7	ff d6		 call	 esi
  00ea9	83 c4 0c	 add	 esp, 12			; 0000000cH

; 3706 : 	PyModule_AddIntConstant(poModule, "AURA_WINDOW_TYPE_ABSORB", AURA_WINDOW_TYPE_ABSORB);

  00eac	6a 00		 push	 0
  00eae	68 00 00 00 00	 push	 OFFSET ??_C@_0BI@IFHNBPDE@AURA_WINDOW_TYPE_ABSORB@
  00eb3	57		 push	 edi
  00eb4	ff d6		 call	 esi
  00eb6	83 c4 0c	 add	 esp, 12			; 0000000cH

; 3707 : 	PyModule_AddIntConstant(poModule, "AURA_WINDOW_TYPE_GROWTH", AURA_WINDOW_TYPE_GROWTH);

  00eb9	6a 01		 push	 1
  00ebb	68 00 00 00 00	 push	 OFFSET ??_C@_0BI@CLKELJFO@AURA_WINDOW_TYPE_GROWTH@
  00ec0	57		 push	 edi
  00ec1	ff d6		 call	 esi
  00ec3	83 c4 0c	 add	 esp, 12			; 0000000cH

; 3708 : 	PyModule_AddIntConstant(poModule, "AURA_WINDOW_TYPE_EVOLVE", AURA_WINDOW_TYPE_EVOLVE);

  00ec6	6a 02		 push	 2
  00ec8	68 00 00 00 00	 push	 OFFSET ??_C@_0BI@BGJIJANM@AURA_WINDOW_TYPE_EVOLVE@
  00ecd	57		 push	 edi
  00ece	ff d6		 call	 esi
  00ed0	83 c4 0c	 add	 esp, 12			; 0000000cH

; 3709 : 	PyModule_AddIntConstant(poModule, "AURA_WINDOW_TYPE_MAX", AURA_WINDOW_TYPE_MAX);

  00ed3	6a 03		 push	 3
  00ed5	68 00 00 00 00	 push	 OFFSET ??_C@_0BF@DEACKNDL@AURA_WINDOW_TYPE_MAX@
  00eda	57		 push	 edi
  00edb	ff d6		 call	 esi
  00edd	83 c4 0c	 add	 esp, 12			; 0000000cH

; 3710 : 	PyModule_AddIntConstant(poModule, "AURA_REFINE_INFO_SLOT_CURRENT", AURA_REFINE_INFO_SLOT_CURRENT);

  00ee0	6a 00		 push	 0
  00ee2	68 00 00 00 00	 push	 OFFSET ??_C@_0BO@JIFCGECJ@AURA_REFINE_INFO_SLOT_CURRENT@
  00ee7	57		 push	 edi
  00ee8	ff d6		 call	 esi
  00eea	83 c4 0c	 add	 esp, 12			; 0000000cH

; 3711 : 	PyModule_AddIntConstant(poModule, "AURA_REFINE_INFO_SLOT_NEXT", AURA_REFINE_INFO_SLOT_NEXT);

  00eed	6a 01		 push	 1
  00eef	68 00 00 00 00	 push	 OFFSET ??_C@_0BL@LDIPHABL@AURA_REFINE_INFO_SLOT_NEXT@
  00ef4	57		 push	 edi
  00ef5	ff d6		 call	 esi
  00ef7	83 c4 0c	 add	 esp, 12			; 0000000cH

; 3712 : 	PyModule_AddIntConstant(poModule, "AURA_REFINE_INFO_SLOT_EVOLVED", AURA_REFINE_INFO_SLOT_EVOLVED);

  00efa	6a 02		 push	 2
  00efc	68 00 00 00 00	 push	 OFFSET ??_C@_0BO@LHGEKFE@AURA_REFINE_INFO_SLOT_EVOLVED@
  00f01	57		 push	 edi
  00f02	ff d6		 call	 esi
  00f04	83 c4 0c	 add	 esp, 12			; 0000000cH

; 3713 : 	PyModule_AddIntConstant(poModule, "AURA_REFINE_INFO_STEP", AURA_REFINE_INFO_STEP);

  00f07	6a 00		 push	 0
  00f09	68 00 00 00 00	 push	 OFFSET ??_C@_0BG@LFHCGDMM@AURA_REFINE_INFO_STEP@
  00f0e	57		 push	 edi
  00f0f	ff d6		 call	 esi
  00f11	83 c4 0c	 add	 esp, 12			; 0000000cH

; 3714 : 	PyModule_AddIntConstant(poModule, "AURA_REFINE_INFO_LEVEL_MIN", AURA_REFINE_INFO_LEVEL_MIN);

  00f14	6a 01		 push	 1
  00f16	68 00 00 00 00	 push	 OFFSET ??_C@_0BL@NLGLHECL@AURA_REFINE_INFO_LEVEL_MIN@
  00f1b	57		 push	 edi
  00f1c	ff d6		 call	 esi
  00f1e	83 c4 0c	 add	 esp, 12			; 0000000cH

; 3715 : 	PyModule_AddIntConstant(poModule, "AURA_REFINE_INFO_LEVEL_MAX", AURA_REFINE_INFO_LEVEL_MAX);

  00f21	6a 02		 push	 2
  00f23	68 00 00 00 00	 push	 OFFSET ??_C@_0BL@MJOAJAEE@AURA_REFINE_INFO_LEVEL_MAX@
  00f28	57		 push	 edi
  00f29	ff d6		 call	 esi
  00f2b	83 c4 0c	 add	 esp, 12			; 0000000cH

; 3716 : 	PyModule_AddIntConstant(poModule, "AURA_REFINE_INFO_NEED_EXP", AURA_REFINE_INFO_NEED_EXP);

  00f2e	6a 03		 push	 3
  00f30	68 00 00 00 00	 push	 OFFSET ??_C@_0BK@GLEMHOOH@AURA_REFINE_INFO_NEED_EXP@
  00f35	57		 push	 edi
  00f36	ff d6		 call	 esi
  00f38	83 c4 0c	 add	 esp, 12			; 0000000cH

; 3717 : 	PyModule_AddIntConstant(poModule, "AURA_REFINE_INFO_MATERIAL_VNUM", AURA_REFINE_INFO_MATERIAL_VNUM);

  00f3b	6a 04		 push	 4
  00f3d	68 00 00 00 00	 push	 OFFSET ??_C@_0BP@MKNGONPM@AURA_REFINE_INFO_MATERIAL_VNUM@
  00f42	57		 push	 edi
  00f43	ff d6		 call	 esi
  00f45	83 c4 0c	 add	 esp, 12			; 0000000cH

; 3718 : 	PyModule_AddIntConstant(poModule, "AURA_REFINE_INFO_MATERIAL_COUNT", AURA_REFINE_INFO_MATERIAL_COUNT);

  00f48	6a 05		 push	 5
  00f4a	68 00 00 00 00	 push	 OFFSET ??_C@_0CA@GCLPEEL@AURA_REFINE_INFO_MATERIAL_COUNT@
  00f4f	57		 push	 edi
  00f50	ff d6		 call	 esi
  00f52	83 c4 0c	 add	 esp, 12			; 0000000cH

; 3719 : 	PyModule_AddIntConstant(poModule, "AURA_REFINE_INFO_NEED_GOLD", AURA_REFINE_INFO_NEED_GOLD);

  00f55	6a 06		 push	 6
  00f57	68 00 00 00 00	 push	 OFFSET ??_C@_0BL@ICCNHPG@AURA_REFINE_INFO_NEED_GOLD@
  00f5c	57		 push	 edi
  00f5d	ff d6		 call	 esi
  00f5f	83 c4 0c	 add	 esp, 12			; 0000000cH

; 3720 : 	PyModule_AddIntConstant(poModule, "AURA_REFINE_INFO_EVOLVE_PCT", AURA_REFINE_INFO_EVOLVE_PCT);

  00f62	6a 07		 push	 7
  00f64	68 00 00 00 00	 push	 OFFSET ??_C@_0BM@IEECEMNC@AURA_REFINE_INFO_EVOLVE_PCT@
  00f69	57		 push	 edi
  00f6a	ff d6		 call	 esi
  00f6c	83 c4 0c	 add	 esp, 12			; 0000000cH

; 3721 : 
; 3722 : 	PyModule_AddIntConstant(poModule, "ITEM_SOCKET_AURA_DRAIN_ITEM_VNUM", CPythonPlayer::ITEM_SOCKET_AURA_DRAIN_ITEM_VNUM);

  00f6f	6a 00		 push	 0
  00f71	68 00 00 00 00	 push	 OFFSET ??_C@_0CB@DCOODGCM@ITEM_SOCKET_AURA_DRAIN_ITEM_VNU@
  00f76	57		 push	 edi
  00f77	ff d6		 call	 esi
  00f79	83 c4 0c	 add	 esp, 12			; 0000000cH

; 3723 : 	PyModule_AddIntConstant(poModule, "ITEM_SOCKET_AURA_CURRENT_LEVEL", CPythonPlayer::ITEM_SOCKET_AURA_CURRENT_LEVEL);

  00f7c	6a 01		 push	 1
  00f7e	68 00 00 00 00	 push	 OFFSET ??_C@_0BP@EMKIFIGK@ITEM_SOCKET_AURA_CURRENT_LEVEL@
  00f83	57		 push	 edi
  00f84	ff d6		 call	 esi
  00f86	83 c4 0c	 add	 esp, 12			; 0000000cH

; 3724 : 	PyModule_AddIntConstant(poModule, "ITEM_SOCKET_AURA_BOOST", CPythonPlayer::ITEM_SOCKET_AURA_BOOST);

  00f89	6a 02		 push	 2
  00f8b	68 00 00 00 00	 push	 OFFSET ??_C@_0BH@LAHGBIBJ@ITEM_SOCKET_AURA_BOOST@
  00f90	57		 push	 edi
  00f91	ff d6		 call	 esi
  00f93	83 c4 0c	 add	 esp, 12			; 0000000cH

; 3725 : 	PyModule_AddIntConstant(poModule, "ITEM_VALUE_AURA_MATERIAL_EXP", CPythonPlayer::ITEM_VALUE_AURA_MATERIAL_EXP);

  00f96	6a 00		 push	 0
  00f98	68 00 00 00 00	 push	 OFFSET ??_C@_0BN@NPMDAJNF@ITEM_VALUE_AURA_MATERIAL_EXP@
  00f9d	57		 push	 edi
  00f9e	ff d6		 call	 esi
  00fa0	83 c4 0c	 add	 esp, 12			; 0000000cH

; 3726 : 	PyModule_AddIntConstant(poModule, "ITEM_VALUE_AURA_BOOST_PERCENT", CPythonPlayer::ITEM_VALUE_AURA_BOOST_PERCENT);

  00fa3	6a 00		 push	 0
  00fa5	68 00 00 00 00	 push	 OFFSET ??_C@_0BO@MPFCFKKC@ITEM_VALUE_AURA_BOOST_PERCENT@
  00faa	57		 push	 edi
  00fab	ff d6		 call	 esi
  00fad	83 c4 0c	 add	 esp, 12			; 0000000cH

; 3727 : 	PyModule_AddIntConstant(poModule, "ITEM_VALUE_AURA_BOOST_TIME", CPythonPlayer::ITEM_VALUE_AURA_BOOST_TIME);

  00fb0	6a 01		 push	 1
  00fb2	68 00 00 00 00	 push	 OFFSET ??_C@_0BL@BAPFGKOD@ITEM_VALUE_AURA_BOOST_TIME@
  00fb7	57		 push	 edi
  00fb8	ff d6		 call	 esi
  00fba	83 c4 0c	 add	 esp, 12			; 0000000cH

; 3728 : 	PyModule_AddIntConstant(poModule, "ITEM_VALUE_AURA_BOOST_UNLIMITED", CPythonPlayer::ITEM_VALUE_AURA_BOOST_UNLIMITED);

  00fbd	6a 02		 push	 2
  00fbf	68 00 00 00 00	 push	 OFFSET ??_C@_0CA@CIFBLEK@ITEM_VALUE_AURA_BOOST_UNLIMITED@
  00fc4	57		 push	 edi
  00fc5	ff d6		 call	 esi
  00fc7	83 c4 0c	 add	 esp, 12			; 0000000cH

; 3729 : #endif
; 3730 : 
; 3731 : #ifdef ENABLE_GROWTH_PET_SYSTEM
; 3732 : 	PyModule_AddIntConstant(poModule, "PET_FEED", PET_FEED);

  00fca	6a 0e		 push	 14			; 0000000eH
  00fcc	68 00 00 00 00	 push	 OFFSET ??_C@_08LJKGNBOE@PET_FEED@
  00fd1	57		 push	 edi
  00fd2	ff d6		 call	 esi
  00fd4	83 c4 0c	 add	 esp, 12			; 0000000cH

; 3733 : 
; 3734 : 	PyModule_AddIntConstant(poModule, "PET_FEED_SLOT_MAX", PET_FEED_SLOT_MAX);

  00fd7	6a 09		 push	 9
  00fd9	68 00 00 00 00	 push	 OFFSET ??_C@_0BC@DMHKNCHI@PET_FEED_SLOT_MAX@
  00fde	57		 push	 edi
  00fdf	ff d6		 call	 esi
  00fe1	83 c4 0c	 add	 esp, 12			; 0000000cH

; 3735 : 	PyModule_AddIntConstant(poModule, "PET_GROWTH_EVOL_MAX", PET_GROWTH_EVOL_MAX);

  00fe4	6a 04		 push	 4
  00fe6	68 00 00 00 00	 push	 OFFSET ??_C@_0BE@NFLCMMDA@PET_GROWTH_EVOL_MAX@
  00feb	57		 push	 edi
  00fec	ff d6		 call	 esi
  00fee	83 c4 0c	 add	 esp, 12			; 0000000cH

; 3736 : 	PyModule_AddIntConstant(poModule, "PET_GROWTH_SKILL_LEVEL_MAX", PET_GROWTH_SKILL_LEVEL_MAX);

  00ff1	6a 14		 push	 20			; 00000014H
  00ff3	68 00 00 00 00	 push	 OFFSET ??_C@_0BL@EIFGHGIE@PET_GROWTH_SKILL_LEVEL_MAX@
  00ff8	57		 push	 edi
  00ff9	ff d6		 call	 esi
  00ffb	83 c4 0c	 add	 esp, 12			; 0000000cH

; 3737 : 	PyModule_AddIntConstant(poModule, "PET_GROWTH_SKILL_OPEN_EVOL_LEVEL", PET_GROWTH_SKILL_OPEN_EVOL_LEVEL);

  00ffe	6a 04		 push	 4
  01000	68 00 00 00 00	 push	 OFFSET ??_C@_0CB@OBCGFKLG@PET_GROWTH_SKILL_OPEN_EVOL_LEVE@
  01005	57		 push	 edi
  01006	ff d6		 call	 esi
  01008	83 c4 0c	 add	 esp, 12			; 0000000cH

; 3738 : 	PyModule_AddIntConstant(poModule, "PET_REVIVE_MATERIAL_SLOT_MAX", PET_REVIVE_MATERIAL_SLOT_MAX);

  0100b	6a 0a		 push	 10			; 0000000aH
  0100d	68 00 00 00 00	 push	 OFFSET ??_C@_0BN@BPMCNOMH@PET_REVIVE_MATERIAL_SLOT_MAX@
  01012	57		 push	 edi
  01013	ff d6		 call	 esi
  01015	83 c4 0c	 add	 esp, 12			; 0000000cH

; 3739 : 	PyModule_AddIntConstant(poModule, "PET_SKILL_COUNT_MAX", PET_SKILL_COUNT_MAX);

  01018	6a 03		 push	 3
  0101a	68 00 00 00 00	 push	 OFFSET ??_C@_0BE@JMKAEJNF@PET_SKILL_COUNT_MAX@
  0101f	57		 push	 edi
  01020	ff d6		 call	 esi
  01022	83 c4 0c	 add	 esp, 12			; 0000000cH

; 3740 : 	PyModule_AddIntConstant(poModule, "LIFE_TIME_FLASH_MIN_TIME", LIFE_TIME_FLASH_MIN_TIME);

  01025	68 10 0e 00 00	 push	 3600			; 00000e10H
  0102a	68 00 00 00 00	 push	 OFFSET ??_C@_0BJ@JJGKAJLE@LIFE_TIME_FLASH_MIN_TIME@
  0102f	57		 push	 edi
  01030	ff d6		 call	 esi
  01032	83 c4 0c	 add	 esp, 12			; 0000000cH

; 3741 : 	PyModule_AddIntConstant(poModule, "ITEM_SLOT_COUNT", ITEM_SLOT_COUNT);

  01035	68 b4 00 00 00	 push	 180			; 000000b4H
  0103a	68 00 00 00 00	 push	 OFFSET ??_C@_0BA@POJPOEAE@ITEM_SLOT_COUNT@
  0103f	57		 push	 edi
  01040	ff d6		 call	 esi
  01042	83 c4 0c	 add	 esp, 12			; 0000000cH

; 3742 : 	PyModule_AddIntConstant(poModule, "SPECIAL_EVOL_MIN_AGE", SPECIAL_EVOL_MIN_AGE);

  01045	68 00 8d 27 00	 push	 2592000			; 00278d00H
  0104a	68 00 00 00 00	 push	 OFFSET ??_C@_0BF@OGHAJJKA@SPECIAL_EVOL_MIN_AGE@
  0104f	57		 push	 edi
  01050	ff d6		 call	 esi
  01052	83 c4 0c	 add	 esp, 12			; 0000000cH

; 3743 : 
; 3744 : 	PyModule_AddIntConstant(poModule, "FEED_LIFE_TIME_EVENT", FEED_LIFE_TIME_EVENT);

  01055	6a 00		 push	 0
  01057	68 00 00 00 00	 push	 OFFSET ??_C@_0BF@FPKOBLCK@FEED_LIFE_TIME_EVENT@
  0105c	57		 push	 edi
  0105d	ff d6		 call	 esi
  0105f	83 c4 0c	 add	 esp, 12			; 0000000cH

; 3745 : 	PyModule_AddIntConstant(poModule, "FEED_EXP_EVENT", FEED_EXP_EVENT);

  01062	6a 02		 push	 2
  01064	68 00 00 00 00	 push	 OFFSET ??_C@_0P@KMMLDJON@FEED_EXP_EVENT@
  01069	57		 push	 edi
  0106a	ff d6		 call	 esi
  0106c	83 c4 0c	 add	 esp, 12			; 0000000cH

; 3746 : 	PyModule_AddIntConstant(poModule, "FEED_EVOL_EVENT", FEED_EVOL_EVENT);

  0106f	6a 01		 push	 1
  01071	68 00 00 00 00	 push	 OFFSET ??_C@_0BA@DIFILJDH@FEED_EVOL_EVENT@
  01076	57		 push	 edi
  01077	ff d6		 call	 esi
  01079	83 c4 0c	 add	 esp, 12			; 0000000cH

; 3747 : 	PyModule_AddIntConstant(poModule, "FEED_BUTTON_MAX", FEED_BUTTON_MAX);

  0107c	6a 03		 push	 3
  0107e	68 00 00 00 00	 push	 OFFSET ??_C@_0BA@BJMLMPCH@FEED_BUTTON_MAX@
  01083	57		 push	 edi
  01084	ff d6		 call	 esi
  01086	83 c4 0c	 add	 esp, 12			; 0000000cH

; 3748 : 
; 3749 : 	PyModule_AddIntConstant(poModule, "PET_WINDOW_INFO", PET_WINDOW_INFO);

  01089	6a 00		 push	 0
  0108b	68 00 00 00 00	 push	 OFFSET ??_C@_0BA@BCBOOENP@PET_WINDOW_INFO@
  01090	57		 push	 edi
  01091	ff d6		 call	 esi
  01093	83 c4 0c	 add	 esp, 12			; 0000000cH

; 3750 : 	PyModule_AddIntConstant(poModule, "PET_WINDOW_ATTR_CHANGE", PET_WINDOW_ATTR_CHANGE);

  01096	6a 01		 push	 1
  01098	68 00 00 00 00	 push	 OFFSET ??_C@_0BH@DNHCPKPA@PET_WINDOW_ATTR_CHANGE@
  0109d	57		 push	 edi
  0109e	ff d6		 call	 esi
  010a0	83 c4 0c	 add	 esp, 12			; 0000000cH

; 3751 : 	PyModule_AddIntConstant(poModule, "PET_WINDOW_PRIMIUM_FEEDSTUFF", PET_WINDOW_PRIMIUM_FEEDSTUFF);

  010a3	6a 02		 push	 2
  010a5	68 00 00 00 00	 push	 OFFSET ??_C@_0BN@GJGLGIPO@PET_WINDOW_PRIMIUM_FEEDSTUFF@
  010aa	57		 push	 edi
  010ab	ff d6		 call	 esi
  010ad	83 c4 0c	 add	 esp, 12			; 0000000cH

; 3752 : 
; 3753 : 	PyModule_AddIntConstant(poModule, "PET_WND_SLOT_ATTR_CHANGE", PET_WND_SLOT_ATTR_CHANGE);

  010b0	6a 00		 push	 0
  010b2	68 00 00 00 00	 push	 OFFSET ??_C@_0BJ@NBIJKGHG@PET_WND_SLOT_ATTR_CHANGE@
  010b7	57		 push	 edi
  010b8	ff d6		 call	 esi
  010ba	83 c4 0c	 add	 esp, 12			; 0000000cH

; 3754 : 	PyModule_AddIntConstant(poModule, "PET_WND_SLOT_ATTR_CHANGE_ITEM", PET_WND_SLOT_ATTR_CHANGE_ITEM);

  010bd	6a 01		 push	 1
  010bf	68 00 00 00 00	 push	 OFFSET ??_C@_0BO@LHIHOBGL@PET_WND_SLOT_ATTR_CHANGE_ITEM@
  010c4	57		 push	 edi
  010c5	ff d6		 call	 esi
  010c7	83 c4 0c	 add	 esp, 12			; 0000000cH

; 3755 : 	PyModule_AddIntConstant(poModule, "PET_WND_SLOT_ATTR_CHANGE_RESULT", PET_WND_SLOT_ATTR_CHANGE_RESULT);

  010ca	6a 02		 push	 2
  010cc	68 00 00 00 00	 push	 OFFSET ??_C@_0CA@CBANDPKJ@PET_WND_SLOT_ATTR_CHANGE_RESULT@
  010d1	57		 push	 edi
  010d2	ff d6		 call	 esi
  010d4	83 c4 0c	 add	 esp, 12			; 0000000cH

; 3756 : 	PyModule_AddIntConstant(poModule, "PET_WND_SLOT_ATTR_CHANGE_MAX", PET_WND_SLOT_ATTR_CHANGE_MAX);

  010d7	6a 03		 push	 3
  010d9	68 00 00 00 00	 push	 OFFSET ??_C@_0BN@FIDDPHID@PET_WND_SLOT_ATTR_CHANGE_MAX@
  010de	57		 push	 edi
  010df	ff d6		 call	 esi
  010e1	83 c4 0c	 add	 esp, 12			; 0000000cH

; 3757 : 
; 3758 : 	PyModule_AddIntConstant(poModule, "PET_ATTR_DETERMINE_ITEM", PET_ATTR_DETERMINE_ITEM);

  010e4	68 f8 d6 00 00	 push	 55032			; 0000d6f8H
  010e9	68 00 00 00 00	 push	 OFFSET ??_C@_0BI@NPPIBKMK@PET_ATTR_DETERMINE_ITEM@
  010ee	57		 push	 edi
  010ef	ff d6		 call	 esi
  010f1	83 c4 0c	 add	 esp, 12			; 0000000cH

; 3759 : 	PyModule_AddIntConstant(poModule, "PET_ATTR_CHANGE_ITEM", PET_ATTR_CHANGE_ITEM);

  010f4	68 f9 d6 00 00	 push	 55033			; 0000d6f9H
  010f9	68 00 00 00 00	 push	 OFFSET ??_C@_0BF@EGOKNPMG@PET_ATTR_CHANGE_ITEM@
  010fe	57		 push	 edi
  010ff	ff d6		 call	 esi
  01101	83 c4 0c	 add	 esp, 12			; 0000000cH

; 3760 : 
; 3761 : 	PyModule_AddIntConstant(poModule, "QUICK_SLOT_POS_ERROR", QUICK_SLOT_POS_ERROR);

  01104	6a 00		 push	 0
  01106	68 00 00 00 00	 push	 OFFSET ??_C@_0BF@IOMDMJJH@QUICK_SLOT_POS_ERROR@
  0110b	57		 push	 edi
  0110c	ff d6		 call	 esi
  0110e	83 c4 0c	 add	 esp, 12			; 0000000cH

; 3762 : 	PyModule_AddIntConstant(poModule, "QUICK_SLOT_ITEM_USE_SUCCESS", QUICK_SLOT_ITEM_USE_SUCCESS);

  01111	6a 01		 push	 1
  01113	68 00 00 00 00	 push	 OFFSET ??_C@_0BM@CGLKDAAA@QUICK_SLOT_ITEM_USE_SUCCESS@
  01118	57		 push	 edi
  01119	ff d6		 call	 esi
  0111b	83 c4 0c	 add	 esp, 12			; 0000000cH

; 3763 : 	PyModule_AddIntConstant(poModule, "QUICK_SLOT_IS_NOT_ITEM", QUICK_SLOT_IS_NOT_ITEM);

  0111e	6a 02		 push	 2
  01120	68 00 00 00 00	 push	 OFFSET ??_C@_0BH@JPEBDBOE@QUICK_SLOT_IS_NOT_ITEM@
  01125	57		 push	 edi
  01126	ff d6		 call	 esi
  01128	83 c4 0c	 add	 esp, 12			; 0000000cH

; 3764 : 	PyModule_AddIntConstant(poModule, "QUICK_SLOT_PET_ITEM_USE_SUCCESS", QUICK_SLOT_PET_ITEM_USE_SUCCESS);

  0112b	6a 03		 push	 3
  0112d	68 00 00 00 00	 push	 OFFSET ??_C@_0CA@OOHPPNPK@QUICK_SLOT_PET_ITEM_USE_SUCCESS@
  01132	57		 push	 edi
  01133	ff d6		 call	 esi
  01135	83 c4 0c	 add	 esp, 12			; 0000000cH

; 3765 : 	PyModule_AddIntConstant(poModule, "QUICK_SLOT_PET_ITEM_USE_FAILED", QUICK_SLOT_PET_ITEM_USE_FAILED);

  01138	6a 04		 push	 4
  0113a	68 00 00 00 00	 push	 OFFSET ??_C@_0BP@DJAPKJMJ@QUICK_SLOT_PET_ITEM_USE_FAILED@
  0113f	57		 push	 edi
  01140	ff d6		 call	 esi
  01142	83 c4 0c	 add	 esp, 12			; 0000000cH

; 3766 : 	PyModule_AddIntConstant(poModule, "QUICK_SLOT_CAN_NOT_USE_PET_ITEM", QUICK_SLOT_CAN_NOT_USE_PET_ITEM);

  01145	6a 05		 push	 5
  01147	68 00 00 00 00	 push	 OFFSET ??_C@_0CA@GCEIFJNM@QUICK_SLOT_CAN_NOT_USE_PET_ITEM@
  0114c	57		 push	 edi
  0114d	ff d6		 call	 esi
  0114f	83 c4 0c	 add	 esp, 12			; 0000000cH

; 3767 : #endif
; 3768 : 
; 3769 : #ifdef ENABLE_RENEWAL_BONUS_BOARD
; 3770 : 	PyModule_AddIntConstant(poModule, "POINT_BLUE_PLAYER_KILLED", POINT_BLUE_PLAYER_KILLED);

  01152	68 a6 00 00 00	 push	 166			; 000000a6H
  01157	68 00 00 00 00	 push	 OFFSET ??_C@_0BJ@MEMDNOBC@POINT_BLUE_PLAYER_KILLED@
  0115c	57		 push	 edi
  0115d	ff d6		 call	 esi
  0115f	83 c4 0c	 add	 esp, 12			; 0000000cH

; 3771 : 	PyModule_AddIntConstant(poModule, "POINT_YELLOW_PLAYER_KILLED", POINT_YELLOW_PLAYER_KILLED);

  01162	68 a7 00 00 00	 push	 167			; 000000a7H
  01167	68 00 00 00 00	 push	 OFFSET ??_C@_0BL@DJJNJMIM@POINT_YELLOW_PLAYER_KILLED@
  0116c	57		 push	 edi
  0116d	ff d6		 call	 esi
  0116f	83 c4 0c	 add	 esp, 12			; 0000000cH

; 3772 : 	PyModule_AddIntConstant(poModule, "POINT_RED_PLAYER_KILLED", POINT_RED_PLAYER_KILLED);

  01172	68 a8 00 00 00	 push	 168			; 000000a8H
  01177	68 00 00 00 00	 push	 OFFSET ??_C@_0BI@GLOEPCDD@POINT_RED_PLAYER_KILLED@
  0117c	57		 push	 edi
  0117d	ff d6		 call	 esi
  0117f	83 c4 0c	 add	 esp, 12			; 0000000cH

; 3773 : 	PyModule_AddIntConstant(poModule, "POINT_ALL_PLAYER_KILLED", POINT_ALL_PLAYER_KILLED);

  01182	68 a9 00 00 00	 push	 169			; 000000a9H
  01187	68 00 00 00 00	 push	 OFFSET ??_C@_0BI@LNGEGINL@POINT_ALL_PLAYER_KILLED@
  0118c	57		 push	 edi
  0118d	ff d6		 call	 esi
  0118f	83 c4 0c	 add	 esp, 12			; 0000000cH

; 3774 : 	PyModule_AddIntConstant(poModule, "POINT_KILL_DUELWON", POINT_KILL_DUELWON);

  01192	68 aa 00 00 00	 push	 170			; 000000aaH
  01197	68 00 00 00 00	 push	 OFFSET ??_C@_0BD@CPMCNAMN@POINT_KILL_DUELWON@
  0119c	57		 push	 edi
  0119d	ff d6		 call	 esi
  0119f	83 c4 0c	 add	 esp, 12			; 0000000cH

; 3775 : 	PyModule_AddIntConstant(poModule, "POINT_KILL_DUELLOST", POINT_KILL_DUELLOST);

  011a2	68 ab 00 00 00	 push	 171			; 000000abH
  011a7	68 00 00 00 00	 push	 OFFSET ??_C@_0BE@DIODHCDN@POINT_KILL_DUELLOST@
  011ac	57		 push	 edi
  011ad	ff d6		 call	 esi
  011af	83 c4 0c	 add	 esp, 12			; 0000000cH

; 3776 : 	PyModule_AddIntConstant(poModule, "POINT_MONSTER_KILLED", POINT_MONSTER_KILLED);

  011b2	68 ac 00 00 00	 push	 172			; 000000acH
  011b7	68 00 00 00 00	 push	 OFFSET ??_C@_0BF@IKAAIKND@POINT_MONSTER_KILLED@
  011bc	57		 push	 edi
  011bd	ff d6		 call	 esi
  011bf	83 c4 0c	 add	 esp, 12			; 0000000cH

; 3777 : 	PyModule_AddIntConstant(poModule, "POINT_STONE_KILLED", POINT_STONE_KILLED);

  011c2	68 ad 00 00 00	 push	 173			; 000000adH
  011c7	68 00 00 00 00	 push	 OFFSET ??_C@_0BD@OGBKIAOM@POINT_STONE_KILLED@
  011cc	57		 push	 edi
  011cd	ff d6		 call	 esi
  011cf	83 c4 0c	 add	 esp, 12			; 0000000cH

; 3778 : 	PyModule_AddIntConstant(poModule, "POINT_BOSS_KILLED", POINT_BOSS_KILLED);

  011d2	68 ae 00 00 00	 push	 174			; 000000aeH
  011d7	68 00 00 00 00	 push	 OFFSET ??_C@_0BC@JPBCPPBB@POINT_BOSS_KILLED@
  011dc	57		 push	 edi
  011dd	ff d6		 call	 esi

; 3779 : #endif
; 3780 : }

  011df	8b 4d fc	 mov	 ecx, DWORD PTR __$ArrayPad$[ebp]
  011e2	83 c4 0c	 add	 esp, 12			; 0000000cH
  011e5	33 cd		 xor	 ecx, ebp
  011e7	5f		 pop	 edi
  011e8	5e		 pop	 esi
  011e9	e8 00 00 00 00	 call	 @__security_check_cookie@4
  011ee	8b e5		 mov	 esp, ebp
  011f0	5d		 pop	 ebp
  011f1	c3		 ret	 0
?initPlayer@@YAXXZ ENDP					; initPlayer
_TEXT	ENDS
END
