; Listing generated by Microsoft (R) Optimizing Compiler Version 19.44.35219.0 

	TITLE	c:\anka2project\anka2project\source\binary\vs_files\userinterface\release\pythonexchangemodule.obj
	.686P
	.XMM
	include listing.inc
	.model	flat

INCLUDELIB OLDNAMES

PUBLIC	??_C@_01JPJNBJEM@I@				; `string'
PUBLIC	??_C@_0M@IAKFCGCD@InitTrading@			; `string'
PUBLIC	??_C@_09NDPDNFKM@isTrading@			; `string'
PUBLIC	??_C@_0P@FLKEMEBG@GetElkFromSelf@		; `string'
PUBLIC	??_C@_0BB@LMIEGPPN@GetElkFromTarget@		; `string'
PUBLIC	??_C@_0BE@IGEBIKPO@GetItemVnumFromSelf@		; `string'
PUBLIC	??_C@_0BG@LLEHKHGL@GetItemVnumFromTarget@	; `string'
PUBLIC	??_C@_0BF@MADFKIJK@GetItemCountFromSelf@	; `string'
PUBLIC	??_C@_0BH@GPLGAOFI@GetItemCountFromTarget@	; `string'
PUBLIC	??_C@_0BC@EFOHFOPD@GetAcceptFromSelf@		; `string'
PUBLIC	??_C@_0BE@IPFHAMEN@GetAcceptFromTarget@		; `string'
PUBLIC	??_C@_0BA@JBODFEMD@GetNameFromSelf@		; `string'
PUBLIC	??_C@_0BC@LAMEAHKE@GetNameFromTarget@		; `string'
PUBLIC	??_C@_0BA@ONCIGAOE@GetRaceFromSelf@		; `string'
PUBLIC	??_C@_0BC@ELLFDNLP@GetRaceFromTarget@		; `string'
PUBLIC	??_C@_0BB@FGALINAF@GetLevelFromSelf@		; `string'
PUBLIC	??_C@_0BD@NCGLNKPE@GetLevelFromTarget@		; `string'
PUBLIC	??_C@_0BN@FJAFLLEI@GetItemMetinSocketFromTarget@ ; `string'
PUBLIC	??_C@_0BL@OPELCAOA@GetItemMetinSocketFromSelf@	; `string'
PUBLIC	??_C@_0BL@CDOBAGEH@GetItemAttributeFromTarget@	; `string'
PUBLIC	??_C@_0BJ@LGADFCHN@GetItemAttributeFromSelf@	; `string'
PUBLIC	??_C@_0L@CKKAINKA@GetElkMode@			; `string'
PUBLIC	??_C@_0L@DEIPDKOJ@SetElkMode@			; `string'
PUBLIC	??_C@_0BK@FFOHJLHP@GetChangeLookVnumFromSelf@	; `string'
PUBLIC	??_C@_0BM@PDGPPNDF@GetChangeLookVnumFromTarget@	; `string'
PUBLIC	??_C@_08EPHOCFK@exchange@			; `string'
PUBLIC	??_C@_0BG@LKADPLLF@EXCHANGE_ITEM_MAX_NUM@	; `string'
;	COMDAT ?s_methods@?1??initTrade@@YAXXZ@4PAUPyMethodDef@@A
_DATA	SEGMENT
?s_methods@?1??initTrade@@YAXXZ@4PAUPyMethodDef@@A DD FLAT:??_C@_0M@IAKFCGCD@InitTrading@ ; `initTrade'::`2'::s_methods
	DD	FLAT:?exchangeInitTrading@@YAPAU_object@@PAU1@0@Z
	DD	01H
	ORG $+4
	DD	FLAT:??_C@_09NDPDNFKM@isTrading@
	DD	FLAT:?exchangeisTrading@@YAPAU_object@@PAU1@0@Z
	DD	01H
	ORG $+4
	DD	FLAT:??_C@_0P@FLKEMEBG@GetElkFromSelf@
	DD	FLAT:?exchangeGetElkFromSelf@@YAPAU_object@@PAU1@0@Z
	DD	01H
	ORG $+4
	DD	FLAT:??_C@_0BB@LMIEGPPN@GetElkFromTarget@
	DD	FLAT:?exchangeGetElkFromTarget@@YAPAU_object@@PAU1@0@Z
	DD	01H
	ORG $+4
	DD	FLAT:??_C@_0BE@IGEBIKPO@GetItemVnumFromSelf@
	DD	FLAT:?exchangeGetItemVnumFromSelf@@YAPAU_object@@PAU1@0@Z
	DD	01H
	ORG $+4
	DD	FLAT:??_C@_0BG@LLEHKHGL@GetItemVnumFromTarget@
	DD	FLAT:?exchangeGetItemVnumFromTarget@@YAPAU_object@@PAU1@0@Z
	DD	01H
	ORG $+4
	DD	FLAT:??_C@_0BF@MADFKIJK@GetItemCountFromSelf@
	DD	FLAT:?exchangeGetItemCountFromSelf@@YAPAU_object@@PAU1@0@Z
	DD	01H
	ORG $+4
	DD	FLAT:??_C@_0BH@GPLGAOFI@GetItemCountFromTarget@
	DD	FLAT:?exchangeGetItemCountFromTarget@@YAPAU_object@@PAU1@0@Z
	DD	01H
	ORG $+4
	DD	FLAT:??_C@_0BC@EFOHFOPD@GetAcceptFromSelf@
	DD	FLAT:?exchangeGetAcceptFromSelf@@YAPAU_object@@PAU1@0@Z
	DD	01H
	ORG $+4
	DD	FLAT:??_C@_0BE@IPFHAMEN@GetAcceptFromTarget@
	DD	FLAT:?exchangeGetAcceptFromTarget@@YAPAU_object@@PAU1@0@Z
	DD	01H
	ORG $+4
	DD	FLAT:??_C@_0BA@JBODFEMD@GetNameFromSelf@
	DD	FLAT:?exchangeGetNameFromSelf@@YAPAU_object@@PAU1@0@Z
	DD	01H
	ORG $+4
	DD	FLAT:??_C@_0BC@LAMEAHKE@GetNameFromTarget@
	DD	FLAT:?exchangeGetNameFromTarget@@YAPAU_object@@PAU1@0@Z
	DD	01H
	ORG $+4
	DD	FLAT:??_C@_0BA@ONCIGAOE@GetRaceFromSelf@
	DD	FLAT:?exchangeGetRaceFromSelf@@YAPAU_object@@PAU1@0@Z
	DD	01H
	ORG $+4
	DD	FLAT:??_C@_0BC@ELLFDNLP@GetRaceFromTarget@
	DD	FLAT:?exchangeGetRaceFromTarget@@YAPAU_object@@PAU1@0@Z
	DD	01H
	ORG $+4
	DD	FLAT:??_C@_0BB@FGALINAF@GetLevelFromSelf@
	DD	FLAT:?exchangeGetLevelFromSelf@@YAPAU_object@@PAU1@0@Z
	DD	01H
	ORG $+4
	DD	FLAT:??_C@_0BD@NCGLNKPE@GetLevelFromTarget@
	DD	FLAT:?exchangeGetLevelFromTarget@@YAPAU_object@@PAU1@0@Z
	DD	01H
	ORG $+4
	DD	FLAT:??_C@_0BN@FJAFLLEI@GetItemMetinSocketFromTarget@
	DD	FLAT:?exchangeGetItemMetinSocketFromTarget@@YAPAU_object@@PAU1@0@Z
	DD	01H
	ORG $+4
	DD	FLAT:??_C@_0BL@OPELCAOA@GetItemMetinSocketFromSelf@
	DD	FLAT:?exchangeGetItemMetinSocketFromSelf@@YAPAU_object@@PAU1@0@Z
	DD	01H
	ORG $+4
	DD	FLAT:??_C@_0BL@CDOBAGEH@GetItemAttributeFromTarget@
	DD	FLAT:?exchangeGetItemAttributeFromTarget@@YAPAU_object@@PAU1@0@Z
	DD	01H
	ORG $+4
	DD	FLAT:??_C@_0BJ@LGADFCHN@GetItemAttributeFromSelf@
	DD	FLAT:?exchangeGetItemAttributeFromSelf@@YAPAU_object@@PAU1@0@Z
	DD	01H
	ORG $+4
	DD	FLAT:??_C@_0L@CKKAINKA@GetElkMode@
	DD	FLAT:?exchangeGetElkMode@@YAPAU_object@@PAU1@0@Z
	DD	01H
	ORG $+4
	DD	FLAT:??_C@_0L@DEIPDKOJ@SetElkMode@
	DD	FLAT:?exchangeSetElkMode@@YAPAU_object@@PAU1@0@Z
	DD	01H
	ORG $+4
	DD	FLAT:??_C@_0BK@FFOHJLHP@GetChangeLookVnumFromSelf@
	DD	FLAT:?exchangeGetChangeLookVnumFromSelf@@YAPAU_object@@PAU1@0@Z
	DD	01H
	ORG $+4
	DD	FLAT:??_C@_0BM@PDGPPNDF@GetChangeLookVnumFromTarget@
	DD	FLAT:?exchangeGetChangeLookVnumFromTarget@@YAPAU_object@@PAU1@0@Z
	DD	01H
	ORG $+4
	DD	00H
	DD	00H
	ORG $+8
_DATA	ENDS
;	COMDAT ??_C@_0BG@LKADPLLF@EXCHANGE_ITEM_MAX_NUM@
CONST	SEGMENT
??_C@_0BG@LKADPLLF@EXCHANGE_ITEM_MAX_NUM@ DB 'EXCHANGE_ITEM_MAX_NUM', 00H ; `string'
CONST	ENDS
;	COMDAT ??_C@_08EPHOCFK@exchange@
CONST	SEGMENT
??_C@_08EPHOCFK@exchange@ DB 'exchange', 00H		; `string'
CONST	ENDS
;	COMDAT ??_C@_0BM@PDGPPNDF@GetChangeLookVnumFromTarget@
CONST	SEGMENT
??_C@_0BM@PDGPPNDF@GetChangeLookVnumFromTarget@ DB 'GetChangeLookVnumFrom'
	DB	'Target', 00H				; `string'
CONST	ENDS
;	COMDAT ??_C@_0BK@FFOHJLHP@GetChangeLookVnumFromSelf@
CONST	SEGMENT
??_C@_0BK@FFOHJLHP@GetChangeLookVnumFromSelf@ DB 'GetChangeLookVnumFromSe'
	DB	'lf', 00H					; `string'
CONST	ENDS
;	COMDAT ??_C@_0L@DEIPDKOJ@SetElkMode@
CONST	SEGMENT
??_C@_0L@DEIPDKOJ@SetElkMode@ DB 'SetElkMode', 00H	; `string'
CONST	ENDS
;	COMDAT ??_C@_0L@CKKAINKA@GetElkMode@
CONST	SEGMENT
??_C@_0L@CKKAINKA@GetElkMode@ DB 'GetElkMode', 00H	; `string'
CONST	ENDS
;	COMDAT ??_C@_0BJ@LGADFCHN@GetItemAttributeFromSelf@
CONST	SEGMENT
??_C@_0BJ@LGADFCHN@GetItemAttributeFromSelf@ DB 'GetItemAttributeFromSelf'
	DB	00H						; `string'
CONST	ENDS
;	COMDAT ??_C@_0BL@CDOBAGEH@GetItemAttributeFromTarget@
CONST	SEGMENT
??_C@_0BL@CDOBAGEH@GetItemAttributeFromTarget@ DB 'GetItemAttributeFromTa'
	DB	'rget', 00H					; `string'
CONST	ENDS
;	COMDAT ??_C@_0BL@OPELCAOA@GetItemMetinSocketFromSelf@
CONST	SEGMENT
??_C@_0BL@OPELCAOA@GetItemMetinSocketFromSelf@ DB 'GetItemMetinSocketFrom'
	DB	'Self', 00H					; `string'
CONST	ENDS
;	COMDAT ??_C@_0BN@FJAFLLEI@GetItemMetinSocketFromTarget@
CONST	SEGMENT
??_C@_0BN@FJAFLLEI@GetItemMetinSocketFromTarget@ DB 'GetItemMetinSocketFr'
	DB	'omTarget', 00H				; `string'
CONST	ENDS
;	COMDAT ??_C@_0BD@NCGLNKPE@GetLevelFromTarget@
CONST	SEGMENT
??_C@_0BD@NCGLNKPE@GetLevelFromTarget@ DB 'GetLevelFromTarget', 00H ; `string'
CONST	ENDS
;	COMDAT ??_C@_0BB@FGALINAF@GetLevelFromSelf@
CONST	SEGMENT
??_C@_0BB@FGALINAF@GetLevelFromSelf@ DB 'GetLevelFromSelf', 00H ; `string'
CONST	ENDS
;	COMDAT ??_C@_0BC@ELLFDNLP@GetRaceFromTarget@
CONST	SEGMENT
??_C@_0BC@ELLFDNLP@GetRaceFromTarget@ DB 'GetRaceFromTarget', 00H ; `string'
CONST	ENDS
;	COMDAT ??_C@_0BA@ONCIGAOE@GetRaceFromSelf@
CONST	SEGMENT
??_C@_0BA@ONCIGAOE@GetRaceFromSelf@ DB 'GetRaceFromSelf', 00H ; `string'
CONST	ENDS
;	COMDAT ??_C@_0BC@LAMEAHKE@GetNameFromTarget@
CONST	SEGMENT
??_C@_0BC@LAMEAHKE@GetNameFromTarget@ DB 'GetNameFromTarget', 00H ; `string'
CONST	ENDS
;	COMDAT ??_C@_0BA@JBODFEMD@GetNameFromSelf@
CONST	SEGMENT
??_C@_0BA@JBODFEMD@GetNameFromSelf@ DB 'GetNameFromSelf', 00H ; `string'
CONST	ENDS
;	COMDAT ??_C@_0BE@IPFHAMEN@GetAcceptFromTarget@
CONST	SEGMENT
??_C@_0BE@IPFHAMEN@GetAcceptFromTarget@ DB 'GetAcceptFromTarget', 00H ; `string'
CONST	ENDS
;	COMDAT ??_C@_0BC@EFOHFOPD@GetAcceptFromSelf@
CONST	SEGMENT
??_C@_0BC@EFOHFOPD@GetAcceptFromSelf@ DB 'GetAcceptFromSelf', 00H ; `string'
CONST	ENDS
;	COMDAT ??_C@_0BH@GPLGAOFI@GetItemCountFromTarget@
CONST	SEGMENT
??_C@_0BH@GPLGAOFI@GetItemCountFromTarget@ DB 'GetItemCountFromTarget', 00H ; `string'
CONST	ENDS
;	COMDAT ??_C@_0BF@MADFKIJK@GetItemCountFromSelf@
CONST	SEGMENT
??_C@_0BF@MADFKIJK@GetItemCountFromSelf@ DB 'GetItemCountFromSelf', 00H ; `string'
CONST	ENDS
;	COMDAT ??_C@_0BG@LLEHKHGL@GetItemVnumFromTarget@
CONST	SEGMENT
??_C@_0BG@LLEHKHGL@GetItemVnumFromTarget@ DB 'GetItemVnumFromTarget', 00H ; `string'
CONST	ENDS
;	COMDAT ??_C@_0BE@IGEBIKPO@GetItemVnumFromSelf@
CONST	SEGMENT
??_C@_0BE@IGEBIKPO@GetItemVnumFromSelf@ DB 'GetItemVnumFromSelf', 00H ; `string'
CONST	ENDS
;	COMDAT ??_C@_0BB@LMIEGPPN@GetElkFromTarget@
CONST	SEGMENT
??_C@_0BB@LMIEGPPN@GetElkFromTarget@ DB 'GetElkFromTarget', 00H ; `string'
CONST	ENDS
;	COMDAT ??_C@_0P@FLKEMEBG@GetElkFromSelf@
CONST	SEGMENT
??_C@_0P@FLKEMEBG@GetElkFromSelf@ DB 'GetElkFromSelf', 00H ; `string'
CONST	ENDS
;	COMDAT ??_C@_09NDPDNFKM@isTrading@
CONST	SEGMENT
??_C@_09NDPDNFKM@isTrading@ DB 'isTrading', 00H		; `string'
CONST	ENDS
;	COMDAT ??_C@_0M@IAKFCGCD@InitTrading@
CONST	SEGMENT
??_C@_0M@IAKFCGCD@InitTrading@ DB 'InitTrading', 00H	; `string'
CONST	ENDS
;	COMDAT ??_C@_01JPJNBJEM@I@
CONST	SEGMENT
??_C@_01JPJNBJEM@I@ DB 'I', 00H				; `string'
PUBLIC	?Instance@?$CSingleton@VCPythonExchange@@@@SAAAVCPythonExchange@@XZ ; CSingleton<CPythonExchange>::Instance
PUBLIC	?initTrade@@YAXXZ				; initTrade
PUBLIC	?exchangeGetChangeLookVnumFromTarget@@YAPAU_object@@PAU1@0@Z ; exchangeGetChangeLookVnumFromTarget
PUBLIC	?exchangeGetChangeLookVnumFromSelf@@YAPAU_object@@PAU1@0@Z ; exchangeGetChangeLookVnumFromSelf
PUBLIC	?exchangeSetElkMode@@YAPAU_object@@PAU1@0@Z	; exchangeSetElkMode
PUBLIC	?exchangeGetElkMode@@YAPAU_object@@PAU1@0@Z	; exchangeGetElkMode
PUBLIC	?exchangeGetItemAttributeFromSelf@@YAPAU_object@@PAU1@0@Z ; exchangeGetItemAttributeFromSelf
PUBLIC	?exchangeGetItemAttributeFromTarget@@YAPAU_object@@PAU1@0@Z ; exchangeGetItemAttributeFromTarget
PUBLIC	?exchangeGetItemMetinSocketFromSelf@@YAPAU_object@@PAU1@0@Z ; exchangeGetItemMetinSocketFromSelf
PUBLIC	?exchangeGetItemMetinSocketFromTarget@@YAPAU_object@@PAU1@0@Z ; exchangeGetItemMetinSocketFromTarget
PUBLIC	?exchangeGetLevelFromTarget@@YAPAU_object@@PAU1@0@Z ; exchangeGetLevelFromTarget
PUBLIC	?exchangeGetLevelFromSelf@@YAPAU_object@@PAU1@0@Z ; exchangeGetLevelFromSelf
PUBLIC	?exchangeGetRaceFromTarget@@YAPAU_object@@PAU1@0@Z ; exchangeGetRaceFromTarget
PUBLIC	?exchangeGetRaceFromSelf@@YAPAU_object@@PAU1@0@Z ; exchangeGetRaceFromSelf
PUBLIC	?exchangeGetNameFromTarget@@YAPAU_object@@PAU1@0@Z ; exchangeGetNameFromTarget
PUBLIC	?exchangeGetNameFromSelf@@YAPAU_object@@PAU1@0@Z ; exchangeGetNameFromSelf
PUBLIC	?exchangeGetItemCountFromTarget@@YAPAU_object@@PAU1@0@Z ; exchangeGetItemCountFromTarget
PUBLIC	?exchangeGetItemCountFromSelf@@YAPAU_object@@PAU1@0@Z ; exchangeGetItemCountFromSelf
PUBLIC	?exchangeGetItemVnumFromTarget@@YAPAU_object@@PAU1@0@Z ; exchangeGetItemVnumFromTarget
PUBLIC	?exchangeGetItemVnumFromSelf@@YAPAU_object@@PAU1@0@Z ; exchangeGetItemVnumFromSelf
PUBLIC	?exchangeGetAcceptFromTarget@@YAPAU_object@@PAU1@0@Z ; exchangeGetAcceptFromTarget
PUBLIC	?exchangeGetAcceptFromSelf@@YAPAU_object@@PAU1@0@Z ; exchangeGetAcceptFromSelf
PUBLIC	?exchangeGetElkFromTarget@@YAPAU_object@@PAU1@0@Z ; exchangeGetElkFromTarget
PUBLIC	?exchangeGetElkFromSelf@@YAPAU_object@@PAU1@0@Z	; exchangeGetElkFromSelf
PUBLIC	?exchangeisTrading@@YAPAU_object@@PAU1@0@Z	; exchangeisTrading
PUBLIC	?exchangeInitTrading@@YAPAU_object@@PAU1@0@Z	; exchangeInitTrading
END
