; Listing generated by Microsoft (R) Optimizing Compiler Version 19.44.35219.0 

	TITLE	c:\anka2project\anka2project\source\binary\vs_files\userinterface\release\pythonguild.obj
	.686P
	.XMM
	include listing.inc
	.model	flat

INCLUDELIB OLDNAMES

PUBLIC	??_C@_1KA@KBJAMBFD@?$AAC?$AA?3?$AA?2?$AAA?$AAn?$AAk?$AAa?$AA2?$AAP?$AAr?$AAo?$AAj?$AAe?$AAc?$AAt@ ; `string'
PUBLIC	??_C@_1EC@MMBPHIBC@?$AA?$CB?$AAm?$AA_?$AAG?$AAu?$AAi?$AAl?$AAd?$AAM?$AAe?$AAm?$AAb?$AAe?$AAr?$AAD@ ; `string'
PUBLIC	??_C@_06HCBIANPB@Noname@			; `string'
PUBLIC	??_C@_03MKDAGEFG@iss@				; `string'
PUBLIC	??_C@_1IA@IGEOGJEH@?$AAF?$AAA?$AAL?$AAS?$AAE?$AA?5?$AA?$CG?$AA?$CG?$AA?5?$AA?$CB?$AA?$CC?$AAg?$AAu?$AAi?$AAl@ ; `string'
PUBLIC	??_C@_1GC@LHCMPPAI@?$AAd?$AAw?$AAS?$AAk?$AAi?$AAl?$AAl?$AAI?$AAn?$AAd?$AAe?$AAx?$AA?5?$AA?$DM?$AA?5@ ; `string'
PUBLIC	??_C@_01OGPIMHDM@?$DP@				; `string'
PUBLIC	??_C@_07IGDHICNG@isiiiii@			; `string'
PUBLIC	??_C@_0O@IGOIDFGB@IsGuildEnable@		; `string'
PUBLIC	??_C@_0BA@BGLAIPMB@GuildIDToMarkID@		; `string'
PUBLIC	??_C@_0BN@OMLCOGDL@GetMarkImageFilenameByMarkID@ ; `string'
PUBLIC	??_C@_0BF@BKGLMLAL@GetMarkIndexByMarkID@	; `string'
PUBLIC	??_C@_0N@EIPGMIIH@HasGuildLand@			; `string'
PUBLIC	??_C@_0N@CECGOPDG@GetGuildName@			; `string'
PUBLIC	??_C@_0BD@CMPDBKGA@GetGuildMasterName@		; `string'
PUBLIC	??_C@_0BC@DLHGICPJ@GetEnemyGuildName@		; `string'
PUBLIC	??_C@_0O@BKHCBCOI@GetGuildMoney@		; `string'
PUBLIC	??_C@_0BK@OMNAMAPH@GetGuildBoardCommentCount@	; `string'
PUBLIC	??_C@_0BJ@DAPPLJDP@GetGuildBoardCommentData@	; `string'
PUBLIC	??_C@_0O@DJIGEAII@GetGuildLevel@		; `string'
PUBLIC	??_C@_0BD@OLJDCPCG@GetGuildExperience@		; `string'
PUBLIC	??_C@_0BE@MKPPOKLM@GetGuildMemberCount@		; `string'
PUBLIC	??_C@_0BL@KCOANOCD@GetGuildMemberLevelSummary@	; `string'
PUBLIC	??_C@_0BL@FPOPEMBA@GetGuildMemberLevelAverage@	; `string'
PUBLIC	??_C@_0BK@FHGMGKIK@GetGuildExperienceSummary@	; `string'
PUBLIC	??_C@_0BD@OGJHNFOJ@GetGuildSkillPoint@		; `string'
PUBLIC	??_C@_0BE@EIFJKAMD@GetDragonPowerPoint@		; `string'
PUBLIC	??_C@_0BD@FOAHDPNJ@GetGuildSkillLevel@		; `string'
PUBLIC	??_C@_0O@CNCBAIPN@GetSkillLevel@		; `string'
PUBLIC	??_C@_0BE@GLCFFECD@GetSkillMaxLevelNew@		; `string'
PUBLIC	??_C@_0O@KBJMFDGJ@SetSkillIndex@		; `string'
PUBLIC	??_C@_0O@NOICOABO@GetSkillIndex@		; `string'
PUBLIC	??_C@_0N@FGDKEBNC@GetGradeData@			; `string'
PUBLIC	??_C@_0N@GLBBAEII@GetGradeName@			; `string'
PUBLIC	??_C@_0P@PGIPCIFK@GetMemberCount@		; `string'
PUBLIC	??_C@_0O@LFMDGJCL@GetMemberData@		; `string'
PUBLIC	??_C@_0BB@LKNIPIHL@MemberIndexToPID@		; `string'
PUBLIC	??_C@_08JHGFNMOF@IsMember@			; `string'
PUBLIC	??_C@_0P@DNENDIKL@IsMemberByName@		; `string'
PUBLIC	??_C@_0BH@HJLEBIMC@MainPlayerHasAuthority@	; `string'
PUBLIC	??_C@_0N@DGCKPKHN@GetWarRecode@			; `string'
PUBLIC	??_C@_0BG@KLFMPINH@GetGuildLadderRanking@	; `string'
PUBLIC	??_C@_0BE@ENPPBFDG@GetBaseInfoBankGold@		; `string'
PUBLIC	??_C@_0M@FHEJNNHO@GetBaseInfo@			; `string'
PUBLIC	??_C@_0BA@FAMLLBDB@GetbuildingInfo@		; `string'
PUBLIC	??_C@_05GMIMCKGP@guild@				; `string'
PUBLIC	??_C@_0BA@CDIOGLAE@AUTH_ADD_MEMBER@		; `string'
PUBLIC	??_C@_0BD@EFPDFGGE@AUTH_REMOVE_MEMBER@		; `string'
PUBLIC	??_C@_0M@EBNBJFNG@AUTH_NOTICE@			; `string'
PUBLIC	??_C@_0L@LKLBOFFH@AUTH_SKILL@			; `string'
PUBLIC	??_C@_08OMAEPDDC@AUTH_WAR@			; `string'
PUBLIC	??_C@_09GGIKIBFL@AUTH_BANK@			; `string'
PUBLIC	??_C@_0BL@EBPMCBIK@ENEMY_GUILD_SLOT_MAX_COUNT@	; `string'
PUBLIC	??_R2CPythonGuild@@8				; CPythonGuild::`RTTI Base Class Array'
PUBLIC	??_R2?$CSingleton@VCPythonGuild@@@@8		; CSingleton<CPythonGuild>::`RTTI Base Class Array'
PUBLIC	??_R1A@?0A@EA@CPythonGuild@@8			; CPythonGuild::`RTTI Base Class Descriptor at (0,-1,0,64)'
PUBLIC	??_R1A@?0A@EA@?$CSingleton@VCPythonGuild@@@@8	; CSingleton<CPythonGuild>::`RTTI Base Class Descriptor at (0,-1,0,64)'
PUBLIC	??_R3?$CSingleton@VCPythonGuild@@@@8		; CSingleton<CPythonGuild>::`RTTI Class Hierarchy Descriptor'
PUBLIC	??_R0?AV?$CSingleton@VCPythonGuild@@@@@8	; CSingleton<CPythonGuild> `RTTI Type Descriptor'
PUBLIC	??_R3CPythonGuild@@8				; CPythonGuild::`RTTI Class Hierarchy Descriptor'
PUBLIC	??_R0?AVCPythonGuild@@@8			; CPythonGuild `RTTI Type Descriptor'
PUBLIC	??_R4?$CSingleton@VCPythonGuild@@@@6B@		; CSingleton<CPythonGuild>::`RTTI Complete Object Locator'
PUBLIC	??_R4CPythonGuild@@6B@				; CPythonGuild::`RTTI Complete Object Locator'
PUBLIC	??_7?$CSingleton@VCPythonGuild@@@@6B@		; CSingleton<CPythonGuild>::`vftable'
PUBLIC	?ms_singleton@?$CSingleton@VCPythonGuild@@@@0PAVCPythonGuild@@A ; CSingleton<CPythonGuild>::ms_singleton
PUBLIC	??_7CPythonGuild@@6B@				; CPythonGuild::`vftable'
;	COMDAT ?ms_singleton@?$CSingleton@VCPythonGuild@@@@0PAVCPythonGuild@@A
_BSS	SEGMENT
?ms_singleton@?$CSingleton@VCPythonGuild@@@@0PAVCPythonGuild@@A DD 01H DUP (?) ; CSingleton<CPythonGuild>::ms_singleton
_BSS	ENDS
;	COMDAT ??_7CPythonGuild@@6B@
CONST	SEGMENT
??_7CPythonGuild@@6B@ DD FLAT:??_R4CPythonGuild@@6B@	; CPythonGuild::`vftable'
	DD	FLAT:??_ECPythonGuild@@UAEPAXI@Z
CONST	ENDS
;	COMDAT ?s_methods@?1??initguild@@YAXXZ@4PAUPyMethodDef@@A
_DATA	SEGMENT
?s_methods@?1??initguild@@YAXXZ@4PAUPyMethodDef@@A DD FLAT:??_C@_0O@IGOIDFGB@IsGuildEnable@ ; `initguild'::`2'::s_methods
	DD	FLAT:?guildIsGuildEnable@@YAPAU_object@@PAU1@0@Z
	DD	01H
	ORG $+4
	DD	FLAT:??_C@_0BA@BGLAIPMB@GuildIDToMarkID@
	DD	FLAT:?guildGuildIDToMarkID@@YAPAU_object@@PAU1@0@Z
	DD	01H
	ORG $+4
	DD	FLAT:??_C@_0BN@OMLCOGDL@GetMarkImageFilenameByMarkID@
	DD	FLAT:?guildGetMarkImageFilenameByMarkID@@YAPAU_object@@PAU1@0@Z
	DD	01H
	ORG $+4
	DD	FLAT:??_C@_0BF@BKGLMLAL@GetMarkIndexByMarkID@
	DD	FLAT:?guildGetMarkIndexByMarkID@@YAPAU_object@@PAU1@0@Z
	DD	01H
	ORG $+4
	DD	FLAT:??_C@_0L@EAKBLDCO@GetGuildID@
	DD	FLAT:?guildGetGuildID@@YAPAU_object@@PAU1@0@Z
	DD	01H
	ORG $+4
	DD	FLAT:??_C@_0N@EIPGMIIH@HasGuildLand@
	DD	FLAT:?guildHasGuildLand@@YAPAU_object@@PAU1@0@Z
	DD	01H
	ORG $+4
	DD	FLAT:??_C@_0N@CECGOPDG@GetGuildName@
	DD	FLAT:?guildGetGuildName@@YAPAU_object@@PAU1@0@Z
	DD	01H
	ORG $+4
	DD	FLAT:??_C@_0BD@CMPDBKGA@GetGuildMasterName@
	DD	FLAT:?guildGetGuildMasterName@@YAPAU_object@@PAU1@0@Z
	DD	01H
	ORG $+4
	DD	FLAT:??_C@_0BC@DLHGICPJ@GetEnemyGuildName@
	DD	FLAT:?guildGetEnemyGuildName@@YAPAU_object@@PAU1@0@Z
	DD	01H
	ORG $+4
	DD	FLAT:??_C@_0O@BKHCBCOI@GetGuildMoney@
	DD	FLAT:?guildGetGuildMoney@@YAPAU_object@@PAU1@0@Z
	DD	01H
	ORG $+4
	DD	FLAT:??_C@_0BK@OMNAMAPH@GetGuildBoardCommentCount@
	DD	FLAT:?guildGetGuildBoardCommentCount@@YAPAU_object@@PAU1@0@Z
	DD	01H
	ORG $+4
	DD	FLAT:??_C@_0BJ@DAPPLJDP@GetGuildBoardCommentData@
	DD	FLAT:?guildGetGuildBoardCommentData@@YAPAU_object@@PAU1@0@Z
	DD	01H
	ORG $+4
	DD	FLAT:??_C@_0O@DJIGEAII@GetGuildLevel@
	DD	FLAT:?guildGetGuildLevel@@YAPAU_object@@PAU1@0@Z
	DD	01H
	ORG $+4
	DD	FLAT:??_C@_0BD@OLJDCPCG@GetGuildExperience@
	DD	FLAT:?guildGetGuildExperience@@YAPAU_object@@PAU1@0@Z
	DD	01H
	ORG $+4
	DD	FLAT:??_C@_0BE@MKPPOKLM@GetGuildMemberCount@
	DD	FLAT:?guildGetGuildMemberCount@@YAPAU_object@@PAU1@0@Z
	DD	01H
	ORG $+4
	DD	FLAT:??_C@_0BL@KCOANOCD@GetGuildMemberLevelSummary@
	DD	FLAT:?guildGetGuildMemberLevelSummary@@YAPAU_object@@PAU1@0@Z
	DD	01H
	ORG $+4
	DD	FLAT:??_C@_0BL@FPOPEMBA@GetGuildMemberLevelAverage@
	DD	FLAT:?guildGetGuildMemberLevelAverage@@YAPAU_object@@PAU1@0@Z
	DD	01H
	ORG $+4
	DD	FLAT:??_C@_0BK@FHGMGKIK@GetGuildExperienceSummary@
	DD	FLAT:?guildGetGuildExperienceSummary@@YAPAU_object@@PAU1@0@Z
	DD	01H
	ORG $+4
	DD	FLAT:??_C@_0BD@OGJHNFOJ@GetGuildSkillPoint@
	DD	FLAT:?guildGetGuildSkillPoint@@YAPAU_object@@PAU1@0@Z
	DD	01H
	ORG $+4
	DD	FLAT:??_C@_0BE@EIFJKAMD@GetDragonPowerPoint@
	DD	FLAT:?guildGetDragonPowerPoint@@YAPAU_object@@PAU1@0@Z
	DD	01H
	ORG $+4
	DD	FLAT:??_C@_0BD@FOAHDPNJ@GetGuildSkillLevel@
	DD	FLAT:?guildGetGuildSkillLevel@@YAPAU_object@@PAU1@0@Z
	DD	01H
	ORG $+4
	DD	FLAT:??_C@_0O@CNCBAIPN@GetSkillLevel@
	DD	FLAT:?guildGetSkillLevel@@YAPAU_object@@PAU1@0@Z
	DD	01H
	ORG $+4
	DD	FLAT:??_C@_0BE@GLCFFECD@GetSkillMaxLevelNew@
	DD	FLAT:?guildGetSkillMaxLevelNew@@YAPAU_object@@PAU1@0@Z
	DD	01H
	ORG $+4
	DD	FLAT:??_C@_0O@KBJMFDGJ@SetSkillIndex@
	DD	FLAT:?guildSetSkillIndex@@YAPAU_object@@PAU1@0@Z
	DD	01H
	ORG $+4
	DD	FLAT:??_C@_0O@NOICOABO@GetSkillIndex@
	DD	FLAT:?guildGetSkillIndex@@YAPAU_object@@PAU1@0@Z
	DD	01H
	ORG $+4
	DD	FLAT:??_C@_0N@FGDKEBNC@GetGradeData@
	DD	FLAT:?guildGetGradeData@@YAPAU_object@@PAU1@0@Z
	DD	01H
	ORG $+4
	DD	FLAT:??_C@_0N@GLBBAEII@GetGradeName@
	DD	FLAT:?guildGetGradeName@@YAPAU_object@@PAU1@0@Z
	DD	01H
	ORG $+4
	DD	FLAT:??_C@_0P@PGIPCIFK@GetMemberCount@
	DD	FLAT:?guildGetMemberCount@@YAPAU_object@@PAU1@0@Z
	DD	01H
	ORG $+4
	DD	FLAT:??_C@_0O@LFMDGJCL@GetMemberData@
	DD	FLAT:?guildGetMemberData@@YAPAU_object@@PAU1@0@Z
	DD	01H
	ORG $+4
	DD	FLAT:??_C@_0BB@LKNIPIHL@MemberIndexToPID@
	DD	FLAT:?guildMemberIndexToPID@@YAPAU_object@@PAU1@0@Z
	DD	01H
	ORG $+4
	DD	FLAT:??_C@_08JHGFNMOF@IsMember@
	DD	FLAT:?guildIsMember@@YAPAU_object@@PAU1@0@Z
	DD	01H
	ORG $+4
	DD	FLAT:??_C@_0P@DNENDIKL@IsMemberByName@
	DD	FLAT:?guildIsMemberByName@@YAPAU_object@@PAU1@0@Z
	DD	01H
	ORG $+4
	DD	FLAT:??_C@_0BH@HJLEBIMC@MainPlayerHasAuthority@
	DD	FLAT:?guildMainPlayerHasAuthority@@YAPAU_object@@PAU1@0@Z
	DD	01H
	ORG $+4
	DD	FLAT:??_C@_07BDCAJABG@Destroy@
	DD	FLAT:?guildDestroy@@YAPAU_object@@PAU1@0@Z
	DD	01H
	ORG $+4
	DD	FLAT:??_C@_0N@DGCKPKHN@GetWarRecode@
	DD	FLAT:?guildGetWarRecode@@YAPAU_object@@PAU1@0@Z
	DD	01H
	ORG $+4
	DD	FLAT:??_C@_0BG@KLFMPINH@GetGuildLadderRanking@
	DD	FLAT:?guildGetGuildLadderRanking@@YAPAU_object@@PAU1@0@Z
	DD	01H
	ORG $+4
	DD	FLAT:??_C@_0BE@ENPPBFDG@GetBaseInfoBankGold@
	DD	FLAT:?guildGetBaseInfoBankGold@@YAPAU_object@@PAU1@0@Z
	DD	01H
	ORG $+4
	DD	FLAT:??_C@_0M@FHEJNNHO@GetBaseInfo@
	DD	FLAT:?guildGetBaseInfo@@YAPAU_object@@PAU1@0@Z
	DD	01H
	ORG $+4
	DD	FLAT:??_C@_0BA@FAMLLBDB@GetbuildingInfo@
	DD	FLAT:?guildGetbuildingInfo@@YAPAU_object@@PAU1@0@Z
	DD	01H
	ORG $+4
	DD	00H
	DD	00H
	ORG $+8
_DATA	ENDS
;	COMDAT ??_7?$CSingleton@VCPythonGuild@@@@6B@
CONST	SEGMENT
??_7?$CSingleton@VCPythonGuild@@@@6B@ DD FLAT:??_R4?$CSingleton@VCPythonGuild@@@@6B@ ; CSingleton<CPythonGuild>::`vftable'
	DD	FLAT:??_E?$CSingleton@VCPythonGuild@@@@UAEPAXI@Z
CONST	ENDS
;	COMDAT ??_R4CPythonGuild@@6B@
rdata$r	SEGMENT
??_R4CPythonGuild@@6B@ DD 00H				; CPythonGuild::`RTTI Complete Object Locator'
	DD	00H
	DD	00H
	DD	FLAT:??_R0?AVCPythonGuild@@@8
	DD	FLAT:??_R3CPythonGuild@@8
rdata$r	ENDS
;	COMDAT ??_R4?$CSingleton@VCPythonGuild@@@@6B@
rdata$r	SEGMENT
??_R4?$CSingleton@VCPythonGuild@@@@6B@ DD 00H		; CSingleton<CPythonGuild>::`RTTI Complete Object Locator'
	DD	00H
	DD	00H
	DD	FLAT:??_R0?AV?$CSingleton@VCPythonGuild@@@@@8
	DD	FLAT:??_R3?$CSingleton@VCPythonGuild@@@@8
rdata$r	ENDS
;	COMDAT ??_R0?AVCPythonGuild@@@8
data$rs	SEGMENT
??_R0?AVCPythonGuild@@@8 DD FLAT:??_7type_info@@6B@	; CPythonGuild `RTTI Type Descriptor'
	DD	00H
	DB	'.?AVCPythonGuild@@', 00H
data$rs	ENDS
;	COMDAT ??_R3CPythonGuild@@8
rdata$r	SEGMENT
??_R3CPythonGuild@@8 DD 00H				; CPythonGuild::`RTTI Class Hierarchy Descriptor'
	DD	00H
	DD	02H
	DD	FLAT:??_R2CPythonGuild@@8
rdata$r	ENDS
;	COMDAT ??_R0?AV?$CSingleton@VCPythonGuild@@@@@8
data$rs	SEGMENT
??_R0?AV?$CSingleton@VCPythonGuild@@@@@8 DD FLAT:??_7type_info@@6B@ ; CSingleton<CPythonGuild> `RTTI Type Descriptor'
	DD	00H
	DB	'.?AV?$CSingleton@VCPythonGuild@@@@', 00H
data$rs	ENDS
;	COMDAT ??_R3?$CSingleton@VCPythonGuild@@@@8
rdata$r	SEGMENT
??_R3?$CSingleton@VCPythonGuild@@@@8 DD 00H		; CSingleton<CPythonGuild>::`RTTI Class Hierarchy Descriptor'
	DD	00H
	DD	01H
	DD	FLAT:??_R2?$CSingleton@VCPythonGuild@@@@8
rdata$r	ENDS
;	COMDAT ??_R1A@?0A@EA@?$CSingleton@VCPythonGuild@@@@8
rdata$r	SEGMENT
??_R1A@?0A@EA@?$CSingleton@VCPythonGuild@@@@8 DD FLAT:??_R0?AV?$CSingleton@VCPythonGuild@@@@@8 ; CSingleton<CPythonGuild>::`RTTI Base Class Descriptor at (0,-1,0,64)'
	DD	00H
	DD	00H
	DD	0ffffffffH
	DD	00H
	DD	040H
	DD	FLAT:??_R3?$CSingleton@VCPythonGuild@@@@8
rdata$r	ENDS
;	COMDAT ??_R1A@?0A@EA@CPythonGuild@@8
rdata$r	SEGMENT
??_R1A@?0A@EA@CPythonGuild@@8 DD FLAT:??_R0?AVCPythonGuild@@@8 ; CPythonGuild::`RTTI Base Class Descriptor at (0,-1,0,64)'
	DD	01H
	DD	00H
	DD	0ffffffffH
	DD	00H
	DD	040H
	DD	FLAT:??_R3CPythonGuild@@8
rdata$r	ENDS
;	COMDAT ??_R2?$CSingleton@VCPythonGuild@@@@8
rdata$r	SEGMENT
??_R2?$CSingleton@VCPythonGuild@@@@8 DD FLAT:??_R1A@?0A@EA@?$CSingleton@VCPythonGuild@@@@8 ; CSingleton<CPythonGuild>::`RTTI Base Class Array'
rdata$r	ENDS
;	COMDAT ??_R2CPythonGuild@@8
rdata$r	SEGMENT
??_R2CPythonGuild@@8 DD FLAT:??_R1A@?0A@EA@CPythonGuild@@8 ; CPythonGuild::`RTTI Base Class Array'
	DD	FLAT:??_R1A@?0A@EA@?$CSingleton@VCPythonGuild@@@@8
rdata$r	ENDS
;	COMDAT ??_C@_0BL@EBPMCBIK@ENEMY_GUILD_SLOT_MAX_COUNT@
CONST	SEGMENT
??_C@_0BL@EBPMCBIK@ENEMY_GUILD_SLOT_MAX_COUNT@ DB 'ENEMY_GUILD_SLOT_MAX_C'
	DB	'OUNT', 00H					; `string'
CONST	ENDS
;	COMDAT ??_C@_09GGIKIBFL@AUTH_BANK@
CONST	SEGMENT
??_C@_09GGIKIBFL@AUTH_BANK@ DB 'AUTH_BANK', 00H		; `string'
CONST	ENDS
;	COMDAT ??_C@_08OMAEPDDC@AUTH_WAR@
CONST	SEGMENT
??_C@_08OMAEPDDC@AUTH_WAR@ DB 'AUTH_WAR', 00H		; `string'
CONST	ENDS
;	COMDAT ??_C@_0L@LKLBOFFH@AUTH_SKILL@
CONST	SEGMENT
??_C@_0L@LKLBOFFH@AUTH_SKILL@ DB 'AUTH_SKILL', 00H	; `string'
CONST	ENDS
;	COMDAT ??_C@_0M@EBNBJFNG@AUTH_NOTICE@
CONST	SEGMENT
??_C@_0M@EBNBJFNG@AUTH_NOTICE@ DB 'AUTH_NOTICE', 00H	; `string'
CONST	ENDS
;	COMDAT ??_C@_0BD@EFPDFGGE@AUTH_REMOVE_MEMBER@
CONST	SEGMENT
??_C@_0BD@EFPDFGGE@AUTH_REMOVE_MEMBER@ DB 'AUTH_REMOVE_MEMBER', 00H ; `string'
CONST	ENDS
;	COMDAT ??_C@_0BA@CDIOGLAE@AUTH_ADD_MEMBER@
CONST	SEGMENT
??_C@_0BA@CDIOGLAE@AUTH_ADD_MEMBER@ DB 'AUTH_ADD_MEMBER', 00H ; `string'
CONST	ENDS
;	COMDAT ??_C@_05GMIMCKGP@guild@
CONST	SEGMENT
??_C@_05GMIMCKGP@guild@ DB 'guild', 00H			; `string'
CONST	ENDS
;	COMDAT ??_C@_0BA@FAMLLBDB@GetbuildingInfo@
CONST	SEGMENT
??_C@_0BA@FAMLLBDB@GetbuildingInfo@ DB 'GetbuildingInfo', 00H ; `string'
CONST	ENDS
;	COMDAT ??_C@_0M@FHEJNNHO@GetBaseInfo@
CONST	SEGMENT
??_C@_0M@FHEJNNHO@GetBaseInfo@ DB 'GetBaseInfo', 00H	; `string'
CONST	ENDS
;	COMDAT ??_C@_0BE@ENPPBFDG@GetBaseInfoBankGold@
CONST	SEGMENT
??_C@_0BE@ENPPBFDG@GetBaseInfoBankGold@ DB 'GetBaseInfoBankGold', 00H ; `string'
CONST	ENDS
;	COMDAT ??_C@_0BG@KLFMPINH@GetGuildLadderRanking@
CONST	SEGMENT
??_C@_0BG@KLFMPINH@GetGuildLadderRanking@ DB 'GetGuildLadderRanking', 00H ; `string'
CONST	ENDS
;	COMDAT ??_C@_0N@DGCKPKHN@GetWarRecode@
CONST	SEGMENT
??_C@_0N@DGCKPKHN@GetWarRecode@ DB 'GetWarRecode', 00H	; `string'
CONST	ENDS
;	COMDAT ??_C@_0BH@HJLEBIMC@MainPlayerHasAuthority@
CONST	SEGMENT
??_C@_0BH@HJLEBIMC@MainPlayerHasAuthority@ DB 'MainPlayerHasAuthority', 00H ; `string'
CONST	ENDS
;	COMDAT ??_C@_0P@DNENDIKL@IsMemberByName@
CONST	SEGMENT
??_C@_0P@DNENDIKL@IsMemberByName@ DB 'IsMemberByName', 00H ; `string'
CONST	ENDS
;	COMDAT ??_C@_08JHGFNMOF@IsMember@
CONST	SEGMENT
??_C@_08JHGFNMOF@IsMember@ DB 'IsMember', 00H		; `string'
CONST	ENDS
;	COMDAT ??_C@_0BB@LKNIPIHL@MemberIndexToPID@
CONST	SEGMENT
??_C@_0BB@LKNIPIHL@MemberIndexToPID@ DB 'MemberIndexToPID', 00H ; `string'
CONST	ENDS
;	COMDAT ??_C@_0O@LFMDGJCL@GetMemberData@
CONST	SEGMENT
??_C@_0O@LFMDGJCL@GetMemberData@ DB 'GetMemberData', 00H ; `string'
CONST	ENDS
;	COMDAT ??_C@_0P@PGIPCIFK@GetMemberCount@
CONST	SEGMENT
??_C@_0P@PGIPCIFK@GetMemberCount@ DB 'GetMemberCount', 00H ; `string'
CONST	ENDS
;	COMDAT ??_C@_0N@GLBBAEII@GetGradeName@
CONST	SEGMENT
??_C@_0N@GLBBAEII@GetGradeName@ DB 'GetGradeName', 00H	; `string'
CONST	ENDS
;	COMDAT ??_C@_0N@FGDKEBNC@GetGradeData@
CONST	SEGMENT
??_C@_0N@FGDKEBNC@GetGradeData@ DB 'GetGradeData', 00H	; `string'
CONST	ENDS
;	COMDAT ??_C@_0O@NOICOABO@GetSkillIndex@
CONST	SEGMENT
??_C@_0O@NOICOABO@GetSkillIndex@ DB 'GetSkillIndex', 00H ; `string'
CONST	ENDS
;	COMDAT ??_C@_0O@KBJMFDGJ@SetSkillIndex@
CONST	SEGMENT
??_C@_0O@KBJMFDGJ@SetSkillIndex@ DB 'SetSkillIndex', 00H ; `string'
CONST	ENDS
;	COMDAT ??_C@_0BE@GLCFFECD@GetSkillMaxLevelNew@
CONST	SEGMENT
??_C@_0BE@GLCFFECD@GetSkillMaxLevelNew@ DB 'GetSkillMaxLevelNew', 00H ; `string'
CONST	ENDS
;	COMDAT ??_C@_0O@CNCBAIPN@GetSkillLevel@
CONST	SEGMENT
??_C@_0O@CNCBAIPN@GetSkillLevel@ DB 'GetSkillLevel', 00H ; `string'
CONST	ENDS
;	COMDAT ??_C@_0BD@FOAHDPNJ@GetGuildSkillLevel@
CONST	SEGMENT
??_C@_0BD@FOAHDPNJ@GetGuildSkillLevel@ DB 'GetGuildSkillLevel', 00H ; `string'
CONST	ENDS
;	COMDAT ??_C@_0BE@EIFJKAMD@GetDragonPowerPoint@
CONST	SEGMENT
??_C@_0BE@EIFJKAMD@GetDragonPowerPoint@ DB 'GetDragonPowerPoint', 00H ; `string'
CONST	ENDS
;	COMDAT ??_C@_0BD@OGJHNFOJ@GetGuildSkillPoint@
CONST	SEGMENT
??_C@_0BD@OGJHNFOJ@GetGuildSkillPoint@ DB 'GetGuildSkillPoint', 00H ; `string'
CONST	ENDS
;	COMDAT ??_C@_0BK@FHGMGKIK@GetGuildExperienceSummary@
CONST	SEGMENT
??_C@_0BK@FHGMGKIK@GetGuildExperienceSummary@ DB 'GetGuildExperienceSumma'
	DB	'ry', 00H					; `string'
CONST	ENDS
;	COMDAT ??_C@_0BL@FPOPEMBA@GetGuildMemberLevelAverage@
CONST	SEGMENT
??_C@_0BL@FPOPEMBA@GetGuildMemberLevelAverage@ DB 'GetGuildMemberLevelAve'
	DB	'rage', 00H					; `string'
CONST	ENDS
;	COMDAT ??_C@_0BL@KCOANOCD@GetGuildMemberLevelSummary@
CONST	SEGMENT
??_C@_0BL@KCOANOCD@GetGuildMemberLevelSummary@ DB 'GetGuildMemberLevelSum'
	DB	'mary', 00H					; `string'
CONST	ENDS
;	COMDAT ??_C@_0BE@MKPPOKLM@GetGuildMemberCount@
CONST	SEGMENT
??_C@_0BE@MKPPOKLM@GetGuildMemberCount@ DB 'GetGuildMemberCount', 00H ; `string'
CONST	ENDS
;	COMDAT ??_C@_0BD@OLJDCPCG@GetGuildExperience@
CONST	SEGMENT
??_C@_0BD@OLJDCPCG@GetGuildExperience@ DB 'GetGuildExperience', 00H ; `string'
CONST	ENDS
;	COMDAT ??_C@_0O@DJIGEAII@GetGuildLevel@
CONST	SEGMENT
??_C@_0O@DJIGEAII@GetGuildLevel@ DB 'GetGuildLevel', 00H ; `string'
CONST	ENDS
;	COMDAT ??_C@_0BJ@DAPPLJDP@GetGuildBoardCommentData@
CONST	SEGMENT
??_C@_0BJ@DAPPLJDP@GetGuildBoardCommentData@ DB 'GetGuildBoardCommentData'
	DB	00H						; `string'
CONST	ENDS
;	COMDAT ??_C@_0BK@OMNAMAPH@GetGuildBoardCommentCount@
CONST	SEGMENT
??_C@_0BK@OMNAMAPH@GetGuildBoardCommentCount@ DB 'GetGuildBoardCommentCou'
	DB	'nt', 00H					; `string'
CONST	ENDS
;	COMDAT ??_C@_0O@BKHCBCOI@GetGuildMoney@
CONST	SEGMENT
??_C@_0O@BKHCBCOI@GetGuildMoney@ DB 'GetGuildMoney', 00H ; `string'
CONST	ENDS
;	COMDAT ??_C@_0BC@DLHGICPJ@GetEnemyGuildName@
CONST	SEGMENT
??_C@_0BC@DLHGICPJ@GetEnemyGuildName@ DB 'GetEnemyGuildName', 00H ; `string'
CONST	ENDS
;	COMDAT ??_C@_0BD@CMPDBKGA@GetGuildMasterName@
CONST	SEGMENT
??_C@_0BD@CMPDBKGA@GetGuildMasterName@ DB 'GetGuildMasterName', 00H ; `string'
CONST	ENDS
;	COMDAT ??_C@_0N@CECGOPDG@GetGuildName@
CONST	SEGMENT
??_C@_0N@CECGOPDG@GetGuildName@ DB 'GetGuildName', 00H	; `string'
CONST	ENDS
;	COMDAT ??_C@_0N@EIPGMIIH@HasGuildLand@
CONST	SEGMENT
??_C@_0N@EIPGMIIH@HasGuildLand@ DB 'HasGuildLand', 00H	; `string'
CONST	ENDS
;	COMDAT ??_C@_0BF@BKGLMLAL@GetMarkIndexByMarkID@
CONST	SEGMENT
??_C@_0BF@BKGLMLAL@GetMarkIndexByMarkID@ DB 'GetMarkIndexByMarkID', 00H ; `string'
CONST	ENDS
;	COMDAT ??_C@_0BN@OMLCOGDL@GetMarkImageFilenameByMarkID@
CONST	SEGMENT
??_C@_0BN@OMLCOGDL@GetMarkImageFilenameByMarkID@ DB 'GetMarkImageFilename'
	DB	'ByMarkID', 00H				; `string'
CONST	ENDS
;	COMDAT ??_C@_0BA@BGLAIPMB@GuildIDToMarkID@
CONST	SEGMENT
??_C@_0BA@BGLAIPMB@GuildIDToMarkID@ DB 'GuildIDToMarkID', 00H ; `string'
CONST	ENDS
;	COMDAT ??_C@_0O@IGOIDFGB@IsGuildEnable@
CONST	SEGMENT
??_C@_0O@IGOIDFGB@IsGuildEnable@ DB 'IsGuildEnable', 00H ; `string'
CONST	ENDS
;	COMDAT ??_C@_07IGDHICNG@isiiiii@
CONST	SEGMENT
??_C@_07IGDHICNG@isiiiii@ DB 'isiiiii', 00H		; `string'
CONST	ENDS
;	COMDAT ??_C@_01OGPIMHDM@?$DP@
CONST	SEGMENT
??_C@_01OGPIMHDM@?$DP@ DB '?', 00H			; `string'
CONST	ENDS
;	COMDAT ??_C@_1GC@LHCMPPAI@?$AAd?$AAw?$AAS?$AAk?$AAi?$AAl?$AAl?$AAI?$AAn?$AAd?$AAe?$AAx?$AA?5?$AA?$DM?$AA?5@
CONST	SEGMENT
??_C@_1GC@LHCMPPAI@?$AAd?$AAw?$AAS?$AAk?$AAi?$AAl?$AAl?$AAI?$AAn?$AAd?$AAe?$AAx?$AA?5?$AA?$DM?$AA?5@ DB 'd'
	DB	00H, 'w', 00H, 'S', 00H, 'k', 00H, 'i', 00H, 'l', 00H, 'l', 00H
	DB	'I', 00H, 'n', 00H, 'd', 00H, 'e', 00H, 'x', 00H, ' ', 00H, '<'
	DB	00H, ' ', 00H, 'C', 00H, 'P', 00H, 'y', 00H, 't', 00H, 'h', 00H
	DB	'o', 00H, 'n', 00H, 'G', 00H, 'u', 00H, 'i', 00H, 'l', 00H, 'd'
	DB	00H, ':', 00H, ':', 00H, 'G', 00H, 'U', 00H, 'I', 00H, 'L', 00H
	DB	'D', 00H, '_', 00H, 'S', 00H, 'K', 00H, 'I', 00H, 'L', 00H, 'L'
	DB	00H, '_', 00H, 'M', 00H, 'A', 00H, 'X', 00H, '_', 00H, 'N', 00H
	DB	'U', 00H, 'M', 00H, 00H, 00H			; `string'
CONST	ENDS
;	COMDAT ??_C@_1IA@IGEOGJEH@?$AAF?$AAA?$AAL?$AAS?$AAE?$AA?5?$AA?$CG?$AA?$CG?$AA?5?$AA?$CB?$AA?$CC?$AAg?$AAu?$AAi?$AAl@
CONST	SEGMENT
??_C@_1IA@IGEOGJEH@?$AAF?$AAA?$AAL?$AAS?$AAE?$AA?5?$AA?$CG?$AA?$CG?$AA?5?$AA?$CB?$AA?$CC?$AAg?$AAu?$AAi?$AAl@ DB 'F'
	DB	00H, 'A', 00H, 'L', 00H, 'S', 00H, 'E', 00H, ' ', 00H, '&', 00H
	DB	'&', 00H, ' ', 00H, '!', 00H, '"', 00H, 'g', 00H, 'u', 00H, 'i'
	DB	00H, 'l', 00H, 'd', 00H, 'G', 00H, 'e', 00H, 't', 00H, 'G', 00H
	DB	'u', 00H, 'i', 00H, 'l', 00H, 'd', 00H, 'S', 00H, 'k', 00H, 'i'
	DB	00H, 'l', 00H, 'l', 00H, 'L', 00H, 'e', 00H, 'v', 00H, 'e', 00H
	DB	'l', 00H, ' ', 00H, '-', 00H, ' ', 00H, 0bbH, 00H, 0e7H, 00H, 0bfH
	DB	00H, 0ebH, 00H, 0c7H, 00H, 0cfH, 00H, 0c1H, 00H, 0f6H, 00H, ' '
	DB	00H, 0beH, 00H, 0caH, 00H, 0b4H, 00H, 0c2H, 00H, ' ', 00H, 0c7H
	DB	00H, 0d4H, 00H, 0bcH, 00H, 0f6H, 00H, 0c0H, 00H, 0d4H, 00H, 0b4H
	DB	00H, 0cfH, 00H, 0b4H, 00H, 0d9H, 00H, '.', 00H, '"', 00H, 00H, 00H ; `string'
CONST	ENDS
;	COMDAT ??_C@_03MKDAGEFG@iss@
CONST	SEGMENT
??_C@_03MKDAGEFG@iss@ DB 'iss', 00H			; `string'
CONST	ENDS
;	COMDAT ??_C@_06HCBIANPB@Noname@
CONST	SEGMENT
??_C@_06HCBIANPB@Noname@ DB 'Noname', 00H		; `string'
CONST	ENDS
;	COMDAT ??_C@_1EC@MMBPHIBC@?$AA?$CB?$AAm?$AA_?$AAG?$AAu?$AAi?$AAl?$AAd?$AAM?$AAe?$AAm?$AAb?$AAe?$AAr?$AAD@
CONST	SEGMENT
??_C@_1EC@MMBPHIBC@?$AA?$CB?$AAm?$AA_?$AAG?$AAu?$AAi?$AAl?$AAd?$AAM?$AAe?$AAm?$AAb?$AAe?$AAr?$AAD@ DB '!'
	DB	00H, 'm', 00H, '_', 00H, 'G', 00H, 'u', 00H, 'i', 00H, 'l', 00H
	DB	'd', 00H, 'M', 00H, 'e', 00H, 'm', 00H, 'b', 00H, 'e', 00H, 'r'
	DB	00H, 'D', 00H, 'a', 00H, 't', 00H, 'a', 00H, 'V', 00H, 'e', 00H
	DB	'c', 00H, 't', 00H, 'o', 00H, 'r', 00H, '.', 00H, 'e', 00H, 'm'
	DB	00H, 'p', 00H, 't', 00H, 'y', 00H, '(', 00H, ')', 00H, 00H, 00H ; `string'
CONST	ENDS
;	COMDAT ??_C@_1KA@KBJAMBFD@?$AAC?$AA?3?$AA?2?$AAA?$AAn?$AAk?$AAa?$AA2?$AAP?$AAr?$AAo?$AAj?$AAe?$AAc?$AAt@
CONST	SEGMENT
??_C@_1KA@KBJAMBFD@?$AAC?$AA?3?$AA?2?$AAA?$AAn?$AAk?$AAa?$AA2?$AAP?$AAr?$AAo?$AAj?$AAe?$AAc?$AAt@ DB 'C'
	DB	00H, ':', 00H, '\', 00H, 'A', 00H, 'n', 00H, 'k', 00H, 'a', 00H
	DB	'2', 00H, 'P', 00H, 'r', 00H, 'o', 00H, 'j', 00H, 'e', 00H, 'c'
	DB	00H, 't', 00H, '\', 00H, 'A', 00H, 'n', 00H, 'k', 00H, 'a', 00H
	DB	'2', 00H, 'P', 00H, 'r', 00H, 'o', 00H, 'j', 00H, 'e', 00H, 'c'
	DB	00H, 't', 00H, '\', 00H, 'S', 00H, 'o', 00H, 'u', 00H, 'r', 00H
	DB	'c', 00H, 'e', 00H, '\', 00H, 'B', 00H, 'i', 00H, 'n', 00H, 'a'
	DB	00H, 'r', 00H, 'y', 00H, '\', 00H, 's', 00H, 'o', 00H, 'u', 00H
	DB	'r', 00H, 'c', 00H, 'e', 00H, '\', 00H, 'U', 00H, 's', 00H, 'e'
	DB	00H, 'r', 00H, 'I', 00H, 'n', 00H, 't', 00H, 'e', 00H, 'r', 00H
	DB	'f', 00H, 'a', 00H, 'c', 00H, 'e', 00H, '\', 00H, 'P', 00H, 'y'
	DB	00H, 't', 00H, 'h', 00H, 'o', 00H, 'n', 00H, 'G', 00H, 'u', 00H
	DB	'i', 00H, 'l', 00H, 'd', 00H, '.', 00H, 'c', 00H, 'p', 00H, 'p'
	DB	00H, 00H, 00H				; `string'
PUBLIC	??$move@AAV?$tuple@ABE@std@@@std@@YA$$QAV?$tuple@ABE@0@AAV10@@Z ; std::move<std::tuple<unsigned char const &> &>
PUBLIC	??0SGuildBoardCommentData@CPythonGuild@@QAE@$$QAU01@@Z ; CPythonGuild::SGuildBoardCommentData::SGuildBoardCommentData
PUBLIC	??$construct_at@USGuildMemberData@CPythonGuild@@U12@@std@@YAPAUSGuildMemberData@CPythonGuild@@QAU12@$$QAU12@@Z ; std::construct_at<CPythonGuild::SGuildMemberData,CPythonGuild::SGuildMemberData>
PUBLIC	??$construct_at@USGuildBoardCommentData@CPythonGuild@@U12@@std@@YAPAUSGuildBoardCommentData@CPythonGuild@@QAU12@$$QAU12@@Z ; std::construct_at<CPythonGuild::SGuildBoardCommentData,CPythonGuild::SGuildBoardCommentData>
PUBLIC	??$?0V?$tuple@ABK@std@@V?$tuple@$$V@1@$0A@$$Z$S@?$pair@$$CBKV?$basic_string@DU?$char_traits@D@std@@V?$allocator@D@2@@std@@@std@@AAE@AAV?$tuple@ABK@1@AAV?$tuple@$$V@1@U?$integer_sequence@I$0A@@1@U?$integer_sequence@I$S@1@@Z ; std::pair<unsigned long const ,std::basic_string<char,std::char_traits<char>,std::allocator<char> > >::pair<unsigned long const ,std::basic_string<char,std::char_traits<char>,std::allocator<char> > ><std::tuple<unsigned long const &>,std::tuple<>,0>
PUBLIC	??$_Tuple_get@$0A@ABE@std@@YA$$QA_P$$QAV?$tuple@ABE@0@@Z ; std::_Tuple_get<0,unsigned char const &>
PUBLIC	??$?0V?$tuple@ABE@std@@V?$tuple@$$V@1@$0A@$$Z$S@?$pair@$$CBEUSGuildGradeData@CPythonGuild@@@std@@AAE@AAV?$tuple@ABE@1@AAV?$tuple@$$V@1@U?$integer_sequence@I$0A@@1@U?$integer_sequence@I$S@1@@Z ; std::pair<unsigned char const ,CPythonGuild::SGuildGradeData>::pair<unsigned char const ,CPythonGuild::SGuildGradeData><std::tuple<unsigned char const &>,std::tuple<>,0>
PUBLIC	??$?0HH$0A@@?$pair@$$CBKK@std@@QAE@$$QAU?$pair@HH@1@@Z ; std::pair<unsigned long const ,unsigned long>::pair<unsigned long const ,unsigned long><int,int,0>
PUBLIC	??$?0KV?$basic_string@DU?$char_traits@D@std@@V?$allocator@D@2@@std@@$0A@@?$pair@$$CBKV?$basic_string@DU?$char_traits@D@std@@V?$allocator@D@2@@std@@@std@@QAE@$$QAU?$pair@KV?$basic_string@DU?$char_traits@D@std@@V?$allocator@D@2@@std@@@1@@Z ; std::pair<unsigned long const ,std::basic_string<char,std::char_traits<char>,std::allocator<char> > >::pair<unsigned long const ,std::basic_string<char,std::char_traits<char>,std::allocator<char> > ><unsigned long,std::basic_string<char,std::char_traits<char>,std::allocator<char> >,0>
PUBLIC	?_Get_first@?$_Compressed_pair@V?$allocator@U?$_Tree_node@U?$pair@$$CBKV?$basic_string@DU?$char_traits@D@std@@V?$allocator@D@2@@std@@@std@@PAX@std@@@std@@V?$_Tree_val@U?$_Tree_simple_types@U?$pair@$$CBKV?$basic_string@DU?$char_traits@D@std@@V?$allocator@D@2@@std@@@std@@@std@@@2@$00@std@@QBEABV?$allocator@U?$_Tree_node@U?$pair@$$CBKV?$basic_string@DU?$char_traits@D@std@@V?$allocator@D@2@@std@@@std@@PAX@std@@@2@XZ ; std::_Compressed_pair<std::allocator<std::_Tree_node<std::pair<unsigned long const ,std::basic_string<char,std::char_traits<char>,std::allocator<char> > >,void *> >,std::_Tree_val<std::_Tree_simple_types<std::pair<unsigned long const ,std::basic_string<char,std::char_traits<char>,std::allocator<char> > > > >,1>::_Get_first
PUBLIC	?_Get_first@?$_Compressed_pair@V?$allocator@U?$_Tree_node@U?$pair@$$CBEUSGuildGradeData@CPythonGuild@@@std@@PAX@std@@@std@@V?$_Tree_val@U?$_Tree_simple_types@U?$pair@$$CBEUSGuildGradeData@CPythonGuild@@@std@@@std@@@2@$00@std@@QBEABV?$allocator@U?$_Tree_node@U?$pair@$$CBEUSGuildGradeData@CPythonGuild@@@std@@PAX@std@@@2@XZ ; std::_Compressed_pair<std::allocator<std::_Tree_node<std::pair<unsigned char const ,CPythonGuild::SGuildGradeData>,void *> >,std::_Tree_val<std::_Tree_simple_types<std::pair<unsigned char const ,CPythonGuild::SGuildGradeData> > >,1>::_Get_first
PUBLIC	?_Get_first@?$_Compressed_pair@V?$allocator@USGuildMemberData@CPythonGuild@@@std@@V?$_Vector_val@U?$_Simple_types@USGuildMemberData@CPythonGuild@@@std@@@2@$00@std@@QBEABV?$allocator@USGuildMemberData@CPythonGuild@@@2@XZ ; std::_Compressed_pair<std::allocator<CPythonGuild::SGuildMemberData>,std::_Vector_val<std::_Simple_types<CPythonGuild::SGuildMemberData> >,1>::_Get_first
PUBLIC	?_Get_first@?$_Compressed_pair@V?$allocator@USGuildBoardCommentData@CPythonGuild@@@std@@V?$_Vector_val@U?$_Simple_types@USGuildBoardCommentData@CPythonGuild@@@std@@@2@$00@std@@QBEABV?$allocator@USGuildBoardCommentData@CPythonGuild@@@2@XZ ; std::_Compressed_pair<std::allocator<CPythonGuild::SGuildBoardCommentData>,std::_Vector_val<std::_Simple_types<CPythonGuild::SGuildBoardCommentData> >,1>::_Get_first
PUBLIC	??$_Get_size_of_n@$0DA@@std@@YAII@Z		; std::_Get_size_of_n<48>
PUBLIC	??$construct_at@PAU?$_Tree_node@U?$pair@$$CBKV?$basic_string@DU?$char_traits@D@std@@V?$allocator@D@2@@std@@@std@@PAX@std@@ABQAU12@@std@@YAPAPAU?$_Tree_node@U?$pair@$$CBKV?$basic_string@DU?$char_traits@D@std@@V?$allocator@D@2@@std@@@std@@PAX@0@QAPAU10@ABQAU10@@Z ; std::construct_at<std::_Tree_node<std::pair<unsigned long const ,std::basic_string<char,std::char_traits<char>,std::allocator<char> > >,void *> *,std::_Tree_node<std::pair<unsigned long const ,std::basic_string<char,std::char_traits<char>,std::allocator<char> > >,void *> * const &>
PUBLIC	??$construct_at@PAU?$_Tree_node@U?$pair@$$CBEUSGuildGradeData@CPythonGuild@@@std@@PAX@std@@ABQAU12@@std@@YAPAPAU?$_Tree_node@U?$pair@$$CBEUSGuildGradeData@CPythonGuild@@@std@@PAX@0@QAPAU10@ABQAU10@@Z ; std::construct_at<std::_Tree_node<std::pair<unsigned char const ,CPythonGuild::SGuildGradeData>,void *> *,std::_Tree_node<std::pair<unsigned char const ,CPythonGuild::SGuildGradeData>,void *> * const &>
PUBLIC	??$?0ABE@?$_Tuple_val@ABE@std@@QAE@ABE@Z	; std::_Tuple_val<unsigned char const &>::_Tuple_val<unsigned char const &><unsigned char const &>
PUBLIC	??$construct@USGuildMemberData@CPythonGuild@@U12@@?$_Default_allocator_traits@V?$allocator@USGuildMemberData@CPythonGuild@@@std@@@std@@SAXAAV?$allocator@USGuildMemberData@CPythonGuild@@@1@QAUSGuildMemberData@CPythonGuild@@$$QAU34@@Z ; std::_Default_allocator_traits<std::allocator<CPythonGuild::SGuildMemberData> >::construct<CPythonGuild::SGuildMemberData,CPythonGuild::SGuildMemberData>
PUBLIC	??$construct@USGuildBoardCommentData@CPythonGuild@@U12@@?$_Default_allocator_traits@V?$allocator@USGuildBoardCommentData@CPythonGuild@@@std@@@std@@SAXAAV?$allocator@USGuildBoardCommentData@CPythonGuild@@@1@QAUSGuildBoardCommentData@CPythonGuild@@$$QAU34@@Z ; std::_Default_allocator_traits<std::allocator<CPythonGuild::SGuildBoardCommentData> >::construct<CPythonGuild::SGuildBoardCommentData,CPythonGuild::SGuildBoardCommentData>
PUBLIC	??$forward@USGuildBoardCommentData@CPythonGuild@@@std@@YA$$QAUSGuildBoardCommentData@CPythonGuild@@AAU12@@Z ; std::forward<CPythonGuild::SGuildBoardCommentData>
PUBLIC	??$construct_at@U?$pair@$$CBKK@std@@U?$pair@HH@2@@std@@YAPAU?$pair@$$CBKK@0@QAU10@$$QAU?$pair@HH@0@@Z ; std::construct_at<std::pair<unsigned long const ,unsigned long>,std::pair<int,int> >
PUBLIC	??$construct_at@U?$pair@$$CBKV?$basic_string@DU?$char_traits@D@std@@V?$allocator@D@2@@std@@@std@@U?$pair@KV?$basic_string@DU?$char_traits@D@std@@V?$allocator@D@2@@std@@@2@@std@@YAPAU?$pair@$$CBKV?$basic_string@DU?$char_traits@D@std@@V?$allocator@D@2@@std@@@0@QAU10@$$QAU?$pair@KV?$basic_string@DU?$char_traits@D@std@@V?$allocator@D@2@@std@@@0@@Z ; std::construct_at<std::pair<unsigned long const ,std::basic_string<char,std::char_traits<char>,std::allocator<char> > >,std::pair<unsigned long,std::basic_string<char,std::char_traits<char>,std::allocator<char> > > >
PUBLIC	??$?0ABK$$Z$$V@?$pair@$$CBKV?$basic_string@DU?$char_traits@D@std@@V?$allocator@D@2@@std@@@std@@QAE@Upiecewise_construct_t@1@V?$tuple@ABK@1@V?$tuple@$$V@1@@Z ; std::pair<unsigned long const ,std::basic_string<char,std::char_traits<char>,std::allocator<char> > >::pair<unsigned long const ,std::basic_string<char,std::char_traits<char>,std::allocator<char> > ><unsigned long const &>
PUBLIC	??$?0ABE$$Z$$V@?$pair@$$CBEUSGuildGradeData@CPythonGuild@@@std@@QAE@Upiecewise_construct_t@1@V?$tuple@ABE@1@V?$tuple@$$V@1@@Z ; std::pair<unsigned char const ,CPythonGuild::SGuildGradeData>::pair<unsigned char const ,CPythonGuild::SGuildGradeData><unsigned char const &>
PUBLIC	??_G?$pair@$$CBKV?$basic_string@DU?$char_traits@D@std@@V?$allocator@D@2@@std@@@std@@QAEPAXI@Z ; std::pair<unsigned long const ,std::basic_string<char,std::char_traits<char>,std::allocator<char> > >::`scalar deleting destructor'
PUBLIC	??0?$tuple@ABE@std@@QAE@$$QAV01@@Z		; std::tuple<unsigned char const &>::tuple<unsigned char const &>
PUBLIC	??0SGuildMemberData@CPythonGuild@@QAE@ABU01@@Z	; CPythonGuild::SGuildMemberData::SGuildMemberData
PUBLIC	??0SGuildBoardCommentData@CPythonGuild@@QAE@ABU01@@Z ; CPythonGuild::SGuildBoardCommentData::SGuildBoardCommentData
PUBLIC	??_G?$pair@$$CBEUSGuildGradeData@CPythonGuild@@@std@@QAEPAXI@Z ; std::pair<unsigned char const ,CPythonGuild::SGuildGradeData>::`scalar deleting destructor'
PUBLIC	?_Getal@?$_Tree@V?$_Tmap_traits@KV?$basic_string@DU?$char_traits@D@std@@V?$allocator@D@2@@std@@U?$less@K@2@V?$allocator@U?$pair@$$CBKV?$basic_string@DU?$char_traits@D@std@@V?$allocator@D@2@@std@@@std@@@2@$0A@@std@@@std@@IBEABV?$allocator@U?$_Tree_node@U?$pair@$$CBKV?$basic_string@DU?$char_traits@D@std@@V?$allocator@D@2@@std@@@std@@PAX@std@@@2@XZ ; std::_Tree<std::_Tmap_traits<unsigned long,std::basic_string<char,std::char_traits<char>,std::allocator<char> >,std::less<unsigned long>,std::allocator<std::pair<unsigned long const ,std::basic_string<char,std::char_traits<char>,std::allocator<char> > > >,0> >::_Getal
PUBLIC	??0?$allocator@U?$_Tree_node@U?$pair@$$CBKV?$basic_string@DU?$char_traits@D@std@@V?$allocator@D@2@@std@@@std@@PAX@std@@@std@@QAE@XZ ; std::allocator<std::_Tree_node<std::pair<unsigned long const ,std::basic_string<char,std::char_traits<char>,std::allocator<char> > >,void *> >::allocator<std::_Tree_node<std::pair<unsigned long const ,std::basic_string<char,std::char_traits<char>,std::allocator<char> > >,void *> >
PUBLIC	?deallocate@?$allocator@U?$_Tree_node@U?$pair@$$CBKV?$basic_string@DU?$char_traits@D@std@@V?$allocator@D@2@@std@@@std@@PAX@std@@@std@@QAEXQAU?$_Tree_node@U?$pair@$$CBKV?$basic_string@DU?$char_traits@D@std@@V?$allocator@D@2@@std@@@std@@PAX@2@I@Z ; std::allocator<std::_Tree_node<std::pair<unsigned long const ,std::basic_string<char,std::char_traits<char>,std::allocator<char> > >,void *> >::deallocate
PUBLIC	?allocate@?$allocator@U?$_Tree_node@U?$pair@$$CBKV?$basic_string@DU?$char_traits@D@std@@V?$allocator@D@2@@std@@@std@@PAX@std@@@std@@QAEPAU?$_Tree_node@U?$pair@$$CBKV?$basic_string@DU?$char_traits@D@std@@V?$allocator@D@2@@std@@@std@@PAX@2@I@Z ; std::allocator<std::_Tree_node<std::pair<unsigned long const ,std::basic_string<char,std::char_traits<char>,std::allocator<char> > >,void *> >::allocate
PUBLIC	?max_size@?$_Default_allocator_traits@V?$allocator@U?$_Tree_node@U?$pair@$$CBKV?$basic_string@DU?$char_traits@D@std@@V?$allocator@D@2@@std@@@std@@PAX@std@@@std@@@std@@SAIABV?$allocator@U?$_Tree_node@U?$pair@$$CBKV?$basic_string@DU?$char_traits@D@std@@V?$allocator@D@2@@std@@@std@@PAX@std@@@2@@Z ; std::_Default_allocator_traits<std::allocator<std::_Tree_node<std::pair<unsigned long const ,std::basic_string<char,std::char_traits<char>,std::allocator<char> > >,void *> > >::max_size
PUBLIC	??0?$_Tree_val@U?$_Tree_simple_types@U?$pair@$$CBKV?$basic_string@DU?$char_traits@D@std@@V?$allocator@D@2@@std@@@std@@@std@@@std@@QAE@XZ ; std::_Tree_val<std::_Tree_simple_types<std::pair<unsigned long const ,std::basic_string<char,std::char_traits<char>,std::allocator<char> > > > >::_Tree_val<std::_Tree_simple_types<std::pair<unsigned long const ,std::basic_string<char,std::char_traits<char>,std::allocator<char> > > > >
PUBLIC	?_Get_first@?$_Compressed_pair@U?$less@K@std@@V?$_Compressed_pair@V?$allocator@U?$_Tree_node@U?$pair@$$CBKV?$basic_string@DU?$char_traits@D@std@@V?$allocator@D@2@@std@@@std@@PAX@std@@@std@@V?$_Tree_val@U?$_Tree_simple_types@U?$pair@$$CBKV?$basic_string@DU?$char_traits@D@std@@V?$allocator@D@2@@std@@@std@@@std@@@2@$00@2@$00@std@@QBEABU?$less@K@2@XZ ; std::_Compressed_pair<std::less<unsigned long>,std::_Compressed_pair<std::allocator<std::_Tree_node<std::pair<unsigned long const ,std::basic_string<char,std::char_traits<char>,std::allocator<char> > >,void *> >,std::_Tree_val<std::_Tree_simple_types<std::pair<unsigned long const ,std::basic_string<char,std::char_traits<char>,std::allocator<char> > > > >,1>,1>::_Get_first
PUBLIC	?allocate@?$allocator@USGuildMemberData@CPythonGuild@@@std@@QAEPAUSGuildMemberData@CPythonGuild@@I@Z ; std::allocator<CPythonGuild::SGuildMemberData>::allocate
PUBLIC	?capacity@?$vector@USGuildMemberData@CPythonGuild@@V?$allocator@USGuildMemberData@CPythonGuild@@@std@@@std@@QBEIXZ ; std::vector<CPythonGuild::SGuildMemberData,std::allocator<CPythonGuild::SGuildMemberData> >::capacity
PUBLIC	?_Getal@?$vector@USGuildMemberData@CPythonGuild@@V?$allocator@USGuildMemberData@CPythonGuild@@@std@@@std@@ABEABV?$allocator@USGuildMemberData@CPythonGuild@@@2@XZ ; std::vector<CPythonGuild::SGuildMemberData,std::allocator<CPythonGuild::SGuildMemberData> >::_Getal
PUBLIC	?allocate@?$allocator@USGuildBoardCommentData@CPythonGuild@@@std@@QAEPAUSGuildBoardCommentData@CPythonGuild@@I@Z ; std::allocator<CPythonGuild::SGuildBoardCommentData>::allocate
PUBLIC	?capacity@?$vector@USGuildBoardCommentData@CPythonGuild@@V?$allocator@USGuildBoardCommentData@CPythonGuild@@@std@@@std@@QBEIXZ ; std::vector<CPythonGuild::SGuildBoardCommentData,std::allocator<CPythonGuild::SGuildBoardCommentData> >::capacity
PUBLIC	?_Getal@?$vector@USGuildBoardCommentData@CPythonGuild@@V?$allocator@USGuildBoardCommentData@CPythonGuild@@@std@@@std@@ABEABV?$allocator@USGuildBoardCommentData@CPythonGuild@@@2@XZ ; std::vector<CPythonGuild::SGuildBoardCommentData,std::allocator<CPythonGuild::SGuildBoardCommentData> >::_Getal
PUBLIC	?_Getal@?$_Tree@V?$_Tmap_traits@EUSGuildGradeData@CPythonGuild@@U?$less@E@std@@V?$allocator@U?$pair@$$CBEUSGuildGradeData@CPythonGuild@@@std@@@4@$0A@@std@@@std@@IBEABV?$allocator@U?$_Tree_node@U?$pair@$$CBEUSGuildGradeData@CPythonGuild@@@std@@PAX@std@@@2@XZ ; std::_Tree<std::_Tmap_traits<unsigned char,CPythonGuild::SGuildGradeData,std::less<unsigned char>,std::allocator<std::pair<unsigned char const ,CPythonGuild::SGuildGradeData> >,0> >::_Getal
PUBLIC	??0?$allocator@U?$_Tree_node@U?$pair@$$CBEUSGuildGradeData@CPythonGuild@@@std@@PAX@std@@@std@@QAE@XZ ; std::allocator<std::_Tree_node<std::pair<unsigned char const ,CPythonGuild::SGuildGradeData>,void *> >::allocator<std::_Tree_node<std::pair<unsigned char const ,CPythonGuild::SGuildGradeData>,void *> >
PUBLIC	?deallocate@?$allocator@U?$_Tree_node@U?$pair@$$CBEUSGuildGradeData@CPythonGuild@@@std@@PAX@std@@@std@@QAEXQAU?$_Tree_node@U?$pair@$$CBEUSGuildGradeData@CPythonGuild@@@std@@PAX@2@I@Z ; std::allocator<std::_Tree_node<std::pair<unsigned char const ,CPythonGuild::SGuildGradeData>,void *> >::deallocate
PUBLIC	?allocate@?$allocator@U?$_Tree_node@U?$pair@$$CBEUSGuildGradeData@CPythonGuild@@@std@@PAX@std@@@std@@QAEPAU?$_Tree_node@U?$pair@$$CBEUSGuildGradeData@CPythonGuild@@@std@@PAX@2@I@Z ; std::allocator<std::_Tree_node<std::pair<unsigned char const ,CPythonGuild::SGuildGradeData>,void *> >::allocate
PUBLIC	?max_size@?$_Default_allocator_traits@V?$allocator@U?$_Tree_node@U?$pair@$$CBEUSGuildGradeData@CPythonGuild@@@std@@PAX@std@@@std@@@std@@SAIABV?$allocator@U?$_Tree_node@U?$pair@$$CBEUSGuildGradeData@CPythonGuild@@@std@@PAX@std@@@2@@Z ; std::_Default_allocator_traits<std::allocator<std::_Tree_node<std::pair<unsigned char const ,CPythonGuild::SGuildGradeData>,void *> > >::max_size
PUBLIC	??0?$_Tree_val@U?$_Tree_simple_types@U?$pair@$$CBEUSGuildGradeData@CPythonGuild@@@std@@@std@@@std@@QAE@XZ ; std::_Tree_val<std::_Tree_simple_types<std::pair<unsigned char const ,CPythonGuild::SGuildGradeData> > >::_Tree_val<std::_Tree_simple_types<std::pair<unsigned char const ,CPythonGuild::SGuildGradeData> > >
PUBLIC	?_Get_first@?$_Compressed_pair@U?$less@E@std@@V?$_Compressed_pair@V?$allocator@U?$_Tree_node@U?$pair@$$CBEUSGuildGradeData@CPythonGuild@@@std@@PAX@std@@@std@@V?$_Tree_val@U?$_Tree_simple_types@U?$pair@$$CBEUSGuildGradeData@CPythonGuild@@@std@@@std@@@2@$00@2@$00@std@@QBEABU?$less@E@2@XZ ; std::_Compressed_pair<std::less<unsigned char>,std::_Compressed_pair<std::allocator<std::_Tree_node<std::pair<unsigned char const ,CPythonGuild::SGuildGradeData>,void *> >,std::_Tree_val<std::_Tree_simple_types<std::pair<unsigned char const ,CPythonGuild::SGuildGradeData> > >,1>,1>::_Get_first
PUBLIC	?max_size@?$_Default_allocator_traits@V?$allocator@USGuildMemberData@CPythonGuild@@@std@@@std@@SAIABV?$allocator@USGuildMemberData@CPythonGuild@@@2@@Z ; std::_Default_allocator_traits<std::allocator<CPythonGuild::SGuildMemberData> >::max_size
PUBLIC	?max_size@?$_Default_allocator_traits@V?$allocator@USGuildBoardCommentData@CPythonGuild@@@std@@@std@@SAIABV?$allocator@USGuildBoardCommentData@CPythonGuild@@@2@@Z ; std::_Default_allocator_traits<std::allocator<CPythonGuild::SGuildBoardCommentData> >::max_size
PUBLIC	??0?$_Alloc_construct_ptr@V?$allocator@U?$_Tree_node@U?$pair@$$CBEUSGuildGradeData@CPythonGuild@@@std@@PAX@std@@@std@@@std@@QAE@AAV?$allocator@U?$_Tree_node@U?$pair@$$CBEUSGuildGradeData@CPythonGuild@@@std@@PAX@std@@@1@@Z ; std::_Alloc_construct_ptr<std::allocator<std::_Tree_node<std::pair<unsigned char const ,CPythonGuild::SGuildGradeData>,void *> > >::_Alloc_construct_ptr<std::allocator<std::_Tree_node<std::pair<unsigned char const ,CPythonGuild::SGuildGradeData>,void *> > >
PUBLIC	?_Allocate@?$_Alloc_construct_ptr@V?$allocator@U?$_Tree_node@U?$pair@$$CBEUSGuildGradeData@CPythonGuild@@@std@@PAX@std@@@std@@@std@@QAEXXZ ; std::_Alloc_construct_ptr<std::allocator<std::_Tree_node<std::pair<unsigned char const ,CPythonGuild::SGuildGradeData>,void *> > >::_Allocate
PUBLIC	??0?$_Alloc_construct_ptr@V?$allocator@U?$_Tree_node@U?$pair@$$CBKV?$basic_string@DU?$char_traits@D@std@@V?$allocator@D@2@@std@@@std@@PAX@std@@@std@@@std@@QAE@AAV?$allocator@U?$_Tree_node@U?$pair@$$CBKV?$basic_string@DU?$char_traits@D@std@@V?$allocator@D@2@@std@@@std@@PAX@std@@@1@@Z ; std::_Alloc_construct_ptr<std::allocator<std::_Tree_node<std::pair<unsigned long const ,std::basic_string<char,std::char_traits<char>,std::allocator<char> > >,void *> > >::_Alloc_construct_ptr<std::allocator<std::_Tree_node<std::pair<unsigned long const ,std::basic_string<char,std::char_traits<char>,std::allocator<char> > >,void *> > >
PUBLIC	?_Allocate@?$_Alloc_construct_ptr@V?$allocator@U?$_Tree_node@U?$pair@$$CBKV?$basic_string@DU?$char_traits@D@std@@V?$allocator@D@2@@std@@@std@@PAX@std@@@std@@@std@@QAEXXZ ; std::_Alloc_construct_ptr<std::allocator<std::_Tree_node<std::pair<unsigned long const ,std::basic_string<char,std::char_traits<char>,std::allocator<char> > >,void *> > >::_Allocate
PUBLIC	??0?$_Uninitialized_backout_al@V?$allocator@USGuildBoardCommentData@CPythonGuild@@@std@@@std@@QAE@PAUSGuildBoardCommentData@CPythonGuild@@AAV?$allocator@USGuildBoardCommentData@CPythonGuild@@@1@@Z ; std::_Uninitialized_backout_al<std::allocator<CPythonGuild::SGuildBoardCommentData> >::_Uninitialized_backout_al<std::allocator<CPythonGuild::SGuildBoardCommentData> >
PUBLIC	??1?$_Uninitialized_backout_al@V?$allocator@USGuildBoardCommentData@CPythonGuild@@@std@@@std@@QAE@XZ ; std::_Uninitialized_backout_al<std::allocator<CPythonGuild::SGuildBoardCommentData> >::~_Uninitialized_backout_al<std::allocator<CPythonGuild::SGuildBoardCommentData> >
PUBLIC	?_Release@?$_Uninitialized_backout_al@V?$allocator@USGuildBoardCommentData@CPythonGuild@@@std@@@std@@QAEPAUSGuildBoardCommentData@CPythonGuild@@XZ ; std::_Uninitialized_backout_al<std::allocator<CPythonGuild::SGuildBoardCommentData> >::_Release
PUBLIC	??0?$_Uninitialized_backout_al@V?$allocator@USGuildMemberData@CPythonGuild@@@std@@@std@@QAE@PAUSGuildMemberData@CPythonGuild@@AAV?$allocator@USGuildMemberData@CPythonGuild@@@1@@Z ; std::_Uninitialized_backout_al<std::allocator<CPythonGuild::SGuildMemberData> >::_Uninitialized_backout_al<std::allocator<CPythonGuild::SGuildMemberData> >
PUBLIC	??1?$_Uninitialized_backout_al@V?$allocator@USGuildMemberData@CPythonGuild@@@std@@@std@@QAE@XZ ; std::_Uninitialized_backout_al<std::allocator<CPythonGuild::SGuildMemberData> >::~_Uninitialized_backout_al<std::allocator<CPythonGuild::SGuildMemberData> >
PUBLIC	?_Release@?$_Uninitialized_backout_al@V?$allocator@USGuildMemberData@CPythonGuild@@@std@@@std@@QAEPAUSGuildMemberData@CPythonGuild@@XZ ; std::_Uninitialized_backout_al<std::allocator<CPythonGuild::SGuildMemberData> >::_Release
PUBLIC	??$_Construct_in_place@PAU?$_Tree_node@U?$pair@$$CBKV?$basic_string@DU?$char_traits@D@std@@V?$allocator@D@2@@std@@@std@@PAX@std@@ABQAU12@@std@@YAXAAPAU?$_Tree_node@U?$pair@$$CBKV?$basic_string@DU?$char_traits@D@std@@V?$allocator@D@2@@std@@@std@@PAX@0@ABQAU10@@Z ; std::_Construct_in_place<std::_Tree_node<std::pair<unsigned long const ,std::basic_string<char,std::char_traits<char>,std::allocator<char> > >,void *> *,std::_Tree_node<std::pair<unsigned long const ,std::basic_string<char,std::char_traits<char>,std::allocator<char> > >,void *> * const &>
PUBLIC	??$_Construct_in_place@PAU?$_Tree_node@U?$pair@$$CBEUSGuildGradeData@CPythonGuild@@@std@@PAX@std@@ABQAU12@@std@@YAXAAPAU?$_Tree_node@U?$pair@$$CBEUSGuildGradeData@CPythonGuild@@@std@@PAX@0@ABQAU10@@Z ; std::_Construct_in_place<std::_Tree_node<std::pair<unsigned char const ,CPythonGuild::SGuildGradeData>,void *> *,std::_Tree_node<std::pair<unsigned char const ,CPythonGuild::SGuildGradeData>,void *> * const &>
PUBLIC	??$construct_at@PAU?$_Tree_node@U?$pair@$$CBKV?$basic_string@DU?$char_traits@D@std@@V?$allocator@D@2@@std@@@std@@PAX@std@@AAPAU12@@std@@YAPAPAU?$_Tree_node@U?$pair@$$CBKV?$basic_string@DU?$char_traits@D@std@@V?$allocator@D@2@@std@@@std@@PAX@0@QAPAU10@AAPAU10@@Z ; std::construct_at<std::_Tree_node<std::pair<unsigned long const ,std::basic_string<char,std::char_traits<char>,std::allocator<char> > >,void *> *,std::_Tree_node<std::pair<unsigned long const ,std::basic_string<char,std::char_traits<char>,std::allocator<char> > >,void *> * &>
PUBLIC	??$addressof@PAU?$_Tree_node@U?$pair@$$CBKV?$basic_string@DU?$char_traits@D@std@@V?$allocator@D@2@@std@@@std@@PAX@std@@@std@@YAPAPAU?$_Tree_node@U?$pair@$$CBKV?$basic_string@DU?$char_traits@D@std@@V?$allocator@D@2@@std@@@std@@PAX@0@AAPAU10@@Z ; std::addressof<std::_Tree_node<std::pair<unsigned long const ,std::basic_string<char,std::char_traits<char>,std::allocator<char> > >,void *> *>
PUBLIC	??$construct_at@U?$pair@$$CBKV?$basic_string@DU?$char_traits@D@std@@V?$allocator@D@2@@std@@@std@@ABUpiecewise_construct_t@2@V?$tuple@ABK@2@V?$tuple@$$V@2@@std@@YAPAU?$pair@$$CBKV?$basic_string@DU?$char_traits@D@std@@V?$allocator@D@2@@std@@@0@QAU10@ABUpiecewise_construct_t@0@$$QAV?$tuple@ABK@0@$$QAV?$tuple@$$V@0@@Z ; std::construct_at<std::pair<unsigned long const ,std::basic_string<char,std::char_traits<char>,std::allocator<char> > >,std::piecewise_construct_t const &,std::tuple<unsigned long const &>,std::tuple<> >
PUBLIC	??1?$pair@$$CBKV?$basic_string@DU?$char_traits@D@std@@V?$allocator@D@2@@std@@@std@@QAE@XZ ; std::pair<unsigned long const ,std::basic_string<char,std::char_traits<char>,std::allocator<char> > >::~pair<unsigned long const ,std::basic_string<char,std::char_traits<char>,std::allocator<char> > >
PUBLIC	??$destroy_at@U?$pair@$$CBKV?$basic_string@DU?$char_traits@D@std@@V?$allocator@D@2@@std@@@std@@@std@@YAXQAU?$pair@$$CBKV?$basic_string@DU?$char_traits@D@std@@V?$allocator@D@2@@std@@@0@@Z ; std::destroy_at<std::pair<unsigned long const ,std::basic_string<char,std::char_traits<char>,std::allocator<char> > > >
PUBLIC	??$construct_at@PAU?$_Tree_node@U?$pair@$$CBEUSGuildGradeData@CPythonGuild@@@std@@PAX@std@@AAPAU12@@std@@YAPAPAU?$_Tree_node@U?$pair@$$CBEUSGuildGradeData@CPythonGuild@@@std@@PAX@0@QAPAU10@AAPAU10@@Z ; std::construct_at<std::_Tree_node<std::pair<unsigned char const ,CPythonGuild::SGuildGradeData>,void *> *,std::_Tree_node<std::pair<unsigned char const ,CPythonGuild::SGuildGradeData>,void *> * &>
PUBLIC	??$forward@AAPAU?$_Tree_node@U?$pair@$$CBEUSGuildGradeData@CPythonGuild@@@std@@PAX@std@@@std@@YAAAPAU?$_Tree_node@U?$pair@$$CBEUSGuildGradeData@CPythonGuild@@@std@@PAX@0@AAPAU10@@Z ; std::forward<std::_Tree_node<std::pair<unsigned char const ,CPythonGuild::SGuildGradeData>,void *> * &>
PUBLIC	??$addressof@PAU?$_Tree_node@U?$pair@$$CBEUSGuildGradeData@CPythonGuild@@@std@@PAX@std@@@std@@YAPAPAU?$_Tree_node@U?$pair@$$CBEUSGuildGradeData@CPythonGuild@@@std@@PAX@0@AAPAU10@@Z ; std::addressof<std::_Tree_node<std::pair<unsigned char const ,CPythonGuild::SGuildGradeData>,void *> *>
PUBLIC	??$construct_at@U?$pair@$$CBEUSGuildGradeData@CPythonGuild@@@std@@ABUpiecewise_construct_t@2@V?$tuple@ABE@2@V?$tuple@$$V@2@@std@@YAPAU?$pair@$$CBEUSGuildGradeData@CPythonGuild@@@0@QAU10@ABUpiecewise_construct_t@0@$$QAV?$tuple@ABE@0@$$QAV?$tuple@$$V@0@@Z ; std::construct_at<std::pair<unsigned char const ,CPythonGuild::SGuildGradeData>,std::piecewise_construct_t const &,std::tuple<unsigned char const &>,std::tuple<> >
PUBLIC	??$?0U_Exact_args_t@std@@ABE$$V$0A@@?$tuple@ABE@std@@QAE@U_Exact_args_t@1@ABE@Z ; std::tuple<unsigned char const &>::tuple<unsigned char const &><std::_Exact_args_t,unsigned char const &,0>
PUBLIC	??$_Emplace_back@USGuildMemberData@CPythonGuild@@@?$_Uninitialized_backout_al@V?$allocator@USGuildMemberData@CPythonGuild@@@std@@@std@@QAEX$$QAUSGuildMemberData@CPythonGuild@@@Z ; std::_Uninitialized_backout_al<std::allocator<CPythonGuild::SGuildMemberData> >::_Emplace_back<CPythonGuild::SGuildMemberData>
PUBLIC	??$construct_at@USGuildMemberData@CPythonGuild@@ABU12@@std@@YAPAUSGuildMemberData@CPythonGuild@@QAU12@ABU12@@Z ; std::construct_at<CPythonGuild::SGuildMemberData,CPythonGuild::SGuildMemberData const &>
PUBLIC	??$_Emplace_back@USGuildBoardCommentData@CPythonGuild@@@?$_Uninitialized_backout_al@V?$allocator@USGuildBoardCommentData@CPythonGuild@@@std@@@std@@QAEX$$QAUSGuildBoardCommentData@CPythonGuild@@@Z ; std::_Uninitialized_backout_al<std::allocator<CPythonGuild::SGuildBoardCommentData> >::_Emplace_back<CPythonGuild::SGuildBoardCommentData>
PUBLIC	??$move@AAUSGuildBoardCommentData@CPythonGuild@@@std@@YA$$QAUSGuildBoardCommentData@CPythonGuild@@AAU12@@Z ; std::move<CPythonGuild::SGuildBoardCommentData &>
PUBLIC	??$construct_at@USGuildBoardCommentData@CPythonGuild@@ABU12@@std@@YAPAUSGuildBoardCommentData@CPythonGuild@@QAU12@ABU12@@Z ; std::construct_at<CPythonGuild::SGuildBoardCommentData,CPythonGuild::SGuildBoardCommentData const &>
PUBLIC	??1SGuildGradeData@CPythonGuild@@QAE@XZ		; CPythonGuild::SGuildGradeData::~SGuildGradeData
PUBLIC	??1?$pair@$$CBEUSGuildGradeData@CPythonGuild@@@std@@QAE@XZ ; std::pair<unsigned char const ,CPythonGuild::SGuildGradeData>::~pair<unsigned char const ,CPythonGuild::SGuildGradeData>
PUBLIC	??$destroy_at@U?$pair@$$CBEUSGuildGradeData@CPythonGuild@@@std@@@std@@YAXQAU?$pair@$$CBEUSGuildGradeData@CPythonGuild@@@0@@Z ; std::destroy_at<std::pair<unsigned char const ,CPythonGuild::SGuildGradeData> >
PUBLIC	??$construct@U?$pair@$$CBKK@std@@U?$pair@HH@2@@?$_Default_allocator_traits@V?$allocator@U?$_Tree_node@U?$pair@$$CBKK@std@@PAX@std@@@std@@@std@@SAXAAV?$allocator@U?$_Tree_node@U?$pair@$$CBKK@std@@PAX@std@@@1@QAU?$pair@$$CBKK@1@$$QAU?$pair@HH@1@@Z ; std::_Default_allocator_traits<std::allocator<std::_Tree_node<std::pair<unsigned long const ,unsigned long>,void *> > >::construct<std::pair<unsigned long const ,unsigned long>,std::pair<int,int> >
PUBLIC	??$_Med3_unchecked@PAUSGuildMemberData@CPythonGuild@@UCPythonGuild_SLessMemberGrade@@@std@@YAXPAUSGuildMemberData@CPythonGuild@@00UCPythonGuild_SLessMemberGrade@@@Z ; std::_Med3_unchecked<CPythonGuild::SGuildMemberData *,CPythonGuild_SLessMemberGrade>
PUBLIC	??$_Pop_heap_hole_unchecked@PAUSGuildMemberData@CPythonGuild@@U12@UCPythonGuild_SLessMemberGrade@@@std@@YAXPAUSGuildMemberData@CPythonGuild@@00$$QAU12@UCPythonGuild_SLessMemberGrade@@@Z ; std::_Pop_heap_hole_unchecked<CPythonGuild::SGuildMemberData *,CPythonGuild::SGuildMemberData,CPythonGuild_SLessMemberGrade>
PUBLIC	??$_Push_heap_by_index@PAUSGuildMemberData@CPythonGuild@@U12@UCPythonGuild_SLessMemberGrade@@@std@@YAXPAUSGuildMemberData@CPythonGuild@@HH$$QAU12@UCPythonGuild_SLessMemberGrade@@@Z ; std::_Push_heap_by_index<CPythonGuild::SGuildMemberData *,CPythonGuild::SGuildMemberData,CPythonGuild_SLessMemberGrade>
PUBLIC	??$forward@USGuildMemberData@CPythonGuild@@@std@@YA$$QAUSGuildMemberData@CPythonGuild@@AAU12@@Z ; std::forward<CPythonGuild::SGuildMemberData>
PUBLIC	??$forward@AAPAU?$_Tree_node@U?$pair@$$CBKV?$basic_string@DU?$char_traits@D@std@@V?$allocator@D@2@@std@@@std@@PAX@std@@@std@@YAAAPAU?$_Tree_node@U?$pair@$$CBKV?$basic_string@DU?$char_traits@D@std@@V?$allocator@D@2@@std@@@std@@PAX@0@AAPAU10@@Z ; std::forward<std::_Tree_node<std::pair<unsigned long const ,std::basic_string<char,std::char_traits<char>,std::allocator<char> > >,void *> * &>
PUBLIC	??$construct@U?$pair@$$CBKV?$basic_string@DU?$char_traits@D@std@@V?$allocator@D@2@@std@@@std@@U?$pair@KV?$basic_string@DU?$char_traits@D@std@@V?$allocator@D@2@@std@@@2@@?$_Default_allocator_traits@V?$allocator@U?$_Tree_node@U?$pair@$$CBKV?$basic_string@DU?$char_traits@D@std@@V?$allocator@D@2@@std@@@std@@PAX@std@@@std@@@std@@SAXAAV?$allocator@U?$_Tree_node@U?$pair@$$CBKV?$basic_string@DU?$char_traits@D@std@@V?$allocator@D@2@@std@@@std@@PAX@std@@@1@QAU?$pair@$$CBKV?$basic_string@DU?$char_traits@D@std@@V?$allocator@D@2@@std@@@1@$$QAU?$pair@KV?$basic_string@DU?$char_traits@D@std@@V?$allocator@D@2@@std@@@1@@Z ; std::_Default_allocator_traits<std::allocator<std::_Tree_node<std::pair<unsigned long const ,std::basic_string<char,std::char_traits<char>,std::allocator<char> > >,void *> > >::construct<std::pair<unsigned long const ,std::basic_string<char,std::char_traits<char>,std::allocator<char> > >,std::pair<unsigned long,std::basic_string<char,std::char_traits<char>,std::allocator<char> > > >
PUBLIC	??_GSGuildBoardCommentData@CPythonGuild@@QAEPAXI@Z ; CPythonGuild::SGuildBoardCommentData::`scalar deleting destructor'
PUBLIC	?max_size@?$_Tree@V?$_Tmap_traits@KV?$basic_string@DU?$char_traits@D@std@@V?$allocator@D@2@@std@@U?$less@K@2@V?$allocator@U?$pair@$$CBKV?$basic_string@DU?$char_traits@D@std@@V?$allocator@D@2@@std@@@std@@@2@$0A@@std@@@std@@QBEIXZ ; std::_Tree<std::_Tmap_traits<unsigned long,std::basic_string<char,std::char_traits<char>,std::allocator<char> >,std::less<unsigned long>,std::allocator<std::pair<unsigned long const ,std::basic_string<char,std::char_traits<char>,std::allocator<char> > > >,0> >::max_size
PUBLIC	?_Getcomp@?$_Tree@V?$_Tmap_traits@KV?$basic_string@DU?$char_traits@D@std@@V?$allocator@D@2@@std@@U?$less@K@2@V?$allocator@U?$pair@$$CBKV?$basic_string@DU?$char_traits@D@std@@V?$allocator@D@2@@std@@@std@@@2@$0A@@std@@@std@@IBEABU?$less@K@2@XZ ; std::_Tree<std::_Tmap_traits<unsigned long,std::basic_string<char,std::char_traits<char>,std::allocator<char> >,std::less<unsigned long>,std::allocator<std::pair<unsigned long const ,std::basic_string<char,std::char_traits<char>,std::allocator<char> > > >,0> >::_Getcomp
PUBLIC	?deallocate@?$_Default_allocator_traits@V?$allocator@U?$_Tree_node@U?$pair@$$CBKV?$basic_string@DU?$char_traits@D@std@@V?$allocator@D@2@@std@@@std@@PAX@std@@@std@@@std@@SAXAAV?$allocator@U?$_Tree_node@U?$pair@$$CBKV?$basic_string@DU?$char_traits@D@std@@V?$allocator@D@2@@std@@@std@@PAX@std@@@2@QAU?$_Tree_node@U?$pair@$$CBKV?$basic_string@DU?$char_traits@D@std@@V?$allocator@D@2@@std@@@std@@PAX@2@I@Z ; std::_Default_allocator_traits<std::allocator<std::_Tree_node<std::pair<unsigned long const ,std::basic_string<char,std::char_traits<char>,std::allocator<char> > >,void *> > >::deallocate
PUBLIC	?_Lrotate@?$_Tree_val@U?$_Tree_simple_types@U?$pair@$$CBKV?$basic_string@DU?$char_traits@D@std@@V?$allocator@D@2@@std@@@std@@@std@@@std@@QAEXPAU?$_Tree_node@U?$pair@$$CBKV?$basic_string@DU?$char_traits@D@std@@V?$allocator@D@2@@std@@@std@@PAX@2@@Z ; std::_Tree_val<std::_Tree_simple_types<std::pair<unsigned long const ,std::basic_string<char,std::char_traits<char>,std::allocator<char> > > > >::_Lrotate
PUBLIC	?_Rrotate@?$_Tree_val@U?$_Tree_simple_types@U?$pair@$$CBKV?$basic_string@DU?$char_traits@D@std@@V?$allocator@D@2@@std@@@std@@@std@@@std@@QAEXPAU?$_Tree_node@U?$pair@$$CBKV?$basic_string@DU?$char_traits@D@std@@V?$allocator@D@2@@std@@@std@@PAX@2@@Z ; std::_Tree_val<std::_Tree_simple_types<std::pair<unsigned long const ,std::basic_string<char,std::char_traits<char>,std::allocator<char> > > > >::_Rrotate
PUBLIC	?max_size@?$vector@USGuildMemberData@CPythonGuild@@V?$allocator@USGuildMemberData@CPythonGuild@@@std@@@std@@QBEIXZ ; std::vector<CPythonGuild::SGuildMemberData,std::allocator<CPythonGuild::SGuildMemberData> >::max_size
PUBLIC	?_Calculate_growth@?$vector@USGuildMemberData@CPythonGuild@@V?$allocator@USGuildMemberData@CPythonGuild@@@std@@@std@@ABEII@Z ; std::vector<CPythonGuild::SGuildMemberData,std::allocator<CPythonGuild::SGuildMemberData> >::_Calculate_growth
PUBLIC	?_Change_array@?$vector@USGuildMemberData@CPythonGuild@@V?$allocator@USGuildMemberData@CPythonGuild@@@std@@@std@@AAEXQAUSGuildMemberData@CPythonGuild@@II@Z ; std::vector<CPythonGuild::SGuildMemberData,std::allocator<CPythonGuild::SGuildMemberData> >::_Change_array
PUBLIC	?_Xlength@?$vector@USGuildMemberData@CPythonGuild@@V?$allocator@USGuildMemberData@CPythonGuild@@@std@@@std@@CAXXZ ; std::vector<CPythonGuild::SGuildMemberData,std::allocator<CPythonGuild::SGuildMemberData> >::_Xlength
PUBLIC	?max_size@?$vector@USGuildBoardCommentData@CPythonGuild@@V?$allocator@USGuildBoardCommentData@CPythonGuild@@@std@@@std@@QBEIXZ ; std::vector<CPythonGuild::SGuildBoardCommentData,std::allocator<CPythonGuild::SGuildBoardCommentData> >::max_size
PUBLIC	?_Calculate_growth@?$vector@USGuildBoardCommentData@CPythonGuild@@V?$allocator@USGuildBoardCommentData@CPythonGuild@@@std@@@std@@ABEII@Z ; std::vector<CPythonGuild::SGuildBoardCommentData,std::allocator<CPythonGuild::SGuildBoardCommentData> >::_Calculate_growth
PUBLIC	?_Change_array@?$vector@USGuildBoardCommentData@CPythonGuild@@V?$allocator@USGuildBoardCommentData@CPythonGuild@@@std@@@std@@AAEXQAUSGuildBoardCommentData@CPythonGuild@@II@Z ; std::vector<CPythonGuild::SGuildBoardCommentData,std::allocator<CPythonGuild::SGuildBoardCommentData> >::_Change_array
PUBLIC	?_Xlength@?$vector@USGuildBoardCommentData@CPythonGuild@@V?$allocator@USGuildBoardCommentData@CPythonGuild@@@std@@@std@@CAXXZ ; std::vector<CPythonGuild::SGuildBoardCommentData,std::allocator<CPythonGuild::SGuildBoardCommentData> >::_Xlength
PUBLIC	?_Orphan_range@?$vector@USGuildBoardCommentData@CPythonGuild@@V?$allocator@USGuildBoardCommentData@CPythonGuild@@@std@@@std@@ABEXPAUSGuildBoardCommentData@CPythonGuild@@0@Z ; std::vector<CPythonGuild::SGuildBoardCommentData,std::allocator<CPythonGuild::SGuildBoardCommentData> >::_Orphan_range
PUBLIC	?max_size@?$_Tree@V?$_Tmap_traits@EUSGuildGradeData@CPythonGuild@@U?$less@E@std@@V?$allocator@U?$pair@$$CBEUSGuildGradeData@CPythonGuild@@@std@@@4@$0A@@std@@@std@@QBEIXZ ; std::_Tree<std::_Tmap_traits<unsigned char,CPythonGuild::SGuildGradeData,std::less<unsigned char>,std::allocator<std::pair<unsigned char const ,CPythonGuild::SGuildGradeData> >,0> >::max_size
PUBLIC	?_Getcomp@?$_Tree@V?$_Tmap_traits@EUSGuildGradeData@CPythonGuild@@U?$less@E@std@@V?$allocator@U?$pair@$$CBEUSGuildGradeData@CPythonGuild@@@std@@@4@$0A@@std@@@std@@IBEABU?$less@E@2@XZ ; std::_Tree<std::_Tmap_traits<unsigned char,CPythonGuild::SGuildGradeData,std::less<unsigned char>,std::allocator<std::pair<unsigned char const ,CPythonGuild::SGuildGradeData> >,0> >::_Getcomp
PUBLIC	?deallocate@?$_Default_allocator_traits@V?$allocator@U?$_Tree_node@U?$pair@$$CBEUSGuildGradeData@CPythonGuild@@@std@@PAX@std@@@std@@@std@@SAXAAV?$allocator@U?$_Tree_node@U?$pair@$$CBEUSGuildGradeData@CPythonGuild@@@std@@PAX@std@@@2@QAU?$_Tree_node@U?$pair@$$CBEUSGuildGradeData@CPythonGuild@@@std@@PAX@2@I@Z ; std::_Default_allocator_traits<std::allocator<std::_Tree_node<std::pair<unsigned char const ,CPythonGuild::SGuildGradeData>,void *> > >::deallocate
PUBLIC	?_Lrotate@?$_Tree_val@U?$_Tree_simple_types@U?$pair@$$CBEUSGuildGradeData@CPythonGuild@@@std@@@std@@@std@@QAEXPAU?$_Tree_node@U?$pair@$$CBEUSGuildGradeData@CPythonGuild@@@std@@PAX@2@@Z ; std::_Tree_val<std::_Tree_simple_types<std::pair<unsigned char const ,CPythonGuild::SGuildGradeData> > >::_Lrotate
PUBLIC	?_Rrotate@?$_Tree_val@U?$_Tree_simple_types@U?$pair@$$CBEUSGuildGradeData@CPythonGuild@@@std@@@std@@@std@@QAEXPAU?$_Tree_node@U?$pair@$$CBEUSGuildGradeData@CPythonGuild@@@std@@PAX@2@@Z ; std::_Tree_val<std::_Tree_simple_types<std::pair<unsigned char const ,CPythonGuild::SGuildGradeData> > >::_Rrotate
PUBLIC	??1_Reallocation_guard@?$vector@USGuildMemberData@CPythonGuild@@V?$allocator@USGuildMemberData@CPythonGuild@@@std@@@std@@QAE@XZ ; std::vector<CPythonGuild::SGuildMemberData,std::allocator<CPythonGuild::SGuildMemberData> >::_Reallocation_guard::~_Reallocation_guard
PUBLIC	??1_Reallocation_guard@?$vector@USGuildBoardCommentData@CPythonGuild@@V?$allocator@USGuildBoardCommentData@CPythonGuild@@@std@@@std@@QAE@XZ ; std::vector<CPythonGuild::SGuildBoardCommentData,std::allocator<CPythonGuild::SGuildBoardCommentData> >::_Reallocation_guard::~_Reallocation_guard
PUBLIC	??0?$_Tree_temp_node_alloc@V?$allocator@U?$_Tree_node@U?$pair@$$CBEUSGuildGradeData@CPythonGuild@@@std@@PAX@std@@@std@@@std@@QAE@AAV?$allocator@U?$_Tree_node@U?$pair@$$CBEUSGuildGradeData@CPythonGuild@@@std@@PAX@std@@@1@@Z ; std::_Tree_temp_node_alloc<std::allocator<std::_Tree_node<std::pair<unsigned char const ,CPythonGuild::SGuildGradeData>,void *> > >::_Tree_temp_node_alloc<std::allocator<std::_Tree_node<std::pair<unsigned char const ,CPythonGuild::SGuildGradeData>,void *> > >
PUBLIC	??1?$_Alloc_construct_ptr@V?$allocator@U?$_Tree_node@U?$pair@$$CBEUSGuildGradeData@CPythonGuild@@@std@@PAX@std@@@std@@@std@@QAE@XZ ; std::_Alloc_construct_ptr<std::allocator<std::_Tree_node<std::pair<unsigned char const ,CPythonGuild::SGuildGradeData>,void *> > >::~_Alloc_construct_ptr<std::allocator<std::_Tree_node<std::pair<unsigned char const ,CPythonGuild::SGuildGradeData>,void *> > >
PUBLIC	??0?$_Tree_temp_node_alloc@V?$allocator@U?$_Tree_node@U?$pair@$$CBKV?$basic_string@DU?$char_traits@D@std@@V?$allocator@D@2@@std@@@std@@PAX@std@@@std@@@std@@QAE@AAV?$allocator@U?$_Tree_node@U?$pair@$$CBKV?$basic_string@DU?$char_traits@D@std@@V?$allocator@D@2@@std@@@std@@PAX@std@@@1@@Z ; std::_Tree_temp_node_alloc<std::allocator<std::_Tree_node<std::pair<unsigned long const ,std::basic_string<char,std::char_traits<char>,std::allocator<char> > >,void *> > >::_Tree_temp_node_alloc<std::allocator<std::_Tree_node<std::pair<unsigned long const ,std::basic_string<char,std::char_traits<char>,std::allocator<char> > >,void *> > >
PUBLIC	??1?$_Alloc_construct_ptr@V?$allocator@U?$_Tree_node@U?$pair@$$CBKV?$basic_string@DU?$char_traits@D@std@@V?$allocator@D@2@@std@@@std@@PAX@std@@@std@@@std@@QAE@XZ ; std::_Alloc_construct_ptr<std::allocator<std::_Tree_node<std::pair<unsigned long const ,std::basic_string<char,std::char_traits<char>,std::allocator<char> > >,void *> > >::~_Alloc_construct_ptr<std::allocator<std::_Tree_node<std::pair<unsigned long const ,std::basic_string<char,std::char_traits<char>,std::allocator<char> > >,void *> > >
PUBLIC	?_Extract@?$_In_place_key_extract_map_impl@KU?$pair@KV?$basic_string@DU?$char_traits@D@std@@V?$allocator@D@2@@std@@@std@@@std@@SAABKABU?$pair@KV?$basic_string@DU?$char_traits@D@std@@V?$allocator@D@2@@std@@@2@@Z ; std::_In_place_key_extract_map_impl<unsigned long,std::pair<unsigned long,std::basic_string<char,std::char_traits<char>,std::allocator<char> > > >::_Extract
PUBLIC	??$_Buyheadnode@V?$allocator@U?$_Tree_node@U?$pair@$$CBKV?$basic_string@DU?$char_traits@D@std@@V?$allocator@D@2@@std@@@std@@PAX@std@@@std@@@?$_Tree_node@U?$pair@$$CBKV?$basic_string@DU?$char_traits@D@std@@V?$allocator@D@2@@std@@@std@@PAX@std@@SAPAU01@AAV?$allocator@U?$_Tree_node@U?$pair@$$CBKV?$basic_string@DU?$char_traits@D@std@@V?$allocator@D@2@@std@@@std@@PAX@std@@@1@@Z ; std::_Tree_node<std::pair<unsigned long const ,std::basic_string<char,std::char_traits<char>,std::allocator<char> > >,void *>::_Buyheadnode<std::allocator<std::_Tree_node<std::pair<unsigned long const ,std::basic_string<char,std::char_traits<char>,std::allocator<char> > >,void *> > >
PUBLIC	??$addressof@$$CBV?$_Tree_val@U?$_Tree_simple_types@U?$pair@$$CBKV?$basic_string@DU?$char_traits@D@std@@V?$allocator@D@2@@std@@@std@@@std@@@std@@@std@@YAPBV?$_Tree_val@U?$_Tree_simple_types@U?$pair@$$CBKV?$basic_string@DU?$char_traits@D@std@@V?$allocator@D@2@@std@@@std@@@std@@@0@ABV10@@Z ; std::addressof<std::_Tree_val<std::_Tree_simple_types<std::pair<unsigned long const ,std::basic_string<char,std::char_traits<char>,std::allocator<char> > > > > const >
PUBLIC	??$_Buyheadnode@V?$allocator@U?$_Tree_node@U?$pair@$$CBEUSGuildGradeData@CPythonGuild@@@std@@PAX@std@@@std@@@?$_Tree_node@U?$pair@$$CBEUSGuildGradeData@CPythonGuild@@@std@@PAX@std@@SAPAU01@AAV?$allocator@U?$_Tree_node@U?$pair@$$CBEUSGuildGradeData@CPythonGuild@@@std@@PAX@std@@@1@@Z ; std::_Tree_node<std::pair<unsigned char const ,CPythonGuild::SGuildGradeData>,void *>::_Buyheadnode<std::allocator<std::_Tree_node<std::pair<unsigned char const ,CPythonGuild::SGuildGradeData>,void *> > >
PUBLIC	??$addressof@$$CBV?$_Tree_val@U?$_Tree_simple_types@U?$pair@$$CBEUSGuildGradeData@CPythonGuild@@@std@@@std@@@std@@@std@@YAPBV?$_Tree_val@U?$_Tree_simple_types@U?$pair@$$CBEUSGuildGradeData@CPythonGuild@@@std@@@std@@@0@ABV10@@Z ; std::addressof<std::_Tree_val<std::_Tree_simple_types<std::pair<unsigned char const ,CPythonGuild::SGuildGradeData> > > const >
PUBLIC	??$_Refancy_maybe_null@PAUSGuildMemberData@CPythonGuild@@$0A@@std@@YAPAUSGuildMemberData@CPythonGuild@@PAU12@@Z ; std::_Refancy_maybe_null<CPythonGuild::SGuildMemberData *,0>
PUBLIC	??$exchange@PAU?$_Tree_node@U?$pair@$$CBEUSGuildGradeData@CPythonGuild@@@std@@PAX@std@@$$T@std@@YAPAU?$_Tree_node@U?$pair@$$CBEUSGuildGradeData@CPythonGuild@@@std@@PAX@0@AAPAU10@$$QA$$T@Z ; std::exchange<std::_Tree_node<std::pair<unsigned char const ,CPythonGuild::SGuildGradeData>,void *> *,std::nullptr_t>
PUBLIC	??$exchange@PAU?$_Tree_node@U?$pair@$$CBKV?$basic_string@DU?$char_traits@D@std@@V?$allocator@D@2@@std@@@std@@PAX@std@@$$T@std@@YAPAU?$_Tree_node@U?$pair@$$CBKV?$basic_string@DU?$char_traits@D@std@@V?$allocator@D@2@@std@@@std@@PAX@0@AAPAU10@$$QA$$T@Z ; std::exchange<std::_Tree_node<std::pair<unsigned long const ,std::basic_string<char,std::char_traits<char>,std::allocator<char> > >,void *> *,std::nullptr_t>
PUBLIC	??$forward@PAU?$_Tree_node@U?$pair@$$CBKV?$basic_string@DU?$char_traits@D@std@@V?$allocator@D@2@@std@@@std@@PAX@std@@@std@@YA$$QAPAU?$_Tree_node@U?$pair@$$CBKV?$basic_string@DU?$char_traits@D@std@@V?$allocator@D@2@@std@@@std@@PAX@0@AAPAU10@@Z ; std::forward<std::_Tree_node<std::pair<unsigned long const ,std::basic_string<char,std::char_traits<char>,std::allocator<char> > >,void *> *>
PUBLIC	??$forward@ABQAU?$_Tree_node@U?$pair@$$CBKV?$basic_string@DU?$char_traits@D@std@@V?$allocator@D@2@@std@@@std@@PAX@std@@@std@@YAABQAU?$_Tree_node@U?$pair@$$CBKV?$basic_string@DU?$char_traits@D@std@@V?$allocator@D@2@@std@@@std@@PAX@0@ABQAU10@@Z ; std::forward<std::_Tree_node<std::pair<unsigned long const ,std::basic_string<char,std::char_traits<char>,std::allocator<char> > >,void *> * const &>
PUBLIC	??$_Construct_in_place@PAU?$_Tree_node@U?$pair@$$CBKV?$basic_string@DU?$char_traits@D@std@@V?$allocator@D@2@@std@@@std@@PAX@std@@AAPAU12@@std@@YAXAAPAU?$_Tree_node@U?$pair@$$CBKV?$basic_string@DU?$char_traits@D@std@@V?$allocator@D@2@@std@@@std@@PAX@0@0@Z ; std::_Construct_in_place<std::_Tree_node<std::pair<unsigned long const ,std::basic_string<char,std::char_traits<char>,std::allocator<char> > >,void *> *,std::_Tree_node<std::pair<unsigned long const ,std::basic_string<char,std::char_traits<char>,std::allocator<char> > >,void *> * &>
PUBLIC	??$construct@U?$pair@$$CBKV?$basic_string@DU?$char_traits@D@std@@V?$allocator@D@2@@std@@@std@@ABUpiecewise_construct_t@2@V?$tuple@ABK@2@V?$tuple@$$V@2@@?$_Default_allocator_traits@V?$allocator@U?$_Tree_node@U?$pair@$$CBKV?$basic_string@DU?$char_traits@D@std@@V?$allocator@D@2@@std@@@std@@PAX@std@@@std@@@std@@SAXAAV?$allocator@U?$_Tree_node@U?$pair@$$CBKV?$basic_string@DU?$char_traits@D@std@@V?$allocator@D@2@@std@@@std@@PAX@std@@@1@QAU?$pair@$$CBKV?$basic_string@DU?$char_traits@D@std@@V?$allocator@D@2@@std@@@1@ABUpiecewise_construct_t@1@$$QAV?$tuple@ABK@1@$$QAV?$tuple@$$V@1@@Z ; std::_Default_allocator_traits<std::allocator<std::_Tree_node<std::pair<unsigned long const ,std::basic_string<char,std::char_traits<char>,std::allocator<char> > >,void *> > >::construct<std::pair<unsigned long const ,std::basic_string<char,std::char_traits<char>,std::allocator<char> > >,std::piecewise_construct_t const &,std::tuple<unsigned long const &>,std::tuple<> >
PUBLIC	??$_Destroy_in_place@PAU?$_Tree_node@U?$pair@$$CBKV?$basic_string@DU?$char_traits@D@std@@V?$allocator@D@2@@std@@@std@@PAX@std@@@std@@YAXAAPAU?$_Tree_node@U?$pair@$$CBKV?$basic_string@DU?$char_traits@D@std@@V?$allocator@D@2@@std@@@std@@PAX@0@@Z ; std::_Destroy_in_place<std::_Tree_node<std::pair<unsigned long const ,std::basic_string<char,std::char_traits<char>,std::allocator<char> > >,void *> *>
PUBLIC	??$destroy@U?$pair@$$CBKV?$basic_string@DU?$char_traits@D@std@@V?$allocator@D@2@@std@@@std@@@?$_Default_allocator_traits@V?$allocator@U?$_Tree_node@U?$pair@$$CBKV?$basic_string@DU?$char_traits@D@std@@V?$allocator@D@2@@std@@@std@@PAX@std@@@std@@@std@@SAXAAV?$allocator@U?$_Tree_node@U?$pair@$$CBKV?$basic_string@DU?$char_traits@D@std@@V?$allocator@D@2@@std@@@std@@PAX@std@@@1@QAU?$pair@$$CBKV?$basic_string@DU?$char_traits@D@std@@V?$allocator@D@2@@std@@@1@@Z ; std::_Default_allocator_traits<std::allocator<std::_Tree_node<std::pair<unsigned long const ,std::basic_string<char,std::char_traits<char>,std::allocator<char> > >,void *> > >::destroy<std::pair<unsigned long const ,std::basic_string<char,std::char_traits<char>,std::allocator<char> > > >
PUBLIC	??$addressof@U?$pair@$$CBKV?$basic_string@DU?$char_traits@D@std@@V?$allocator@D@2@@std@@@std@@@std@@YAPAU?$pair@$$CBKV?$basic_string@DU?$char_traits@D@std@@V?$allocator@D@2@@std@@@0@AAU10@@Z ; std::addressof<std::pair<unsigned long const ,std::basic_string<char,std::char_traits<char>,std::allocator<char> > > >
PUBLIC	??$_Kfn@$$CBKV?$basic_string@DU?$char_traits@D@std@@V?$allocator@D@2@@std@@@?$_Tmap_traits@KV?$basic_string@DU?$char_traits@D@std@@V?$allocator@D@2@@std@@U?$less@K@2@V?$allocator@U?$pair@$$CBKV?$basic_string@DU?$char_traits@D@std@@V?$allocator@D@2@@std@@@std@@@2@$0A@@std@@SAABKABU?$pair@$$CBKV?$basic_string@DU?$char_traits@D@std@@V?$allocator@D@2@@std@@@1@@Z ; std::_Tmap_traits<unsigned long,std::basic_string<char,std::char_traits<char>,std::allocator<char> >,std::less<unsigned long>,std::allocator<std::pair<unsigned long const ,std::basic_string<char,std::char_traits<char>,std::allocator<char> > > >,0>::_Kfn<unsigned long const ,std::basic_string<char,std::char_traits<char>,std::allocator<char> > >
PUBLIC	??$forward@PAU?$_Tree_node@U?$pair@$$CBEUSGuildGradeData@CPythonGuild@@@std@@PAX@std@@@std@@YA$$QAPAU?$_Tree_node@U?$pair@$$CBEUSGuildGradeData@CPythonGuild@@@std@@PAX@0@AAPAU10@@Z ; std::forward<std::_Tree_node<std::pair<unsigned char const ,CPythonGuild::SGuildGradeData>,void *> *>
PUBLIC	??$forward@ABQAU?$_Tree_node@U?$pair@$$CBEUSGuildGradeData@CPythonGuild@@@std@@PAX@std@@@std@@YAABQAU?$_Tree_node@U?$pair@$$CBEUSGuildGradeData@CPythonGuild@@@std@@PAX@0@ABQAU10@@Z ; std::forward<std::_Tree_node<std::pair<unsigned char const ,CPythonGuild::SGuildGradeData>,void *> * const &>
PUBLIC	??$_Construct_in_place@PAU?$_Tree_node@U?$pair@$$CBEUSGuildGradeData@CPythonGuild@@@std@@PAX@std@@AAPAU12@@std@@YAXAAPAU?$_Tree_node@U?$pair@$$CBEUSGuildGradeData@CPythonGuild@@@std@@PAX@0@0@Z ; std::_Construct_in_place<std::_Tree_node<std::pair<unsigned char const ,CPythonGuild::SGuildGradeData>,void *> *,std::_Tree_node<std::pair<unsigned char const ,CPythonGuild::SGuildGradeData>,void *> * &>
PUBLIC	??$construct@U?$pair@$$CBEUSGuildGradeData@CPythonGuild@@@std@@ABUpiecewise_construct_t@2@V?$tuple@ABE@2@V?$tuple@$$V@2@@?$_Default_allocator_traits@V?$allocator@U?$_Tree_node@U?$pair@$$CBEUSGuildGradeData@CPythonGuild@@@std@@PAX@std@@@std@@@std@@SAXAAV?$allocator@U?$_Tree_node@U?$pair@$$CBEUSGuildGradeData@CPythonGuild@@@std@@PAX@std@@@1@QAU?$pair@$$CBEUSGuildGradeData@CPythonGuild@@@1@ABUpiecewise_construct_t@1@$$QAV?$tuple@ABE@1@$$QAV?$tuple@$$V@1@@Z ; std::_Default_allocator_traits<std::allocator<std::_Tree_node<std::pair<unsigned char const ,CPythonGuild::SGuildGradeData>,void *> > >::construct<std::pair<unsigned char const ,CPythonGuild::SGuildGradeData>,std::piecewise_construct_t const &,std::tuple<unsigned char const &>,std::tuple<> >
PUBLIC	??$forward@V?$tuple@ABE@std@@@std@@YA$$QAV?$tuple@ABE@0@AAV10@@Z ; std::forward<std::tuple<unsigned char const &> >
PUBLIC	??$?0ABE$0A@@?$tuple@ABE@std@@QAE@ABE@Z		; std::tuple<unsigned char const &>::tuple<unsigned char const &><unsigned char const &,0>
PUBLIC	??$_Uninitialized_move@PAUSGuildMemberData@CPythonGuild@@V?$allocator@USGuildMemberData@CPythonGuild@@@std@@@std@@YAPAUSGuildMemberData@CPythonGuild@@QAU12@0PAU12@AAV?$allocator@USGuildMemberData@CPythonGuild@@@0@@Z ; std::_Uninitialized_move<CPythonGuild::SGuildMemberData *,std::allocator<CPythonGuild::SGuildMemberData> >
PUBLIC	??$_Get_unwrapped@ABQAUSGuildMemberData@CPythonGuild@@@std@@YA?A_TABQAUSGuildMemberData@CPythonGuild@@@Z ; std::_Get_unwrapped<CPythonGuild::SGuildMemberData * const &>
PUBLIC	??$_Allocate_at_least_helper@V?$allocator@USGuildMemberData@CPythonGuild@@@std@@@std@@YAPAUSGuildMemberData@CPythonGuild@@AAV?$allocator@USGuildMemberData@CPythonGuild@@@0@AAI@Z ; std::_Allocate_at_least_helper<std::allocator<CPythonGuild::SGuildMemberData> >
PUBLIC	??$construct@USGuildMemberData@CPythonGuild@@ABU12@@?$_Default_allocator_traits@V?$allocator@USGuildMemberData@CPythonGuild@@@std@@@std@@SAXAAV?$allocator@USGuildMemberData@CPythonGuild@@@1@QAUSGuildMemberData@CPythonGuild@@ABU34@@Z ; std::_Default_allocator_traits<std::allocator<CPythonGuild::SGuildMemberData> >::construct<CPythonGuild::SGuildMemberData,CPythonGuild::SGuildMemberData const &>
PUBLIC	??$_Uninitialized_move@PAUSGuildBoardCommentData@CPythonGuild@@V?$allocator@USGuildBoardCommentData@CPythonGuild@@@std@@@std@@YAPAUSGuildBoardCommentData@CPythonGuild@@QAU12@0PAU12@AAV?$allocator@USGuildBoardCommentData@CPythonGuild@@@0@@Z ; std::_Uninitialized_move<CPythonGuild::SGuildBoardCommentData *,std::allocator<CPythonGuild::SGuildBoardCommentData> >
PUBLIC	??$_Get_unwrapped@ABQAUSGuildBoardCommentData@CPythonGuild@@@std@@YA?A_TABQAUSGuildBoardCommentData@CPythonGuild@@@Z ; std::_Get_unwrapped<CPythonGuild::SGuildBoardCommentData * const &>
PUBLIC	??$_Allocate_at_least_helper@V?$allocator@USGuildBoardCommentData@CPythonGuild@@@std@@@std@@YAPAUSGuildBoardCommentData@CPythonGuild@@AAV?$allocator@USGuildBoardCommentData@CPythonGuild@@@0@AAI@Z ; std::_Allocate_at_least_helper<std::allocator<CPythonGuild::SGuildBoardCommentData> >
PUBLIC	??$construct@USGuildBoardCommentData@CPythonGuild@@ABU12@@?$_Default_allocator_traits@V?$allocator@USGuildBoardCommentData@CPythonGuild@@@std@@@std@@SAXAAV?$allocator@USGuildBoardCommentData@CPythonGuild@@@1@QAUSGuildBoardCommentData@CPythonGuild@@ABU34@@Z ; std::_Default_allocator_traits<std::allocator<CPythonGuild::SGuildBoardCommentData> >::construct<CPythonGuild::SGuildBoardCommentData,CPythonGuild::SGuildBoardCommentData const &>
PUBLIC	??$destroy_at@USGuildBoardCommentData@CPythonGuild@@@std@@YAXQAUSGuildBoardCommentData@CPythonGuild@@@Z ; std::destroy_at<CPythonGuild::SGuildBoardCommentData>
PUBLIC	??$_Destroy_in_place@PAU?$_Tree_node@U?$pair@$$CBEUSGuildGradeData@CPythonGuild@@@std@@PAX@std@@@std@@YAXAAPAU?$_Tree_node@U?$pair@$$CBEUSGuildGradeData@CPythonGuild@@@std@@PAX@0@@Z ; std::_Destroy_in_place<std::_Tree_node<std::pair<unsigned char const ,CPythonGuild::SGuildGradeData>,void *> *>
PUBLIC	??$destroy@U?$pair@$$CBEUSGuildGradeData@CPythonGuild@@@std@@@?$_Default_allocator_traits@V?$allocator@U?$_Tree_node@U?$pair@$$CBEUSGuildGradeData@CPythonGuild@@@std@@PAX@std@@@std@@@std@@SAXAAV?$allocator@U?$_Tree_node@U?$pair@$$CBEUSGuildGradeData@CPythonGuild@@@std@@PAX@std@@@1@QAU?$pair@$$CBEUSGuildGradeData@CPythonGuild@@@1@@Z ; std::_Default_allocator_traits<std::allocator<std::_Tree_node<std::pair<unsigned char const ,CPythonGuild::SGuildGradeData>,void *> > >::destroy<std::pair<unsigned char const ,CPythonGuild::SGuildGradeData> >
PUBLIC	??$_Kfn@$$CBEUSGuildGradeData@CPythonGuild@@@?$_Tmap_traits@EUSGuildGradeData@CPythonGuild@@U?$less@E@std@@V?$allocator@U?$pair@$$CBEUSGuildGradeData@CPythonGuild@@@std@@@4@$0A@@std@@SAABEABU?$pair@$$CBEUSGuildGradeData@CPythonGuild@@@1@@Z ; std::_Tmap_traits<unsigned char,CPythonGuild::SGuildGradeData,std::less<unsigned char>,std::allocator<std::pair<unsigned char const ,CPythonGuild::SGuildGradeData> >,0>::_Kfn<unsigned char const ,CPythonGuild::SGuildGradeData>
PUBLIC	??$?0U?$pair@HH@std@@@?$_Tree_temp_node@V?$allocator@U?$_Tree_node@U?$pair@$$CBKK@std@@PAX@std@@@std@@@std@@QAE@AAV?$allocator@U?$_Tree_node@U?$pair@$$CBKK@std@@PAX@std@@@1@PAU?$_Tree_node@U?$pair@$$CBKK@std@@PAX@1@$$QAU?$pair@HH@1@@Z ; std::_Tree_temp_node<std::allocator<std::_Tree_node<std::pair<unsigned long const ,unsigned long>,void *> > >::_Tree_temp_node<std::allocator<std::_Tree_node<std::pair<unsigned long const ,unsigned long>,void *> > ><std::pair<int,int> >
PUBLIC	??$?0AAPAUSGuildMemberData@CPythonGuild@@AAPAU01@$0A@@?$pair@PAUSGuildMemberData@CPythonGuild@@PAU12@@std@@QAE@AAPAUSGuildMemberData@CPythonGuild@@0@Z ; std::pair<CPythonGuild::SGuildMemberData *,CPythonGuild::SGuildMemberData *>::pair<CPythonGuild::SGuildMemberData *,CPythonGuild::SGuildMemberData *><CPythonGuild::SGuildMemberData * &,CPythonGuild::SGuildMemberData * &,0>
PUBLIC	??$swap@USGuildMemberData@CPythonGuild@@$0A@@std@@YAXAAUSGuildMemberData@CPythonGuild@@0@Z ; std::swap<CPythonGuild::SGuildMemberData,0>
PUBLIC	??$_Next_iter@PAUSGuildMemberData@CPythonGuild@@@std@@YAPAUSGuildMemberData@CPythonGuild@@PAU12@@Z ; std::_Next_iter<CPythonGuild::SGuildMemberData *>
PUBLIC	??$_Guess_median_unchecked@PAUSGuildMemberData@CPythonGuild@@UCPythonGuild_SLessMemberGrade@@@std@@YAXPAUSGuildMemberData@CPythonGuild@@00UCPythonGuild_SLessMemberGrade@@@Z ; std::_Guess_median_unchecked<CPythonGuild::SGuildMemberData *,CPythonGuild_SLessMemberGrade>
PUBLIC	??$_Prev_iter@PAUSGuildMemberData@CPythonGuild@@@std@@YAPAUSGuildMemberData@CPythonGuild@@PAU12@@Z ; std::_Prev_iter<CPythonGuild::SGuildMemberData *>
PUBLIC	??$_Pop_heap_unchecked@PAUSGuildMemberData@CPythonGuild@@UCPythonGuild_SLessMemberGrade@@@std@@YAXPAUSGuildMemberData@CPythonGuild@@0UCPythonGuild_SLessMemberGrade@@@Z ; std::_Pop_heap_unchecked<CPythonGuild::SGuildMemberData *,CPythonGuild_SLessMemberGrade>
PUBLIC	??$_Pop_heap_hole_by_index@PAUSGuildMemberData@CPythonGuild@@U12@UCPythonGuild_SLessMemberGrade@@@std@@YAXPAUSGuildMemberData@CPythonGuild@@HH$$QAU12@UCPythonGuild_SLessMemberGrade@@@Z ; std::_Pop_heap_hole_by_index<CPythonGuild::SGuildMemberData *,CPythonGuild::SGuildMemberData,CPythonGuild_SLessMemberGrade>
PUBLIC	??$_Move_backward_unchecked@PAUSGuildMemberData@CPythonGuild@@PAU12@@std@@YAPAUSGuildMemberData@CPythonGuild@@PAU12@00@Z ; std::_Move_backward_unchecked<CPythonGuild::SGuildMemberData *,CPythonGuild::SGuildMemberData *>
PUBLIC	??$forward@V?$_Tree_iterator@V?$_Tree_val@U?$_Tree_simple_types@U?$pair@$$CBKV?$basic_string@DU?$char_traits@D@std@@V?$allocator@D@2@@std@@@std@@@std@@@std@@@std@@@std@@YA$$QAV?$_Tree_iterator@V?$_Tree_val@U?$_Tree_simple_types@U?$pair@$$CBKV?$basic_string@DU?$char_traits@D@std@@V?$allocator@D@2@@std@@@std@@@std@@@std@@@0@AAV10@@Z ; std::forward<std::_Tree_iterator<std::_Tree_val<std::_Tree_simple_types<std::pair<unsigned long const ,std::basic_string<char,std::char_traits<char>,std::allocator<char> > > > > > >
PUBLIC	??$?0AAPAU?$_Tree_node@U?$pair@$$CBKV?$basic_string@DU?$char_traits@D@std@@V?$allocator@D@2@@std@@@std@@PAX@std@@_N$0A@@?$pair@PAU?$_Tree_node@U?$pair@$$CBKV?$basic_string@DU?$char_traits@D@std@@V?$allocator@D@2@@std@@@std@@PAX@std@@_N@std@@QAE@AAPAU?$_Tree_node@U?$pair@$$CBKV?$basic_string@DU?$char_traits@D@std@@V?$allocator@D@2@@std@@@std@@PAX@1@$$QA_N@Z ; std::pair<std::_Tree_node<std::pair<unsigned long const ,std::basic_string<char,std::char_traits<char>,std::allocator<char> > >,void *> *,bool>::pair<std::_Tree_node<std::pair<unsigned long const ,std::basic_string<char,std::char_traits<char>,std::allocator<char> > >,void *> *,bool><std::_Tree_node<std::pair<unsigned long const ,std::basic_string<char,std::char_traits<char>,std::allocator<char> > >,void *> * &,bool,0>
PUBLIC	??$?0U?$pair@KV?$basic_string@DU?$char_traits@D@std@@V?$allocator@D@2@@std@@@std@@@?$_Tree_temp_node@V?$allocator@U?$_Tree_node@U?$pair@$$CBKV?$basic_string@DU?$char_traits@D@std@@V?$allocator@D@2@@std@@@std@@PAX@std@@@std@@@std@@QAE@AAV?$allocator@U?$_Tree_node@U?$pair@$$CBKV?$basic_string@DU?$char_traits@D@std@@V?$allocator@D@2@@std@@@std@@PAX@std@@@1@PAU?$_Tree_node@U?$pair@$$CBKV?$basic_string@DU?$char_traits@D@std@@V?$allocator@D@2@@std@@@std@@PAX@1@$$QAU?$pair@KV?$basic_string@DU?$char_traits@D@std@@V?$allocator@D@2@@std@@@1@@Z ; std::_Tree_temp_node<std::allocator<std::_Tree_node<std::pair<unsigned long const ,std::basic_string<char,std::char_traits<char>,std::allocator<char> > >,void *> > >::_Tree_temp_node<std::allocator<std::_Tree_node<std::pair<unsigned long const ,std::basic_string<char,std::char_traits<char>,std::allocator<char> > >,void *> > ><std::pair<unsigned long,std::basic_string<char,std::char_traits<char>,std::allocator<char> > > >
PUBLIC	??$?0$$V@?$_Compressed_pair@V?$allocator@U?$_Tree_node@U?$pair@$$CBKV?$basic_string@DU?$char_traits@D@std@@V?$allocator@D@2@@std@@@std@@PAX@std@@@std@@V?$_Tree_val@U?$_Tree_simple_types@U?$pair@$$CBKV?$basic_string@DU?$char_traits@D@std@@V?$allocator@D@2@@std@@@std@@@std@@@2@$00@std@@QAE@U_Zero_then_variadic_args_t@1@@Z ; std::_Compressed_pair<std::allocator<std::_Tree_node<std::pair<unsigned long const ,std::basic_string<char,std::char_traits<char>,std::allocator<char> > >,void *> >,std::_Tree_val<std::_Tree_simple_types<std::pair<unsigned long const ,std::basic_string<char,std::char_traits<char>,std::allocator<char> > > > >,1>::_Compressed_pair<std::allocator<std::_Tree_node<std::pair<unsigned long const ,std::basic_string<char,std::char_traits<char>,std::allocator<char> > >,void *> >,std::_Tree_val<std::_Tree_simple_types<std::pair<unsigned long const ,std::basic_string<char,std::char_traits<char>,std::allocator<char> > > > >,1><>
PUBLIC	??$?0$$V@?$_Compressed_pair@V?$allocator@U?$_Tree_node@U?$pair@$$CBEUSGuildGradeData@CPythonGuild@@@std@@PAX@std@@@std@@V?$_Tree_val@U?$_Tree_simple_types@U?$pair@$$CBEUSGuildGradeData@CPythonGuild@@@std@@@std@@@2@$00@std@@QAE@U_Zero_then_variadic_args_t@1@@Z ; std::_Compressed_pair<std::allocator<std::_Tree_node<std::pair<unsigned char const ,CPythonGuild::SGuildGradeData>,void *> >,std::_Tree_val<std::_Tree_simple_types<std::pair<unsigned char const ,CPythonGuild::SGuildGradeData> > >,1>::_Compressed_pair<std::allocator<std::_Tree_node<std::pair<unsigned char const ,CPythonGuild::SGuildGradeData>,void *> >,std::_Tree_val<std::_Tree_simple_types<std::pair<unsigned char const ,CPythonGuild::SGuildGradeData> > >,1><>
PUBLIC	??1?$_Tree_temp_node_alloc@V?$allocator@U?$_Tree_node@U?$pair@$$CBKV?$basic_string@DU?$char_traits@D@std@@V?$allocator@D@2@@std@@@std@@PAX@std@@@std@@@std@@QAE@XZ ; std::_Tree_temp_node_alloc<std::allocator<std::_Tree_node<std::pair<unsigned long const ,std::basic_string<char,std::char_traits<char>,std::allocator<char> > >,void *> > >::~_Tree_temp_node_alloc<std::allocator<std::_Tree_node<std::pair<unsigned long const ,std::basic_string<char,std::char_traits<char>,std::allocator<char> > >,void *> > >
PUBLIC	??1?$_Tree_temp_node_alloc@V?$allocator@U?$_Tree_node@U?$pair@$$CBEUSGuildGradeData@CPythonGuild@@@std@@PAX@std@@@std@@@std@@QAE@XZ ; std::_Tree_temp_node_alloc<std::allocator<std::_Tree_node<std::pair<unsigned char const ,CPythonGuild::SGuildGradeData>,void *> > >::~_Tree_temp_node_alloc<std::allocator<std::_Tree_node<std::pair<unsigned char const ,CPythonGuild::SGuildGradeData>,void *> > >
PUBLIC	??_GSGuildMemberData@CPythonGuild@@QAEPAXI@Z	; CPythonGuild::SGuildMemberData::`scalar deleting destructor'
PUBLIC	??0SGuildMemberData@CPythonGuild@@QAE@$$QAU01@@Z ; CPythonGuild::SGuildMemberData::SGuildMemberData
PUBLIC	?_Check_grow_by_1@?$_Tree@V?$_Tmap_traits@KV?$basic_string@DU?$char_traits@D@std@@V?$allocator@D@2@@std@@U?$less@K@2@V?$allocator@U?$pair@$$CBKV?$basic_string@DU?$char_traits@D@std@@V?$allocator@D@2@@std@@@std@@@2@$0A@@std@@@std@@IAEXXZ ; std::_Tree<std::_Tmap_traits<unsigned long,std::basic_string<char,std::char_traits<char>,std::allocator<char> >,std::less<unsigned long>,std::allocator<std::pair<unsigned long const ,std::basic_string<char,std::char_traits<char>,std::allocator<char> > > >,0> >::_Check_grow_by_1
PUBLIC	?_Alloc_sentinel_and_proxy@?$_Tree@V?$_Tmap_traits@KV?$basic_string@DU?$char_traits@D@std@@V?$allocator@D@2@@std@@U?$less@K@2@V?$allocator@U?$pair@$$CBKV?$basic_string@DU?$char_traits@D@std@@V?$allocator@D@2@@std@@@std@@@2@$0A@@std@@@std@@IAEXXZ ; std::_Tree<std::_Tmap_traits<unsigned long,std::basic_string<char,std::char_traits<char>,std::allocator<char> >,std::less<unsigned long>,std::allocator<std::pair<unsigned long const ,std::basic_string<char,std::char_traits<char>,std::allocator<char> > > >,0> >::_Alloc_sentinel_and_proxy
PUBLIC	?_Get_scary@?$_Tree@V?$_Tmap_traits@KV?$basic_string@DU?$char_traits@D@std@@V?$allocator@D@2@@std@@U?$less@K@2@V?$allocator@U?$pair@$$CBKV?$basic_string@DU?$char_traits@D@std@@V?$allocator@D@2@@std@@@std@@@2@$0A@@std@@@std@@IBEPBV?$_Tree_val@U?$_Tree_simple_types@U?$pair@$$CBKV?$basic_string@DU?$char_traits@D@std@@V?$allocator@D@2@@std@@@std@@@std@@@2@XZ ; std::_Tree<std::_Tmap_traits<unsigned long,std::basic_string<char,std::char_traits<char>,std::allocator<char> >,std::less<unsigned long>,std::allocator<std::pair<unsigned long const ,std::basic_string<char,std::char_traits<char>,std::allocator<char> > > >,0> >::_Get_scary
PUBLIC	?_Insert_node@?$_Tree_val@U?$_Tree_simple_types@U?$pair@$$CBKV?$basic_string@DU?$char_traits@D@std@@V?$allocator@D@2@@std@@@std@@@std@@@std@@QAEPAU?$_Tree_node@U?$pair@$$CBKV?$basic_string@DU?$char_traits@D@std@@V?$allocator@D@2@@std@@@std@@PAX@2@U?$_Tree_id@PAU?$_Tree_node@U?$pair@$$CBKV?$basic_string@DU?$char_traits@D@std@@V?$allocator@D@2@@std@@@std@@PAX@std@@@2@QAU32@@Z ; std::_Tree_val<std::_Tree_simple_types<std::pair<unsigned long const ,std::basic_string<char,std::char_traits<char>,std::allocator<char> > > > >::_Insert_node
PUBLIC	?_Get_first@?$_Compressed_pair@V?$allocator@U?$_Tree_node@U?$pair@$$CBKV?$basic_string@DU?$char_traits@D@std@@V?$allocator@D@2@@std@@@std@@PAX@std@@@std@@V?$_Tree_val@U?$_Tree_simple_types@U?$pair@$$CBKV?$basic_string@DU?$char_traits@D@std@@V?$allocator@D@2@@std@@@std@@@std@@@2@$00@std@@QAEAAV?$allocator@U?$_Tree_node@U?$pair@$$CBKV?$basic_string@DU?$char_traits@D@std@@V?$allocator@D@2@@std@@@std@@PAX@std@@@2@XZ ; std::_Compressed_pair<std::allocator<std::_Tree_node<std::pair<unsigned long const ,std::basic_string<char,std::char_traits<char>,std::allocator<char> > >,void *> >,std::_Tree_val<std::_Tree_simple_types<std::pair<unsigned long const ,std::basic_string<char,std::char_traits<char>,std::allocator<char> > > > >,1>::_Get_first
PUBLIC	??0?$allocator@USGuildMemberData@CPythonGuild@@@std@@QAE@XZ ; std::allocator<CPythonGuild::SGuildMemberData>::allocator<CPythonGuild::SGuildMemberData>
PUBLIC	?deallocate@?$allocator@USGuildMemberData@CPythonGuild@@@std@@QAEXQAUSGuildMemberData@CPythonGuild@@I@Z ; std::allocator<CPythonGuild::SGuildMemberData>::deallocate
PUBLIC	??0?$allocator@USGuildBoardCommentData@CPythonGuild@@@std@@QAE@XZ ; std::allocator<CPythonGuild::SGuildBoardCommentData>::allocator<CPythonGuild::SGuildBoardCommentData>
PUBLIC	?deallocate@?$allocator@USGuildBoardCommentData@CPythonGuild@@@std@@QAEXQAUSGuildBoardCommentData@CPythonGuild@@I@Z ; std::allocator<CPythonGuild::SGuildBoardCommentData>::deallocate
PUBLIC	?_Check_grow_by_1@?$_Tree@V?$_Tmap_traits@EUSGuildGradeData@CPythonGuild@@U?$less@E@std@@V?$allocator@U?$pair@$$CBEUSGuildGradeData@CPythonGuild@@@std@@@4@$0A@@std@@@std@@IAEXXZ ; std::_Tree<std::_Tmap_traits<unsigned char,CPythonGuild::SGuildGradeData,std::less<unsigned char>,std::allocator<std::pair<unsigned char const ,CPythonGuild::SGuildGradeData> >,0> >::_Check_grow_by_1
PUBLIC	?_Alloc_sentinel_and_proxy@?$_Tree@V?$_Tmap_traits@EUSGuildGradeData@CPythonGuild@@U?$less@E@std@@V?$allocator@U?$pair@$$CBEUSGuildGradeData@CPythonGuild@@@std@@@4@$0A@@std@@@std@@IAEXXZ ; std::_Tree<std::_Tmap_traits<unsigned char,CPythonGuild::SGuildGradeData,std::less<unsigned char>,std::allocator<std::pair<unsigned char const ,CPythonGuild::SGuildGradeData> >,0> >::_Alloc_sentinel_and_proxy
PUBLIC	?_Get_scary@?$_Tree@V?$_Tmap_traits@EUSGuildGradeData@CPythonGuild@@U?$less@E@std@@V?$allocator@U?$pair@$$CBEUSGuildGradeData@CPythonGuild@@@std@@@4@$0A@@std@@@std@@IBEPBV?$_Tree_val@U?$_Tree_simple_types@U?$pair@$$CBEUSGuildGradeData@CPythonGuild@@@std@@@std@@@2@XZ ; std::_Tree<std::_Tmap_traits<unsigned char,CPythonGuild::SGuildGradeData,std::less<unsigned char>,std::allocator<std::pair<unsigned char const ,CPythonGuild::SGuildGradeData> >,0> >::_Get_scary
PUBLIC	?_Insert_node@?$_Tree_val@U?$_Tree_simple_types@U?$pair@$$CBEUSGuildGradeData@CPythonGuild@@@std@@@std@@@std@@QAEPAU?$_Tree_node@U?$pair@$$CBEUSGuildGradeData@CPythonGuild@@@std@@PAX@2@U?$_Tree_id@PAU?$_Tree_node@U?$pair@$$CBEUSGuildGradeData@CPythonGuild@@@std@@PAX@std@@@2@QAU32@@Z ; std::_Tree_val<std::_Tree_simple_types<std::pair<unsigned char const ,CPythonGuild::SGuildGradeData> > >::_Insert_node
PUBLIC	??D?$_Tree_const_iterator@V?$_Tree_val@U?$_Tree_simple_types@U?$pair@$$CBEUSGuildGradeData@CPythonGuild@@@std@@@std@@@std@@@std@@QBEABU?$pair@$$CBEUSGuildGradeData@CPythonGuild@@@1@XZ ; std::_Tree_const_iterator<std::_Tree_val<std::_Tree_simple_types<std::pair<unsigned char const ,CPythonGuild::SGuildGradeData> > > >::operator*
PUBLIC	?_Get_first@?$_Compressed_pair@V?$allocator@U?$_Tree_node@U?$pair@$$CBEUSGuildGradeData@CPythonGuild@@@std@@PAX@std@@@std@@V?$_Tree_val@U?$_Tree_simple_types@U?$pair@$$CBEUSGuildGradeData@CPythonGuild@@@std@@@std@@@2@$00@std@@QAEAAV?$allocator@U?$_Tree_node@U?$pair@$$CBEUSGuildGradeData@CPythonGuild@@@std@@PAX@std@@@2@XZ ; std::_Compressed_pair<std::allocator<std::_Tree_node<std::pair<unsigned char const ,CPythonGuild::SGuildGradeData>,void *> >,std::_Tree_val<std::_Tree_simple_types<std::pair<unsigned char const ,CPythonGuild::SGuildGradeData> > >,1>::_Get_first
PUBLIC	??0?$_Vector_val@U?$_Simple_types@USGuildMemberData@CPythonGuild@@@std@@@std@@QAE@XZ ; std::_Vector_val<std::_Simple_types<CPythonGuild::SGuildMemberData> >::_Vector_val<std::_Simple_types<CPythonGuild::SGuildMemberData> >
PUBLIC	?_Seek_to@?$_Vector_const_iterator@V?$_Vector_val@U?$_Simple_types@USGuildMemberData@CPythonGuild@@@std@@@std@@@std@@QAEXPBUSGuildMemberData@CPythonGuild@@@Z ; std::_Vector_const_iterator<std::_Vector_val<std::_Simple_types<CPythonGuild::SGuildMemberData> > >::_Seek_to
PUBLIC	?_Get_first@?$_Compressed_pair@V?$allocator@USGuildMemberData@CPythonGuild@@@std@@V?$_Vector_val@U?$_Simple_types@USGuildMemberData@CPythonGuild@@@std@@@2@$00@std@@QAEAAV?$allocator@USGuildMemberData@CPythonGuild@@@2@XZ ; std::_Compressed_pair<std::allocator<CPythonGuild::SGuildMemberData>,std::_Vector_val<std::_Simple_types<CPythonGuild::SGuildMemberData> >,1>::_Get_first
PUBLIC	??0?$_Vector_val@U?$_Simple_types@USGuildBoardCommentData@CPythonGuild@@@std@@@std@@QAE@XZ ; std::_Vector_val<std::_Simple_types<CPythonGuild::SGuildBoardCommentData> >::_Vector_val<std::_Simple_types<CPythonGuild::SGuildBoardCommentData> >
PUBLIC	?_Get_first@?$_Compressed_pair@V?$allocator@USGuildBoardCommentData@CPythonGuild@@@std@@V?$_Vector_val@U?$_Simple_types@USGuildBoardCommentData@CPythonGuild@@@std@@@2@$00@std@@QAEAAV?$allocator@USGuildBoardCommentData@CPythonGuild@@@2@XZ ; std::_Compressed_pair<std::allocator<CPythonGuild::SGuildBoardCommentData>,std::_Vector_val<std::_Simple_types<CPythonGuild::SGuildBoardCommentData> >,1>::_Get_first
PUBLIC	??1?$_Tree_temp_node@V?$allocator@U?$_Tree_node@U?$pair@$$CBEUSGuildGradeData@CPythonGuild@@@std@@PAX@std@@@std@@@std@@QAE@XZ ; std::_Tree_temp_node<std::allocator<std::_Tree_node<std::pair<unsigned char const ,CPythonGuild::SGuildGradeData>,void *> > >::~_Tree_temp_node<std::allocator<std::_Tree_node<std::pair<unsigned char const ,CPythonGuild::SGuildGradeData>,void *> > >
PUBLIC	?_Release@?$_Alloc_construct_ptr@V?$allocator@U?$_Tree_node@U?$pair@$$CBEUSGuildGradeData@CPythonGuild@@@std@@PAX@std@@@std@@@std@@QAEPAU?$_Tree_node@U?$pair@$$CBEUSGuildGradeData@CPythonGuild@@@std@@PAX@2@XZ ; std::_Alloc_construct_ptr<std::allocator<std::_Tree_node<std::pair<unsigned char const ,CPythonGuild::SGuildGradeData>,void *> > >::_Release
PUBLIC	??1?$_Tree_temp_node@V?$allocator@U?$_Tree_node@U?$pair@$$CBKV?$basic_string@DU?$char_traits@D@std@@V?$allocator@D@2@@std@@@std@@PAX@std@@@std@@@std@@QAE@XZ ; std::_Tree_temp_node<std::allocator<std::_Tree_node<std::pair<unsigned long const ,std::basic_string<char,std::char_traits<char>,std::allocator<char> > >,void *> > >::~_Tree_temp_node<std::allocator<std::_Tree_node<std::pair<unsigned long const ,std::basic_string<char,std::char_traits<char>,std::allocator<char> > >,void *> > >
PUBLIC	?_Release@?$_Alloc_construct_ptr@V?$allocator@U?$_Tree_node@U?$pair@$$CBKV?$basic_string@DU?$char_traits@D@std@@V?$allocator@D@2@@std@@@std@@PAX@std@@@std@@@std@@QAEPAU?$_Tree_node@U?$pair@$$CBKV?$basic_string@DU?$char_traits@D@std@@V?$allocator@D@2@@std@@@std@@PAX@2@XZ ; std::_Alloc_construct_ptr<std::allocator<std::_Tree_node<std::pair<unsigned long const ,std::basic_string<char,std::char_traits<char>,std::allocator<char> > >,void *> > >::_Release
PUBLIC	??$?0ABU?$less@K@std@@U_Zero_then_variadic_args_t@1@@?$_Compressed_pair@U?$less@K@std@@V?$_Compressed_pair@V?$allocator@U?$_Tree_node@U?$pair@$$CBKV?$basic_string@DU?$char_traits@D@std@@V?$allocator@D@2@@std@@@std@@PAX@std@@@std@@V?$_Tree_val@U?$_Tree_simple_types@U?$pair@$$CBKV?$basic_string@DU?$char_traits@D@std@@V?$allocator@D@2@@std@@@std@@@std@@@2@$00@2@$00@std@@QAE@U_One_then_variadic_args_t@1@ABU?$less@K@1@$$QAU_Zero_then_variadic_args_t@1@@Z ; std::_Compressed_pair<std::less<unsigned long>,std::_Compressed_pair<std::allocator<std::_Tree_node<std::pair<unsigned long const ,std::basic_string<char,std::char_traits<char>,std::allocator<char> > >,void *> >,std::_Tree_val<std::_Tree_simple_types<std::pair<unsigned long const ,std::basic_string<char,std::char_traits<char>,std::allocator<char> > > > >,1>,1>::_Compressed_pair<std::less<unsigned long>,std::_Compressed_pair<std::allocator<std::_Tree_node<std::pair<unsigned long const ,std::basic_string<char,std::char_traits<char>,std::allocator<char> > >,void *> >,std::_Tree_val<std::_Tree_simple_types<std::pair<unsigned long const ,std::basic_string<char,std::char_traits<char>,std::allocator<char> > > > >,1>,1><std::less<unsigned long> const &,std::_Zero_then_variadic_args_t>
PUBLIC	??$addressof@V?$_Tree_val@U?$_Tree_simple_types@U?$pair@$$CBKV?$basic_string@DU?$char_traits@D@std@@V?$allocator@D@2@@std@@@std@@@std@@@std@@@std@@YAPAV?$_Tree_val@U?$_Tree_simple_types@U?$pair@$$CBKV?$basic_string@DU?$char_traits@D@std@@V?$allocator@D@2@@std@@@std@@@std@@@0@AAV10@@Z ; std::addressof<std::_Tree_val<std::_Tree_simple_types<std::pair<unsigned long const ,std::basic_string<char,std::char_traits<char>,std::allocator<char> > > > > >
PUBLIC	??$?0ABU?$less@E@std@@U_Zero_then_variadic_args_t@1@@?$_Compressed_pair@U?$less@E@std@@V?$_Compressed_pair@V?$allocator@U?$_Tree_node@U?$pair@$$CBEUSGuildGradeData@CPythonGuild@@@std@@PAX@std@@@std@@V?$_Tree_val@U?$_Tree_simple_types@U?$pair@$$CBEUSGuildGradeData@CPythonGuild@@@std@@@std@@@2@$00@2@$00@std@@QAE@U_One_then_variadic_args_t@1@ABU?$less@E@1@$$QAU_Zero_then_variadic_args_t@1@@Z ; std::_Compressed_pair<std::less<unsigned char>,std::_Compressed_pair<std::allocator<std::_Tree_node<std::pair<unsigned char const ,CPythonGuild::SGuildGradeData>,void *> >,std::_Tree_val<std::_Tree_simple_types<std::pair<unsigned char const ,CPythonGuild::SGuildGradeData> > >,1>,1>::_Compressed_pair<std::less<unsigned char>,std::_Compressed_pair<std::allocator<std::_Tree_node<std::pair<unsigned char const ,CPythonGuild::SGuildGradeData>,void *> >,std::_Tree_val<std::_Tree_simple_types<std::pair<unsigned char const ,CPythonGuild::SGuildGradeData> > >,1>,1><std::less<unsigned char> const &,std::_Zero_then_variadic_args_t>
PUBLIC	??$addressof@V?$_Tree_val@U?$_Tree_simple_types@U?$pair@$$CBEUSGuildGradeData@CPythonGuild@@@std@@@std@@@std@@@std@@YAPAV?$_Tree_val@U?$_Tree_simple_types@U?$pair@$$CBEUSGuildGradeData@CPythonGuild@@@std@@@std@@@0@AAV10@@Z ; std::addressof<std::_Tree_val<std::_Tree_simple_types<std::pair<unsigned char const ,CPythonGuild::SGuildGradeData> > > >
PUBLIC	??$addressof@U?$pair@$$CBEUSGuildGradeData@CPythonGuild@@@std@@@std@@YAPAU?$pair@$$CBEUSGuildGradeData@CPythonGuild@@@0@AAU10@@Z ; std::addressof<std::pair<unsigned char const ,CPythonGuild::SGuildGradeData> >
PUBLIC	??$?0PAU?$_Tree_node@U?$pair@$$CBKV?$basic_string@DU?$char_traits@D@std@@V?$allocator@D@2@@std@@@std@@PAX@std@@_N$0A@@?$pair@PAU?$_Tree_node@U?$pair@$$CBKV?$basic_string@DU?$char_traits@D@std@@V?$allocator@D@2@@std@@@std@@PAX@std@@_N@std@@QAE@$$QAPAU?$_Tree_node@U?$pair@$$CBKV?$basic_string@DU?$char_traits@D@std@@V?$allocator@D@2@@std@@@std@@PAX@1@$$QA_N@Z ; std::pair<std::_Tree_node<std::pair<unsigned long const ,std::basic_string<char,std::char_traits<char>,std::allocator<char> > >,void *> *,bool>::pair<std::_Tree_node<std::pair<unsigned long const ,std::basic_string<char,std::char_traits<char>,std::allocator<char> > >,void *> *,bool><std::_Tree_node<std::pair<unsigned long const ,std::basic_string<char,std::char_traits<char>,std::allocator<char> > >,void *> *,bool,0>
PUBLIC	??$?0ABQAU?$_Tree_node@U?$pair@$$CBKV?$basic_string@DU?$char_traits@D@std@@V?$allocator@D@2@@std@@@std@@PAX@std@@_N$0A@@?$pair@PAU?$_Tree_node@U?$pair@$$CBKV?$basic_string@DU?$char_traits@D@std@@V?$allocator@D@2@@std@@@std@@PAX@std@@_N@std@@QAE@ABQAU?$_Tree_node@U?$pair@$$CBKV?$basic_string@DU?$char_traits@D@std@@V?$allocator@D@2@@std@@@std@@PAX@1@$$QA_N@Z ; std::pair<std::_Tree_node<std::pair<unsigned long const ,std::basic_string<char,std::char_traits<char>,std::allocator<char> > >,void *> *,bool>::pair<std::_Tree_node<std::pair<unsigned long const ,std::basic_string<char,std::char_traits<char>,std::allocator<char> > >,void *> *,bool><std::_Tree_node<std::pair<unsigned long const ,std::basic_string<char,std::char_traits<char>,std::allocator<char> > >,void *> * const &,bool,0>
PUBLIC	??$?0ABUpiecewise_construct_t@std@@V?$tuple@ABK@1@V?$tuple@$$V@1@@?$_Tree_temp_node@V?$allocator@U?$_Tree_node@U?$pair@$$CBKV?$basic_string@DU?$char_traits@D@std@@V?$allocator@D@2@@std@@@std@@PAX@std@@@std@@@std@@QAE@AAV?$allocator@U?$_Tree_node@U?$pair@$$CBKV?$basic_string@DU?$char_traits@D@std@@V?$allocator@D@2@@std@@@std@@PAX@std@@@1@PAU?$_Tree_node@U?$pair@$$CBKV?$basic_string@DU?$char_traits@D@std@@V?$allocator@D@2@@std@@@std@@PAX@1@ABUpiecewise_construct_t@1@$$QAV?$tuple@ABK@1@$$QAV?$tuple@$$V@1@@Z ; std::_Tree_temp_node<std::allocator<std::_Tree_node<std::pair<unsigned long const ,std::basic_string<char,std::char_traits<char>,std::allocator<char> > >,void *> > >::_Tree_temp_node<std::allocator<std::_Tree_node<std::pair<unsigned long const ,std::basic_string<char,std::char_traits<char>,std::allocator<char> > >,void *> > ><std::piecewise_construct_t const &,std::tuple<unsigned long const &>,std::tuple<> >
PUBLIC	??$_Freenode0@V?$allocator@U?$_Tree_node@U?$pair@$$CBKV?$basic_string@DU?$char_traits@D@std@@V?$allocator@D@2@@std@@@std@@PAX@std@@@std@@@?$_Tree_node@U?$pair@$$CBKV?$basic_string@DU?$char_traits@D@std@@V?$allocator@D@2@@std@@@std@@PAX@std@@SAXAAV?$allocator@U?$_Tree_node@U?$pair@$$CBKV?$basic_string@DU?$char_traits@D@std@@V?$allocator@D@2@@std@@@std@@PAX@std@@@1@PAU01@@Z ; std::_Tree_node<std::pair<unsigned long const ,std::basic_string<char,std::char_traits<char>,std::allocator<char> > >,void *>::_Freenode0<std::allocator<std::_Tree_node<std::pair<unsigned long const ,std::basic_string<char,std::char_traits<char>,std::allocator<char> > >,void *> > >
PUBLIC	??$_Freenode@V?$allocator@U?$_Tree_node@U?$pair@$$CBKV?$basic_string@DU?$char_traits@D@std@@V?$allocator@D@2@@std@@@std@@PAX@std@@@std@@@?$_Tree_node@U?$pair@$$CBKV?$basic_string@DU?$char_traits@D@std@@V?$allocator@D@2@@std@@@std@@PAX@std@@SAXAAV?$allocator@U?$_Tree_node@U?$pair@$$CBKV?$basic_string@DU?$char_traits@D@std@@V?$allocator@D@2@@std@@@std@@PAX@std@@@1@PAU01@@Z ; std::_Tree_node<std::pair<unsigned long const ,std::basic_string<char,std::char_traits<char>,std::allocator<char> > >,void *>::_Freenode<std::allocator<std::_Tree_node<std::pair<unsigned long const ,std::basic_string<char,std::char_traits<char>,std::allocator<char> > >,void *> > >
PUBLIC	??$exchange@PAU?$_Tree_node@U?$pair@$$CBKV?$basic_string@DU?$char_traits@D@std@@V?$allocator@D@2@@std@@@std@@PAX@std@@AAPAU12@@std@@YAPAU?$_Tree_node@U?$pair@$$CBKV?$basic_string@DU?$char_traits@D@std@@V?$allocator@D@2@@std@@@std@@PAX@0@AAPAU10@0@Z ; std::exchange<std::_Tree_node<std::pair<unsigned long const ,std::basic_string<char,std::char_traits<char>,std::allocator<char> > >,void *> *,std::_Tree_node<std::pair<unsigned long const ,std::basic_string<char,std::char_traits<char>,std::allocator<char> > >,void *> * &>
PUBLIC	??$_Lower_bound_duplicate@K@?$_Tree@V?$_Tmap_traits@KV?$basic_string@DU?$char_traits@D@std@@V?$allocator@D@2@@std@@U?$less@K@2@V?$allocator@U?$pair@$$CBKV?$basic_string@DU?$char_traits@D@std@@V?$allocator@D@2@@std@@@std@@@2@$0A@@std@@@std@@IBE_NQAU?$_Tree_node@U?$pair@$$CBKV?$basic_string@DU?$char_traits@D@std@@V?$allocator@D@2@@std@@@std@@PAX@1@ABK@Z ; std::_Tree<std::_Tmap_traits<unsigned long,std::basic_string<char,std::char_traits<char>,std::allocator<char> >,std::less<unsigned long>,std::allocator<std::pair<unsigned long const ,std::basic_string<char,std::char_traits<char>,std::allocator<char> > > >,0> >::_Lower_bound_duplicate<unsigned long>
PUBLIC	??$_Find_lower_bound@K@?$_Tree@V?$_Tmap_traits@KV?$basic_string@DU?$char_traits@D@std@@V?$allocator@D@2@@std@@U?$less@K@2@V?$allocator@U?$pair@$$CBKV?$basic_string@DU?$char_traits@D@std@@V?$allocator@D@2@@std@@@std@@@2@$0A@@std@@@std@@IBE?AU?$_Tree_find_result@PAU?$_Tree_node@U?$pair@$$CBKV?$basic_string@DU?$char_traits@D@std@@V?$allocator@D@2@@std@@@std@@PAX@std@@@1@ABK@Z ; std::_Tree<std::_Tmap_traits<unsigned long,std::basic_string<char,std::char_traits<char>,std::allocator<char> >,std::less<unsigned long>,std::allocator<std::pair<unsigned long const ,std::basic_string<char,std::char_traits<char>,std::allocator<char> > > >,0> >::_Find_lower_bound<unsigned long>
PUBLIC	??$?0PAU?$_Tree_node@U?$pair@$$CBEUSGuildGradeData@CPythonGuild@@@std@@PAX@std@@_N$0A@@?$pair@PAU?$_Tree_node@U?$pair@$$CBEUSGuildGradeData@CPythonGuild@@@std@@PAX@std@@_N@std@@QAE@$$QAPAU?$_Tree_node@U?$pair@$$CBEUSGuildGradeData@CPythonGuild@@@std@@PAX@1@$$QA_N@Z ; std::pair<std::_Tree_node<std::pair<unsigned char const ,CPythonGuild::SGuildGradeData>,void *> *,bool>::pair<std::_Tree_node<std::pair<unsigned char const ,CPythonGuild::SGuildGradeData>,void *> *,bool><std::_Tree_node<std::pair<unsigned char const ,CPythonGuild::SGuildGradeData>,void *> *,bool,0>
PUBLIC	??$?0ABQAU?$_Tree_node@U?$pair@$$CBEUSGuildGradeData@CPythonGuild@@@std@@PAX@std@@_N$0A@@?$pair@PAU?$_Tree_node@U?$pair@$$CBEUSGuildGradeData@CPythonGuild@@@std@@PAX@std@@_N@std@@QAE@ABQAU?$_Tree_node@U?$pair@$$CBEUSGuildGradeData@CPythonGuild@@@std@@PAX@1@$$QA_N@Z ; std::pair<std::_Tree_node<std::pair<unsigned char const ,CPythonGuild::SGuildGradeData>,void *> *,bool>::pair<std::_Tree_node<std::pair<unsigned char const ,CPythonGuild::SGuildGradeData>,void *> *,bool><std::_Tree_node<std::pair<unsigned char const ,CPythonGuild::SGuildGradeData>,void *> * const &,bool,0>
PUBLIC	??$?0ABUpiecewise_construct_t@std@@V?$tuple@ABE@1@V?$tuple@$$V@1@@?$_Tree_temp_node@V?$allocator@U?$_Tree_node@U?$pair@$$CBEUSGuildGradeData@CPythonGuild@@@std@@PAX@std@@@std@@@std@@QAE@AAV?$allocator@U?$_Tree_node@U?$pair@$$CBEUSGuildGradeData@CPythonGuild@@@std@@PAX@std@@@1@PAU?$_Tree_node@U?$pair@$$CBEUSGuildGradeData@CPythonGuild@@@std@@PAX@1@ABUpiecewise_construct_t@1@$$QAV?$tuple@ABE@1@$$QAV?$tuple@$$V@1@@Z ; std::_Tree_temp_node<std::allocator<std::_Tree_node<std::pair<unsigned char const ,CPythonGuild::SGuildGradeData>,void *> > >::_Tree_temp_node<std::allocator<std::_Tree_node<std::pair<unsigned char const ,CPythonGuild::SGuildGradeData>,void *> > ><std::piecewise_construct_t const &,std::tuple<unsigned char const &>,std::tuple<> >
PUBLIC	??$forward_as_tuple@ABE@std@@YA?AV?$tuple@ABE@0@ABE@Z ; std::forward_as_tuple<unsigned char const &>
PUBLIC	??$_Emplace_reallocate@ABUSGuildMemberData@CPythonGuild@@@?$vector@USGuildMemberData@CPythonGuild@@V?$allocator@USGuildMemberData@CPythonGuild@@@std@@@std@@AAEPAUSGuildMemberData@CPythonGuild@@QAU23@ABU23@@Z ; std::vector<CPythonGuild::SGuildMemberData,std::allocator<CPythonGuild::SGuildMemberData> >::_Emplace_reallocate<CPythonGuild::SGuildMemberData const &>
PUBLIC	??$_Emplace_back_with_unused_capacity@ABUSGuildMemberData@CPythonGuild@@@?$vector@USGuildMemberData@CPythonGuild@@V?$allocator@USGuildMemberData@CPythonGuild@@@std@@@std@@AAEAAUSGuildMemberData@CPythonGuild@@ABU23@@Z ; std::vector<CPythonGuild::SGuildMemberData,std::allocator<CPythonGuild::SGuildMemberData> >::_Emplace_back_with_unused_capacity<CPythonGuild::SGuildMemberData const &>
PUBLIC	??$forward@ABUSGuildMemberData@CPythonGuild@@@std@@YAABUSGuildMemberData@CPythonGuild@@ABU12@@Z ; std::forward<CPythonGuild::SGuildMemberData const &>
PUBLIC	??1SGuildMemberData@CPythonGuild@@QAE@XZ	; CPythonGuild::SGuildMemberData::~SGuildMemberData
PUBLIC	??$destroy_at@USGuildMemberData@CPythonGuild@@@std@@YAXQAUSGuildMemberData@CPythonGuild@@@Z ; std::destroy_at<CPythonGuild::SGuildMemberData>
PUBLIC	??$move@AAUSGuildMemberData@CPythonGuild@@@std@@YA$$QAUSGuildMemberData@CPythonGuild@@AAU12@@Z ; std::move<CPythonGuild::SGuildMemberData &>
PUBLIC	??$_Emplace_reallocate@ABUSGuildBoardCommentData@CPythonGuild@@@?$vector@USGuildBoardCommentData@CPythonGuild@@V?$allocator@USGuildBoardCommentData@CPythonGuild@@@std@@@std@@AAEPAUSGuildBoardCommentData@CPythonGuild@@QAU23@ABU23@@Z ; std::vector<CPythonGuild::SGuildBoardCommentData,std::allocator<CPythonGuild::SGuildBoardCommentData> >::_Emplace_reallocate<CPythonGuild::SGuildBoardCommentData const &>
PUBLIC	??$_Emplace_back_with_unused_capacity@ABUSGuildBoardCommentData@CPythonGuild@@@?$vector@USGuildBoardCommentData@CPythonGuild@@V?$allocator@USGuildBoardCommentData@CPythonGuild@@@std@@@std@@AAEAAUSGuildBoardCommentData@CPythonGuild@@ABU23@@Z ; std::vector<CPythonGuild::SGuildBoardCommentData,std::allocator<CPythonGuild::SGuildBoardCommentData> >::_Emplace_back_with_unused_capacity<CPythonGuild::SGuildBoardCommentData const &>
PUBLIC	??$forward@ABUSGuildBoardCommentData@CPythonGuild@@@std@@YAABUSGuildBoardCommentData@CPythonGuild@@ABU12@@Z ; std::forward<CPythonGuild::SGuildBoardCommentData const &>
PUBLIC	??$destroy@USGuildBoardCommentData@CPythonGuild@@@?$_Default_allocator_traits@V?$allocator@USGuildBoardCommentData@CPythonGuild@@@std@@@std@@SAXAAV?$allocator@USGuildBoardCommentData@CPythonGuild@@@1@QAUSGuildBoardCommentData@CPythonGuild@@@Z ; std::_Default_allocator_traits<std::allocator<CPythonGuild::SGuildBoardCommentData> >::destroy<CPythonGuild::SGuildBoardCommentData>
PUBLIC	??$_Unfancy@USGuildBoardCommentData@CPythonGuild@@@std@@YAPAUSGuildBoardCommentData@CPythonGuild@@PAU12@@Z ; std::_Unfancy<CPythonGuild::SGuildBoardCommentData>
PUBLIC	??$_Freenode0@V?$allocator@U?$_Tree_node@U?$pair@$$CBEUSGuildGradeData@CPythonGuild@@@std@@PAX@std@@@std@@@?$_Tree_node@U?$pair@$$CBEUSGuildGradeData@CPythonGuild@@@std@@PAX@std@@SAXAAV?$allocator@U?$_Tree_node@U?$pair@$$CBEUSGuildGradeData@CPythonGuild@@@std@@PAX@std@@@1@PAU01@@Z ; std::_Tree_node<std::pair<unsigned char const ,CPythonGuild::SGuildGradeData>,void *>::_Freenode0<std::allocator<std::_Tree_node<std::pair<unsigned char const ,CPythonGuild::SGuildGradeData>,void *> > >
PUBLIC	??$_Freenode@V?$allocator@U?$_Tree_node@U?$pair@$$CBEUSGuildGradeData@CPythonGuild@@@std@@PAX@std@@@std@@@?$_Tree_node@U?$pair@$$CBEUSGuildGradeData@CPythonGuild@@@std@@PAX@std@@SAXAAV?$allocator@U?$_Tree_node@U?$pair@$$CBEUSGuildGradeData@CPythonGuild@@@std@@PAX@std@@@1@PAU01@@Z ; std::_Tree_node<std::pair<unsigned char const ,CPythonGuild::SGuildGradeData>,void *>::_Freenode<std::allocator<std::_Tree_node<std::pair<unsigned char const ,CPythonGuild::SGuildGradeData>,void *> > >
PUBLIC	??$exchange@PAU?$_Tree_node@U?$pair@$$CBEUSGuildGradeData@CPythonGuild@@@std@@PAX@std@@AAPAU12@@std@@YAPAU?$_Tree_node@U?$pair@$$CBEUSGuildGradeData@CPythonGuild@@@std@@PAX@0@AAPAU10@0@Z ; std::exchange<std::_Tree_node<std::pair<unsigned char const ,CPythonGuild::SGuildGradeData>,void *> *,std::_Tree_node<std::pair<unsigned char const ,CPythonGuild::SGuildGradeData>,void *> * &>
PUBLIC	??$_Lower_bound_duplicate@E@?$_Tree@V?$_Tmap_traits@EUSGuildGradeData@CPythonGuild@@U?$less@E@std@@V?$allocator@U?$pair@$$CBEUSGuildGradeData@CPythonGuild@@@std@@@4@$0A@@std@@@std@@IBE_NQAU?$_Tree_node@U?$pair@$$CBEUSGuildGradeData@CPythonGuild@@@std@@PAX@1@ABE@Z ; std::_Tree<std::_Tmap_traits<unsigned char,CPythonGuild::SGuildGradeData,std::less<unsigned char>,std::allocator<std::pair<unsigned char const ,CPythonGuild::SGuildGradeData> >,0> >::_Lower_bound_duplicate<unsigned char>
PUBLIC	??$_Find_lower_bound@E@?$_Tree@V?$_Tmap_traits@EUSGuildGradeData@CPythonGuild@@U?$less@E@std@@V?$allocator@U?$pair@$$CBEUSGuildGradeData@CPythonGuild@@@std@@@4@$0A@@std@@@std@@IBE?AU?$_Tree_find_result@PAU?$_Tree_node@U?$pair@$$CBEUSGuildGradeData@CPythonGuild@@@std@@PAX@std@@@1@ABE@Z ; std::_Tree<std::_Tmap_traits<unsigned char,CPythonGuild::SGuildGradeData,std::less<unsigned char>,std::allocator<std::pair<unsigned char const ,CPythonGuild::SGuildGradeData> >,0> >::_Find_lower_bound<unsigned char>
PUBLIC	??$_Emplace@U?$pair@HH@std@@@?$_Tree@V?$_Tmap_traits@KKU?$less@K@std@@V?$allocator@U?$pair@$$CBKK@std@@@2@$0A@@std@@@std@@IAE?AU?$pair@PAU?$_Tree_node@U?$pair@$$CBKK@std@@PAX@std@@_N@1@$$QAU?$pair@HH@1@@Z ; std::_Tree<std::_Tmap_traits<unsigned long,unsigned long,std::less<unsigned long>,std::allocator<std::pair<unsigned long const ,unsigned long> >,0> >::_Emplace<std::pair<int,int> >
PUBLIC	??$_Partition_by_median_guess_unchecked@PAUSGuildMemberData@CPythonGuild@@UCPythonGuild_SLessMemberGrade@@@std@@YA?AU?$pair@PAUSGuildMemberData@CPythonGuild@@PAU12@@0@PAUSGuildMemberData@CPythonGuild@@0UCPythonGuild_SLessMemberGrade@@@Z ; std::_Partition_by_median_guess_unchecked<CPythonGuild::SGuildMemberData *,CPythonGuild_SLessMemberGrade>
PUBLIC	??$_Sort_heap_unchecked@PAUSGuildMemberData@CPythonGuild@@UCPythonGuild_SLessMemberGrade@@@std@@YAXPAUSGuildMemberData@CPythonGuild@@0UCPythonGuild_SLessMemberGrade@@@Z ; std::_Sort_heap_unchecked<CPythonGuild::SGuildMemberData *,CPythonGuild_SLessMemberGrade>
PUBLIC	??$_Make_heap_unchecked@PAUSGuildMemberData@CPythonGuild@@UCPythonGuild_SLessMemberGrade@@@std@@YAXPAUSGuildMemberData@CPythonGuild@@0UCPythonGuild_SLessMemberGrade@@@Z ; std::_Make_heap_unchecked<CPythonGuild::SGuildMemberData *,CPythonGuild_SLessMemberGrade>
PUBLIC	??$_Insertion_sort_unchecked@PAUSGuildMemberData@CPythonGuild@@UCPythonGuild_SLessMemberGrade@@@std@@YAPAUSGuildMemberData@CPythonGuild@@QAU12@0UCPythonGuild_SLessMemberGrade@@@Z ; std::_Insertion_sort_unchecked<CPythonGuild::SGuildMemberData *,CPythonGuild_SLessMemberGrade>
PUBLIC	??$?0V?$_Tree_iterator@V?$_Tree_val@U?$_Tree_simple_types@U?$pair@$$CBKV?$basic_string@DU?$char_traits@D@std@@V?$allocator@D@2@@std@@@std@@@std@@@std@@@std@@AB_N$0A@@?$pair@V?$_Tree_iterator@V?$_Tree_val@U?$_Tree_simple_types@U?$pair@$$CBKV?$basic_string@DU?$char_traits@D@std@@V?$allocator@D@2@@std@@@std@@@std@@@std@@@std@@_N@std@@QAE@$$QAV?$_Tree_iterator@V?$_Tree_val@U?$_Tree_simple_types@U?$pair@$$CBKV?$basic_string@DU?$char_traits@D@std@@V?$allocator@D@2@@std@@@std@@@std@@@std@@@1@AB_N@Z ; std::pair<std::_Tree_iterator<std::_Tree_val<std::_Tree_simple_types<std::pair<unsigned long const ,std::basic_string<char,std::char_traits<char>,std::allocator<char> > > > > >,bool>::pair<std::_Tree_iterator<std::_Tree_val<std::_Tree_simple_types<std::pair<unsigned long const ,std::basic_string<char,std::char_traits<char>,std::allocator<char> > > > > >,bool><std::_Tree_iterator<std::_Tree_val<std::_Tree_simple_types<std::pair<unsigned long const ,std::basic_string<char,std::char_traits<char>,std::allocator<char> > > > > >,bool const &,0>
PUBLIC	??$_Emplace@U?$pair@KV?$basic_string@DU?$char_traits@D@std@@V?$allocator@D@2@@std@@@std@@@?$_Tree@V?$_Tmap_traits@KV?$basic_string@DU?$char_traits@D@std@@V?$allocator@D@2@@std@@U?$less@K@2@V?$allocator@U?$pair@$$CBKV?$basic_string@DU?$char_traits@D@std@@V?$allocator@D@2@@std@@@std@@@2@$0A@@std@@@std@@IAE?AU?$pair@PAU?$_Tree_node@U?$pair@$$CBKV?$basic_string@DU?$char_traits@D@std@@V?$allocator@D@2@@std@@@std@@PAX@std@@_N@1@$$QAU?$pair@KV?$basic_string@DU?$char_traits@D@std@@V?$allocator@D@2@@std@@@1@@Z ; std::_Tree<std::_Tmap_traits<unsigned long,std::basic_string<char,std::char_traits<char>,std::allocator<char> >,std::less<unsigned long>,std::allocator<std::pair<unsigned long const ,std::basic_string<char,std::char_traits<char>,std::allocator<char> > > >,0> >::_Emplace<std::pair<unsigned long,std::basic_string<char,std::char_traits<char>,std::allocator<char> > > >
PUBLIC	??$forward@AAPAUSGuildMemberData@CPythonGuild@@@std@@YAAAPAUSGuildMemberData@CPythonGuild@@AAPAU12@@Z ; std::forward<CPythonGuild::SGuildMemberData * &>
PUBLIC	??0?$_Tree@V?$_Tmap_traits@KV?$basic_string@DU?$char_traits@D@std@@V?$allocator@D@2@@std@@U?$less@K@2@V?$allocator@U?$pair@$$CBKV?$basic_string@DU?$char_traits@D@std@@V?$allocator@D@2@@std@@@std@@@2@$0A@@std@@@std@@QAE@ABU?$less@K@1@@Z ; std::_Tree<std::_Tmap_traits<unsigned long,std::basic_string<char,std::char_traits<char>,std::allocator<char> >,std::less<unsigned long>,std::allocator<std::pair<unsigned long const ,std::basic_string<char,std::char_traits<char>,std::allocator<char> > > >,0> >::_Tree<std::_Tmap_traits<unsigned long,std::basic_string<char,std::char_traits<char>,std::allocator<char> >,std::less<unsigned long>,std::allocator<std::pair<unsigned long const ,std::basic_string<char,std::char_traits<char>,std::allocator<char> > > >,0> >
PUBLIC	?_Getal@?$_Tree@V?$_Tmap_traits@KV?$basic_string@DU?$char_traits@D@std@@V?$allocator@D@2@@std@@U?$less@K@2@V?$allocator@U?$pair@$$CBKV?$basic_string@DU?$char_traits@D@std@@V?$allocator@D@2@@std@@@std@@@2@$0A@@std@@@std@@IAEAAV?$allocator@U?$_Tree_node@U?$pair@$$CBKV?$basic_string@DU?$char_traits@D@std@@V?$allocator@D@2@@std@@@std@@PAX@std@@@2@XZ ; std::_Tree<std::_Tmap_traits<unsigned long,std::basic_string<char,std::char_traits<char>,std::allocator<char> >,std::less<unsigned long>,std::allocator<std::pair<unsigned long const ,std::basic_string<char,std::char_traits<char>,std::allocator<char> > > >,0> >::_Getal
PUBLIC	?_Get_scary@?$_Tree@V?$_Tmap_traits@KV?$basic_string@DU?$char_traits@D@std@@V?$allocator@D@2@@std@@U?$less@K@2@V?$allocator@U?$pair@$$CBKV?$basic_string@DU?$char_traits@D@std@@V?$allocator@D@2@@std@@@std@@@2@$0A@@std@@@std@@IAEPAV?$_Tree_val@U?$_Tree_simple_types@U?$pair@$$CBKV?$basic_string@DU?$char_traits@D@std@@V?$allocator@D@2@@std@@@std@@@std@@@2@XZ ; std::_Tree<std::_Tmap_traits<unsigned long,std::basic_string<char,std::char_traits<char>,std::allocator<char> >,std::less<unsigned long>,std::allocator<std::pair<unsigned long const ,std::basic_string<char,std::char_traits<char>,std::allocator<char> > > >,0> >::_Get_scary
PUBLIC	?_Orphan_ptr@?$_Tree_val@U?$_Tree_simple_types@U?$pair@$$CBKV?$basic_string@DU?$char_traits@D@std@@V?$allocator@D@2@@std@@@std@@@std@@@std@@QAEXQAU?$_Tree_node@U?$pair@$$CBKV?$basic_string@DU?$char_traits@D@std@@V?$allocator@D@2@@std@@@std@@PAX@2@@Z ; std::_Tree_val<std::_Tree_simple_types<std::pair<unsigned long const ,std::basic_string<char,std::char_traits<char>,std::allocator<char> > > > >::_Orphan_ptr
PUBLIC	??0?$_Tree_unchecked_const_iterator@V?$_Tree_val@U?$_Tree_simple_types@U?$pair@$$CBKV?$basic_string@DU?$char_traits@D@std@@V?$allocator@D@2@@std@@@std@@@std@@@std@@U_Iterator_base0@2@@std@@QAE@PAU?$_Tree_node@U?$pair@$$CBKV?$basic_string@DU?$char_traits@D@std@@V?$allocator@D@2@@std@@@std@@PAX@1@PBV?$_Tree_val@U?$_Tree_simple_types@U?$pair@$$CBKV?$basic_string@DU?$char_traits@D@std@@V?$allocator@D@2@@std@@@std@@@std@@@1@@Z ; std::_Tree_unchecked_const_iterator<std::_Tree_val<std::_Tree_simple_types<std::pair<unsigned long const ,std::basic_string<char,std::char_traits<char>,std::allocator<char> > > > >,std::_Iterator_base0>::_Tree_unchecked_const_iterator<std::_Tree_val<std::_Tree_simple_types<std::pair<unsigned long const ,std::basic_string<char,std::char_traits<char>,std::allocator<char> > > > >,std::_Iterator_base0>
PUBLIC	?_Tidy@?$vector@USGuildMemberData@CPythonGuild@@V?$allocator@USGuildMemberData@CPythonGuild@@@std@@@std@@AAEXXZ ; std::vector<CPythonGuild::SGuildMemberData,std::allocator<CPythonGuild::SGuildMemberData> >::_Tidy
PUBLIC	?_Orphan_range@?$vector@USGuildMemberData@CPythonGuild@@V?$allocator@USGuildMemberData@CPythonGuild@@@std@@@std@@ABEXPAUSGuildMemberData@CPythonGuild@@0@Z ; std::vector<CPythonGuild::SGuildMemberData,std::allocator<CPythonGuild::SGuildMemberData> >::_Orphan_range
PUBLIC	?_Getal@?$vector@USGuildMemberData@CPythonGuild@@V?$allocator@USGuildMemberData@CPythonGuild@@@std@@@std@@AAEAAV?$allocator@USGuildMemberData@CPythonGuild@@@2@XZ ; std::vector<CPythonGuild::SGuildMemberData,std::allocator<CPythonGuild::SGuildMemberData> >::_Getal
PUBLIC	?_Tidy@?$vector@USGuildBoardCommentData@CPythonGuild@@V?$allocator@USGuildBoardCommentData@CPythonGuild@@@std@@@std@@AAEXXZ ; std::vector<CPythonGuild::SGuildBoardCommentData,std::allocator<CPythonGuild::SGuildBoardCommentData> >::_Tidy
PUBLIC	?_Getal@?$vector@USGuildBoardCommentData@CPythonGuild@@V?$allocator@USGuildBoardCommentData@CPythonGuild@@@std@@@std@@AAEAAV?$allocator@USGuildBoardCommentData@CPythonGuild@@@2@XZ ; std::vector<CPythonGuild::SGuildBoardCommentData,std::allocator<CPythonGuild::SGuildBoardCommentData> >::_Getal
PUBLIC	??0?$_Tree@V?$_Tmap_traits@EUSGuildGradeData@CPythonGuild@@U?$less@E@std@@V?$allocator@U?$pair@$$CBEUSGuildGradeData@CPythonGuild@@@std@@@4@$0A@@std@@@std@@QAE@ABU?$less@E@1@@Z ; std::_Tree<std::_Tmap_traits<unsigned char,CPythonGuild::SGuildGradeData,std::less<unsigned char>,std::allocator<std::pair<unsigned char const ,CPythonGuild::SGuildGradeData> >,0> >::_Tree<std::_Tmap_traits<unsigned char,CPythonGuild::SGuildGradeData,std::less<unsigned char>,std::allocator<std::pair<unsigned char const ,CPythonGuild::SGuildGradeData> >,0> >
PUBLIC	?_Getal@?$_Tree@V?$_Tmap_traits@EUSGuildGradeData@CPythonGuild@@U?$less@E@std@@V?$allocator@U?$pair@$$CBEUSGuildGradeData@CPythonGuild@@@std@@@4@$0A@@std@@@std@@IAEAAV?$allocator@U?$_Tree_node@U?$pair@$$CBEUSGuildGradeData@CPythonGuild@@@std@@PAX@std@@@2@XZ ; std::_Tree<std::_Tmap_traits<unsigned char,CPythonGuild::SGuildGradeData,std::less<unsigned char>,std::allocator<std::pair<unsigned char const ,CPythonGuild::SGuildGradeData> >,0> >::_Getal
PUBLIC	?_Get_scary@?$_Tree@V?$_Tmap_traits@EUSGuildGradeData@CPythonGuild@@U?$less@E@std@@V?$allocator@U?$pair@$$CBEUSGuildGradeData@CPythonGuild@@@std@@@4@$0A@@std@@@std@@IAEPAV?$_Tree_val@U?$_Tree_simple_types@U?$pair@$$CBEUSGuildGradeData@CPythonGuild@@@std@@@std@@@2@XZ ; std::_Tree<std::_Tmap_traits<unsigned char,CPythonGuild::SGuildGradeData,std::less<unsigned char>,std::allocator<std::pair<unsigned char const ,CPythonGuild::SGuildGradeData> >,0> >::_Get_scary
PUBLIC	?_Orphan_ptr@?$_Tree_val@U?$_Tree_simple_types@U?$pair@$$CBEUSGuildGradeData@CPythonGuild@@@std@@@std@@@std@@QAEXQAU?$_Tree_node@U?$pair@$$CBEUSGuildGradeData@CPythonGuild@@@std@@PAX@2@@Z ; std::_Tree_val<std::_Tree_simple_types<std::pair<unsigned char const ,CPythonGuild::SGuildGradeData> > >::_Orphan_ptr
PUBLIC	??D?$_Tree_iterator@V?$_Tree_val@U?$_Tree_simple_types@U?$pair@$$CBEUSGuildGradeData@CPythonGuild@@@std@@@std@@@std@@@std@@QBEAAU?$pair@$$CBEUSGuildGradeData@CPythonGuild@@@1@XZ ; std::_Tree_iterator<std::_Tree_val<std::_Tree_simple_types<std::pair<unsigned char const ,CPythonGuild::SGuildGradeData> > > >::operator*
PUBLIC	??0?$_Tree_unchecked_const_iterator@V?$_Tree_val@U?$_Tree_simple_types@U?$pair@$$CBEUSGuildGradeData@CPythonGuild@@@std@@@std@@@std@@U_Iterator_base0@2@@std@@QAE@PAU?$_Tree_node@U?$pair@$$CBEUSGuildGradeData@CPythonGuild@@@std@@PAX@1@PBV?$_Tree_val@U?$_Tree_simple_types@U?$pair@$$CBEUSGuildGradeData@CPythonGuild@@@std@@@std@@@1@@Z ; std::_Tree_unchecked_const_iterator<std::_Tree_val<std::_Tree_simple_types<std::pair<unsigned char const ,CPythonGuild::SGuildGradeData> > >,std::_Iterator_base0>::_Tree_unchecked_const_iterator<std::_Tree_val<std::_Tree_simple_types<std::pair<unsigned char const ,CPythonGuild::SGuildGradeData> > >,std::_Iterator_base0>
PUBLIC	??0?$_Vector_const_iterator@V?$_Vector_val@U?$_Simple_types@USGuildMemberData@CPythonGuild@@@std@@@std@@@std@@QAE@PAUSGuildMemberData@CPythonGuild@@PBU_Container_base0@1@@Z ; std::_Vector_const_iterator<std::_Vector_val<std::_Simple_types<CPythonGuild::SGuildMemberData> > >::_Vector_const_iterator<std::_Vector_val<std::_Simple_types<CPythonGuild::SGuildMemberData> > >
PUBLIC	??D?$_Vector_const_iterator@V?$_Vector_val@U?$_Simple_types@USGuildMemberData@CPythonGuild@@@std@@@std@@@std@@QBEABUSGuildMemberData@CPythonGuild@@XZ ; std::_Vector_const_iterator<std::_Vector_val<std::_Simple_types<CPythonGuild::SGuildMemberData> > >::operator*
PUBLIC	??E?$_Vector_const_iterator@V?$_Vector_val@U?$_Simple_types@USGuildMemberData@CPythonGuild@@@std@@@std@@@std@@QAEAAV01@XZ ; std::_Vector_const_iterator<std::_Vector_val<std::_Simple_types<CPythonGuild::SGuildMemberData> > >::operator++
PUBLIC	?_Compat@?$_Vector_const_iterator@V?$_Vector_val@U?$_Simple_types@USGuildMemberData@CPythonGuild@@@std@@@std@@@std@@QBEXABV12@@Z ; std::_Vector_const_iterator<std::_Vector_val<std::_Simple_types<CPythonGuild::SGuildMemberData> > >::_Compat
PUBLIC	?pointer_to@?$pointer_traits@PAU?$pair@$$CBEUSGuildGradeData@CPythonGuild@@@std@@@std@@SAPAU?$pair@$$CBEUSGuildGradeData@CPythonGuild@@@2@AAU32@@Z ; std::pointer_traits<std::pair<unsigned char const ,CPythonGuild::SGuildGradeData> *>::pointer_to
PUBLIC	??$_Try_emplace@ABK$$V@?$map@KV?$basic_string@DU?$char_traits@D@std@@V?$allocator@D@2@@std@@U?$less@K@2@V?$allocator@U?$pair@$$CBKV?$basic_string@DU?$char_traits@D@std@@V?$allocator@D@2@@std@@@std@@@2@@std@@AAE?AU?$pair@PAU?$_Tree_node@U?$pair@$$CBKV?$basic_string@DU?$char_traits@D@std@@V?$allocator@D@2@@std@@@std@@PAX@std@@_N@1@ABK@Z ; std::map<unsigned long,std::basic_string<char,std::char_traits<char>,std::allocator<char> >,std::less<unsigned long>,std::allocator<std::pair<unsigned long const ,std::basic_string<char,std::char_traits<char>,std::allocator<char> > > > >::_Try_emplace<unsigned long const &>
PUBLIC	??$_Erase_head@V?$allocator@U?$_Tree_node@U?$pair@$$CBKV?$basic_string@DU?$char_traits@D@std@@V?$allocator@D@2@@std@@@std@@PAX@std@@@std@@@?$_Tree_val@U?$_Tree_simple_types@U?$pair@$$CBKV?$basic_string@DU?$char_traits@D@std@@V?$allocator@D@2@@std@@@std@@@std@@@std@@QAEXAAV?$allocator@U?$_Tree_node@U?$pair@$$CBKV?$basic_string@DU?$char_traits@D@std@@V?$allocator@D@2@@std@@@std@@PAX@std@@@1@@Z ; std::_Tree_val<std::_Tree_simple_types<std::pair<unsigned long const ,std::basic_string<char,std::char_traits<char>,std::allocator<char> > > > >::_Erase_head<std::allocator<std::_Tree_node<std::pair<unsigned long const ,std::basic_string<char,std::char_traits<char>,std::allocator<char> > >,void *> > >
PUBLIC	??$_Erase_tree@V?$allocator@U?$_Tree_node@U?$pair@$$CBKV?$basic_string@DU?$char_traits@D@std@@V?$allocator@D@2@@std@@@std@@PAX@std@@@std@@@?$_Tree_val@U?$_Tree_simple_types@U?$pair@$$CBKV?$basic_string@DU?$char_traits@D@std@@V?$allocator@D@2@@std@@@std@@@std@@@std@@QAEXAAV?$allocator@U?$_Tree_node@U?$pair@$$CBKV?$basic_string@DU?$char_traits@D@std@@V?$allocator@D@2@@std@@@std@@PAX@std@@@1@PAU?$_Tree_node@U?$pair@$$CBKV?$basic_string@DU?$char_traits@D@std@@V?$allocator@D@2@@std@@@std@@PAX@1@@Z ; std::_Tree_val<std::_Tree_simple_types<std::pair<unsigned long const ,std::basic_string<char,std::char_traits<char>,std::allocator<char> > > > >::_Erase_tree<std::allocator<std::_Tree_node<std::pair<unsigned long const ,std::basic_string<char,std::char_traits<char>,std::allocator<char> > >,void *> > >
PUBLIC	??$_Find@K@?$_Tree@V?$_Tmap_traits@KV?$basic_string@DU?$char_traits@D@std@@V?$allocator@D@2@@std@@U?$less@K@2@V?$allocator@U?$pair@$$CBKV?$basic_string@DU?$char_traits@D@std@@V?$allocator@D@2@@std@@@std@@@2@$0A@@std@@@std@@ABEPAU?$_Tree_node@U?$pair@$$CBKV?$basic_string@DU?$char_traits@D@std@@V?$allocator@D@2@@std@@@std@@PAX@1@ABK@Z ; std::_Tree<std::_Tmap_traits<unsigned long,std::basic_string<char,std::char_traits<char>,std::allocator<char> >,std::less<unsigned long>,std::allocator<std::pair<unsigned long const ,std::basic_string<char,std::char_traits<char>,std::allocator<char> > > >,0> >::_Find<unsigned long>
PUBLIC	??$_Try_emplace@ABE$$V@?$map@EUSGuildGradeData@CPythonGuild@@U?$less@E@std@@V?$allocator@U?$pair@$$CBEUSGuildGradeData@CPythonGuild@@@std@@@4@@std@@AAE?AU?$pair@PAU?$_Tree_node@U?$pair@$$CBEUSGuildGradeData@CPythonGuild@@@std@@PAX@std@@_N@1@ABE@Z ; std::map<unsigned char,CPythonGuild::SGuildGradeData,std::less<unsigned char>,std::allocator<std::pair<unsigned char const ,CPythonGuild::SGuildGradeData> > >::_Try_emplace<unsigned char const &>
PUBLIC	??$?0$$V@?$_Compressed_pair@V?$allocator@USGuildMemberData@CPythonGuild@@@std@@V?$_Vector_val@U?$_Simple_types@USGuildMemberData@CPythonGuild@@@std@@@2@$00@std@@QAE@U_Zero_then_variadic_args_t@1@@Z ; std::_Compressed_pair<std::allocator<CPythonGuild::SGuildMemberData>,std::_Vector_val<std::_Simple_types<CPythonGuild::SGuildMemberData> >,1>::_Compressed_pair<std::allocator<CPythonGuild::SGuildMemberData>,std::_Vector_val<std::_Simple_types<CPythonGuild::SGuildMemberData> >,1><>
PUBLIC	??$_Emplace_one_at_back@ABUSGuildMemberData@CPythonGuild@@@?$vector@USGuildMemberData@CPythonGuild@@V?$allocator@USGuildMemberData@CPythonGuild@@@std@@@std@@AAEAAUSGuildMemberData@CPythonGuild@@ABU23@@Z ; std::vector<CPythonGuild::SGuildMemberData,std::allocator<CPythonGuild::SGuildMemberData> >::_Emplace_one_at_back<CPythonGuild::SGuildMemberData const &>
PUBLIC	??$destroy@USGuildMemberData@CPythonGuild@@@?$_Default_allocator_traits@V?$allocator@USGuildMemberData@CPythonGuild@@@std@@@std@@SAXAAV?$allocator@USGuildMemberData@CPythonGuild@@@1@QAUSGuildMemberData@CPythonGuild@@@Z ; std::_Default_allocator_traits<std::allocator<CPythonGuild::SGuildMemberData> >::destroy<CPythonGuild::SGuildMemberData>
PUBLIC	??$_Unfancy@USGuildMemberData@CPythonGuild@@@std@@YAPAUSGuildMemberData@CPythonGuild@@PAU12@@Z ; std::_Unfancy<CPythonGuild::SGuildMemberData>
PUBLIC	??4SGuildMemberData@CPythonGuild@@QAEAAU01@$$QAU01@@Z ; CPythonGuild::SGuildMemberData::operator=
PUBLIC	??$_Move_unchecked@PAUSGuildMemberData@CPythonGuild@@PAU12@@std@@YAPAUSGuildMemberData@CPythonGuild@@PAU12@00@Z ; std::_Move_unchecked<CPythonGuild::SGuildMemberData *,CPythonGuild::SGuildMemberData *>
PUBLIC	??$_Destroy_range@V?$allocator@USGuildMemberData@CPythonGuild@@@std@@@std@@YAXPAUSGuildMemberData@CPythonGuild@@QAU12@AAV?$allocator@USGuildMemberData@CPythonGuild@@@0@@Z ; std::_Destroy_range<std::allocator<CPythonGuild::SGuildMemberData> >
PUBLIC	??$addressof@V?$_Vector_val@U?$_Simple_types@USGuildMemberData@CPythonGuild@@@std@@@std@@@std@@YAPAV?$_Vector_val@U?$_Simple_types@USGuildMemberData@CPythonGuild@@@std@@@0@AAV10@@Z ; std::addressof<std::_Vector_val<std::_Simple_types<CPythonGuild::SGuildMemberData> > >
PUBLIC	??$?0$$V@?$_Compressed_pair@V?$allocator@USGuildBoardCommentData@CPythonGuild@@@std@@V?$_Vector_val@U?$_Simple_types@USGuildBoardCommentData@CPythonGuild@@@std@@@2@$00@std@@QAE@U_Zero_then_variadic_args_t@1@@Z ; std::_Compressed_pair<std::allocator<CPythonGuild::SGuildBoardCommentData>,std::_Vector_val<std::_Simple_types<CPythonGuild::SGuildBoardCommentData> >,1>::_Compressed_pair<std::allocator<CPythonGuild::SGuildBoardCommentData>,std::_Vector_val<std::_Simple_types<CPythonGuild::SGuildBoardCommentData> >,1><>
PUBLIC	??$_Emplace_one_at_back@ABUSGuildBoardCommentData@CPythonGuild@@@?$vector@USGuildBoardCommentData@CPythonGuild@@V?$allocator@USGuildBoardCommentData@CPythonGuild@@@std@@@std@@AAEAAUSGuildBoardCommentData@CPythonGuild@@ABU23@@Z ; std::vector<CPythonGuild::SGuildBoardCommentData,std::allocator<CPythonGuild::SGuildBoardCommentData> >::_Emplace_one_at_back<CPythonGuild::SGuildBoardCommentData const &>
PUBLIC	??$_Destroy_range@V?$allocator@USGuildBoardCommentData@CPythonGuild@@@std@@@std@@YAXPAUSGuildBoardCommentData@CPythonGuild@@QAU12@AAV?$allocator@USGuildBoardCommentData@CPythonGuild@@@0@@Z ; std::_Destroy_range<std::allocator<CPythonGuild::SGuildBoardCommentData> >
PUBLIC	??$_Erase_head@V?$allocator@U?$_Tree_node@U?$pair@$$CBEUSGuildGradeData@CPythonGuild@@@std@@PAX@std@@@std@@@?$_Tree_val@U?$_Tree_simple_types@U?$pair@$$CBEUSGuildGradeData@CPythonGuild@@@std@@@std@@@std@@QAEXAAV?$allocator@U?$_Tree_node@U?$pair@$$CBEUSGuildGradeData@CPythonGuild@@@std@@PAX@std@@@1@@Z ; std::_Tree_val<std::_Tree_simple_types<std::pair<unsigned char const ,CPythonGuild::SGuildGradeData> > >::_Erase_head<std::allocator<std::_Tree_node<std::pair<unsigned char const ,CPythonGuild::SGuildGradeData>,void *> > >
PUBLIC	??$_Erase_tree@V?$allocator@U?$_Tree_node@U?$pair@$$CBEUSGuildGradeData@CPythonGuild@@@std@@PAX@std@@@std@@@?$_Tree_val@U?$_Tree_simple_types@U?$pair@$$CBEUSGuildGradeData@CPythonGuild@@@std@@@std@@@std@@QAEXAAV?$allocator@U?$_Tree_node@U?$pair@$$CBEUSGuildGradeData@CPythonGuild@@@std@@PAX@std@@@1@PAU?$_Tree_node@U?$pair@$$CBEUSGuildGradeData@CPythonGuild@@@std@@PAX@1@@Z ; std::_Tree_val<std::_Tree_simple_types<std::pair<unsigned char const ,CPythonGuild::SGuildGradeData> > >::_Erase_tree<std::allocator<std::_Tree_node<std::pair<unsigned char const ,CPythonGuild::SGuildGradeData>,void *> > >
PUBLIC	??$_Find@E@?$_Tree@V?$_Tmap_traits@EUSGuildGradeData@CPythonGuild@@U?$less@E@std@@V?$allocator@U?$pair@$$CBEUSGuildGradeData@CPythonGuild@@@std@@@4@$0A@@std@@@std@@ABEPAU?$_Tree_node@U?$pair@$$CBEUSGuildGradeData@CPythonGuild@@@std@@PAX@1@ABE@Z ; std::_Tree<std::_Tmap_traits<unsigned char,CPythonGuild::SGuildGradeData,std::less<unsigned char>,std::allocator<std::pair<unsigned char const ,CPythonGuild::SGuildGradeData> >,0> >::_Find<unsigned char>
PUBLIC	??$emplace@U?$pair@HH@std@@@?$_Tree@V?$_Tmap_traits@KKU?$less@K@std@@V?$allocator@U?$pair@$$CBKK@std@@@2@$0A@@std@@@std@@QAE?AU?$pair@V?$_Tree_iterator@V?$_Tree_val@U?$_Tree_simple_types@U?$pair@$$CBKK@std@@@std@@@std@@@std@@_N@1@$$QAU?$pair@HH@1@@Z ; std::_Tree<std::_Tmap_traits<unsigned long,unsigned long,std::less<unsigned long>,std::allocator<std::pair<unsigned long const ,unsigned long> >,0> >::emplace<std::pair<int,int> >
PUBLIC	??$forward@U?$pair@HH@std@@@std@@YA$$QAU?$pair@HH@0@AAU10@@Z ; std::forward<std::pair<int,int> >
PUBLIC	??$?0AAHAAH$0A@@?$pair@HH@std@@QAE@AAH0@Z	; std::pair<int,int>::pair<int,int><int &,int &,0>
PUBLIC	??$_Sort_unchecked@PAUSGuildMemberData@CPythonGuild@@UCPythonGuild_SLessMemberGrade@@@std@@YAXPAUSGuildMemberData@CPythonGuild@@0HUCPythonGuild_SLessMemberGrade@@@Z ; std::_Sort_unchecked<CPythonGuild::SGuildMemberData *,CPythonGuild_SLessMemberGrade>
PUBLIC	??$emplace@U?$pair@KV?$basic_string@DU?$char_traits@D@std@@V?$allocator@D@2@@std@@@std@@@?$_Tree@V?$_Tmap_traits@KV?$basic_string@DU?$char_traits@D@std@@V?$allocator@D@2@@std@@U?$less@K@2@V?$allocator@U?$pair@$$CBKV?$basic_string@DU?$char_traits@D@std@@V?$allocator@D@2@@std@@@std@@@2@$0A@@std@@@std@@QAE?AU?$pair@V?$_Tree_iterator@V?$_Tree_val@U?$_Tree_simple_types@U?$pair@$$CBKV?$basic_string@DU?$char_traits@D@std@@V?$allocator@D@2@@std@@@std@@@std@@@std@@@std@@_N@1@$$QAU?$pair@KV?$basic_string@DU?$char_traits@D@std@@V?$allocator@D@2@@std@@@1@@Z ; std::_Tree<std::_Tmap_traits<unsigned long,std::basic_string<char,std::char_traits<char>,std::allocator<char> >,std::less<unsigned long>,std::allocator<std::pair<unsigned long const ,std::basic_string<char,std::char_traits<char>,std::allocator<char> > > >,0> >::emplace<std::pair<unsigned long,std::basic_string<char,std::char_traits<char>,std::allocator<char> > > >
PUBLIC	??$?0AAKV?$basic_string@DU?$char_traits@D@std@@V?$allocator@D@2@@std@@$0A@@?$pair@KV?$basic_string@DU?$char_traits@D@std@@V?$allocator@D@2@@std@@@std@@QAE@AAK$$QAV?$basic_string@DU?$char_traits@D@std@@V?$allocator@D@2@@1@@Z ; std::pair<unsigned long,std::basic_string<char,std::char_traits<char>,std::allocator<char> > >::pair<unsigned long,std::basic_string<char,std::char_traits<char>,std::allocator<char> > ><unsigned long &,std::basic_string<char,std::char_traits<char>,std::allocator<char> >,0>
PUBLIC	??$_Seek_wrapped@V?$_Vector_iterator@V?$_Vector_val@U?$_Simple_types@USGuildMemberData@CPythonGuild@@@std@@@std@@@std@@AAPAUSGuildMemberData@CPythonGuild@@@std@@YAXAAV?$_Vector_iterator@V?$_Vector_val@U?$_Simple_types@USGuildMemberData@CPythonGuild@@@std@@@std@@@0@AAPAUSGuildMemberData@CPythonGuild@@@Z ; std::_Seek_wrapped<std::_Vector_iterator<std::_Vector_val<std::_Simple_types<CPythonGuild::SGuildMemberData> > >,CPythonGuild::SGuildMemberData * &>
PUBLIC	??$_Unfancy_maybe_null@USGuildMemberData@CPythonGuild@@@std@@YAPAUSGuildMemberData@CPythonGuild@@PAU12@@Z ; std::_Unfancy_maybe_null<CPythonGuild::SGuildMemberData>
PUBLIC	??$_Adl_verify_range@V?$_Vector_iterator@V?$_Vector_val@U?$_Simple_types@USGuildMemberData@CPythonGuild@@@std@@@std@@@std@@V12@@std@@YAXABV?$_Vector_iterator@V?$_Vector_val@U?$_Simple_types@USGuildMemberData@CPythonGuild@@@std@@@std@@@0@0@Z ; std::_Adl_verify_range<std::_Vector_iterator<std::_Vector_val<std::_Simple_types<CPythonGuild::SGuildMemberData> > >,std::_Vector_iterator<std::_Vector_val<std::_Simple_types<CPythonGuild::SGuildMemberData> > > >
PUBLIC	??0?$_Tree_const_iterator@V?$_Tree_val@U?$_Tree_simple_types@U?$pair@$$CBKV?$basic_string@DU?$char_traits@D@std@@V?$allocator@D@2@@std@@@std@@@std@@@std@@@std@@QAE@PAU?$_Tree_node@U?$pair@$$CBKV?$basic_string@DU?$char_traits@D@std@@V?$allocator@D@2@@std@@@std@@PAX@1@PBV?$_Tree_val@U?$_Tree_simple_types@U?$pair@$$CBKV?$basic_string@DU?$char_traits@D@std@@V?$allocator@D@2@@std@@@std@@@std@@@1@@Z ; std::_Tree_const_iterator<std::_Tree_val<std::_Tree_simple_types<std::pair<unsigned long const ,std::basic_string<char,std::char_traits<char>,std::allocator<char> > > > > >::_Tree_const_iterator<std::_Tree_val<std::_Tree_simple_types<std::pair<unsigned long const ,std::basic_string<char,std::char_traits<char>,std::allocator<char> > > > > >
PUBLIC	??0?$_Tree_const_iterator@V?$_Tree_val@U?$_Tree_simple_types@U?$pair@$$CBEUSGuildGradeData@CPythonGuild@@@std@@@std@@@std@@@std@@QAE@PAU?$_Tree_node@U?$pair@$$CBEUSGuildGradeData@CPythonGuild@@@std@@PAX@1@PBV?$_Tree_val@U?$_Tree_simple_types@U?$pair@$$CBEUSGuildGradeData@CPythonGuild@@@std@@@std@@@1@@Z ; std::_Tree_const_iterator<std::_Tree_val<std::_Tree_simple_types<std::pair<unsigned char const ,CPythonGuild::SGuildGradeData> > > >::_Tree_const_iterator<std::_Tree_val<std::_Tree_simple_types<std::pair<unsigned char const ,CPythonGuild::SGuildGradeData> > > >
PUBLIC	??0?$_Tree_iterator@V?$_Tree_val@U?$_Tree_simple_types@U?$pair@$$CBKV?$basic_string@DU?$char_traits@D@std@@V?$allocator@D@2@@std@@@std@@@std@@@std@@@std@@QAE@PAU?$_Tree_node@U?$pair@$$CBKV?$basic_string@DU?$char_traits@D@std@@V?$allocator@D@2@@std@@@std@@PAX@1@PBV?$_Tree_val@U?$_Tree_simple_types@U?$pair@$$CBKV?$basic_string@DU?$char_traits@D@std@@V?$allocator@D@2@@std@@@std@@@std@@@1@@Z ; std::_Tree_iterator<std::_Tree_val<std::_Tree_simple_types<std::pair<unsigned long const ,std::basic_string<char,std::char_traits<char>,std::allocator<char> > > > > >::_Tree_iterator<std::_Tree_val<std::_Tree_simple_types<std::pair<unsigned long const ,std::basic_string<char,std::char_traits<char>,std::allocator<char> > > > > >
PUBLIC	??_G?$CSingleton@VCPythonGuild@@@@UAEPAXI@Z	; CSingleton<CPythonGuild>::`scalar deleting destructor'
PUBLIC	??0?$_Tree_iterator@V?$_Tree_val@U?$_Tree_simple_types@U?$pair@$$CBEUSGuildGradeData@CPythonGuild@@@std@@@std@@@std@@@std@@QAE@PAU?$_Tree_node@U?$pair@$$CBEUSGuildGradeData@CPythonGuild@@@std@@PAX@1@PBV?$_Tree_val@U?$_Tree_simple_types@U?$pair@$$CBEUSGuildGradeData@CPythonGuild@@@std@@@std@@@1@@Z ; std::_Tree_iterator<std::_Tree_val<std::_Tree_simple_types<std::pair<unsigned char const ,CPythonGuild::SGuildGradeData> > > >::_Tree_iterator<std::_Tree_val<std::_Tree_simple_types<std::pair<unsigned char const ,CPythonGuild::SGuildGradeData> > > >
PUBLIC	??0?$map@KV?$basic_string@DU?$char_traits@D@std@@V?$allocator@D@2@@std@@U?$less@K@2@V?$allocator@U?$pair@$$CBKV?$basic_string@DU?$char_traits@D@std@@V?$allocator@D@2@@std@@@std@@@2@@std@@QAE@XZ ; std::map<unsigned long,std::basic_string<char,std::char_traits<char>,std::allocator<char> >,std::less<unsigned long>,std::allocator<std::pair<unsigned long const ,std::basic_string<char,std::char_traits<char>,std::allocator<char> > > > >::map<unsigned long,std::basic_string<char,std::char_traits<char>,std::allocator<char> >,std::less<unsigned long>,std::allocator<std::pair<unsigned long const ,std::basic_string<char,std::char_traits<char>,std::allocator<char> > > > >
PUBLIC	??A?$map@KV?$basic_string@DU?$char_traits@D@std@@V?$allocator@D@2@@std@@U?$less@K@2@V?$allocator@U?$pair@$$CBKV?$basic_string@DU?$char_traits@D@std@@V?$allocator@D@2@@std@@@std@@@2@@std@@QAEAAV?$basic_string@DU?$char_traits@D@std@@V?$allocator@D@2@@1@ABK@Z ; std::map<unsigned long,std::basic_string<char,std::char_traits<char>,std::allocator<char> >,std::less<unsigned long>,std::allocator<std::pair<unsigned long const ,std::basic_string<char,std::char_traits<char>,std::allocator<char> > > > >::operator[]
PUBLIC	??1?$_Tree@V?$_Tmap_traits@KV?$basic_string@DU?$char_traits@D@std@@V?$allocator@D@2@@std@@U?$less@K@2@V?$allocator@U?$pair@$$CBKV?$basic_string@DU?$char_traits@D@std@@V?$allocator@D@2@@std@@@std@@@2@$0A@@std@@@std@@QAE@XZ ; std::_Tree<std::_Tmap_traits<unsigned long,std::basic_string<char,std::char_traits<char>,std::allocator<char> >,std::less<unsigned long>,std::allocator<std::pair<unsigned long const ,std::basic_string<char,std::char_traits<char>,std::allocator<char> > > >,0> >::~_Tree<std::_Tmap_traits<unsigned long,std::basic_string<char,std::char_traits<char>,std::allocator<char> >,std::less<unsigned long>,std::allocator<std::pair<unsigned long const ,std::basic_string<char,std::char_traits<char>,std::allocator<char> > > >,0> >
PUBLIC	?end@?$_Tree@V?$_Tmap_traits@KV?$basic_string@DU?$char_traits@D@std@@V?$allocator@D@2@@std@@U?$less@K@2@V?$allocator@U?$pair@$$CBKV?$basic_string@DU?$char_traits@D@std@@V?$allocator@D@2@@std@@@std@@@2@$0A@@std@@@std@@QAE?AV?$_Tree_iterator@V?$_Tree_val@U?$_Tree_simple_types@U?$pair@$$CBKV?$basic_string@DU?$char_traits@D@std@@V?$allocator@D@2@@std@@@std@@@std@@@std@@@2@XZ ; std::_Tree<std::_Tmap_traits<unsigned long,std::basic_string<char,std::char_traits<char>,std::allocator<char> >,std::less<unsigned long>,std::allocator<std::pair<unsigned long const ,std::basic_string<char,std::char_traits<char>,std::allocator<char> > > >,0> >::end
PUBLIC	?clear@?$_Tree@V?$_Tmap_traits@KV?$basic_string@DU?$char_traits@D@std@@V?$allocator@D@2@@std@@U?$less@K@2@V?$allocator@U?$pair@$$CBKV?$basic_string@DU?$char_traits@D@std@@V?$allocator@D@2@@std@@@std@@@2@$0A@@std@@@std@@QAEXXZ ; std::_Tree<std::_Tmap_traits<unsigned long,std::basic_string<char,std::char_traits<char>,std::allocator<char> >,std::less<unsigned long>,std::allocator<std::pair<unsigned long const ,std::basic_string<char,std::char_traits<char>,std::allocator<char> > > >,0> >::clear
PUBLIC	?find@?$_Tree@V?$_Tmap_traits@KV?$basic_string@DU?$char_traits@D@std@@V?$allocator@D@2@@std@@U?$less@K@2@V?$allocator@U?$pair@$$CBKV?$basic_string@DU?$char_traits@D@std@@V?$allocator@D@2@@std@@@std@@@2@$0A@@std@@@std@@QAE?AV?$_Tree_iterator@V?$_Tree_val@U?$_Tree_simple_types@U?$pair@$$CBKV?$basic_string@DU?$char_traits@D@std@@V?$allocator@D@2@@std@@@std@@@std@@@std@@@2@ABK@Z ; std::_Tree<std::_Tmap_traits<unsigned long,std::basic_string<char,std::char_traits<char>,std::allocator<char> >,std::less<unsigned long>,std::allocator<std::pair<unsigned long const ,std::basic_string<char,std::char_traits<char>,std::allocator<char> > > >,0> >::find
PUBLIC	??8?$_Tree_const_iterator@V?$_Tree_val@U?$_Tree_simple_types@U?$pair@$$CBKV?$basic_string@DU?$char_traits@D@std@@V?$allocator@D@2@@std@@@std@@@std@@@std@@@std@@QBE_NABV01@@Z ; std::_Tree_const_iterator<std::_Tree_val<std::_Tree_simple_types<std::pair<unsigned long const ,std::basic_string<char,std::char_traits<char>,std::allocator<char> > > > > >::operator==
PUBLIC	??0?$CSingleton@VCPythonGuild@@@@QAE@XZ		; CSingleton<CPythonGuild>::CSingleton<CPythonGuild>
PUBLIC	??1?$CSingleton@VCPythonGuild@@@@UAE@XZ		; CSingleton<CPythonGuild>::~CSingleton<CPythonGuild>
PUBLIC	?Instance@?$CSingleton@VCPythonGuild@@@@SAAAVCPythonGuild@@XZ ; CSingleton<CPythonGuild>::Instance
PUBLIC	??0?$map@EUSGuildGradeData@CPythonGuild@@U?$less@E@std@@V?$allocator@U?$pair@$$CBEUSGuildGradeData@CPythonGuild@@@std@@@4@@std@@QAE@XZ ; std::map<unsigned char,CPythonGuild::SGuildGradeData,std::less<unsigned char>,std::allocator<std::pair<unsigned char const ,CPythonGuild::SGuildGradeData> > >::map<unsigned char,CPythonGuild::SGuildGradeData,std::less<unsigned char>,std::allocator<std::pair<unsigned char const ,CPythonGuild::SGuildGradeData> > >
PUBLIC	??A?$map@EUSGuildGradeData@CPythonGuild@@U?$less@E@std@@V?$allocator@U?$pair@$$CBEUSGuildGradeData@CPythonGuild@@@std@@@4@@std@@QAEAAUSGuildGradeData@CPythonGuild@@ABE@Z ; std::map<unsigned char,CPythonGuild::SGuildGradeData,std::less<unsigned char>,std::allocator<std::pair<unsigned char const ,CPythonGuild::SGuildGradeData> > >::operator[]
PUBLIC	??0?$vector@USGuildMemberData@CPythonGuild@@V?$allocator@USGuildMemberData@CPythonGuild@@@std@@@std@@QAE@XZ ; std::vector<CPythonGuild::SGuildMemberData,std::allocator<CPythonGuild::SGuildMemberData> >::vector<CPythonGuild::SGuildMemberData,std::allocator<CPythonGuild::SGuildMemberData> >
PUBLIC	??1?$vector@USGuildMemberData@CPythonGuild@@V?$allocator@USGuildMemberData@CPythonGuild@@@std@@@std@@QAE@XZ ; std::vector<CPythonGuild::SGuildMemberData,std::allocator<CPythonGuild::SGuildMemberData> >::~vector<CPythonGuild::SGuildMemberData,std::allocator<CPythonGuild::SGuildMemberData> >
PUBLIC	?push_back@?$vector@USGuildMemberData@CPythonGuild@@V?$allocator@USGuildMemberData@CPythonGuild@@@std@@@std@@QAEXABUSGuildMemberData@CPythonGuild@@@Z ; std::vector<CPythonGuild::SGuildMemberData,std::allocator<CPythonGuild::SGuildMemberData> >::push_back
PUBLIC	?erase@?$vector@USGuildMemberData@CPythonGuild@@V?$allocator@USGuildMemberData@CPythonGuild@@@std@@@std@@QAE?AV?$_Vector_iterator@V?$_Vector_val@U?$_Simple_types@USGuildMemberData@CPythonGuild@@@std@@@std@@@2@V?$_Vector_const_iterator@V?$_Vector_val@U?$_Simple_types@USGuildMemberData@CPythonGuild@@@std@@@std@@@2@@Z ; std::vector<CPythonGuild::SGuildMemberData,std::allocator<CPythonGuild::SGuildMemberData> >::erase
PUBLIC	?clear@?$vector@USGuildMemberData@CPythonGuild@@V?$allocator@USGuildMemberData@CPythonGuild@@@std@@@std@@QAEXXZ ; std::vector<CPythonGuild::SGuildMemberData,std::allocator<CPythonGuild::SGuildMemberData> >::clear
PUBLIC	?begin@?$vector@USGuildMemberData@CPythonGuild@@V?$allocator@USGuildMemberData@CPythonGuild@@@std@@@std@@QAE?AV?$_Vector_iterator@V?$_Vector_val@U?$_Simple_types@USGuildMemberData@CPythonGuild@@@std@@@std@@@2@XZ ; std::vector<CPythonGuild::SGuildMemberData,std::allocator<CPythonGuild::SGuildMemberData> >::begin
PUBLIC	??0?$_Vector_iterator@V?$_Vector_val@U?$_Simple_types@USGuildMemberData@CPythonGuild@@@std@@@std@@@std@@QAE@PAUSGuildMemberData@CPythonGuild@@PBU_Container_base0@1@@Z ; std::_Vector_iterator<std::_Vector_val<std::_Simple_types<CPythonGuild::SGuildMemberData> > >::_Vector_iterator<std::_Vector_val<std::_Simple_types<CPythonGuild::SGuildMemberData> > >
PUBLIC	?end@?$vector@USGuildMemberData@CPythonGuild@@V?$allocator@USGuildMemberData@CPythonGuild@@@std@@@std@@QAE?AV?$_Vector_iterator@V?$_Vector_val@U?$_Simple_types@USGuildMemberData@CPythonGuild@@@std@@@std@@@2@XZ ; std::vector<CPythonGuild::SGuildMemberData,std::allocator<CPythonGuild::SGuildMemberData> >::end
PUBLIC	?empty@?$vector@USGuildMemberData@CPythonGuild@@V?$allocator@USGuildMemberData@CPythonGuild@@@std@@@std@@QBE_NXZ ; std::vector<CPythonGuild::SGuildMemberData,std::allocator<CPythonGuild::SGuildMemberData> >::empty
PUBLIC	?size@?$vector@USGuildMemberData@CPythonGuild@@V?$allocator@USGuildMemberData@CPythonGuild@@@std@@@std@@QBEIXZ ; std::vector<CPythonGuild::SGuildMemberData,std::allocator<CPythonGuild::SGuildMemberData> >::size
PUBLIC	??A?$vector@USGuildMemberData@CPythonGuild@@V?$allocator@USGuildMemberData@CPythonGuild@@@std@@@std@@QAEAAUSGuildMemberData@CPythonGuild@@I@Z ; std::vector<CPythonGuild::SGuildMemberData,std::allocator<CPythonGuild::SGuildMemberData> >::operator[]
PUBLIC	??0?$vector@USGuildBoardCommentData@CPythonGuild@@V?$allocator@USGuildBoardCommentData@CPythonGuild@@@std@@@std@@QAE@XZ ; std::vector<CPythonGuild::SGuildBoardCommentData,std::allocator<CPythonGuild::SGuildBoardCommentData> >::vector<CPythonGuild::SGuildBoardCommentData,std::allocator<CPythonGuild::SGuildBoardCommentData> >
PUBLIC	??1?$vector@USGuildBoardCommentData@CPythonGuild@@V?$allocator@USGuildBoardCommentData@CPythonGuild@@@std@@@std@@QAE@XZ ; std::vector<CPythonGuild::SGuildBoardCommentData,std::allocator<CPythonGuild::SGuildBoardCommentData> >::~vector<CPythonGuild::SGuildBoardCommentData,std::allocator<CPythonGuild::SGuildBoardCommentData> >
PUBLIC	?push_back@?$vector@USGuildBoardCommentData@CPythonGuild@@V?$allocator@USGuildBoardCommentData@CPythonGuild@@@std@@@std@@QAEXABUSGuildBoardCommentData@CPythonGuild@@@Z ; std::vector<CPythonGuild::SGuildBoardCommentData,std::allocator<CPythonGuild::SGuildBoardCommentData> >::push_back
PUBLIC	?clear@?$vector@USGuildBoardCommentData@CPythonGuild@@V?$allocator@USGuildBoardCommentData@CPythonGuild@@@std@@@std@@QAEXXZ ; std::vector<CPythonGuild::SGuildBoardCommentData,std::allocator<CPythonGuild::SGuildBoardCommentData> >::clear
PUBLIC	?size@?$vector@USGuildBoardCommentData@CPythonGuild@@V?$allocator@USGuildBoardCommentData@CPythonGuild@@@std@@@std@@QBEIXZ ; std::vector<CPythonGuild::SGuildBoardCommentData,std::allocator<CPythonGuild::SGuildBoardCommentData> >::size
PUBLIC	??A?$vector@USGuildBoardCommentData@CPythonGuild@@V?$allocator@USGuildBoardCommentData@CPythonGuild@@@std@@@std@@QBEABUSGuildBoardCommentData@CPythonGuild@@I@Z ; std::vector<CPythonGuild::SGuildBoardCommentData,std::allocator<CPythonGuild::SGuildBoardCommentData> >::operator[]
PUBLIC	??1?$_Tree@V?$_Tmap_traits@EUSGuildGradeData@CPythonGuild@@U?$less@E@std@@V?$allocator@U?$pair@$$CBEUSGuildGradeData@CPythonGuild@@@std@@@4@$0A@@std@@@std@@QAE@XZ ; std::_Tree<std::_Tmap_traits<unsigned char,CPythonGuild::SGuildGradeData,std::less<unsigned char>,std::allocator<std::pair<unsigned char const ,CPythonGuild::SGuildGradeData> >,0> >::~_Tree<std::_Tmap_traits<unsigned char,CPythonGuild::SGuildGradeData,std::less<unsigned char>,std::allocator<std::pair<unsigned char const ,CPythonGuild::SGuildGradeData> >,0> >
PUBLIC	?end@?$_Tree@V?$_Tmap_traits@EUSGuildGradeData@CPythonGuild@@U?$less@E@std@@V?$allocator@U?$pair@$$CBEUSGuildGradeData@CPythonGuild@@@std@@@4@$0A@@std@@@std@@QAE?AV?$_Tree_iterator@V?$_Tree_val@U?$_Tree_simple_types@U?$pair@$$CBEUSGuildGradeData@CPythonGuild@@@std@@@std@@@std@@@2@XZ ; std::_Tree<std::_Tmap_traits<unsigned char,CPythonGuild::SGuildGradeData,std::less<unsigned char>,std::allocator<std::pair<unsigned char const ,CPythonGuild::SGuildGradeData> >,0> >::end
PUBLIC	?clear@?$_Tree@V?$_Tmap_traits@EUSGuildGradeData@CPythonGuild@@U?$less@E@std@@V?$allocator@U?$pair@$$CBEUSGuildGradeData@CPythonGuild@@@std@@@4@$0A@@std@@@std@@QAEXXZ ; std::_Tree<std::_Tmap_traits<unsigned char,CPythonGuild::SGuildGradeData,std::less<unsigned char>,std::allocator<std::pair<unsigned char const ,CPythonGuild::SGuildGradeData> >,0> >::clear
PUBLIC	?find@?$_Tree@V?$_Tmap_traits@EUSGuildGradeData@CPythonGuild@@U?$less@E@std@@V?$allocator@U?$pair@$$CBEUSGuildGradeData@CPythonGuild@@@std@@@4@$0A@@std@@@std@@QAE?AV?$_Tree_iterator@V?$_Tree_val@U?$_Tree_simple_types@U?$pair@$$CBEUSGuildGradeData@CPythonGuild@@@std@@@std@@@std@@@2@ABE@Z ; std::_Tree<std::_Tmap_traits<unsigned char,CPythonGuild::SGuildGradeData,std::less<unsigned char>,std::allocator<std::pair<unsigned char const ,CPythonGuild::SGuildGradeData> >,0> >::find
PUBLIC	??8?$_Tree_const_iterator@V?$_Tree_val@U?$_Tree_simple_types@U?$pair@$$CBEUSGuildGradeData@CPythonGuild@@@std@@@std@@@std@@@std@@QBE_NABV01@@Z ; std::_Tree_const_iterator<std::_Tree_val<std::_Tree_simple_types<std::pair<unsigned char const ,CPythonGuild::SGuildGradeData> > > >::operator==
PUBLIC	??C?$_Tree_iterator@V?$_Tree_val@U?$_Tree_simple_types@U?$pair@$$CBEUSGuildGradeData@CPythonGuild@@@std@@@std@@@std@@@std@@QBEPAU?$pair@$$CBEUSGuildGradeData@CPythonGuild@@@1@XZ ; std::_Tree_iterator<std::_Tree_val<std::_Tree_simple_types<std::pair<unsigned char const ,CPythonGuild::SGuildGradeData> > > >::operator->
PUBLIC	??D?$_Vector_iterator@V?$_Vector_val@U?$_Simple_types@USGuildMemberData@CPythonGuild@@@std@@@std@@@std@@QBEAAUSGuildMemberData@CPythonGuild@@XZ ; std::_Vector_iterator<std::_Vector_val<std::_Simple_types<CPythonGuild::SGuildMemberData> > >::operator*
PUBLIC	??E?$_Vector_iterator@V?$_Vector_val@U?$_Simple_types@USGuildMemberData@CPythonGuild@@@std@@@std@@@std@@QAEAAV01@XZ ; std::_Vector_iterator<std::_Vector_val<std::_Simple_types<CPythonGuild::SGuildMemberData> > >::operator++
PUBLIC	??0?$_Vector_const_iterator@V?$_Vector_val@U?$_Simple_types@USGuildMemberData@CPythonGuild@@@std@@@std@@@std@@QAE@XZ ; std::_Vector_const_iterator<std::_Vector_val<std::_Simple_types<CPythonGuild::SGuildMemberData> > >::_Vector_const_iterator<std::_Vector_val<std::_Simple_types<CPythonGuild::SGuildMemberData> > >
PUBLIC	??8?$_Vector_const_iterator@V?$_Vector_val@U?$_Simple_types@USGuildMemberData@CPythonGuild@@@std@@@std@@@std@@QBE_NABV01@@Z ; std::_Vector_const_iterator<std::_Vector_val<std::_Simple_types<CPythonGuild::SGuildMemberData> > >::operator==
PUBLIC	??$insert@U?$pair@HH@std@@$0A@@?$map@KKU?$less@K@std@@V?$allocator@U?$pair@$$CBKK@std@@@2@@std@@QAE?AU?$pair@V?$_Tree_iterator@V?$_Tree_val@U?$_Tree_simple_types@U?$pair@$$CBKK@std@@@std@@@std@@@std@@_N@1@$$QAU?$pair@HH@1@@Z ; std::map<unsigned long,unsigned long,std::less<unsigned long>,std::allocator<std::pair<unsigned long const ,unsigned long> > >::insert<std::pair<int,int>,0>
PUBLIC	??$make_pair@AAHAAH@std@@YA?AU?$pair@HH@0@AAH0@Z ; std::make_pair<int &,int &>
PUBLIC	??$_Pass_fn@UCPythonGuild_SLessMemberGrade@@@std@@YA?A_PAAUCPythonGuild_SLessMemberGrade@@@Z ; std::_Pass_fn<CPythonGuild_SLessMemberGrade>
PUBLIC	??$sort@V?$_Vector_iterator@V?$_Vector_val@U?$_Simple_types@USGuildMemberData@CPythonGuild@@@std@@@std@@@std@@UCPythonGuild_SLessMemberGrade@@@std@@YAXV?$_Vector_iterator@V?$_Vector_val@U?$_Simple_types@USGuildMemberData@CPythonGuild@@@std@@@std@@@0@0UCPythonGuild_SLessMemberGrade@@@Z ; std::sort<std::_Vector_iterator<std::_Vector_val<std::_Simple_types<CPythonGuild::SGuildMemberData> > >,CPythonGuild_SLessMemberGrade>
PUBLIC	??$find_if@V?$_Vector_iterator@V?$_Vector_val@U?$_Simple_types@USGuildMemberData@CPythonGuild@@@std@@@std@@@std@@UCPythonGuild_FFindGuildMemberByName@@@std@@YA?AV?$_Vector_iterator@V?$_Vector_val@U?$_Simple_types@USGuildMemberData@CPythonGuild@@@std@@@std@@@0@V10@V10@UCPythonGuild_FFindGuildMemberByName@@@Z ; std::find_if<std::_Vector_iterator<std::_Vector_val<std::_Simple_types<CPythonGuild::SGuildMemberData> > >,CPythonGuild_FFindGuildMemberByName>
PUBLIC	??$insert@U?$pair@KV?$basic_string@DU?$char_traits@D@std@@V?$allocator@D@2@@std@@@std@@$0A@@?$map@KV?$basic_string@DU?$char_traits@D@std@@V?$allocator@D@2@@std@@U?$less@K@2@V?$allocator@U?$pair@$$CBKV?$basic_string@DU?$char_traits@D@std@@V?$allocator@D@2@@std@@@std@@@2@@std@@QAE?AU?$pair@V?$_Tree_iterator@V?$_Tree_val@U?$_Tree_simple_types@U?$pair@$$CBKV?$basic_string@DU?$char_traits@D@std@@V?$allocator@D@2@@std@@@std@@@std@@@std@@@std@@_N@1@$$QAU?$pair@KV?$basic_string@DU?$char_traits@D@std@@V?$allocator@D@2@@std@@@1@@Z ; std::map<unsigned long,std::basic_string<char,std::char_traits<char>,std::allocator<char> >,std::less<unsigned long>,std::allocator<std::pair<unsigned long const ,std::basic_string<char,std::char_traits<char>,std::allocator<char> > > > >::insert<std::pair<unsigned long,std::basic_string<char,std::char_traits<char>,std::allocator<char> > >,0>
PUBLIC	??$make_pair@AAKV?$basic_string@DU?$char_traits@D@std@@V?$allocator@D@2@@std@@@std@@YA?AU?$pair@KV?$basic_string@DU?$char_traits@D@std@@V?$allocator@D@2@@std@@@0@AAK$$QAV?$basic_string@DU?$char_traits@D@std@@V?$allocator@D@2@@0@@Z ; std::make_pair<unsigned long &,std::basic_string<char,std::char_traits<char>,std::allocator<char> > >
PUBLIC	?_Unwrapped@?$_Vector_iterator@V?$_Vector_val@U?$_Simple_types@USGuildMemberData@CPythonGuild@@@std@@@std@@@std@@QBEPAUSGuildMemberData@CPythonGuild@@XZ ; std::_Vector_iterator<std::_Vector_val<std::_Simple_types<CPythonGuild::SGuildMemberData> > >::_Unwrapped
PUBLIC	??$_Get_unwrapped@ABV?$_Vector_iterator@V?$_Vector_val@U?$_Simple_types@USGuildMemberData@CPythonGuild@@@std@@@std@@@std@@@std@@YA?A_TABV?$_Vector_iterator@V?$_Vector_val@U?$_Simple_types@USGuildMemberData@CPythonGuild@@@std@@@std@@@0@@Z ; std::_Get_unwrapped<std::_Vector_iterator<std::_Vector_val<std::_Simple_types<CPythonGuild::SGuildMemberData> > > const &>
PUBLIC	??$_Get_unwrapped@AAV?$_Vector_iterator@V?$_Vector_val@U?$_Simple_types@USGuildMemberData@CPythonGuild@@@std@@@std@@@std@@@std@@YA?A_TAAV?$_Vector_iterator@V?$_Vector_val@U?$_Simple_types@USGuildMemberData@CPythonGuild@@@std@@@std@@@0@@Z ; std::_Get_unwrapped<std::_Vector_iterator<std::_Vector_val<std::_Simple_types<CPythonGuild::SGuildMemberData> > > &>
PUBLIC	??$find_if@V?$_Vector_iterator@V?$_Vector_val@U?$_Simple_types@USGuildMemberData@CPythonGuild@@@std@@@std@@@std@@UCPythonGuild_FFindGuildMemberByPID@@@std@@YA?AV?$_Vector_iterator@V?$_Vector_val@U?$_Simple_types@USGuildMemberData@CPythonGuild@@@std@@@std@@@0@V10@V10@UCPythonGuild_FFindGuildMemberByPID@@@Z ; std::find_if<std::_Vector_iterator<std::_Vector_val<std::_Simple_types<CPythonGuild::SGuildMemberData> > >,CPythonGuild_FFindGuildMemberByPID>
PUBLIC	?initguild@@YAXXZ				; initguild
PUBLIC	?guildGetbuildingInfo@@YAPAU_object@@PAU1@0@Z	; guildGetbuildingInfo
PUBLIC	?guildGetBaseInfo@@YAPAU_object@@PAU1@0@Z	; guildGetBaseInfo
PUBLIC	?guildGetBaseInfoBankGold@@YAPAU_object@@PAU1@0@Z ; guildGetBaseInfoBankGold
PUBLIC	?guildGetGuildLadderRanking@@YAPAU_object@@PAU1@0@Z ; guildGetGuildLadderRanking
PUBLIC	?guildGetWarRecode@@YAPAU_object@@PAU1@0@Z	; guildGetWarRecode
PUBLIC	?guildGetMarkIndexByMarkID@@YAPAU_object@@PAU1@0@Z ; guildGetMarkIndexByMarkID
PUBLIC	?guildGetMarkImageFilenameByMarkID@@YAPAU_object@@PAU1@0@Z ; guildGetMarkImageFilenameByMarkID
PUBLIC	?guildGuildIDToMarkID@@YAPAU_object@@PAU1@0@Z	; guildGuildIDToMarkID
PUBLIC	?guildDestroy@@YAPAU_object@@PAU1@0@Z		; guildDestroy
PUBLIC	?guildMainPlayerHasAuthority@@YAPAU_object@@PAU1@0@Z ; guildMainPlayerHasAuthority
PUBLIC	?guildIsMemberByName@@YAPAU_object@@PAU1@0@Z	; guildIsMemberByName
PUBLIC	?guildIsMember@@YAPAU_object@@PAU1@0@Z		; guildIsMember
PUBLIC	?guildMemberIndexToPID@@YAPAU_object@@PAU1@0@Z	; guildMemberIndexToPID
PUBLIC	?guildGetMemberData@@YAPAU_object@@PAU1@0@Z	; guildGetMemberData
PUBLIC	?guildGetMemberCount@@YAPAU_object@@PAU1@0@Z	; guildGetMemberCount
PUBLIC	?guildGetGradeName@@YAPAU_object@@PAU1@0@Z	; guildGetGradeName
PUBLIC	?guildGetGradeData@@YAPAU_object@@PAU1@0@Z	; guildGetGradeData
PUBLIC	?guildGetSkillIndex@@YAPAU_object@@PAU1@0@Z	; guildGetSkillIndex
PUBLIC	?guildSetSkillIndex@@YAPAU_object@@PAU1@0@Z	; guildSetSkillIndex
PUBLIC	?guildGetSkillMaxLevelNew@@YAPAU_object@@PAU1@0@Z ; guildGetSkillMaxLevelNew
PUBLIC	?guildGetSkillLevel@@YAPAU_object@@PAU1@0@Z	; guildGetSkillLevel
PUBLIC	?guildGetGuildSkillLevel@@YAPAU_object@@PAU1@0@Z ; guildGetGuildSkillLevel
PUBLIC	?guildGetDragonPowerPoint@@YAPAU_object@@PAU1@0@Z ; guildGetDragonPowerPoint
PUBLIC	?guildGetGuildSkillPoint@@YAPAU_object@@PAU1@0@Z ; guildGetGuildSkillPoint
PUBLIC	?guildGetGuildExperienceSummary@@YAPAU_object@@PAU1@0@Z ; guildGetGuildExperienceSummary
PUBLIC	?guildGetGuildMemberLevelAverage@@YAPAU_object@@PAU1@0@Z ; guildGetGuildMemberLevelAverage
PUBLIC	?guildGetGuildMemberLevelSummary@@YAPAU_object@@PAU1@0@Z ; guildGetGuildMemberLevelSummary
PUBLIC	?guildGetGuildMemberCount@@YAPAU_object@@PAU1@0@Z ; guildGetGuildMemberCount
PUBLIC	?guildGetGuildExperience@@YAPAU_object@@PAU1@0@Z ; guildGetGuildExperience
PUBLIC	?guildGetGuildLevel@@YAPAU_object@@PAU1@0@Z	; guildGetGuildLevel
PUBLIC	?guildGetGuildBoardCommentData@@YAPAU_object@@PAU1@0@Z ; guildGetGuildBoardCommentData
PUBLIC	?guildGetGuildBoardCommentCount@@YAPAU_object@@PAU1@0@Z ; guildGetGuildBoardCommentCount
PUBLIC	?guildGetGuildMoney@@YAPAU_object@@PAU1@0@Z	; guildGetGuildMoney
PUBLIC	?guildGetEnemyGuildName@@YAPAU_object@@PAU1@0@Z	; guildGetEnemyGuildName
PUBLIC	?guildGetGuildMasterName@@YAPAU_object@@PAU1@0@Z ; guildGetGuildMasterName
PUBLIC	?guildGetGuildName@@YAPAU_object@@PAU1@0@Z	; guildGetGuildName
PUBLIC	?guildHasGuildLand@@YAPAU_object@@PAU1@0@Z	; guildHasGuildLand
PUBLIC	?guildGetGuildID@@YAPAU_object@@PAU1@0@Z	; guildGetGuildID
PUBLIC	?guildIsGuildEnable@@YAPAU_object@@PAU1@0@Z	; guildIsGuildEnable
PUBLIC	??1?$map@KV?$basic_string@DU?$char_traits@D@std@@V?$allocator@D@2@@std@@U?$less@K@2@V?$allocator@U?$pair@$$CBKV?$basic_string@DU?$char_traits@D@std@@V?$allocator@D@2@@std@@@std@@@2@@std@@QAE@XZ ; std::map<unsigned long,std::basic_string<char,std::char_traits<char>,std::allocator<char> >,std::less<unsigned long>,std::allocator<std::pair<unsigned long const ,std::basic_string<char,std::char_traits<char>,std::allocator<char> > > > >::~map<unsigned long,std::basic_string<char,std::char_traits<char>,std::allocator<char> >,std::less<unsigned long>,std::allocator<std::pair<unsigned long const ,std::basic_string<char,std::char_traits<char>,std::allocator<char> > > > >
PUBLIC	??1?$map@EUSGuildGradeData@CPythonGuild@@U?$less@E@std@@V?$allocator@U?$pair@$$CBEUSGuildGradeData@CPythonGuild@@@std@@@4@@std@@QAE@XZ ; std::map<unsigned char,CPythonGuild::SGuildGradeData,std::less<unsigned char>,std::allocator<std::pair<unsigned char const ,CPythonGuild::SGuildGradeData> > >::~map<unsigned char,CPythonGuild::SGuildGradeData,std::less<unsigned char>,std::allocator<std::pair<unsigned char const ,CPythonGuild::SGuildGradeData> > >
PUBLIC	??_GCPythonGuild@@UAEPAXI@Z			; CPythonGuild::`scalar deleting destructor'
PUBLIC	?Destroy@CPythonGuild@@QAEXXZ			; CPythonGuild::Destroy
PUBLIC	?__Initialize@CPythonGuild@@IAEXXZ		; CPythonGuild::__Initialize
PUBLIC	?__IsGradeData@CPythonGuild@@IAEHE@Z		; CPythonGuild::__IsGradeData
PUBLIC	?__SortMember@CPythonGuild@@IAEXXZ		; CPythonGuild::__SortMember
PUBLIC	??RCPythonGuild_SLessMemberGrade@@QAE_NAAUSGuildMemberData@CPythonGuild@@0@Z ; CPythonGuild_SLessMemberGrade::operator()
PUBLIC	?__CalculateLevelAverage@CPythonGuild@@IAEXXZ	; CPythonGuild::__CalculateLevelAverage
PUBLIC	?IsDoingGuildWar@CPythonGuild@@QAEHXZ		; CPythonGuild::IsDoingGuildWar
PUBLIC	?GetEnemyGuildID@CPythonGuild@@QAEKK@Z		; CPythonGuild::GetEnemyGuildID
PUBLIC	?EndGuildWar@CPythonGuild@@QAEXK@Z		; CPythonGuild::EndGuildWar
PUBLIC	?StartGuildWar@CPythonGuild@@QAEXK@Z		; CPythonGuild::StartGuildWar
PUBLIC	?HasGuildLand@CPythonGuild@@QAEHXZ		; CPythonGuild::HasGuildLand
PUBLIC	?GetGuildID@CPythonGuild@@QAEKXZ		; CPythonGuild::GetGuildID
PUBLIC	?GetGuildName@CPythonGuild@@QAE_NKPAV?$basic_string@DU?$char_traits@D@std@@V?$allocator@D@2@@std@@@Z ; CPythonGuild::GetGuildName
PUBLIC	?GetGuildSkillDataRef@CPythonGuild@@QAEAAUSGuildSkillData@1@XZ ; CPythonGuild::GetGuildSkillDataRef
PUBLIC	?GetGuildExperienceSummary@CPythonGuild@@QAEKXZ	; CPythonGuild::GetGuildExperienceSummary
PUBLIC	?GetGuildMemberLevelAverage@CPythonGuild@@QAEKXZ ; CPythonGuild::GetGuildMemberLevelAverage
PUBLIC	?GetGuildMemberLevelSummary@CPythonGuild@@QAEKXZ ; CPythonGuild::GetGuildMemberLevelSummary
PUBLIC	??1CPythonGuild_FFindGuildMemberByName@@QAE@XZ	; CPythonGuild_FFindGuildMemberByName::~CPythonGuild_FFindGuildMemberByName
PUBLIC	?GetMemberDataPtrByName@CPythonGuild@@QAEHPBDPAPAUSGuildMemberData@1@@Z ; CPythonGuild::GetMemberDataPtrByName
PUBLIC	?GetMemberDataPtrByPID@CPythonGuild@@QAEHKPAPAUSGuildMemberData@1@@Z ; CPythonGuild::GetMemberDataPtrByPID
PUBLIC	?GetMemberDataPtr@CPythonGuild@@QAEHKPAPAUSGuildMemberData@1@@Z ; CPythonGuild::GetMemberDataPtr
PUBLIC	?GetMemberCount@CPythonGuild@@QAEKXZ		; CPythonGuild::GetMemberCount
PUBLIC	?GetGuildBoardCommentVector@CPythonGuild@@QAEABV?$vector@USGuildBoardCommentData@CPythonGuild@@V?$allocator@USGuildBoardCommentData@CPythonGuild@@@std@@@std@@XZ ; CPythonGuild::GetGuildBoardCommentVector
PUBLIC	?GetGradeDataPtr@CPythonGuild@@QAEHKPAPAUSGuildGradeData@1@@Z ; CPythonGuild::GetGradeDataPtr
PUBLIC	?GetGuildInfoRef@CPythonGuild@@QAEAAUSGulidInfo@1@XZ ; CPythonGuild::GetGuildInfoRef
PUBLIC	?IsGuildEnable@CPythonGuild@@QAEHXZ		; CPythonGuild::IsGuildEnable
PUBLIC	?IsMainPlayer@CPythonGuild@@QAEHK@Z		; CPythonGuild::IsMainPlayer
PUBLIC	?RegisterGuildName@CPythonGuild@@QAEXKPBD@Z	; CPythonGuild::RegisterGuildName
PUBLIC	??0?$_Vector_iterator@V?$_Vector_val@U?$_Simple_types@USGuildMemberData@CPythonGuild@@@std@@@std@@@std@@QAE@XZ ; std::_Vector_iterator<std::_Vector_val<std::_Simple_types<CPythonGuild::SGuildMemberData> > >::_Vector_iterator<std::_Vector_val<std::_Simple_types<CPythonGuild::SGuildMemberData> > >
PUBLIC	?RemoveMember@CPythonGuild@@QAEXK@Z		; CPythonGuild::RemoveMember
PUBLIC	?ChangeGuildMemberGeneralFlag@CPythonGuild@@QAEXKE@Z ; CPythonGuild::ChangeGuildMemberGeneralFlag
PUBLIC	?ChangeGuildMemberGrade@CPythonGuild@@QAEXKE@Z	; CPythonGuild::ChangeGuildMemberGrade
PUBLIC	??RCPythonGuild_FFindGuildMemberByName@@QAEHAAUSGuildMemberData@CPythonGuild@@@Z ; CPythonGuild_FFindGuildMemberByName::operator()
PUBLIC	??0CPythonGuild_FFindGuildMemberByName@@QAE@PBD@Z ; CPythonGuild_FFindGuildMemberByName::CPythonGuild_FFindGuildMemberByName
PUBLIC	??RCPythonGuild_FFindGuildMemberByPID@@QAEHAAUSGuildMemberData@CPythonGuild@@@Z ; CPythonGuild_FFindGuildMemberByPID::operator()
PUBLIC	??0CPythonGuild_FFindGuildMemberByPID@@QAE@K@Z	; CPythonGuild_FFindGuildMemberByPID::CPythonGuild_FFindGuildMemberByPID
PUBLIC	?RegisterMember@CPythonGuild@@QAEXAAUSGuildMemberData@1@@Z ; CPythonGuild::RegisterMember
PUBLIC	??1SGuildBoardCommentData@CPythonGuild@@QAE@XZ	; CPythonGuild::SGuildBoardCommentData::~SGuildBoardCommentData
PUBLIC	??0SGuildBoardCommentData@CPythonGuild@@QAE@XZ	; CPythonGuild::SGuildBoardCommentData::SGuildBoardCommentData
PUBLIC	?RegisterComment@CPythonGuild@@QAEXKPBD0@Z	; CPythonGuild::RegisterComment
PUBLIC	?ClearComment@CPythonGuild@@QAEXXZ		; CPythonGuild::ClearComment
PUBLIC	?SetGradeAuthority@CPythonGuild@@QAEXEE@Z	; CPythonGuild::SetGradeAuthority
PUBLIC	?SetGradeName@CPythonGuild@@QAEXEPBD@Z		; CPythonGuild::SetGradeName
PUBLIC	??4SGuildGradeData@CPythonGuild@@QAEAAU01@ABU01@@Z ; CPythonGuild::SGuildGradeData::operator=
PUBLIC	?SetGradeData@CPythonGuild@@QAEXEAAUSGuildGradeData@1@@Z ; CPythonGuild::SetGradeData
PUBLIC	?SetGuildEXP@CPythonGuild@@QAEXEK@Z		; CPythonGuild::SetGuildEXP
PUBLIC	?SetGuildMoney@CPythonGuild@@QAEXK@Z		; CPythonGuild::SetGuildMoney
PUBLIC	?EnableGuild@CPythonGuild@@QAEXXZ		; CPythonGuild::EnableGuild
PUBLIC	??0SGuildGradeData@CPythonGuild@@QAE@XZ		; CPythonGuild::SGuildGradeData::SGuildGradeData
PUBLIC	??0CPythonGuild@@QAE@XZ				; CPythonGuild::CPythonGuild
PUBLIC	??1CPythonGuild@@UAE@XZ				; CPythonGuild::~CPythonGuild
PUBLIC	?g_GuildSkillSlotToIndexMap@@3V?$map@KKU?$less@K@std@@V?$allocator@U?$pair@$$CBKK@std@@@2@@std@@A ; g_GuildSkillSlotToIndexMap
EXTRN	??_ECPythonGuild@@UAEPAXI@Z:PROC		; CPythonGuild::`vector deleting destructor'
EXTRN	??_E?$CSingleton@VCPythonGuild@@@@UAEPAXI@Z:PROC ; CSingleton<CPythonGuild>::`vector deleting destructor'
?g_GuildSkillSlotToIndexMap@@3V?$map@KKU?$less@K@std@@V?$allocator@U?$pair@$$CBKK@std@@@2@@std@@A DQ 01H DUP (?) ; g_GuildSkillSlotToIndexMap
_BSS	ENDS
;	COMDAT xdata$x
xdata$x	SEGMENT
__ehfuncinfo$??0CPythonGuild@@QAE@XZ DQ 00000000419930522r ; 8.69997e-314
	DD	FLAT:__unwindtable$??0CPythonGuild@@QAE@XZ
	DQ	00000000000000000r		; 0
	DQ	00000000000000000r		; 0
	DQ	00000000100000000r		; 2.122e-314
__unwindtable$??0CPythonGuild@@QAE@XZ DD 0ffffffffH
	DD	FLAT:__unwindfunclet$??0CPythonGuild@@QAE@XZ$0
	DD	00H
	DD	FLAT:__unwindfunclet$??0CPythonGuild@@QAE@XZ$1
	DD	01H
	DD	FLAT:__unwindfunclet$??0CPythonGuild@@QAE@XZ$2
	DD	02H
	DD	FLAT:__unwindfunclet$??0CPythonGuild@@QAE@XZ$3
xdata$x	ENDS
;	COMDAT xdata$x
xdata$x	SEGMENT
__ehfuncinfo$?RegisterComment@CPythonGuild@@QAEXKPBD0@Z DQ 00000000219930522r ; 4.45598e-314
	DD	FLAT:__unwindtable$?RegisterComment@CPythonGuild@@QAEXKPBD0@Z
	DQ	00000000000000000r		; 0
	DQ	00000000000000000r		; 0
	DQ	00000000100000000r		; 2.122e-314
__unwindtable$?RegisterComment@CPythonGuild@@QAEXKPBD0@Z DD 0ffffffffH
	DD	FLAT:__unwindfunclet$?RegisterComment@CPythonGuild@@QAEXKPBD0@Z$0
	DD	00H
	DD	FLAT:__unwindfunclet$?RegisterComment@CPythonGuild@@QAEXKPBD0@Z$8
xdata$x	ENDS
;	COMDAT xdata$x
xdata$x	SEGMENT
__ehfuncinfo$?RegisterGuildName@CPythonGuild@@QAEXKPBD@Z DQ 00000000219930522r ; 4.45598e-314
	DD	FLAT:__unwindtable$?RegisterGuildName@CPythonGuild@@QAEXKPBD@Z
	DQ	00000000000000000r		; 0
	DQ	00000000000000000r		; 0
	DQ	00000000100000000r		; 2.122e-314
__unwindtable$?RegisterGuildName@CPythonGuild@@QAEXKPBD@Z DD 0ffffffffH
	DD	FLAT:__unwindfunclet$?RegisterGuildName@CPythonGuild@@QAEXKPBD@Z$0
	DD	00H
	DD	FLAT:__unwindfunclet$?RegisterGuildName@CPythonGuild@@QAEXKPBD@Z$1
xdata$x	ENDS
;	COMDAT xdata$x
xdata$x	SEGMENT
__ehfuncinfo$?guildGetGuildName@@YAPAU_object@@PAU1@0@Z DD 019930522H
	DD	01H
	DD	FLAT:__unwindtable$?guildGetGuildName@@YAPAU_object@@PAU1@0@Z
	DD	2 DUP(00H)
	DD	2 DUP(00H)
	DD	00H
	DD	01H
__unwindtable$?guildGetGuildName@@YAPAU_object@@PAU1@0@Z DD 0ffffffffH
	DD	FLAT:__unwindfunclet$?guildGetGuildName@@YAPAU_object@@PAU1@0@Z$0
xdata$x	ENDS
;	COMDAT xdata$x
xdata$x	SEGMENT
__ehfuncinfo$?guildGetEnemyGuildName@@YAPAU_object@@PAU1@0@Z DD 019930522H
	DD	01H
	DD	FLAT:__unwindtable$?guildGetEnemyGuildName@@YAPAU_object@@PAU1@0@Z
	DD	2 DUP(00H)
	DD	2 DUP(00H)
	DD	00H
	DD	01H
__unwindtable$?guildGetEnemyGuildName@@YAPAU_object@@PAU1@0@Z DD 0ffffffffH
	DD	FLAT:__unwindfunclet$?guildGetEnemyGuildName@@YAPAU_object@@PAU1@0@Z$0
xdata$x	ENDS
;	COMDAT xdata$x
xdata$x	SEGMENT
__ehfuncinfo$?guildGetMarkImageFilenameByMarkID@@YAPAU_object@@PAU1@0@Z DD 019930522H
	DD	01H
	DD	FLAT:__unwindtable$?guildGetMarkImageFilenameByMarkID@@YAPAU_object@@PAU1@0@Z
	DD	2 DUP(00H)
	DD	2 DUP(00H)
	DD	00H
	DD	01H
__unwindtable$?guildGetMarkImageFilenameByMarkID@@YAPAU_object@@PAU1@0@Z DD 0ffffffffH
	DD	FLAT:__unwindfunclet$?guildGetMarkImageFilenameByMarkID@@YAPAU_object@@PAU1@0@Z$0
xdata$x	ENDS
;	COMDAT xdata$x
xdata$x	SEGMENT
__ehfuncinfo$??$insert@U?$pair@HH@std@@$0A@@?$map@KKU?$less@K@std@@V?$allocator@U?$pair@$$CBKK@std@@@2@@std@@QAE?AU?$pair@V?$_Tree_iterator@V?$_Tree_val@U?$_Tree_simple_types@U?$pair@$$CBKK@std@@@std@@@std@@@std@@_N@1@$$QAU?$pair@HH@1@@Z DQ 00000000219930522r ; 4.45598e-314
	DD	FLAT:__unwindtable$??$insert@U?$pair@HH@std@@$0A@@?$map@KKU?$less@K@std@@V?$allocator@U?$pair@$$CBKK@std@@@2@@std@@QAE?AU?$pair@V?$_Tree_iterator@V?$_Tree_val@U?$_Tree_simple_types@U?$pair@$$CBKK@std@@@std@@@std@@@std@@_N@1@$$QAU?$pair@HH@1@@Z
	DQ	00000000000000000r		; 0
	DQ	00000000000000000r		; 0
	DQ	00000000100000000r		; 2.122e-314
__unwindtable$??$insert@U?$pair@HH@std@@$0A@@?$map@KKU?$less@K@std@@V?$allocator@U?$pair@$$CBKK@std@@@2@@std@@QAE?AU?$pair@V?$_Tree_iterator@V?$_Tree_val@U?$_Tree_simple_types@U?$pair@$$CBKK@std@@@std@@@std@@@std@@_N@1@$$QAU?$pair@HH@1@@Z DD 0ffffffffH
	DD	FLAT:__unwindfunclet$??$insert@U?$pair@HH@std@@$0A@@?$map@KKU?$less@K@std@@V?$allocator@U?$pair@$$CBKK@std@@@2@@std@@QAE?AU?$pair@V?$_Tree_iterator@V?$_Tree_val@U?$_Tree_simple_types@U?$pair@$$CBKK@std@@@std@@@std@@@std@@_N@1@$$QAU?$pair@HH@1@@Z$2
	DD	0ffffffffH
	DD	FLAT:__unwindfunclet$??$insert@U?$pair@HH@std@@$0A@@?$map@KKU?$less@K@std@@V?$allocator@U?$pair@$$CBKK@std@@@2@@std@@QAE?AU?$pair@V?$_Tree_iterator@V?$_Tree_val@U?$_Tree_simple_types@U?$pair@$$CBKK@std@@@std@@@std@@@std@@_N@1@$$QAU?$pair@HH@1@@Z$0
xdata$x	ENDS
;	COMDAT xdata$x
xdata$x	SEGMENT
__ehfuncinfo$?push_back@?$vector@USGuildBoardCommentData@CPythonGuild@@V?$allocator@USGuildBoardCommentData@CPythonGuild@@@std@@@std@@QAEXABUSGuildBoardCommentData@CPythonGuild@@@Z DQ 00000000119930522r ; 2.33398e-314
	DD	FLAT:__unwindtable$?push_back@?$vector@USGuildBoardCommentData@CPythonGuild@@V?$allocator@USGuildBoardCommentData@CPythonGuild@@@std@@@std@@QAEXABUSGuildBoardCommentData@CPythonGuild@@@Z
	DQ	00000000000000000r		; 0
	DQ	00000000000000000r		; 0
	DQ	00000000100000000r		; 2.122e-314
__unwindtable$?push_back@?$vector@USGuildBoardCommentData@CPythonGuild@@V?$allocator@USGuildBoardCommentData@CPythonGuild@@@std@@@std@@QAEXABUSGuildBoardCommentData@CPythonGuild@@@Z DD 0ffffffffH
	DD	FLAT:__unwindfunclet$?push_back@?$vector@USGuildBoardCommentData@CPythonGuild@@V?$allocator@USGuildBoardCommentData@CPythonGuild@@@std@@@std@@QAEXABUSGuildBoardCommentData@CPythonGuild@@@Z$0
xdata$x	ENDS
;	COMDAT xdata$x
xdata$x	SEGMENT
__ehfuncinfo$??A?$map@EUSGuildGradeData@CPythonGuild@@U?$less@E@std@@V?$allocator@U?$pair@$$CBEUSGuildGradeData@CPythonGuild@@@std@@@4@@std@@QAEAAUSGuildGradeData@CPythonGuild@@ABE@Z DQ 00000000119930522r ; 2.33398e-314
	DD	FLAT:__unwindtable$??A?$map@EUSGuildGradeData@CPythonGuild@@U?$less@E@std@@V?$allocator@U?$pair@$$CBEUSGuildGradeData@CPythonGuild@@@std@@@4@@std@@QAEAAUSGuildGradeData@CPythonGuild@@ABE@Z
	DQ	00000000000000000r		; 0
	DQ	00000000000000000r		; 0
	DQ	00000000100000000r		; 2.122e-314
__unwindtable$??A?$map@EUSGuildGradeData@CPythonGuild@@U?$less@E@std@@V?$allocator@U?$pair@$$CBEUSGuildGradeData@CPythonGuild@@@std@@@4@@std@@QAEAAUSGuildGradeData@CPythonGuild@@ABE@Z DD 0ffffffffH
	DD	FLAT:__unwindfunclet$??A?$map@EUSGuildGradeData@CPythonGuild@@U?$less@E@std@@V?$allocator@U?$pair@$$CBEUSGuildGradeData@CPythonGuild@@@std@@@4@@std@@QAEAAUSGuildGradeData@CPythonGuild@@ABE@Z$2
xdata$x	ENDS
;	COMDAT xdata$x
xdata$x	SEGMENT
__ehfuncinfo$??A?$map@KV?$basic_string@DU?$char_traits@D@std@@V?$allocator@D@2@@std@@U?$less@K@2@V?$allocator@U?$pair@$$CBKV?$basic_string@DU?$char_traits@D@std@@V?$allocator@D@2@@std@@@std@@@2@@std@@QAEAAV?$basic_string@DU?$char_traits@D@std@@V?$allocator@D@2@@1@ABK@Z DQ 00000000119930522r ; 2.33398e-314
	DD	FLAT:__unwindtable$??A?$map@KV?$basic_string@DU?$char_traits@D@std@@V?$allocator@D@2@@std@@U?$less@K@2@V?$allocator@U?$pair@$$CBKV?$basic_string@DU?$char_traits@D@std@@V?$allocator@D@2@@std@@@std@@@2@@std@@QAEAAV?$basic_string@DU?$char_traits@D@std@@V?$allocator@D@2@@1@ABK@Z
	DQ	00000000000000000r		; 0
	DQ	00000000000000000r		; 0
	DQ	00000000100000000r		; 2.122e-314
__unwindtable$??A?$map@KV?$basic_string@DU?$char_traits@D@std@@V?$allocator@D@2@@std@@U?$less@K@2@V?$allocator@U?$pair@$$CBKV?$basic_string@DU?$char_traits@D@std@@V?$allocator@D@2@@std@@@std@@@2@@std@@QAEAAV?$basic_string@DU?$char_traits@D@std@@V?$allocator@D@2@@1@ABK@Z DD 0ffffffffH
	DD	FLAT:__unwindfunclet$??A?$map@KV?$basic_string@DU?$char_traits@D@std@@V?$allocator@D@2@@std@@U?$less@K@2@V?$allocator@U?$pair@$$CBKV?$basic_string@DU?$char_traits@D@std@@V?$allocator@D@2@@std@@@std@@@2@@std@@QAEAAV?$basic_string@DU?$char_traits@D@std@@V?$allocator@D@2@@1@ABK@Z$2
xdata$x	ENDS
;	COMDAT xdata$x
xdata$x	SEGMENT
__ehfuncinfo$??$emplace@U?$pair@KV?$basic_string@DU?$char_traits@D@std@@V?$allocator@D@2@@std@@@std@@@?$_Tree@V?$_Tmap_traits@KV?$basic_string@DU?$char_traits@D@std@@V?$allocator@D@2@@std@@U?$less@K@2@V?$allocator@U?$pair@$$CBKV?$basic_string@DU?$char_traits@D@std@@V?$allocator@D@2@@std@@@std@@@2@$0A@@std@@@std@@QAE?AU?$pair@V?$_Tree_iterator@V?$_Tree_val@U?$_Tree_simple_types@U?$pair@$$CBKV?$basic_string@DU?$char_traits@D@std@@V?$allocator@D@2@@std@@@std@@@std@@@std@@@std@@_N@1@$$QAU?$pair@KV?$basic_string@DU?$char_traits@D@std@@V?$allocator@D@2@@std@@@1@@Z DQ 00000000119930522r ; 2.33398e-314
	DD	FLAT:__unwindtable$??$emplace@U?$pair@KV?$basic_string@DU?$char_traits@D@std@@V?$allocator@D@2@@std@@@std@@@?$_Tree@V?$_Tmap_traits@KV?$basic_string@DU?$char_traits@D@std@@V?$allocator@D@2@@std@@U?$less@K@2@V?$allocator@U?$pair@$$CBKV?$basic_string@DU?$char_traits@D@std@@V?$allocator@D@2@@std@@@std@@@2@$0A@@std@@@std@@QAE?AU?$pair@V?$_Tree_iterator@V?$_Tree_val@U?$_Tree_simple_types@U?$pair@$$CBKV?$basic_string@DU?$char_traits@D@std@@V?$allocator@D@2@@std@@@std@@@std@@@std@@@std@@_N@1@$$QAU?$pair@KV?$basic_string@DU?$char_traits@D@std@@V?$allocator@D@2@@std@@@1@@Z
	DQ	00000000000000000r		; 0
	DQ	00000000000000000r		; 0
	DQ	00000000100000000r		; 2.122e-314
__unwindtable$??$emplace@U?$pair@KV?$basic_string@DU?$char_traits@D@std@@V?$allocator@D@2@@std@@@std@@@?$_Tree@V?$_Tmap_traits@KV?$basic_string@DU?$char_traits@D@std@@V?$allocator@D@2@@std@@U?$less@K@2@V?$allocator@U?$pair@$$CBKV?$basic_string@DU?$char_traits@D@std@@V?$allocator@D@2@@std@@@std@@@2@$0A@@std@@@std@@QAE?AU?$pair@V?$_Tree_iterator@V?$_Tree_val@U?$_Tree_simple_types@U?$pair@$$CBKV?$basic_string@DU?$char_traits@D@std@@V?$allocator@D@2@@std@@@std@@@std@@@std@@@std@@_N@1@$$QAU?$pair@KV?$basic_string@DU?$char_traits@D@std@@V?$allocator@D@2@@std@@@1@@Z DD 0ffffffffH
	DD	FLAT:__unwindfunclet$??$emplace@U?$pair@KV?$basic_string@DU?$char_traits@D@std@@V?$allocator@D@2@@std@@@std@@@?$_Tree@V?$_Tmap_traits@KV?$basic_string@DU?$char_traits@D@std@@V?$allocator@D@2@@std@@U?$less@K@2@V?$allocator@U?$pair@$$CBKV?$basic_string@DU?$char_traits@D@std@@V?$allocator@D@2@@std@@@std@@@2@$0A@@std@@@std@@QAE?AU?$pair@V?$_Tree_iterator@V?$_Tree_val@U?$_Tree_simple_types@U?$pair@$$CBKV?$basic_string@DU?$char_traits@D@std@@V?$allocator@D@2@@std@@@std@@@std@@@std@@@std@@_N@1@$$QAU?$pair@KV?$basic_string@DU?$char_traits@D@std@@V?$allocator@D@2@@std@@@1@@Z$2
xdata$x	ENDS
;	COMDAT xdata$x
xdata$x	SEGMENT
__ehfuncinfo$??$emplace@U?$pair@HH@std@@@?$_Tree@V?$_Tmap_traits@KKU?$less@K@std@@V?$allocator@U?$pair@$$CBKK@std@@@2@$0A@@std@@@std@@QAE?AU?$pair@V?$_Tree_iterator@V?$_Tree_val@U?$_Tree_simple_types@U?$pair@$$CBKK@std@@@std@@@std@@@std@@_N@1@$$QAU?$pair@HH@1@@Z DQ 00000000219930522r ; 4.45598e-314
	DD	FLAT:__unwindtable$??$emplace@U?$pair@HH@std@@@?$_Tree@V?$_Tmap_traits@KKU?$less@K@std@@V?$allocator@U?$pair@$$CBKK@std@@@2@$0A@@std@@@std@@QAE?AU?$pair@V?$_Tree_iterator@V?$_Tree_val@U?$_Tree_simple_types@U?$pair@$$CBKK@std@@@std@@@std@@@std@@_N@1@$$QAU?$pair@HH@1@@Z
	DQ	00000000000000000r		; 0
	DQ	00000000000000000r		; 0
	DQ	00000000100000000r		; 2.122e-314
__unwindtable$??$emplace@U?$pair@HH@std@@@?$_Tree@V?$_Tmap_traits@KKU?$less@K@std@@V?$allocator@U?$pair@$$CBKK@std@@@2@$0A@@std@@@std@@QAE?AU?$pair@V?$_Tree_iterator@V?$_Tree_val@U?$_Tree_simple_types@U?$pair@$$CBKK@std@@@std@@@std@@@std@@_N@1@$$QAU?$pair@HH@1@@Z DD 0ffffffffH
	DD	FLAT:__unwindfunclet$??$emplace@U?$pair@HH@std@@@?$_Tree@V?$_Tmap_traits@KKU?$less@K@std@@V?$allocator@U?$pair@$$CBKK@std@@@2@$0A@@std@@@std@@QAE?AU?$pair@V?$_Tree_iterator@V?$_Tree_val@U?$_Tree_simple_types@U?$pair@$$CBKK@std@@@std@@@std@@@std@@_N@1@$$QAU?$pair@HH@1@@Z$2
	DD	0ffffffffH
	DD	FLAT:__unwindfunclet$??$emplace@U?$pair@HH@std@@@?$_Tree@V?$_Tmap_traits@KKU?$less@K@std@@V?$allocator@U?$pair@$$CBKK@std@@@2@$0A@@std@@@std@@QAE?AU?$pair@V?$_Tree_iterator@V?$_Tree_val@U?$_Tree_simple_types@U?$pair@$$CBKK@std@@@std@@@std@@@std@@_N@1@$$QAU?$pair@HH@1@@Z$0
xdata$x	ENDS
;	COMDAT xdata$x
xdata$x	SEGMENT
__ehfuncinfo$??$_Emplace_one_at_back@ABUSGuildBoardCommentData@CPythonGuild@@@?$vector@USGuildBoardCommentData@CPythonGuild@@V?$allocator@USGuildBoardCommentData@CPythonGuild@@@std@@@std@@AAEAAUSGuildBoardCommentData@CPythonGuild@@ABU23@@Z DQ 00000000119930522r ; 2.33398e-314
	DD	FLAT:__unwindtable$??$_Emplace_one_at_back@ABUSGuildBoardCommentData@CPythonGuild@@@?$vector@USGuildBoardCommentData@CPythonGuild@@V?$allocator@USGuildBoardCommentData@CPythonGuild@@@std@@@std@@AAEAAUSGuildBoardCommentData@CPythonGuild@@ABU23@@Z
	DQ	00000000000000000r		; 0
	DQ	00000000000000000r		; 0
	DQ	00000000100000000r		; 2.122e-314
__unwindtable$??$_Emplace_one_at_back@ABUSGuildBoardCommentData@CPythonGuild@@@?$vector@USGuildBoardCommentData@CPythonGuild@@V?$allocator@USGuildBoardCommentData@CPythonGuild@@@std@@@std@@AAEAAUSGuildBoardCommentData@CPythonGuild@@ABU23@@Z DD 0ffffffffH
	DD	FLAT:__unwindfunclet$??$_Emplace_one_at_back@ABUSGuildBoardCommentData@CPythonGuild@@@?$vector@USGuildBoardCommentData@CPythonGuild@@V?$allocator@USGuildBoardCommentData@CPythonGuild@@@std@@@std@@AAEAAUSGuildBoardCommentData@CPythonGuild@@ABU23@@Z$0
xdata$x	ENDS
;	COMDAT xdata$x
xdata$x	SEGMENT
__ehfuncinfo$??$_Try_emplace@ABE$$V@?$map@EUSGuildGradeData@CPythonGuild@@U?$less@E@std@@V?$allocator@U?$pair@$$CBEUSGuildGradeData@CPythonGuild@@@std@@@4@@std@@AAE?AU?$pair@PAU?$_Tree_node@U?$pair@$$CBEUSGuildGradeData@CPythonGuild@@@std@@PAX@std@@_N@1@ABE@Z DQ 00000000119930522r ; 2.33398e-314
	DD	FLAT:__unwindtable$??$_Try_emplace@ABE$$V@?$map@EUSGuildGradeData@CPythonGuild@@U?$less@E@std@@V?$allocator@U?$pair@$$CBEUSGuildGradeData@CPythonGuild@@@std@@@4@@std@@AAE?AU?$pair@PAU?$_Tree_node@U?$pair@$$CBEUSGuildGradeData@CPythonGuild@@@std@@PAX@std@@_N@1@ABE@Z
	DQ	00000000000000000r		; 0
	DQ	00000000000000000r		; 0
	DQ	00000000100000000r		; 2.122e-314
__unwindtable$??$_Try_emplace@ABE$$V@?$map@EUSGuildGradeData@CPythonGuild@@U?$less@E@std@@V?$allocator@U?$pair@$$CBEUSGuildGradeData@CPythonGuild@@@std@@@4@@std@@AAE?AU?$pair@PAU?$_Tree_node@U?$pair@$$CBEUSGuildGradeData@CPythonGuild@@@std@@PAX@std@@_N@1@ABE@Z DD 0ffffffffH
	DD	FLAT:__unwindfunclet$??$_Try_emplace@ABE$$V@?$map@EUSGuildGradeData@CPythonGuild@@U?$less@E@std@@V?$allocator@U?$pair@$$CBEUSGuildGradeData@CPythonGuild@@@std@@@4@@std@@AAE?AU?$pair@PAU?$_Tree_node@U?$pair@$$CBEUSGuildGradeData@CPythonGuild@@@std@@PAX@std@@_N@1@ABE@Z$2
xdata$x	ENDS
;	COMDAT xdata$x
xdata$x	SEGMENT
__ehfuncinfo$??$_Try_emplace@ABK$$V@?$map@KV?$basic_string@DU?$char_traits@D@std@@V?$allocator@D@2@@std@@U?$less@K@2@V?$allocator@U?$pair@$$CBKV?$basic_string@DU?$char_traits@D@std@@V?$allocator@D@2@@std@@@std@@@2@@std@@AAE?AU?$pair@PAU?$_Tree_node@U?$pair@$$CBKV?$basic_string@DU?$char_traits@D@std@@V?$allocator@D@2@@std@@@std@@PAX@std@@_N@1@ABK@Z DQ 00000000119930522r ; 2.33398e-314
	DD	FLAT:__unwindtable$??$_Try_emplace@ABK$$V@?$map@KV?$basic_string@DU?$char_traits@D@std@@V?$allocator@D@2@@std@@U?$less@K@2@V?$allocator@U?$pair@$$CBKV?$basic_string@DU?$char_traits@D@std@@V?$allocator@D@2@@std@@@std@@@2@@std@@AAE?AU?$pair@PAU?$_Tree_node@U?$pair@$$CBKV?$basic_string@DU?$char_traits@D@std@@V?$allocator@D@2@@std@@@std@@PAX@std@@_N@1@ABK@Z
	DQ	00000000000000000r		; 0
	DQ	00000000000000000r		; 0
	DQ	00000000100000000r		; 2.122e-314
__unwindtable$??$_Try_emplace@ABK$$V@?$map@KV?$basic_string@DU?$char_traits@D@std@@V?$allocator@D@2@@std@@U?$less@K@2@V?$allocator@U?$pair@$$CBKV?$basic_string@DU?$char_traits@D@std@@V?$allocator@D@2@@std@@@std@@@2@@std@@AAE?AU?$pair@PAU?$_Tree_node@U?$pair@$$CBKV?$basic_string@DU?$char_traits@D@std@@V?$allocator@D@2@@std@@@std@@PAX@std@@_N@1@ABK@Z DD 0ffffffffH
	DD	FLAT:__unwindfunclet$??$_Try_emplace@ABK$$V@?$map@KV?$basic_string@DU?$char_traits@D@std@@V?$allocator@D@2@@std@@U?$less@K@2@V?$allocator@U?$pair@$$CBKV?$basic_string@DU?$char_traits@D@std@@V?$allocator@D@2@@std@@@std@@@2@@std@@AAE?AU?$pair@PAU?$_Tree_node@U?$pair@$$CBKV?$basic_string@DU?$char_traits@D@std@@V?$allocator@D@2@@std@@@std@@PAX@std@@_N@1@ABK@Z$2
xdata$x	ENDS
;	COMDAT xdata$x
xdata$x	SEGMENT
__ehfuncinfo$??$_Emplace@U?$pair@KV?$basic_string@DU?$char_traits@D@std@@V?$allocator@D@2@@std@@@std@@@?$_Tree@V?$_Tmap_traits@KV?$basic_string@DU?$char_traits@D@std@@V?$allocator@D@2@@std@@U?$less@K@2@V?$allocator@U?$pair@$$CBKV?$basic_string@DU?$char_traits@D@std@@V?$allocator@D@2@@std@@@std@@@2@$0A@@std@@@std@@IAE?AU?$pair@PAU?$_Tree_node@U?$pair@$$CBKV?$basic_string@DU?$char_traits@D@std@@V?$allocator@D@2@@std@@@std@@PAX@std@@_N@1@$$QAU?$pair@KV?$basic_string@DU?$char_traits@D@std@@V?$allocator@D@2@@std@@@1@@Z DQ 00000000119930522r ; 2.33398e-314
	DD	FLAT:__unwindtable$??$_Emplace@U?$pair@KV?$basic_string@DU?$char_traits@D@std@@V?$allocator@D@2@@std@@@std@@@?$_Tree@V?$_Tmap_traits@KV?$basic_string@DU?$char_traits@D@std@@V?$allocator@D@2@@std@@U?$less@K@2@V?$allocator@U?$pair@$$CBKV?$basic_string@DU?$char_traits@D@std@@V?$allocator@D@2@@std@@@std@@@2@$0A@@std@@@std@@IAE?AU?$pair@PAU?$_Tree_node@U?$pair@$$CBKV?$basic_string@DU?$char_traits@D@std@@V?$allocator@D@2@@std@@@std@@PAX@std@@_N@1@$$QAU?$pair@KV?$basic_string@DU?$char_traits@D@std@@V?$allocator@D@2@@std@@@1@@Z
	DQ	00000000000000000r		; 0
	DQ	00000000000000000r		; 0
	DQ	00000000100000000r		; 2.122e-314
__unwindtable$??$_Emplace@U?$pair@KV?$basic_string@DU?$char_traits@D@std@@V?$allocator@D@2@@std@@@std@@@?$_Tree@V?$_Tmap_traits@KV?$basic_string@DU?$char_traits@D@std@@V?$allocator@D@2@@std@@U?$less@K@2@V?$allocator@U?$pair@$$CBKV?$basic_string@DU?$char_traits@D@std@@V?$allocator@D@2@@std@@@std@@@2@$0A@@std@@@std@@IAE?AU?$pair@PAU?$_Tree_node@U?$pair@$$CBKV?$basic_string@DU?$char_traits@D@std@@V?$allocator@D@2@@std@@@std@@PAX@std@@_N@1@$$QAU?$pair@KV?$basic_string@DU?$char_traits@D@std@@V?$allocator@D@2@@std@@@1@@Z DD 0ffffffffH
	DD	FLAT:__unwindfunclet$??$_Emplace@U?$pair@KV?$basic_string@DU?$char_traits@D@std@@V?$allocator@D@2@@std@@@std@@@?$_Tree@V?$_Tmap_traits@KV?$basic_string@DU?$char_traits@D@std@@V?$allocator@D@2@@std@@U?$less@K@2@V?$allocator@U?$pair@$$CBKV?$basic_string@DU?$char_traits@D@std@@V?$allocator@D@2@@std@@@std@@@2@$0A@@std@@@std@@IAE?AU?$pair@PAU?$_Tree_node@U?$pair@$$CBKV?$basic_string@DU?$char_traits@D@std@@V?$allocator@D@2@@std@@@std@@PAX@std@@_N@1@$$QAU?$pair@KV?$basic_string@DU?$char_traits@D@std@@V?$allocator@D@2@@std@@@1@@Z$2
xdata$x	ENDS
;	COMDAT xdata$x
xdata$x	SEGMENT
__ehfuncinfo$??$_Emplace@U?$pair@HH@std@@@?$_Tree@V?$_Tmap_traits@KKU?$less@K@std@@V?$allocator@U?$pair@$$CBKK@std@@@2@$0A@@std@@@std@@IAE?AU?$pair@PAU?$_Tree_node@U?$pair@$$CBKK@std@@PAX@std@@_N@1@$$QAU?$pair@HH@1@@Z DQ 00000000219930522r ; 4.45598e-314
	DD	FLAT:__unwindtable$??$_Emplace@U?$pair@HH@std@@@?$_Tree@V?$_Tmap_traits@KKU?$less@K@std@@V?$allocator@U?$pair@$$CBKK@std@@@2@$0A@@std@@@std@@IAE?AU?$pair@PAU?$_Tree_node@U?$pair@$$CBKK@std@@PAX@std@@_N@1@$$QAU?$pair@HH@1@@Z
	DQ	00000000000000000r		; 0
	DQ	00000000000000000r		; 0
	DQ	00000000100000000r		; 2.122e-314
__unwindtable$??$_Emplace@U?$pair@HH@std@@@?$_Tree@V?$_Tmap_traits@KKU?$less@K@std@@V?$allocator@U?$pair@$$CBKK@std@@@2@$0A@@std@@@std@@IAE?AU?$pair@PAU?$_Tree_node@U?$pair@$$CBKK@std@@PAX@std@@_N@1@$$QAU?$pair@HH@1@@Z DD 0ffffffffH
	DD	FLAT:__unwindfunclet$??$_Emplace@U?$pair@HH@std@@@?$_Tree@V?$_Tmap_traits@KKU?$less@K@std@@V?$allocator@U?$pair@$$CBKK@std@@@2@$0A@@std@@@std@@IAE?AU?$pair@PAU?$_Tree_node@U?$pair@$$CBKK@std@@PAX@std@@_N@1@$$QAU?$pair@HH@1@@Z$2
	DD	0ffffffffH
	DD	FLAT:__unwindfunclet$??$_Emplace@U?$pair@HH@std@@@?$_Tree@V?$_Tmap_traits@KKU?$less@K@std@@V?$allocator@U?$pair@$$CBKK@std@@@2@$0A@@std@@@std@@IAE?AU?$pair@PAU?$_Tree_node@U?$pair@$$CBKK@std@@PAX@std@@_N@1@$$QAU?$pair@HH@1@@Z$0
xdata$x	ENDS
;	COMDAT xdata$x
xdata$x	SEGMENT
__ehfuncinfo$??$_Emplace_back_with_unused_capacity@ABUSGuildBoardCommentData@CPythonGuild@@@?$vector@USGuildBoardCommentData@CPythonGuild@@V?$allocator@USGuildBoardCommentData@CPythonGuild@@@std@@@std@@AAEAAUSGuildBoardCommentData@CPythonGuild@@ABU23@@Z DQ 00000000119930522r ; 2.33398e-314
	DD	FLAT:__unwindtable$??$_Emplace_back_with_unused_capacity@ABUSGuildBoardCommentData@CPythonGuild@@@?$vector@USGuildBoardCommentData@CPythonGuild@@V?$allocator@USGuildBoardCommentData@CPythonGuild@@@std@@@std@@AAEAAUSGuildBoardCommentData@CPythonGuild@@ABU23@@Z
	DQ	00000000000000000r		; 0
	DQ	00000000000000000r		; 0
	DQ	00000000100000000r		; 2.122e-314
__unwindtable$??$_Emplace_back_with_unused_capacity@ABUSGuildBoardCommentData@CPythonGuild@@@?$vector@USGuildBoardCommentData@CPythonGuild@@V?$allocator@USGuildBoardCommentData@CPythonGuild@@@std@@@std@@AAEAAUSGuildBoardCommentData@CPythonGuild@@ABU23@@Z DD 0ffffffffH
	DD	FLAT:__unwindfunclet$??$_Emplace_back_with_unused_capacity@ABUSGuildBoardCommentData@CPythonGuild@@@?$vector@USGuildBoardCommentData@CPythonGuild@@V?$allocator@USGuildBoardCommentData@CPythonGuild@@@std@@@std@@AAEAAUSGuildBoardCommentData@CPythonGuild@@ABU23@@Z$0
xdata$x	ENDS
;	COMDAT xdata$x
xdata$x	SEGMENT
__ehfuncinfo$??$_Emplace_reallocate@ABUSGuildBoardCommentData@CPythonGuild@@@?$vector@USGuildBoardCommentData@CPythonGuild@@V?$allocator@USGuildBoardCommentData@CPythonGuild@@@std@@@std@@AAEPAUSGuildBoardCommentData@CPythonGuild@@QAU23@ABU23@@Z DQ 00000000219930522r ; 4.45598e-314
	DD	FLAT:__unwindtable$??$_Emplace_reallocate@ABUSGuildBoardCommentData@CPythonGuild@@@?$vector@USGuildBoardCommentData@CPythonGuild@@V?$allocator@USGuildBoardCommentData@CPythonGuild@@@std@@@std@@AAEPAUSGuildBoardCommentData@CPythonGuild@@QAU23@ABU23@@Z
	DQ	00000000000000000r		; 0
	DQ	00000000000000000r		; 0
	DQ	00000000100000000r		; 2.122e-314
__unwindtable$??$_Emplace_reallocate@ABUSGuildBoardCommentData@CPythonGuild@@@?$vector@USGuildBoardCommentData@CPythonGuild@@V?$allocator@USGuildBoardCommentData@CPythonGuild@@@std@@@std@@AAEPAUSGuildBoardCommentData@CPythonGuild@@QAU23@ABU23@@Z DD 0ffffffffH
	DD	FLAT:__unwindfunclet$??$_Emplace_reallocate@ABUSGuildBoardCommentData@CPythonGuild@@@?$vector@USGuildBoardCommentData@CPythonGuild@@V?$allocator@USGuildBoardCommentData@CPythonGuild@@@std@@@std@@AAEPAUSGuildBoardCommentData@CPythonGuild@@QAU23@ABU23@@Z$0
	DD	00H
	DD	FLAT:__unwindfunclet$??$_Emplace_reallocate@ABUSGuildBoardCommentData@CPythonGuild@@@?$vector@USGuildBoardCommentData@CPythonGuild@@V?$allocator@USGuildBoardCommentData@CPythonGuild@@@std@@@std@@AAEPAUSGuildBoardCommentData@CPythonGuild@@QAU23@ABU23@@Z$1
xdata$x	ENDS
;	COMDAT xdata$x
xdata$x	SEGMENT
__ehfuncinfo$??$_Emplace_reallocate@ABUSGuildMemberData@CPythonGuild@@@?$vector@USGuildMemberData@CPythonGuild@@V?$allocator@USGuildMemberData@CPythonGuild@@@std@@@std@@AAEPAUSGuildMemberData@CPythonGuild@@QAU23@ABU23@@Z DQ 00000000119930522r ; 2.33398e-314
	DD	FLAT:__unwindtable$??$_Emplace_reallocate@ABUSGuildMemberData@CPythonGuild@@@?$vector@USGuildMemberData@CPythonGuild@@V?$allocator@USGuildMemberData@CPythonGuild@@@std@@@std@@AAEPAUSGuildMemberData@CPythonGuild@@QAU23@ABU23@@Z
	DQ	00000000000000000r		; 0
	DQ	00000000000000000r		; 0
	DQ	00000000100000000r		; 2.122e-314
__unwindtable$??$_Emplace_reallocate@ABUSGuildMemberData@CPythonGuild@@@?$vector@USGuildMemberData@CPythonGuild@@V?$allocator@USGuildMemberData@CPythonGuild@@@std@@@std@@AAEPAUSGuildMemberData@CPythonGuild@@QAU23@ABU23@@Z DD 0ffffffffH
	DD	FLAT:__unwindfunclet$??$_Emplace_reallocate@ABUSGuildMemberData@CPythonGuild@@@?$vector@USGuildMemberData@CPythonGuild@@V?$allocator@USGuildMemberData@CPythonGuild@@@std@@@std@@AAEPAUSGuildMemberData@CPythonGuild@@QAU23@ABU23@@Z$0
xdata$x	ENDS
;	COMDAT xdata$x
xdata$x	SEGMENT
__ehfuncinfo$??$?0ABUpiecewise_construct_t@std@@V?$tuple@ABE@1@V?$tuple@$$V@1@@?$_Tree_temp_node@V?$allocator@U?$_Tree_node@U?$pair@$$CBEUSGuildGradeData@CPythonGuild@@@std@@PAX@std@@@std@@@std@@QAE@AAV?$allocator@U?$_Tree_node@U?$pair@$$CBEUSGuildGradeData@CPythonGuild@@@std@@PAX@std@@@1@PAU?$_Tree_node@U?$pair@$$CBEUSGuildGradeData@CPythonGuild@@@std@@PAX@1@ABUpiecewise_construct_t@1@$$QAV?$tuple@ABE@1@$$QAV?$tuple@$$V@1@@Z DQ 00000000119930522r ; 2.33398e-314
	DD	FLAT:__unwindtable$??$?0ABUpiecewise_construct_t@std@@V?$tuple@ABE@1@V?$tuple@$$V@1@@?$_Tree_temp_node@V?$allocator@U?$_Tree_node@U?$pair@$$CBEUSGuildGradeData@CPythonGuild@@@std@@PAX@std@@@std@@@std@@QAE@AAV?$allocator@U?$_Tree_node@U?$pair@$$CBEUSGuildGradeData@CPythonGuild@@@std@@PAX@std@@@1@PAU?$_Tree_node@U?$pair@$$CBEUSGuildGradeData@CPythonGuild@@@std@@PAX@1@ABUpiecewise_construct_t@1@$$QAV?$tuple@ABE@1@$$QAV?$tuple@$$V@1@@Z
	DQ	00000000000000000r		; 0
	DQ	00000000000000000r		; 0
	DQ	00000000100000000r		; 2.122e-314
__unwindtable$??$?0ABUpiecewise_construct_t@std@@V?$tuple@ABE@1@V?$tuple@$$V@1@@?$_Tree_temp_node@V?$allocator@U?$_Tree_node@U?$pair@$$CBEUSGuildGradeData@CPythonGuild@@@std@@PAX@std@@@std@@@std@@QAE@AAV?$allocator@U?$_Tree_node@U?$pair@$$CBEUSGuildGradeData@CPythonGuild@@@std@@PAX@std@@@1@PAU?$_Tree_node@U?$pair@$$CBEUSGuildGradeData@CPythonGuild@@@std@@PAX@1@ABUpiecewise_construct_t@1@$$QAV?$tuple@ABE@1@$$QAV?$tuple@$$V@1@@Z DD 0ffffffffH
	DD	FLAT:__unwindfunclet$??$?0ABUpiecewise_construct_t@std@@V?$tuple@ABE@1@V?$tuple@$$V@1@@?$_Tree_temp_node@V?$allocator@U?$_Tree_node@U?$pair@$$CBEUSGuildGradeData@CPythonGuild@@@std@@PAX@std@@@std@@@std@@QAE@AAV?$allocator@U?$_Tree_node@U?$pair@$$CBEUSGuildGradeData@CPythonGuild@@@std@@PAX@std@@@1@PAU?$_Tree_node@U?$pair@$$CBEUSGuildGradeData@CPythonGuild@@@std@@PAX@1@ABUpiecewise_construct_t@1@$$QAV?$tuple@ABE@1@$$QAV?$tuple@$$V@1@@Z$1
xdata$x	ENDS
;	COMDAT xdata$x
xdata$x	SEGMENT
__ehfuncinfo$??$?0ABUpiecewise_construct_t@std@@V?$tuple@ABK@1@V?$tuple@$$V@1@@?$_Tree_temp_node@V?$allocator@U?$_Tree_node@U?$pair@$$CBKV?$basic_string@DU?$char_traits@D@std@@V?$allocator@D@2@@std@@@std@@PAX@std@@@std@@@std@@QAE@AAV?$allocator@U?$_Tree_node@U?$pair@$$CBKV?$basic_string@DU?$char_traits@D@std@@V?$allocator@D@2@@std@@@std@@PAX@std@@@1@PAU?$_Tree_node@U?$pair@$$CBKV?$basic_string@DU?$char_traits@D@std@@V?$allocator@D@2@@std@@@std@@PAX@1@ABUpiecewise_construct_t@1@$$QAV?$tuple@ABK@1@$$QAV?$tuple@$$V@1@@Z DQ 00000000119930522r ; 2.33398e-314
	DD	FLAT:__unwindtable$??$?0ABUpiecewise_construct_t@std@@V?$tuple@ABK@1@V?$tuple@$$V@1@@?$_Tree_temp_node@V?$allocator@U?$_Tree_node@U?$pair@$$CBKV?$basic_string@DU?$char_traits@D@std@@V?$allocator@D@2@@std@@@std@@PAX@std@@@std@@@std@@QAE@AAV?$allocator@U?$_Tree_node@U?$pair@$$CBKV?$basic_string@DU?$char_traits@D@std@@V?$allocator@D@2@@std@@@std@@PAX@std@@@1@PAU?$_Tree_node@U?$pair@$$CBKV?$basic_string@DU?$char_traits@D@std@@V?$allocator@D@2@@std@@@std@@PAX@1@ABUpiecewise_construct_t@1@$$QAV?$tuple@ABK@1@$$QAV?$tuple@$$V@1@@Z
	DQ	00000000000000000r		; 0
	DQ	00000000000000000r		; 0
	DQ	00000000100000000r		; 2.122e-314
__unwindtable$??$?0ABUpiecewise_construct_t@std@@V?$tuple@ABK@1@V?$tuple@$$V@1@@?$_Tree_temp_node@V?$allocator@U?$_Tree_node@U?$pair@$$CBKV?$basic_string@DU?$char_traits@D@std@@V?$allocator@D@2@@std@@@std@@PAX@std@@@std@@@std@@QAE@AAV?$allocator@U?$_Tree_node@U?$pair@$$CBKV?$basic_string@DU?$char_traits@D@std@@V?$allocator@D@2@@std@@@std@@PAX@std@@@1@PAU?$_Tree_node@U?$pair@$$CBKV?$basic_string@DU?$char_traits@D@std@@V?$allocator@D@2@@std@@@std@@PAX@1@ABUpiecewise_construct_t@1@$$QAV?$tuple@ABK@1@$$QAV?$tuple@$$V@1@@Z DD 0ffffffffH
	DD	FLAT:__unwindfunclet$??$?0ABUpiecewise_construct_t@std@@V?$tuple@ABK@1@V?$tuple@$$V@1@@?$_Tree_temp_node@V?$allocator@U?$_Tree_node@U?$pair@$$CBKV?$basic_string@DU?$char_traits@D@std@@V?$allocator@D@2@@std@@@std@@PAX@std@@@std@@@std@@QAE@AAV?$allocator@U?$_Tree_node@U?$pair@$$CBKV?$basic_string@DU?$char_traits@D@std@@V?$allocator@D@2@@std@@@std@@PAX@std@@@1@PAU?$_Tree_node@U?$pair@$$CBKV?$basic_string@DU?$char_traits@D@std@@V?$allocator@D@2@@std@@@std@@PAX@1@ABUpiecewise_construct_t@1@$$QAV?$tuple@ABK@1@$$QAV?$tuple@$$V@1@@Z$1
xdata$x	ENDS
;	COMDAT xdata$x
xdata$x	SEGMENT
__ehfuncinfo$??$?0U?$pair@KV?$basic_string@DU?$char_traits@D@std@@V?$allocator@D@2@@std@@@std@@@?$_Tree_temp_node@V?$allocator@U?$_Tree_node@U?$pair@$$CBKV?$basic_string@DU?$char_traits@D@std@@V?$allocator@D@2@@std@@@std@@PAX@std@@@std@@@std@@QAE@AAV?$allocator@U?$_Tree_node@U?$pair@$$CBKV?$basic_string@DU?$char_traits@D@std@@V?$allocator@D@2@@std@@@std@@PAX@std@@@1@PAU?$_Tree_node@U?$pair@$$CBKV?$basic_string@DU?$char_traits@D@std@@V?$allocator@D@2@@std@@@std@@PAX@1@$$QAU?$pair@KV?$basic_string@DU?$char_traits@D@std@@V?$allocator@D@2@@std@@@1@@Z DQ 00000000119930522r ; 2.33398e-314
	DD	FLAT:__unwindtable$??$?0U?$pair@KV?$basic_string@DU?$char_traits@D@std@@V?$allocator@D@2@@std@@@std@@@?$_Tree_temp_node@V?$allocator@U?$_Tree_node@U?$pair@$$CBKV?$basic_string@DU?$char_traits@D@std@@V?$allocator@D@2@@std@@@std@@PAX@std@@@std@@@std@@QAE@AAV?$allocator@U?$_Tree_node@U?$pair@$$CBKV?$basic_string@DU?$char_traits@D@std@@V?$allocator@D@2@@std@@@std@@PAX@std@@@1@PAU?$_Tree_node@U?$pair@$$CBKV?$basic_string@DU?$char_traits@D@std@@V?$allocator@D@2@@std@@@std@@PAX@1@$$QAU?$pair@KV?$basic_string@DU?$char_traits@D@std@@V?$allocator@D@2@@std@@@1@@Z
	DQ	00000000000000000r		; 0
	DQ	00000000000000000r		; 0
	DQ	00000000100000000r		; 2.122e-314
__unwindtable$??$?0U?$pair@KV?$basic_string@DU?$char_traits@D@std@@V?$allocator@D@2@@std@@@std@@@?$_Tree_temp_node@V?$allocator@U?$_Tree_node@U?$pair@$$CBKV?$basic_string@DU?$char_traits@D@std@@V?$allocator@D@2@@std@@@std@@PAX@std@@@std@@@std@@QAE@AAV?$allocator@U?$_Tree_node@U?$pair@$$CBKV?$basic_string@DU?$char_traits@D@std@@V?$allocator@D@2@@std@@@std@@PAX@std@@@1@PAU?$_Tree_node@U?$pair@$$CBKV?$basic_string@DU?$char_traits@D@std@@V?$allocator@D@2@@std@@@std@@PAX@1@$$QAU?$pair@KV?$basic_string@DU?$char_traits@D@std@@V?$allocator@D@2@@std@@@1@@Z DD 0ffffffffH
	DD	FLAT:__unwindfunclet$??$?0U?$pair@KV?$basic_string@DU?$char_traits@D@std@@V?$allocator@D@2@@std@@@std@@@?$_Tree_temp_node@V?$allocator@U?$_Tree_node@U?$pair@$$CBKV?$basic_string@DU?$char_traits@D@std@@V?$allocator@D@2@@std@@@std@@PAX@std@@@std@@@std@@QAE@AAV?$allocator@U?$_Tree_node@U?$pair@$$CBKV?$basic_string@DU?$char_traits@D@std@@V?$allocator@D@2@@std@@@std@@PAX@std@@@1@PAU?$_Tree_node@U?$pair@$$CBKV?$basic_string@DU?$char_traits@D@std@@V?$allocator@D@2@@std@@@std@@PAX@1@$$QAU?$pair@KV?$basic_string@DU?$char_traits@D@std@@V?$allocator@D@2@@std@@@1@@Z$1
xdata$x	ENDS
;	COMDAT xdata$x
xdata$x	SEGMENT
__ehfuncinfo$??$?0U?$pair@HH@std@@@?$_Tree_temp_node@V?$allocator@U?$_Tree_node@U?$pair@$$CBKK@std@@PAX@std@@@std@@@std@@QAE@AAV?$allocator@U?$_Tree_node@U?$pair@$$CBKK@std@@PAX@std@@@1@PAU?$_Tree_node@U?$pair@$$CBKK@std@@PAX@1@$$QAU?$pair@HH@1@@Z DQ 00000000119930522r ; 2.33398e-314
	DD	FLAT:__unwindtable$??$?0U?$pair@HH@std@@@?$_Tree_temp_node@V?$allocator@U?$_Tree_node@U?$pair@$$CBKK@std@@PAX@std@@@std@@@std@@QAE@AAV?$allocator@U?$_Tree_node@U?$pair@$$CBKK@std@@PAX@std@@@1@PAU?$_Tree_node@U?$pair@$$CBKK@std@@PAX@1@$$QAU?$pair@HH@1@@Z
	DQ	00000000000000000r		; 0
	DQ	00000000000000000r		; 0
	DQ	00000000100000000r		; 2.122e-314
__unwindtable$??$?0U?$pair@HH@std@@@?$_Tree_temp_node@V?$allocator@U?$_Tree_node@U?$pair@$$CBKK@std@@PAX@std@@@std@@@std@@QAE@AAV?$allocator@U?$_Tree_node@U?$pair@$$CBKK@std@@PAX@std@@@1@PAU?$_Tree_node@U?$pair@$$CBKK@std@@PAX@1@$$QAU?$pair@HH@1@@Z DD 0ffffffffH
	DD	FLAT:__unwindfunclet$??$?0U?$pair@HH@std@@@?$_Tree_temp_node@V?$allocator@U?$_Tree_node@U?$pair@$$CBKK@std@@PAX@std@@@std@@@std@@QAE@AAV?$allocator@U?$_Tree_node@U?$pair@$$CBKK@std@@PAX@std@@@1@PAU?$_Tree_node@U?$pair@$$CBKK@std@@PAX@1@$$QAU?$pair@HH@1@@Z$1
xdata$x	ENDS
;	COMDAT xdata$x
xdata$x	SEGMENT
__ehfuncinfo$??$construct@USGuildBoardCommentData@CPythonGuild@@ABU12@@?$_Default_allocator_traits@V?$allocator@USGuildBoardCommentData@CPythonGuild@@@std@@@std@@SAXAAV?$allocator@USGuildBoardCommentData@CPythonGuild@@@1@QAUSGuildBoardCommentData@CPythonGuild@@ABU34@@Z DQ 00000000119930522r ; 2.33398e-314
	DD	FLAT:__unwindtable$??$construct@USGuildBoardCommentData@CPythonGuild@@ABU12@@?$_Default_allocator_traits@V?$allocator@USGuildBoardCommentData@CPythonGuild@@@std@@@std@@SAXAAV?$allocator@USGuildBoardCommentData@CPythonGuild@@@1@QAUSGuildBoardCommentData@CPythonGuild@@ABU34@@Z
	DQ	00000000000000000r		; 0
	DQ	00000000000000000r		; 0
	DQ	00000000100000000r		; 2.122e-314
__unwindtable$??$construct@USGuildBoardCommentData@CPythonGuild@@ABU12@@?$_Default_allocator_traits@V?$allocator@USGuildBoardCommentData@CPythonGuild@@@std@@@std@@SAXAAV?$allocator@USGuildBoardCommentData@CPythonGuild@@@1@QAUSGuildBoardCommentData@CPythonGuild@@ABU34@@Z DD 0ffffffffH
	DD	FLAT:__unwindfunclet$??$construct@USGuildBoardCommentData@CPythonGuild@@ABU12@@?$_Default_allocator_traits@V?$allocator@USGuildBoardCommentData@CPythonGuild@@@std@@@std@@SAXAAV?$allocator@USGuildBoardCommentData@CPythonGuild@@@1@QAUSGuildBoardCommentData@CPythonGuild@@ABU34@@Z$0
xdata$x	ENDS
;	COMDAT xdata$x
xdata$x	SEGMENT
__ehfuncinfo$??0?$_Tree_temp_node_alloc@V?$allocator@U?$_Tree_node@U?$pair@$$CBKV?$basic_string@DU?$char_traits@D@std@@V?$allocator@D@2@@std@@@std@@PAX@std@@@std@@@std@@QAE@AAV?$allocator@U?$_Tree_node@U?$pair@$$CBKV?$basic_string@DU?$char_traits@D@std@@V?$allocator@D@2@@std@@@std@@PAX@std@@@1@@Z DQ 00000000119930522r ; 2.33398e-314
	DD	FLAT:__unwindtable$??0?$_Tree_temp_node_alloc@V?$allocator@U?$_Tree_node@U?$pair@$$CBKV?$basic_string@DU?$char_traits@D@std@@V?$allocator@D@2@@std@@@std@@PAX@std@@@std@@@std@@QAE@AAV?$allocator@U?$_Tree_node@U?$pair@$$CBKV?$basic_string@DU?$char_traits@D@std@@V?$allocator@D@2@@std@@@std@@PAX@std@@@1@@Z
	DQ	00000000000000000r		; 0
	DQ	00000000000000000r		; 0
	DQ	00000000100000000r		; 2.122e-314
__unwindtable$??0?$_Tree_temp_node_alloc@V?$allocator@U?$_Tree_node@U?$pair@$$CBKV?$basic_string@DU?$char_traits@D@std@@V?$allocator@D@2@@std@@@std@@PAX@std@@@std@@@std@@QAE@AAV?$allocator@U?$_Tree_node@U?$pair@$$CBKV?$basic_string@DU?$char_traits@D@std@@V?$allocator@D@2@@std@@@std@@PAX@std@@@1@@Z DD 0ffffffffH
	DD	FLAT:__unwindfunclet$??0?$_Tree_temp_node_alloc@V?$allocator@U?$_Tree_node@U?$pair@$$CBKV?$basic_string@DU?$char_traits@D@std@@V?$allocator@D@2@@std@@@std@@PAX@std@@@std@@@std@@QAE@AAV?$allocator@U?$_Tree_node@U?$pair@$$CBKV?$basic_string@DU?$char_traits@D@std@@V?$allocator@D@2@@std@@@std@@PAX@std@@@1@@Z$0
xdata$x	ENDS
;	COMDAT xdata$x
xdata$x	SEGMENT
__ehfuncinfo$??0?$_Tree_temp_node_alloc@V?$allocator@U?$_Tree_node@U?$pair@$$CBEUSGuildGradeData@CPythonGuild@@@std@@PAX@std@@@std@@@std@@QAE@AAV?$allocator@U?$_Tree_node@U?$pair@$$CBEUSGuildGradeData@CPythonGuild@@@std@@PAX@std@@@1@@Z DQ 00000000119930522r ; 2.33398e-314
	DD	FLAT:__unwindtable$??0?$_Tree_temp_node_alloc@V?$allocator@U?$_Tree_node@U?$pair@$$CBEUSGuildGradeData@CPythonGuild@@@std@@PAX@std@@@std@@@std@@QAE@AAV?$allocator@U?$_Tree_node@U?$pair@$$CBEUSGuildGradeData@CPythonGuild@@@std@@PAX@std@@@1@@Z
	DQ	00000000000000000r		; 0
	DQ	00000000000000000r		; 0
	DQ	00000000100000000r		; 2.122e-314
__unwindtable$??0?$_Tree_temp_node_alloc@V?$allocator@U?$_Tree_node@U?$pair@$$CBEUSGuildGradeData@CPythonGuild@@@std@@PAX@std@@@std@@@std@@QAE@AAV?$allocator@U?$_Tree_node@U?$pair@$$CBEUSGuildGradeData@CPythonGuild@@@std@@PAX@std@@@1@@Z DD 0ffffffffH
	DD	FLAT:__unwindfunclet$??0?$_Tree_temp_node_alloc@V?$allocator@U?$_Tree_node@U?$pair@$$CBEUSGuildGradeData@CPythonGuild@@@std@@PAX@std@@@std@@@std@@QAE@AAV?$allocator@U?$_Tree_node@U?$pair@$$CBEUSGuildGradeData@CPythonGuild@@@std@@PAX@std@@@1@@Z$0
xdata$x	ENDS
;	COMDAT xdata$x
xdata$x	SEGMENT
__ehfuncinfo$??$construct_at@USGuildBoardCommentData@CPythonGuild@@ABU12@@std@@YAPAUSGuildBoardCommentData@CPythonGuild@@QAU12@ABU12@@Z DQ 00000000119930522r ; 2.33398e-314
	DD	FLAT:__unwindtable$??$construct_at@USGuildBoardCommentData@CPythonGuild@@ABU12@@std@@YAPAUSGuildBoardCommentData@CPythonGuild@@QAU12@ABU12@@Z
	DQ	00000000000000000r		; 0
	DQ	00000000000000000r		; 0
	DQ	00000000100000000r		; 2.122e-314
__unwindtable$??$construct_at@USGuildBoardCommentData@CPythonGuild@@ABU12@@std@@YAPAUSGuildBoardCommentData@CPythonGuild@@QAU12@ABU12@@Z DD 0ffffffffH
	DD	FLAT:__unwindfunclet$??$construct_at@USGuildBoardCommentData@CPythonGuild@@ABU12@@std@@YAPAUSGuildBoardCommentData@CPythonGuild@@QAU12@ABU12@@Z$0
xdata$x	ENDS
;	COMDAT xdata$x
xdata$x	SEGMENT
__ehfuncinfo$??0SGuildBoardCommentData@CPythonGuild@@QAE@ABU01@@Z DQ 00000000119930522r ; 2.33398e-314
	DD	FLAT:__unwindtable$??0SGuildBoardCommentData@CPythonGuild@@QAE@ABU01@@Z
	DQ	00000000000000000r		; 0
	DQ	00000000000000000r		; 0
	DQ	00000000100000000r		; 2.122e-314
__unwindtable$??0SGuildBoardCommentData@CPythonGuild@@QAE@ABU01@@Z DD 0ffffffffH
	DD	FLAT:__unwindfunclet$??0SGuildBoardCommentData@CPythonGuild@@QAE@ABU01@@Z$0
?g_GuildSkillSlotToIndexMap$initializer$@@3P6AXXZA DD FLAT:??__Eg_GuildSkillSlotToIndexMap@@YAXXZ ; g_GuildSkillSlotToIndexMap$initializer$
; Function compile flags: /Ogtp
; File C:\Anka2Project\Anka2Project\Source\Binary\source\UserInterface\PythonGuild.cpp
; File C:\Program Files\Microsoft Visual Studio\2022\Community\VC\Tools\MSVC\14.44.35207\include\xmemory
; File C:\Anka2Project\Anka2Project\Source\Binary\source\UserInterface\PythonGuild.cpp
; File C:\Program Files\Microsoft Visual Studio\2022\Community\VC\Tools\MSVC\14.44.35207\include\xtree
; File C:\Anka2Project\Anka2Project\Source\Binary\source\UserInterface\PythonGuild.cpp
;	COMDAT ??__Eg_GuildSkillSlotToIndexMap@@YAXXZ
text$di	SEGMENT
??__Eg_GuildSkillSlotToIndexMap@@YAXXZ PROC		; `dynamic initializer for 'g_GuildSkillSlotToIndexMap'', COMDAT
; File C:\Program Files\Microsoft Visual Studio\2022\Community\VC\Tools\MSVC\14.44.35207\include\xmemory

; 136  :         return ::operator new(_Bytes);

  00000	6a 18		 push	 24			; 00000018H
  00002	e8 00 00 00 00	 call	 ??2@YAPAXI@Z		; operator new
; File C:\Anka2Project\Anka2Project\Source\Binary\source\UserInterface\PythonGuild.cpp

; 6    : std::map<DWORD, DWORD> g_GuildSkillSlotToIndexMap;

  00007	68 00 00 00 00	 push	 OFFSET ??__Fg_GuildSkillSlotToIndexMap@@YAXXZ ; `dynamic atexit destructor for 'g_GuildSkillSlotToIndexMap''
; File C:\Program Files\Microsoft Visual Studio\2022\Community\VC\Tools\MSVC\14.44.35207\include\xtree

; 346  :         _Construct_in_place(_Pnode->_Left, _Pnode);

  0000c	89 00		 mov	 DWORD PTR [eax], eax

; 347  :         _Construct_in_place(_Pnode->_Parent, _Pnode);

  0000e	89 40 04	 mov	 DWORD PTR [eax+4], eax

; 348  :         _Construct_in_place(_Pnode->_Right, _Pnode);

  00011	89 40 08	 mov	 DWORD PTR [eax+8], eax

; 349  :         _Pnode->_Color = _Black;

  00014	66 c7 40 0c 01
	01		 mov	 WORD PTR [eax+12], 257	; 00000101H

; 1957 :         _Scary->_Myhead = _Node::_Buyheadnode(_Getal());

  0001a	a3 00 00 00 00	 mov	 DWORD PTR ?g_GuildSkillSlotToIndexMap@@3V?$map@KKU?$less@K@std@@V?$allocator@U?$pair@$$CBKK@std@@@2@@std@@A, eax
; File C:\Anka2Project\Anka2Project\Source\Binary\source\UserInterface\PythonGuild.cpp

; 6    : std::map<DWORD, DWORD> g_GuildSkillSlotToIndexMap;

  0001f	e8 00 00 00 00	 call	 _atexit
  00024	83 c4 08	 add	 esp, 8
  00027	c3		 ret	 0
??__Eg_GuildSkillSlotToIndexMap@@YAXXZ ENDP		; `dynamic initializer for 'g_GuildSkillSlotToIndexMap''
text$di	ENDS
; Function compile flags: /Ogtp
; File C:\Program Files\Microsoft Visual Studio\2022\Community\VC\Tools\MSVC\14.44.35207\include\xtree
; File C:\Program Files\Microsoft Visual Studio\2022\Community\VC\Tools\MSVC\14.44.35207\include\xmemory
;	COMDAT ??__Fg_GuildSkillSlotToIndexMap@@YAXXZ
text$yd	SEGMENT
??__Fg_GuildSkillSlotToIndexMap@@YAXXZ PROC		; `dynamic atexit destructor for 'g_GuildSkillSlotToIndexMap'', COMDAT
; File C:\Program Files\Microsoft Visual Studio\2022\Community\VC\Tools\MSVC\14.44.35207\include\xtree

; 777  :         _Erase_tree(_Al, _Myhead->_Parent);

  00000	a1 00 00 00 00	 mov	 eax, DWORD PTR ?g_GuildSkillSlotToIndexMap@@3V?$map@KKU?$less@K@std@@V?$allocator@U?$pair@$$CBKK@std@@@2@@std@@A
  00005	b9 00 00 00 00	 mov	 ecx, OFFSET ?g_GuildSkillSlotToIndexMap@@3V?$map@KKU?$less@K@std@@V?$allocator@U?$pair@$$CBKK@std@@@2@@std@@A ; g_GuildSkillSlotToIndexMap
  0000a	ff 70 04	 push	 DWORD PTR [eax+4]
  0000d	68 00 00 00 00	 push	 OFFSET ?g_GuildSkillSlotToIndexMap@@3V?$map@KKU?$less@K@std@@V?$allocator@U?$pair@$$CBKK@std@@@2@@std@@A ; g_GuildSkillSlotToIndexMap
  00012	e8 00 00 00 00	 call	 ??$_Erase_tree@V?$allocator@U?$_Tree_node@U?$pair@$$CBKK@std@@PAX@std@@@std@@@?$_Tree_val@U?$_Tree_simple_types@U?$pair@$$CBKK@std@@@std@@@std@@QAEXAAV?$allocator@U?$_Tree_node@U?$pair@$$CBKK@std@@PAX@std@@@1@PAU?$_Tree_node@U?$pair@$$CBKK@std@@PAX@1@@Z ; std::_Tree_val<std::_Tree_simple_types<std::pair<unsigned long const ,unsigned long> > >::_Erase_tree<std::allocator<std::_Tree_node<std::pair<unsigned long const ,unsigned long>,void *> > >
; File C:\Program Files\Microsoft Visual Studio\2022\Community\VC\Tools\MSVC\14.44.35207\include\xmemory

; 289  :         ::operator delete(_Ptr, _Bytes);

  00017	6a 18		 push	 24			; 00000018H
  00019	ff 35 00 00 00
	00		 push	 DWORD PTR ?g_GuildSkillSlotToIndexMap@@3V?$map@KKU?$less@K@std@@V?$allocator@U?$pair@$$CBKK@std@@@2@@std@@A
  0001f	e8 00 00 00 00	 call	 ??3@YAXPAXI@Z		; operator delete
  00024	83 c4 08	 add	 esp, 8
  00027	c3		 ret	 0
??__Fg_GuildSkillSlotToIndexMap@@YAXXZ ENDP		; `dynamic atexit destructor for 'g_GuildSkillSlotToIndexMap''
text$yd	ENDS
; Function compile flags: /Ogtp
; File C:\Anka2Project\Anka2Project\Source\Binary\source\UserInterface\PythonGuild.cpp
; File C:\Anka2Project\Anka2Project\Source\Binary\source\UserInterface\AbstractSingleton.h
; File C:\Anka2Project\Anka2Project\Source\Binary\source\UserInterface\PythonGuild.cpp
; File C:\Program Files\Microsoft Visual Studio\2022\Community\VC\Tools\MSVC\14.44.35207\include\__msvc_string_view.hpp
; File C:\Program Files\Microsoft Visual Studio\2022\Community\VC\Tools\MSVC\14.44.35207\include\xstring
; File C:\Anka2Project\Anka2Project\Source\Binary\source\UserInterface\PythonGuild.cpp
;	COMDAT ?IsMainPlayer@CPythonGuild@@QAEHK@Z
_TEXT	SEGMENT
_pGuildMemberData$ = -4					; size = 4
_dwPID$ = 8						; size = 4
?IsMainPlayer@CPythonGuild@@QAEHK@Z PROC		; CPythonGuild::IsMainPlayer, COMDAT
; _this$ = ecx

; 143  : {

  00000	55		 push	 ebp
  00001	8b ec		 mov	 ebp, esp
  00003	51		 push	 ecx

; 144  : 	TGuildMemberData * pGuildMemberData;
; 145  : 	if (!GetMemberDataPtrByPID(dwPID, &pGuildMemberData))

  00004	8d 45 fc	 lea	 eax, DWORD PTR _pGuildMemberData$[ebp]
  00007	50		 push	 eax
  00008	ff 75 08	 push	 DWORD PTR _dwPID$[ebp]
  0000b	e8 00 00 00 00	 call	 ?GetMemberDataPtrByPID@CPythonGuild@@QAEHKPAPAUSGuildMemberData@1@@Z ; CPythonGuild::GetMemberDataPtrByPID
  00010	85 c0		 test	 eax, eax
  00012	75 06		 jne	 SHORT $LN2@IsMainPlay

; 150  : }

  00014	8b e5		 mov	 esp, ebp
  00016	5d		 pop	 ebp
  00017	c2 04 00	 ret	 4
$LN2@IsMainPlay:
; File C:\Anka2Project\Anka2Project\Source\Binary\source\UserInterface\AbstractSingleton.h

; 24   : 		assert(ms_singleton!=nullptr);

  0001a	8b 0d 00 00 00
	00		 mov	 ecx, DWORD PTR ?ms_singleton@?$TAbstractSingleton@VIAbstractPlayer@@@@0PAVIAbstractPlayer@@A ; TAbstractSingleton<IAbstractPlayer>::ms_singleton
  00020	85 c9		 test	 ecx, ecx
  00022	75 1a		 jne	 SHORT $LN6@IsMainPlay
  00024	6a 18		 push	 24			; 00000018H
  00026	68 00 00 00 00	 push	 OFFSET ??_C@_1KI@FIPHLMOB@?$AAC?$AA?3?$AA?2?$AAA?$AAn?$AAk?$AAa?$AA2?$AAP?$AAr?$AAo?$AAj?$AAe?$AAc?$AAt@
  0002b	68 00 00 00 00	 push	 OFFSET ??_C@_1CM@FPMBEAEA@?$AAm?$AAs?$AA_?$AAs?$AAi?$AAn?$AAg?$AAl?$AAe?$AAt?$AAo?$AAn?$AA?$CB?$AA?$DN?$AAn@
  00030	e8 00 00 00 00	 call	 __wassert
  00035	8b 0d 00 00 00
	00		 mov	 ecx, DWORD PTR ?ms_singleton@?$TAbstractSingleton@VIAbstractPlayer@@@@0PAVIAbstractPlayer@@A ; TAbstractSingleton<IAbstractPlayer>::ms_singleton
  0003b	83 c4 0c	 add	 esp, 12			; 0000000cH
$LN6@IsMainPlay:
; File C:\Anka2Project\Anka2Project\Source\Binary\source\UserInterface\PythonGuild.cpp

; 149  : 	return 0 == pGuildMemberData->strName.compare(rPlayer.GetName());

  0003e	8b 01		 mov	 eax, DWORD PTR [ecx]
  00040	56		 push	 esi
  00041	8b 75 fc	 mov	 esi, DWORD PTR _pGuildMemberData$[ebp]
  00044	57		 push	 edi
  00045	83 c6 04	 add	 esi, 4
  00048	ff 50 14	 call	 DWORD PTR [eax+20]
  0004b	8b f8		 mov	 edi, eax
; File C:\Program Files\Microsoft Visual Studio\2022\Community\VC\Tools\MSVC\14.44.35207\include\__msvc_string_view.hpp

; 456  :             return __builtin_strlen(_First);

  0004d	8b cf		 mov	 ecx, edi
  0004f	8d 41 01	 lea	 eax, DWORD PTR [ecx+1]
$LL20@IsMainPlay:
  00052	8a 11		 mov	 dl, BYTE PTR [ecx]
  00054	41		 inc	 ecx
  00055	84 d2		 test	 dl, dl
  00057	75 f9		 jne	 SHORT $LL20@IsMainPlay
  00059	2b c8		 sub	 ecx, eax
; File C:\Program Files\Microsoft Visual Studio\2022\Community\VC\Tools\MSVC\14.44.35207\include\xstring

; 453  :         return _Myres > _Small_string_capacity;

  0005b	83 7e 14 0f	 cmp	 DWORD PTR [esi+20], 15	; 0000000fH

; 2912 :         return _Traits_compare<_Traits>(_Mypair._Myval2._Myptr(), _Mypair._Myval2._Mysize, _Ptr, _Traits::length(_Ptr));

  0005f	8b 46 10	 mov	 eax, DWORD PTR [esi+16]

; 445  :         if (_Large_mode_engaged()) {

  00062	76 02		 jbe	 SHORT $LN14@IsMainPlay

; 446  :             _Result = _Unfancy(_Bx._Ptr);

  00064	8b 36		 mov	 esi, DWORD PTR [esi]
$LN14@IsMainPlay:

; 2912 :         return _Traits_compare<_Traits>(_Mypair._Myval2._Myptr(), _Mypair._Myval2._Mysize, _Ptr, _Traits::length(_Ptr));

  00066	51		 push	 ecx
  00067	57		 push	 edi
  00068	50		 push	 eax
  00069	56		 push	 esi
  0006a	e8 00 00 00 00	 call	 ??$_Traits_compare@U?$char_traits@D@std@@@std@@YAHQBDI0I@Z ; std::_Traits_compare<std::char_traits<char> >
  0006f	83 c4 10	 add	 esp, 16			; 00000010H
; File C:\Anka2Project\Anka2Project\Source\Binary\source\UserInterface\PythonGuild.cpp

; 149  : 	return 0 == pGuildMemberData->strName.compare(rPlayer.GetName());

  00072	f7 d8		 neg	 eax
  00074	1b c0		 sbb	 eax, eax
  00076	40		 inc	 eax
  00077	5f		 pop	 edi
  00078	5e		 pop	 esi

; 150  : }

  00079	8b e5		 mov	 esp, ebp
  0007b	5d		 pop	 ebp
  0007c	c2 04 00	 ret	 4
?IsMainPlayer@CPythonGuild@@QAEHK@Z ENDP		; CPythonGuild::IsMainPlayer
_TEXT	ENDS
; Function compile flags: /Ogtp
; File C:\Anka2Project\Anka2Project\Source\Binary\source\UserInterface\PythonGuild.cpp
; File C:\Anka2Project\Anka2Project\Source\Binary\source\eterBase\Singleton.h
; File C:\Anka2Project\Anka2Project\Source\Binary\source\UserInterface\PythonGuild.cpp
;	COMDAT ?guildIsGuildEnable@@YAPAU_object@@PAU1@0@Z
_TEXT	SEGMENT
_poSelf$ = 8						; size = 4
_poArgs$ = 12						; size = 4
?guildIsGuildEnable@@YAPAU_object@@PAU1@0@Z PROC	; guildIsGuildEnable, COMDAT
; File C:\Anka2Project\Anka2Project\Source\Binary\source\eterBase\Singleton.h

; 26   : 		assert(ms_singleton);

  00000	8b 0d 00 00 00
	00		 mov	 ecx, DWORD PTR ?ms_singleton@?$CSingleton@VCPythonGuild@@@@0PAVCPythonGuild@@A ; CSingleton<CPythonGuild>::ms_singleton
  00006	85 c9		 test	 ecx, ecx
  00008	75 1a		 jne	 SHORT $LN5@guildIsGui
  0000a	6a 1a		 push	 26			; 0000001aH
  0000c	68 00 00 00 00	 push	 OFFSET ??_C@_1IO@CAJLEEOI@?$AAC?$AA?3?$AA?2?$AAA?$AAn?$AAk?$AAa?$AA2?$AAP?$AAr?$AAo?$AAj?$AAe?$AAc?$AAt@
  00011	68 00 00 00 00	 push	 OFFSET ??_C@_1BK@FMEHPMFE@?$AAm?$AAs?$AA_?$AAs?$AAi?$AAn?$AAg?$AAl?$AAe?$AAt?$AAo?$AAn@
  00016	e8 00 00 00 00	 call	 __wassert
  0001b	8b 0d 00 00 00
	00		 mov	 ecx, DWORD PTR ?ms_singleton@?$CSingleton@VCPythonGuild@@@@0PAVCPythonGuild@@A ; CSingleton<CPythonGuild>::ms_singleton
  00021	83 c4 0c	 add	 esp, 12			; 0000000cH
$LN5@guildIsGui:
; File C:\Anka2Project\Anka2Project\Source\Binary\source\UserInterface\PythonGuild.cpp

; 380  : 	return Py_BuildValue("i", CPythonGuild::Instance().IsGuildEnable());

  00024	e8 00 00 00 00	 call	 ?IsGuildEnable@CPythonGuild@@QAEHXZ ; CPythonGuild::IsGuildEnable
  00029	50		 push	 eax
  0002a	68 00 00 00 00	 push	 OFFSET ??_C@_01KBJDNOO@i@
  0002f	ff 15 00 00 00
	00		 call	 DWORD PTR __imp__Py_BuildValue
  00035	83 c4 08	 add	 esp, 8

; 381  : }

  00038	c3		 ret	 0
?guildIsGuildEnable@@YAPAU_object@@PAU1@0@Z ENDP	; guildIsGuildEnable
_TEXT	ENDS
; Function compile flags: /Ogtp
; File C:\Anka2Project\Anka2Project\Source\Binary\source\UserInterface\PythonGuild.cpp
; File C:\Anka2Project\Anka2Project\Source\Binary\source\eterBase\Singleton.h
; File C:\Anka2Project\Anka2Project\Source\Binary\source\UserInterface\PythonGuild.cpp
;	COMDAT ?guildGetGuildID@@YAPAU_object@@PAU1@0@Z
_TEXT	SEGMENT
_poSelf$ = 8						; size = 4
_poArgs$ = 12						; size = 4
?guildGetGuildID@@YAPAU_object@@PAU1@0@Z PROC		; guildGetGuildID, COMDAT
; File C:\Anka2Project\Anka2Project\Source\Binary\source\eterBase\Singleton.h

; 26   : 		assert(ms_singleton);

  00000	8b 0d 00 00 00
	00		 mov	 ecx, DWORD PTR ?ms_singleton@?$CSingleton@VCPythonGuild@@@@0PAVCPythonGuild@@A ; CSingleton<CPythonGuild>::ms_singleton
  00006	85 c9		 test	 ecx, ecx
  00008	75 1a		 jne	 SHORT $LN5@guildGetGu
  0000a	6a 1a		 push	 26			; 0000001aH
  0000c	68 00 00 00 00	 push	 OFFSET ??_C@_1IO@CAJLEEOI@?$AAC?$AA?3?$AA?2?$AAA?$AAn?$AAk?$AAa?$AA2?$AAP?$AAr?$AAo?$AAj?$AAe?$AAc?$AAt@
  00011	68 00 00 00 00	 push	 OFFSET ??_C@_1BK@FMEHPMFE@?$AAm?$AAs?$AA_?$AAs?$AAi?$AAn?$AAg?$AAl?$AAe?$AAt?$AAo?$AAn@
  00016	e8 00 00 00 00	 call	 __wassert
  0001b	8b 0d 00 00 00
	00		 mov	 ecx, DWORD PTR ?ms_singleton@?$CSingleton@VCPythonGuild@@@@0PAVCPythonGuild@@A ; CSingleton<CPythonGuild>::ms_singleton
  00021	83 c4 0c	 add	 esp, 12			; 0000000cH
$LN5@guildGetGu:
; File C:\Anka2Project\Anka2Project\Source\Binary\source\UserInterface\PythonGuild.cpp

; 385  : 	return Py_BuildValue("i", CPythonGuild::Instance().GetGuildID());

  00024	e8 00 00 00 00	 call	 ?GetGuildID@CPythonGuild@@QAEKXZ ; CPythonGuild::GetGuildID
  00029	50		 push	 eax
  0002a	68 00 00 00 00	 push	 OFFSET ??_C@_01KBJDNOO@i@
  0002f	ff 15 00 00 00
	00		 call	 DWORD PTR __imp__Py_BuildValue
  00035	83 c4 08	 add	 esp, 8

; 386  : }

  00038	c3		 ret	 0
?guildGetGuildID@@YAPAU_object@@PAU1@0@Z ENDP		; guildGetGuildID
_TEXT	ENDS
; Function compile flags: /Ogtp
; File C:\Anka2Project\Anka2Project\Source\Binary\source\UserInterface\PythonGuild.cpp
; File C:\Anka2Project\Anka2Project\Source\Binary\source\eterBase\Singleton.h
; File C:\Anka2Project\Anka2Project\Source\Binary\source\UserInterface\PythonGuild.cpp
;	COMDAT ?guildHasGuildLand@@YAPAU_object@@PAU1@0@Z
_TEXT	SEGMENT
_poSelf$ = 8						; size = 4
_poArgs$ = 12						; size = 4
?guildHasGuildLand@@YAPAU_object@@PAU1@0@Z PROC		; guildHasGuildLand, COMDAT
; File C:\Anka2Project\Anka2Project\Source\Binary\source\eterBase\Singleton.h

; 26   : 		assert(ms_singleton);

  00000	8b 0d 00 00 00
	00		 mov	 ecx, DWORD PTR ?ms_singleton@?$CSingleton@VCPythonGuild@@@@0PAVCPythonGuild@@A ; CSingleton<CPythonGuild>::ms_singleton
  00006	85 c9		 test	 ecx, ecx
  00008	75 1a		 jne	 SHORT $LN5@guildHasGu
  0000a	6a 1a		 push	 26			; 0000001aH
  0000c	68 00 00 00 00	 push	 OFFSET ??_C@_1IO@CAJLEEOI@?$AAC?$AA?3?$AA?2?$AAA?$AAn?$AAk?$AAa?$AA2?$AAP?$AAr?$AAo?$AAj?$AAe?$AAc?$AAt@
  00011	68 00 00 00 00	 push	 OFFSET ??_C@_1BK@FMEHPMFE@?$AAm?$AAs?$AA_?$AAs?$AAi?$AAn?$AAg?$AAl?$AAe?$AAt?$AAo?$AAn@
  00016	e8 00 00 00 00	 call	 __wassert
  0001b	8b 0d 00 00 00
	00		 mov	 ecx, DWORD PTR ?ms_singleton@?$CSingleton@VCPythonGuild@@@@0PAVCPythonGuild@@A ; CSingleton<CPythonGuild>::ms_singleton
  00021	83 c4 0c	 add	 esp, 12			; 0000000cH
$LN5@guildHasGu:
; File C:\Anka2Project\Anka2Project\Source\Binary\source\UserInterface\PythonGuild.cpp

; 390  : 	return Py_BuildValue("i", CPythonGuild::Instance().HasGuildLand());

  00024	e8 00 00 00 00	 call	 ?HasGuildLand@CPythonGuild@@QAEHXZ ; CPythonGuild::HasGuildLand
  00029	50		 push	 eax
  0002a	68 00 00 00 00	 push	 OFFSET ??_C@_01KBJDNOO@i@
  0002f	ff 15 00 00 00
	00		 call	 DWORD PTR __imp__Py_BuildValue
  00035	83 c4 08	 add	 esp, 8

; 391  : }

  00038	c3		 ret	 0
?guildHasGuildLand@@YAPAU_object@@PAU1@0@Z ENDP		; guildHasGuildLand
_TEXT	ENDS
; Function compile flags: /Ogtp
; File C:\Anka2Project\Anka2Project\Source\Binary\source\UserInterface\PythonGuild.cpp
; File C:\Anka2Project\Anka2Project\Source\Binary\source\eterBase\Singleton.h
; File C:\Anka2Project\Anka2Project\Source\Binary\source\UserInterface\PythonGuild.cpp
; File C:\Program Files\Microsoft Visual Studio\2022\Community\VC\Tools\MSVC\14.44.35207\include\xstring
; File C:\Anka2Project\Anka2Project\Source\Binary\source\UserInterface\PythonGuild.cpp
; File C:\Anka2Project\Anka2Project\Source\Binary\source\eterBase\Singleton.h
; File C:\Anka2Project\Anka2Project\Source\Binary\source\UserInterface\PythonGuild.cpp
; File C:\Program Files\Microsoft Visual Studio\2022\Community\VC\Tools\MSVC\14.44.35207\include\xstring
; File C:\Anka2Project\Anka2Project\Source\Binary\source\UserInterface\PythonGuild.cpp
; File C:\Program Files\Microsoft Visual Studio\2022\Community\VC\Tools\MSVC\14.44.35207\include\xstring
; File C:\Program Files\Microsoft Visual Studio\2022\Community\VC\Tools\MSVC\14.44.35207\include\xmemory
; File C:\Program Files\Microsoft Visual Studio\2022\Community\VC\Tools\MSVC\14.44.35207\include\xstring
; File C:\Program Files\Microsoft Visual Studio\2022\Community\VC\Tools\MSVC\14.44.35207\include\xmemory
; File C:\Anka2Project\Anka2Project\Source\Binary\source\UserInterface\PythonGuild.cpp
; File C:\Program Files\Microsoft Visual Studio\2022\Community\VC\Tools\MSVC\14.44.35207\include\xmemory
; File C:\Anka2Project\Anka2Project\Source\Binary\source\UserInterface\PythonGuild.cpp
;	COMDAT ?guildGetGuildName@@YAPAU_object@@PAU1@0@Z
_TEXT	SEGMENT
_iGuildID$ = -44					; size = 4
_strGuildName$ = -40					; size = 24
__$ArrayPad$ = -16					; size = 4
__$EHRec$ = -12						; size = 12
_poSelf$ = 8						; size = 4
_poArgs$ = 12						; size = 4
?guildGetGuildName@@YAPAU_object@@PAU1@0@Z PROC		; guildGetGuildName, COMDAT

; 394  : {

  00000	55		 push	 ebp
  00001	8b ec		 mov	 ebp, esp
  00003	6a ff		 push	 -1
  00005	68 00 00 00 00	 push	 __ehhandler$?guildGetGuildName@@YAPAU_object@@PAU1@0@Z
  0000a	64 a1 00 00 00
	00		 mov	 eax, DWORD PTR fs:0
  00010	50		 push	 eax
  00011	83 ec 20	 sub	 esp, 32			; 00000020H
  00014	a1 00 00 00 00	 mov	 eax, DWORD PTR ___security_cookie
  00019	33 c5		 xor	 eax, ebp
  0001b	89 45 f0	 mov	 DWORD PTR __$ArrayPad$[ebp], eax
  0001e	56		 push	 esi
  0001f	50		 push	 eax
  00020	8d 45 f4	 lea	 eax, DWORD PTR __$EHRec$[ebp]
  00023	64 a3 00 00 00
	00		 mov	 DWORD PTR fs:0, eax
  00029	8b 45 0c	 mov	 eax, DWORD PTR _poArgs$[ebp]

; 395  : 	int iGuildID;
; 396  : 	if (!PyTuple_GetInteger(poArgs, 0, &iGuildID))

  0002c	8d 4d d4	 lea	 ecx, DWORD PTR _iGuildID$[ebp]
  0002f	51		 push	 ecx
  00030	6a 00		 push	 0
  00032	50		 push	 eax
  00033	e8 00 00 00 00	 call	 ?PyTuple_GetInteger@@YA_NPAU_object@@HPAH@Z ; PyTuple_GetInteger
  00038	83 c4 0c	 add	 esp, 12			; 0000000cH
  0003b	84 c0		 test	 al, al
  0003d	75 40		 jne	 SHORT $LN2@guildGetGu
; File C:\Anka2Project\Anka2Project\Source\Binary\source\eterBase\Singleton.h

; 26   : 		assert(ms_singleton);

  0003f	8b 0d 00 00 00
	00		 mov	 ecx, DWORD PTR ?ms_singleton@?$CSingleton@VCPythonGuild@@@@0PAVCPythonGuild@@A ; CSingleton<CPythonGuild>::ms_singleton
  00045	85 c9		 test	 ecx, ecx
  00047	75 1a		 jne	 SHORT $LN9@guildGetGu
  00049	6a 1a		 push	 26			; 0000001aH
  0004b	68 00 00 00 00	 push	 OFFSET ??_C@_1IO@CAJLEEOI@?$AAC?$AA?3?$AA?2?$AAA?$AAn?$AAk?$AAa?$AA2?$AAP?$AAr?$AAo?$AAj?$AAe?$AAc?$AAt@
  00050	68 00 00 00 00	 push	 OFFSET ??_C@_1BK@FMEHPMFE@?$AAm?$AAs?$AA_?$AAs?$AAi?$AAn?$AAg?$AAl?$AAe?$AAt?$AAo?$AAn@
  00055	e8 00 00 00 00	 call	 __wassert
  0005a	8b 0d 00 00 00
	00		 mov	 ecx, DWORD PTR ?ms_singleton@?$CSingleton@VCPythonGuild@@@@0PAVCPythonGuild@@A ; CSingleton<CPythonGuild>::ms_singleton
  00060	83 c4 0c	 add	 esp, 12			; 0000000cH
$LN9@guildGetGu:
; File C:\Anka2Project\Anka2Project\Source\Binary\source\UserInterface\PythonGuild.cpp

; 398  : 		CPythonGuild::TGuildInfo & rGuildInfo = CPythonGuild::Instance().GetGuildInfoRef();

  00063	e8 00 00 00 00	 call	 ?GetGuildInfoRef@CPythonGuild@@QAEAAUSGulidInfo@1@XZ ; CPythonGuild::GetGuildInfoRef

; 399  : 		return Py_BuildValue("s", rGuildInfo.szGuildName);

  00068	83 c0 04	 add	 eax, 4
  0006b	50		 push	 eax
  0006c	68 00 00 00 00	 push	 OFFSET ??_C@_01LKDEMHDF@s@
  00071	ff 15 00 00 00
	00		 call	 DWORD PTR __imp__Py_BuildValue
  00077	83 c4 08	 add	 esp, 8
  0007a	e9 a9 00 00 00	 jmp	 $LN1@guildGetGu
$LN2@guildGetGu:
  0007f	0f 57 c0	 xorps	 xmm0, xmm0
; File C:\Program Files\Microsoft Visual Studio\2022\Community\VC\Tools\MSVC\14.44.35207\include\xstring

; 860  :         _My_data._Mysize = 0;

  00082	c7 45 e8 00 00
	00 00		 mov	 DWORD PTR _strGuildName$[ebp+16], 0

; 493  :         _CONSTEXPR20 _Bxty() noexcept : _Buf() {} // user-provided, for fancy pointers

  00089	0f 11 45 d8	 movups	 XMMWORD PTR _strGuildName$[ebp], xmm0

; 861  :         _My_data._Myres  = _Small_string_capacity;

  0008d	c7 45 ec 0f 00
	00 00		 mov	 DWORD PTR _strGuildName$[ebp+20], 15 ; 0000000fH

; 862  :         _My_data._Activate_SSO_buffer();
; 863  : 
; 864  :         // the _Traits::assign is last so the codegen doesn't think the char write can alias this
; 865  :         _Traits::assign(_My_data._Bx._Buf[0], _Elem());

  00094	c6 45 d8 00	 mov	 BYTE PTR _strGuildName$[ebp], 0
; File C:\Anka2Project\Anka2Project\Source\Binary\source\UserInterface\PythonGuild.cpp

; 402  : 	std::string strGuildName;

  00098	c7 45 fc 00 00
	00 00		 mov	 DWORD PTR __$EHRec$[ebp+8], 0
; File C:\Anka2Project\Anka2Project\Source\Binary\source\eterBase\Singleton.h

; 26   : 		assert(ms_singleton);

  0009f	8b 0d 00 00 00
	00		 mov	 ecx, DWORD PTR ?ms_singleton@?$CSingleton@VCPythonGuild@@@@0PAVCPythonGuild@@A ; CSingleton<CPythonGuild>::ms_singleton
  000a5	85 c9		 test	 ecx, ecx
  000a7	75 1a		 jne	 SHORT $LN32@guildGetGu
  000a9	6a 1a		 push	 26			; 0000001aH
  000ab	68 00 00 00 00	 push	 OFFSET ??_C@_1IO@CAJLEEOI@?$AAC?$AA?3?$AA?2?$AAA?$AAn?$AAk?$AAa?$AA2?$AAP?$AAr?$AAo?$AAj?$AAe?$AAc?$AAt@
  000b0	68 00 00 00 00	 push	 OFFSET ??_C@_1BK@FMEHPMFE@?$AAm?$AAs?$AA_?$AAs?$AAi?$AAn?$AAg?$AAl?$AAe?$AAt?$AAo?$AAn@
  000b5	e8 00 00 00 00	 call	 __wassert
  000ba	8b 0d 00 00 00
	00		 mov	 ecx, DWORD PTR ?ms_singleton@?$CSingleton@VCPythonGuild@@@@0PAVCPythonGuild@@A ; CSingleton<CPythonGuild>::ms_singleton
  000c0	83 c4 0c	 add	 esp, 12			; 0000000cH
$LN32@guildGetGu:
; File C:\Anka2Project\Anka2Project\Source\Binary\source\UserInterface\PythonGuild.cpp

; 403  : 	if (!CPythonGuild::Instance().GetGuildName(iGuildID, &strGuildName))

  000c3	8d 45 d8	 lea	 eax, DWORD PTR _strGuildName$[ebp]
  000c6	50		 push	 eax
  000c7	ff 75 d4	 push	 DWORD PTR _iGuildID$[ebp]
  000ca	e8 00 00 00 00	 call	 ?GetGuildName@CPythonGuild@@QAE_NKPAV?$basic_string@DU?$char_traits@D@std@@V?$allocator@D@2@@std@@@Z ; CPythonGuild::GetGuildName
  000cf	84 c0		 test	 al, al
  000d1	75 07		 jne	 SHORT $LN3@guildGetGu

; 404  : 		return Py_BuildValue("s", "Noname");

  000d3	68 00 00 00 00	 push	 OFFSET ??_C@_06HCBIANPB@Noname@
  000d8	eb 0c		 jmp	 SHORT $LN97@guildGetGu
$LN3@guildGetGu:
; File C:\Program Files\Microsoft Visual Studio\2022\Community\VC\Tools\MSVC\14.44.35207\include\xstring

; 453  :         return _Myres > _Small_string_capacity;

  000da	83 7d ec 0f	 cmp	 DWORD PTR _strGuildName$[ebp+20], 15 ; 0000000fH

; 444  :         const value_type* _Result = _Bx._Buf;

  000de	8d 45 d8	 lea	 eax, DWORD PTR _strGuildName$[ebp]

; 445  :         if (_Large_mode_engaged()) {

  000e1	0f 47 45 d8	 cmova	 eax, DWORD PTR _strGuildName$[ebp]
; File C:\Anka2Project\Anka2Project\Source\Binary\source\UserInterface\PythonGuild.cpp

; 406  : 	return Py_BuildValue("s", strGuildName.c_str());

  000e5	50		 push	 eax
$LN97@guildGetGu:
; File C:\Program Files\Microsoft Visual Studio\2022\Community\VC\Tools\MSVC\14.44.35207\include\xstring

; 453  :         return _Myres > _Small_string_capacity;

  000e6	68 00 00 00 00	 push	 OFFSET ??_C@_01LKDEMHDF@s@
  000eb	ff 15 00 00 00
	00		 call	 DWORD PTR __imp__Py_BuildValue
  000f1	8b 4d ec	 mov	 ecx, DWORD PTR _strGuildName$[ebp+20]
  000f4	83 c4 08	 add	 esp, 8
  000f7	8b f0		 mov	 esi, eax
  000f9	83 f9 0f	 cmp	 ecx, 15			; 0000000fH

; 3083 :         if (_My_data._Large_mode_engaged()) {

  000fc	76 28		 jbe	 SHORT $LN80@guildGetGu
; File C:\Program Files\Microsoft Visual Studio\2022\Community\VC\Tools\MSVC\14.44.35207\include\xmemory

; 985  :         _STD _Deallocate<_New_alignof<_Ty>>(_Ptr, sizeof(_Ty) * _Count);

  000fe	8b 55 d8	 mov	 edx, DWORD PTR _strGuildName$[ebp]
; File C:\Program Files\Microsoft Visual Studio\2022\Community\VC\Tools\MSVC\14.44.35207\include\xstring

; 852  :         _Al.deallocate(_Old_ptr, _Capacity + 1); // +1 for null terminator

  00101	41		 inc	 ecx
; File C:\Program Files\Microsoft Visual Studio\2022\Community\VC\Tools\MSVC\14.44.35207\include\xmemory

; 985  :         _STD _Deallocate<_New_alignof<_Ty>>(_Ptr, sizeof(_Ty) * _Count);

  00102	8b c2		 mov	 eax, edx

; 284  :         if (_Bytes >= _Big_allocation_threshold) {

  00104	81 f9 00 10 00
	00		 cmp	 ecx, 4096		; 00001000H
  0010a	72 10		 jb	 SHORT $LN88@guildGetGu

; 205  :     const uintptr_t _Ptr_container   = _Ptr_user[-1];

  0010c	8b 50 fc	 mov	 edx, DWORD PTR [eax-4]
  0010f	83 c1 23	 add	 ecx, 35			; 00000023H
  00112	2b c2		 sub	 eax, edx

; 219  :     _STL_VERIFY(_Back_shift >= _Min_back_shift && _Back_shift <= _Non_user_size, "invalid argument");

  00114	83 c0 fc	 add	 eax, -4			; fffffffcH
  00117	83 f8 1f	 cmp	 eax, 31			; 0000001fH
  0011a	77 26		 ja	 SHORT $LN99@guildGetGu
$LN88@guildGetGu:

; 289  :         ::operator delete(_Ptr, _Bytes);

  0011c	51		 push	 ecx
  0011d	52		 push	 edx
  0011e	e8 00 00 00 00	 call	 ??3@YAXPAXI@Z		; operator delete
  00123	83 c4 08	 add	 esp, 8
$LN80@guildGetGu:
; File C:\Anka2Project\Anka2Project\Source\Binary\source\UserInterface\PythonGuild.cpp

; 406  : 	return Py_BuildValue("s", strGuildName.c_str());

  00126	8b c6		 mov	 eax, esi
$LN1@guildGetGu:

; 407  : }

  00128	8b 4d f4	 mov	 ecx, DWORD PTR __$EHRec$[ebp]
  0012b	64 89 0d 00 00
	00 00		 mov	 DWORD PTR fs:0, ecx
  00132	59		 pop	 ecx
  00133	5e		 pop	 esi
  00134	8b 4d f0	 mov	 ecx, DWORD PTR __$ArrayPad$[ebp]
  00137	33 cd		 xor	 ecx, ebp
  00139	e8 00 00 00 00	 call	 @__security_check_cookie@4
  0013e	8b e5		 mov	 esp, ebp
  00140	5d		 pop	 ebp
  00141	c3		 ret	 0
$LN99@guildGetGu:
; File C:\Program Files\Microsoft Visual Studio\2022\Community\VC\Tools\MSVC\14.44.35207\include\xmemory

; 219  :     _STL_VERIFY(_Back_shift >= _Min_back_shift && _Back_shift <= _Non_user_size, "invalid argument");

  00142	6a 00		 push	 0
  00144	6a 00		 push	 0
  00146	6a 00		 push	 0
  00148	6a 00		 push	 0
  0014a	6a 00		 push	 0
  0014c	e8 00 00 00 00	 call	 __invoke_watson
$LN96@guildGetGu:
  00151	cc		 int	 3
_TEXT	ENDS
;	COMDAT text$x
text$x	SEGMENT
__unwindfunclet$?guildGetGuildName@@YAPAU_object@@PAU1@0@Z$0:
  00000	8d 4d d8	 lea	 ecx, DWORD PTR _strGuildName$[ebp]
  00003	e9 00 00 00 00	 jmp	 ??1?$basic_string@DU?$char_traits@D@std@@V?$allocator@D@2@@std@@QAE@XZ ; std::basic_string<char,std::char_traits<char>,std::allocator<char> >::~basic_string<char,std::char_traits<char>,std::allocator<char> >
  00008	cc		 int	 3
  00009	cc		 int	 3
  0000a	cc		 int	 3
  0000b	cc		 int	 3
  0000c	cc		 int	 3
__ehhandler$?guildGetGuildName@@YAPAU_object@@PAU1@0@Z:
  0000d	90		 npad	 1
  0000e	90		 npad	 1
  0000f	8b 54 24 08	 mov	 edx, DWORD PTR [esp+8]
  00013	8d 42 0c	 lea	 eax, DWORD PTR [edx+12]
  00016	8b 4a d8	 mov	 ecx, DWORD PTR [edx-40]
  00019	33 c8		 xor	 ecx, eax
  0001b	e8 00 00 00 00	 call	 @__security_check_cookie@4
  00020	8b 4a fc	 mov	 ecx, DWORD PTR [edx-4]
  00023	33 c8		 xor	 ecx, eax
  00025	e8 00 00 00 00	 call	 @__security_check_cookie@4
  0002a	b8 00 00 00 00	 mov	 eax, OFFSET __ehfuncinfo$?guildGetGuildName@@YAPAU_object@@PAU1@0@Z
  0002f	e9 00 00 00 00	 jmp	 ___CxxFrameHandler3
text$x	ENDS
?guildGetGuildName@@YAPAU_object@@PAU1@0@Z ENDP		; guildGetGuildName
; Function compile flags: /Ogtp
; File C:\Anka2Project\Anka2Project\Source\Binary\source\UserInterface\PythonGuild.cpp
; File C:\Anka2Project\Anka2Project\Source\Binary\source\eterBase\Singleton.h
; File C:\Anka2Project\Anka2Project\Source\Binary\source\UserInterface\PythonGuild.cpp
; File C:\Anka2Project\Anka2Project\Source\Binary\source\eterBase\Singleton.h
; File C:\Anka2Project\Anka2Project\Source\Binary\source\UserInterface\PythonGuild.cpp
; File C:\Program Files\Microsoft Visual Studio\2022\Community\VC\Tools\MSVC\14.44.35207\include\xstring
; File C:\Anka2Project\Anka2Project\Source\Binary\source\UserInterface\PythonGuild.cpp
;	COMDAT ?guildGetGuildMasterName@@YAPAU_object@@PAU1@0@Z
_TEXT	SEGMENT
_pData$ = -4						; size = 4
_poSelf$ = 8						; size = 4
_poArgs$ = 12						; size = 4
?guildGetGuildMasterName@@YAPAU_object@@PAU1@0@Z PROC	; guildGetGuildMasterName, COMDAT

; 410  : {

  00000	55		 push	 ebp
  00001	8b ec		 mov	 ebp, esp
  00003	51		 push	 ecx
; File C:\Anka2Project\Anka2Project\Source\Binary\source\eterBase\Singleton.h

; 26   : 		assert(ms_singleton);

  00004	8b 0d 00 00 00
	00		 mov	 ecx, DWORD PTR ?ms_singleton@?$CSingleton@VCPythonGuild@@@@0PAVCPythonGuild@@A ; CSingleton<CPythonGuild>::ms_singleton
  0000a	85 c9		 test	 ecx, ecx
  0000c	75 1a		 jne	 SHORT $LN6@guildGetGu
  0000e	6a 1a		 push	 26			; 0000001aH
  00010	68 00 00 00 00	 push	 OFFSET ??_C@_1IO@CAJLEEOI@?$AAC?$AA?3?$AA?2?$AAA?$AAn?$AAk?$AAa?$AA2?$AAP?$AAr?$AAo?$AAj?$AAe?$AAc?$AAt@
  00015	68 00 00 00 00	 push	 OFFSET ??_C@_1BK@FMEHPMFE@?$AAm?$AAs?$AA_?$AAs?$AAi?$AAn?$AAg?$AAl?$AAe?$AAt?$AAo?$AAn@
  0001a	e8 00 00 00 00	 call	 __wassert
  0001f	8b 0d 00 00 00
	00		 mov	 ecx, DWORD PTR ?ms_singleton@?$CSingleton@VCPythonGuild@@@@0PAVCPythonGuild@@A ; CSingleton<CPythonGuild>::ms_singleton
  00025	83 c4 0c	 add	 esp, 12			; 0000000cH
$LN6@guildGetGu:
  00028	56		 push	 esi
; File C:\Anka2Project\Anka2Project\Source\Binary\source\UserInterface\PythonGuild.cpp

; 411  : 	CPythonGuild::TGuildInfo & rGuildInfo = CPythonGuild::Instance().GetGuildInfoRef();

  00029	e8 00 00 00 00	 call	 ?GetGuildInfoRef@CPythonGuild@@QAEAAUSGulidInfo@1@XZ ; CPythonGuild::GetGuildInfoRef
  0002e	8b f0		 mov	 esi, eax
; File C:\Anka2Project\Anka2Project\Source\Binary\source\eterBase\Singleton.h

; 26   : 		assert(ms_singleton);

  00030	85 c9		 test	 ecx, ecx
  00032	75 1a		 jne	 SHORT $LN9@guildGetGu
  00034	6a 1a		 push	 26			; 0000001aH
  00036	68 00 00 00 00	 push	 OFFSET ??_C@_1IO@CAJLEEOI@?$AAC?$AA?3?$AA?2?$AAA?$AAn?$AAk?$AAa?$AA2?$AAP?$AAr?$AAo?$AAj?$AAe?$AAc?$AAt@
  0003b	68 00 00 00 00	 push	 OFFSET ??_C@_1BK@FMEHPMFE@?$AAm?$AAs?$AA_?$AAs?$AAi?$AAn?$AAg?$AAl?$AAe?$AAt?$AAo?$AAn@
  00040	e8 00 00 00 00	 call	 __wassert
  00045	8b 0d 00 00 00
	00		 mov	 ecx, DWORD PTR ?ms_singleton@?$CSingleton@VCPythonGuild@@@@0PAVCPythonGuild@@A ; CSingleton<CPythonGuild>::ms_singleton
  0004b	83 c4 0c	 add	 esp, 12			; 0000000cH
$LN9@guildGetGu:
; File C:\Anka2Project\Anka2Project\Source\Binary\source\UserInterface\PythonGuild.cpp

; 414  : 	if (!CPythonGuild::Instance().GetMemberDataPtrByPID(rGuildInfo.dwMasterPID, &pData))

  0004e	8d 45 fc	 lea	 eax, DWORD PTR _pData$[ebp]
  00051	50		 push	 eax
  00052	ff 76 14	 push	 DWORD PTR [esi+20]
  00055	e8 00 00 00 00	 call	 ?GetMemberDataPtrByPID@CPythonGuild@@QAEHKPAPAUSGuildMemberData@1@@Z ; CPythonGuild::GetMemberDataPtrByPID
  0005a	5e		 pop	 esi
  0005b	85 c0		 test	 eax, eax
  0005d	75 17		 jne	 SHORT $LN2@guildGetGu

; 415  : 		return Py_BuildValue("s", "Noname");

  0005f	68 00 00 00 00	 push	 OFFSET ??_C@_06HCBIANPB@Noname@

; 418  : }

  00064	68 00 00 00 00	 push	 OFFSET ??_C@_01LKDEMHDF@s@
  00069	ff 15 00 00 00
	00		 call	 DWORD PTR __imp__Py_BuildValue
  0006f	83 c4 08	 add	 esp, 8
  00072	8b e5		 mov	 esp, ebp
  00074	5d		 pop	 ebp
  00075	c3		 ret	 0
$LN2@guildGetGu:
; File C:\Program Files\Microsoft Visual Studio\2022\Community\VC\Tools\MSVC\14.44.35207\include\xstring

; 2356 :         return _Mypair._Myval2._Myptr();

  00076	8b 45 fc	 mov	 eax, DWORD PTR _pData$[ebp]
  00079	83 c0 04	 add	 eax, 4

; 453  :         return _Myres > _Small_string_capacity;

  0007c	83 78 14 0f	 cmp	 DWORD PTR [eax+20], 15	; 0000000fH

; 445  :         if (_Large_mode_engaged()) {

  00080	76 02		 jbe	 SHORT $LN14@guildGetGu

; 446  :             _Result = _Unfancy(_Bx._Ptr);

  00082	8b 00		 mov	 eax, DWORD PTR [eax]
$LN14@guildGetGu:
; File C:\Anka2Project\Anka2Project\Source\Binary\source\UserInterface\PythonGuild.cpp

; 417  : 	return Py_BuildValue("s", pData->strName.c_str());

  00084	50		 push	 eax

; 418  : }

  00085	68 00 00 00 00	 push	 OFFSET ??_C@_01LKDEMHDF@s@
  0008a	ff 15 00 00 00
	00		 call	 DWORD PTR __imp__Py_BuildValue
  00090	83 c4 08	 add	 esp, 8
  00093	8b e5		 mov	 esp, ebp
  00095	5d		 pop	 ebp
  00096	c3		 ret	 0
?guildGetGuildMasterName@@YAPAU_object@@PAU1@0@Z ENDP	; guildGetGuildMasterName
_TEXT	ENDS
; Function compile flags: /Ogtp
; File C:\Anka2Project\Anka2Project\Source\Binary\source\UserInterface\PythonGuild.cpp
; File C:\Anka2Project\Anka2Project\Source\Binary\source\eterBase\Singleton.h
; File C:\Anka2Project\Anka2Project\Source\Binary\source\UserInterface\PythonGuild.cpp
; File C:\Program Files\Microsoft Visual Studio\2022\Community\VC\Tools\MSVC\14.44.35207\include\xstring
; File C:\Anka2Project\Anka2Project\Source\Binary\source\UserInterface\PythonGuild.cpp
; File C:\Program Files\Microsoft Visual Studio\2022\Community\VC\Tools\MSVC\14.44.35207\include\xstring
; File C:\Anka2Project\Anka2Project\Source\Binary\source\UserInterface\PythonGuild.cpp
; File C:\Anka2Project\Anka2Project\Source\Binary\source\eterBase\Singleton.h
; File C:\Anka2Project\Anka2Project\Source\Binary\source\UserInterface\PythonGuild.cpp
; File C:\Program Files\Microsoft Visual Studio\2022\Community\VC\Tools\MSVC\14.44.35207\include\xstring
; File C:\Anka2Project\Anka2Project\Source\Binary\source\UserInterface\PythonGuild.cpp
; File C:\Program Files\Microsoft Visual Studio\2022\Community\VC\Tools\MSVC\14.44.35207\include\xstring
; File C:\Program Files\Microsoft Visual Studio\2022\Community\VC\Tools\MSVC\14.44.35207\include\xmemory
; File C:\Program Files\Microsoft Visual Studio\2022\Community\VC\Tools\MSVC\14.44.35207\include\xstring
; File C:\Program Files\Microsoft Visual Studio\2022\Community\VC\Tools\MSVC\14.44.35207\include\xmemory
; File C:\Anka2Project\Anka2Project\Source\Binary\source\UserInterface\PythonGuild.cpp
; File C:\Program Files\Microsoft Visual Studio\2022\Community\VC\Tools\MSVC\14.44.35207\include\xmemory
; File C:\Anka2Project\Anka2Project\Source\Binary\source\UserInterface\PythonGuild.cpp
;	COMDAT ?guildGetEnemyGuildName@@YAPAU_object@@PAU1@0@Z
_TEXT	SEGMENT
_iIndex$ = -44						; size = 4
_strEnemyGuildName$ = -40				; size = 24
__$ArrayPad$ = -16					; size = 4
__$EHRec$ = -12						; size = 12
_poSelf$ = 8						; size = 4
_poArgs$ = 12						; size = 4
?guildGetEnemyGuildName@@YAPAU_object@@PAU1@0@Z PROC	; guildGetEnemyGuildName, COMDAT

; 421  : {

  00000	55		 push	 ebp
  00001	8b ec		 mov	 ebp, esp
  00003	6a ff		 push	 -1
  00005	68 00 00 00 00	 push	 __ehhandler$?guildGetEnemyGuildName@@YAPAU_object@@PAU1@0@Z
  0000a	64 a1 00 00 00
	00		 mov	 eax, DWORD PTR fs:0
  00010	50		 push	 eax
  00011	83 ec 20	 sub	 esp, 32			; 00000020H
  00014	a1 00 00 00 00	 mov	 eax, DWORD PTR ___security_cookie
  00019	33 c5		 xor	 eax, ebp
  0001b	89 45 f0	 mov	 DWORD PTR __$ArrayPad$[ebp], eax
  0001e	56		 push	 esi
  0001f	50		 push	 eax
  00020	8d 45 f4	 lea	 eax, DWORD PTR __$EHRec$[ebp]
  00023	64 a3 00 00 00
	00		 mov	 DWORD PTR fs:0, eax
  00029	8b 45 0c	 mov	 eax, DWORD PTR _poArgs$[ebp]

; 422  : 	int iIndex;
; 423  : 	if (!PyTuple_GetInteger(poArgs, 0, &iIndex))

  0002c	8d 4d d4	 lea	 ecx, DWORD PTR _iIndex$[ebp]
  0002f	51		 push	 ecx
  00030	6a 00		 push	 0
  00032	50		 push	 eax
  00033	e8 00 00 00 00	 call	 ?PyTuple_GetInteger@@YA_NPAU_object@@HPAH@Z ; PyTuple_GetInteger
  00038	83 c4 0c	 add	 esp, 12			; 0000000cH
  0003b	84 c0		 test	 al, al
  0003d	75 18		 jne	 SHORT $LN2@guildGetEn

; 424  : 		return Py_BuildValue("s", "");

  0003f	68 00 00 00 00	 push	 OFFSET ??_C@_00CNPNBAHC@@
  00044	68 00 00 00 00	 push	 OFFSET ??_C@_01LKDEMHDF@s@
  00049	ff 15 00 00 00
	00		 call	 DWORD PTR __imp__Py_BuildValue
  0004f	83 c4 08	 add	 esp, 8
  00052	e9 cf 00 00 00	 jmp	 $LN1@guildGetEn
$LN2@guildGetEn:
; File C:\Anka2Project\Anka2Project\Source\Binary\source\eterBase\Singleton.h

; 26   : 		assert(ms_singleton);

  00057	8b 0d 00 00 00
	00		 mov	 ecx, DWORD PTR ?ms_singleton@?$CSingleton@VCPythonGuild@@@@0PAVCPythonGuild@@A ; CSingleton<CPythonGuild>::ms_singleton
  0005d	85 c9		 test	 ecx, ecx
  0005f	75 1a		 jne	 SHORT $LN9@guildGetEn
  00061	6a 1a		 push	 26			; 0000001aH
  00063	68 00 00 00 00	 push	 OFFSET ??_C@_1IO@CAJLEEOI@?$AAC?$AA?3?$AA?2?$AAA?$AAn?$AAk?$AAa?$AA2?$AAP?$AAr?$AAo?$AAj?$AAe?$AAc?$AAt@
  00068	68 00 00 00 00	 push	 OFFSET ??_C@_1BK@FMEHPMFE@?$AAm?$AAs?$AA_?$AAs?$AAi?$AAn?$AAg?$AAl?$AAe?$AAt?$AAo?$AAn@
  0006d	e8 00 00 00 00	 call	 __wassert
  00072	8b 0d 00 00 00
	00		 mov	 ecx, DWORD PTR ?ms_singleton@?$CSingleton@VCPythonGuild@@@@0PAVCPythonGuild@@A ; CSingleton<CPythonGuild>::ms_singleton
  00078	83 c4 0c	 add	 esp, 12			; 0000000cH
$LN9@guildGetEn:
; File C:\Anka2Project\Anka2Project\Source\Binary\source\UserInterface\PythonGuild.cpp

; 426  : 	DWORD dwEnemyGuildID = CPythonGuild::Instance().GetEnemyGuildID(iIndex);

  0007b	ff 75 d4	 push	 DWORD PTR _iIndex$[ebp]
  0007e	e8 00 00 00 00	 call	 ?GetEnemyGuildID@CPythonGuild@@QAEKK@Z ; CPythonGuild::GetEnemyGuildID
  00083	0f 57 c0	 xorps	 xmm0, xmm0
; File C:\Program Files\Microsoft Visual Studio\2022\Community\VC\Tools\MSVC\14.44.35207\include\xstring

; 860  :         _My_data._Mysize = 0;

  00086	c7 45 e8 00 00
	00 00		 mov	 DWORD PTR _strEnemyGuildName$[ebp+16], 0

; 493  :         _CONSTEXPR20 _Bxty() noexcept : _Buf() {} // user-provided, for fancy pointers

  0008d	0f 11 45 d8	 movups	 XMMWORD PTR _strEnemyGuildName$[ebp], xmm0
; File C:\Anka2Project\Anka2Project\Source\Binary\source\UserInterface\PythonGuild.cpp

; 426  : 	DWORD dwEnemyGuildID = CPythonGuild::Instance().GetEnemyGuildID(iIndex);

  00091	8b f0		 mov	 esi, eax
; File C:\Program Files\Microsoft Visual Studio\2022\Community\VC\Tools\MSVC\14.44.35207\include\xstring

; 861  :         _My_data._Myres  = _Small_string_capacity;

  00093	c7 45 ec 0f 00
	00 00		 mov	 DWORD PTR _strEnemyGuildName$[ebp+20], 15 ; 0000000fH

; 862  :         _My_data._Activate_SSO_buffer();
; 863  : 
; 864  :         // the _Traits::assign is last so the codegen doesn't think the char write can alias this
; 865  :         _Traits::assign(_My_data._Bx._Buf[0], _Elem());

  0009a	c6 45 d8 00	 mov	 BYTE PTR _strEnemyGuildName$[ebp], 0
; File C:\Anka2Project\Anka2Project\Source\Binary\source\UserInterface\PythonGuild.cpp

; 428  : 	std::string strEnemyGuildName;

  0009e	c7 45 fc 00 00
	00 00		 mov	 DWORD PTR __$EHRec$[ebp+8], 0
; File C:\Anka2Project\Anka2Project\Source\Binary\source\eterBase\Singleton.h

; 26   : 		assert(ms_singleton);

  000a5	85 c9		 test	 ecx, ecx
  000a7	75 1a		 jne	 SHORT $LN32@guildGetEn
  000a9	6a 1a		 push	 26			; 0000001aH
  000ab	68 00 00 00 00	 push	 OFFSET ??_C@_1IO@CAJLEEOI@?$AAC?$AA?3?$AA?2?$AAA?$AAn?$AAk?$AAa?$AA2?$AAP?$AAr?$AAo?$AAj?$AAe?$AAc?$AAt@
  000b0	68 00 00 00 00	 push	 OFFSET ??_C@_1BK@FMEHPMFE@?$AAm?$AAs?$AA_?$AAs?$AAi?$AAn?$AAg?$AAl?$AAe?$AAt?$AAo?$AAn@
  000b5	e8 00 00 00 00	 call	 __wassert
  000ba	8b 0d 00 00 00
	00		 mov	 ecx, DWORD PTR ?ms_singleton@?$CSingleton@VCPythonGuild@@@@0PAVCPythonGuild@@A ; CSingleton<CPythonGuild>::ms_singleton
  000c0	83 c4 0c	 add	 esp, 12			; 0000000cH
$LN32@guildGetEn:
; File C:\Anka2Project\Anka2Project\Source\Binary\source\UserInterface\PythonGuild.cpp

; 429  : 	if (!CPythonGuild::Instance().GetGuildName(dwEnemyGuildID, &strEnemyGuildName))

  000c3	8d 45 d8	 lea	 eax, DWORD PTR _strEnemyGuildName$[ebp]
  000c6	50		 push	 eax
  000c7	56		 push	 esi
  000c8	e8 00 00 00 00	 call	 ?GetGuildName@CPythonGuild@@QAE_NKPAV?$basic_string@DU?$char_traits@D@std@@V?$allocator@D@2@@std@@@Z ; CPythonGuild::GetGuildName
  000cd	84 c0		 test	 al, al
  000cf	75 07		 jne	 SHORT $LN3@guildGetEn

; 430  : 		return Py_BuildValue("s", "");

  000d1	68 00 00 00 00	 push	 OFFSET ??_C@_00CNPNBAHC@@
  000d6	eb 0c		 jmp	 SHORT $LN97@guildGetEn
$LN3@guildGetEn:
; File C:\Program Files\Microsoft Visual Studio\2022\Community\VC\Tools\MSVC\14.44.35207\include\xstring

; 453  :         return _Myres > _Small_string_capacity;

  000d8	83 7d ec 0f	 cmp	 DWORD PTR _strEnemyGuildName$[ebp+20], 15 ; 0000000fH

; 444  :         const value_type* _Result = _Bx._Buf;

  000dc	8d 45 d8	 lea	 eax, DWORD PTR _strEnemyGuildName$[ebp]

; 445  :         if (_Large_mode_engaged()) {

  000df	0f 47 45 d8	 cmova	 eax, DWORD PTR _strEnemyGuildName$[ebp]
; File C:\Anka2Project\Anka2Project\Source\Binary\source\UserInterface\PythonGuild.cpp

; 432  : 	return Py_BuildValue("s", strEnemyGuildName.c_str());

  000e3	50		 push	 eax
$LN97@guildGetEn:
; File C:\Program Files\Microsoft Visual Studio\2022\Community\VC\Tools\MSVC\14.44.35207\include\xstring

; 453  :         return _Myres > _Small_string_capacity;

  000e4	68 00 00 00 00	 push	 OFFSET ??_C@_01LKDEMHDF@s@
  000e9	ff 15 00 00 00
	00		 call	 DWORD PTR __imp__Py_BuildValue
  000ef	8b 4d ec	 mov	 ecx, DWORD PTR _strEnemyGuildName$[ebp+20]
  000f2	83 c4 08	 add	 esp, 8
  000f5	8b f0		 mov	 esi, eax
  000f7	83 f9 0f	 cmp	 ecx, 15			; 0000000fH

; 3083 :         if (_My_data._Large_mode_engaged()) {

  000fa	76 28		 jbe	 SHORT $LN80@guildGetEn
; File C:\Program Files\Microsoft Visual Studio\2022\Community\VC\Tools\MSVC\14.44.35207\include\xmemory

; 985  :         _STD _Deallocate<_New_alignof<_Ty>>(_Ptr, sizeof(_Ty) * _Count);

  000fc	8b 55 d8	 mov	 edx, DWORD PTR _strEnemyGuildName$[ebp]
; File C:\Program Files\Microsoft Visual Studio\2022\Community\VC\Tools\MSVC\14.44.35207\include\xstring

; 852  :         _Al.deallocate(_Old_ptr, _Capacity + 1); // +1 for null terminator

  000ff	41		 inc	 ecx
; File C:\Program Files\Microsoft Visual Studio\2022\Community\VC\Tools\MSVC\14.44.35207\include\xmemory

; 985  :         _STD _Deallocate<_New_alignof<_Ty>>(_Ptr, sizeof(_Ty) * _Count);

  00100	8b c2		 mov	 eax, edx

; 284  :         if (_Bytes >= _Big_allocation_threshold) {

  00102	81 f9 00 10 00
	00		 cmp	 ecx, 4096		; 00001000H
  00108	72 10		 jb	 SHORT $LN88@guildGetEn

; 205  :     const uintptr_t _Ptr_container   = _Ptr_user[-1];

  0010a	8b 50 fc	 mov	 edx, DWORD PTR [eax-4]
  0010d	83 c1 23	 add	 ecx, 35			; 00000023H
  00110	2b c2		 sub	 eax, edx

; 219  :     _STL_VERIFY(_Back_shift >= _Min_back_shift && _Back_shift <= _Non_user_size, "invalid argument");

  00112	83 c0 fc	 add	 eax, -4			; fffffffcH
  00115	83 f8 1f	 cmp	 eax, 31			; 0000001fH
  00118	77 26		 ja	 SHORT $LN99@guildGetEn
$LN88@guildGetEn:

; 289  :         ::operator delete(_Ptr, _Bytes);

  0011a	51		 push	 ecx
  0011b	52		 push	 edx
  0011c	e8 00 00 00 00	 call	 ??3@YAXPAXI@Z		; operator delete
  00121	83 c4 08	 add	 esp, 8
$LN80@guildGetEn:
; File C:\Anka2Project\Anka2Project\Source\Binary\source\UserInterface\PythonGuild.cpp

; 432  : 	return Py_BuildValue("s", strEnemyGuildName.c_str());

  00124	8b c6		 mov	 eax, esi
$LN1@guildGetEn:

; 433  : }

  00126	8b 4d f4	 mov	 ecx, DWORD PTR __$EHRec$[ebp]
  00129	64 89 0d 00 00
	00 00		 mov	 DWORD PTR fs:0, ecx
  00130	59		 pop	 ecx
  00131	5e		 pop	 esi
  00132	8b 4d f0	 mov	 ecx, DWORD PTR __$ArrayPad$[ebp]
  00135	33 cd		 xor	 ecx, ebp
  00137	e8 00 00 00 00	 call	 @__security_check_cookie@4
  0013c	8b e5		 mov	 esp, ebp
  0013e	5d		 pop	 ebp
  0013f	c3		 ret	 0
$LN99@guildGetEn:
; File C:\Program Files\Microsoft Visual Studio\2022\Community\VC\Tools\MSVC\14.44.35207\include\xmemory

; 219  :     _STL_VERIFY(_Back_shift >= _Min_back_shift && _Back_shift <= _Non_user_size, "invalid argument");

  00140	6a 00		 push	 0
  00142	6a 00		 push	 0
  00144	6a 00		 push	 0
  00146	6a 00		 push	 0
  00148	6a 00		 push	 0
  0014a	e8 00 00 00 00	 call	 __invoke_watson
$LN96@guildGetEn:
  0014f	cc		 int	 3
_TEXT	ENDS
;	COMDAT text$x
text$x	SEGMENT
__unwindfunclet$?guildGetEnemyGuildName@@YAPAU_object@@PAU1@0@Z$0:
  00000	8d 4d d8	 lea	 ecx, DWORD PTR _strEnemyGuildName$[ebp]
  00003	e9 00 00 00 00	 jmp	 ??1?$basic_string@DU?$char_traits@D@std@@V?$allocator@D@2@@std@@QAE@XZ ; std::basic_string<char,std::char_traits<char>,std::allocator<char> >::~basic_string<char,std::char_traits<char>,std::allocator<char> >
  00008	cc		 int	 3
  00009	cc		 int	 3
  0000a	cc		 int	 3
  0000b	cc		 int	 3
  0000c	cc		 int	 3
__ehhandler$?guildGetEnemyGuildName@@YAPAU_object@@PAU1@0@Z:
  0000d	90		 npad	 1
  0000e	90		 npad	 1
  0000f	8b 54 24 08	 mov	 edx, DWORD PTR [esp+8]
  00013	8d 42 0c	 lea	 eax, DWORD PTR [edx+12]
  00016	8b 4a d8	 mov	 ecx, DWORD PTR [edx-40]
  00019	33 c8		 xor	 ecx, eax
  0001b	e8 00 00 00 00	 call	 @__security_check_cookie@4
  00020	8b 4a fc	 mov	 ecx, DWORD PTR [edx-4]
  00023	33 c8		 xor	 ecx, eax
  00025	e8 00 00 00 00	 call	 @__security_check_cookie@4
  0002a	b8 00 00 00 00	 mov	 eax, OFFSET __ehfuncinfo$?guildGetEnemyGuildName@@YAPAU_object@@PAU1@0@Z
  0002f	e9 00 00 00 00	 jmp	 ___CxxFrameHandler3
text$x	ENDS
?guildGetEnemyGuildName@@YAPAU_object@@PAU1@0@Z ENDP	; guildGetEnemyGuildName
; Function compile flags: /Ogtp
; File C:\Anka2Project\Anka2Project\Source\Binary\source\UserInterface\PythonGuild.cpp
; File C:\Anka2Project\Anka2Project\Source\Binary\source\eterBase\Singleton.h
; File C:\Anka2Project\Anka2Project\Source\Binary\source\UserInterface\PythonGuild.cpp
;	COMDAT ?guildGetGuildMoney@@YAPAU_object@@PAU1@0@Z
_TEXT	SEGMENT
_poSelf$ = 8						; size = 4
_poArgs$ = 12						; size = 4
?guildGetGuildMoney@@YAPAU_object@@PAU1@0@Z PROC	; guildGetGuildMoney, COMDAT
; File C:\Anka2Project\Anka2Project\Source\Binary\source\eterBase\Singleton.h

; 26   : 		assert(ms_singleton);

  00000	8b 0d 00 00 00
	00		 mov	 ecx, DWORD PTR ?ms_singleton@?$CSingleton@VCPythonGuild@@@@0PAVCPythonGuild@@A ; CSingleton<CPythonGuild>::ms_singleton
  00006	85 c9		 test	 ecx, ecx
  00008	75 1a		 jne	 SHORT $LN5@guildGetGu
  0000a	6a 1a		 push	 26			; 0000001aH
  0000c	68 00 00 00 00	 push	 OFFSET ??_C@_1IO@CAJLEEOI@?$AAC?$AA?3?$AA?2?$AAA?$AAn?$AAk?$AAa?$AA2?$AAP?$AAr?$AAo?$AAj?$AAe?$AAc?$AAt@
  00011	68 00 00 00 00	 push	 OFFSET ??_C@_1BK@FMEHPMFE@?$AAm?$AAs?$AA_?$AAs?$AAi?$AAn?$AAg?$AAl?$AAe?$AAt?$AAo?$AAn@
  00016	e8 00 00 00 00	 call	 __wassert
  0001b	8b 0d 00 00 00
	00		 mov	 ecx, DWORD PTR ?ms_singleton@?$CSingleton@VCPythonGuild@@@@0PAVCPythonGuild@@A ; CSingleton<CPythonGuild>::ms_singleton
  00021	83 c4 0c	 add	 esp, 12			; 0000000cH
$LN5@guildGetGu:
; File C:\Anka2Project\Anka2Project\Source\Binary\source\UserInterface\PythonGuild.cpp

; 437  : 	CPythonGuild::TGuildInfo & rGuildInfo = CPythonGuild::Instance().GetGuildInfoRef();

  00024	e8 00 00 00 00	 call	 ?GetGuildInfoRef@CPythonGuild@@QAEAAUSGulidInfo@1@XZ ; CPythonGuild::GetGuildInfoRef

; 438  : 	return Py_BuildValue("i", rGuildInfo.dwGuildMoney);

  00029	ff 70 28	 push	 DWORD PTR [eax+40]
  0002c	68 00 00 00 00	 push	 OFFSET ??_C@_01KBJDNOO@i@
  00031	ff 15 00 00 00
	00		 call	 DWORD PTR __imp__Py_BuildValue
  00037	83 c4 08	 add	 esp, 8

; 439  : }

  0003a	c3		 ret	 0
?guildGetGuildMoney@@YAPAU_object@@PAU1@0@Z ENDP	; guildGetGuildMoney
_TEXT	ENDS
; Function compile flags: /Ogtp
; File C:\Anka2Project\Anka2Project\Source\Binary\source\UserInterface\PythonGuild.cpp
; File C:\Anka2Project\Anka2Project\Source\Binary\source\eterBase\Singleton.h
; File C:\Anka2Project\Anka2Project\Source\Binary\source\UserInterface\PythonGuild.cpp
; File C:\Program Files\Microsoft Visual Studio\2022\Community\VC\Tools\MSVC\14.44.35207\include\vector
; File C:\Anka2Project\Anka2Project\Source\Binary\source\UserInterface\PythonGuild.cpp
;	COMDAT ?guildGetGuildBoardCommentCount@@YAPAU_object@@PAU1@0@Z
_TEXT	SEGMENT
_poSelf$ = 8						; size = 4
_poArgs$ = 12						; size = 4
?guildGetGuildBoardCommentCount@@YAPAU_object@@PAU1@0@Z PROC ; guildGetGuildBoardCommentCount, COMDAT
; File C:\Anka2Project\Anka2Project\Source\Binary\source\eterBase\Singleton.h

; 26   : 		assert(ms_singleton);

  00000	8b 0d 00 00 00
	00		 mov	 ecx, DWORD PTR ?ms_singleton@?$CSingleton@VCPythonGuild@@@@0PAVCPythonGuild@@A ; CSingleton<CPythonGuild>::ms_singleton
  00006	85 c9		 test	 ecx, ecx
  00008	75 1a		 jne	 SHORT $LN5@guildGetGu
  0000a	6a 1a		 push	 26			; 0000001aH
  0000c	68 00 00 00 00	 push	 OFFSET ??_C@_1IO@CAJLEEOI@?$AAC?$AA?3?$AA?2?$AAA?$AAn?$AAk?$AAa?$AA2?$AAP?$AAr?$AAo?$AAj?$AAe?$AAc?$AAt@
  00011	68 00 00 00 00	 push	 OFFSET ??_C@_1BK@FMEHPMFE@?$AAm?$AAs?$AA_?$AAs?$AAi?$AAn?$AAg?$AAl?$AAe?$AAt?$AAo?$AAn@
  00016	e8 00 00 00 00	 call	 __wassert
  0001b	8b 0d 00 00 00
	00		 mov	 ecx, DWORD PTR ?ms_singleton@?$CSingleton@VCPythonGuild@@@@0PAVCPythonGuild@@A ; CSingleton<CPythonGuild>::ms_singleton
  00021	83 c4 0c	 add	 esp, 12			; 0000000cH
$LN5@guildGetGu:
; File C:\Anka2Project\Anka2Project\Source\Binary\source\UserInterface\PythonGuild.cpp

; 443  : 	const CPythonGuild::TGuildBoardCommentDataVector & rCommentVector = CPythonGuild::Instance().GetGuildBoardCommentVector();

  00024	e8 00 00 00 00	 call	 ?GetGuildBoardCommentVector@CPythonGuild@@QAEABV?$vector@USGuildBoardCommentData@CPythonGuild@@V?$allocator@USGuildBoardCommentData@CPythonGuild@@@std@@@std@@XZ ; CPythonGuild::GetGuildBoardCommentVector
; File C:\Program Files\Microsoft Visual Studio\2022\Community\VC\Tools\MSVC\14.44.35207\include\vector

; 1915 :         return static_cast<size_type>(_My_data._Mylast - _My_data._Myfirst);

  00029	8b 48 04	 mov	 ecx, DWORD PTR [eax+4]
  0002c	2b 08		 sub	 ecx, DWORD PTR [eax]
  0002e	b8 4f ec c4 4e	 mov	 eax, 1321528399		; 4ec4ec4fH
  00033	f7 e9		 imul	 ecx
  00035	c1 fa 04	 sar	 edx, 4
  00038	8b c2		 mov	 eax, edx
  0003a	c1 e8 1f	 shr	 eax, 31			; 0000001fH
  0003d	03 c2		 add	 eax, edx
; File C:\Anka2Project\Anka2Project\Source\Binary\source\UserInterface\PythonGuild.cpp

; 444  : 	return Py_BuildValue("i", rCommentVector.size());

  0003f	50		 push	 eax
  00040	68 00 00 00 00	 push	 OFFSET ??_C@_01KBJDNOO@i@
  00045	ff 15 00 00 00
	00		 call	 DWORD PTR __imp__Py_BuildValue
  0004b	83 c4 08	 add	 esp, 8

; 445  : }

  0004e	c3		 ret	 0
?guildGetGuildBoardCommentCount@@YAPAU_object@@PAU1@0@Z ENDP ; guildGetGuildBoardCommentCount
_TEXT	ENDS
; Function compile flags: /Ogtp
; File C:\Anka2Project\Anka2Project\Source\Binary\source\UserInterface\PythonGuild.cpp
; File C:\Anka2Project\Anka2Project\Source\Binary\source\eterBase\Singleton.h
; File C:\Anka2Project\Anka2Project\Source\Binary\source\UserInterface\PythonGuild.cpp
; File C:\Program Files\Microsoft Visual Studio\2022\Community\VC\Tools\MSVC\14.44.35207\include\vector
; File C:\Anka2Project\Anka2Project\Source\Binary\source\UserInterface\PythonGuild.cpp
; File C:\Program Files\Microsoft Visual Studio\2022\Community\VC\Tools\MSVC\14.44.35207\include\vector
; File C:\Anka2Project\Anka2Project\Source\Binary\source\UserInterface\PythonGuild.cpp
; File C:\Program Files\Microsoft Visual Studio\2022\Community\VC\Tools\MSVC\14.44.35207\include\vector
; File C:\Program Files\Microsoft Visual Studio\2022\Community\VC\Tools\MSVC\14.44.35207\include\xstring
; File C:\Anka2Project\Anka2Project\Source\Binary\source\UserInterface\PythonGuild.cpp
;	COMDAT ?guildGetGuildBoardCommentData@@YAPAU_object@@PAU1@0@Z
_TEXT	SEGMENT
_iIndex$ = -4						; size = 4
_poSelf$ = 8						; size = 4
_poArgs$ = 12						; size = 4
?guildGetGuildBoardCommentData@@YAPAU_object@@PAU1@0@Z PROC ; guildGetGuildBoardCommentData, COMDAT

; 448  : {

  00000	55		 push	 ebp
  00001	8b ec		 mov	 ebp, esp
  00003	51		 push	 ecx

; 449  : 	int iIndex;
; 450  : 	if (!PyTuple_GetInteger(poArgs, 0, &iIndex))

  00004	8d 45 fc	 lea	 eax, DWORD PTR _iIndex$[ebp]
  00007	50		 push	 eax
  00008	6a 00		 push	 0
  0000a	ff 75 0c	 push	 DWORD PTR _poArgs$[ebp]
  0000d	e8 00 00 00 00	 call	 ?PyTuple_GetInteger@@YA_NPAU_object@@HPAH@Z ; PyTuple_GetInteger
  00012	83 c4 0c	 add	 esp, 12			; 0000000cH
  00015	84 c0		 test	 al, al
  00017	75 0e		 jne	 SHORT $LN2@guildGetGu

; 451  : 		return Py_BuildException();

  00019	6a 00		 push	 0
  0001b	e8 00 00 00 00	 call	 ?Py_BuildException@@YAPAU_object@@PBDZZ ; Py_BuildException
  00020	83 c4 04	 add	 esp, 4

; 460  : }

  00023	8b e5		 mov	 esp, ebp
  00025	5d		 pop	 ebp
  00026	c3		 ret	 0
$LN2@guildGetGu:
; File C:\Anka2Project\Anka2Project\Source\Binary\source\eterBase\Singleton.h

; 26   : 		assert(ms_singleton);

  00027	8b 0d 00 00 00
	00		 mov	 ecx, DWORD PTR ?ms_singleton@?$CSingleton@VCPythonGuild@@@@0PAVCPythonGuild@@A ; CSingleton<CPythonGuild>::ms_singleton
  0002d	85 c9		 test	 ecx, ecx
  0002f	75 1a		 jne	 SHORT $LN7@guildGetGu
  00031	6a 1a		 push	 26			; 0000001aH
  00033	68 00 00 00 00	 push	 OFFSET ??_C@_1IO@CAJLEEOI@?$AAC?$AA?3?$AA?2?$AAA?$AAn?$AAk?$AAa?$AA2?$AAP?$AAr?$AAo?$AAj?$AAe?$AAc?$AAt@
  00038	68 00 00 00 00	 push	 OFFSET ??_C@_1BK@FMEHPMFE@?$AAm?$AAs?$AA_?$AAs?$AAi?$AAn?$AAg?$AAl?$AAe?$AAt?$AAo?$AAn@
  0003d	e8 00 00 00 00	 call	 __wassert
  00042	8b 0d 00 00 00
	00		 mov	 ecx, DWORD PTR ?ms_singleton@?$CSingleton@VCPythonGuild@@@@0PAVCPythonGuild@@A ; CSingleton<CPythonGuild>::ms_singleton
  00048	83 c4 0c	 add	 esp, 12			; 0000000cH
$LN7@guildGetGu:
  0004b	56		 push	 esi
; File C:\Anka2Project\Anka2Project\Source\Binary\source\UserInterface\PythonGuild.cpp

; 453  : 	const CPythonGuild::TGuildBoardCommentDataVector & c_rCommentVector = CPythonGuild::Instance().GetGuildBoardCommentVector();

  0004c	e8 00 00 00 00	 call	 ?GetGuildBoardCommentVector@CPythonGuild@@QAEABV?$vector@USGuildBoardCommentData@CPythonGuild@@V?$allocator@USGuildBoardCommentData@CPythonGuild@@@std@@@std@@XZ ; CPythonGuild::GetGuildBoardCommentVector
; File C:\Program Files\Microsoft Visual Studio\2022\Community\VC\Tools\MSVC\14.44.35207\include\vector

; 1915 :         return static_cast<size_type>(_My_data._Mylast - _My_data._Myfirst);

  00051	8b 48 04	 mov	 ecx, DWORD PTR [eax+4]
  00054	8b 30		 mov	 esi, DWORD PTR [eax]
  00056	2b ce		 sub	 ecx, esi
  00058	b8 4f ec c4 4e	 mov	 eax, 1321528399		; 4ec4ec4fH
  0005d	f7 e9		 imul	 ecx
; File C:\Anka2Project\Anka2Project\Source\Binary\source\UserInterface\PythonGuild.cpp

; 454  : 	if (DWORD(iIndex) >= c_rCommentVector.size())

  0005f	8b 4d fc	 mov	 ecx, DWORD PTR _iIndex$[ebp]
; File C:\Program Files\Microsoft Visual Studio\2022\Community\VC\Tools\MSVC\14.44.35207\include\vector

; 1915 :         return static_cast<size_type>(_My_data._Mylast - _My_data._Myfirst);

  00062	c1 fa 04	 sar	 edx, 4
  00065	8b c2		 mov	 eax, edx
  00067	c1 e8 1f	 shr	 eax, 31			; 0000001fH
  0006a	03 c2		 add	 eax, edx
; File C:\Anka2Project\Anka2Project\Source\Binary\source\UserInterface\PythonGuild.cpp

; 454  : 	if (DWORD(iIndex) >= c_rCommentVector.size())

  0006c	3b c8		 cmp	 ecx, eax
  0006e	72 1f		 jb	 SHORT $LN3@guildGetGu

; 455  : 		return Py_BuildValue("iss", 0, "Noname", "Noname");

  00070	68 00 00 00 00	 push	 OFFSET ??_C@_06HCBIANPB@Noname@
  00075	68 00 00 00 00	 push	 OFFSET ??_C@_06HCBIANPB@Noname@
  0007a	6a 00		 push	 0

; 459  : 	return Py_BuildValue("iss", c_rData.dwCommentID, c_rData.strName.c_str(), c_rData.strComment.c_str());

  0007c	68 00 00 00 00	 push	 OFFSET ??_C@_03MKDAGEFG@iss@
  00081	ff 15 00 00 00
	00		 call	 DWORD PTR __imp__Py_BuildValue
  00087	83 c4 10	 add	 esp, 16			; 00000010H
  0008a	5e		 pop	 esi

; 460  : }

  0008b	8b e5		 mov	 esp, ebp
  0008d	5d		 pop	 ebp
  0008e	c3		 ret	 0
$LN3@guildGetGu:
; File C:\Program Files\Microsoft Visual Studio\2022\Community\VC\Tools\MSVC\14.44.35207\include\vector

; 1944 :         return _My_data._Myfirst[_Pos];

  0008f	6b c1 34	 imul	 eax, ecx, 52
; File C:\Program Files\Microsoft Visual Studio\2022\Community\VC\Tools\MSVC\14.44.35207\include\xstring

; 2356 :         return _Mypair._Myval2._Myptr();

  00092	8d 50 1c	 lea	 edx, DWORD PTR [eax+28]
  00095	03 d6		 add	 edx, esi

; 453  :         return _Myres > _Small_string_capacity;

  00097	83 7a 14 0f	 cmp	 DWORD PTR [edx+20], 15	; 0000000fH

; 445  :         if (_Large_mode_engaged()) {

  0009b	76 02		 jbe	 SHORT $LN18@guildGetGu

; 446  :             _Result = _Unfancy(_Bx._Ptr);

  0009d	8b 12		 mov	 edx, DWORD PTR [edx]
$LN18@guildGetGu:

; 2356 :         return _Mypair._Myval2._Myptr();

  0009f	8d 48 04	 lea	 ecx, DWORD PTR [eax+4]
  000a2	03 ce		 add	 ecx, esi

; 453  :         return _Myres > _Small_string_capacity;

  000a4	83 79 14 0f	 cmp	 DWORD PTR [ecx+20], 15	; 0000000fH

; 445  :         if (_Large_mode_engaged()) {

  000a8	76 02		 jbe	 SHORT $LN28@guildGetGu

; 446  :             _Result = _Unfancy(_Bx._Ptr);

  000aa	8b 09		 mov	 ecx, DWORD PTR [ecx]
$LN28@guildGetGu:
; File C:\Anka2Project\Anka2Project\Source\Binary\source\UserInterface\PythonGuild.cpp

; 459  : 	return Py_BuildValue("iss", c_rData.dwCommentID, c_rData.strName.c_str(), c_rData.strComment.c_str());

  000ac	52		 push	 edx
  000ad	51		 push	 ecx
  000ae	ff 34 30	 push	 DWORD PTR [eax+esi]
  000b1	68 00 00 00 00	 push	 OFFSET ??_C@_03MKDAGEFG@iss@
  000b6	ff 15 00 00 00
	00		 call	 DWORD PTR __imp__Py_BuildValue
  000bc	83 c4 10	 add	 esp, 16			; 00000010H
  000bf	5e		 pop	 esi

; 460  : }

  000c0	8b e5		 mov	 esp, ebp
  000c2	5d		 pop	 ebp
  000c3	c3		 ret	 0
?guildGetGuildBoardCommentData@@YAPAU_object@@PAU1@0@Z ENDP ; guildGetGuildBoardCommentData
_TEXT	ENDS
; Function compile flags: /Ogtp
; File C:\Anka2Project\Anka2Project\Source\Binary\source\UserInterface\PythonGuild.cpp
; File C:\Anka2Project\Anka2Project\Source\Binary\source\eterBase\Singleton.h
; File C:\Anka2Project\Anka2Project\Source\Binary\source\UserInterface\PythonGuild.cpp
;	COMDAT ?guildGetGuildLevel@@YAPAU_object@@PAU1@0@Z
_TEXT	SEGMENT
_poSelf$ = 8						; size = 4
_poArgs$ = 12						; size = 4
?guildGetGuildLevel@@YAPAU_object@@PAU1@0@Z PROC	; guildGetGuildLevel, COMDAT
; File C:\Anka2Project\Anka2Project\Source\Binary\source\eterBase\Singleton.h

; 26   : 		assert(ms_singleton);

  00000	8b 0d 00 00 00
	00		 mov	 ecx, DWORD PTR ?ms_singleton@?$CSingleton@VCPythonGuild@@@@0PAVCPythonGuild@@A ; CSingleton<CPythonGuild>::ms_singleton
  00006	85 c9		 test	 ecx, ecx
  00008	75 1a		 jne	 SHORT $LN5@guildGetGu
  0000a	6a 1a		 push	 26			; 0000001aH
  0000c	68 00 00 00 00	 push	 OFFSET ??_C@_1IO@CAJLEEOI@?$AAC?$AA?3?$AA?2?$AAA?$AAn?$AAk?$AAa?$AA2?$AAP?$AAr?$AAo?$AAj?$AAe?$AAc?$AAt@
  00011	68 00 00 00 00	 push	 OFFSET ??_C@_1BK@FMEHPMFE@?$AAm?$AAs?$AA_?$AAs?$AAi?$AAn?$AAg?$AAl?$AAe?$AAt?$AAo?$AAn@
  00016	e8 00 00 00 00	 call	 __wassert
  0001b	8b 0d 00 00 00
	00		 mov	 ecx, DWORD PTR ?ms_singleton@?$CSingleton@VCPythonGuild@@@@0PAVCPythonGuild@@A ; CSingleton<CPythonGuild>::ms_singleton
  00021	83 c4 0c	 add	 esp, 12			; 0000000cH
$LN5@guildGetGu:
; File C:\Anka2Project\Anka2Project\Source\Binary\source\UserInterface\PythonGuild.cpp

; 464  : 	CPythonGuild::TGuildInfo & rGuildInfo = CPythonGuild::Instance().GetGuildInfoRef();

  00024	e8 00 00 00 00	 call	 ?GetGuildInfoRef@CPythonGuild@@QAEAAUSGulidInfo@1@XZ ; CPythonGuild::GetGuildInfoRef

; 465  : 	return Py_BuildValue("i", rGuildInfo.dwGuildLevel);

  00029	ff 70 18	 push	 DWORD PTR [eax+24]
  0002c	68 00 00 00 00	 push	 OFFSET ??_C@_01KBJDNOO@i@
  00031	ff 15 00 00 00
	00		 call	 DWORD PTR __imp__Py_BuildValue
  00037	83 c4 08	 add	 esp, 8

; 466  : }

  0003a	c3		 ret	 0
?guildGetGuildLevel@@YAPAU_object@@PAU1@0@Z ENDP	; guildGetGuildLevel
_TEXT	ENDS
; Function compile flags: /Ogtp
; File C:\Anka2Project\Anka2Project\Source\Binary\source\UserInterface\PythonGuild.cpp
; File C:\Anka2Project\Anka2Project\Source\Binary\source\eterBase\Singleton.h
; File C:\Anka2Project\Anka2Project\Source\Binary\source\UserInterface\PythonGuild.cpp
;	COMDAT ?guildGetGuildExperience@@YAPAU_object@@PAU1@0@Z
_TEXT	SEGMENT
_poSelf$ = 8						; size = 4
_poArgs$ = 12						; size = 4
?guildGetGuildExperience@@YAPAU_object@@PAU1@0@Z PROC	; guildGetGuildExperience, COMDAT
; File C:\Anka2Project\Anka2Project\Source\Binary\source\eterBase\Singleton.h

; 26   : 		assert(ms_singleton);

  00000	8b 0d 00 00 00
	00		 mov	 ecx, DWORD PTR ?ms_singleton@?$CSingleton@VCPythonGuild@@@@0PAVCPythonGuild@@A ; CSingleton<CPythonGuild>::ms_singleton
  00006	85 c9		 test	 ecx, ecx
  00008	75 1a		 jne	 SHORT $LN6@guildGetGu
  0000a	6a 1a		 push	 26			; 0000001aH
  0000c	68 00 00 00 00	 push	 OFFSET ??_C@_1IO@CAJLEEOI@?$AAC?$AA?3?$AA?2?$AAA?$AAn?$AAk?$AAa?$AA2?$AAP?$AAr?$AAo?$AAj?$AAe?$AAc?$AAt@
  00011	68 00 00 00 00	 push	 OFFSET ??_C@_1BK@FMEHPMFE@?$AAm?$AAs?$AA_?$AAs?$AAi?$AAn?$AAg?$AAl?$AAe?$AAt?$AAo?$AAn@
  00016	e8 00 00 00 00	 call	 __wassert
  0001b	8b 0d 00 00 00
	00		 mov	 ecx, DWORD PTR ?ms_singleton@?$CSingleton@VCPythonGuild@@@@0PAVCPythonGuild@@A ; CSingleton<CPythonGuild>::ms_singleton
  00021	83 c4 0c	 add	 esp, 12			; 0000000cH
$LN6@guildGetGu:
; File C:\Anka2Project\Anka2Project\Source\Binary\source\UserInterface\PythonGuild.cpp

; 470  : 	CPythonGuild::TGuildInfo & rGuildInfo = CPythonGuild::Instance().GetGuildInfoRef();

  00024	e8 00 00 00 00	 call	 ?GetGuildInfoRef@CPythonGuild@@QAEAAUSGulidInfo@1@XZ ; CPythonGuild::GetGuildInfoRef
  00029	8b d0		 mov	 edx, eax

; 471  : 
; 472  : 	int GULID_MAX_LEVEL = 20;
; 473  : 	if (rGuildInfo.dwGuildLevel >= GULID_MAX_LEVEL)

  0002b	8b 4a 18	 mov	 ecx, DWORD PTR [edx+24]
  0002e	83 f9 14	 cmp	 ecx, 20			; 00000014H
  00031	72 13		 jb	 SHORT $LN2@guildGetGu

; 474  : 		return Py_BuildValue("ii", 0, 0);

  00033	6a 00		 push	 0
  00035	6a 00		 push	 0

; 479  : }

  00037	68 00 00 00 00	 push	 OFFSET ??_C@_02PDIHAGKM@ii@
  0003c	ff 15 00 00 00
	00		 call	 DWORD PTR __imp__Py_BuildValue
  00042	83 c4 0c	 add	 esp, 12			; 0000000cH
  00045	c3		 ret	 0
$LN2@guildGetGu:

; 475  : 
; 476  : 	unsigned lastExp = GetGuildLastExp(rGuildInfo.dwGuildLevel);

  00046	e8 00 00 00 00	 call	 ?GetGuildLastExp@@YAIH@Z ; GetGuildLastExp

; 477  : 
; 478  : 	return Py_BuildValue("ii", rGuildInfo.dwCurrentExperience, lastExp - rGuildInfo.dwCurrentExperience);

  0004b	8b 4a 1c	 mov	 ecx, DWORD PTR [edx+28]
  0004e	2b c1		 sub	 eax, ecx
  00050	50		 push	 eax
  00051	51		 push	 ecx

; 479  : }

  00052	68 00 00 00 00	 push	 OFFSET ??_C@_02PDIHAGKM@ii@
  00057	ff 15 00 00 00
	00		 call	 DWORD PTR __imp__Py_BuildValue
  0005d	83 c4 0c	 add	 esp, 12			; 0000000cH
  00060	c3		 ret	 0
?guildGetGuildExperience@@YAPAU_object@@PAU1@0@Z ENDP	; guildGetGuildExperience
_TEXT	ENDS
; Function compile flags: /Ogtp
; File C:\Anka2Project\Anka2Project\Source\Binary\source\UserInterface\PythonGuild.cpp
; File C:\Anka2Project\Anka2Project\Source\Binary\source\eterBase\Singleton.h
; File C:\Anka2Project\Anka2Project\Source\Binary\source\UserInterface\PythonGuild.cpp
;	COMDAT ?guildGetGuildMemberCount@@YAPAU_object@@PAU1@0@Z
_TEXT	SEGMENT
_poSelf$ = 8						; size = 4
_poArgs$ = 12						; size = 4
?guildGetGuildMemberCount@@YAPAU_object@@PAU1@0@Z PROC	; guildGetGuildMemberCount, COMDAT
; File C:\Anka2Project\Anka2Project\Source\Binary\source\eterBase\Singleton.h

; 26   : 		assert(ms_singleton);

  00000	8b 0d 00 00 00
	00		 mov	 ecx, DWORD PTR ?ms_singleton@?$CSingleton@VCPythonGuild@@@@0PAVCPythonGuild@@A ; CSingleton<CPythonGuild>::ms_singleton
  00006	85 c9		 test	 ecx, ecx
  00008	75 1a		 jne	 SHORT $LN5@guildGetGu
  0000a	6a 1a		 push	 26			; 0000001aH
  0000c	68 00 00 00 00	 push	 OFFSET ??_C@_1IO@CAJLEEOI@?$AAC?$AA?3?$AA?2?$AAA?$AAn?$AAk?$AAa?$AA2?$AAP?$AAr?$AAo?$AAj?$AAe?$AAc?$AAt@
  00011	68 00 00 00 00	 push	 OFFSET ??_C@_1BK@FMEHPMFE@?$AAm?$AAs?$AA_?$AAs?$AAi?$AAn?$AAg?$AAl?$AAe?$AAt?$AAo?$AAn@
  00016	e8 00 00 00 00	 call	 __wassert
  0001b	8b 0d 00 00 00
	00		 mov	 ecx, DWORD PTR ?ms_singleton@?$CSingleton@VCPythonGuild@@@@0PAVCPythonGuild@@A ; CSingleton<CPythonGuild>::ms_singleton
  00021	83 c4 0c	 add	 esp, 12			; 0000000cH
$LN5@guildGetGu:
; File C:\Anka2Project\Anka2Project\Source\Binary\source\UserInterface\PythonGuild.cpp

; 483  : 	CPythonGuild::TGuildInfo & rGuildInfo = CPythonGuild::Instance().GetGuildInfoRef();

  00024	e8 00 00 00 00	 call	 ?GetGuildInfoRef@CPythonGuild@@QAEAAUSGulidInfo@1@XZ ; CPythonGuild::GetGuildInfoRef

; 484  : 	return Py_BuildValue("ii", rGuildInfo.dwCurrentMemberCount, rGuildInfo.dwMaxMemberCount);

  00029	ff 70 24	 push	 DWORD PTR [eax+36]
  0002c	ff 70 20	 push	 DWORD PTR [eax+32]
  0002f	68 00 00 00 00	 push	 OFFSET ??_C@_02PDIHAGKM@ii@
  00034	ff 15 00 00 00
	00		 call	 DWORD PTR __imp__Py_BuildValue
  0003a	83 c4 0c	 add	 esp, 12			; 0000000cH

; 485  : }

  0003d	c3		 ret	 0
?guildGetGuildMemberCount@@YAPAU_object@@PAU1@0@Z ENDP	; guildGetGuildMemberCount
_TEXT	ENDS
; Function compile flags: /Ogtp
; File C:\Anka2Project\Anka2Project\Source\Binary\source\UserInterface\PythonGuild.cpp
; File C:\Anka2Project\Anka2Project\Source\Binary\source\eterBase\Singleton.h
; File C:\Anka2Project\Anka2Project\Source\Binary\source\UserInterface\PythonGuild.cpp
;	COMDAT ?guildGetGuildMemberLevelSummary@@YAPAU_object@@PAU1@0@Z
_TEXT	SEGMENT
_poSelf$ = 8						; size = 4
_poArgs$ = 12						; size = 4
?guildGetGuildMemberLevelSummary@@YAPAU_object@@PAU1@0@Z PROC ; guildGetGuildMemberLevelSummary, COMDAT
; File C:\Anka2Project\Anka2Project\Source\Binary\source\eterBase\Singleton.h

; 26   : 		assert(ms_singleton);

  00000	8b 0d 00 00 00
	00		 mov	 ecx, DWORD PTR ?ms_singleton@?$CSingleton@VCPythonGuild@@@@0PAVCPythonGuild@@A ; CSingleton<CPythonGuild>::ms_singleton
  00006	85 c9		 test	 ecx, ecx
  00008	75 1a		 jne	 SHORT $LN5@guildGetGu
  0000a	6a 1a		 push	 26			; 0000001aH
  0000c	68 00 00 00 00	 push	 OFFSET ??_C@_1IO@CAJLEEOI@?$AAC?$AA?3?$AA?2?$AAA?$AAn?$AAk?$AAa?$AA2?$AAP?$AAr?$AAo?$AAj?$AAe?$AAc?$AAt@
  00011	68 00 00 00 00	 push	 OFFSET ??_C@_1BK@FMEHPMFE@?$AAm?$AAs?$AA_?$AAs?$AAi?$AAn?$AAg?$AAl?$AAe?$AAt?$AAo?$AAn@
  00016	e8 00 00 00 00	 call	 __wassert
  0001b	8b 0d 00 00 00
	00		 mov	 ecx, DWORD PTR ?ms_singleton@?$CSingleton@VCPythonGuild@@@@0PAVCPythonGuild@@A ; CSingleton<CPythonGuild>::ms_singleton
  00021	83 c4 0c	 add	 esp, 12			; 0000000cH
$LN5@guildGetGu:
; File C:\Anka2Project\Anka2Project\Source\Binary\source\UserInterface\PythonGuild.cpp

; 489  : 	return Py_BuildValue("i", CPythonGuild::Instance().GetGuildMemberLevelSummary());

  00024	e8 00 00 00 00	 call	 ?GetGuildMemberLevelSummary@CPythonGuild@@QAEKXZ ; CPythonGuild::GetGuildMemberLevelSummary
  00029	50		 push	 eax
  0002a	68 00 00 00 00	 push	 OFFSET ??_C@_01KBJDNOO@i@
  0002f	ff 15 00 00 00
	00		 call	 DWORD PTR __imp__Py_BuildValue
  00035	83 c4 08	 add	 esp, 8

; 490  : }

  00038	c3		 ret	 0
?guildGetGuildMemberLevelSummary@@YAPAU_object@@PAU1@0@Z ENDP ; guildGetGuildMemberLevelSummary
_TEXT	ENDS
; Function compile flags: /Ogtp
; File C:\Anka2Project\Anka2Project\Source\Binary\source\UserInterface\PythonGuild.cpp
; File C:\Anka2Project\Anka2Project\Source\Binary\source\eterBase\Singleton.h
; File C:\Anka2Project\Anka2Project\Source\Binary\source\UserInterface\PythonGuild.cpp
;	COMDAT ?guildGetGuildMemberLevelAverage@@YAPAU_object@@PAU1@0@Z
_TEXT	SEGMENT
_poSelf$ = 8						; size = 4
_poArgs$ = 12						; size = 4
?guildGetGuildMemberLevelAverage@@YAPAU_object@@PAU1@0@Z PROC ; guildGetGuildMemberLevelAverage, COMDAT
; File C:\Anka2Project\Anka2Project\Source\Binary\source\eterBase\Singleton.h

; 26   : 		assert(ms_singleton);

  00000	8b 0d 00 00 00
	00		 mov	 ecx, DWORD PTR ?ms_singleton@?$CSingleton@VCPythonGuild@@@@0PAVCPythonGuild@@A ; CSingleton<CPythonGuild>::ms_singleton
  00006	85 c9		 test	 ecx, ecx
  00008	75 1a		 jne	 SHORT $LN5@guildGetGu
  0000a	6a 1a		 push	 26			; 0000001aH
  0000c	68 00 00 00 00	 push	 OFFSET ??_C@_1IO@CAJLEEOI@?$AAC?$AA?3?$AA?2?$AAA?$AAn?$AAk?$AAa?$AA2?$AAP?$AAr?$AAo?$AAj?$AAe?$AAc?$AAt@
  00011	68 00 00 00 00	 push	 OFFSET ??_C@_1BK@FMEHPMFE@?$AAm?$AAs?$AA_?$AAs?$AAi?$AAn?$AAg?$AAl?$AAe?$AAt?$AAo?$AAn@
  00016	e8 00 00 00 00	 call	 __wassert
  0001b	8b 0d 00 00 00
	00		 mov	 ecx, DWORD PTR ?ms_singleton@?$CSingleton@VCPythonGuild@@@@0PAVCPythonGuild@@A ; CSingleton<CPythonGuild>::ms_singleton
  00021	83 c4 0c	 add	 esp, 12			; 0000000cH
$LN5@guildGetGu:
; File C:\Anka2Project\Anka2Project\Source\Binary\source\UserInterface\PythonGuild.cpp

; 494  : 	return Py_BuildValue("i", CPythonGuild::Instance().GetGuildMemberLevelAverage());

  00024	e8 00 00 00 00	 call	 ?GetGuildMemberLevelAverage@CPythonGuild@@QAEKXZ ; CPythonGuild::GetGuildMemberLevelAverage
  00029	50		 push	 eax
  0002a	68 00 00 00 00	 push	 OFFSET ??_C@_01KBJDNOO@i@
  0002f	ff 15 00 00 00
	00		 call	 DWORD PTR __imp__Py_BuildValue
  00035	83 c4 08	 add	 esp, 8

; 495  : }

  00038	c3		 ret	 0
?guildGetGuildMemberLevelAverage@@YAPAU_object@@PAU1@0@Z ENDP ; guildGetGuildMemberLevelAverage
_TEXT	ENDS
; Function compile flags: /Ogtp
; File C:\Anka2Project\Anka2Project\Source\Binary\source\UserInterface\PythonGuild.cpp
; File C:\Anka2Project\Anka2Project\Source\Binary\source\eterBase\Singleton.h
; File C:\Anka2Project\Anka2Project\Source\Binary\source\UserInterface\PythonGuild.cpp
;	COMDAT ?guildGetGuildExperienceSummary@@YAPAU_object@@PAU1@0@Z
_TEXT	SEGMENT
_poSelf$ = 8						; size = 4
_poArgs$ = 12						; size = 4
?guildGetGuildExperienceSummary@@YAPAU_object@@PAU1@0@Z PROC ; guildGetGuildExperienceSummary, COMDAT
; File C:\Anka2Project\Anka2Project\Source\Binary\source\eterBase\Singleton.h

; 26   : 		assert(ms_singleton);

  00000	8b 0d 00 00 00
	00		 mov	 ecx, DWORD PTR ?ms_singleton@?$CSingleton@VCPythonGuild@@@@0PAVCPythonGuild@@A ; CSingleton<CPythonGuild>::ms_singleton
  00006	85 c9		 test	 ecx, ecx
  00008	75 1a		 jne	 SHORT $LN5@guildGetGu
  0000a	6a 1a		 push	 26			; 0000001aH
  0000c	68 00 00 00 00	 push	 OFFSET ??_C@_1IO@CAJLEEOI@?$AAC?$AA?3?$AA?2?$AAA?$AAn?$AAk?$AAa?$AA2?$AAP?$AAr?$AAo?$AAj?$AAe?$AAc?$AAt@
  00011	68 00 00 00 00	 push	 OFFSET ??_C@_1BK@FMEHPMFE@?$AAm?$AAs?$AA_?$AAs?$AAi?$AAn?$AAg?$AAl?$AAe?$AAt?$AAo?$AAn@
  00016	e8 00 00 00 00	 call	 __wassert
  0001b	8b 0d 00 00 00
	00		 mov	 ecx, DWORD PTR ?ms_singleton@?$CSingleton@VCPythonGuild@@@@0PAVCPythonGuild@@A ; CSingleton<CPythonGuild>::ms_singleton
  00021	83 c4 0c	 add	 esp, 12			; 0000000cH
$LN5@guildGetGu:
; File C:\Anka2Project\Anka2Project\Source\Binary\source\UserInterface\PythonGuild.cpp

; 499  : 	return Py_BuildValue("i", CPythonGuild::Instance().GetGuildExperienceSummary());

  00024	e8 00 00 00 00	 call	 ?GetGuildExperienceSummary@CPythonGuild@@QAEKXZ ; CPythonGuild::GetGuildExperienceSummary
  00029	50		 push	 eax
  0002a	68 00 00 00 00	 push	 OFFSET ??_C@_01KBJDNOO@i@
  0002f	ff 15 00 00 00
	00		 call	 DWORD PTR __imp__Py_BuildValue
  00035	83 c4 08	 add	 esp, 8

; 500  : }

  00038	c3		 ret	 0
?guildGetGuildExperienceSummary@@YAPAU_object@@PAU1@0@Z ENDP ; guildGetGuildExperienceSummary
_TEXT	ENDS
; Function compile flags: /Ogtp
; File C:\Anka2Project\Anka2Project\Source\Binary\source\UserInterface\PythonGuild.cpp
; File C:\Anka2Project\Anka2Project\Source\Binary\source\eterBase\Singleton.h
; File C:\Anka2Project\Anka2Project\Source\Binary\source\UserInterface\PythonGuild.cpp
;	COMDAT ?guildGetGuildSkillPoint@@YAPAU_object@@PAU1@0@Z
_TEXT	SEGMENT
_poSelf$ = 8						; size = 4
_poArgs$ = 12						; size = 4
?guildGetGuildSkillPoint@@YAPAU_object@@PAU1@0@Z PROC	; guildGetGuildSkillPoint, COMDAT
; File C:\Anka2Project\Anka2Project\Source\Binary\source\eterBase\Singleton.h

; 26   : 		assert(ms_singleton);

  00000	8b 0d 00 00 00
	00		 mov	 ecx, DWORD PTR ?ms_singleton@?$CSingleton@VCPythonGuild@@@@0PAVCPythonGuild@@A ; CSingleton<CPythonGuild>::ms_singleton
  00006	85 c9		 test	 ecx, ecx
  00008	75 1a		 jne	 SHORT $LN5@guildGetGu
  0000a	6a 1a		 push	 26			; 0000001aH
  0000c	68 00 00 00 00	 push	 OFFSET ??_C@_1IO@CAJLEEOI@?$AAC?$AA?3?$AA?2?$AAA?$AAn?$AAk?$AAa?$AA2?$AAP?$AAr?$AAo?$AAj?$AAe?$AAc?$AAt@
  00011	68 00 00 00 00	 push	 OFFSET ??_C@_1BK@FMEHPMFE@?$AAm?$AAs?$AA_?$AAs?$AAi?$AAn?$AAg?$AAl?$AAe?$AAt?$AAo?$AAn@
  00016	e8 00 00 00 00	 call	 __wassert
  0001b	8b 0d 00 00 00
	00		 mov	 ecx, DWORD PTR ?ms_singleton@?$CSingleton@VCPythonGuild@@@@0PAVCPythonGuild@@A ; CSingleton<CPythonGuild>::ms_singleton
  00021	83 c4 0c	 add	 esp, 12			; 0000000cH
$LN5@guildGetGu:
; File C:\Anka2Project\Anka2Project\Source\Binary\source\UserInterface\PythonGuild.cpp

; 504  : 	const CPythonGuild::TGuildSkillData & c_rSkillData = CPythonGuild::Instance().GetGuildSkillDataRef();

  00024	e8 00 00 00 00	 call	 ?GetGuildSkillDataRef@CPythonGuild@@QAEAAUSGuildSkillData@1@XZ ; CPythonGuild::GetGuildSkillDataRef

; 505  : 	return Py_BuildValue("i", c_rSkillData.bySkillPoint);

  00029	0f b6 00	 movzx	 eax, BYTE PTR [eax]
  0002c	50		 push	 eax
  0002d	68 00 00 00 00	 push	 OFFSET ??_C@_01KBJDNOO@i@
  00032	ff 15 00 00 00
	00		 call	 DWORD PTR __imp__Py_BuildValue
  00038	83 c4 08	 add	 esp, 8

; 506  : }

  0003b	c3		 ret	 0
?guildGetGuildSkillPoint@@YAPAU_object@@PAU1@0@Z ENDP	; guildGetGuildSkillPoint
_TEXT	ENDS
; Function compile flags: /Ogtp
; File C:\Anka2Project\Anka2Project\Source\Binary\source\UserInterface\PythonGuild.cpp
; File C:\Anka2Project\Anka2Project\Source\Binary\source\eterBase\Singleton.h
; File C:\Anka2Project\Anka2Project\Source\Binary\source\UserInterface\PythonGuild.cpp
;	COMDAT ?guildGetDragonPowerPoint@@YAPAU_object@@PAU1@0@Z
_TEXT	SEGMENT
_poSelf$ = 8						; size = 4
_poArgs$ = 12						; size = 4
?guildGetDragonPowerPoint@@YAPAU_object@@PAU1@0@Z PROC	; guildGetDragonPowerPoint, COMDAT
; File C:\Anka2Project\Anka2Project\Source\Binary\source\eterBase\Singleton.h

; 26   : 		assert(ms_singleton);

  00000	8b 0d 00 00 00
	00		 mov	 ecx, DWORD PTR ?ms_singleton@?$CSingleton@VCPythonGuild@@@@0PAVCPythonGuild@@A ; CSingleton<CPythonGuild>::ms_singleton
  00006	85 c9		 test	 ecx, ecx
  00008	75 1a		 jne	 SHORT $LN5@guildGetDr
  0000a	6a 1a		 push	 26			; 0000001aH
  0000c	68 00 00 00 00	 push	 OFFSET ??_C@_1IO@CAJLEEOI@?$AAC?$AA?3?$AA?2?$AAA?$AAn?$AAk?$AAa?$AA2?$AAP?$AAr?$AAo?$AAj?$AAe?$AAc?$AAt@
  00011	68 00 00 00 00	 push	 OFFSET ??_C@_1BK@FMEHPMFE@?$AAm?$AAs?$AA_?$AAs?$AAi?$AAn?$AAg?$AAl?$AAe?$AAt?$AAo?$AAn@
  00016	e8 00 00 00 00	 call	 __wassert
  0001b	8b 0d 00 00 00
	00		 mov	 ecx, DWORD PTR ?ms_singleton@?$CSingleton@VCPythonGuild@@@@0PAVCPythonGuild@@A ; CSingleton<CPythonGuild>::ms_singleton
  00021	83 c4 0c	 add	 esp, 12			; 0000000cH
$LN5@guildGetDr:
; File C:\Anka2Project\Anka2Project\Source\Binary\source\UserInterface\PythonGuild.cpp

; 510  : 	const CPythonGuild::TGuildSkillData & c_rSkillData = CPythonGuild::Instance().GetGuildSkillDataRef();

  00024	e8 00 00 00 00	 call	 ?GetGuildSkillDataRef@CPythonGuild@@QAEAAUSGuildSkillData@1@XZ ; CPythonGuild::GetGuildSkillDataRef

; 511  : 	return Py_BuildValue("ii", c_rSkillData.wGuildPoint, c_rSkillData.wMaxGuildPoint);

  00029	0f b7 48 10	 movzx	 ecx, WORD PTR [eax+16]
  0002d	0f b7 40 0e	 movzx	 eax, WORD PTR [eax+14]
  00031	51		 push	 ecx
  00032	50		 push	 eax
  00033	68 00 00 00 00	 push	 OFFSET ??_C@_02PDIHAGKM@ii@
  00038	ff 15 00 00 00
	00		 call	 DWORD PTR __imp__Py_BuildValue
  0003e	83 c4 0c	 add	 esp, 12			; 0000000cH

; 512  : }

  00041	c3		 ret	 0
?guildGetDragonPowerPoint@@YAPAU_object@@PAU1@0@Z ENDP	; guildGetDragonPowerPoint
_TEXT	ENDS
; Function compile flags: /Ogtp
; File C:\Anka2Project\Anka2Project\Source\Binary\source\UserInterface\PythonGuild.cpp
; File C:\Anka2Project\Anka2Project\Source\Binary\source\eterBase\Singleton.h
; File C:\Anka2Project\Anka2Project\Source\Binary\source\UserInterface\PythonGuild.cpp
;	COMDAT ?guildGetGuildSkillLevel@@YAPAU_object@@PAU1@0@Z
_TEXT	SEGMENT
_iSkillIndex$ = -4					; size = 4
_poSelf$ = 8						; size = 4
_poArgs$ = 12						; size = 4
?guildGetGuildSkillLevel@@YAPAU_object@@PAU1@0@Z PROC	; guildGetGuildSkillLevel, COMDAT

; 515  : {

  00000	55		 push	 ebp
  00001	8b ec		 mov	 ebp, esp
  00003	51		 push	 ecx

; 516  : 	assert(FALSE && !"guildGetGuildSkillLevel -   .");

  00004	68 04 02 00 00	 push	 516			; 00000204H
  00009	68 00 00 00 00	 push	 OFFSET ??_C@_1KA@KBJAMBFD@?$AAC?$AA?3?$AA?2?$AAA?$AAn?$AAk?$AAa?$AA2?$AAP?$AAr?$AAo?$AAj?$AAe?$AAc?$AAt@
  0000e	68 00 00 00 00	 push	 OFFSET ??_C@_1IA@IGEOGJEH@?$AAF?$AAA?$AAL?$AAS?$AAE?$AA?5?$AA?$CG?$AA?$CG?$AA?5?$AA?$CB?$AA?$CC?$AAg?$AAu?$AAi?$AAl@
  00013	e8 00 00 00 00	 call	 __wassert

; 517  : 
; 518  : 	int iSkillIndex;
; 519  : 	if (!PyTuple_GetInteger(poArgs, 0, &iSkillIndex))

  00018	8d 45 fc	 lea	 eax, DWORD PTR _iSkillIndex$[ebp]
  0001b	50		 push	 eax
  0001c	6a 00		 push	 0
  0001e	ff 75 0c	 push	 DWORD PTR _poArgs$[ebp]
  00021	e8 00 00 00 00	 call	 ?PyTuple_GetInteger@@YA_NPAU_object@@HPAH@Z ; PyTuple_GetInteger
  00026	83 c4 18	 add	 esp, 24			; 00000018H
  00029	84 c0		 test	 al, al
  0002b	75 0e		 jne	 SHORT $LN2@guildGetGu

; 520  : 		return Py_BuildException();

  0002d	6a 00		 push	 0
  0002f	e8 00 00 00 00	 call	 ?Py_BuildException@@YAPAU_object@@PBDZZ ; Py_BuildException
  00034	83 c4 04	 add	 esp, 4

; 524  : }

  00037	8b e5		 mov	 esp, ebp
  00039	5d		 pop	 ebp
  0003a	c3		 ret	 0
$LN2@guildGetGu:
; File C:\Anka2Project\Anka2Project\Source\Binary\source\eterBase\Singleton.h

; 26   : 		assert(ms_singleton);

  0003b	8b 0d 00 00 00
	00		 mov	 ecx, DWORD PTR ?ms_singleton@?$CSingleton@VCPythonGuild@@@@0PAVCPythonGuild@@A ; CSingleton<CPythonGuild>::ms_singleton
  00041	85 c9		 test	 ecx, ecx
  00043	75 1a		 jne	 SHORT $LN7@guildGetGu
  00045	6a 1a		 push	 26			; 0000001aH
  00047	68 00 00 00 00	 push	 OFFSET ??_C@_1IO@CAJLEEOI@?$AAC?$AA?3?$AA?2?$AAA?$AAn?$AAk?$AAa?$AA2?$AAP?$AAr?$AAo?$AAj?$AAe?$AAc?$AAt@
  0004c	68 00 00 00 00	 push	 OFFSET ??_C@_1BK@FMEHPMFE@?$AAm?$AAs?$AA_?$AAs?$AAi?$AAn?$AAg?$AAl?$AAe?$AAt?$AAo?$AAn@
  00051	e8 00 00 00 00	 call	 __wassert
  00056	8b 0d 00 00 00
	00		 mov	 ecx, DWORD PTR ?ms_singleton@?$CSingleton@VCPythonGuild@@@@0PAVCPythonGuild@@A ; CSingleton<CPythonGuild>::ms_singleton
  0005c	83 c4 0c	 add	 esp, 12			; 0000000cH
$LN7@guildGetGu:
; File C:\Anka2Project\Anka2Project\Source\Binary\source\UserInterface\PythonGuild.cpp

; 522  : 	const CPythonGuild::TGuildSkillData & c_rSkillData = CPythonGuild::Instance().GetGuildSkillDataRef();

  0005f	e8 00 00 00 00	 call	 ?GetGuildSkillDataRef@CPythonGuild@@QAEAAUSGuildSkillData@1@XZ ; CPythonGuild::GetGuildSkillDataRef

; 523  : 	return Py_BuildValue("i", c_rSkillData.bySkillLevel[iSkillIndex]);

  00064	8b 4d fc	 mov	 ecx, DWORD PTR _iSkillIndex$[ebp]
  00067	0f b6 44 08 01	 movzx	 eax, BYTE PTR [eax+ecx+1]
  0006c	50		 push	 eax
  0006d	68 00 00 00 00	 push	 OFFSET ??_C@_01KBJDNOO@i@
  00072	ff 15 00 00 00
	00		 call	 DWORD PTR __imp__Py_BuildValue
  00078	83 c4 08	 add	 esp, 8

; 524  : }

  0007b	8b e5		 mov	 esp, ebp
  0007d	5d		 pop	 ebp
  0007e	c3		 ret	 0
?guildGetGuildSkillLevel@@YAPAU_object@@PAU1@0@Z ENDP	; guildGetGuildSkillLevel
_TEXT	ENDS
; Function compile flags: /Ogtp
; File C:\Anka2Project\Anka2Project\Source\Binary\source\UserInterface\PythonGuild.cpp
; File C:\Program Files\Microsoft Visual Studio\2022\Community\VC\Tools\MSVC\14.44.35207\include\xtree
; File C:\Anka2Project\Anka2Project\Source\Binary\source\UserInterface\PythonGuild.cpp
; File C:\Program Files\Microsoft Visual Studio\2022\Community\VC\Tools\MSVC\14.44.35207\include\xtree
; File C:\Program Files\Microsoft Visual Studio\2022\Community\VC\Tools\MSVC\14.44.35207\include\type_traits
; File C:\Program Files\Microsoft Visual Studio\2022\Community\VC\Tools\MSVC\14.44.35207\include\xtree
; File C:\Anka2Project\Anka2Project\Source\Binary\source\UserInterface\PythonGuild.cpp
; File C:\Anka2Project\Anka2Project\Source\Binary\source\eterBase\Singleton.h
; File C:\Anka2Project\Anka2Project\Source\Binary\source\UserInterface\PythonGuild.cpp
;	COMDAT ?guildGetSkillLevel@@YAPAU_object@@PAU1@0@Z
_TEXT	SEGMENT
__Loc$15 = -20						; size = 12
$T1 = -8						; size = 4
_iSlotIndex$ = -4					; size = 4
_poSelf$ = 8						; size = 4
_poArgs$ = 12						; size = 4
?guildGetSkillLevel@@YAPAU_object@@PAU1@0@Z PROC	; guildGetSkillLevel, COMDAT

; 527  : {

  00000	55		 push	 ebp
  00001	8b ec		 mov	 ebp, esp
  00003	83 ec 14	 sub	 esp, 20			; 00000014H

; 528  : 	int iSlotIndex;
; 529  : 	if (!PyTuple_GetInteger(poArgs, 0, &iSlotIndex))

  00006	8d 45 fc	 lea	 eax, DWORD PTR _iSlotIndex$[ebp]
  00009	50		 push	 eax
  0000a	6a 00		 push	 0
  0000c	ff 75 0c	 push	 DWORD PTR _poArgs$[ebp]
  0000f	e8 00 00 00 00	 call	 ?PyTuple_GetInteger@@YA_NPAU_object@@HPAH@Z ; PyTuple_GetInteger
  00014	83 c4 0c	 add	 esp, 12			; 0000000cH
  00017	84 c0		 test	 al, al
  00019	75 0e		 jne	 SHORT $LN2@guildGetSk

; 530  : 		return Py_BuildException();

  0001b	6a 00		 push	 0
  0001d	e8 00 00 00 00	 call	 ?Py_BuildException@@YAPAU_object@@PBDZZ ; Py_BuildException
  00022	83 c4 04	 add	 esp, 4

; 542  : }

  00025	8b e5		 mov	 esp, ebp
  00027	5d		 pop	 ebp
  00028	c3		 ret	 0
$LN2@guildGetSk:
  00029	56		 push	 esi

; 532  : 	std::map<DWORD, DWORD>::iterator itor = g_GuildSkillSlotToIndexMap.find(iSlotIndex);

  0002a	8b 75 fc	 mov	 esi, DWORD PTR _iSlotIndex$[ebp]
; File C:\Program Files\Microsoft Visual Studio\2022\Community\VC\Tools\MSVC\14.44.35207\include\xtree

; 1384 :         const _Tree_find_result<_Nodeptr> _Loc = _Find_lower_bound(_Keyval);

  0002d	8d 45 f8	 lea	 eax, DWORD PTR $T1[ebp]
  00030	50		 push	 eax
  00031	8d 45 ec	 lea	 eax, DWORD PTR __Loc$15[ebp]
; File C:\Anka2Project\Anka2Project\Source\Binary\source\UserInterface\PythonGuild.cpp

; 532  : 	std::map<DWORD, DWORD>::iterator itor = g_GuildSkillSlotToIndexMap.find(iSlotIndex);

  00034	89 75 f8	 mov	 DWORD PTR $T1[ebp], esi
; File C:\Program Files\Microsoft Visual Studio\2022\Community\VC\Tools\MSVC\14.44.35207\include\xtree

; 1384 :         const _Tree_find_result<_Nodeptr> _Loc = _Find_lower_bound(_Keyval);

  00037	50		 push	 eax
  00038	b9 00 00 00 00	 mov	 ecx, OFFSET ?g_GuildSkillSlotToIndexMap@@3V?$map@KKU?$less@K@std@@V?$allocator@U?$pair@$$CBKK@std@@@2@@std@@A ; g_GuildSkillSlotToIndexMap
  0003d	e8 00 00 00 00	 call	 ??$_Find_lower_bound@K@?$_Tree@V?$_Tmap_traits@KKU?$less@K@std@@V?$allocator@U?$pair@$$CBKK@std@@@2@$0A@@std@@@std@@IBE?AU?$_Tree_find_result@PAU?$_Tree_node@U?$pair@$$CBKK@std@@PAX@std@@@1@ABK@Z ; std::_Tree<std::_Tmap_traits<unsigned long,unsigned long,std::less<unsigned long>,std::allocator<std::pair<unsigned long const ,unsigned long> >,0> >::_Find_lower_bound<unsigned long>

; 1624 :         return !_Bound->_Isnil && !_DEBUG_LT_PRED(_Getcomp(), _Keyval, _Traits::_Kfn(_Bound->_Myval));

  00042	8b 45 f4	 mov	 eax, DWORD PTR __Loc$15[ebp+8]
  00045	8b 0d 00 00 00
	00		 mov	 ecx, DWORD PTR ?g_GuildSkillSlotToIndexMap@@3V?$map@KKU?$less@K@std@@V?$allocator@U?$pair@$$CBKK@std@@@2@@std@@A
  0004b	80 78 0d 00	 cmp	 BYTE PTR [eax+13], 0
  0004f	75 05		 jne	 SHORT $LN9@guildGetSk
; File C:\Program Files\Microsoft Visual Studio\2022\Community\VC\Tools\MSVC\14.44.35207\include\type_traits

; 2380 :         return _Left < _Right;

  00051	3b 70 10	 cmp	 esi, DWORD PTR [eax+16]
; File C:\Program Files\Microsoft Visual Studio\2022\Community\VC\Tools\MSVC\14.44.35207\include\xtree

; 1624 :         return !_Bound->_Isnil && !_DEBUG_LT_PRED(_Getcomp(), _Keyval, _Traits::_Kfn(_Bound->_Myval));

  00054	73 02		 jae	 SHORT $LN8@guildGetSk
$LN9@guildGetSk:

; 1389 :         return _Get_scary()->_Myhead;

  00056	8b c1		 mov	 eax, ecx
$LN8@guildGetSk:

; 37   :     _Tree_unchecked_const_iterator(_Nodeptr _Pnode, const _Mytree* _Plist) noexcept : _Ptr(_Pnode) {

  00058	3b c8		 cmp	 ecx, eax
; File C:\Anka2Project\Anka2Project\Source\Binary\source\UserInterface\PythonGuild.cpp

; 534  : 	if (g_GuildSkillSlotToIndexMap.end() == itor)

  0005a	75 15		 jne	 SHORT $LN3@guildGetSk

; 535  : 		return Py_BuildValue("i", 0);

  0005c	6a 00		 push	 0

; 541  : 	return Py_BuildValue("i", c_rSkillData.bySkillLevel[dwSkillIndex]);

  0005e	68 00 00 00 00	 push	 OFFSET ??_C@_01KBJDNOO@i@
  00063	ff 15 00 00 00
	00		 call	 DWORD PTR __imp__Py_BuildValue
  00069	83 c4 08	 add	 esp, 8
  0006c	5e		 pop	 esi

; 542  : }

  0006d	8b e5		 mov	 esp, ebp
  0006f	5d		 pop	 ebp
  00070	c3		 ret	 0
$LN3@guildGetSk:

; 536  : 
; 537  : 	DWORD dwSkillIndex = itor->second;

  00071	8b 70 14	 mov	 esi, DWORD PTR [eax+20]

; 538  : 	assert(dwSkillIndex < CPythonGuild::GUILD_SKILL_MAX_NUM);

  00074	83 fe 0c	 cmp	 esi, 12			; 0000000cH
  00077	72 17		 jb	 SHORT $LN5@guildGetSk
  00079	68 1a 02 00 00	 push	 538			; 0000021aH
  0007e	68 00 00 00 00	 push	 OFFSET ??_C@_1KA@KBJAMBFD@?$AAC?$AA?3?$AA?2?$AAA?$AAn?$AAk?$AAa?$AA2?$AAP?$AAr?$AAo?$AAj?$AAe?$AAc?$AAt@
  00083	68 00 00 00 00	 push	 OFFSET ??_C@_1GC@LHCMPPAI@?$AAd?$AAw?$AAS?$AAk?$AAi?$AAl?$AAl?$AAI?$AAn?$AAd?$AAe?$AAx?$AA?5?$AA?$DM?$AA?5@
  00088	e8 00 00 00 00	 call	 __wassert
  0008d	83 c4 0c	 add	 esp, 12			; 0000000cH
$LN5@guildGetSk:
; File C:\Anka2Project\Anka2Project\Source\Binary\source\eterBase\Singleton.h

; 26   : 		assert(ms_singleton);

  00090	8b 0d 00 00 00
	00		 mov	 ecx, DWORD PTR ?ms_singleton@?$CSingleton@VCPythonGuild@@@@0PAVCPythonGuild@@A ; CSingleton<CPythonGuild>::ms_singleton
  00096	85 c9		 test	 ecx, ecx
  00098	75 1a		 jne	 SHORT $LN53@guildGetSk
  0009a	6a 1a		 push	 26			; 0000001aH
  0009c	68 00 00 00 00	 push	 OFFSET ??_C@_1IO@CAJLEEOI@?$AAC?$AA?3?$AA?2?$AAA?$AAn?$AAk?$AAa?$AA2?$AAP?$AAr?$AAo?$AAj?$AAe?$AAc?$AAt@
  000a1	68 00 00 00 00	 push	 OFFSET ??_C@_1BK@FMEHPMFE@?$AAm?$AAs?$AA_?$AAs?$AAi?$AAn?$AAg?$AAl?$AAe?$AAt?$AAo?$AAn@
  000a6	e8 00 00 00 00	 call	 __wassert
  000ab	8b 0d 00 00 00
	00		 mov	 ecx, DWORD PTR ?ms_singleton@?$CSingleton@VCPythonGuild@@@@0PAVCPythonGuild@@A ; CSingleton<CPythonGuild>::ms_singleton
  000b1	83 c4 0c	 add	 esp, 12			; 0000000cH
$LN53@guildGetSk:
; File C:\Anka2Project\Anka2Project\Source\Binary\source\UserInterface\PythonGuild.cpp

; 540  : 	const CPythonGuild::TGuildSkillData & c_rSkillData = CPythonGuild::Instance().GetGuildSkillDataRef();

  000b4	e8 00 00 00 00	 call	 ?GetGuildSkillDataRef@CPythonGuild@@QAEAAUSGuildSkillData@1@XZ ; CPythonGuild::GetGuildSkillDataRef

; 541  : 	return Py_BuildValue("i", c_rSkillData.bySkillLevel[dwSkillIndex]);

  000b9	0f b6 44 30 01	 movzx	 eax, BYTE PTR [eax+esi+1]
  000be	50		 push	 eax
  000bf	68 00 00 00 00	 push	 OFFSET ??_C@_01KBJDNOO@i@
  000c4	ff 15 00 00 00
	00		 call	 DWORD PTR __imp__Py_BuildValue
  000ca	83 c4 08	 add	 esp, 8
  000cd	5e		 pop	 esi

; 542  : }

  000ce	8b e5		 mov	 esp, ebp
  000d0	5d		 pop	 ebp
  000d1	c3		 ret	 0
?guildGetSkillLevel@@YAPAU_object@@PAU1@0@Z ENDP	; guildGetSkillLevel
_TEXT	ENDS
; Function compile flags: /Ogtp
; File C:\Anka2Project\Anka2Project\Source\Binary\source\UserInterface\PythonGuild.cpp
; File C:\Program Files\Microsoft Visual Studio\2022\Community\VC\Tools\MSVC\14.44.35207\include\xtree
; File C:\Anka2Project\Anka2Project\Source\Binary\source\UserInterface\PythonGuild.cpp
; File C:\Program Files\Microsoft Visual Studio\2022\Community\VC\Tools\MSVC\14.44.35207\include\xtree
; File C:\Program Files\Microsoft Visual Studio\2022\Community\VC\Tools\MSVC\14.44.35207\include\type_traits
; File C:\Program Files\Microsoft Visual Studio\2022\Community\VC\Tools\MSVC\14.44.35207\include\xtree
; File C:\Anka2Project\Anka2Project\Source\Binary\source\UserInterface\PythonGuild.cpp
; File C:\Anka2Project\Anka2Project\Source\Binary\source\eterBase\Singleton.h
; File C:\Anka2Project\Anka2Project\Source\Binary\source\UserInterface\PythonGuild.cpp
;	COMDAT ?guildGetSkillMaxLevelNew@@YAPAU_object@@PAU1@0@Z
_TEXT	SEGMENT
__Loc$15 = -20						; size = 12
$T1 = -8						; size = 4
_iSlotIndex$ = -4					; size = 4
_poSelf$ = 8						; size = 4
_poArgs$ = 12						; size = 4
?guildGetSkillMaxLevelNew@@YAPAU_object@@PAU1@0@Z PROC	; guildGetSkillMaxLevelNew, COMDAT

; 545  : {

  00000	55		 push	 ebp
  00001	8b ec		 mov	 ebp, esp
  00003	83 ec 14	 sub	 esp, 20			; 00000014H

; 546  : 	int iSlotIndex;
; 547  : 	if (!PyTuple_GetInteger(poArgs, 0, &iSlotIndex))

  00006	8d 45 fc	 lea	 eax, DWORD PTR _iSlotIndex$[ebp]
  00009	50		 push	 eax
  0000a	6a 00		 push	 0
  0000c	ff 75 0c	 push	 DWORD PTR _poArgs$[ebp]
  0000f	e8 00 00 00 00	 call	 ?PyTuple_GetInteger@@YA_NPAU_object@@HPAH@Z ; PyTuple_GetInteger
  00014	83 c4 0c	 add	 esp, 12			; 0000000cH
  00017	84 c0		 test	 al, al
  00019	75 0e		 jne	 SHORT $LN2@guildGetSk

; 548  : 		return Py_BuildException();

  0001b	6a 00		 push	 0
  0001d	e8 00 00 00 00	 call	 ?Py_BuildException@@YAPAU_object@@PBDZZ ; Py_BuildException
  00022	83 c4 04	 add	 esp, 4

; 560  : }

  00025	8b e5		 mov	 esp, ebp
  00027	5d		 pop	 ebp
  00028	c3		 ret	 0
$LN2@guildGetSk:
  00029	56		 push	 esi

; 550  : 	std::map<DWORD, DWORD>::iterator itor = g_GuildSkillSlotToIndexMap.find(iSlotIndex);

  0002a	8b 75 fc	 mov	 esi, DWORD PTR _iSlotIndex$[ebp]
; File C:\Program Files\Microsoft Visual Studio\2022\Community\VC\Tools\MSVC\14.44.35207\include\xtree

; 1384 :         const _Tree_find_result<_Nodeptr> _Loc = _Find_lower_bound(_Keyval);

  0002d	8d 45 f8	 lea	 eax, DWORD PTR $T1[ebp]
  00030	50		 push	 eax
  00031	8d 45 ec	 lea	 eax, DWORD PTR __Loc$15[ebp]
; File C:\Anka2Project\Anka2Project\Source\Binary\source\UserInterface\PythonGuild.cpp

; 550  : 	std::map<DWORD, DWORD>::iterator itor = g_GuildSkillSlotToIndexMap.find(iSlotIndex);

  00034	89 75 f8	 mov	 DWORD PTR $T1[ebp], esi
; File C:\Program Files\Microsoft Visual Studio\2022\Community\VC\Tools\MSVC\14.44.35207\include\xtree

; 1384 :         const _Tree_find_result<_Nodeptr> _Loc = _Find_lower_bound(_Keyval);

  00037	50		 push	 eax
  00038	b9 00 00 00 00	 mov	 ecx, OFFSET ?g_GuildSkillSlotToIndexMap@@3V?$map@KKU?$less@K@std@@V?$allocator@U?$pair@$$CBKK@std@@@2@@std@@A ; g_GuildSkillSlotToIndexMap
  0003d	e8 00 00 00 00	 call	 ??$_Find_lower_bound@K@?$_Tree@V?$_Tmap_traits@KKU?$less@K@std@@V?$allocator@U?$pair@$$CBKK@std@@@2@$0A@@std@@@std@@IBE?AU?$_Tree_find_result@PAU?$_Tree_node@U?$pair@$$CBKK@std@@PAX@std@@@1@ABK@Z ; std::_Tree<std::_Tmap_traits<unsigned long,unsigned long,std::less<unsigned long>,std::allocator<std::pair<unsigned long const ,unsigned long> >,0> >::_Find_lower_bound<unsigned long>

; 1624 :         return !_Bound->_Isnil && !_DEBUG_LT_PRED(_Getcomp(), _Keyval, _Traits::_Kfn(_Bound->_Myval));

  00042	8b 45 f4	 mov	 eax, DWORD PTR __Loc$15[ebp+8]
  00045	8b 0d 00 00 00
	00		 mov	 ecx, DWORD PTR ?g_GuildSkillSlotToIndexMap@@3V?$map@KKU?$less@K@std@@V?$allocator@U?$pair@$$CBKK@std@@@2@@std@@A
  0004b	80 78 0d 00	 cmp	 BYTE PTR [eax+13], 0
  0004f	75 05		 jne	 SHORT $LN9@guildGetSk
; File C:\Program Files\Microsoft Visual Studio\2022\Community\VC\Tools\MSVC\14.44.35207\include\type_traits

; 2380 :         return _Left < _Right;

  00051	3b 70 10	 cmp	 esi, DWORD PTR [eax+16]
; File C:\Program Files\Microsoft Visual Studio\2022\Community\VC\Tools\MSVC\14.44.35207\include\xtree

; 1624 :         return !_Bound->_Isnil && !_DEBUG_LT_PRED(_Getcomp(), _Keyval, _Traits::_Kfn(_Bound->_Myval));

  00054	73 02		 jae	 SHORT $LN8@guildGetSk
$LN9@guildGetSk:

; 1389 :         return _Get_scary()->_Myhead;

  00056	8b c1		 mov	 eax, ecx
$LN8@guildGetSk:

; 37   :     _Tree_unchecked_const_iterator(_Nodeptr _Pnode, const _Mytree* _Plist) noexcept : _Ptr(_Pnode) {

  00058	3b c8		 cmp	 ecx, eax
; File C:\Anka2Project\Anka2Project\Source\Binary\source\UserInterface\PythonGuild.cpp

; 552  : 	if (g_GuildSkillSlotToIndexMap.end() == itor)

  0005a	75 15		 jne	 SHORT $LN3@guildGetSk

; 553  : 		return Py_BuildValue("i", 0);

  0005c	6a 00		 push	 0

; 559  : 	return Py_BuildValue("i", c_rSkillData.bySkillLevel[dwSkillIndex]);

  0005e	68 00 00 00 00	 push	 OFFSET ??_C@_01KBJDNOO@i@
  00063	ff 15 00 00 00
	00		 call	 DWORD PTR __imp__Py_BuildValue
  00069	83 c4 08	 add	 esp, 8
  0006c	5e		 pop	 esi

; 560  : }

  0006d	8b e5		 mov	 esp, ebp
  0006f	5d		 pop	 ebp
  00070	c3		 ret	 0
$LN3@guildGetSk:

; 554  : 
; 555  : 	DWORD dwSkillIndex = itor->second;

  00071	8b 70 14	 mov	 esi, DWORD PTR [eax+20]

; 556  : 	assert(dwSkillIndex < CPythonGuild::GUILD_SKILL_MAX_NUM);

  00074	83 fe 0c	 cmp	 esi, 12			; 0000000cH
  00077	72 17		 jb	 SHORT $LN5@guildGetSk
  00079	68 2c 02 00 00	 push	 556			; 0000022cH
  0007e	68 00 00 00 00	 push	 OFFSET ??_C@_1KA@KBJAMBFD@?$AAC?$AA?3?$AA?2?$AAA?$AAn?$AAk?$AAa?$AA2?$AAP?$AAr?$AAo?$AAj?$AAe?$AAc?$AAt@
  00083	68 00 00 00 00	 push	 OFFSET ??_C@_1GC@LHCMPPAI@?$AAd?$AAw?$AAS?$AAk?$AAi?$AAl?$AAl?$AAI?$AAn?$AAd?$AAe?$AAx?$AA?5?$AA?$DM?$AA?5@
  00088	e8 00 00 00 00	 call	 __wassert
  0008d	83 c4 0c	 add	 esp, 12			; 0000000cH
$LN5@guildGetSk:
; File C:\Anka2Project\Anka2Project\Source\Binary\source\eterBase\Singleton.h

; 26   : 		assert(ms_singleton);

  00090	8b 0d 00 00 00
	00		 mov	 ecx, DWORD PTR ?ms_singleton@?$CSingleton@VCPythonGuild@@@@0PAVCPythonGuild@@A ; CSingleton<CPythonGuild>::ms_singleton
  00096	85 c9		 test	 ecx, ecx
  00098	75 1a		 jne	 SHORT $LN53@guildGetSk
  0009a	6a 1a		 push	 26			; 0000001aH
  0009c	68 00 00 00 00	 push	 OFFSET ??_C@_1IO@CAJLEEOI@?$AAC?$AA?3?$AA?2?$AAA?$AAn?$AAk?$AAa?$AA2?$AAP?$AAr?$AAo?$AAj?$AAe?$AAc?$AAt@
  000a1	68 00 00 00 00	 push	 OFFSET ??_C@_1BK@FMEHPMFE@?$AAm?$AAs?$AA_?$AAs?$AAi?$AAn?$AAg?$AAl?$AAe?$AAt?$AAo?$AAn@
  000a6	e8 00 00 00 00	 call	 __wassert
  000ab	8b 0d 00 00 00
	00		 mov	 ecx, DWORD PTR ?ms_singleton@?$CSingleton@VCPythonGuild@@@@0PAVCPythonGuild@@A ; CSingleton<CPythonGuild>::ms_singleton
  000b1	83 c4 0c	 add	 esp, 12			; 0000000cH
$LN53@guildGetSk:
; File C:\Anka2Project\Anka2Project\Source\Binary\source\UserInterface\PythonGuild.cpp

; 558  : 	const CPythonGuild::TGuildSkillData & c_rSkillData = CPythonGuild::Instance().GetGuildSkillDataRef();

  000b4	e8 00 00 00 00	 call	 ?GetGuildSkillDataRef@CPythonGuild@@QAEAAUSGuildSkillData@1@XZ ; CPythonGuild::GetGuildSkillDataRef

; 559  : 	return Py_BuildValue("i", c_rSkillData.bySkillLevel[dwSkillIndex]);

  000b9	0f b6 44 30 01	 movzx	 eax, BYTE PTR [eax+esi+1]
  000be	50		 push	 eax
  000bf	68 00 00 00 00	 push	 OFFSET ??_C@_01KBJDNOO@i@
  000c4	ff 15 00 00 00
	00		 call	 DWORD PTR __imp__Py_BuildValue
  000ca	83 c4 08	 add	 esp, 8
  000cd	5e		 pop	 esi

; 560  : }

  000ce	8b e5		 mov	 esp, ebp
  000d0	5d		 pop	 ebp
  000d1	c3		 ret	 0
?guildGetSkillMaxLevelNew@@YAPAU_object@@PAU1@0@Z ENDP	; guildGetSkillMaxLevelNew
_TEXT	ENDS
; Function compile flags: /Ogtp
; File C:\Anka2Project\Anka2Project\Source\Binary\source\UserInterface\PythonGuild.cpp
; File C:\Program Files\Microsoft Visual Studio\2022\Community\VC\Tools\MSVC\14.44.35207\include\xtree
; File C:\Anka2Project\Anka2Project\Source\Binary\source\UserInterface\PythonGuild.cpp
; File C:\Program Files\Microsoft Visual Studio\2022\Community\VC\Tools\MSVC\14.44.35207\include\xtree
; File C:\Program Files\Microsoft Visual Studio\2022\Community\VC\Tools\MSVC\14.44.35207\include\type_traits
; File C:\Program Files\Microsoft Visual Studio\2022\Community\VC\Tools\MSVC\14.44.35207\include\xtree
; File C:\Anka2Project\Anka2Project\Source\Binary\source\UserInterface\PythonGuild.cpp
;	COMDAT ?guildGetSkillIndex@@YAPAU_object@@PAU1@0@Z
_TEXT	SEGMENT
__Loc$14 = -20						; size = 12
$T1 = -8						; size = 4
_iSlotIndex$ = -4					; size = 4
_poSelf$ = 8						; size = 4
_poArgs$ = 12						; size = 4
?guildGetSkillIndex@@YAPAU_object@@PAU1@0@Z PROC	; guildGetSkillIndex, COMDAT

; 577  : {

  00000	55		 push	 ebp
  00001	8b ec		 mov	 ebp, esp
  00003	83 ec 14	 sub	 esp, 20			; 00000014H

; 578  : 	int iSlotIndex;
; 579  : 	if (!PyTuple_GetInteger(poArgs, 0, &iSlotIndex))

  00006	8d 45 fc	 lea	 eax, DWORD PTR _iSlotIndex$[ebp]
  00009	50		 push	 eax
  0000a	6a 00		 push	 0
  0000c	ff 75 0c	 push	 DWORD PTR _poArgs$[ebp]
  0000f	e8 00 00 00 00	 call	 ?PyTuple_GetInteger@@YA_NPAU_object@@HPAH@Z ; PyTuple_GetInteger
  00014	83 c4 0c	 add	 esp, 12			; 0000000cH
  00017	84 c0		 test	 al, al
  00019	75 0e		 jne	 SHORT $LN2@guildGetSk

; 580  : 		return Py_BuildException();

  0001b	6a 00		 push	 0
  0001d	e8 00 00 00 00	 call	 ?Py_BuildException@@YAPAU_object@@PBDZZ ; Py_BuildException
  00022	83 c4 04	 add	 esp, 4

; 589  : }

  00025	8b e5		 mov	 esp, ebp
  00027	5d		 pop	 ebp
  00028	c3		 ret	 0
$LN2@guildGetSk:
  00029	56		 push	 esi

; 582  : 	std::map<DWORD, DWORD>::iterator itor = g_GuildSkillSlotToIndexMap.find(iSlotIndex);

  0002a	8b 75 fc	 mov	 esi, DWORD PTR _iSlotIndex$[ebp]
; File C:\Program Files\Microsoft Visual Studio\2022\Community\VC\Tools\MSVC\14.44.35207\include\xtree

; 1384 :         const _Tree_find_result<_Nodeptr> _Loc = _Find_lower_bound(_Keyval);

  0002d	8d 45 f8	 lea	 eax, DWORD PTR $T1[ebp]
  00030	50		 push	 eax
  00031	8d 45 ec	 lea	 eax, DWORD PTR __Loc$14[ebp]
; File C:\Anka2Project\Anka2Project\Source\Binary\source\UserInterface\PythonGuild.cpp

; 582  : 	std::map<DWORD, DWORD>::iterator itor = g_GuildSkillSlotToIndexMap.find(iSlotIndex);

  00034	89 75 f8	 mov	 DWORD PTR $T1[ebp], esi
; File C:\Program Files\Microsoft Visual Studio\2022\Community\VC\Tools\MSVC\14.44.35207\include\xtree

; 1384 :         const _Tree_find_result<_Nodeptr> _Loc = _Find_lower_bound(_Keyval);

  00037	50		 push	 eax
  00038	b9 00 00 00 00	 mov	 ecx, OFFSET ?g_GuildSkillSlotToIndexMap@@3V?$map@KKU?$less@K@std@@V?$allocator@U?$pair@$$CBKK@std@@@2@@std@@A ; g_GuildSkillSlotToIndexMap
  0003d	e8 00 00 00 00	 call	 ??$_Find_lower_bound@K@?$_Tree@V?$_Tmap_traits@KKU?$less@K@std@@V?$allocator@U?$pair@$$CBKK@std@@@2@$0A@@std@@@std@@IBE?AU?$_Tree_find_result@PAU?$_Tree_node@U?$pair@$$CBKK@std@@PAX@std@@@1@ABK@Z ; std::_Tree<std::_Tmap_traits<unsigned long,unsigned long,std::less<unsigned long>,std::allocator<std::pair<unsigned long const ,unsigned long> >,0> >::_Find_lower_bound<unsigned long>

; 1624 :         return !_Bound->_Isnil && !_DEBUG_LT_PRED(_Getcomp(), _Keyval, _Traits::_Kfn(_Bound->_Myval));

  00042	8b 45 f4	 mov	 eax, DWORD PTR __Loc$14[ebp+8]
  00045	8b 0d 00 00 00
	00		 mov	 ecx, DWORD PTR ?g_GuildSkillSlotToIndexMap@@3V?$map@KKU?$less@K@std@@V?$allocator@U?$pair@$$CBKK@std@@@2@@std@@A
  0004b	80 78 0d 00	 cmp	 BYTE PTR [eax+13], 0
  0004f	75 05		 jne	 SHORT $LN8@guildGetSk
; File C:\Program Files\Microsoft Visual Studio\2022\Community\VC\Tools\MSVC\14.44.35207\include\type_traits

; 2380 :         return _Left < _Right;

  00051	3b 70 10	 cmp	 esi, DWORD PTR [eax+16]
; File C:\Program Files\Microsoft Visual Studio\2022\Community\VC\Tools\MSVC\14.44.35207\include\xtree

; 1624 :         return !_Bound->_Isnil && !_DEBUG_LT_PRED(_Getcomp(), _Keyval, _Traits::_Kfn(_Bound->_Myval));

  00054	73 02		 jae	 SHORT $LN7@guildGetSk
$LN8@guildGetSk:

; 1389 :         return _Get_scary()->_Myhead;

  00056	8b c1		 mov	 eax, ecx
$LN7@guildGetSk:
  00058	5e		 pop	 esi

; 37   :     _Tree_unchecked_const_iterator(_Nodeptr _Pnode, const _Mytree* _Plist) noexcept : _Ptr(_Pnode) {

  00059	3b c8		 cmp	 ecx, eax
; File C:\Anka2Project\Anka2Project\Source\Binary\source\UserInterface\PythonGuild.cpp

; 584  : 	if (g_GuildSkillSlotToIndexMap.end() == itor)

  0005b	75 14		 jne	 SHORT $LN3@guildGetSk

; 585  : 		return Py_BuildValue("i", 0);

  0005d	6a 00		 push	 0

; 589  : }

  0005f	68 00 00 00 00	 push	 OFFSET ??_C@_01KBJDNOO@i@
  00064	ff 15 00 00 00
	00		 call	 DWORD PTR __imp__Py_BuildValue
  0006a	83 c4 08	 add	 esp, 8
  0006d	8b e5		 mov	 esp, ebp
  0006f	5d		 pop	 ebp
  00070	c3		 ret	 0
$LN3@guildGetSk:

; 586  : 
; 587  : 	DWORD dwSkillIndex = itor->second;
; 588  : 	return Py_BuildValue("i", dwSkillIndex);

  00071	ff 70 14	 push	 DWORD PTR [eax+20]

; 589  : }

  00074	68 00 00 00 00	 push	 OFFSET ??_C@_01KBJDNOO@i@
  00079	ff 15 00 00 00
	00		 call	 DWORD PTR __imp__Py_BuildValue
  0007f	83 c4 08	 add	 esp, 8
  00082	8b e5		 mov	 esp, ebp
  00084	5d		 pop	 ebp
  00085	c3		 ret	 0
?guildGetSkillIndex@@YAPAU_object@@PAU1@0@Z ENDP	; guildGetSkillIndex
_TEXT	ENDS
; Function compile flags: /Ogtp
; File C:\Anka2Project\Anka2Project\Source\Binary\source\UserInterface\PythonGuild.cpp
; File C:\Anka2Project\Anka2Project\Source\Binary\source\eterBase\Singleton.h
; File C:\Anka2Project\Anka2Project\Source\Binary\source\UserInterface\PythonGuild.cpp
; File C:\Program Files\Microsoft Visual Studio\2022\Community\VC\Tools\MSVC\14.44.35207\include\xstring
; File C:\Anka2Project\Anka2Project\Source\Binary\source\UserInterface\PythonGuild.cpp
;	COMDAT ?guildGetGradeData@@YAPAU_object@@PAU1@0@Z
_TEXT	SEGMENT
_pData$ = -8						; size = 4
_iGradeNumber$ = -4					; size = 4
_poSelf$ = 8						; size = 4
_poArgs$ = 12						; size = 4
?guildGetGradeData@@YAPAU_object@@PAU1@0@Z PROC		; guildGetGradeData, COMDAT

; 592  : {

  00000	55		 push	 ebp
  00001	8b ec		 mov	 ebp, esp
  00003	83 ec 08	 sub	 esp, 8

; 593  : 	int iGradeNumber;
; 594  : 	if (!PyTuple_GetInteger(poArgs, 0, &iGradeNumber))

  00006	8d 45 fc	 lea	 eax, DWORD PTR _iGradeNumber$[ebp]
  00009	50		 push	 eax
  0000a	6a 00		 push	 0
  0000c	ff 75 0c	 push	 DWORD PTR _poArgs$[ebp]
  0000f	e8 00 00 00 00	 call	 ?PyTuple_GetInteger@@YA_NPAU_object@@HPAH@Z ; PyTuple_GetInteger
  00014	83 c4 0c	 add	 esp, 12			; 0000000cH
  00017	84 c0		 test	 al, al
  00019	75 0e		 jne	 SHORT $LN2@guildGetGr

; 595  : 		return Py_BuildException();

  0001b	6a 00		 push	 0
  0001d	e8 00 00 00 00	 call	 ?Py_BuildException@@YAPAU_object@@PBDZZ ; Py_BuildException
  00022	83 c4 04	 add	 esp, 4

; 602  : }

  00025	8b e5		 mov	 esp, ebp
  00027	5d		 pop	 ebp
  00028	c3		 ret	 0
$LN2@guildGetGr:
; File C:\Anka2Project\Anka2Project\Source\Binary\source\eterBase\Singleton.h

; 26   : 		assert(ms_singleton);

  00029	8b 0d 00 00 00
	00		 mov	 ecx, DWORD PTR ?ms_singleton@?$CSingleton@VCPythonGuild@@@@0PAVCPythonGuild@@A ; CSingleton<CPythonGuild>::ms_singleton
  0002f	85 c9		 test	 ecx, ecx
  00031	75 1a		 jne	 SHORT $LN7@guildGetGr
  00033	6a 1a		 push	 26			; 0000001aH
  00035	68 00 00 00 00	 push	 OFFSET ??_C@_1IO@CAJLEEOI@?$AAC?$AA?3?$AA?2?$AAA?$AAn?$AAk?$AAa?$AA2?$AAP?$AAr?$AAo?$AAj?$AAe?$AAc?$AAt@
  0003a	68 00 00 00 00	 push	 OFFSET ??_C@_1BK@FMEHPMFE@?$AAm?$AAs?$AA_?$AAs?$AAi?$AAn?$AAg?$AAl?$AAe?$AAt?$AAo?$AAn@
  0003f	e8 00 00 00 00	 call	 __wassert
  00044	8b 0d 00 00 00
	00		 mov	 ecx, DWORD PTR ?ms_singleton@?$CSingleton@VCPythonGuild@@@@0PAVCPythonGuild@@A ; CSingleton<CPythonGuild>::ms_singleton
  0004a	83 c4 0c	 add	 esp, 12			; 0000000cH
$LN7@guildGetGr:
; File C:\Anka2Project\Anka2Project\Source\Binary\source\UserInterface\PythonGuild.cpp

; 598  : 	if (!CPythonGuild::Instance().GetGradeDataPtr(iGradeNumber, &pData))

  0004d	8d 45 f8	 lea	 eax, DWORD PTR _pData$[ebp]
  00050	50		 push	 eax
  00051	ff 75 fc	 push	 DWORD PTR _iGradeNumber$[ebp]
  00054	e8 00 00 00 00	 call	 ?GetGradeDataPtr@CPythonGuild@@QAEHKPAPAUSGuildGradeData@1@@Z ; CPythonGuild::GetGradeDataPtr
  00059	85 c0		 test	 eax, eax
  0005b	75 18		 jne	 SHORT $LN3@guildGetGr

; 599  : 		return Py_BuildValue("si", "?", 0);

  0005d	50		 push	 eax
  0005e	68 00 00 00 00	 push	 OFFSET ??_C@_01OGPIMHDM@?$DP@

; 602  : }

  00063	68 00 00 00 00	 push	 OFFSET ??_C@_02OCDGCAAK@si@
  00068	ff 15 00 00 00
	00		 call	 DWORD PTR __imp__Py_BuildValue
  0006e	83 c4 0c	 add	 esp, 12			; 0000000cH
  00071	8b e5		 mov	 esp, ebp
  00073	5d		 pop	 ebp
  00074	c3		 ret	 0
$LN3@guildGetGr:

; 601  : 	return Py_BuildValue("si", pData->strName.c_str(), pData->byAuthorityFlag);

  00075	8b 45 f8	 mov	 eax, DWORD PTR _pData$[ebp]
  00078	0f b6 08	 movzx	 ecx, BYTE PTR [eax]
; File C:\Program Files\Microsoft Visual Studio\2022\Community\VC\Tools\MSVC\14.44.35207\include\xstring

; 2356 :         return _Mypair._Myval2._Myptr();

  0007b	83 c0 04	 add	 eax, 4

; 453  :         return _Myres > _Small_string_capacity;

  0007e	83 78 14 0f	 cmp	 DWORD PTR [eax+20], 15	; 0000000fH

; 445  :         if (_Large_mode_engaged()) {

  00082	76 02		 jbe	 SHORT $LN12@guildGetGr

; 446  :             _Result = _Unfancy(_Bx._Ptr);

  00084	8b 00		 mov	 eax, DWORD PTR [eax]
$LN12@guildGetGr:
; File C:\Anka2Project\Anka2Project\Source\Binary\source\UserInterface\PythonGuild.cpp

; 601  : 	return Py_BuildValue("si", pData->strName.c_str(), pData->byAuthorityFlag);

  00086	51		 push	 ecx
  00087	50		 push	 eax

; 602  : }

  00088	68 00 00 00 00	 push	 OFFSET ??_C@_02OCDGCAAK@si@
  0008d	ff 15 00 00 00
	00		 call	 DWORD PTR __imp__Py_BuildValue
  00093	83 c4 0c	 add	 esp, 12			; 0000000cH
  00096	8b e5		 mov	 esp, ebp
  00098	5d		 pop	 ebp
  00099	c3		 ret	 0
?guildGetGradeData@@YAPAU_object@@PAU1@0@Z ENDP		; guildGetGradeData
_TEXT	ENDS
; Function compile flags: /Ogtp
; File C:\Anka2Project\Anka2Project\Source\Binary\source\UserInterface\PythonGuild.cpp
; File C:\Anka2Project\Anka2Project\Source\Binary\source\eterBase\Singleton.h
; File C:\Anka2Project\Anka2Project\Source\Binary\source\UserInterface\PythonGuild.cpp
; File C:\Program Files\Microsoft Visual Studio\2022\Community\VC\Tools\MSVC\14.44.35207\include\xstring
; File C:\Anka2Project\Anka2Project\Source\Binary\source\UserInterface\PythonGuild.cpp
;	COMDAT ?guildGetGradeName@@YAPAU_object@@PAU1@0@Z
_TEXT	SEGMENT
_pData$ = -8						; size = 4
_iGradeNumber$ = -4					; size = 4
_poSelf$ = 8						; size = 4
_poArgs$ = 12						; size = 4
?guildGetGradeName@@YAPAU_object@@PAU1@0@Z PROC		; guildGetGradeName, COMDAT

; 605  : {

  00000	55		 push	 ebp
  00001	8b ec		 mov	 ebp, esp
  00003	83 ec 08	 sub	 esp, 8

; 606  : 	int iGradeNumber;
; 607  : 	if (!PyTuple_GetInteger(poArgs, 0, &iGradeNumber))

  00006	8d 45 fc	 lea	 eax, DWORD PTR _iGradeNumber$[ebp]
  00009	50		 push	 eax
  0000a	6a 00		 push	 0
  0000c	ff 75 0c	 push	 DWORD PTR _poArgs$[ebp]
  0000f	e8 00 00 00 00	 call	 ?PyTuple_GetInteger@@YA_NPAU_object@@HPAH@Z ; PyTuple_GetInteger
  00014	83 c4 0c	 add	 esp, 12			; 0000000cH
  00017	84 c0		 test	 al, al
  00019	75 0e		 jne	 SHORT $LN2@guildGetGr

; 608  : 		return Py_BuildException();

  0001b	6a 00		 push	 0
  0001d	e8 00 00 00 00	 call	 ?Py_BuildException@@YAPAU_object@@PBDZZ ; Py_BuildException
  00022	83 c4 04	 add	 esp, 4

; 615  : }

  00025	8b e5		 mov	 esp, ebp
  00027	5d		 pop	 ebp
  00028	c3		 ret	 0
$LN2@guildGetGr:
; File C:\Anka2Project\Anka2Project\Source\Binary\source\eterBase\Singleton.h

; 26   : 		assert(ms_singleton);

  00029	8b 0d 00 00 00
	00		 mov	 ecx, DWORD PTR ?ms_singleton@?$CSingleton@VCPythonGuild@@@@0PAVCPythonGuild@@A ; CSingleton<CPythonGuild>::ms_singleton
  0002f	85 c9		 test	 ecx, ecx
  00031	75 1a		 jne	 SHORT $LN7@guildGetGr
  00033	6a 1a		 push	 26			; 0000001aH
  00035	68 00 00 00 00	 push	 OFFSET ??_C@_1IO@CAJLEEOI@?$AAC?$AA?3?$AA?2?$AAA?$AAn?$AAk?$AAa?$AA2?$AAP?$AAr?$AAo?$AAj?$AAe?$AAc?$AAt@
  0003a	68 00 00 00 00	 push	 OFFSET ??_C@_1BK@FMEHPMFE@?$AAm?$AAs?$AA_?$AAs?$AAi?$AAn?$AAg?$AAl?$AAe?$AAt?$AAo?$AAn@
  0003f	e8 00 00 00 00	 call	 __wassert
  00044	8b 0d 00 00 00
	00		 mov	 ecx, DWORD PTR ?ms_singleton@?$CSingleton@VCPythonGuild@@@@0PAVCPythonGuild@@A ; CSingleton<CPythonGuild>::ms_singleton
  0004a	83 c4 0c	 add	 esp, 12			; 0000000cH
$LN7@guildGetGr:
; File C:\Anka2Project\Anka2Project\Source\Binary\source\UserInterface\PythonGuild.cpp

; 611  : 	if (!CPythonGuild::Instance().GetGradeDataPtr(iGradeNumber, &pData))

  0004d	8d 45 f8	 lea	 eax, DWORD PTR _pData$[ebp]
  00050	50		 push	 eax
  00051	ff 75 fc	 push	 DWORD PTR _iGradeNumber$[ebp]
  00054	e8 00 00 00 00	 call	 ?GetGradeDataPtr@CPythonGuild@@QAEHKPAPAUSGuildGradeData@1@@Z ; CPythonGuild::GetGradeDataPtr
  00059	85 c0		 test	 eax, eax
  0005b	75 17		 jne	 SHORT $LN3@guildGetGr

; 612  : 		return Py_BuildValue("s", "?");

  0005d	68 00 00 00 00	 push	 OFFSET ??_C@_01OGPIMHDM@?$DP@

; 615  : }

  00062	68 00 00 00 00	 push	 OFFSET ??_C@_01LKDEMHDF@s@
  00067	ff 15 00 00 00
	00		 call	 DWORD PTR __imp__Py_BuildValue
  0006d	83 c4 08	 add	 esp, 8
  00070	8b e5		 mov	 esp, ebp
  00072	5d		 pop	 ebp
  00073	c3		 ret	 0
$LN3@guildGetGr:
; File C:\Program Files\Microsoft Visual Studio\2022\Community\VC\Tools\MSVC\14.44.35207\include\xstring

; 2356 :         return _Mypair._Myval2._Myptr();

  00074	8b 45 f8	 mov	 eax, DWORD PTR _pData$[ebp]
  00077	83 c0 04	 add	 eax, 4

; 453  :         return _Myres > _Small_string_capacity;

  0007a	83 78 14 0f	 cmp	 DWORD PTR [eax+20], 15	; 0000000fH

; 445  :         if (_Large_mode_engaged()) {

  0007e	76 02		 jbe	 SHORT $LN12@guildGetGr

; 446  :             _Result = _Unfancy(_Bx._Ptr);

  00080	8b 00		 mov	 eax, DWORD PTR [eax]
$LN12@guildGetGr:
; File C:\Anka2Project\Anka2Project\Source\Binary\source\UserInterface\PythonGuild.cpp

; 614  : 	return Py_BuildValue("s", pData->strName.c_str());

  00082	50		 push	 eax

; 615  : }

  00083	68 00 00 00 00	 push	 OFFSET ??_C@_01LKDEMHDF@s@
  00088	ff 15 00 00 00
	00		 call	 DWORD PTR __imp__Py_BuildValue
  0008e	83 c4 08	 add	 esp, 8
  00091	8b e5		 mov	 esp, ebp
  00093	5d		 pop	 ebp
  00094	c3		 ret	 0
?guildGetGradeName@@YAPAU_object@@PAU1@0@Z ENDP		; guildGetGradeName
_TEXT	ENDS
; Function compile flags: /Ogtp
; File C:\Anka2Project\Anka2Project\Source\Binary\source\UserInterface\PythonGuild.cpp
; File C:\Anka2Project\Anka2Project\Source\Binary\source\eterBase\Singleton.h
; File C:\Anka2Project\Anka2Project\Source\Binary\source\UserInterface\PythonGuild.cpp
;	COMDAT ?guildGetMemberCount@@YAPAU_object@@PAU1@0@Z
_TEXT	SEGMENT
_poSelf$ = 8						; size = 4
_poArgs$ = 12						; size = 4
?guildGetMemberCount@@YAPAU_object@@PAU1@0@Z PROC	; guildGetMemberCount, COMDAT
; File C:\Anka2Project\Anka2Project\Source\Binary\source\eterBase\Singleton.h

; 26   : 		assert(ms_singleton);

  00000	8b 0d 00 00 00
	00		 mov	 ecx, DWORD PTR ?ms_singleton@?$CSingleton@VCPythonGuild@@@@0PAVCPythonGuild@@A ; CSingleton<CPythonGuild>::ms_singleton
  00006	85 c9		 test	 ecx, ecx
  00008	75 1a		 jne	 SHORT $LN5@guildGetMe
  0000a	6a 1a		 push	 26			; 0000001aH
  0000c	68 00 00 00 00	 push	 OFFSET ??_C@_1IO@CAJLEEOI@?$AAC?$AA?3?$AA?2?$AAA?$AAn?$AAk?$AAa?$AA2?$AAP?$AAr?$AAo?$AAj?$AAe?$AAc?$AAt@
  00011	68 00 00 00 00	 push	 OFFSET ??_C@_1BK@FMEHPMFE@?$AAm?$AAs?$AA_?$AAs?$AAi?$AAn?$AAg?$AAl?$AAe?$AAt?$AAo?$AAn@
  00016	e8 00 00 00 00	 call	 __wassert
  0001b	8b 0d 00 00 00
	00		 mov	 ecx, DWORD PTR ?ms_singleton@?$CSingleton@VCPythonGuild@@@@0PAVCPythonGuild@@A ; CSingleton<CPythonGuild>::ms_singleton
  00021	83 c4 0c	 add	 esp, 12			; 0000000cH
$LN5@guildGetMe:
; File C:\Anka2Project\Anka2Project\Source\Binary\source\UserInterface\PythonGuild.cpp

; 619  : 	return Py_BuildValue("i", CPythonGuild::Instance().GetMemberCount());

  00024	e8 00 00 00 00	 call	 ?GetMemberCount@CPythonGuild@@QAEKXZ ; CPythonGuild::GetMemberCount
  00029	50		 push	 eax
  0002a	68 00 00 00 00	 push	 OFFSET ??_C@_01KBJDNOO@i@
  0002f	ff 15 00 00 00
	00		 call	 DWORD PTR __imp__Py_BuildValue
  00035	83 c4 08	 add	 esp, 8

; 620  : }

  00038	c3		 ret	 0
?guildGetMemberCount@@YAPAU_object@@PAU1@0@Z ENDP	; guildGetMemberCount
_TEXT	ENDS
; Function compile flags: /Ogtp
; File C:\Anka2Project\Anka2Project\Source\Binary\source\UserInterface\PythonGuild.cpp
; File C:\Anka2Project\Anka2Project\Source\Binary\source\eterBase\Singleton.h
; File C:\Anka2Project\Anka2Project\Source\Binary\source\UserInterface\PythonGuild.cpp
; File C:\Program Files\Microsoft Visual Studio\2022\Community\VC\Tools\MSVC\14.44.35207\include\xstring
; File C:\Anka2Project\Anka2Project\Source\Binary\source\UserInterface\PythonGuild.cpp
; File C:\Program Files\Microsoft Visual Studio\2022\Community\VC\Tools\MSVC\14.44.35207\include\xstring
; File C:\Anka2Project\Anka2Project\Source\Binary\source\UserInterface\PythonGuild.cpp
;	COMDAT ?guildGetMemberData@@YAPAU_object@@PAU1@0@Z
_TEXT	SEGMENT
_pData$ = -8						; size = 4
_iIndex$ = -4						; size = 4
_poSelf$ = 8						; size = 4
_poArgs$ = 12						; size = 4
?guildGetMemberData@@YAPAU_object@@PAU1@0@Z PROC	; guildGetMemberData, COMDAT

; 623  : {

  00000	55		 push	 ebp
  00001	8b ec		 mov	 ebp, esp
  00003	83 ec 08	 sub	 esp, 8

; 624  : 	int iIndex;
; 625  : 	if (!PyTuple_GetInteger(poArgs, 0, &iIndex))

  00006	8d 45 fc	 lea	 eax, DWORD PTR _iIndex$[ebp]
  00009	50		 push	 eax
  0000a	6a 00		 push	 0
  0000c	ff 75 0c	 push	 DWORD PTR _poArgs$[ebp]
  0000f	e8 00 00 00 00	 call	 ?PyTuple_GetInteger@@YA_NPAU_object@@HPAH@Z ; PyTuple_GetInteger
  00014	83 c4 0c	 add	 esp, 12			; 0000000cH
  00017	84 c0		 test	 al, al
  00019	75 0e		 jne	 SHORT $LN2@guildGetMe

; 626  : 		return Py_BuildException();

  0001b	6a 00		 push	 0
  0001d	e8 00 00 00 00	 call	 ?Py_BuildException@@YAPAU_object@@PBDZZ ; Py_BuildException
  00022	83 c4 04	 add	 esp, 4

; 633  : }

  00025	8b e5		 mov	 esp, ebp
  00027	5d		 pop	 ebp
  00028	c3		 ret	 0
$LN2@guildGetMe:
; File C:\Anka2Project\Anka2Project\Source\Binary\source\eterBase\Singleton.h

; 26   : 		assert(ms_singleton);

  00029	8b 0d 00 00 00
	00		 mov	 ecx, DWORD PTR ?ms_singleton@?$CSingleton@VCPythonGuild@@@@0PAVCPythonGuild@@A ; CSingleton<CPythonGuild>::ms_singleton
  0002f	85 c9		 test	 ecx, ecx
  00031	75 1a		 jne	 SHORT $LN7@guildGetMe
  00033	6a 1a		 push	 26			; 0000001aH
  00035	68 00 00 00 00	 push	 OFFSET ??_C@_1IO@CAJLEEOI@?$AAC?$AA?3?$AA?2?$AAA?$AAn?$AAk?$AAa?$AA2?$AAP?$AAr?$AAo?$AAj?$AAe?$AAc?$AAt@
  0003a	68 00 00 00 00	 push	 OFFSET ??_C@_1BK@FMEHPMFE@?$AAm?$AAs?$AA_?$AAs?$AAi?$AAn?$AAg?$AAl?$AAe?$AAt?$AAo?$AAn@
  0003f	e8 00 00 00 00	 call	 __wassert
  00044	8b 0d 00 00 00
	00		 mov	 ecx, DWORD PTR ?ms_singleton@?$CSingleton@VCPythonGuild@@@@0PAVCPythonGuild@@A ; CSingleton<CPythonGuild>::ms_singleton
  0004a	83 c4 0c	 add	 esp, 12			; 0000000cH
$LN7@guildGetMe:
; File C:\Anka2Project\Anka2Project\Source\Binary\source\UserInterface\PythonGuild.cpp

; 629  : 	if (!CPythonGuild::Instance().GetMemberDataPtr(iIndex, &pData))

  0004d	8d 45 f8	 lea	 eax, DWORD PTR _pData$[ebp]
  00050	50		 push	 eax
  00051	ff 75 fc	 push	 DWORD PTR _iIndex$[ebp]
  00054	e8 00 00 00 00	 call	 ?GetMemberDataPtr@CPythonGuild@@QAEHKPAPAUSGuildMemberData@1@@Z ; CPythonGuild::GetMemberDataPtr
  00059	85 c0		 test	 eax, eax
  0005b	75 1e		 jne	 SHORT $LN3@guildGetMe

; 630  : 		return Py_BuildValue("isiiiii", -1, "", 0, 0, 0, 0, 0);

  0005d	50		 push	 eax
  0005e	50		 push	 eax
  0005f	50		 push	 eax
  00060	50		 push	 eax
  00061	50		 push	 eax
  00062	68 00 00 00 00	 push	 OFFSET ??_C@_00CNPNBAHC@@
  00067	6a ff		 push	 -1
  00069	68 00 00 00 00	 push	 OFFSET ??_C@_07IGDHICNG@isiiiii@
  0006e	ff 15 00 00 00
	00		 call	 DWORD PTR __imp__Py_BuildValue
  00074	83 c4 20	 add	 esp, 32			; 00000020H

; 633  : }

  00077	8b e5		 mov	 esp, ebp
  00079	5d		 pop	 ebp
  0007a	c3		 ret	 0
$LN3@guildGetMe:

; 632  : 	return Py_BuildValue("isiiiii", pData->dwPID, pData->strName.c_str(), pData->byGrade, pData->byJob, pData->byLevel, pData->dwOffer, pData->byGeneralFlag);

  0007b	8b 45 f8	 mov	 eax, DWORD PTR _pData$[ebp]
; File C:\Program Files\Microsoft Visual Studio\2022\Community\VC\Tools\MSVC\14.44.35207\include\xstring

; 453  :         return _Myres > _Small_string_capacity;

  0007e	83 78 18 0f	 cmp	 DWORD PTR [eax+24], 15	; 0000000fH

; 2356 :         return _Mypair._Myval2._Myptr();

  00082	8d 48 04	 lea	 ecx, DWORD PTR [eax+4]
  00085	56		 push	 esi
  00086	57		 push	 edi
; File C:\Anka2Project\Anka2Project\Source\Binary\source\UserInterface\PythonGuild.cpp

; 632  : 	return Py_BuildValue("isiiiii", pData->dwPID, pData->strName.c_str(), pData->byGrade, pData->byJob, pData->byLevel, pData->dwOffer, pData->byGeneralFlag);

  00087	0f b6 50 24	 movzx	 edx, BYTE PTR [eax+36]
  0008b	0f b6 70 1d	 movzx	 esi, BYTE PTR [eax+29]
  0008f	0f b6 78 1c	 movzx	 edi, BYTE PTR [eax+28]
; File C:\Program Files\Microsoft Visual Studio\2022\Community\VC\Tools\MSVC\14.44.35207\include\xstring

; 445  :         if (_Large_mode_engaged()) {

  00093	76 02		 jbe	 SHORT $LN12@guildGetMe

; 446  :             _Result = _Unfancy(_Bx._Ptr);

  00095	8b 09		 mov	 ecx, DWORD PTR [ecx]
$LN12@guildGetMe:
; File C:\Anka2Project\Anka2Project\Source\Binary\source\UserInterface\PythonGuild.cpp

; 632  : 	return Py_BuildValue("isiiiii", pData->dwPID, pData->strName.c_str(), pData->byGrade, pData->byJob, pData->byLevel, pData->dwOffer, pData->byGeneralFlag);

  00097	52		 push	 edx
  00098	ff 70 28	 push	 DWORD PTR [eax+40]
  0009b	ff 70 20	 push	 DWORD PTR [eax+32]
  0009e	56		 push	 esi
  0009f	57		 push	 edi
  000a0	51		 push	 ecx
  000a1	ff 30		 push	 DWORD PTR [eax]
  000a3	68 00 00 00 00	 push	 OFFSET ??_C@_07IGDHICNG@isiiiii@
  000a8	ff 15 00 00 00
	00		 call	 DWORD PTR __imp__Py_BuildValue
  000ae	83 c4 20	 add	 esp, 32			; 00000020H
  000b1	5f		 pop	 edi
  000b2	5e		 pop	 esi

; 633  : }

  000b3	8b e5		 mov	 esp, ebp
  000b5	5d		 pop	 ebp
  000b6	c3		 ret	 0
?guildGetMemberData@@YAPAU_object@@PAU1@0@Z ENDP	; guildGetMemberData
_TEXT	ENDS
; Function compile flags: /Ogtp
; File C:\Anka2Project\Anka2Project\Source\Binary\source\UserInterface\PythonGuild.cpp
; File C:\Anka2Project\Anka2Project\Source\Binary\source\eterBase\Singleton.h
; File C:\Anka2Project\Anka2Project\Source\Binary\source\UserInterface\PythonGuild.cpp
;	COMDAT ?guildMemberIndexToPID@@YAPAU_object@@PAU1@0@Z
_TEXT	SEGMENT
_pData$ = -8						; size = 4
_iIndex$ = -4						; size = 4
_poSelf$ = 8						; size = 4
_poArgs$ = 12						; size = 4
?guildMemberIndexToPID@@YAPAU_object@@PAU1@0@Z PROC	; guildMemberIndexToPID, COMDAT

; 636  : {

  00000	55		 push	 ebp
  00001	8b ec		 mov	 ebp, esp
  00003	83 ec 08	 sub	 esp, 8

; 637  : 	int iIndex;
; 638  : 	if (!PyTuple_GetInteger(poArgs, 0, &iIndex))

  00006	8d 45 fc	 lea	 eax, DWORD PTR _iIndex$[ebp]
  00009	50		 push	 eax
  0000a	6a 00		 push	 0
  0000c	ff 75 0c	 push	 DWORD PTR _poArgs$[ebp]
  0000f	e8 00 00 00 00	 call	 ?PyTuple_GetInteger@@YA_NPAU_object@@HPAH@Z ; PyTuple_GetInteger
  00014	83 c4 0c	 add	 esp, 12			; 0000000cH
  00017	84 c0		 test	 al, al
  00019	75 0e		 jne	 SHORT $LN2@guildMembe

; 639  : 		return Py_BuildException();

  0001b	6a 00		 push	 0
  0001d	e8 00 00 00 00	 call	 ?Py_BuildException@@YAPAU_object@@PBDZZ ; Py_BuildException
  00022	83 c4 04	 add	 esp, 4

; 646  : }

  00025	8b e5		 mov	 esp, ebp
  00027	5d		 pop	 ebp
  00028	c3		 ret	 0
$LN2@guildMembe:
; File C:\Anka2Project\Anka2Project\Source\Binary\source\eterBase\Singleton.h

; 26   : 		assert(ms_singleton);

  00029	8b 0d 00 00 00
	00		 mov	 ecx, DWORD PTR ?ms_singleton@?$CSingleton@VCPythonGuild@@@@0PAVCPythonGuild@@A ; CSingleton<CPythonGuild>::ms_singleton
  0002f	85 c9		 test	 ecx, ecx
  00031	75 1a		 jne	 SHORT $LN7@guildMembe
  00033	6a 1a		 push	 26			; 0000001aH
  00035	68 00 00 00 00	 push	 OFFSET ??_C@_1IO@CAJLEEOI@?$AAC?$AA?3?$AA?2?$AAA?$AAn?$AAk?$AAa?$AA2?$AAP?$AAr?$AAo?$AAj?$AAe?$AAc?$AAt@
  0003a	68 00 00 00 00	 push	 OFFSET ??_C@_1BK@FMEHPMFE@?$AAm?$AAs?$AA_?$AAs?$AAi?$AAn?$AAg?$AAl?$AAe?$AAt?$AAo?$AAn@
  0003f	e8 00 00 00 00	 call	 __wassert
  00044	8b 0d 00 00 00
	00		 mov	 ecx, DWORD PTR ?ms_singleton@?$CSingleton@VCPythonGuild@@@@0PAVCPythonGuild@@A ; CSingleton<CPythonGuild>::ms_singleton
  0004a	83 c4 0c	 add	 esp, 12			; 0000000cH
$LN7@guildMembe:
; File C:\Anka2Project\Anka2Project\Source\Binary\source\UserInterface\PythonGuild.cpp

; 642  : 	if (!CPythonGuild::Instance().GetMemberDataPtr(iIndex, &pData))

  0004d	8d 45 f8	 lea	 eax, DWORD PTR _pData$[ebp]
  00050	50		 push	 eax
  00051	ff 75 fc	 push	 DWORD PTR _iIndex$[ebp]
  00054	e8 00 00 00 00	 call	 ?GetMemberDataPtr@CPythonGuild@@QAEHKPAPAUSGuildMemberData@1@@Z ; CPythonGuild::GetMemberDataPtr
  00059	85 c0		 test	 eax, eax
  0005b	75 14		 jne	 SHORT $LN3@guildMembe

; 643  : 		return Py_BuildValue("i", -1);

  0005d	6a ff		 push	 -1

; 646  : }

  0005f	68 00 00 00 00	 push	 OFFSET ??_C@_01KBJDNOO@i@
  00064	ff 15 00 00 00
	00		 call	 DWORD PTR __imp__Py_BuildValue
  0006a	83 c4 08	 add	 esp, 8
  0006d	8b e5		 mov	 esp, ebp
  0006f	5d		 pop	 ebp
  00070	c3		 ret	 0
$LN3@guildMembe:

; 644  : 
; 645  : 	return Py_BuildValue("i", pData->dwPID);

  00071	8b 45 f8	 mov	 eax, DWORD PTR _pData$[ebp]
  00074	ff 30		 push	 DWORD PTR [eax]

; 646  : }

  00076	68 00 00 00 00	 push	 OFFSET ??_C@_01KBJDNOO@i@
  0007b	ff 15 00 00 00
	00		 call	 DWORD PTR __imp__Py_BuildValue
  00081	83 c4 08	 add	 esp, 8
  00084	8b e5		 mov	 esp, ebp
  00086	5d		 pop	 ebp
  00087	c3		 ret	 0
?guildMemberIndexToPID@@YAPAU_object@@PAU1@0@Z ENDP	; guildMemberIndexToPID
_TEXT	ENDS
; Function compile flags: /Ogtp
; File C:\Anka2Project\Anka2Project\Source\Binary\source\UserInterface\PythonGuild.cpp
; File C:\Anka2Project\Anka2Project\Source\Binary\source\eterBase\Singleton.h
; File C:\Anka2Project\Anka2Project\Source\Binary\source\UserInterface\PythonGuild.cpp
;	COMDAT ?guildIsMember@@YAPAU_object@@PAU1@0@Z
_TEXT	SEGMENT
_pData$ = -8						; size = 4
_iIndex$ = -4						; size = 4
_poSelf$ = 8						; size = 4
_poArgs$ = 12						; size = 4
?guildIsMember@@YAPAU_object@@PAU1@0@Z PROC		; guildIsMember, COMDAT

; 649  : {

  00000	55		 push	 ebp
  00001	8b ec		 mov	 ebp, esp
  00003	83 ec 08	 sub	 esp, 8

; 650  : 	int iIndex;
; 651  : 	if (!PyTuple_GetInteger(poArgs, 0, &iIndex))

  00006	8d 45 fc	 lea	 eax, DWORD PTR _iIndex$[ebp]
  00009	50		 push	 eax
  0000a	6a 00		 push	 0
  0000c	ff 75 0c	 push	 DWORD PTR _poArgs$[ebp]
  0000f	e8 00 00 00 00	 call	 ?PyTuple_GetInteger@@YA_NPAU_object@@HPAH@Z ; PyTuple_GetInteger
  00014	83 c4 0c	 add	 esp, 12			; 0000000cH
  00017	84 c0		 test	 al, al
  00019	75 0e		 jne	 SHORT $LN2@guildIsMem

; 652  : 		return Py_BuildException();

  0001b	6a 00		 push	 0
  0001d	e8 00 00 00 00	 call	 ?Py_BuildException@@YAPAU_object@@PBDZZ ; Py_BuildException
  00022	83 c4 04	 add	 esp, 4

; 659  : }

  00025	8b e5		 mov	 esp, ebp
  00027	5d		 pop	 ebp
  00028	c3		 ret	 0
$LN2@guildIsMem:
; File C:\Anka2Project\Anka2Project\Source\Binary\source\eterBase\Singleton.h

; 26   : 		assert(ms_singleton);

  00029	8b 0d 00 00 00
	00		 mov	 ecx, DWORD PTR ?ms_singleton@?$CSingleton@VCPythonGuild@@@@0PAVCPythonGuild@@A ; CSingleton<CPythonGuild>::ms_singleton
  0002f	85 c9		 test	 ecx, ecx
  00031	75 1a		 jne	 SHORT $LN7@guildIsMem
  00033	6a 1a		 push	 26			; 0000001aH
  00035	68 00 00 00 00	 push	 OFFSET ??_C@_1IO@CAJLEEOI@?$AAC?$AA?3?$AA?2?$AAA?$AAn?$AAk?$AAa?$AA2?$AAP?$AAr?$AAo?$AAj?$AAe?$AAc?$AAt@
  0003a	68 00 00 00 00	 push	 OFFSET ??_C@_1BK@FMEHPMFE@?$AAm?$AAs?$AA_?$AAs?$AAi?$AAn?$AAg?$AAl?$AAe?$AAt?$AAo?$AAn@
  0003f	e8 00 00 00 00	 call	 __wassert
  00044	8b 0d 00 00 00
	00		 mov	 ecx, DWORD PTR ?ms_singleton@?$CSingleton@VCPythonGuild@@@@0PAVCPythonGuild@@A ; CSingleton<CPythonGuild>::ms_singleton
  0004a	83 c4 0c	 add	 esp, 12			; 0000000cH
$LN7@guildIsMem:
; File C:\Anka2Project\Anka2Project\Source\Binary\source\UserInterface\PythonGuild.cpp

; 655  : 	if (CPythonGuild::Instance().GetMemberDataPtr(iIndex, &pData))

  0004d	8d 45 f8	 lea	 eax, DWORD PTR _pData$[ebp]
  00050	50		 push	 eax
  00051	ff 75 fc	 push	 DWORD PTR _iIndex$[ebp]
  00054	e8 00 00 00 00	 call	 ?GetMemberDataPtr@CPythonGuild@@QAEHKPAPAUSGuildMemberData@1@@Z ; CPythonGuild::GetMemberDataPtr
  00059	85 c0		 test	 eax, eax
  0005b	74 14		 je	 SHORT $LN3@guildIsMem

; 656  : 		return Py_BuildValue("i", TRUE);

  0005d	6a 01		 push	 1

; 659  : }

  0005f	68 00 00 00 00	 push	 OFFSET ??_C@_01KBJDNOO@i@
  00064	ff 15 00 00 00
	00		 call	 DWORD PTR __imp__Py_BuildValue
  0006a	83 c4 08	 add	 esp, 8
  0006d	8b e5		 mov	 esp, ebp
  0006f	5d		 pop	 ebp
  00070	c3		 ret	 0
$LN3@guildIsMem:

; 657  : 
; 658  : 	return Py_BuildValue("i", FALSE);

  00071	6a 00		 push	 0

; 659  : }

  00073	68 00 00 00 00	 push	 OFFSET ??_C@_01KBJDNOO@i@
  00078	ff 15 00 00 00
	00		 call	 DWORD PTR __imp__Py_BuildValue
  0007e	83 c4 08	 add	 esp, 8
  00081	8b e5		 mov	 esp, ebp
  00083	5d		 pop	 ebp
  00084	c3		 ret	 0
?guildIsMember@@YAPAU_object@@PAU1@0@Z ENDP		; guildIsMember
_TEXT	ENDS
; Function compile flags: /Ogtp
; File C:\Anka2Project\Anka2Project\Source\Binary\source\UserInterface\PythonGuild.cpp
; File C:\Anka2Project\Anka2Project\Source\Binary\source\eterBase\Singleton.h
; File C:\Anka2Project\Anka2Project\Source\Binary\source\UserInterface\PythonGuild.cpp
;	COMDAT ?guildIsMemberByName@@YAPAU_object@@PAU1@0@Z
_TEXT	SEGMENT
_pData$ = -8						; size = 4
_szName$ = -4						; size = 4
_poSelf$ = 8						; size = 4
_poArgs$ = 12						; size = 4
?guildIsMemberByName@@YAPAU_object@@PAU1@0@Z PROC	; guildIsMemberByName, COMDAT

; 662  : {

  00000	55		 push	 ebp
  00001	8b ec		 mov	 ebp, esp
  00003	83 ec 08	 sub	 esp, 8

; 663  : 	char *szName;
; 664  : 	if (!PyTuple_GetString(poArgs, 0, &szName))

  00006	8d 45 fc	 lea	 eax, DWORD PTR _szName$[ebp]
  00009	50		 push	 eax
  0000a	6a 00		 push	 0
  0000c	ff 75 0c	 push	 DWORD PTR _poArgs$[ebp]
  0000f	e8 00 00 00 00	 call	 ?PyTuple_GetString@@YA_NPAU_object@@HPAPAD@Z ; PyTuple_GetString
  00014	83 c4 0c	 add	 esp, 12			; 0000000cH
  00017	84 c0		 test	 al, al
  00019	75 0e		 jne	 SHORT $LN2@guildIsMem

; 665  : 		return Py_BuildException();

  0001b	6a 00		 push	 0
  0001d	e8 00 00 00 00	 call	 ?Py_BuildException@@YAPAU_object@@PBDZZ ; Py_BuildException
  00022	83 c4 04	 add	 esp, 4

; 672  : }

  00025	8b e5		 mov	 esp, ebp
  00027	5d		 pop	 ebp
  00028	c3		 ret	 0
$LN2@guildIsMem:
; File C:\Anka2Project\Anka2Project\Source\Binary\source\eterBase\Singleton.h

; 26   : 		assert(ms_singleton);

  00029	8b 0d 00 00 00
	00		 mov	 ecx, DWORD PTR ?ms_singleton@?$CSingleton@VCPythonGuild@@@@0PAVCPythonGuild@@A ; CSingleton<CPythonGuild>::ms_singleton
  0002f	85 c9		 test	 ecx, ecx
  00031	75 1a		 jne	 SHORT $LN7@guildIsMem
  00033	6a 1a		 push	 26			; 0000001aH
  00035	68 00 00 00 00	 push	 OFFSET ??_C@_1IO@CAJLEEOI@?$AAC?$AA?3?$AA?2?$AAA?$AAn?$AAk?$AAa?$AA2?$AAP?$AAr?$AAo?$AAj?$AAe?$AAc?$AAt@
  0003a	68 00 00 00 00	 push	 OFFSET ??_C@_1BK@FMEHPMFE@?$AAm?$AAs?$AA_?$AAs?$AAi?$AAn?$AAg?$AAl?$AAe?$AAt?$AAo?$AAn@
  0003f	e8 00 00 00 00	 call	 __wassert
  00044	8b 0d 00 00 00
	00		 mov	 ecx, DWORD PTR ?ms_singleton@?$CSingleton@VCPythonGuild@@@@0PAVCPythonGuild@@A ; CSingleton<CPythonGuild>::ms_singleton
  0004a	83 c4 0c	 add	 esp, 12			; 0000000cH
$LN7@guildIsMem:
; File C:\Anka2Project\Anka2Project\Source\Binary\source\UserInterface\PythonGuild.cpp

; 668  : 	if (CPythonGuild::Instance().GetMemberDataPtrByName(szName, &pData))

  0004d	8d 45 f8	 lea	 eax, DWORD PTR _pData$[ebp]
  00050	50		 push	 eax
  00051	ff 75 fc	 push	 DWORD PTR _szName$[ebp]
  00054	e8 00 00 00 00	 call	 ?GetMemberDataPtrByName@CPythonGuild@@QAEHPBDPAPAUSGuildMemberData@1@@Z ; CPythonGuild::GetMemberDataPtrByName
  00059	85 c0		 test	 eax, eax
  0005b	74 14		 je	 SHORT $LN3@guildIsMem

; 669  : 		return Py_BuildValue("i", TRUE);

  0005d	6a 01		 push	 1

; 672  : }

  0005f	68 00 00 00 00	 push	 OFFSET ??_C@_01KBJDNOO@i@
  00064	ff 15 00 00 00
	00		 call	 DWORD PTR __imp__Py_BuildValue
  0006a	83 c4 08	 add	 esp, 8
  0006d	8b e5		 mov	 esp, ebp
  0006f	5d		 pop	 ebp
  00070	c3		 ret	 0
$LN3@guildIsMem:

; 670  : 
; 671  : 	return Py_BuildValue("i", FALSE);

  00071	6a 00		 push	 0

; 672  : }

  00073	68 00 00 00 00	 push	 OFFSET ??_C@_01KBJDNOO@i@
  00078	ff 15 00 00 00
	00		 call	 DWORD PTR __imp__Py_BuildValue
  0007e	83 c4 08	 add	 esp, 8
  00081	8b e5		 mov	 esp, ebp
  00083	5d		 pop	 ebp
  00084	c3		 ret	 0
?guildIsMemberByName@@YAPAU_object@@PAU1@0@Z ENDP	; guildIsMemberByName
_TEXT	ENDS
; Function compile flags: /Ogtp
; File C:\Anka2Project\Anka2Project\Source\Binary\source\UserInterface\PythonGuild.cpp
; File C:\Anka2Project\Anka2Project\Source\Binary\source\UserInterface\AbstractSingleton.h
; File C:\Anka2Project\Anka2Project\Source\Binary\source\UserInterface\PythonGuild.cpp
; File C:\Anka2Project\Anka2Project\Source\Binary\source\eterBase\Singleton.h
; File C:\Anka2Project\Anka2Project\Source\Binary\source\UserInterface\PythonGuild.cpp
; File C:\Anka2Project\Anka2Project\Source\Binary\source\eterBase\Singleton.h
; File C:\Anka2Project\Anka2Project\Source\Binary\source\UserInterface\PythonGuild.cpp
; File C:\Anka2Project\Anka2Project\Source\Binary\source\eterBase\Singleton.h
; File C:\Anka2Project\Anka2Project\Source\Binary\source\UserInterface\PythonGuild.cpp
;	COMDAT ?guildMainPlayerHasAuthority@@YAPAU_object@@PAU1@0@Z
_TEXT	SEGMENT
_iAuthority$ = -12					; size = 4
_pGradeData$ = -8					; size = 4
_pMemberData$ = -4					; size = 4
_poSelf$ = 8						; size = 4
_poArgs$ = 12						; size = 4
?guildMainPlayerHasAuthority@@YAPAU_object@@PAU1@0@Z PROC ; guildMainPlayerHasAuthority, COMDAT

; 675  : {

  00000	55		 push	 ebp
  00001	8b ec		 mov	 ebp, esp
  00003	83 ec 0c	 sub	 esp, 12			; 0000000cH

; 676  : 	int iAuthority;
; 677  : 	if (!PyTuple_GetInteger(poArgs, 0, &iAuthority))

  00006	8d 45 f4	 lea	 eax, DWORD PTR _iAuthority$[ebp]
  00009	50		 push	 eax
  0000a	6a 00		 push	 0
  0000c	ff 75 0c	 push	 DWORD PTR _poArgs$[ebp]
  0000f	e8 00 00 00 00	 call	 ?PyTuple_GetInteger@@YA_NPAU_object@@HPAH@Z ; PyTuple_GetInteger
  00014	83 c4 0c	 add	 esp, 12			; 0000000cH
  00017	84 c0		 test	 al, al
  00019	75 0e		 jne	 SHORT $LN2@guildMainP

; 678  : 		return Py_BuildException();

  0001b	6a 00		 push	 0
  0001d	e8 00 00 00 00	 call	 ?Py_BuildException@@YAPAU_object@@PBDZZ ; Py_BuildException
  00022	83 c4 04	 add	 esp, 4

; 692  : }

  00025	8b e5		 mov	 esp, ebp
  00027	5d		 pop	 ebp
  00028	c3		 ret	 0
$LN2@guildMainP:
; File C:\Anka2Project\Anka2Project\Source\Binary\source\UserInterface\AbstractSingleton.h

; 24   : 		assert(ms_singleton!=nullptr);

  00029	8b 0d 00 00 00
	00		 mov	 ecx, DWORD PTR ?ms_singleton@?$TAbstractSingleton@VIAbstractPlayer@@@@0PAVIAbstractPlayer@@A ; TAbstractSingleton<IAbstractPlayer>::ms_singleton
  0002f	85 c9		 test	 ecx, ecx
  00031	75 1a		 jne	 SHORT $LN8@guildMainP
  00033	6a 18		 push	 24			; 00000018H
  00035	68 00 00 00 00	 push	 OFFSET ??_C@_1KI@FIPHLMOB@?$AAC?$AA?3?$AA?2?$AAA?$AAn?$AAk?$AAa?$AA2?$AAP?$AAr?$AAo?$AAj?$AAe?$AAc?$AAt@
  0003a	68 00 00 00 00	 push	 OFFSET ??_C@_1CM@FPMBEAEA@?$AAm?$AAs?$AA_?$AAs?$AAi?$AAn?$AAg?$AAl?$AAe?$AAt?$AAo?$AAn?$AA?$CB?$AA?$DN?$AAn@
  0003f	e8 00 00 00 00	 call	 __wassert
  00044	8b 0d 00 00 00
	00		 mov	 ecx, DWORD PTR ?ms_singleton@?$TAbstractSingleton@VIAbstractPlayer@@@@0PAVIAbstractPlayer@@A ; TAbstractSingleton<IAbstractPlayer>::ms_singleton
  0004a	83 c4 0c	 add	 esp, 12			; 0000000cH
$LN8@guildMainP:
; File C:\Anka2Project\Anka2Project\Source\Binary\source\UserInterface\PythonGuild.cpp

; 681  : 	const char *c_szMainPlayerName = rPlayer.GetName();

  0004d	8b 01		 mov	 eax, DWORD PTR [ecx]
  0004f	56		 push	 esi
  00050	ff 50 14	 call	 DWORD PTR [eax+20]
; File C:\Anka2Project\Anka2Project\Source\Binary\source\eterBase\Singleton.h

; 26   : 		assert(ms_singleton);

  00053	8b 0d 00 00 00
	00		 mov	 ecx, DWORD PTR ?ms_singleton@?$CSingleton@VCPythonGuild@@@@0PAVCPythonGuild@@A ; CSingleton<CPythonGuild>::ms_singleton
; File C:\Anka2Project\Anka2Project\Source\Binary\source\UserInterface\PythonGuild.cpp

; 681  : 	const char *c_szMainPlayerName = rPlayer.GetName();

  00059	8b f0		 mov	 esi, eax
; File C:\Anka2Project\Anka2Project\Source\Binary\source\eterBase\Singleton.h

; 26   : 		assert(ms_singleton);

  0005b	85 c9		 test	 ecx, ecx
  0005d	75 1a		 jne	 SHORT $LN11@guildMainP
  0005f	6a 1a		 push	 26			; 0000001aH
  00061	68 00 00 00 00	 push	 OFFSET ??_C@_1IO@CAJLEEOI@?$AAC?$AA?3?$AA?2?$AAA?$AAn?$AAk?$AAa?$AA2?$AAP?$AAr?$AAo?$AAj?$AAe?$AAc?$AAt@
  00066	68 00 00 00 00	 push	 OFFSET ??_C@_1BK@FMEHPMFE@?$AAm?$AAs?$AA_?$AAs?$AAi?$AAn?$AAg?$AAl?$AAe?$AAt?$AAo?$AAn@
  0006b	e8 00 00 00 00	 call	 __wassert
  00070	8b 0d 00 00 00
	00		 mov	 ecx, DWORD PTR ?ms_singleton@?$CSingleton@VCPythonGuild@@@@0PAVCPythonGuild@@A ; CSingleton<CPythonGuild>::ms_singleton
  00076	83 c4 0c	 add	 esp, 12			; 0000000cH
$LN11@guildMainP:
; File C:\Anka2Project\Anka2Project\Source\Binary\source\UserInterface\PythonGuild.cpp

; 684  : 	if (!CPythonGuild::Instance().GetMemberDataPtrByName(c_szMainPlayerName, &pMemberData))

  00079	8d 45 fc	 lea	 eax, DWORD PTR _pMemberData$[ebp]
  0007c	50		 push	 eax
  0007d	56		 push	 esi
  0007e	e8 00 00 00 00	 call	 ?GetMemberDataPtrByName@CPythonGuild@@QAEHPBDPAPAUSGuildMemberData@1@@Z ; CPythonGuild::GetMemberDataPtrByName
  00083	5e		 pop	 esi
  00084	85 c0		 test	 eax, eax
  00086	75 14		 jne	 SHORT $LN3@guildMainP
$LN22@guildMainP:

; 692  : }

  00088	6a 00		 push	 0
  0008a	68 00 00 00 00	 push	 OFFSET ??_C@_01KBJDNOO@i@
  0008f	ff 15 00 00 00
	00		 call	 DWORD PTR __imp__Py_BuildValue
  00095	83 c4 08	 add	 esp, 8
  00098	8b e5		 mov	 esp, ebp
  0009a	5d		 pop	 ebp
  0009b	c3		 ret	 0
$LN3@guildMainP:
; File C:\Anka2Project\Anka2Project\Source\Binary\source\eterBase\Singleton.h

; 26   : 		assert(ms_singleton);

  0009c	8b 0d 00 00 00
	00		 mov	 ecx, DWORD PTR ?ms_singleton@?$CSingleton@VCPythonGuild@@@@0PAVCPythonGuild@@A ; CSingleton<CPythonGuild>::ms_singleton
  000a2	85 c9		 test	 ecx, ecx
  000a4	75 1a		 jne	 SHORT $LN14@guildMainP
  000a6	6a 1a		 push	 26			; 0000001aH
  000a8	68 00 00 00 00	 push	 OFFSET ??_C@_1IO@CAJLEEOI@?$AAC?$AA?3?$AA?2?$AAA?$AAn?$AAk?$AAa?$AA2?$AAP?$AAr?$AAo?$AAj?$AAe?$AAc?$AAt@
  000ad	68 00 00 00 00	 push	 OFFSET ??_C@_1BK@FMEHPMFE@?$AAm?$AAs?$AA_?$AAs?$AAi?$AAn?$AAg?$AAl?$AAe?$AAt?$AAo?$AAn@
  000b2	e8 00 00 00 00	 call	 __wassert
  000b7	8b 0d 00 00 00
	00		 mov	 ecx, DWORD PTR ?ms_singleton@?$CSingleton@VCPythonGuild@@@@0PAVCPythonGuild@@A ; CSingleton<CPythonGuild>::ms_singleton
  000bd	83 c4 0c	 add	 esp, 12			; 0000000cH
$LN14@guildMainP:
; File C:\Anka2Project\Anka2Project\Source\Binary\source\UserInterface\PythonGuild.cpp

; 688  : 	if (!CPythonGuild::Instance().GetGradeDataPtr(pMemberData->byGrade, &pGradeData))

  000c0	8d 45 f8	 lea	 eax, DWORD PTR _pGradeData$[ebp]
  000c3	50		 push	 eax
  000c4	8b 45 fc	 mov	 eax, DWORD PTR _pMemberData$[ebp]
  000c7	0f b6 40 1c	 movzx	 eax, BYTE PTR [eax+28]
  000cb	50		 push	 eax
  000cc	e8 00 00 00 00	 call	 ?GetGradeDataPtr@CPythonGuild@@QAEHKPAPAUSGuildGradeData@1@@Z ; CPythonGuild::GetGradeDataPtr
  000d1	85 c0		 test	 eax, eax
  000d3	74 b3		 je	 SHORT $LN22@guildMainP

; 689  : 		return Py_BuildValue("i", FALSE);
; 690  : 
; 691  : 	return Py_BuildValue("i", iAuthority == (pGradeData->byAuthorityFlag & iAuthority));

  000d5	8b 45 f8	 mov	 eax, DWORD PTR _pGradeData$[ebp]
  000d8	33 c9		 xor	 ecx, ecx
  000da	0f b6 10	 movzx	 edx, BYTE PTR [eax]
  000dd	23 55 f4	 and	 edx, DWORD PTR _iAuthority$[ebp]
  000e0	39 55 f4	 cmp	 DWORD PTR _iAuthority$[ebp], edx
  000e3	0f 94 c1	 sete	 cl
  000e6	51		 push	 ecx

; 692  : }

  000e7	68 00 00 00 00	 push	 OFFSET ??_C@_01KBJDNOO@i@
  000ec	ff 15 00 00 00
	00		 call	 DWORD PTR __imp__Py_BuildValue
  000f2	83 c4 08	 add	 esp, 8
  000f5	8b e5		 mov	 esp, ebp
  000f7	5d		 pop	 ebp
  000f8	c3		 ret	 0
?guildMainPlayerHasAuthority@@YAPAU_object@@PAU1@0@Z ENDP ; guildMainPlayerHasAuthority
_TEXT	ENDS
; Function compile flags: /Ogtp
; File C:\Anka2Project\Anka2Project\Source\Binary\source\UserInterface\PythonGuild.cpp
; File C:\Anka2Project\Anka2Project\Source\Binary\source\eterBase\Singleton.h
; File C:\Anka2Project\Anka2Project\Source\Binary\source\UserInterface\PythonGuild.cpp
;	COMDAT ?guildGuildIDToMarkID@@YAPAU_object@@PAU1@0@Z
_TEXT	SEGMENT
_guild_id$ = -4						; size = 4
_poSelf$ = 8						; size = 4
_poArgs$ = 12						; size = 4
?guildGuildIDToMarkID@@YAPAU_object@@PAU1@0@Z PROC	; guildGuildIDToMarkID, COMDAT

; 703  : {

  00000	55		 push	 ebp
  00001	8b ec		 mov	 ebp, esp
  00003	51		 push	 ecx

; 704  : 	int guild_id;
; 705  : 	if (!PyTuple_GetInteger(poArgs, 0, &guild_id))

  00004	8d 45 fc	 lea	 eax, DWORD PTR _guild_id$[ebp]
  00007	50		 push	 eax
  00008	6a 00		 push	 0
  0000a	ff 75 0c	 push	 DWORD PTR _poArgs$[ebp]
  0000d	e8 00 00 00 00	 call	 ?PyTuple_GetInteger@@YA_NPAU_object@@HPAH@Z ; PyTuple_GetInteger
  00012	83 c4 0c	 add	 esp, 12			; 0000000cH
  00015	84 c0		 test	 al, al
  00017	75 0e		 jne	 SHORT $LN2@guildGuild

; 706  : 		return Py_BuildException();

  00019	6a 00		 push	 0
  0001b	e8 00 00 00 00	 call	 ?Py_BuildException@@YAPAU_object@@PBDZZ ; Py_BuildException
  00020	83 c4 04	 add	 esp, 4

; 709  : }

  00023	8b e5		 mov	 esp, ebp
  00025	5d		 pop	 ebp
  00026	c3		 ret	 0
$LN2@guildGuild:
; File C:\Anka2Project\Anka2Project\Source\Binary\source\eterBase\Singleton.h

; 67   : 		assert(ms_singleton);

  00027	8b 0d 00 00 00
	00		 mov	 ecx, DWORD PTR ?ms_singleton@?$singleton@VCGuildMarkManager@@@@0PAVCGuildMarkManager@@A ; singleton<CGuildMarkManager>::ms_singleton
  0002d	85 c9		 test	 ecx, ecx
  0002f	75 1a		 jne	 SHORT $LN6@guildGuild
  00031	6a 43		 push	 67			; 00000043H
  00033	68 00 00 00 00	 push	 OFFSET ??_C@_1IO@CAJLEEOI@?$AAC?$AA?3?$AA?2?$AAA?$AAn?$AAk?$AAa?$AA2?$AAP?$AAr?$AAo?$AAj?$AAe?$AAc?$AAt@
  00038	68 00 00 00 00	 push	 OFFSET ??_C@_1BK@FMEHPMFE@?$AAm?$AAs?$AA_?$AAs?$AAi?$AAn?$AAg?$AAl?$AAe?$AAt?$AAo?$AAn@
  0003d	e8 00 00 00 00	 call	 __wassert
  00042	8b 0d 00 00 00
	00		 mov	 ecx, DWORD PTR ?ms_singleton@?$singleton@VCGuildMarkManager@@@@0PAVCGuildMarkManager@@A ; singleton<CGuildMarkManager>::ms_singleton
  00048	83 c4 0c	 add	 esp, 12			; 0000000cH
$LN6@guildGuild:
; File C:\Anka2Project\Anka2Project\Source\Binary\source\UserInterface\PythonGuild.cpp

; 708  : 	return Py_BuildValue("i", CGuildMarkManager::Instance().GetMarkID(guild_id));

  0004b	ff 75 fc	 push	 DWORD PTR _guild_id$[ebp]
  0004e	e8 00 00 00 00	 call	 ?GetMarkID@CGuildMarkManager@@QAEKK@Z ; CGuildMarkManager::GetMarkID
  00053	50		 push	 eax
  00054	68 00 00 00 00	 push	 OFFSET ??_C@_01KBJDNOO@i@
  00059	ff 15 00 00 00
	00		 call	 DWORD PTR __imp__Py_BuildValue
  0005f	83 c4 08	 add	 esp, 8

; 709  : }

  00062	8b e5		 mov	 esp, ebp
  00064	5d		 pop	 ebp
  00065	c3		 ret	 0
?guildGuildIDToMarkID@@YAPAU_object@@PAU1@0@Z ENDP	; guildGuildIDToMarkID
_TEXT	ENDS
; Function compile flags: /Ogtp
; File C:\Anka2Project\Anka2Project\Source\Binary\source\UserInterface\PythonGuild.cpp
; File C:\Program Files\Microsoft Visual Studio\2022\Community\VC\Tools\MSVC\14.44.35207\include\xstring
; File C:\Anka2Project\Anka2Project\Source\Binary\source\UserInterface\PythonGuild.cpp
; File C:\Anka2Project\Anka2Project\Source\Binary\source\eterBase\Singleton.h
; File C:\Anka2Project\Anka2Project\Source\Binary\source\UserInterface\PythonGuild.cpp
; File C:\Program Files\Microsoft Visual Studio\2022\Community\VC\Tools\MSVC\14.44.35207\include\xstring
; File C:\Anka2Project\Anka2Project\Source\Binary\source\UserInterface\PythonGuild.cpp
; File C:\Program Files\Microsoft Visual Studio\2022\Community\VC\Tools\MSVC\14.44.35207\include\xstring
; File C:\Anka2Project\Anka2Project\Source\Binary\source\UserInterface\PythonGuild.cpp
; File C:\Program Files\Microsoft Visual Studio\2022\Community\VC\Tools\MSVC\14.44.35207\include\xstring
; File C:\Program Files\Microsoft Visual Studio\2022\Community\VC\Tools\MSVC\14.44.35207\include\xmemory
; File C:\Program Files\Microsoft Visual Studio\2022\Community\VC\Tools\MSVC\14.44.35207\include\xstring
; File C:\Program Files\Microsoft Visual Studio\2022\Community\VC\Tools\MSVC\14.44.35207\include\xmemory
; File C:\Anka2Project\Anka2Project\Source\Binary\source\UserInterface\PythonGuild.cpp
; File C:\Program Files\Microsoft Visual Studio\2022\Community\VC\Tools\MSVC\14.44.35207\include\xmemory
; File C:\Anka2Project\Anka2Project\Source\Binary\source\UserInterface\PythonGuild.cpp
;	COMDAT ?guildGetMarkImageFilenameByMarkID@@YAPAU_object@@PAU1@0@Z
_TEXT	SEGMENT
_markID$ = -44						; size = 4
_imagePath$ = -40					; size = 24
__$ArrayPad$ = -16					; size = 4
__$EHRec$ = -12						; size = 12
_poSelf$ = 8						; size = 4
_poArgs$ = 12						; size = 4
?guildGetMarkImageFilenameByMarkID@@YAPAU_object@@PAU1@0@Z PROC ; guildGetMarkImageFilenameByMarkID, COMDAT

; 712  : {

  00000	55		 push	 ebp
  00001	8b ec		 mov	 ebp, esp
  00003	6a ff		 push	 -1
  00005	68 00 00 00 00	 push	 __ehhandler$?guildGetMarkImageFilenameByMarkID@@YAPAU_object@@PAU1@0@Z
  0000a	64 a1 00 00 00
	00		 mov	 eax, DWORD PTR fs:0
  00010	50		 push	 eax
  00011	83 ec 20	 sub	 esp, 32			; 00000020H
  00014	a1 00 00 00 00	 mov	 eax, DWORD PTR ___security_cookie
  00019	33 c5		 xor	 eax, ebp
  0001b	89 45 f0	 mov	 DWORD PTR __$ArrayPad$[ebp], eax
  0001e	56		 push	 esi
  0001f	50		 push	 eax
  00020	8d 45 f4	 lea	 eax, DWORD PTR __$EHRec$[ebp]
  00023	64 a3 00 00 00
	00		 mov	 DWORD PTR fs:0, eax
  00029	8b 45 0c	 mov	 eax, DWORD PTR _poArgs$[ebp]

; 713  : 	int markID;
; 714  : 
; 715  : 	if (!PyTuple_GetInteger(poArgs, 0, &markID))

  0002c	8d 4d d4	 lea	 ecx, DWORD PTR _markID$[ebp]
  0002f	51		 push	 ecx
  00030	6a 00		 push	 0
  00032	50		 push	 eax
  00033	e8 00 00 00 00	 call	 ?PyTuple_GetInteger@@YA_NPAU_object@@HPAH@Z ; PyTuple_GetInteger
  00038	83 c4 0c	 add	 esp, 12			; 0000000cH
  0003b	84 c0		 test	 al, al
  0003d	75 0f		 jne	 SHORT $LN2@guildGetMa

; 716  : 		return Py_BuildException();

  0003f	6a 00		 push	 0
  00041	e8 00 00 00 00	 call	 ?Py_BuildException@@YAPAU_object@@PBDZZ ; Py_BuildException
  00046	83 c4 04	 add	 esp, 4
  00049	e9 ae 00 00 00	 jmp	 $LN1@guildGetMa
$LN2@guildGetMa:
  0004e	0f 57 c0	 xorps	 xmm0, xmm0
; File C:\Program Files\Microsoft Visual Studio\2022\Community\VC\Tools\MSVC\14.44.35207\include\xstring

; 860  :         _My_data._Mysize = 0;

  00051	c7 45 e8 00 00
	00 00		 mov	 DWORD PTR _imagePath$[ebp+16], 0

; 493  :         _CONSTEXPR20 _Bxty() noexcept : _Buf() {} // user-provided, for fancy pointers

  00058	0f 11 45 d8	 movups	 XMMWORD PTR _imagePath$[ebp], xmm0

; 861  :         _My_data._Myres  = _Small_string_capacity;

  0005c	c7 45 ec 0f 00
	00 00		 mov	 DWORD PTR _imagePath$[ebp+20], 15 ; 0000000fH

; 862  :         _My_data._Activate_SSO_buffer();
; 863  : 
; 864  :         // the _Traits::assign is last so the codegen doesn't think the char write can alias this
; 865  :         _Traits::assign(_My_data._Bx._Buf[0], _Elem());

  00063	c6 45 d8 00	 mov	 BYTE PTR _imagePath$[ebp], 0
; File C:\Anka2Project\Anka2Project\Source\Binary\source\UserInterface\PythonGuild.cpp

; 718  : 	std::string imagePath;

  00067	c7 45 fc 00 00
	00 00		 mov	 DWORD PTR __$EHRec$[ebp+8], 0
; File C:\Anka2Project\Anka2Project\Source\Binary\source\eterBase\Singleton.h

; 67   : 		assert(ms_singleton);

  0006e	8b 0d 00 00 00
	00		 mov	 ecx, DWORD PTR ?ms_singleton@?$singleton@VCGuildMarkManager@@@@0PAVCGuildMarkManager@@A ; singleton<CGuildMarkManager>::ms_singleton
  00074	85 c9		 test	 ecx, ecx
  00076	75 1a		 jne	 SHORT $LN27@guildGetMa
  00078	6a 43		 push	 67			; 00000043H
  0007a	68 00 00 00 00	 push	 OFFSET ??_C@_1IO@CAJLEEOI@?$AAC?$AA?3?$AA?2?$AAA?$AAn?$AAk?$AAa?$AA2?$AAP?$AAr?$AAo?$AAj?$AAe?$AAc?$AAt@
  0007f	68 00 00 00 00	 push	 OFFSET ??_C@_1BK@FMEHPMFE@?$AAm?$AAs?$AA_?$AAs?$AAi?$AAn?$AAg?$AAl?$AAe?$AAt?$AAo?$AAn@
  00084	e8 00 00 00 00	 call	 __wassert
  00089	8b 0d 00 00 00
	00		 mov	 ecx, DWORD PTR ?ms_singleton@?$singleton@VCGuildMarkManager@@@@0PAVCGuildMarkManager@@A ; singleton<CGuildMarkManager>::ms_singleton
  0008f	83 c4 0c	 add	 esp, 12			; 0000000cH
$LN27@guildGetMa:
; File C:\Anka2Project\Anka2Project\Source\Binary\source\UserInterface\PythonGuild.cpp

; 719  : 	CGuildMarkManager::Instance().GetMarkImageFilename(markID / CGuildMarkImage::MARK_TOTAL_COUNT, imagePath);

  00092	8d 45 d8	 lea	 eax, DWORD PTR _imagePath$[ebp]
  00095	50		 push	 eax
  00096	b8 67 66 66 66	 mov	 eax, 1717986919		; 66666667H
  0009b	f7 6d d4	 imul	 DWORD PTR _markID$[ebp]
  0009e	c1 fa 09	 sar	 edx, 9
  000a1	8b c2		 mov	 eax, edx
  000a3	c1 e8 1f	 shr	 eax, 31			; 0000001fH
  000a6	03 c2		 add	 eax, edx
  000a8	50		 push	 eax
  000a9	e8 00 00 00 00	 call	 ?GetMarkImageFilename@CGuildMarkManager@@QBE_NKAAV?$basic_string@DU?$char_traits@D@std@@V?$allocator@D@2@@std@@@Z ; CGuildMarkManager::GetMarkImageFilename
; File C:\Program Files\Microsoft Visual Studio\2022\Community\VC\Tools\MSVC\14.44.35207\include\xstring

; 453  :         return _Myres > _Small_string_capacity;

  000ae	83 7d ec 0f	 cmp	 DWORD PTR _imagePath$[ebp+20], 15 ; 0000000fH

; 444  :         const value_type* _Result = _Bx._Buf;

  000b2	8d 45 d8	 lea	 eax, DWORD PTR _imagePath$[ebp]

; 445  :         if (_Large_mode_engaged()) {

  000b5	0f 47 45 d8	 cmova	 eax, DWORD PTR _imagePath$[ebp]
; File C:\Anka2Project\Anka2Project\Source\Binary\source\UserInterface\PythonGuild.cpp

; 720  : 	return Py_BuildValue("s", imagePath.c_str());

  000b9	50		 push	 eax
  000ba	68 00 00 00 00	 push	 OFFSET ??_C@_01LKDEMHDF@s@
  000bf	ff 15 00 00 00
	00		 call	 DWORD PTR __imp__Py_BuildValue
; File C:\Program Files\Microsoft Visual Studio\2022\Community\VC\Tools\MSVC\14.44.35207\include\xstring

; 453  :         return _Myres > _Small_string_capacity;

  000c5	8b 4d ec	 mov	 ecx, DWORD PTR _imagePath$[ebp+20]
; File C:\Anka2Project\Anka2Project\Source\Binary\source\UserInterface\PythonGuild.cpp

; 720  : 	return Py_BuildValue("s", imagePath.c_str());

  000c8	83 c4 08	 add	 esp, 8
  000cb	8b f0		 mov	 esi, eax
; File C:\Program Files\Microsoft Visual Studio\2022\Community\VC\Tools\MSVC\14.44.35207\include\xstring

; 453  :         return _Myres > _Small_string_capacity;

  000cd	83 f9 0f	 cmp	 ecx, 15			; 0000000fH

; 3083 :         if (_My_data._Large_mode_engaged()) {

  000d0	76 28		 jbe	 SHORT $LN56@guildGetMa
; File C:\Program Files\Microsoft Visual Studio\2022\Community\VC\Tools\MSVC\14.44.35207\include\xmemory

; 985  :         _STD _Deallocate<_New_alignof<_Ty>>(_Ptr, sizeof(_Ty) * _Count);

  000d2	8b 55 d8	 mov	 edx, DWORD PTR _imagePath$[ebp]
; File C:\Program Files\Microsoft Visual Studio\2022\Community\VC\Tools\MSVC\14.44.35207\include\xstring

; 852  :         _Al.deallocate(_Old_ptr, _Capacity + 1); // +1 for null terminator

  000d5	41		 inc	 ecx
; File C:\Program Files\Microsoft Visual Studio\2022\Community\VC\Tools\MSVC\14.44.35207\include\xmemory

; 985  :         _STD _Deallocate<_New_alignof<_Ty>>(_Ptr, sizeof(_Ty) * _Count);

  000d6	8b c2		 mov	 eax, edx

; 284  :         if (_Bytes >= _Big_allocation_threshold) {

  000d8	81 f9 00 10 00
	00		 cmp	 ecx, 4096		; 00001000H
  000de	72 10		 jb	 SHORT $LN64@guildGetMa

; 205  :     const uintptr_t _Ptr_container   = _Ptr_user[-1];

  000e0	8b 50 fc	 mov	 edx, DWORD PTR [eax-4]
  000e3	83 c1 23	 add	 ecx, 35			; 00000023H
  000e6	2b c2		 sub	 eax, edx

; 219  :     _STL_VERIFY(_Back_shift >= _Min_back_shift && _Back_shift <= _Non_user_size, "invalid argument");

  000e8	83 c0 fc	 add	 eax, -4			; fffffffcH
  000eb	83 f8 1f	 cmp	 eax, 31			; 0000001fH
  000ee	77 26		 ja	 SHORT $LN74@guildGetMa
$LN64@guildGetMa:

; 289  :         ::operator delete(_Ptr, _Bytes);

  000f0	51		 push	 ecx
  000f1	52		 push	 edx
  000f2	e8 00 00 00 00	 call	 ??3@YAXPAXI@Z		; operator delete
  000f7	83 c4 08	 add	 esp, 8
$LN56@guildGetMa:
; File C:\Anka2Project\Anka2Project\Source\Binary\source\UserInterface\PythonGuild.cpp

; 720  : 	return Py_BuildValue("s", imagePath.c_str());

  000fa	8b c6		 mov	 eax, esi
$LN1@guildGetMa:

; 721  : }

  000fc	8b 4d f4	 mov	 ecx, DWORD PTR __$EHRec$[ebp]
  000ff	64 89 0d 00 00
	00 00		 mov	 DWORD PTR fs:0, ecx
  00106	59		 pop	 ecx
  00107	5e		 pop	 esi
  00108	8b 4d f0	 mov	 ecx, DWORD PTR __$ArrayPad$[ebp]
  0010b	33 cd		 xor	 ecx, ebp
  0010d	e8 00 00 00 00	 call	 @__security_check_cookie@4
  00112	8b e5		 mov	 esp, ebp
  00114	5d		 pop	 ebp
  00115	c3		 ret	 0
$LN74@guildGetMa:
; File C:\Program Files\Microsoft Visual Studio\2022\Community\VC\Tools\MSVC\14.44.35207\include\xmemory

; 219  :     _STL_VERIFY(_Back_shift >= _Min_back_shift && _Back_shift <= _Non_user_size, "invalid argument");

  00116	6a 00		 push	 0
  00118	6a 00		 push	 0
  0011a	6a 00		 push	 0
  0011c	6a 00		 push	 0
  0011e	6a 00		 push	 0
  00120	e8 00 00 00 00	 call	 __invoke_watson
$LN72@guildGetMa:
  00125	cc		 int	 3
_TEXT	ENDS
;	COMDAT text$x
text$x	SEGMENT
__unwindfunclet$?guildGetMarkImageFilenameByMarkID@@YAPAU_object@@PAU1@0@Z$0:
  00000	8d 4d d8	 lea	 ecx, DWORD PTR _imagePath$[ebp]
  00003	e9 00 00 00 00	 jmp	 ??1?$basic_string@DU?$char_traits@D@std@@V?$allocator@D@2@@std@@QAE@XZ ; std::basic_string<char,std::char_traits<char>,std::allocator<char> >::~basic_string<char,std::char_traits<char>,std::allocator<char> >
  00008	cc		 int	 3
  00009	cc		 int	 3
  0000a	cc		 int	 3
  0000b	cc		 int	 3
  0000c	cc		 int	 3
__ehhandler$?guildGetMarkImageFilenameByMarkID@@YAPAU_object@@PAU1@0@Z:
  0000d	90		 npad	 1
  0000e	90		 npad	 1
  0000f	8b 54 24 08	 mov	 edx, DWORD PTR [esp+8]
  00013	8d 42 0c	 lea	 eax, DWORD PTR [edx+12]
  00016	8b 4a d8	 mov	 ecx, DWORD PTR [edx-40]
  00019	33 c8		 xor	 ecx, eax
  0001b	e8 00 00 00 00	 call	 @__security_check_cookie@4
  00020	8b 4a fc	 mov	 ecx, DWORD PTR [edx-4]
  00023	33 c8		 xor	 ecx, eax
  00025	e8 00 00 00 00	 call	 @__security_check_cookie@4
  0002a	b8 00 00 00 00	 mov	 eax, OFFSET __ehfuncinfo$?guildGetMarkImageFilenameByMarkID@@YAPAU_object@@PAU1@0@Z
  0002f	e9 00 00 00 00	 jmp	 ___CxxFrameHandler3
text$x	ENDS
?guildGetMarkImageFilenameByMarkID@@YAPAU_object@@PAU1@0@Z ENDP ; guildGetMarkImageFilenameByMarkID
; Function compile flags: /Ogtp
; File C:\Anka2Project\Anka2Project\Source\Binary\source\UserInterface\PythonGuild.cpp
;	COMDAT ?guildGetMarkIndexByMarkID@@YAPAU_object@@PAU1@0@Z
_TEXT	SEGMENT
_markID$ = -4						; size = 4
_poSelf$ = 8						; size = 4
_poArgs$ = 12						; size = 4
?guildGetMarkIndexByMarkID@@YAPAU_object@@PAU1@0@Z PROC	; guildGetMarkIndexByMarkID, COMDAT

; 724  : {

  00000	55		 push	 ebp
  00001	8b ec		 mov	 ebp, esp
  00003	51		 push	 ecx

; 725  : 	int markID;
; 726  : 
; 727  : 	if (!PyTuple_GetInteger(poArgs, 0, &markID))

  00004	8d 45 fc	 lea	 eax, DWORD PTR _markID$[ebp]
  00007	50		 push	 eax
  00008	6a 00		 push	 0
  0000a	ff 75 0c	 push	 DWORD PTR _poArgs$[ebp]
  0000d	e8 00 00 00 00	 call	 ?PyTuple_GetInteger@@YA_NPAU_object@@HPAH@Z ; PyTuple_GetInteger
  00012	83 c4 0c	 add	 esp, 12			; 0000000cH
  00015	84 c0		 test	 al, al
  00017	75 0e		 jne	 SHORT $LN2@guildGetMa

; 728  : 		return Py_BuildException();

  00019	6a 00		 push	 0
  0001b	e8 00 00 00 00	 call	 ?Py_BuildException@@YAPAU_object@@PBDZZ ; Py_BuildException
  00020	83 c4 04	 add	 esp, 4

; 731  : }

  00023	8b e5		 mov	 esp, ebp
  00025	5d		 pop	 ebp
  00026	c3		 ret	 0
$LN2@guildGetMa:

; 729  : 
; 730  : 	return Py_BuildValue("i", markID % CGuildMarkImage::MARK_TOTAL_COUNT);

  00027	8b 4d fc	 mov	 ecx, DWORD PTR _markID$[ebp]
  0002a	b8 67 66 66 66	 mov	 eax, 1717986919		; 66666667H
  0002f	f7 e9		 imul	 ecx
  00031	c1 fa 09	 sar	 edx, 9
  00034	8b c2		 mov	 eax, edx
  00036	c1 e8 1f	 shr	 eax, 31			; 0000001fH
  00039	03 c2		 add	 eax, edx
  0003b	8d 04 80	 lea	 eax, DWORD PTR [eax+eax*4]
  0003e	c1 e0 08	 shl	 eax, 8
  00041	2b c8		 sub	 ecx, eax
  00043	51		 push	 ecx
  00044	68 00 00 00 00	 push	 OFFSET ??_C@_01KBJDNOO@i@
  00049	ff 15 00 00 00
	00		 call	 DWORD PTR __imp__Py_BuildValue
  0004f	83 c4 08	 add	 esp, 8

; 731  : }

  00052	8b e5		 mov	 esp, ebp
  00054	5d		 pop	 ebp
  00055	c3		 ret	 0
?guildGetMarkIndexByMarkID@@YAPAU_object@@PAU1@0@Z ENDP	; guildGetMarkIndexByMarkID
_TEXT	ENDS
; Function compile flags: /Ogtp
; File C:\Anka2Project\Anka2Project\Source\Binary\source\UserInterface\PythonGuild.cpp
;	COMDAT ?guildGetWarRecode@@YAPAU_object@@PAU1@0@Z
_TEXT	SEGMENT
_poSelf$ = 8						; size = 4
_poArgs$ = 12						; size = 4
?guildGetWarRecode@@YAPAU_object@@PAU1@0@Z PROC		; guildGetWarRecode, COMDAT

; 736  : 	return Py_BuildValue("iiii", 0, 0, 0, 0);

  00000	6a 00		 push	 0
  00002	6a 00		 push	 0
  00004	6a 00		 push	 0
  00006	6a 00		 push	 0
  00008	68 00 00 00 00	 push	 OFFSET ??_C@_04BIOIIFBG@iiii@
  0000d	ff 15 00 00 00
	00		 call	 DWORD PTR __imp__Py_BuildValue
  00013	83 c4 14	 add	 esp, 20			; 00000014H

; 737  : }

  00016	c3		 ret	 0
?guildGetWarRecode@@YAPAU_object@@PAU1@0@Z ENDP		; guildGetWarRecode
_TEXT	ENDS
; Function compile flags: /Ogtp
; File C:\Anka2Project\Anka2Project\Source\Binary\source\UserInterface\PythonGuild.cpp
;	COMDAT ?guildGetGuildLadderRanking@@YAPAU_object@@PAU1@0@Z
_TEXT	SEGMENT
_poSelf$ = 8						; size = 4
_poArgs$ = 12						; size = 4
?guildGetGuildLadderRanking@@YAPAU_object@@PAU1@0@Z PROC ; guildGetGuildLadderRanking, COMDAT

; 741  : 	return Py_BuildValue("ii", 0, 0);

  00000	6a 00		 push	 0
  00002	6a 00		 push	 0
  00004	68 00 00 00 00	 push	 OFFSET ??_C@_02PDIHAGKM@ii@
  00009	ff 15 00 00 00
	00		 call	 DWORD PTR __imp__Py_BuildValue
  0000f	83 c4 0c	 add	 esp, 12			; 0000000cH

; 742  : }

  00012	c3		 ret	 0
?guildGetGuildLadderRanking@@YAPAU_object@@PAU1@0@Z ENDP ; guildGetGuildLadderRanking
_TEXT	ENDS
; Function compile flags: /Ogtp
; File C:\Anka2Project\Anka2Project\Source\Binary\source\UserInterface\PythonGuild.cpp
; File C:\Anka2Project\Anka2Project\Source\Binary\source\eterBase\Singleton.h
; File C:\Anka2Project\Anka2Project\Source\Binary\source\UserInterface\PythonGuild.cpp
;	COMDAT ?guildGetBaseInfoBankGold@@YAPAU_object@@PAU1@0@Z
_TEXT	SEGMENT
_poSelf$ = 8						; size = 4
_poArgs$ = 12						; size = 4
?guildGetBaseInfoBankGold@@YAPAU_object@@PAU1@0@Z PROC	; guildGetBaseInfoBankGold, COMDAT
; File C:\Anka2Project\Anka2Project\Source\Binary\source\eterBase\Singleton.h

; 26   : 		assert(ms_singleton);

  00000	8b 0d 00 00 00
	00		 mov	 ecx, DWORD PTR ?ms_singleton@?$CSingleton@VCPythonGuild@@@@0PAVCPythonGuild@@A ; CSingleton<CPythonGuild>::ms_singleton
  00006	85 c9		 test	 ecx, ecx
  00008	75 1a		 jne	 SHORT $LN5@guildGetBa
  0000a	6a 1a		 push	 26			; 0000001aH
  0000c	68 00 00 00 00	 push	 OFFSET ??_C@_1IO@CAJLEEOI@?$AAC?$AA?3?$AA?2?$AAA?$AAn?$AAk?$AAa?$AA2?$AAP?$AAr?$AAo?$AAj?$AAe?$AAc?$AAt@
  00011	68 00 00 00 00	 push	 OFFSET ??_C@_1BK@FMEHPMFE@?$AAm?$AAs?$AA_?$AAs?$AAi?$AAn?$AAg?$AAl?$AAe?$AAt?$AAo?$AAn@
  00016	e8 00 00 00 00	 call	 __wassert
  0001b	8b 0d 00 00 00
	00		 mov	 ecx, DWORD PTR ?ms_singleton@?$CSingleton@VCPythonGuild@@@@0PAVCPythonGuild@@A ; CSingleton<CPythonGuild>::ms_singleton
  00021	83 c4 0c	 add	 esp, 12			; 0000000cH
$LN5@guildGetBa:
; File C:\Anka2Project\Anka2Project\Source\Binary\source\UserInterface\PythonGuild.cpp

; 746  : 	CPythonGuild::TGuildInfo& rGuildInfo = CPythonGuild::Instance().GetGuildInfoRef();

  00024	e8 00 00 00 00	 call	 ?GetGuildInfoRef@CPythonGuild@@QAEAAUSGulidInfo@1@XZ ; CPythonGuild::GetGuildInfoRef

; 747  : #if defined(ENABLE_GUILDRENEWAL_SYSTEM) && defined(ENABLE_GUILDSTORAGE_SYSTEM)
; 748  : 	return Py_BuildValue("iss", rGuildInfo.dwGuildMoney, rGuildInfo.goldCheckout, rGuildInfo.itemCheckout);
; 749  : #else
; 750  : 	return Py_BuildValue("iss", rGuildInfo.dwGuildMoney, " ", " ");

  00029	68 00 00 00 00	 push	 OFFSET ??_C@_01CLKCMJKC@?5@
  0002e	68 00 00 00 00	 push	 OFFSET ??_C@_01CLKCMJKC@?5@
  00033	ff 70 28	 push	 DWORD PTR [eax+40]
  00036	68 00 00 00 00	 push	 OFFSET ??_C@_03MKDAGEFG@iss@
  0003b	ff 15 00 00 00
	00		 call	 DWORD PTR __imp__Py_BuildValue
  00041	83 c4 10	 add	 esp, 16			; 00000010H

; 751  : #endif
; 752  : }

  00044	c3		 ret	 0
?guildGetBaseInfoBankGold@@YAPAU_object@@PAU1@0@Z ENDP	; guildGetBaseInfoBankGold
_TEXT	ENDS
; Function compile flags: /Ogtp
; File C:\Anka2Project\Anka2Project\Source\Binary\source\UserInterface\PythonGuild.cpp
;	COMDAT ?guildGetBaseInfo@@YAPAU_object@@PAU1@0@Z
_TEXT	SEGMENT
_poSelf$ = 8						; size = 4
_poArgs$ = 12						; size = 4
?guildGetBaseInfo@@YAPAU_object@@PAU1@0@Z PROC		; guildGetBaseInfo, COMDAT

; 756  : 	return Py_BuildValue("i", 0);

  00000	6a 00		 push	 0
  00002	68 00 00 00 00	 push	 OFFSET ??_C@_01KBJDNOO@i@
  00007	ff 15 00 00 00
	00		 call	 DWORD PTR __imp__Py_BuildValue
  0000d	83 c4 08	 add	 esp, 8

; 757  : }

  00010	c3		 ret	 0
?guildGetBaseInfo@@YAPAU_object@@PAU1@0@Z ENDP		; guildGetBaseInfo
_TEXT	ENDS
; Function compile flags: /Ogtp
; File C:\Anka2Project\Anka2Project\Source\Binary\source\UserInterface\PythonGuild.cpp
;	COMDAT ?guildGetbuildingInfo@@YAPAU_object@@PAU1@0@Z
_TEXT	SEGMENT
_poSelf$ = 8						; size = 4
_poArgs$ = 12						; size = 4
?guildGetbuildingInfo@@YAPAU_object@@PAU1@0@Z PROC	; guildGetbuildingInfo, COMDAT

; 761  : 	return Py_BuildValue("iiii", 0, 0, 0, 0);

  00000	6a 00		 push	 0
  00002	6a 00		 push	 0
  00004	6a 00		 push	 0
  00006	6a 00		 push	 0
  00008	68 00 00 00 00	 push	 OFFSET ??_C@_04BIOIIFBG@iiii@
  0000d	ff 15 00 00 00
	00		 call	 DWORD PTR __imp__Py_BuildValue
  00013	83 c4 14	 add	 esp, 20			; 00000014H

; 762  : }

  00016	c3		 ret	 0
?guildGetbuildingInfo@@YAPAU_object@@PAU1@0@Z ENDP	; guildGetbuildingInfo
_TEXT	ENDS
; Function compile flags: /Ogtp
; File C:\Anka2Project\Anka2Project\Source\Binary\source\UserInterface\PythonGuild.cpp
;	COMDAT ?initguild@@YAXXZ
_TEXT	SEGMENT
?initguild@@YAXXZ PROC					; initguild, COMDAT

; 765  : {

  00000	56		 push	 esi
  00001	57		 push	 edi

; 766  : 	static PyMethodDef s_methods[] =
; 767  : 	{
; 768  : 		// Enable
; 769  : 		{ "IsGuildEnable",					guildIsGuildEnable,					METH_VARARGS },
; 770  : 		{ "GuildIDToMarkID",				guildGuildIDToMarkID,				METH_VARARGS },
; 771  : 		{ "GetMarkImageFilenameByMarkID",	guildGetMarkImageFilenameByMarkID,	METH_VARARGS },
; 772  : 		{ "GetMarkIndexByMarkID",			guildGetMarkIndexByMarkID,			METH_VARARGS },
; 773  : 		
; 774  : 		// GuildInfo
; 775  : 		{ "GetGuildID",						guildGetGuildID,					METH_VARARGS },
; 776  : 		{ "HasGuildLand",					guildHasGuildLand,					METH_VARARGS },
; 777  : 		{ "GetGuildName",					guildGetGuildName,					METH_VARARGS },
; 778  : 		{ "GetGuildMasterName",				guildGetGuildMasterName,			METH_VARARGS },
; 779  : 		{ "GetEnemyGuildName",				guildGetEnemyGuildName,				METH_VARARGS },
; 780  : 		{ "GetGuildMoney",					guildGetGuildMoney,					METH_VARARGS },
; 781  : 
; 782  : 		// BoardPage
; 783  : 		{ "GetGuildBoardCommentCount",		guildGetGuildBoardCommentCount,		METH_VARARGS },
; 784  : 		{ "GetGuildBoardCommentData",		guildGetGuildBoardCommentData,		METH_VARARGS },
; 785  : 
; 786  : 		// MemberPage
; 787  : 		{ "GetGuildLevel",					guildGetGuildLevel,					METH_VARARGS },
; 788  : 		{ "GetGuildExperience",				guildGetGuildExperience,			METH_VARARGS },
; 789  : 		{ "GetGuildMemberCount",			guildGetGuildMemberCount,			METH_VARARGS },
; 790  : 		{ "GetGuildMemberLevelSummary",		guildGetGuildMemberLevelSummary,	METH_VARARGS },
; 791  : 		{ "GetGuildMemberLevelAverage",		guildGetGuildMemberLevelAverage,	METH_VARARGS },
; 792  : 		{ "GetGuildExperienceSummary",		guildGetGuildExperienceSummary,		METH_VARARGS },
; 793  : 
; 794  : 		// SkillPage
; 795  : 		{ "GetGuildSkillPoint",				guildGetGuildSkillPoint,			METH_VARARGS },
; 796  : 		{ "GetDragonPowerPoint",			guildGetDragonPowerPoint,			METH_VARARGS },
; 797  : 		{ "GetGuildSkillLevel",				guildGetGuildSkillLevel,			METH_VARARGS },
; 798  : 		{ "GetSkillLevel",					guildGetSkillLevel,					METH_VARARGS },
; 799  : 		{ "GetSkillMaxLevelNew",			guildGetSkillMaxLevelNew,			METH_VARARGS },
; 800  : 
; 801  : 		{ "SetSkillIndex",					guildSetSkillIndex,					METH_VARARGS },
; 802  : 		{ "GetSkillIndex",					guildGetSkillIndex,					METH_VARARGS },
; 803  : 
; 804  : 		// GradePage
; 805  : 		{ "GetGradeData",					guildGetGradeData,					METH_VARARGS },
; 806  : 		{ "GetGradeName",					guildGetGradeName,					METH_VARARGS },
; 807  : 
; 808  : 		// About Member
; 809  : 		{ "GetMemberCount",					guildGetMemberCount,				METH_VARARGS },
; 810  : 		{ "GetMemberData",					guildGetMemberData,					METH_VARARGS },
; 811  : 		{ "MemberIndexToPID",				guildMemberIndexToPID,				METH_VARARGS },
; 812  : 		{ "IsMember",						guildIsMember,						METH_VARARGS },
; 813  : 		{ "IsMemberByName",					guildIsMemberByName,				METH_VARARGS },
; 814  : 		{ "MainPlayerHasAuthority",			guildMainPlayerHasAuthority,		METH_VARARGS },
; 815  : 
; 816  : 		// Guild
; 817  : 		{ "Destroy",						guildDestroy,						METH_VARARGS },
; 818  : 
; 819  : #ifdef ENABLE_GUILDRENEWAL_SYSTEM
; 820  : 		{ "GetWarRecode",					guildGetWarRecode,					METH_VARARGS },
; 821  : 		{ "GetGuildLadderRanking",			guildGetGuildLadderRanking,			METH_VARARGS },
; 822  : 		{ "GetBaseInfoBankGold",			guildGetBaseInfoBankGold,			METH_VARARGS },
; 823  : 		{ "GetBaseInfo",					guildGetBaseInfo,					METH_VARARGS },
; 824  : 		{ "GetbuildingInfo",				guildGetbuildingInfo,				METH_VARARGS },
; 825  : #endif
; 826  : 
; 827  : 		{ nullptr, nullptr },
; 828  : 	};
; 829  : 
; 830  : 	PyObject *poModule = Py_InitModule("guild", s_methods);

  00002	68 f5 03 00 00	 push	 1013			; 000003f5H
  00007	6a 00		 push	 0
  00009	6a 00		 push	 0
  0000b	68 00 00 00 00	 push	 OFFSET ?s_methods@?1??initguild@@YAXXZ@4PAUPyMethodDef@@A
  00010	68 00 00 00 00	 push	 OFFSET ??_C@_05GMIMCKGP@guild@
  00015	ff 15 00 00 00
	00		 call	 DWORD PTR __imp__Py_InitModule4

; 831  : 	PyModule_AddIntConstant(poModule, "AUTH_ADD_MEMBER", GUILD_AUTH_ADD_MEMBER);

  0001b	8b 35 00 00 00
	00		 mov	 esi, DWORD PTR __imp__PyModule_AddIntConstant
  00021	8b f8		 mov	 edi, eax
  00023	6a 01		 push	 1
  00025	68 00 00 00 00	 push	 OFFSET ??_C@_0BA@CDIOGLAE@AUTH_ADD_MEMBER@
  0002a	57		 push	 edi
  0002b	ff d6		 call	 esi

; 832  : 	PyModule_AddIntConstant(poModule, "AUTH_REMOVE_MEMBER", GUILD_AUTH_REMOVE_MEMBER);

  0002d	6a 02		 push	 2
  0002f	68 00 00 00 00	 push	 OFFSET ??_C@_0BD@EFPDFGGE@AUTH_REMOVE_MEMBER@
  00034	57		 push	 edi
  00035	ff d6		 call	 esi

; 833  : 	PyModule_AddIntConstant(poModule, "AUTH_NOTICE", GUILD_AUTH_NOTICE);

  00037	6a 04		 push	 4
  00039	68 00 00 00 00	 push	 OFFSET ??_C@_0M@EBNBJFNG@AUTH_NOTICE@
  0003e	57		 push	 edi
  0003f	ff d6		 call	 esi

; 834  : 	PyModule_AddIntConstant(poModule, "AUTH_SKILL", GUILD_AUTH_SKILL);

  00041	6a 08		 push	 8
  00043	68 00 00 00 00	 push	 OFFSET ??_C@_0L@LKLBOFFH@AUTH_SKILL@
  00048	57		 push	 edi
  00049	ff d6		 call	 esi
  0004b	83 c4 44	 add	 esp, 68			; 00000044H

; 835  : #ifdef ENABLE_GUILDRENEWAL_SYSTEM
; 836  : 	PyModule_AddIntConstant(poModule, "AUTH_WAR", GUILD_AUTH_WAR);

  0004e	6a 10		 push	 16			; 00000010H
  00050	68 00 00 00 00	 push	 OFFSET ??_C@_08OMAEPDDC@AUTH_WAR@
  00055	57		 push	 edi
  00056	ff d6		 call	 esi

; 837  : 	PyModule_AddIntConstant(poModule, "AUTH_BANK", GUILD_AUTH_BANK);

  00058	6a 20		 push	 32			; 00000020H
  0005a	68 00 00 00 00	 push	 OFFSET ??_C@_09GGIKIBFL@AUTH_BANK@
  0005f	57		 push	 edi
  00060	ff d6		 call	 esi

; 838  : #endif
; 839  : 
; 840  : 	PyModule_AddIntConstant(poModule, "ENEMY_GUILD_SLOT_MAX_COUNT", CPythonGuild::ENEMY_GUILD_SLOT_MAX_COUNT);

  00062	6a 06		 push	 6
  00064	68 00 00 00 00	 push	 OFFSET ??_C@_0BL@EBPMCBIK@ENEMY_GUILD_SLOT_MAX_COUNT@
  00069	57		 push	 edi
  0006a	ff d6		 call	 esi
  0006c	83 c4 24	 add	 esp, 36			; 00000024H
  0006f	5f		 pop	 edi
  00070	5e		 pop	 esi

; 841  : }

  00071	c3		 ret	 0
?initguild@@YAXXZ ENDP					; initguild
_TEXT	ENDS
END
