; Listing generated by Microsoft (R) Optimizing Compiler Version 19.44.35219.0 

	TITLE	c:\anka2project\anka2project\source\binary\vs_files\userinterface\release\pythonbackground.obj
	.686P
	.XMM
	include listing.inc
	.model	flat

INCLUDELIB OLDNAMES

PUBLIC	??_C@_0DF@GEMPMAOP@d?3?1ymir?5work?1effect?1etc?1directi@ ; `string'
PUBLIC	??_C@_0FF@DMIGEFGG@CPythonBackground?3?3SelectViewDi@ ; `string'
PUBLIC	??_C@_0BI@FJAIMBEC@CPythonBackground?5Clear@	; `string'
PUBLIC	??_C@_0O@EEKDAHG@AtlasInfo?4txt@		; `string'
PUBLIC	??_C@_08EMBNBNLN@property@			; `string'
PUBLIC	??_C@_08MOOMJPBO@Property@			; `string'
PUBLIC	??_C@_03EMIMMIHL@?$CK?4?$CK@			; `string'
PUBLIC	??_C@_0O@NAMKDHJD@pack?1property@		; `string'
PUBLIC	??_C@_0CC@FDBLKFI@NOT_FOUND_GLOBAL_POSITION?$CI?$CFd?0?5?$CF@ ; `string'
PUBLIC	??_C@_1KK@CCJDGFDK@?$AAC?$AA?3?$AA?2?$AAA?$AAn?$AAk?$AAa?$AA2?$AAP?$AAr?$AAo?$AAj?$AAe?$AAc?$AAt@ ; `string'
PUBLIC	??_C@_1HG@OJBJJMHC@?$AA?$CI?$AAd?$AAw?$AAX?$AA?5?$AA?$DO?$AA?$DN?$AA?5?$AAr?$AAM?$AAa?$AAp?$AAI?$AAn?$AAf@ ; `string'
PUBLIC	??_C@_0CL@JOLELNDN@d?3?1ymir?5work?1environment?1moonli@ ; `string'
PUBLIC	??_C@_1DG@LANFOGBA@?$AAi?$AAG?$AAr?$AAa?$AAd?$AAe?$AA?5?$AA?$DO?$AA?$DN?$AA?5?$AA0?$AA?5?$AA?$CG?$AA?$CG?$AA?5@ ; `string'
PUBLIC	??_C@_0P@EOAEHOGM@map_n_snowm_01@		; `string'
PUBLIC	??_C@_0CF@PCFPEOFC@d?3?1ymir?5work?1tree?1christmastree@ ; `string'
PUBLIC	??_C@_0CF@HEMLDMPM@d?3?1ymir?5work?1tree?1christmastree@ ; `string'
PUBLIC	??_C@_0CF@LPJHOPFJ@d?3?1ymir?5work?1tree?1christmastree@ ; `string'
PUBLIC	??_C@_0DD@NHFFJCJH@d?3?1ymir?5work?1effect?1etc?1christm@ ; `string'
PUBLIC	??_C@_0DD@OGLNIIAK@d?3?1ymir?5work?1effect?1etc?1christm@ ; `string'
PUBLIC	??_C@_0DD@EAMKIDLO@d?3?1ymir?5work?1effect?1etc?1christm@ ; `string'
PUBLIC	??_C@_0BH@EGLMCDHE@metin2_map_empirewar03@	; `string'
PUBLIC	??_C@_0BK@EILMEKBD@metin2_map_devilsCatacomb@	; `string'
PUBLIC	??_C@_0BG@IPFJPPHP@metin2_map_Mt_Thunder@	; `string'
PUBLIC	??_C@_0BO@LLDNLMOD@metin2_map_n_flame_dungeon_01@ ; `string'
PUBLIC	??_C@_0BN@DJOCBOB@metin2_map_n_snow_dungeon_01@	; `string'
PUBLIC	??_C@_0BM@FNBPDKAK@metin2_map_spiderdungeon_01@	; `string'
PUBLIC	??_C@_0BM@HGDCGJMJ@metin2_map_spiderdungeon_02@	; `string'
PUBLIC	??_C@_0BM@GPCJFIII@metin2_map_spiderdungeon_03@	; `string'
PUBLIC	??_C@_0BH@EOJPPMKE@metin2_map_deviltower1@	; `string'
PUBLIC	??_C@_0BP@FBPOOPOE@metin2_map_dawnmist_dungeon_01@ ; `string'
PUBLIC	??_C@_0BM@HFMBKOGD@metin2_map_Mt_Th_dungeon_01@	; `string'
PUBLIC	??_C@_0BC@PHGCCADE@metin2_12zi_stage@		; `string'
PUBLIC	??_C@_0BK@BLHADCMM@metin2_map_n_flame_dragon@	; `string'
PUBLIC	??_C@_0BH@PPKADDBG@metin2_map_defensewave@	; `string'
PUBLIC	??_C@_0BM@DMALCIAL@metin2_map_defensewave_port@	; `string'
PUBLIC	??_C@_0BL@DJCCLDDO@metin2_map_mists_of_island@	; `string'
PUBLIC	??_C@_0BH@PABKGKKD@metin2_map_miniboss_01@	; `string'
PUBLIC	??_C@_0BH@NLDHDJGA@metin2_map_miniboss_02@	; `string'
PUBLIC	??_C@_0BF@NKNFGHKP@metin2_map_labyrinth@	; `string'
PUBLIC	??_C@_0BN@IMGPNMFK@metin2_map_boss_crack_skipia@ ; `string'
PUBLIC	??_C@_0BM@BKNBOAGI@metin2_map_boss_crack_flame@	; `string'
PUBLIC	??_C@_0BL@IOFGIHGL@metin2_map_boss_crack_snow@	; `string'
PUBLIC	??_C@_0BP@LFLNPEJC@metin2_map_boss_crack_dawnmist@ ; `string'
PUBLIC	??_C@_0BO@GPAHEHOM@metin2_map_boss_awaken_skipia@ ; `string'
PUBLIC	??_C@_0BN@BBEBEEOA@metin2_map_boss_awaken_flame@ ; `string'
PUBLIC	??_C@_0BM@MFCNCOKE@metin2_map_boss_awaken_snow@	; `string'
PUBLIC	??_C@_0CA@GAPPFEAI@metin2_map_boss_awaken_dawnmist@ ; `string'
PUBLIC	??_C@_0BI@MGGMNDLE@metin2_map_elemental_01@	; `string'
PUBLIC	??_C@_0BI@ONEBIAHH@metin2_map_elemental_02@	; `string'
PUBLIC	??_C@_0BI@PEFKLBDG@metin2_map_elemental_03@	; `string'
PUBLIC	??_C@_0BI@LLBLCHPB@metin2_map_elemental_04@	; `string'
PUBLIC	??_C@_0BJ@PFBEHAAJ@metin2_map_smhdungeon_01@	; `string'
PUBLIC	??_C@_0BJ@NODJCDMK@metin2_map_smhdungeon_02@	; `string'
PUBLIC	??_C@_0BL@CFMCNICB@metin2_map_snake_temple_02@	; `string'
PUBLIC	??_C@_0BO@CNGFIGEM@metin2_map_whitedragoncave_01@ ; `string'
PUBLIC	??_C@_0BO@GEINFIP@metin2_map_whitedragoncave_02@ ; `string'
PUBLIC	??_C@_0CA@GDLDBDHP@metin2_map_whitedragoncave_boss@ ; `string'
PUBLIC	??_C@_0BN@HJBMAFG@metin2_map_anglar_dungeon_01@	; `string'
PUBLIC	??_C@_0BJ@BEEIJCBD@metin2_map_otherworld_01@	; `string'
PUBLIC	??_C@_0BJ@DPGFMBNA@metin2_map_otherworld_02@	; `string'
PUBLIC	??_C@_0BJ@CGHOPAJB@metin2_map_otherworld_03@	; `string'
PUBLIC	??_C@_0BJ@GJDPGGFG@metin2_map_otherworld_04@	; `string'
PUBLIC	??_C@_0BG@LNIPKABP@metin2_map_smhgate_a1@	; `string'
PUBLIC	??_C@_0BG@LPMJBOEG@metin2_map_smhgate_b1@	; `string'
PUBLIC	??_C@_0BG@LOALHEHB@metin2_map_smhgate_c1@	; `string'
PUBLIC	??_C@_0BM@GFDJFHHO@metin2_map_smhgate_threeway@	; `string'
PUBLIC	??_C@_0BK@LDECKJLI@metin2_map_smhgate_desert@	; `string'
PUBLIC	??_C@_0BJ@MCODKKJN@metin2_map_smhgate_flame@	; `string'
PUBLIC	??_C@_0BI@LBDHKIMD@metin2_map_smhgate_snow@	; `string'
PUBLIC	??_C@_0BK@GIINIBMN@metin2_map_smhgate_devils@	; `string'
PUBLIC	??_C@_0BM@MEPDLDHO@metin2_map_smhgate_dawnmist@	; `string'
PUBLIC	??_R2?$RangeTester@UCollisionChecker@@@@8	; RangeTester<CollisionChecker>::`RTTI Base Class Array'
PUBLIC	??_R2?$RangeTester@UCollisionAdjustChecker@@@@8	; RangeTester<CollisionAdjustChecker>::`RTTI Base Class Array'
PUBLIC	??_R2?$RangeTester@UFGetPortalID@@@@8		; RangeTester<FGetPortalID>::`RTTI Base Class Array'
PUBLIC	??_R2CPythonBackground@@8			; CPythonBackground::`RTTI Base Class Array'
PUBLIC	??_R2?$CSingleton@VCPythonBackground@@@@8	; CSingleton<CPythonBackground>::`RTTI Base Class Array'
PUBLIC	??_R2CMapManager@@8				; CMapManager::`RTTI Base Class Array'
PUBLIC	??_R2IPhysicsWorld@@8				; IPhysicsWorld::`RTTI Base Class Array'
PUBLIC	??_R2CScreen@@8					; CScreen::`RTTI Base Class Array'
PUBLIC	??_R2CGraphicCollisionObject@@8			; CGraphicCollisionObject::`RTTI Base Class Array'
PUBLIC	??_R2CGraphicBase@@8				; CGraphicBase::`RTTI Base Class Array'
PUBLIC	??_R1A@?0A@EA@?$RangeTester@UCollisionChecker@@@@8 ; RangeTester<CollisionChecker>::`RTTI Base Class Descriptor at (0,-1,0,64)'
PUBLIC	??_R1A@?0A@EA@?$RangeTester@UCollisionAdjustChecker@@@@8 ; RangeTester<CollisionAdjustChecker>::`RTTI Base Class Descriptor at (0,-1,0,64)'
PUBLIC	??_R1A@?0A@EA@?$RangeTester@UFGetPortalID@@@@8	; RangeTester<FGetPortalID>::`RTTI Base Class Descriptor at (0,-1,0,64)'
PUBLIC	??_R1BENI@?0A@EA@?$CSingleton@VCPythonBackground@@@@8 ; CSingleton<CPythonBackground>::`RTTI Base Class Descriptor at (5336,-1,0,64)'
PUBLIC	??_R1A@?0A@EA@CPythonBackground@@8		; CPythonBackground::`RTTI Base Class Descriptor at (0,-1,0,64)'
PUBLIC	??_R1A@?0A@EA@?$CSingleton@VCPythonBackground@@@@8 ; CSingleton<CPythonBackground>::`RTTI Base Class Descriptor at (0,-1,0,64)'
PUBLIC	??_R13?0A@EA@IPhysicsWorld@@8			; IPhysicsWorld::`RTTI Base Class Descriptor at (4,-1,0,64)'
PUBLIC	??_R1A@?0A@EA@CMapManager@@8			; CMapManager::`RTTI Base Class Descriptor at (0,-1,0,64)'
PUBLIC	??_R1A@?0A@EA@IPhysicsWorld@@8			; IPhysicsWorld::`RTTI Base Class Descriptor at (0,-1,0,64)'
PUBLIC	??_R1A@?0A@EA@CScreen@@8			; CScreen::`RTTI Base Class Descriptor at (0,-1,0,64)'
PUBLIC	??_R1A@?0A@EA@CGraphicCollisionObject@@8	; CGraphicCollisionObject::`RTTI Base Class Descriptor at (0,-1,0,64)'
PUBLIC	??_R1A@?0A@EA@CGraphicBase@@8			; CGraphicBase::`RTTI Base Class Descriptor at (0,-1,0,64)'
PUBLIC	??_R3?$RangeTester@UCollisionChecker@@@@8	; RangeTester<CollisionChecker>::`RTTI Class Hierarchy Descriptor'
PUBLIC	??_R0?AU?$RangeTester@UCollisionChecker@@@@@8	; RangeTester<CollisionChecker> `RTTI Type Descriptor'
PUBLIC	??_R3?$RangeTester@UCollisionAdjustChecker@@@@8	; RangeTester<CollisionAdjustChecker>::`RTTI Class Hierarchy Descriptor'
PUBLIC	??_R0?AU?$RangeTester@UCollisionAdjustChecker@@@@@8 ; RangeTester<CollisionAdjustChecker> `RTTI Type Descriptor'
PUBLIC	??_R3?$RangeTester@UFGetPortalID@@@@8		; RangeTester<FGetPortalID>::`RTTI Class Hierarchy Descriptor'
PUBLIC	??_R0?AU?$RangeTester@UFGetPortalID@@@@@8	; RangeTester<FGetPortalID> `RTTI Type Descriptor'
PUBLIC	??_R3?$CSingleton@VCPythonBackground@@@@8	; CSingleton<CPythonBackground>::`RTTI Class Hierarchy Descriptor'
PUBLIC	??_R0?AV?$CSingleton@VCPythonBackground@@@@@8	; CSingleton<CPythonBackground> `RTTI Type Descriptor'
PUBLIC	??_R3CMapManager@@8				; CMapManager::`RTTI Class Hierarchy Descriptor'
PUBLIC	??_R0?AVCMapManager@@@8				; CMapManager `RTTI Type Descriptor'
PUBLIC	??_R3CPythonBackground@@8			; CPythonBackground::`RTTI Class Hierarchy Descriptor'
PUBLIC	??_R0?AVCPythonBackground@@@8			; CPythonBackground `RTTI Type Descriptor'
PUBLIC	??_R3IPhysicsWorld@@8				; IPhysicsWorld::`RTTI Class Hierarchy Descriptor'
PUBLIC	??_R0?AVIPhysicsWorld@@@8			; IPhysicsWorld `RTTI Type Descriptor'
PUBLIC	??_R3CScreen@@8					; CScreen::`RTTI Class Hierarchy Descriptor'
PUBLIC	??_R0?AVCScreen@@@8				; CScreen `RTTI Type Descriptor'
PUBLIC	??_R3CGraphicCollisionObject@@8			; CGraphicCollisionObject::`RTTI Class Hierarchy Descriptor'
PUBLIC	??_R0?AVCGraphicCollisionObject@@@8		; CGraphicCollisionObject `RTTI Type Descriptor'
PUBLIC	??_R3CGraphicBase@@8				; CGraphicBase::`RTTI Class Hierarchy Descriptor'
PUBLIC	??_R0?AVCGraphicBase@@@8			; CGraphicBase `RTTI Type Descriptor'
PUBLIC	??_R4?$RangeTester@UCollisionChecker@@@@6B@	; RangeTester<CollisionChecker>::`RTTI Complete Object Locator'
PUBLIC	??_R4?$RangeTester@UCollisionAdjustChecker@@@@6B@ ; RangeTester<CollisionAdjustChecker>::`RTTI Complete Object Locator'
PUBLIC	??_R4?$RangeTester@UFGetPortalID@@@@6B@		; RangeTester<FGetPortalID>::`RTTI Complete Object Locator'
PUBLIC	??_R4?$CSingleton@VCPythonBackground@@@@6B@	; CSingleton<CPythonBackground>::`RTTI Complete Object Locator'
PUBLIC	??_R4CPythonBackground@@6B@			; CPythonBackground::`RTTI Complete Object Locator'
PUBLIC	??_R4CPythonBackground@@6BIPhysicsWorld@@@	; CPythonBackground::`RTTI Complete Object Locator'
PUBLIC	??_R4CPythonBackground@@6BCScreen@@@		; CPythonBackground::`RTTI Complete Object Locator'
PUBLIC	??_7?$RangeTester@UFGetPortalID@@@@6B@		; RangeTester<FGetPortalID>::`vftable'
PUBLIC	??_7?$RangeTester@UCollisionAdjustChecker@@@@6B@ ; RangeTester<CollisionAdjustChecker>::`vftable'
PUBLIC	??_7?$RangeTester@UCollisionChecker@@@@6B@	; RangeTester<CollisionChecker>::`vftable'
PUBLIC	??_7?$CSingleton@VCPythonBackground@@@@6B@	; CSingleton<CPythonBackground>::`vftable'
PUBLIC	?ms_singleton@?$CSingleton@VCPythonMiniMap@@@@0PAVCPythonMiniMap@@A ; CSingleton<CPythonMiniMap>::ms_singleton
PUBLIC	??_7CPythonBackground@@6B@			; CPythonBackground::`vftable'
PUBLIC	??_7CPythonBackground@@6BIPhysicsWorld@@@	; CPythonBackground::`vftable'
PUBLIC	??_7CPythonBackground@@6BCScreen@@@		; CPythonBackground::`vftable'
EXTRN	?GRAPHICS_CAPS_CAN_NOT_DRAW_SHADOW@@3_NA:BYTE	; GRAPHICS_CAPS_CAN_NOT_DRAW_SHADOW
EXTRN	?isPhysicalCollision@CMapManager@@UAE_NABUD3DXVECTOR3@@@Z:PROC ; CMapManager::isPhysicalCollision
EXTRN	?AllocMap@CMapManager@@UAEPAVCMapBase@@XZ:PROC	; CMapManager::AllocMap
EXTRN	?Clear@CMapManager@@UAEXXZ:PROC			; CMapManager::Clear
EXTRN	?RayTrace@SpherePackFactory@@QAEXABVVector3d@@0PAVSpherePackCallback@@@Z:PROC ; SpherePackFactory::RayTrace
EXTRN	?SpecialShopPosEffect_Create@CMapOutdoor@@QAEXKMMMPBD@Z:PROC ; CMapOutdoor::SpecialShopPosEffect_Create
EXTRN	?SpecialShopPosEffect_Delete@CMapOutdoor@@QAEXXZ:PROC ; CMapOutdoor::SpecialShopPosEffect_Delete
EXTRN	?SpecialEffect_Delete@CMapOutdoor@@QAEXK@Z:PROC	; CMapOutdoor::SpecialEffect_Delete
EXTRN	?GetBaseXY@CMapOutdoor@@QAEXPAK0@Z:PROC		; CMapOutdoor::GetBaseXY
EXTRN	?SpecialEffect_Create@CMapOutdoor@@QAEXKMMMPBD@Z:PROC ; CMapOutdoor::SpecialEffect_Create
EXTRN	?XMasTree_Set@CMapOutdoor@@QAEXMMMPBD0@Z:PROC	; CMapOutdoor::XMasTree_Set
EXTRN	?XMasTree_Destroy@CMapOutdoor@@QAEXXZ:PROC	; CMapOutdoor::XMasTree_Destroy
EXTRN	?Disable@CSnowEnvironment@@QAEXXZ:PROC		; CSnowEnvironment::Disable
EXTRN	?DisableMarkedArea@CMapOutdoor@@QAEXXZ:PROC	; CMapOutdoor::DisableMarkedArea
EXTRN	?Enable@CSnowEnvironment@@QAEXXZ:PROC		; CSnowEnvironment::Enable
EXTRN	?ResetEnvironmentDataPtr@CMapManager@@QAEXPBUSEnvironmentData@@@Z:PROC ; CMapManager::ResetEnvironmentDataPtr
EXTRN	?VisibleMarkedArea@CMapOutdoor@@QAEXXZ:PROC	; CMapOutdoor::VisibleMarkedArea
EXTRN	?RegisterEnvironmentData@CMapManager@@QAE_NKPBD@Z:PROC ; CMapManager::RegisterEnvironmentData
EXTRN	?GetEnvironmentData@CMapManager@@QAE_NKPAPBUSEnvironmentData@@@Z:PROC ; CMapManager::GetEnvironmentData
EXTRN	?EnablePortal@CMapOutdoor@@QAEX_N@Z:PROC	; CMapOutdoor::EnablePortal
EXTRN	?LoadMap@CMapManager@@UAE_NABV?$basic_string@DU?$char_traits@D@std@@V?$allocator@D@2@@std@@MMM@Z:PROC ; CMapManager::LoadMap
EXTRN	?SetLight@CStateManager@@QAEXKPBU_D3DLIGHT8@@@Z:PROC ; CStateManager::SetLight
EXTRN	?ClearGuildArea@CMapOutdoor@@QAEXXZ:PROC	; CMapOutdoor::ClearGuildArea
EXTRN	?RegisterGuildArea@CMapOutdoor@@QAEXHHHH@Z:PROC	; CMapOutdoor::RegisterGuildArea
EXTRN	?RenderBeforeLensFlare@CMapOutdoor@@QAEXXZ:PROC	; CMapOutdoor::RenderBeforeLensFlare
EXTRN	?RenderAfterLensFlare@CMapOutdoor@@QAEXXZ:PROC	; CMapOutdoor::RenderAfterLensFlare
EXTRN	?RenderWater@CMapOutdoor@@QAEXXZ:PROC		; CMapOutdoor::RenderWater
EXTRN	?RenderEffect@CMapOutdoor@@QAEXXZ:PROC		; CMapOutdoor::RenderEffect
EXTRN	?RenderSky@CMapOutdoor@@QAEXXZ:PROC		; CMapOutdoor::RenderSky
EXTRN	?RenderCloud@CMapOutdoor@@QAEXXZ:PROC		; CMapOutdoor::RenderCloud
EXTRN	?SetTransform@CStateManager@@QAEXW4_D3DTRANSFORMSTATETYPE@@PBU_D3DMATRIX@@@Z:PROC ; CStateManager::SetTransform
EXTRN	?EndRenderCharacterShadowToTexture@CMapOutdoor@@QAEXXZ:PROC ; CMapOutdoor::EndRenderCharacterShadowToTexture
EXTRN	?BeginRenderCharacterShadowToTexture@CMapOutdoor@@QAE_NXZ:PROC ; CMapOutdoor::BeginRenderCharacterShadowToTexture
EXTRN	?RenderCollision@CMapOutdoor@@QAEXXZ:PROC	; CMapOutdoor::RenderCollision
EXTRN	?GetTransform@CStateManager@@QAEXW4_D3DTRANSFORMSTATETYPE@@PAU_D3DMATRIX@@@Z:PROC ; CStateManager::GetTransform
EXTRN	?Render@CSnowEnvironment@@QAEXXZ:PROC		; CSnowEnvironment::Render
EXTRN	?RenderPCBlocker@CMapOutdoor@@QAEXXZ:PROC	; CMapOutdoor::RenderPCBlocker
EXTRN	?Render@CMapBase@@QAEXXZ:PROC			; CMapBase::Render
EXTRN	?RenderMarkedArea@CMapOutdoor@@QAEXXZ:PROC	; CMapOutdoor::RenderMarkedArea
EXTRN	?Deform@CSnowEnvironment@@QAEXXZ:PROC		; CSnowEnvironment::Deform
EXTRN	?RefreshPortal@CMapManager@@QAEXXZ:PROC		; CMapManager::RefreshPortal
EXTRN	?ClearPortal@CMapManager@@QAEXXZ:PROC		; CMapManager::ClearPortal
EXTRN	?AddShowingPortalID@CMapManager@@QAEXH@Z:PROC	; CMapManager::AddShowingPortalID
EXTRN	?UpdateAroundAmbience@CMapManager@@QAEXMMM@Z:PROC ; CMapManager::UpdateAroundAmbience
EXTRN	?Update@CSnowEnvironment@@QAEXABUD3DXVECTOR3@@@Z:PROC ; CSnowEnvironment::Update
EXTRN	?GetPortal@CGraphicObjectInstance@@QAEHK@Z:PROC	; CGraphicObjectInstance::GetPortal
EXTRN	?UpdateMap@CMapManager@@QAE_NMMM@Z:PROC		; CMapManager::UpdateMap
EXTRN	?Create@CMapManager@@QAEXXZ:PROC		; CMapManager::Create
EXTRN	?Create@CSnowEnvironment@@QAE_NXZ:PROC		; CSnowEnvironment::Create
EXTRN	?Destroy@CMapManager@@QAEXXZ:PROC		; CMapManager::Destroy
EXTRN	?Destroy@CSnowEnvironment@@QAEXXZ:PROC		; CSnowEnvironment::Destroy
EXTRN	?GetPickingPointWithRayOnlyTerrain@CMapOutdoor@@QAE_NABVCRay@@PAUD3DXVECTOR3@@@Z:PROC ; CMapOutdoor::GetPickingPointWithRayOnlyTerrain
EXTRN	?GetPickingPoint@CMapOutdoor@@QAE_NPAUD3DXVECTOR3@@@Z:PROC ; CMapOutdoor::GetPickingPoint
EXTRN	?GetPickingPointWithRay@CMapOutdoor@@QAE_NABVCRay@@PAUD3DXVECTOR3@@@Z:PROC ; CMapOutdoor::GetPickingPointWithRay
EXTRN	?SetPropertyManager@CPropertyLoader@@QAEXPAVCPropertyManager@@@Z:PROC ; CPropertyLoader::SetPropertyManager
EXTRN	?Create@CDir@@QAE_NPBD0H@Z:PROC			; CDir::Create
EXTRN	??0CPropertyLoader@@QAE@XZ:PROC			; CPropertyLoader::CPropertyLoader
EXTRN	??1CPropertyLoader@@UAE@XZ:PROC			; CPropertyLoader::~CPropertyLoader
EXTRN	?GetSearchMode@CEterPackManager@@QAEHXZ:PROC	; CEterPackManager::GetSearchMode
EXTRN	?Initialize@CPropertyManager@@QAE_NPBD@Z:PROC	; CPropertyManager::Initialize
EXTRN	?Initialize@CMapManager@@QAEXXZ:PROC		; CMapManager::Initialize
EXTRN	??0CSnowEnvironment@@QAE@XZ:PROC		; CSnowEnvironment::CSnowEnvironment
EXTRN	??1CSnowEnvironment@@UAE@XZ:PROC		; CSnowEnvironment::~CSnowEnvironment
EXTRN	??0CMapManager@@QAE@XZ:PROC			; CMapManager::CMapManager
EXTRN	??1CMapManager@@UAE@XZ:PROC			; CMapManager::~CMapManager
EXTRN	?SetEnvironmentSkyBox@CMapOutdoor@@QAEXXZ:PROC	; CMapOutdoor::SetEnvironmentSkyBox
EXTRN	?SetShadowTextureSize@CMapOutdoor@@QAEXG@Z:PROC	; CMapOutdoor::SetShadowTextureSize
EXTRN	?SetDrawCharacterShadow@CMapOutdoor@@QAEX_N@Z:PROC ; CMapOutdoor::SetDrawCharacterShadow
EXTRN	?SetDrawShadow@CMapOutdoor@@QAEX_N@Z:PROC	; CMapOutdoor::SetDrawShadow
EXTRN	?CreateCharacterShadowTexture@CMapOutdoor@@QAEXXZ:PROC ; CMapOutdoor::CreateCharacterShadowTexture
EXTRN	?ReleaseCharacterShadowTexture@CMapOutdoor@@QAEXXZ:PROC ; CMapOutdoor::ReleaseCharacterShadowTexture
EXTRN	?SetVisiblePart@CMapOutdoor@@QAEXH_N@Z:PROC	; CMapOutdoor::SetVisiblePart
EXTRN	?SetSplatLimit@CMapOutdoor@@QAEXH@Z:PROC	; CMapOutdoor::SetSplatLimit
EXTRN	?GetMapOutdoorRef@CMapManager@@QAEAAVCMapOutdoor@@XZ:PROC ; CMapManager::GetMapOutdoorRef
;	COMDAT ?ms_singleton@?$CSingleton@VCPythonMiniMap@@@@0PAVCPythonMiniMap@@A
_BSS	SEGMENT
?ms_singleton@?$CSingleton@VCPythonMiniMap@@@@0PAVCPythonMiniMap@@A DD 01H DUP (?) ; CSingleton<CPythonMiniMap>::ms_singleton
_BSS	ENDS
;	COMDAT ?s_isCreateProperty@?1??Create@CPythonBackground@@QAEXXZ@4HA
_BSS	SEGMENT
?s_isCreateProperty@?1??Create@CPythonBackground@@QAEXXZ@4HA DD 01H DUP (?) ; `CPythonBackground::Create'::`2'::s_isCreateProperty
_BSS	ENDS
;	COMDAT ??_7CPythonBackground@@6BCScreen@@@
CONST	SEGMENT
??_7CPythonBackground@@6BCScreen@@@ DD FLAT:??_R4CPythonBackground@@6BCScreen@@@ ; CPythonBackground::`vftable'
	DD	FLAT:??_ECPythonBackground@@UAEPAXI@Z
	DD	FLAT:?Clear@CMapManager@@UAEXXZ
	DD	FLAT:?AllocMap@CMapManager@@UAEPAVCMapBase@@XZ
	DD	FLAT:?LoadMap@CMapManager@@UAE_NABV?$basic_string@DU?$char_traits@D@std@@V?$allocator@D@2@@std@@MMM@Z
CONST	ENDS
;	COMDAT ??_7CPythonBackground@@6BIPhysicsWorld@@@
CONST	SEGMENT
??_7CPythonBackground@@6BIPhysicsWorld@@@ DD FLAT:??_R4CPythonBackground@@6BIPhysicsWorld@@@ ; CPythonBackground::`vftable'
	DD	FLAT:??_ECPythonBackground@@W3AEPAXI@Z
	DD	FLAT:?isPhysicalCollision@CMapManager@@UAE_NABUD3DXVECTOR3@@@Z
CONST	ENDS
;	COMDAT ??_7CPythonBackground@@6B@
CONST	SEGMENT
??_7CPythonBackground@@6B@ DD FLAT:??_R4CPythonBackground@@6B@ ; CPythonBackground::`vftable'
	DD	FLAT:??_ECPythonBackground@@WBENI@AEPAXI@Z
CONST	ENDS
;	COMDAT ??_7?$CSingleton@VCPythonBackground@@@@6B@
CONST	SEGMENT
??_7?$CSingleton@VCPythonBackground@@@@6B@ DD FLAT:??_R4?$CSingleton@VCPythonBackground@@@@6B@ ; CSingleton<CPythonBackground>::`vftable'
	DD	FLAT:??_E?$CSingleton@VCPythonBackground@@@@UAEPAXI@Z
CONST	ENDS
;	COMDAT ??_7?$RangeTester@UCollisionChecker@@@@6B@
CONST	SEGMENT
??_7?$RangeTester@UCollisionChecker@@@@6B@ DD FLAT:??_R4?$RangeTester@UCollisionChecker@@@@6B@ ; RangeTester<CollisionChecker>::`vftable'
	DD	FLAT:??_E?$RangeTester@UCollisionChecker@@@@UAEPAXI@Z
	DD	FLAT:?VisibilityCallback@?$RangeTester@UCollisionChecker@@@@UAEXABVFrustum@@PAVSpherePack@@W4ViewState@@@Z
	DD	FLAT:?RayTraceCallback@?$RangeTester@UCollisionChecker@@@@UAEXABVVector3d@@0M0PAVSpherePack@@@Z
	DD	FLAT:?RangeTestCallback@?$RangeTester@UCollisionChecker@@@@UAEXABVVector3d@@MPAVSpherePack@@W4ViewState@@@Z
	DD	FLAT:?PointTest2dCallback@?$RangeTester@UCollisionChecker@@@@UAEXABVVector3d@@PAVSpherePack@@W4ViewState@@@Z
CONST	ENDS
;	COMDAT ??_7?$RangeTester@UCollisionAdjustChecker@@@@6B@
CONST	SEGMENT
??_7?$RangeTester@UCollisionAdjustChecker@@@@6B@ DD FLAT:??_R4?$RangeTester@UCollisionAdjustChecker@@@@6B@ ; RangeTester<CollisionAdjustChecker>::`vftable'
	DD	FLAT:??_E?$RangeTester@UCollisionAdjustChecker@@@@UAEPAXI@Z
	DD	FLAT:?VisibilityCallback@?$RangeTester@UCollisionAdjustChecker@@@@UAEXABVFrustum@@PAVSpherePack@@W4ViewState@@@Z
	DD	FLAT:?RayTraceCallback@?$RangeTester@UCollisionAdjustChecker@@@@UAEXABVVector3d@@0M0PAVSpherePack@@@Z
	DD	FLAT:?RangeTestCallback@?$RangeTester@UCollisionAdjustChecker@@@@UAEXABVVector3d@@MPAVSpherePack@@W4ViewState@@@Z
	DD	FLAT:?PointTest2dCallback@?$RangeTester@UCollisionAdjustChecker@@@@UAEXABVVector3d@@PAVSpherePack@@W4ViewState@@@Z
CONST	ENDS
;	COMDAT ??_7?$RangeTester@UFGetPortalID@@@@6B@
CONST	SEGMENT
??_7?$RangeTester@UFGetPortalID@@@@6B@ DD FLAT:??_R4?$RangeTester@UFGetPortalID@@@@6B@ ; RangeTester<FGetPortalID>::`vftable'
	DD	FLAT:??_E?$RangeTester@UFGetPortalID@@@@UAEPAXI@Z
	DD	FLAT:?VisibilityCallback@?$RangeTester@UFGetPortalID@@@@UAEXABVFrustum@@PAVSpherePack@@W4ViewState@@@Z
	DD	FLAT:?RayTraceCallback@?$RangeTester@UFGetPortalID@@@@UAEXABVVector3d@@0M0PAVSpherePack@@@Z
	DD	FLAT:?RangeTestCallback@?$RangeTester@UFGetPortalID@@@@UAEXABVVector3d@@MPAVSpherePack@@W4ViewState@@@Z
	DD	FLAT:?PointTest2dCallback@?$RangeTester@UFGetPortalID@@@@UAEXABVVector3d@@PAVSpherePack@@W4ViewState@@@Z
CONST	ENDS
;	COMDAT ??_R4CPythonBackground@@6BCScreen@@@
rdata$r	SEGMENT
??_R4CPythonBackground@@6BCScreen@@@ DD 00H		; CPythonBackground::`RTTI Complete Object Locator'
	DD	00H
	DD	00H
	DD	FLAT:??_R0?AVCPythonBackground@@@8
	DD	FLAT:??_R3CPythonBackground@@8
rdata$r	ENDS
;	COMDAT ??_R4CPythonBackground@@6BIPhysicsWorld@@@
rdata$r	SEGMENT
??_R4CPythonBackground@@6BIPhysicsWorld@@@ DD 00H	; CPythonBackground::`RTTI Complete Object Locator'
	DD	04H
	DD	00H
	DD	FLAT:??_R0?AVCPythonBackground@@@8
	DD	FLAT:??_R3CPythonBackground@@8
rdata$r	ENDS
;	COMDAT ??_R4CPythonBackground@@6B@
rdata$r	SEGMENT
??_R4CPythonBackground@@6B@ DD 00H			; CPythonBackground::`RTTI Complete Object Locator'
	DD	014d8H
	DD	00H
	DD	FLAT:??_R0?AVCPythonBackground@@@8
	DD	FLAT:??_R3CPythonBackground@@8
rdata$r	ENDS
;	COMDAT ??_R4?$CSingleton@VCPythonBackground@@@@6B@
rdata$r	SEGMENT
??_R4?$CSingleton@VCPythonBackground@@@@6B@ DD 00H	; CSingleton<CPythonBackground>::`RTTI Complete Object Locator'
	DD	00H
	DD	00H
	DD	FLAT:??_R0?AV?$CSingleton@VCPythonBackground@@@@@8
	DD	FLAT:??_R3?$CSingleton@VCPythonBackground@@@@8
rdata$r	ENDS
;	COMDAT ??_R4?$RangeTester@UFGetPortalID@@@@6B@
rdata$r	SEGMENT
??_R4?$RangeTester@UFGetPortalID@@@@6B@ DD 00H		; RangeTester<FGetPortalID>::`RTTI Complete Object Locator'
	DD	00H
	DD	00H
	DD	FLAT:??_R0?AU?$RangeTester@UFGetPortalID@@@@@8
	DD	FLAT:??_R3?$RangeTester@UFGetPortalID@@@@8
rdata$r	ENDS
;	COMDAT ??_R4?$RangeTester@UCollisionAdjustChecker@@@@6B@
rdata$r	SEGMENT
??_R4?$RangeTester@UCollisionAdjustChecker@@@@6B@ DD 00H ; RangeTester<CollisionAdjustChecker>::`RTTI Complete Object Locator'
	DD	00H
	DD	00H
	DD	FLAT:??_R0?AU?$RangeTester@UCollisionAdjustChecker@@@@@8
	DD	FLAT:??_R3?$RangeTester@UCollisionAdjustChecker@@@@8
rdata$r	ENDS
;	COMDAT ??_R4?$RangeTester@UCollisionChecker@@@@6B@
rdata$r	SEGMENT
??_R4?$RangeTester@UCollisionChecker@@@@6B@ DD 00H	; RangeTester<CollisionChecker>::`RTTI Complete Object Locator'
	DD	00H
	DD	00H
	DD	FLAT:??_R0?AU?$RangeTester@UCollisionChecker@@@@@8
	DD	FLAT:??_R3?$RangeTester@UCollisionChecker@@@@8
rdata$r	ENDS
;	COMDAT ??_R0?AVCGraphicBase@@@8
data$rs	SEGMENT
??_R0?AVCGraphicBase@@@8 DD FLAT:??_7type_info@@6B@	; CGraphicBase `RTTI Type Descriptor'
	DD	00H
	DB	'.?AVCGraphicBase@@', 00H
data$rs	ENDS
;	COMDAT ??_R3CGraphicBase@@8
rdata$r	SEGMENT
??_R3CGraphicBase@@8 DD 00H				; CGraphicBase::`RTTI Class Hierarchy Descriptor'
	DD	00H
	DD	01H
	DD	FLAT:??_R2CGraphicBase@@8
rdata$r	ENDS
;	COMDAT ??_R0?AVCGraphicCollisionObject@@@8
data$rs	SEGMENT
??_R0?AVCGraphicCollisionObject@@@8 DD FLAT:??_7type_info@@6B@ ; CGraphicCollisionObject `RTTI Type Descriptor'
	DD	00H
	DB	'.?AVCGraphicCollisionObject@@', 00H
data$rs	ENDS
;	COMDAT ??_R3CGraphicCollisionObject@@8
rdata$r	SEGMENT
??_R3CGraphicCollisionObject@@8 DD 00H			; CGraphicCollisionObject::`RTTI Class Hierarchy Descriptor'
	DD	00H
	DD	02H
	DD	FLAT:??_R2CGraphicCollisionObject@@8
rdata$r	ENDS
;	COMDAT ??_R0?AVCScreen@@@8
data$rs	SEGMENT
??_R0?AVCScreen@@@8 DD FLAT:??_7type_info@@6B@		; CScreen `RTTI Type Descriptor'
	DD	00H
	DB	'.?AVCScreen@@', 00H
data$rs	ENDS
;	COMDAT ??_R3CScreen@@8
rdata$r	SEGMENT
??_R3CScreen@@8 DD 00H					; CScreen::`RTTI Class Hierarchy Descriptor'
	DD	00H
	DD	03H
	DD	FLAT:??_R2CScreen@@8
rdata$r	ENDS
;	COMDAT ??_R0?AVIPhysicsWorld@@@8
data$rs	SEGMENT
??_R0?AVIPhysicsWorld@@@8 DD FLAT:??_7type_info@@6B@	; IPhysicsWorld `RTTI Type Descriptor'
	DD	00H
	DB	'.?AVIPhysicsWorld@@', 00H
data$rs	ENDS
;	COMDAT ??_R3IPhysicsWorld@@8
rdata$r	SEGMENT
??_R3IPhysicsWorld@@8 DD 00H				; IPhysicsWorld::`RTTI Class Hierarchy Descriptor'
	DD	00H
	DD	01H
	DD	FLAT:??_R2IPhysicsWorld@@8
rdata$r	ENDS
;	COMDAT ??_R0?AVCPythonBackground@@@8
data$rs	SEGMENT
??_R0?AVCPythonBackground@@@8 DD FLAT:??_7type_info@@6B@ ; CPythonBackground `RTTI Type Descriptor'
	DD	00H
	DB	'.?AVCPythonBackground@@', 00H
data$rs	ENDS
;	COMDAT ??_R3CPythonBackground@@8
rdata$r	SEGMENT
??_R3CPythonBackground@@8 DD 00H			; CPythonBackground::`RTTI Class Hierarchy Descriptor'
	DD	01H
	DD	07H
	DD	FLAT:??_R2CPythonBackground@@8
rdata$r	ENDS
;	COMDAT ??_R0?AVCMapManager@@@8
data$rs	SEGMENT
??_R0?AVCMapManager@@@8 DD FLAT:??_7type_info@@6B@	; CMapManager `RTTI Type Descriptor'
	DD	00H
	DB	'.?AVCMapManager@@', 00H
data$rs	ENDS
;	COMDAT ??_R3CMapManager@@8
rdata$r	SEGMENT
??_R3CMapManager@@8 DD 00H				; CMapManager::`RTTI Class Hierarchy Descriptor'
	DD	01H
	DD	05H
	DD	FLAT:??_R2CMapManager@@8
rdata$r	ENDS
;	COMDAT ??_R0?AV?$CSingleton@VCPythonBackground@@@@@8
data$rs	SEGMENT
??_R0?AV?$CSingleton@VCPythonBackground@@@@@8 DD FLAT:??_7type_info@@6B@ ; CSingleton<CPythonBackground> `RTTI Type Descriptor'
	DD	00H
	DB	'.?AV?$CSingleton@VCPythonBackground@@@@', 00H
data$rs	ENDS
;	COMDAT ??_R3?$CSingleton@VCPythonBackground@@@@8
rdata$r	SEGMENT
??_R3?$CSingleton@VCPythonBackground@@@@8 DD 00H	; CSingleton<CPythonBackground>::`RTTI Class Hierarchy Descriptor'
	DD	00H
	DD	01H
	DD	FLAT:??_R2?$CSingleton@VCPythonBackground@@@@8
rdata$r	ENDS
;	COMDAT ??_R0?AU?$RangeTester@UFGetPortalID@@@@@8
data$rs	SEGMENT
??_R0?AU?$RangeTester@UFGetPortalID@@@@@8 DD FLAT:??_7type_info@@6B@ ; RangeTester<FGetPortalID> `RTTI Type Descriptor'
	DD	00H
	DB	'.?AU?$RangeTester@UFGetPortalID@@@@', 00H
data$rs	ENDS
;	COMDAT ??_R3?$RangeTester@UFGetPortalID@@@@8
rdata$r	SEGMENT
??_R3?$RangeTester@UFGetPortalID@@@@8 DD 00H		; RangeTester<FGetPortalID>::`RTTI Class Hierarchy Descriptor'
	DD	00H
	DD	02H
	DD	FLAT:??_R2?$RangeTester@UFGetPortalID@@@@8
rdata$r	ENDS
;	COMDAT ??_R0?AU?$RangeTester@UCollisionAdjustChecker@@@@@8
data$rs	SEGMENT
??_R0?AU?$RangeTester@UCollisionAdjustChecker@@@@@8 DD FLAT:??_7type_info@@6B@ ; RangeTester<CollisionAdjustChecker> `RTTI Type Descriptor'
	DD	00H
	DB	'.?AU?$RangeTester@UCollisionAdjustChecker@@@@', 00H
data$rs	ENDS
;	COMDAT ??_R3?$RangeTester@UCollisionAdjustChecker@@@@8
rdata$r	SEGMENT
??_R3?$RangeTester@UCollisionAdjustChecker@@@@8 DD 00H	; RangeTester<CollisionAdjustChecker>::`RTTI Class Hierarchy Descriptor'
	DD	00H
	DD	02H
	DD	FLAT:??_R2?$RangeTester@UCollisionAdjustChecker@@@@8
rdata$r	ENDS
;	COMDAT ??_R0?AU?$RangeTester@UCollisionChecker@@@@@8
data$rs	SEGMENT
??_R0?AU?$RangeTester@UCollisionChecker@@@@@8 DD FLAT:??_7type_info@@6B@ ; RangeTester<CollisionChecker> `RTTI Type Descriptor'
	DD	00H
	DB	'.?AU?$RangeTester@UCollisionChecker@@@@', 00H
data$rs	ENDS
;	COMDAT ??_R3?$RangeTester@UCollisionChecker@@@@8
rdata$r	SEGMENT
??_R3?$RangeTester@UCollisionChecker@@@@8 DD 00H	; RangeTester<CollisionChecker>::`RTTI Class Hierarchy Descriptor'
	DD	00H
	DD	02H
	DD	FLAT:??_R2?$RangeTester@UCollisionChecker@@@@8
rdata$r	ENDS
;	COMDAT ??_R1A@?0A@EA@CGraphicBase@@8
rdata$r	SEGMENT
??_R1A@?0A@EA@CGraphicBase@@8 DD FLAT:??_R0?AVCGraphicBase@@@8 ; CGraphicBase::`RTTI Base Class Descriptor at (0,-1,0,64)'
	DD	00H
	DD	00H
	DD	0ffffffffH
	DD	00H
	DD	040H
	DD	FLAT:??_R3CGraphicBase@@8
rdata$r	ENDS
;	COMDAT ??_R1A@?0A@EA@CGraphicCollisionObject@@8
rdata$r	SEGMENT
??_R1A@?0A@EA@CGraphicCollisionObject@@8 DD FLAT:??_R0?AVCGraphicCollisionObject@@@8 ; CGraphicCollisionObject::`RTTI Base Class Descriptor at (0,-1,0,64)'
	DD	01H
	DD	00H
	DD	0ffffffffH
	DD	00H
	DD	040H
	DD	FLAT:??_R3CGraphicCollisionObject@@8
rdata$r	ENDS
;	COMDAT ??_R1A@?0A@EA@CScreen@@8
rdata$r	SEGMENT
??_R1A@?0A@EA@CScreen@@8 DD FLAT:??_R0?AVCScreen@@@8	; CScreen::`RTTI Base Class Descriptor at (0,-1,0,64)'
	DD	02H
	DD	00H
	DD	0ffffffffH
	DD	00H
	DD	040H
	DD	FLAT:??_R3CScreen@@8
rdata$r	ENDS
;	COMDAT ??_R1A@?0A@EA@IPhysicsWorld@@8
rdata$r	SEGMENT
??_R1A@?0A@EA@IPhysicsWorld@@8 DD FLAT:??_R0?AVIPhysicsWorld@@@8 ; IPhysicsWorld::`RTTI Base Class Descriptor at (0,-1,0,64)'
	DD	00H
	DD	00H
	DD	0ffffffffH
	DD	00H
	DD	040H
	DD	FLAT:??_R3IPhysicsWorld@@8
rdata$r	ENDS
;	COMDAT ??_R1A@?0A@EA@CMapManager@@8
rdata$r	SEGMENT
??_R1A@?0A@EA@CMapManager@@8 DD FLAT:??_R0?AVCMapManager@@@8 ; CMapManager::`RTTI Base Class Descriptor at (0,-1,0,64)'
	DD	04H
	DD	00H
	DD	0ffffffffH
	DD	00H
	DD	040H
	DD	FLAT:??_R3CMapManager@@8
rdata$r	ENDS
;	COMDAT ??_R13?0A@EA@IPhysicsWorld@@8
rdata$r	SEGMENT
??_R13?0A@EA@IPhysicsWorld@@8 DD FLAT:??_R0?AVIPhysicsWorld@@@8 ; IPhysicsWorld::`RTTI Base Class Descriptor at (4,-1,0,64)'
	DD	00H
	DD	04H
	DD	0ffffffffH
	DD	00H
	DD	040H
	DD	FLAT:??_R3IPhysicsWorld@@8
rdata$r	ENDS
;	COMDAT ??_R1A@?0A@EA@?$CSingleton@VCPythonBackground@@@@8
rdata$r	SEGMENT
??_R1A@?0A@EA@?$CSingleton@VCPythonBackground@@@@8 DD FLAT:??_R0?AV?$CSingleton@VCPythonBackground@@@@@8 ; CSingleton<CPythonBackground>::`RTTI Base Class Descriptor at (0,-1,0,64)'
	DD	00H
	DD	00H
	DD	0ffffffffH
	DD	00H
	DD	040H
	DD	FLAT:??_R3?$CSingleton@VCPythonBackground@@@@8
rdata$r	ENDS
;	COMDAT ??_R1A@?0A@EA@CPythonBackground@@8
rdata$r	SEGMENT
??_R1A@?0A@EA@CPythonBackground@@8 DD FLAT:??_R0?AVCPythonBackground@@@8 ; CPythonBackground::`RTTI Base Class Descriptor at (0,-1,0,64)'
	DD	06H
	DD	00H
	DD	0ffffffffH
	DD	00H
	DD	040H
	DD	FLAT:??_R3CPythonBackground@@8
rdata$r	ENDS
;	COMDAT ??_R1BENI@?0A@EA@?$CSingleton@VCPythonBackground@@@@8
rdata$r	SEGMENT
??_R1BENI@?0A@EA@?$CSingleton@VCPythonBackground@@@@8 DD FLAT:??_R0?AV?$CSingleton@VCPythonBackground@@@@@8 ; CSingleton<CPythonBackground>::`RTTI Base Class Descriptor at (5336,-1,0,64)'
	DD	00H
	DD	014d8H
	DD	0ffffffffH
	DD	00H
	DD	040H
	DD	FLAT:??_R3?$CSingleton@VCPythonBackground@@@@8
rdata$r	ENDS
;	COMDAT ??_R1A@?0A@EA@?$RangeTester@UFGetPortalID@@@@8
rdata$r	SEGMENT
??_R1A@?0A@EA@?$RangeTester@UFGetPortalID@@@@8 DD FLAT:??_R0?AU?$RangeTester@UFGetPortalID@@@@@8 ; RangeTester<FGetPortalID>::`RTTI Base Class Descriptor at (0,-1,0,64)'
	DD	01H
	DD	00H
	DD	0ffffffffH
	DD	00H
	DD	040H
	DD	FLAT:??_R3?$RangeTester@UFGetPortalID@@@@8
rdata$r	ENDS
;	COMDAT ??_R1A@?0A@EA@?$RangeTester@UCollisionAdjustChecker@@@@8
rdata$r	SEGMENT
??_R1A@?0A@EA@?$RangeTester@UCollisionAdjustChecker@@@@8 DD FLAT:??_R0?AU?$RangeTester@UCollisionAdjustChecker@@@@@8 ; RangeTester<CollisionAdjustChecker>::`RTTI Base Class Descriptor at (0,-1,0,64)'
	DD	01H
	DD	00H
	DD	0ffffffffH
	DD	00H
	DD	040H
	DD	FLAT:??_R3?$RangeTester@UCollisionAdjustChecker@@@@8
rdata$r	ENDS
;	COMDAT ??_R1A@?0A@EA@?$RangeTester@UCollisionChecker@@@@8
rdata$r	SEGMENT
??_R1A@?0A@EA@?$RangeTester@UCollisionChecker@@@@8 DD FLAT:??_R0?AU?$RangeTester@UCollisionChecker@@@@@8 ; RangeTester<CollisionChecker>::`RTTI Base Class Descriptor at (0,-1,0,64)'
	DD	01H
	DD	00H
	DD	0ffffffffH
	DD	00H
	DD	040H
	DD	FLAT:??_R3?$RangeTester@UCollisionChecker@@@@8
rdata$r	ENDS
;	COMDAT ??_R2CGraphicBase@@8
rdata$r	SEGMENT
??_R2CGraphicBase@@8 DD FLAT:??_R1A@?0A@EA@CGraphicBase@@8 ; CGraphicBase::`RTTI Base Class Array'
rdata$r	ENDS
;	COMDAT ??_R2CGraphicCollisionObject@@8
rdata$r	SEGMENT
??_R2CGraphicCollisionObject@@8 DD FLAT:??_R1A@?0A@EA@CGraphicCollisionObject@@8 ; CGraphicCollisionObject::`RTTI Base Class Array'
	DD	FLAT:??_R1A@?0A@EA@CGraphicBase@@8
rdata$r	ENDS
;	COMDAT ??_R2CScreen@@8
rdata$r	SEGMENT
??_R2CScreen@@8 DD FLAT:??_R1A@?0A@EA@CScreen@@8	; CScreen::`RTTI Base Class Array'
	DD	FLAT:??_R1A@?0A@EA@CGraphicCollisionObject@@8
	DD	FLAT:??_R1A@?0A@EA@CGraphicBase@@8
rdata$r	ENDS
;	COMDAT ??_R2IPhysicsWorld@@8
rdata$r	SEGMENT
??_R2IPhysicsWorld@@8 DD FLAT:??_R1A@?0A@EA@IPhysicsWorld@@8 ; IPhysicsWorld::`RTTI Base Class Array'
rdata$r	ENDS
;	COMDAT ??_R2CMapManager@@8
rdata$r	SEGMENT
??_R2CMapManager@@8 DD FLAT:??_R1A@?0A@EA@CMapManager@@8 ; CMapManager::`RTTI Base Class Array'
	DD	FLAT:??_R1A@?0A@EA@CScreen@@8
	DD	FLAT:??_R1A@?0A@EA@CGraphicCollisionObject@@8
	DD	FLAT:??_R1A@?0A@EA@CGraphicBase@@8
	DD	FLAT:??_R13?0A@EA@IPhysicsWorld@@8
rdata$r	ENDS
;	COMDAT ??_R2?$CSingleton@VCPythonBackground@@@@8
rdata$r	SEGMENT
??_R2?$CSingleton@VCPythonBackground@@@@8 DD FLAT:??_R1A@?0A@EA@?$CSingleton@VCPythonBackground@@@@8 ; CSingleton<CPythonBackground>::`RTTI Base Class Array'
rdata$r	ENDS
;	COMDAT ??_R2CPythonBackground@@8
rdata$r	SEGMENT
??_R2CPythonBackground@@8 DD FLAT:??_R1A@?0A@EA@CPythonBackground@@8 ; CPythonBackground::`RTTI Base Class Array'
	DD	FLAT:??_R1A@?0A@EA@CMapManager@@8
	DD	FLAT:??_R1A@?0A@EA@CScreen@@8
	DD	FLAT:??_R1A@?0A@EA@CGraphicCollisionObject@@8
	DD	FLAT:??_R1A@?0A@EA@CGraphicBase@@8
	DD	FLAT:??_R13?0A@EA@IPhysicsWorld@@8
	DD	FLAT:??_R1BENI@?0A@EA@?$CSingleton@VCPythonBackground@@@@8
rdata$r	ENDS
;	COMDAT ??_R2?$RangeTester@UFGetPortalID@@@@8
rdata$r	SEGMENT
??_R2?$RangeTester@UFGetPortalID@@@@8 DD FLAT:??_R1A@?0A@EA@?$RangeTester@UFGetPortalID@@@@8 ; RangeTester<FGetPortalID>::`RTTI Base Class Array'
	DD	FLAT:??_R1A@?0A@EA@SpherePackCallback@@8
rdata$r	ENDS
;	COMDAT ??_R2?$RangeTester@UCollisionAdjustChecker@@@@8
rdata$r	SEGMENT
??_R2?$RangeTester@UCollisionAdjustChecker@@@@8 DD FLAT:??_R1A@?0A@EA@?$RangeTester@UCollisionAdjustChecker@@@@8 ; RangeTester<CollisionAdjustChecker>::`RTTI Base Class Array'
	DD	FLAT:??_R1A@?0A@EA@SpherePackCallback@@8
rdata$r	ENDS
;	COMDAT ??_R2?$RangeTester@UCollisionChecker@@@@8
rdata$r	SEGMENT
??_R2?$RangeTester@UCollisionChecker@@@@8 DD FLAT:??_R1A@?0A@EA@?$RangeTester@UCollisionChecker@@@@8 ; RangeTester<CollisionChecker>::`RTTI Base Class Array'
	DD	FLAT:??_R1A@?0A@EA@SpherePackCallback@@8
rdata$r	ENDS
;	COMDAT ??_C@_0BM@MEPDLDHO@metin2_map_smhgate_dawnmist@
CONST	SEGMENT
??_C@_0BM@MEPDLDHO@metin2_map_smhgate_dawnmist@ DB 'metin2_map_smhgate_da'
	DB	'wnmist', 00H				; `string'
CONST	ENDS
;	COMDAT ??_C@_0BK@GIINIBMN@metin2_map_smhgate_devils@
CONST	SEGMENT
??_C@_0BK@GIINIBMN@metin2_map_smhgate_devils@ DB 'metin2_map_smhgate_devi'
	DB	'ls', 00H					; `string'
CONST	ENDS
;	COMDAT ??_C@_0BI@LBDHKIMD@metin2_map_smhgate_snow@
CONST	SEGMENT
??_C@_0BI@LBDHKIMD@metin2_map_smhgate_snow@ DB 'metin2_map_smhgate_snow', 00H ; `string'
CONST	ENDS
;	COMDAT ??_C@_0BJ@MCODKKJN@metin2_map_smhgate_flame@
CONST	SEGMENT
??_C@_0BJ@MCODKKJN@metin2_map_smhgate_flame@ DB 'metin2_map_smhgate_flame'
	DB	00H						; `string'
CONST	ENDS
;	COMDAT ??_C@_0BK@LDECKJLI@metin2_map_smhgate_desert@
CONST	SEGMENT
??_C@_0BK@LDECKJLI@metin2_map_smhgate_desert@ DB 'metin2_map_smhgate_dese'
	DB	'rt', 00H					; `string'
CONST	ENDS
;	COMDAT ??_C@_0BM@GFDJFHHO@metin2_map_smhgate_threeway@
CONST	SEGMENT
??_C@_0BM@GFDJFHHO@metin2_map_smhgate_threeway@ DB 'metin2_map_smhgate_th'
	DB	'reeway', 00H				; `string'
CONST	ENDS
;	COMDAT ??_C@_0BG@LOALHEHB@metin2_map_smhgate_c1@
CONST	SEGMENT
??_C@_0BG@LOALHEHB@metin2_map_smhgate_c1@ DB 'metin2_map_smhgate_c1', 00H ; `string'
CONST	ENDS
;	COMDAT ??_C@_0BG@LPMJBOEG@metin2_map_smhgate_b1@
CONST	SEGMENT
??_C@_0BG@LPMJBOEG@metin2_map_smhgate_b1@ DB 'metin2_map_smhgate_b1', 00H ; `string'
CONST	ENDS
;	COMDAT ??_C@_0BG@LNIPKABP@metin2_map_smhgate_a1@
CONST	SEGMENT
??_C@_0BG@LNIPKABP@metin2_map_smhgate_a1@ DB 'metin2_map_smhgate_a1', 00H ; `string'
CONST	ENDS
;	COMDAT ??_C@_0BJ@GJDPGGFG@metin2_map_otherworld_04@
CONST	SEGMENT
??_C@_0BJ@GJDPGGFG@metin2_map_otherworld_04@ DB 'metin2_map_otherworld_04'
	DB	00H						; `string'
CONST	ENDS
;	COMDAT ??_C@_0BJ@CGHOPAJB@metin2_map_otherworld_03@
CONST	SEGMENT
??_C@_0BJ@CGHOPAJB@metin2_map_otherworld_03@ DB 'metin2_map_otherworld_03'
	DB	00H						; `string'
CONST	ENDS
;	COMDAT ??_C@_0BJ@DPGFMBNA@metin2_map_otherworld_02@
CONST	SEGMENT
??_C@_0BJ@DPGFMBNA@metin2_map_otherworld_02@ DB 'metin2_map_otherworld_02'
	DB	00H						; `string'
CONST	ENDS
;	COMDAT ??_C@_0BJ@BEEIJCBD@metin2_map_otherworld_01@
CONST	SEGMENT
??_C@_0BJ@BEEIJCBD@metin2_map_otherworld_01@ DB 'metin2_map_otherworld_01'
	DB	00H						; `string'
CONST	ENDS
;	COMDAT ??_C@_0BN@HJBMAFG@metin2_map_anglar_dungeon_01@
CONST	SEGMENT
??_C@_0BN@HJBMAFG@metin2_map_anglar_dungeon_01@ DB 'metin2_map_anglar_dun'
	DB	'geon_01', 00H				; `string'
CONST	ENDS
;	COMDAT ??_C@_0CA@GDLDBDHP@metin2_map_whitedragoncave_boss@
CONST	SEGMENT
??_C@_0CA@GDLDBDHP@metin2_map_whitedragoncave_boss@ DB 'metin2_map_whited'
	DB	'ragoncave_boss', 00H			; `string'
CONST	ENDS
;	COMDAT ??_C@_0BO@GEINFIP@metin2_map_whitedragoncave_02@
CONST	SEGMENT
??_C@_0BO@GEINFIP@metin2_map_whitedragoncave_02@ DB 'metin2_map_whitedrag'
	DB	'oncave_02', 00H				; `string'
CONST	ENDS
;	COMDAT ??_C@_0BO@CNGFIGEM@metin2_map_whitedragoncave_01@
CONST	SEGMENT
??_C@_0BO@CNGFIGEM@metin2_map_whitedragoncave_01@ DB 'metin2_map_whitedra'
	DB	'goncave_01', 00H				; `string'
CONST	ENDS
;	COMDAT ??_C@_0BL@CFMCNICB@metin2_map_snake_temple_02@
CONST	SEGMENT
??_C@_0BL@CFMCNICB@metin2_map_snake_temple_02@ DB 'metin2_map_snake_templ'
	DB	'e_02', 00H					; `string'
CONST	ENDS
;	COMDAT ??_C@_0BJ@NODJCDMK@metin2_map_smhdungeon_02@
CONST	SEGMENT
??_C@_0BJ@NODJCDMK@metin2_map_smhdungeon_02@ DB 'metin2_map_smhdungeon_02'
	DB	00H						; `string'
CONST	ENDS
;	COMDAT ??_C@_0BJ@PFBEHAAJ@metin2_map_smhdungeon_01@
CONST	SEGMENT
??_C@_0BJ@PFBEHAAJ@metin2_map_smhdungeon_01@ DB 'metin2_map_smhdungeon_01'
	DB	00H						; `string'
CONST	ENDS
;	COMDAT ??_C@_0BI@LLBLCHPB@metin2_map_elemental_04@
CONST	SEGMENT
??_C@_0BI@LLBLCHPB@metin2_map_elemental_04@ DB 'metin2_map_elemental_04', 00H ; `string'
CONST	ENDS
;	COMDAT ??_C@_0BI@PEFKLBDG@metin2_map_elemental_03@
CONST	SEGMENT
??_C@_0BI@PEFKLBDG@metin2_map_elemental_03@ DB 'metin2_map_elemental_03', 00H ; `string'
CONST	ENDS
;	COMDAT ??_C@_0BI@ONEBIAHH@metin2_map_elemental_02@
CONST	SEGMENT
??_C@_0BI@ONEBIAHH@metin2_map_elemental_02@ DB 'metin2_map_elemental_02', 00H ; `string'
CONST	ENDS
;	COMDAT ??_C@_0BI@MGGMNDLE@metin2_map_elemental_01@
CONST	SEGMENT
??_C@_0BI@MGGMNDLE@metin2_map_elemental_01@ DB 'metin2_map_elemental_01', 00H ; `string'
CONST	ENDS
;	COMDAT ??_C@_0CA@GAPPFEAI@metin2_map_boss_awaken_dawnmist@
CONST	SEGMENT
??_C@_0CA@GAPPFEAI@metin2_map_boss_awaken_dawnmist@ DB 'metin2_map_boss_a'
	DB	'waken_dawnmist', 00H			; `string'
CONST	ENDS
;	COMDAT ??_C@_0BM@MFCNCOKE@metin2_map_boss_awaken_snow@
CONST	SEGMENT
??_C@_0BM@MFCNCOKE@metin2_map_boss_awaken_snow@ DB 'metin2_map_boss_awake'
	DB	'n_snow', 00H				; `string'
CONST	ENDS
;	COMDAT ??_C@_0BN@BBEBEEOA@metin2_map_boss_awaken_flame@
CONST	SEGMENT
??_C@_0BN@BBEBEEOA@metin2_map_boss_awaken_flame@ DB 'metin2_map_boss_awak'
	DB	'en_flame', 00H				; `string'
CONST	ENDS
;	COMDAT ??_C@_0BO@GPAHEHOM@metin2_map_boss_awaken_skipia@
CONST	SEGMENT
??_C@_0BO@GPAHEHOM@metin2_map_boss_awaken_skipia@ DB 'metin2_map_boss_awa'
	DB	'ken_skipia', 00H				; `string'
CONST	ENDS
;	COMDAT ??_C@_0BP@LFLNPEJC@metin2_map_boss_crack_dawnmist@
CONST	SEGMENT
??_C@_0BP@LFLNPEJC@metin2_map_boss_crack_dawnmist@ DB 'metin2_map_boss_cr'
	DB	'ack_dawnmist', 00H				; `string'
CONST	ENDS
;	COMDAT ??_C@_0BL@IOFGIHGL@metin2_map_boss_crack_snow@
CONST	SEGMENT
??_C@_0BL@IOFGIHGL@metin2_map_boss_crack_snow@ DB 'metin2_map_boss_crack_'
	DB	'snow', 00H					; `string'
CONST	ENDS
;	COMDAT ??_C@_0BM@BKNBOAGI@metin2_map_boss_crack_flame@
CONST	SEGMENT
??_C@_0BM@BKNBOAGI@metin2_map_boss_crack_flame@ DB 'metin2_map_boss_crack'
	DB	'_flame', 00H				; `string'
CONST	ENDS
;	COMDAT ??_C@_0BN@IMGPNMFK@metin2_map_boss_crack_skipia@
CONST	SEGMENT
??_C@_0BN@IMGPNMFK@metin2_map_boss_crack_skipia@ DB 'metin2_map_boss_crac'
	DB	'k_skipia', 00H				; `string'
CONST	ENDS
;	COMDAT ??_C@_0BF@NKNFGHKP@metin2_map_labyrinth@
CONST	SEGMENT
??_C@_0BF@NKNFGHKP@metin2_map_labyrinth@ DB 'metin2_map_labyrinth', 00H ; `string'
CONST	ENDS
;	COMDAT ??_C@_0BH@NLDHDJGA@metin2_map_miniboss_02@
CONST	SEGMENT
??_C@_0BH@NLDHDJGA@metin2_map_miniboss_02@ DB 'metin2_map_miniboss_02', 00H ; `string'
CONST	ENDS
;	COMDAT ??_C@_0BH@PABKGKKD@metin2_map_miniboss_01@
CONST	SEGMENT
??_C@_0BH@PABKGKKD@metin2_map_miniboss_01@ DB 'metin2_map_miniboss_01', 00H ; `string'
CONST	ENDS
;	COMDAT ??_C@_0BL@DJCCLDDO@metin2_map_mists_of_island@
CONST	SEGMENT
??_C@_0BL@DJCCLDDO@metin2_map_mists_of_island@ DB 'metin2_map_mists_of_is'
	DB	'land', 00H					; `string'
CONST	ENDS
;	COMDAT ??_C@_0BM@DMALCIAL@metin2_map_defensewave_port@
CONST	SEGMENT
??_C@_0BM@DMALCIAL@metin2_map_defensewave_port@ DB 'metin2_map_defensewav'
	DB	'e_port', 00H				; `string'
CONST	ENDS
;	COMDAT ??_C@_0BH@PPKADDBG@metin2_map_defensewave@
CONST	SEGMENT
??_C@_0BH@PPKADDBG@metin2_map_defensewave@ DB 'metin2_map_defensewave', 00H ; `string'
CONST	ENDS
;	COMDAT ??_C@_0BK@BLHADCMM@metin2_map_n_flame_dragon@
CONST	SEGMENT
??_C@_0BK@BLHADCMM@metin2_map_n_flame_dragon@ DB 'metin2_map_n_flame_drag'
	DB	'on', 00H					; `string'
CONST	ENDS
;	COMDAT ??_C@_0BC@PHGCCADE@metin2_12zi_stage@
CONST	SEGMENT
??_C@_0BC@PHGCCADE@metin2_12zi_stage@ DB 'metin2_12zi_stage', 00H ; `string'
CONST	ENDS
;	COMDAT ??_C@_0BM@HFMBKOGD@metin2_map_Mt_Th_dungeon_01@
CONST	SEGMENT
??_C@_0BM@HFMBKOGD@metin2_map_Mt_Th_dungeon_01@ DB 'metin2_map_Mt_Th_dung'
	DB	'eon_01', 00H				; `string'
CONST	ENDS
;	COMDAT ??_C@_0BP@FBPOOPOE@metin2_map_dawnmist_dungeon_01@
CONST	SEGMENT
??_C@_0BP@FBPOOPOE@metin2_map_dawnmist_dungeon_01@ DB 'metin2_map_dawnmis'
	DB	't_dungeon_01', 00H				; `string'
CONST	ENDS
;	COMDAT ??_C@_0BH@EOJPPMKE@metin2_map_deviltower1@
CONST	SEGMENT
??_C@_0BH@EOJPPMKE@metin2_map_deviltower1@ DB 'metin2_map_deviltower1', 00H ; `string'
CONST	ENDS
;	COMDAT ??_C@_0BM@GPCJFIII@metin2_map_spiderdungeon_03@
CONST	SEGMENT
??_C@_0BM@GPCJFIII@metin2_map_spiderdungeon_03@ DB 'metin2_map_spiderdung'
	DB	'eon_03', 00H				; `string'
CONST	ENDS
;	COMDAT ??_C@_0BM@HGDCGJMJ@metin2_map_spiderdungeon_02@
CONST	SEGMENT
??_C@_0BM@HGDCGJMJ@metin2_map_spiderdungeon_02@ DB 'metin2_map_spiderdung'
	DB	'eon_02', 00H				; `string'
CONST	ENDS
;	COMDAT ??_C@_0BM@FNBPDKAK@metin2_map_spiderdungeon_01@
CONST	SEGMENT
??_C@_0BM@FNBPDKAK@metin2_map_spiderdungeon_01@ DB 'metin2_map_spiderdung'
	DB	'eon_01', 00H				; `string'
CONST	ENDS
;	COMDAT ??_C@_0BN@DJOCBOB@metin2_map_n_snow_dungeon_01@
CONST	SEGMENT
??_C@_0BN@DJOCBOB@metin2_map_n_snow_dungeon_01@ DB 'metin2_map_n_snow_dun'
	DB	'geon_01', 00H				; `string'
CONST	ENDS
;	COMDAT ??_C@_0BO@LLDNLMOD@metin2_map_n_flame_dungeon_01@
CONST	SEGMENT
??_C@_0BO@LLDNLMOD@metin2_map_n_flame_dungeon_01@ DB 'metin2_map_n_flame_'
	DB	'dungeon_01', 00H				; `string'
CONST	ENDS
;	COMDAT ??_C@_0BG@IPFJPPHP@metin2_map_Mt_Thunder@
CONST	SEGMENT
??_C@_0BG@IPFJPPHP@metin2_map_Mt_Thunder@ DB 'metin2_map_Mt_Thunder', 00H ; `string'
CONST	ENDS
;	COMDAT ??_C@_0BK@EILMEKBD@metin2_map_devilsCatacomb@
CONST	SEGMENT
??_C@_0BK@EILMEKBD@metin2_map_devilsCatacomb@ DB 'metin2_map_devilsCataco'
	DB	'mb', 00H					; `string'
CONST	ENDS
;	COMDAT ??_C@_0BH@EGLMCDHE@metin2_map_empirewar03@
CONST	SEGMENT
??_C@_0BH@EGLMCDHE@metin2_map_empirewar03@ DB 'metin2_map_empirewar03', 00H ; `string'
CONST	ENDS
;	COMDAT ??_C@_0DD@EAMKIDLO@d?3?1ymir?5work?1effect?1etc?1christm@
CONST	SEGMENT
??_C@_0DD@EAMKIDLO@d?3?1ymir?5work?1effect?1etc?1christm@ DB 'd:/ymir wor'
	DB	'k/effect/etc/christmas_tree/tree_3s.mse', 00H ; `string'
CONST	ENDS
;	COMDAT ??_C@_0DD@OGLNIIAK@d?3?1ymir?5work?1effect?1etc?1christm@
CONST	SEGMENT
??_C@_0DD@OGLNIIAK@d?3?1ymir?5work?1effect?1etc?1christm@ DB 'd:/ymir wor'
	DB	'k/effect/etc/christmas_tree/tree_2s.mse', 00H ; `string'
CONST	ENDS
;	COMDAT ??_C@_0DD@NHFFJCJH@d?3?1ymir?5work?1effect?1etc?1christm@
CONST	SEGMENT
??_C@_0DD@NHFFJCJH@d?3?1ymir?5work?1effect?1etc?1christm@ DB 'd:/ymir wor'
	DB	'k/effect/etc/christmas_tree/tree_1s.mse', 00H ; `string'
CONST	ENDS
;	COMDAT ??_C@_0CF@LPJHOPFJ@d?3?1ymir?5work?1tree?1christmastree@
CONST	SEGMENT
??_C@_0CF@LPJHOPFJ@d?3?1ymir?5work?1tree?1christmastree@ DB 'd:/ymir work'
	DB	'/tree/christmastree3.spt', 00H		; `string'
CONST	ENDS
;	COMDAT ??_C@_0CF@HEMLDMPM@d?3?1ymir?5work?1tree?1christmastree@
CONST	SEGMENT
??_C@_0CF@HEMLDMPM@d?3?1ymir?5work?1tree?1christmastree@ DB 'd:/ymir work'
	DB	'/tree/christmastree2.spt', 00H		; `string'
CONST	ENDS
;	COMDAT ??_C@_0CF@PCFPEOFC@d?3?1ymir?5work?1tree?1christmastree@
CONST	SEGMENT
??_C@_0CF@PCFPEOFC@d?3?1ymir?5work?1tree?1christmastree@ DB 'd:/ymir work'
	DB	'/tree/christmastree1.spt', 00H		; `string'
CONST	ENDS
;	COMDAT ??_C@_0P@EOAEHOGM@map_n_snowm_01@
CONST	SEGMENT
??_C@_0P@EOAEHOGM@map_n_snowm_01@ DB 'map_n_snowm_01', 00H ; `string'
CONST	ENDS
;	COMDAT ??_C@_1DG@LANFOGBA@?$AAi?$AAG?$AAr?$AAa?$AAd?$AAe?$AA?5?$AA?$DO?$AA?$DN?$AA?5?$AA0?$AA?5?$AA?$CG?$AA?$CG?$AA?5@
CONST	SEGMENT
??_C@_1DG@LANFOGBA@?$AAi?$AAG?$AAr?$AAa?$AAd?$AAe?$AA?5?$AA?$DO?$AA?$DN?$AA?5?$AA0?$AA?5?$AA?$CG?$AA?$CG?$AA?5@ DB 'i'
	DB	00H, 'G', 00H, 'r', 00H, 'a', 00H, 'd', 00H, 'e', 00H, ' ', 00H
	DB	'>', 00H, '=', 00H, ' ', 00H, '0', 00H, ' ', 00H, '&', 00H, '&'
	DB	00H, ' ', 00H, 'i', 00H, 'G', 00H, 'r', 00H, 'a', 00H, 'd', 00H
	DB	'e', 00H, ' ', 00H, '<', 00H, '=', 00H, ' ', 00H, '3', 00H, 00H
	DB	00H						; `string'
CONST	ENDS
;	COMDAT ??_C@_0CL@JOLELNDN@d?3?1ymir?5work?1environment?1moonli@
CONST	SEGMENT
??_C@_0CL@JOLELNDN@d?3?1ymir?5work?1environment?1moonli@ DB 'd:/ymir work'
	DB	'/environment/moonlight04.msenv', 00H	; `string'
CONST	ENDS
;	COMDAT ??_C@_1HG@OJBJJMHC@?$AA?$CI?$AAd?$AAw?$AAX?$AA?5?$AA?$DO?$AA?$DN?$AA?5?$AAr?$AAM?$AAa?$AAp?$AAI?$AAn?$AAf@
CONST	SEGMENT
??_C@_1HG@OJBJJMHC@?$AA?$CI?$AAd?$AAw?$AAX?$AA?5?$AA?$DO?$AA?$DN?$AA?5?$AAr?$AAM?$AAa?$AAp?$AAI?$AAn?$AAf@ DB '('
	DB	00H, 'd', 00H, 'w', 00H, 'X', 00H, ' ', 00H, '>', 00H, '=', 00H
	DB	' ', 00H, 'r', 00H, 'M', 00H, 'a', 00H, 'p', 00H, 'I', 00H, 'n'
	DB	00H, 'f', 00H, 'o', 00H, '.', 00H, 'm', 00H, '_', 00H, 'd', 00H
	DB	'w', 00H, 'B', 00H, 'a', 00H, 's', 00H, 'e', 00H, 'X', 00H, ')'
	DB	00H, ' ', 00H, '&', 00H, '&', 00H, ' ', 00H, '(', 00H, 'd', 00H
	DB	'w', 00H, 'Y', 00H, ' ', 00H, '>', 00H, '=', 00H, ' ', 00H, 'r'
	DB	00H, 'M', 00H, 'a', 00H, 'p', 00H, 'I', 00H, 'n', 00H, 'f', 00H
	DB	'o', 00H, '.', 00H, 'm', 00H, '_', 00H, 'd', 00H, 'w', 00H, 'B'
	DB	00H, 'a', 00H, 's', 00H, 'e', 00H, 'Y', 00H, ')', 00H, 00H, 00H ; `string'
CONST	ENDS
;	COMDAT ??_C@_1KK@CCJDGFDK@?$AAC?$AA?3?$AA?2?$AAA?$AAn?$AAk?$AAa?$AA2?$AAP?$AAr?$AAo?$AAj?$AAe?$AAc?$AAt@
CONST	SEGMENT
??_C@_1KK@CCJDGFDK@?$AAC?$AA?3?$AA?2?$AAA?$AAn?$AAk?$AAa?$AA2?$AAP?$AAr?$AAo?$AAj?$AAe?$AAc?$AAt@ DB 'C'
	DB	00H, ':', 00H, '\', 00H, 'A', 00H, 'n', 00H, 'k', 00H, 'a', 00H
	DB	'2', 00H, 'P', 00H, 'r', 00H, 'o', 00H, 'j', 00H, 'e', 00H, 'c'
	DB	00H, 't', 00H, '\', 00H, 'A', 00H, 'n', 00H, 'k', 00H, 'a', 00H
	DB	'2', 00H, 'P', 00H, 'r', 00H, 'o', 00H, 'j', 00H, 'e', 00H, 'c'
	DB	00H, 't', 00H, '\', 00H, 'S', 00H, 'o', 00H, 'u', 00H, 'r', 00H
	DB	'c', 00H, 'e', 00H, '\', 00H, 'B', 00H, 'i', 00H, 'n', 00H, 'a'
	DB	00H, 'r', 00H, 'y', 00H, '\', 00H, 's', 00H, 'o', 00H, 'u', 00H
	DB	'r', 00H, 'c', 00H, 'e', 00H, '\', 00H, 'U', 00H, 's', 00H, 'e'
	DB	00H, 'r', 00H, 'I', 00H, 'n', 00H, 't', 00H, 'e', 00H, 'r', 00H
	DB	'f', 00H, 'a', 00H, 'c', 00H, 'e', 00H, '\', 00H, 'P', 00H, 'y'
	DB	00H, 't', 00H, 'h', 00H, 'o', 00H, 'n', 00H, 'B', 00H, 'a', 00H
	DB	'c', 00H, 'k', 00H, 'g', 00H, 'r', 00H, 'o', 00H, 'u', 00H, 'n'
	DB	00H, 'd', 00H, '.', 00H, 'c', 00H, 'p', 00H, 'p', 00H, 00H, 00H ; `string'
CONST	ENDS
;	COMDAT ??_C@_0CC@FDBLKFI@NOT_FOUND_GLOBAL_POSITION?$CI?$CFd?0?5?$CF@
CONST	SEGMENT
??_C@_0CC@FDBLKFI@NOT_FOUND_GLOBAL_POSITION?$CI?$CFd?0?5?$CF@ DB 'NOT_FOU'
	DB	'ND_GLOBAL_POSITION(%d, %d)', 00H		; `string'
CONST	ENDS
;	COMDAT ??_C@_0O@NAMKDHJD@pack?1property@
CONST	SEGMENT
??_C@_0O@NAMKDHJD@pack?1property@ DB 'pack/property', 00H ; `string'
CONST	ENDS
;	COMDAT ??_C@_03EMIMMIHL@?$CK?4?$CK@
CONST	SEGMENT
??_C@_03EMIMMIHL@?$CK?4?$CK@ DB '*.*', 00H		; `string'
CONST	ENDS
;	COMDAT ??_C@_08MOOMJPBO@Property@
CONST	SEGMENT
??_C@_08MOOMJPBO@Property@ DB 'Property', 00H		; `string'
CONST	ENDS
;	COMDAT ??_C@_08EMBNBNLN@property@
CONST	SEGMENT
??_C@_08EMBNBNLN@property@ DB 'property', 00H		; `string'
CONST	ENDS
;	COMDAT ??_C@_0O@EEKDAHG@AtlasInfo?4txt@
CONST	SEGMENT
??_C@_0O@EEKDAHG@AtlasInfo?4txt@ DB 'AtlasInfo.txt', 00H ; `string'
CONST	ENDS
;	COMDAT ??_C@_0BI@FJAIMBEC@CPythonBackground?5Clear@
CONST	SEGMENT
??_C@_0BI@FJAIMBEC@CPythonBackground?5Clear@ DB 'CPythonBackground Clear', 00H ; `string'
CONST	ENDS
;	COMDAT ??_C@_0FF@DMIGEFGG@CPythonBackground?3?3SelectViewDi@
CONST	SEGMENT
??_C@_0FF@DMIGEFGG@CPythonBackground?3?3SelectViewDi@ DB 'CPythonBackgrou'
	DB	'nd::SelectViewDistanceNum(int eNum=%d) mc_pcurEnvironmentData'
	DB	' is NULL', 00H				; `string'
CONST	ENDS
;	COMDAT ??_C@_0DF@GEMPMAOP@d?3?1ymir?5work?1effect?1etc?1directi@
CONST	SEGMENT
??_C@_0DF@GEMPMAOP@d?3?1ymir?5work?1effect?1etc?1directi@ DB 'd:/ymir wor'
	DB	'k/effect/etc/direction/direction_land.mse', 00H ; `string'
PUBLIC	??$?8DU?$char_traits@D@std@@V?$allocator@D@1@@std@@YA_NABV?$basic_string@DU?$char_traits@D@std@@V?$allocator@D@2@@0@0@Z ; std::operator==<char,std::char_traits<char>,std::allocator<char> >
PUBLIC	?_Equal@?$basic_string@DU?$char_traits@D@std@@V?$allocator@D@2@@std@@QBE_NABV12@@Z ; std::basic_string<char,std::char_traits<char>,std::allocator<char> >::_Equal
PUBLIC	??$_Traits_equal@U?$char_traits@D@std@@@std@@YA_NQBDI0I@Z ; std::_Traits_equal<std::char_traits<char> >
PUBLIC	??_ECPythonBackground@@W3AEPAXI@Z		; [thunk]:CPythonBackground::`vector deleting destructor'
PUBLIC	??_ECPythonBackground@@WBENI@AEPAXI@Z		; [thunk]:CPythonBackground::`vector deleting destructor'
PUBLIC	??$construct_at@HAAH@std@@YAPAHQAHAAH@Z		; std::construct_at<int,int &>
PUBLIC	??$construct@HAAH@?$_Default_allocator_traits@V?$allocator@U?$_Tree_node@HPAX@std@@@std@@@std@@SAXAAV?$allocator@U?$_Tree_node@HPAX@std@@@1@QAHAAH@Z ; std::_Default_allocator_traits<std::allocator<std::_Tree_node<int,void *> > >::construct<int,int &>
PUBLIC	??$forward@USReserveTargetEffect@CPythonBackground@@@std@@YA$$QAUSReserveTargetEffect@CPythonBackground@@AAU12@@Z ; std::forward<CPythonBackground::SReserveTargetEffect>
PUBLIC	?_Get_first@?$_Compressed_pair@V?$allocator@U?$_Tree_node@U?$pair@$$CBKUSReserveTargetEffect@CPythonBackground@@@std@@PAX@std@@@std@@V?$_Tree_val@U?$_Tree_simple_types@U?$pair@$$CBKUSReserveTargetEffect@CPythonBackground@@@std@@@std@@@2@$00@std@@QBEABV?$allocator@U?$_Tree_node@U?$pair@$$CBKUSReserveTargetEffect@CPythonBackground@@@std@@PAX@std@@@2@XZ ; std::_Compressed_pair<std::allocator<std::_Tree_node<std::pair<unsigned long const ,CPythonBackground::SReserveTargetEffect>,void *> >,std::_Tree_val<std::_Tree_simple_types<std::pair<unsigned long const ,CPythonBackground::SReserveTargetEffect> > >,1>::_Get_first
PUBLIC	??$_Buynode@V?$allocator@U?$_Tree_node@HPAX@std@@@std@@AAH@?$_Tree_node@HPAX@std@@SAPAU01@AAV?$allocator@U?$_Tree_node@HPAX@std@@@1@PAU01@AAH@Z ; std::_Tree_node<int,void *>::_Buynode<std::allocator<std::_Tree_node<int,void *> >,int &>
PUBLIC	??$?0KUSReserveTargetEffect@CPythonBackground@@$0A@@?$pair@$$CBKUSReserveTargetEffect@CPythonBackground@@@std@@QAE@$$QAU?$pair@KUSReserveTargetEffect@CPythonBackground@@@1@@Z ; std::pair<unsigned long const ,CPythonBackground::SReserveTargetEffect>::pair<unsigned long const ,CPythonBackground::SReserveTargetEffect><unsigned long,CPythonBackground::SReserveTargetEffect,0>
PUBLIC	?_Get_first@?$_Compressed_pair@V?$allocator@U?$_Tree_node@V?$basic_string@DU?$char_traits@D@std@@V?$allocator@D@2@@std@@PAX@std@@@std@@V?$_Tree_val@U?$_Tree_simple_types@V?$basic_string@DU?$char_traits@D@std@@V?$allocator@D@2@@std@@@std@@@2@$00@std@@QBEABV?$allocator@U?$_Tree_node@V?$basic_string@DU?$char_traits@D@std@@V?$allocator@D@2@@std@@PAX@std@@@2@XZ ; std::_Compressed_pair<std::allocator<std::_Tree_node<std::basic_string<char,std::char_traits<char>,std::allocator<char> >,void *> >,std::_Tree_val<std::_Tree_simple_types<std::basic_string<char,std::char_traits<char>,std::allocator<char> > > >,1>::_Get_first
PUBLIC	?_Getal@?$_Tree@V?$_Tmap_traits@KUSReserveTargetEffect@CPythonBackground@@U?$less@K@std@@V?$allocator@U?$pair@$$CBKUSReserveTargetEffect@CPythonBackground@@@std@@@4@$0A@@std@@@std@@IBEABV?$allocator@U?$_Tree_node@U?$pair@$$CBKUSReserveTargetEffect@CPythonBackground@@@std@@PAX@std@@@2@XZ ; std::_Tree<std::_Tmap_traits<unsigned long,CPythonBackground::SReserveTargetEffect,std::less<unsigned long>,std::allocator<std::pair<unsigned long const ,CPythonBackground::SReserveTargetEffect> >,0> >::_Getal
PUBLIC	?max_size@?$_Default_allocator_traits@V?$allocator@U?$_Tree_node@U?$pair@$$CBKUSReserveTargetEffect@CPythonBackground@@@std@@PAX@std@@@std@@@std@@SAIABV?$allocator@U?$_Tree_node@U?$pair@$$CBKUSReserveTargetEffect@CPythonBackground@@@std@@PAX@std@@@2@@Z ; std::_Default_allocator_traits<std::allocator<std::_Tree_node<std::pair<unsigned long const ,CPythonBackground::SReserveTargetEffect>,void *> > >::max_size
PUBLIC	??0?$_Alloc_construct_ptr@V?$allocator@U?$_Tree_node@U?$pair@$$CBKUSReserveTargetEffect@CPythonBackground@@@std@@PAX@std@@@std@@@std@@QAE@AAV?$allocator@U?$_Tree_node@U?$pair@$$CBKUSReserveTargetEffect@CPythonBackground@@@std@@PAX@std@@@1@@Z ; std::_Alloc_construct_ptr<std::allocator<std::_Tree_node<std::pair<unsigned long const ,CPythonBackground::SReserveTargetEffect>,void *> > >::_Alloc_construct_ptr<std::allocator<std::_Tree_node<std::pair<unsigned long const ,CPythonBackground::SReserveTargetEffect>,void *> > >
PUBLIC	?_Allocate@?$_Alloc_construct_ptr@V?$allocator@U?$_Tree_node@U?$pair@$$CBKUSReserveTargetEffect@CPythonBackground@@@std@@PAX@std@@@std@@@std@@QAEXXZ ; std::_Alloc_construct_ptr<std::allocator<std::_Tree_node<std::pair<unsigned long const ,CPythonBackground::SReserveTargetEffect>,void *> > >::_Allocate
PUBLIC	??$_Get_size_of_n@$0CI@@std@@YAII@Z		; std::_Get_size_of_n<40>
PUBLIC	??$_Erase_tree_and_orphan@V?$allocator@U?$_Tree_node@HPAX@std@@@std@@@?$_Tree_val@U?$_Tree_simple_types@H@std@@@std@@QAEXAAV?$allocator@U?$_Tree_node@HPAX@std@@@1@PAU?$_Tree_node@HPAX@1@@Z ; std::_Tree_val<std::_Tree_simple_types<int> >::_Erase_tree_and_orphan<std::allocator<std::_Tree_node<int,void *> > >
PUBLIC	??$construct_at@PAU?$_Tree_node@HPAX@std@@ABQAU12@@std@@YAPAPAU?$_Tree_node@HPAX@0@QAPAU10@ABQAU10@@Z ; std::construct_at<std::_Tree_node<int,void *> *,std::_Tree_node<int,void *> * const &>
PUBLIC	??$forward@ABQAU?$_Tree_node@HPAX@std@@@std@@YAABQAU?$_Tree_node@HPAX@0@ABQAU10@@Z ; std::forward<std::_Tree_node<int,void *> * const &>
PUBLIC	??$construct_at@PAU?$_Tree_node@V?$basic_string@DU?$char_traits@D@std@@V?$allocator@D@2@@std@@PAX@std@@ABQAU12@@std@@YAPAPAU?$_Tree_node@V?$basic_string@DU?$char_traits@D@std@@V?$allocator@D@2@@std@@PAX@0@QAPAU10@ABQAU10@@Z ; std::construct_at<std::_Tree_node<std::basic_string<char,std::char_traits<char>,std::allocator<char> >,void *> *,std::_Tree_node<std::basic_string<char,std::char_traits<char>,std::allocator<char> >,void *> * const &>
PUBLIC	??$forward@ABQAU?$_Tree_node@V?$basic_string@DU?$char_traits@D@std@@V?$allocator@D@2@@std@@PAX@std@@@std@@YAABQAU?$_Tree_node@V?$basic_string@DU?$char_traits@D@std@@V?$allocator@D@2@@std@@PAX@0@ABQAU10@@Z ; std::forward<std::_Tree_node<std::basic_string<char,std::char_traits<char>,std::allocator<char> >,void *> * const &>
PUBLIC	??$construct_at@PAU?$_Tree_node@U?$pair@$$CBKUSReserveTargetEffect@CPythonBackground@@@std@@PAX@std@@ABQAU12@@std@@YAPAPAU?$_Tree_node@U?$pair@$$CBKUSReserveTargetEffect@CPythonBackground@@@std@@PAX@0@QAPAU10@ABQAU10@@Z ; std::construct_at<std::_Tree_node<std::pair<unsigned long const ,CPythonBackground::SReserveTargetEffect>,void *> *,std::_Tree_node<std::pair<unsigned long const ,CPythonBackground::SReserveTargetEffect>,void *> * const &>
PUBLIC	??$forward@ABQAU?$_Tree_node@U?$pair@$$CBKUSReserveTargetEffect@CPythonBackground@@@std@@PAX@std@@@std@@YAABQAU?$_Tree_node@U?$pair@$$CBKUSReserveTargetEffect@CPythonBackground@@@std@@PAX@0@ABQAU10@@Z ; std::forward<std::_Tree_node<std::pair<unsigned long const ,CPythonBackground::SReserveTargetEffect>,void *> * const &>
PUBLIC	??$_Buynode@AAH@?$_Tree@V?$_Tset_traits@HU?$less@H@std@@V?$allocator@H@2@$0A@@std@@@std@@IAEPAU?$_Tree_node@HPAX@1@AAH@Z ; std::_Tree<std::_Tset_traits<int,std::less<int>,std::allocator<int>,0> >::_Buynode<int &>
PUBLIC	??$construct_at@PAU?$_Tree_node@U?$pair@$$CBKUSReserveTargetEffect@CPythonBackground@@@std@@PAX@std@@AAPAU12@@std@@YAPAPAU?$_Tree_node@U?$pair@$$CBKUSReserveTargetEffect@CPythonBackground@@@std@@PAX@0@QAPAU10@AAPAU10@@Z ; std::construct_at<std::_Tree_node<std::pair<unsigned long const ,CPythonBackground::SReserveTargetEffect>,void *> *,std::_Tree_node<std::pair<unsigned long const ,CPythonBackground::SReserveTargetEffect>,void *> * &>
PUBLIC	??$addressof@PAU?$_Tree_node@U?$pair@$$CBKUSReserveTargetEffect@CPythonBackground@@@std@@PAX@std@@@std@@YAPAPAU?$_Tree_node@U?$pair@$$CBKUSReserveTargetEffect@CPythonBackground@@@std@@PAX@0@AAPAU10@@Z ; std::addressof<std::_Tree_node<std::pair<unsigned long const ,CPythonBackground::SReserveTargetEffect>,void *> *>
PUBLIC	??$construct_at@U?$pair@$$CBKUSReserveTargetEffect@CPythonBackground@@@std@@U?$pair@KUSReserveTargetEffect@CPythonBackground@@@2@@std@@YAPAU?$pair@$$CBKUSReserveTargetEffect@CPythonBackground@@@0@QAU10@$$QAU?$pair@KUSReserveTargetEffect@CPythonBackground@@@0@@Z ; std::construct_at<std::pair<unsigned long const ,CPythonBackground::SReserveTargetEffect>,std::pair<unsigned long,CPythonBackground::SReserveTargetEffect> >
PUBLIC	??0?$allocator@U?$_Tree_node@HPAX@std@@@std@@QAE@XZ ; std::allocator<std::_Tree_node<int,void *> >::allocator<std::_Tree_node<int,void *> >
PUBLIC	?deallocate@?$allocator@U?$_Tree_node@HPAX@std@@@std@@QAEXQAU?$_Tree_node@HPAX@2@I@Z ; std::allocator<std::_Tree_node<int,void *> >::deallocate
PUBLIC	?allocate@?$allocator@U?$_Tree_node@HPAX@std@@@std@@QAEPAU?$_Tree_node@HPAX@2@I@Z ; std::allocator<std::_Tree_node<int,void *> >::allocate
PUBLIC	?max_size@?$_Default_allocator_traits@V?$allocator@U?$_Tree_node@HPAX@std@@@std@@@std@@SAIABV?$allocator@U?$_Tree_node@HPAX@std@@@2@@Z ; std::_Default_allocator_traits<std::allocator<std::_Tree_node<int,void *> > >::max_size
PUBLIC	??0?$_Tree_val@U?$_Tree_simple_types@H@std@@@std@@QAE@XZ ; std::_Tree_val<std::_Tree_simple_types<int> >::_Tree_val<std::_Tree_simple_types<int> >
PUBLIC	?_Getal@?$_Tree@V?$_Tset_traits@V?$basic_string@DU?$char_traits@D@std@@V?$allocator@D@2@@std@@U?$less@V?$basic_string@DU?$char_traits@D@std@@V?$allocator@D@2@@std@@@2@V?$allocator@V?$basic_string@DU?$char_traits@D@std@@V?$allocator@D@2@@std@@@2@$0A@@std@@@std@@IBEABV?$allocator@U?$_Tree_node@V?$basic_string@DU?$char_traits@D@std@@V?$allocator@D@2@@std@@PAX@std@@@2@XZ ; std::_Tree<std::_Tset_traits<std::basic_string<char,std::char_traits<char>,std::allocator<char> >,std::less<std::basic_string<char,std::char_traits<char>,std::allocator<char> > >,std::allocator<std::basic_string<char,std::char_traits<char>,std::allocator<char> > >,0> >::_Getal
PUBLIC	??0?$allocator@U?$_Tree_node@V?$basic_string@DU?$char_traits@D@std@@V?$allocator@D@2@@std@@PAX@std@@@std@@QAE@XZ ; std::allocator<std::_Tree_node<std::basic_string<char,std::char_traits<char>,std::allocator<char> >,void *> >::allocator<std::_Tree_node<std::basic_string<char,std::char_traits<char>,std::allocator<char> >,void *> >
PUBLIC	?deallocate@?$allocator@U?$_Tree_node@V?$basic_string@DU?$char_traits@D@std@@V?$allocator@D@2@@std@@PAX@std@@@std@@QAEXQAU?$_Tree_node@V?$basic_string@DU?$char_traits@D@std@@V?$allocator@D@2@@std@@PAX@2@I@Z ; std::allocator<std::_Tree_node<std::basic_string<char,std::char_traits<char>,std::allocator<char> >,void *> >::deallocate
PUBLIC	?allocate@?$allocator@U?$_Tree_node@V?$basic_string@DU?$char_traits@D@std@@V?$allocator@D@2@@std@@PAX@std@@@std@@QAEPAU?$_Tree_node@V?$basic_string@DU?$char_traits@D@std@@V?$allocator@D@2@@std@@PAX@2@I@Z ; std::allocator<std::_Tree_node<std::basic_string<char,std::char_traits<char>,std::allocator<char> >,void *> >::allocate
PUBLIC	?max_size@?$_Default_allocator_traits@V?$allocator@U?$_Tree_node@V?$basic_string@DU?$char_traits@D@std@@V?$allocator@D@2@@std@@PAX@std@@@std@@@std@@SAIABV?$allocator@U?$_Tree_node@V?$basic_string@DU?$char_traits@D@std@@V?$allocator@D@2@@std@@PAX@std@@@2@@Z ; std::_Default_allocator_traits<std::allocator<std::_Tree_node<std::basic_string<char,std::char_traits<char>,std::allocator<char> >,void *> > >::max_size
PUBLIC	??0?$_Tree_val@U?$_Tree_simple_types@V?$basic_string@DU?$char_traits@D@std@@V?$allocator@D@2@@std@@@std@@@std@@QAE@XZ ; std::_Tree_val<std::_Tree_simple_types<std::basic_string<char,std::char_traits<char>,std::allocator<char> > > >::_Tree_val<std::_Tree_simple_types<std::basic_string<char,std::char_traits<char>,std::allocator<char> > > >
PUBLIC	?_Get_first@?$_Compressed_pair@U?$less@V?$basic_string@DU?$char_traits@D@std@@V?$allocator@D@2@@std@@@std@@V?$_Compressed_pair@V?$allocator@U?$_Tree_node@V?$basic_string@DU?$char_traits@D@std@@V?$allocator@D@2@@std@@PAX@std@@@std@@V?$_Tree_val@U?$_Tree_simple_types@V?$basic_string@DU?$char_traits@D@std@@V?$allocator@D@2@@std@@@std@@@2@$00@2@$00@std@@QBEABU?$less@V?$basic_string@DU?$char_traits@D@std@@V?$allocator@D@2@@std@@@2@XZ ; std::_Compressed_pair<std::less<std::basic_string<char,std::char_traits<char>,std::allocator<char> > >,std::_Compressed_pair<std::allocator<std::_Tree_node<std::basic_string<char,std::char_traits<char>,std::allocator<char> >,void *> >,std::_Tree_val<std::_Tree_simple_types<std::basic_string<char,std::char_traits<char>,std::allocator<char> > > >,1>,1>::_Get_first
PUBLIC	?max_size@?$_Tree@V?$_Tmap_traits@KUSReserveTargetEffect@CPythonBackground@@U?$less@K@std@@V?$allocator@U?$pair@$$CBKUSReserveTargetEffect@CPythonBackground@@@std@@@4@$0A@@std@@@std@@QBEIXZ ; std::_Tree<std::_Tmap_traits<unsigned long,CPythonBackground::SReserveTargetEffect,std::less<unsigned long>,std::allocator<std::pair<unsigned long const ,CPythonBackground::SReserveTargetEffect> >,0> >::max_size
PUBLIC	??0?$allocator@U?$_Tree_node@U?$pair@$$CBKUSReserveTargetEffect@CPythonBackground@@@std@@PAX@std@@@std@@QAE@XZ ; std::allocator<std::_Tree_node<std::pair<unsigned long const ,CPythonBackground::SReserveTargetEffect>,void *> >::allocator<std::_Tree_node<std::pair<unsigned long const ,CPythonBackground::SReserveTargetEffect>,void *> >
PUBLIC	?deallocate@?$allocator@U?$_Tree_node@U?$pair@$$CBKUSReserveTargetEffect@CPythonBackground@@@std@@PAX@std@@@std@@QAEXQAU?$_Tree_node@U?$pair@$$CBKUSReserveTargetEffect@CPythonBackground@@@std@@PAX@2@I@Z ; std::allocator<std::_Tree_node<std::pair<unsigned long const ,CPythonBackground::SReserveTargetEffect>,void *> >::deallocate
PUBLIC	?allocate@?$allocator@U?$_Tree_node@U?$pair@$$CBKUSReserveTargetEffect@CPythonBackground@@@std@@PAX@std@@@std@@QAEPAU?$_Tree_node@U?$pair@$$CBKUSReserveTargetEffect@CPythonBackground@@@std@@PAX@2@I@Z ; std::allocator<std::_Tree_node<std::pair<unsigned long const ,CPythonBackground::SReserveTargetEffect>,void *> >::allocate
PUBLIC	??0?$_Tree_val@U?$_Tree_simple_types@U?$pair@$$CBKUSReserveTargetEffect@CPythonBackground@@@std@@@std@@@std@@QAE@XZ ; std::_Tree_val<std::_Tree_simple_types<std::pair<unsigned long const ,CPythonBackground::SReserveTargetEffect> > >::_Tree_val<std::_Tree_simple_types<std::pair<unsigned long const ,CPythonBackground::SReserveTargetEffect> > >
PUBLIC	??0?$_Alloc_construct_ptr@V?$allocator@U?$_Tree_node@HPAX@std@@@std@@@std@@QAE@AAV?$allocator@U?$_Tree_node@HPAX@std@@@1@@Z ; std::_Alloc_construct_ptr<std::allocator<std::_Tree_node<int,void *> > >::_Alloc_construct_ptr<std::allocator<std::_Tree_node<int,void *> > >
PUBLIC	?_Allocate@?$_Alloc_construct_ptr@V?$allocator@U?$_Tree_node@HPAX@std@@@std@@@std@@QAEXXZ ; std::_Alloc_construct_ptr<std::allocator<std::_Tree_node<int,void *> > >::_Allocate
PUBLIC	??0?$_Alloc_construct_ptr@V?$allocator@U?$_Tree_node@V?$basic_string@DU?$char_traits@D@std@@V?$allocator@D@2@@std@@PAX@std@@@std@@@std@@QAE@AAV?$allocator@U?$_Tree_node@V?$basic_string@DU?$char_traits@D@std@@V?$allocator@D@2@@std@@PAX@std@@@1@@Z ; std::_Alloc_construct_ptr<std::allocator<std::_Tree_node<std::basic_string<char,std::char_traits<char>,std::allocator<char> >,void *> > >::_Alloc_construct_ptr<std::allocator<std::_Tree_node<std::basic_string<char,std::char_traits<char>,std::allocator<char> >,void *> > >
PUBLIC	?_Allocate@?$_Alloc_construct_ptr@V?$allocator@U?$_Tree_node@V?$basic_string@DU?$char_traits@D@std@@V?$allocator@D@2@@std@@PAX@std@@@std@@@std@@QAEXXZ ; std::_Alloc_construct_ptr<std::allocator<std::_Tree_node<std::basic_string<char,std::char_traits<char>,std::allocator<char> >,void *> > >::_Allocate
PUBLIC	??0?$_Tree_temp_node_alloc@V?$allocator@U?$_Tree_node@U?$pair@$$CBKUSReserveTargetEffect@CPythonBackground@@@std@@PAX@std@@@std@@@std@@QAE@AAV?$allocator@U?$_Tree_node@U?$pair@$$CBKUSReserveTargetEffect@CPythonBackground@@@std@@PAX@std@@@1@@Z ; std::_Tree_temp_node_alloc<std::allocator<std::_Tree_node<std::pair<unsigned long const ,CPythonBackground::SReserveTargetEffect>,void *> > >::_Tree_temp_node_alloc<std::allocator<std::_Tree_node<std::pair<unsigned long const ,CPythonBackground::SReserveTargetEffect>,void *> > >
PUBLIC	??1?$_Alloc_construct_ptr@V?$allocator@U?$_Tree_node@U?$pair@$$CBKUSReserveTargetEffect@CPythonBackground@@@std@@PAX@std@@@std@@@std@@QAE@XZ ; std::_Alloc_construct_ptr<std::allocator<std::_Tree_node<std::pair<unsigned long const ,CPythonBackground::SReserveTargetEffect>,void *> > >::~_Alloc_construct_ptr<std::allocator<std::_Tree_node<std::pair<unsigned long const ,CPythonBackground::SReserveTargetEffect>,void *> > >
PUBLIC	??1?$_Erase_tree_and_orphan_guard@V?$allocator@U?$_Tree_node@HPAX@std@@@std@@@?$_Tree_val@U?$_Tree_simple_types@H@std@@@std@@QAE@XZ ; std::_Tree_val<std::_Tree_simple_types<int> >::_Erase_tree_and_orphan_guard<std::allocator<std::_Tree_node<int,void *> > >::~_Erase_tree_and_orphan_guard<std::allocator<std::_Tree_node<int,void *> > >
PUBLIC	??$exchange@PAU?$_Tree_node@U?$pair@$$CBKUSReserveTargetEffect@CPythonBackground@@@std@@PAX@std@@$$T@std@@YAPAU?$_Tree_node@U?$pair@$$CBKUSReserveTargetEffect@CPythonBackground@@@std@@PAX@0@AAPAU10@$$QA$$T@Z ; std::exchange<std::_Tree_node<std::pair<unsigned long const ,CPythonBackground::SReserveTargetEffect>,void *> *,std::nullptr_t>
PUBLIC	??$_Construct_in_place@PAU?$_Tree_node@HPAX@std@@ABQAU12@@std@@YAXAAPAU?$_Tree_node@HPAX@0@ABQAU10@@Z ; std::_Construct_in_place<std::_Tree_node<int,void *> *,std::_Tree_node<int,void *> * const &>
PUBLIC	??$_Construct_in_place@PAU?$_Tree_node@V?$basic_string@DU?$char_traits@D@std@@V?$allocator@D@2@@std@@PAX@std@@ABQAU12@@std@@YAXAAPAU?$_Tree_node@V?$basic_string@DU?$char_traits@D@std@@V?$allocator@D@2@@std@@PAX@0@ABQAU10@@Z ; std::_Construct_in_place<std::_Tree_node<std::basic_string<char,std::char_traits<char>,std::allocator<char> >,void *> *,std::_Tree_node<std::basic_string<char,std::char_traits<char>,std::allocator<char> >,void *> * const &>
PUBLIC	??$_Construct_in_place@PAU?$_Tree_node@U?$pair@$$CBKUSReserveTargetEffect@CPythonBackground@@@std@@PAX@std@@ABQAU12@@std@@YAXAAPAU?$_Tree_node@U?$pair@$$CBKUSReserveTargetEffect@CPythonBackground@@@std@@PAX@0@ABQAU10@@Z ; std::_Construct_in_place<std::_Tree_node<std::pair<unsigned long const ,CPythonBackground::SReserveTargetEffect>,void *> *,std::_Tree_node<std::pair<unsigned long const ,CPythonBackground::SReserveTargetEffect>,void *> * const &>
PUBLIC	??$_Copy_or_move@$0A@H@?$_Tree@V?$_Tset_traits@HU?$less@H@std@@V?$allocator@H@2@$0A@@std@@@std@@IAEPAU?$_Tree_node@HPAX@1@AAH@Z ; std::_Tree<std::_Tset_traits<int,std::less<int>,std::allocator<int>,0> >::_Copy_or_move<0,int>
PUBLIC	??$destroy_at@H@std@@YAXQAH@Z			; std::destroy_at<int>
PUBLIC	??$destroy_at@U?$pair@$$CBKUSReserveTargetEffect@CPythonBackground@@@std@@@std@@YAXQAU?$pair@$$CBKUSReserveTargetEffect@CPythonBackground@@@0@@Z ; std::destroy_at<std::pair<unsigned long const ,CPythonBackground::SReserveTargetEffect> >
PUBLIC	??$forward@PAU?$_Tree_node@U?$pair@$$CBKUSReserveTargetEffect@CPythonBackground@@@std@@PAX@std@@@std@@YA$$QAPAU?$_Tree_node@U?$pair@$$CBKUSReserveTargetEffect@CPythonBackground@@@std@@PAX@0@AAPAU10@@Z ; std::forward<std::_Tree_node<std::pair<unsigned long const ,CPythonBackground::SReserveTargetEffect>,void *> *>
PUBLIC	??$_Construct_in_place@PAU?$_Tree_node@U?$pair@$$CBKUSReserveTargetEffect@CPythonBackground@@@std@@PAX@std@@AAPAU12@@std@@YAXAAPAU?$_Tree_node@U?$pair@$$CBKUSReserveTargetEffect@CPythonBackground@@@std@@PAX@0@0@Z ; std::_Construct_in_place<std::_Tree_node<std::pair<unsigned long const ,CPythonBackground::SReserveTargetEffect>,void *> *,std::_Tree_node<std::pair<unsigned long const ,CPythonBackground::SReserveTargetEffect>,void *> * &>
PUBLIC	??$construct@U?$pair@$$CBKUSReserveTargetEffect@CPythonBackground@@@std@@U?$pair@KUSReserveTargetEffect@CPythonBackground@@@2@@?$_Default_allocator_traits@V?$allocator@U?$_Tree_node@U?$pair@$$CBKUSReserveTargetEffect@CPythonBackground@@@std@@PAX@std@@@std@@@std@@SAXAAV?$allocator@U?$_Tree_node@U?$pair@$$CBKUSReserveTargetEffect@CPythonBackground@@@std@@PAX@std@@@1@QAU?$pair@$$CBKUSReserveTargetEffect@CPythonBackground@@@1@$$QAU?$pair@KUSReserveTargetEffect@CPythonBackground@@@1@@Z ; std::_Default_allocator_traits<std::allocator<std::_Tree_node<std::pair<unsigned long const ,CPythonBackground::SReserveTargetEffect>,void *> > >::construct<std::pair<unsigned long const ,CPythonBackground::SReserveTargetEffect>,std::pair<unsigned long,CPythonBackground::SReserveTargetEffect> >
PUBLIC	??$construct_at@PAU?$_Tree_node@V?$basic_string@DU?$char_traits@D@std@@V?$allocator@D@2@@std@@PAX@std@@AAPAU12@@std@@YAPAPAU?$_Tree_node@V?$basic_string@DU?$char_traits@D@std@@V?$allocator@D@2@@std@@PAX@0@QAPAU10@AAPAU10@@Z ; std::construct_at<std::_Tree_node<std::basic_string<char,std::char_traits<char>,std::allocator<char> >,void *> *,std::_Tree_node<std::basic_string<char,std::char_traits<char>,std::allocator<char> >,void *> * &>
PUBLIC	??$addressof@PAU?$_Tree_node@V?$basic_string@DU?$char_traits@D@std@@V?$allocator@D@2@@std@@PAX@std@@@std@@YAPAPAU?$_Tree_node@V?$basic_string@DU?$char_traits@D@std@@V?$allocator@D@2@@std@@PAX@0@AAPAU10@@Z ; std::addressof<std::_Tree_node<std::basic_string<char,std::char_traits<char>,std::allocator<char> >,void *> *>
PUBLIC	??$construct_at@PAU?$_Tree_node@HPAX@std@@AAPAU12@@std@@YAPAPAU?$_Tree_node@HPAX@0@QAPAU10@AAPAU10@@Z ; std::construct_at<std::_Tree_node<int,void *> *,std::_Tree_node<int,void *> * &>
PUBLIC	??$addressof@PAU?$_Tree_node@HPAX@std@@@std@@YAPAPAU?$_Tree_node@HPAX@0@AAPAU10@@Z ; std::addressof<std::_Tree_node<int,void *> *>
PUBLIC	??$construct_at@HABH@std@@YAPAHQAHABH@Z		; std::construct_at<int,int const &>
PUBLIC	??1?$_Tree_temp_node_alloc@V?$allocator@U?$_Tree_node@U?$pair@$$CBKUSReserveTargetEffect@CPythonBackground@@@std@@PAX@std@@@std@@@std@@QAE@XZ ; std::_Tree_temp_node_alloc<std::allocator<std::_Tree_node<std::pair<unsigned long const ,CPythonBackground::SReserveTargetEffect>,void *> > >::~_Tree_temp_node_alloc<std::allocator<std::_Tree_node<std::pair<unsigned long const ,CPythonBackground::SReserveTargetEffect>,void *> > >
PUBLIC	?_Kfn@?$_Tset_traits@HU?$less@H@std@@V?$allocator@H@2@$0A@@std@@SAABHABH@Z ; std::_Tset_traits<int,std::less<int>,std::allocator<int>,0>::_Kfn
PUBLIC	?max_size@?$_Tree@V?$_Tset_traits@HU?$less@H@std@@V?$allocator@H@2@$0A@@std@@@std@@QBEIXZ ; std::_Tree<std::_Tset_traits<int,std::less<int>,std::allocator<int>,0> >::max_size
PUBLIC	?deallocate@?$_Default_allocator_traits@V?$allocator@U?$_Tree_node@HPAX@std@@@std@@@std@@SAXAAV?$allocator@U?$_Tree_node@HPAX@std@@@2@QAU?$_Tree_node@HPAX@2@I@Z ; std::_Default_allocator_traits<std::allocator<std::_Tree_node<int,void *> > >::deallocate
PUBLIC	?_Max@?$_Tree_val@U?$_Tree_simple_types@H@std@@@std@@SAPAU?$_Tree_node@HPAX@2@PAU32@@Z ; std::_Tree_val<std::_Tree_simple_types<int> >::_Max
PUBLIC	?_Lrotate@?$_Tree_val@U?$_Tree_simple_types@H@std@@@std@@QAEXPAU?$_Tree_node@HPAX@2@@Z ; std::_Tree_val<std::_Tree_simple_types<int> >::_Lrotate
PUBLIC	?_Rrotate@?$_Tree_val@U?$_Tree_simple_types@H@std@@@std@@QAEXPAU?$_Tree_node@HPAX@2@@Z ; std::_Tree_val<std::_Tree_simple_types<int> >::_Rrotate
PUBLIC	?_Get_first@?$_Compressed_pair@V?$allocator@U?$_Tree_node@HPAX@std@@@std@@V?$_Tree_val@U?$_Tree_simple_types@H@std@@@2@$00@std@@QBEABV?$allocator@U?$_Tree_node@HPAX@std@@@2@XZ ; std::_Compressed_pair<std::allocator<std::_Tree_node<int,void *> >,std::_Tree_val<std::_Tree_simple_types<int> >,1>::_Get_first
PUBLIC	?_Get_first@?$_Compressed_pair@U?$less@H@std@@V?$_Compressed_pair@V?$allocator@U?$_Tree_node@HPAX@std@@@std@@V?$_Tree_val@U?$_Tree_simple_types@H@std@@@2@$00@2@$00@std@@QAEAAU?$less@H@2@XZ ; std::_Compressed_pair<std::less<int>,std::_Compressed_pair<std::allocator<std::_Tree_node<int,void *> >,std::_Tree_val<std::_Tree_simple_types<int> >,1>,1>::_Get_first
PUBLIC	?_Get_first@?$_Compressed_pair@U?$less@H@std@@V?$_Compressed_pair@V?$allocator@U?$_Tree_node@HPAX@std@@@std@@V?$_Tree_val@U?$_Tree_simple_types@H@std@@@2@$00@2@$00@std@@QBEABU?$less@H@2@XZ ; std::_Compressed_pair<std::less<int>,std::_Compressed_pair<std::allocator<std::_Tree_node<int,void *> >,std::_Tree_val<std::_Tree_simple_types<int> >,1>,1>::_Get_first
PUBLIC	?_Kfn@?$_Tset_traits@V?$basic_string@DU?$char_traits@D@std@@V?$allocator@D@2@@std@@U?$less@V?$basic_string@DU?$char_traits@D@std@@V?$allocator@D@2@@std@@@2@V?$allocator@V?$basic_string@DU?$char_traits@D@std@@V?$allocator@D@2@@std@@@2@$0A@@std@@SAABV?$basic_string@DU?$char_traits@D@std@@V?$allocator@D@2@@2@ABV32@@Z ; std::_Tset_traits<std::basic_string<char,std::char_traits<char>,std::allocator<char> >,std::less<std::basic_string<char,std::char_traits<char>,std::allocator<char> > >,std::allocator<std::basic_string<char,std::char_traits<char>,std::allocator<char> > >,0>::_Kfn
PUBLIC	?max_size@?$_Tree@V?$_Tset_traits@V?$basic_string@DU?$char_traits@D@std@@V?$allocator@D@2@@std@@U?$less@V?$basic_string@DU?$char_traits@D@std@@V?$allocator@D@2@@std@@@2@V?$allocator@V?$basic_string@DU?$char_traits@D@std@@V?$allocator@D@2@@std@@@2@$0A@@std@@@std@@QBEIXZ ; std::_Tree<std::_Tset_traits<std::basic_string<char,std::char_traits<char>,std::allocator<char> >,std::less<std::basic_string<char,std::char_traits<char>,std::allocator<char> > >,std::allocator<std::basic_string<char,std::char_traits<char>,std::allocator<char> > >,0> >::max_size
PUBLIC	?_Getcomp@?$_Tree@V?$_Tset_traits@V?$basic_string@DU?$char_traits@D@std@@V?$allocator@D@2@@std@@U?$less@V?$basic_string@DU?$char_traits@D@std@@V?$allocator@D@2@@std@@@2@V?$allocator@V?$basic_string@DU?$char_traits@D@std@@V?$allocator@D@2@@std@@@2@$0A@@std@@@std@@IBEABU?$less@V?$basic_string@DU?$char_traits@D@std@@V?$allocator@D@2@@std@@@2@XZ ; std::_Tree<std::_Tset_traits<std::basic_string<char,std::char_traits<char>,std::allocator<char> >,std::less<std::basic_string<char,std::char_traits<char>,std::allocator<char> > >,std::allocator<std::basic_string<char,std::char_traits<char>,std::allocator<char> > >,0> >::_Getcomp
PUBLIC	?deallocate@?$_Default_allocator_traits@V?$allocator@U?$_Tree_node@V?$basic_string@DU?$char_traits@D@std@@V?$allocator@D@2@@std@@PAX@std@@@std@@@std@@SAXAAV?$allocator@U?$_Tree_node@V?$basic_string@DU?$char_traits@D@std@@V?$allocator@D@2@@std@@PAX@std@@@2@QAU?$_Tree_node@V?$basic_string@DU?$char_traits@D@std@@V?$allocator@D@2@@std@@PAX@2@I@Z ; std::_Default_allocator_traits<std::allocator<std::_Tree_node<std::basic_string<char,std::char_traits<char>,std::allocator<char> >,void *> > >::deallocate
PUBLIC	?_Lrotate@?$_Tree_val@U?$_Tree_simple_types@V?$basic_string@DU?$char_traits@D@std@@V?$allocator@D@2@@std@@@std@@@std@@QAEXPAU?$_Tree_node@V?$basic_string@DU?$char_traits@D@std@@V?$allocator@D@2@@std@@PAX@2@@Z ; std::_Tree_val<std::_Tree_simple_types<std::basic_string<char,std::char_traits<char>,std::allocator<char> > > >::_Lrotate
PUBLIC	?_Rrotate@?$_Tree_val@U?$_Tree_simple_types@V?$basic_string@DU?$char_traits@D@std@@V?$allocator@D@2@@std@@@std@@@std@@QAEXPAU?$_Tree_node@V?$basic_string@DU?$char_traits@D@std@@V?$allocator@D@2@@std@@PAX@2@@Z ; std::_Tree_val<std::_Tree_simple_types<std::basic_string<char,std::char_traits<char>,std::allocator<char> > > >::_Rrotate
PUBLIC	?_Unchecked_begin@?$_Tree@V?$_Tmap_traits@KKU?$less@K@std@@V?$allocator@U?$pair@$$CBKK@std@@@2@$0A@@std@@@std@@QAE?AV?$_Tree_unchecked_iterator@V?$_Tree_val@U?$_Tree_simple_types@U?$pair@$$CBKK@std@@@std@@@std@@@2@XZ ; std::_Tree<std::_Tmap_traits<unsigned long,unsigned long,std::less<unsigned long>,std::allocator<std::pair<unsigned long const ,unsigned long> >,0> >::_Unchecked_begin
PUBLIC	??E?$_Tree_unchecked_const_iterator@V?$_Tree_val@U?$_Tree_simple_types@U?$pair@$$CBKK@std@@@std@@@std@@U_Iterator_base0@2@@std@@QAE?AV01@H@Z ; std::_Tree_unchecked_const_iterator<std::_Tree_val<std::_Tree_simple_types<std::pair<unsigned long const ,unsigned long> > >,std::_Iterator_base0>::operator++
PUBLIC	??8?$_Tree_unchecked_const_iterator@V?$_Tree_val@U?$_Tree_simple_types@U?$pair@$$CBKK@std@@@std@@@std@@U_Iterator_base0@2@@std@@QBE_NABV01@@Z ; std::_Tree_unchecked_const_iterator<std::_Tree_val<std::_Tree_simple_types<std::pair<unsigned long const ,unsigned long> > >,std::_Iterator_base0>::operator==
PUBLIC	?_Unchecked_begin@?$_Tree@V?$_Tmap_traits@KUSReserveTargetEffect@CPythonBackground@@U?$less@K@std@@V?$allocator@U?$pair@$$CBKUSReserveTargetEffect@CPythonBackground@@@std@@@4@$0A@@std@@@std@@QAE?AV?$_Tree_unchecked_iterator@V?$_Tree_val@U?$_Tree_simple_types@U?$pair@$$CBKUSReserveTargetEffect@CPythonBackground@@@std@@@std@@@std@@@2@XZ ; std::_Tree<std::_Tmap_traits<unsigned long,CPythonBackground::SReserveTargetEffect,std::less<unsigned long>,std::allocator<std::pair<unsigned long const ,CPythonBackground::SReserveTargetEffect> >,0> >::_Unchecked_begin
PUBLIC	?_Check_grow_by_1@?$_Tree@V?$_Tmap_traits@KUSReserveTargetEffect@CPythonBackground@@U?$less@K@std@@V?$allocator@U?$pair@$$CBKUSReserveTargetEffect@CPythonBackground@@@std@@@4@$0A@@std@@@std@@IAEXXZ ; std::_Tree<std::_Tmap_traits<unsigned long,CPythonBackground::SReserveTargetEffect,std::less<unsigned long>,std::allocator<std::pair<unsigned long const ,CPythonBackground::SReserveTargetEffect> >,0> >::_Check_grow_by_1
PUBLIC	?deallocate@?$_Default_allocator_traits@V?$allocator@U?$_Tree_node@U?$pair@$$CBKUSReserveTargetEffect@CPythonBackground@@@std@@PAX@std@@@std@@@std@@SAXAAV?$allocator@U?$_Tree_node@U?$pair@$$CBKUSReserveTargetEffect@CPythonBackground@@@std@@PAX@std@@@2@QAU?$_Tree_node@U?$pair@$$CBKUSReserveTargetEffect@CPythonBackground@@@std@@PAX@2@I@Z ; std::_Default_allocator_traits<std::allocator<std::_Tree_node<std::pair<unsigned long const ,CPythonBackground::SReserveTargetEffect>,void *> > >::deallocate
PUBLIC	?_Max@?$_Tree_val@U?$_Tree_simple_types@U?$pair@$$CBKUSReserveTargetEffect@CPythonBackground@@@std@@@std@@@std@@SAPAU?$_Tree_node@U?$pair@$$CBKUSReserveTargetEffect@CPythonBackground@@@std@@PAX@2@PAU32@@Z ; std::_Tree_val<std::_Tree_simple_types<std::pair<unsigned long const ,CPythonBackground::SReserveTargetEffect> > >::_Max
PUBLIC	?_Min@?$_Tree_val@U?$_Tree_simple_types@U?$pair@$$CBKUSReserveTargetEffect@CPythonBackground@@@std@@@std@@@std@@SAPAU?$_Tree_node@U?$pair@$$CBKUSReserveTargetEffect@CPythonBackground@@@std@@PAX@2@PAU32@@Z ; std::_Tree_val<std::_Tree_simple_types<std::pair<unsigned long const ,CPythonBackground::SReserveTargetEffect> > >::_Min
PUBLIC	?_Lrotate@?$_Tree_val@U?$_Tree_simple_types@U?$pair@$$CBKUSReserveTargetEffect@CPythonBackground@@@std@@@std@@@std@@QAEXPAU?$_Tree_node@U?$pair@$$CBKUSReserveTargetEffect@CPythonBackground@@@std@@PAX@2@@Z ; std::_Tree_val<std::_Tree_simple_types<std::pair<unsigned long const ,CPythonBackground::SReserveTargetEffect> > >::_Lrotate
PUBLIC	?_Rrotate@?$_Tree_val@U?$_Tree_simple_types@U?$pair@$$CBKUSReserveTargetEffect@CPythonBackground@@@std@@@std@@@std@@QAEXPAU?$_Tree_node@U?$pair@$$CBKUSReserveTargetEffect@CPythonBackground@@@std@@PAX@2@@Z ; std::_Tree_val<std::_Tree_simple_types<std::pair<unsigned long const ,CPythonBackground::SReserveTargetEffect> > >::_Rrotate
PUBLIC	?_Insert_node@?$_Tree_val@U?$_Tree_simple_types@U?$pair@$$CBKUSReserveTargetEffect@CPythonBackground@@@std@@@std@@@std@@QAEPAU?$_Tree_node@U?$pair@$$CBKUSReserveTargetEffect@CPythonBackground@@@std@@PAX@2@U?$_Tree_id@PAU?$_Tree_node@U?$pair@$$CBKUSReserveTargetEffect@CPythonBackground@@@std@@PAX@std@@@2@QAU32@@Z ; std::_Tree_val<std::_Tree_simple_types<std::pair<unsigned long const ,CPythonBackground::SReserveTargetEffect> > >::_Insert_node
PUBLIC	??E?$_Tree_unchecked_const_iterator@V?$_Tree_val@U?$_Tree_simple_types@U?$pair@$$CBKUSReserveTargetEffect@CPythonBackground@@@std@@@std@@@std@@U_Iterator_base0@2@@std@@QAE?AV01@H@Z ; std::_Tree_unchecked_const_iterator<std::_Tree_val<std::_Tree_simple_types<std::pair<unsigned long const ,CPythonBackground::SReserveTargetEffect> > >,std::_Iterator_base0>::operator++
PUBLIC	??8?$_Tree_unchecked_const_iterator@V?$_Tree_val@U?$_Tree_simple_types@U?$pair@$$CBKUSReserveTargetEffect@CPythonBackground@@@std@@@std@@@std@@U_Iterator_base0@2@@std@@QBE_NABV01@@Z ; std::_Tree_unchecked_const_iterator<std::_Tree_val<std::_Tree_simple_types<std::pair<unsigned long const ,CPythonBackground::SReserveTargetEffect> > >,std::_Iterator_base0>::operator==
PUBLIC	?_Get_first@?$_Compressed_pair@U?$less@K@std@@V?$_Compressed_pair@V?$allocator@U?$_Tree_node@U?$pair@$$CBKUSReserveTargetEffect@CPythonBackground@@@std@@PAX@std@@@std@@V?$_Tree_val@U?$_Tree_simple_types@U?$pair@$$CBKUSReserveTargetEffect@CPythonBackground@@@std@@@std@@@2@$00@2@$00@std@@QBEABU?$less@K@2@XZ ; std::_Compressed_pair<std::less<unsigned long>,std::_Compressed_pair<std::allocator<std::_Tree_node<std::pair<unsigned long const ,CPythonBackground::SReserveTargetEffect>,void *> >,std::_Tree_val<std::_Tree_simple_types<std::pair<unsigned long const ,CPythonBackground::SReserveTargetEffect> > >,1>,1>::_Get_first
PUBLIC	??0?$_Tree_temp_node_alloc@V?$allocator@U?$_Tree_node@HPAX@std@@@std@@@std@@QAE@AAV?$allocator@U?$_Tree_node@HPAX@std@@@1@@Z ; std::_Tree_temp_node_alloc<std::allocator<std::_Tree_node<int,void *> > >::_Tree_temp_node_alloc<std::allocator<std::_Tree_node<int,void *> > >
PUBLIC	??1?$_Alloc_construct_ptr@V?$allocator@U?$_Tree_node@HPAX@std@@@std@@@std@@QAE@XZ ; std::_Alloc_construct_ptr<std::allocator<std::_Tree_node<int,void *> > >::~_Alloc_construct_ptr<std::allocator<std::_Tree_node<int,void *> > >
PUBLIC	??0?$_Tree_temp_node_alloc@V?$allocator@U?$_Tree_node@V?$basic_string@DU?$char_traits@D@std@@V?$allocator@D@2@@std@@PAX@std@@@std@@@std@@QAE@AAV?$allocator@U?$_Tree_node@V?$basic_string@DU?$char_traits@D@std@@V?$allocator@D@2@@std@@PAX@std@@@1@@Z ; std::_Tree_temp_node_alloc<std::allocator<std::_Tree_node<std::basic_string<char,std::char_traits<char>,std::allocator<char> >,void *> > >::_Tree_temp_node_alloc<std::allocator<std::_Tree_node<std::basic_string<char,std::char_traits<char>,std::allocator<char> >,void *> > >
PUBLIC	??1?$_Alloc_construct_ptr@V?$allocator@U?$_Tree_node@V?$basic_string@DU?$char_traits@D@std@@V?$allocator@D@2@@std@@PAX@std@@@std@@@std@@QAE@XZ ; std::_Alloc_construct_ptr<std::allocator<std::_Tree_node<std::basic_string<char,std::char_traits<char>,std::allocator<char> >,void *> > >::~_Alloc_construct_ptr<std::allocator<std::_Tree_node<std::basic_string<char,std::char_traits<char>,std::allocator<char> >,void *> > >
PUBLIC	?_Extract@?$_In_place_key_extract_map_impl@KU?$pair@KUSReserveTargetEffect@CPythonBackground@@@std@@@std@@SAABKABU?$pair@KUSReserveTargetEffect@CPythonBackground@@@2@@Z ; std::_In_place_key_extract_map_impl<unsigned long,std::pair<unsigned long,CPythonBackground::SReserveTargetEffect> >::_Extract
PUBLIC	??1?$_Tree_temp_node@V?$allocator@U?$_Tree_node@U?$pair@$$CBKUSReserveTargetEffect@CPythonBackground@@@std@@PAX@std@@@std@@@std@@QAE@XZ ; std::_Tree_temp_node<std::allocator<std::_Tree_node<std::pair<unsigned long const ,CPythonBackground::SReserveTargetEffect>,void *> > >::~_Tree_temp_node<std::allocator<std::_Tree_node<std::pair<unsigned long const ,CPythonBackground::SReserveTargetEffect>,void *> > >
PUBLIC	?_Release@?$_Alloc_construct_ptr@V?$allocator@U?$_Tree_node@U?$pair@$$CBKUSReserveTargetEffect@CPythonBackground@@@std@@PAX@std@@@std@@@std@@QAEPAU?$_Tree_node@U?$pair@$$CBKUSReserveTargetEffect@CPythonBackground@@@std@@PAX@2@XZ ; std::_Alloc_construct_ptr<std::allocator<std::_Tree_node<std::pair<unsigned long const ,CPythonBackground::SReserveTargetEffect>,void *> > >::_Release
PUBLIC	??$_Refancy_maybe_null@PAV?$basic_string@DU?$char_traits@D@std@@V?$allocator@D@2@@std@@$0A@@std@@YAPAV?$basic_string@DU?$char_traits@D@std@@V?$allocator@D@2@@0@PAV10@@Z ; std::_Refancy_maybe_null<std::basic_string<char,std::char_traits<char>,std::allocator<char> > *,0>
PUBLIC	??$_Buyheadnode@V?$allocator@U?$_Tree_node@HPAX@std@@@std@@@?$_Tree_node@HPAX@std@@SAPAU01@AAV?$allocator@U?$_Tree_node@HPAX@std@@@1@@Z ; std::_Tree_node<int,void *>::_Buyheadnode<std::allocator<std::_Tree_node<int,void *> > >
PUBLIC	??$addressof@$$CBV?$_Tree_val@U?$_Tree_simple_types@H@std@@@std@@@std@@YAPBV?$_Tree_val@U?$_Tree_simple_types@H@std@@@0@ABV10@@Z ; std::addressof<std::_Tree_val<std::_Tree_simple_types<int> > const >
PUBLIC	??$_Refancy_maybe_null@PAUTMapInfo@CMapManager@@$0A@@std@@YAPAUTMapInfo@CMapManager@@PAU12@@Z ; std::_Refancy_maybe_null<CMapManager::TMapInfo *,0>
PUBLIC	??$_Buyheadnode@V?$allocator@U?$_Tree_node@V?$basic_string@DU?$char_traits@D@std@@V?$allocator@D@2@@std@@PAX@std@@@std@@@?$_Tree_node@V?$basic_string@DU?$char_traits@D@std@@V?$allocator@D@2@@std@@PAX@std@@SAPAU01@AAV?$allocator@U?$_Tree_node@V?$basic_string@DU?$char_traits@D@std@@V?$allocator@D@2@@std@@PAX@std@@@1@@Z ; std::_Tree_node<std::basic_string<char,std::char_traits<char>,std::allocator<char> >,void *>::_Buyheadnode<std::allocator<std::_Tree_node<std::basic_string<char,std::char_traits<char>,std::allocator<char> >,void *> > >
PUBLIC	??$addressof@$$CBV?$_Tree_val@U?$_Tree_simple_types@V?$basic_string@DU?$char_traits@D@std@@V?$allocator@D@2@@std@@@std@@@std@@@std@@YAPBV?$_Tree_val@U?$_Tree_simple_types@V?$basic_string@DU?$char_traits@D@std@@V?$allocator@D@2@@std@@@std@@@0@ABV10@@Z ; std::addressof<std::_Tree_val<std::_Tree_simple_types<std::basic_string<char,std::char_traits<char>,std::allocator<char> > > > const >
PUBLIC	??$_Buyheadnode@V?$allocator@U?$_Tree_node@U?$pair@$$CBKUSReserveTargetEffect@CPythonBackground@@@std@@PAX@std@@@std@@@?$_Tree_node@U?$pair@$$CBKUSReserveTargetEffect@CPythonBackground@@@std@@PAX@std@@SAPAU01@AAV?$allocator@U?$_Tree_node@U?$pair@$$CBKUSReserveTargetEffect@CPythonBackground@@@std@@PAX@std@@@1@@Z ; std::_Tree_node<std::pair<unsigned long const ,CPythonBackground::SReserveTargetEffect>,void *>::_Buyheadnode<std::allocator<std::_Tree_node<std::pair<unsigned long const ,CPythonBackground::SReserveTargetEffect>,void *> > >
PUBLIC	??$addressof@$$CBV?$_Tree_val@U?$_Tree_simple_types@U?$pair@$$CBKUSReserveTargetEffect@CPythonBackground@@@std@@@std@@@std@@@std@@YAPBV?$_Tree_val@U?$_Tree_simple_types@U?$pair@$$CBKUSReserveTargetEffect@CPythonBackground@@@std@@@std@@@0@ABV10@@Z ; std::addressof<std::_Tree_val<std::_Tree_simple_types<std::pair<unsigned long const ,CPythonBackground::SReserveTargetEffect> > > const >
PUBLIC	??$exchange@PAU?$_Tree_node@HPAX@std@@$$T@std@@YAPAU?$_Tree_node@HPAX@0@AAPAU10@$$QA$$T@Z ; std::exchange<std::_Tree_node<int,void *> *,std::nullptr_t>
PUBLIC	??$destroy@V?$basic_string@DU?$char_traits@D@std@@V?$allocator@D@2@@std@@@?$_Default_allocator_traits@V?$allocator@U?$_Tree_node@V?$basic_string@DU?$char_traits@D@std@@V?$allocator@D@2@@std@@PAX@std@@@std@@@std@@SAXAAV?$allocator@U?$_Tree_node@V?$basic_string@DU?$char_traits@D@std@@V?$allocator@D@2@@std@@PAX@std@@@1@QAV?$basic_string@DU?$char_traits@D@std@@V?$allocator@D@2@@1@@Z ; std::_Default_allocator_traits<std::allocator<std::_Tree_node<std::basic_string<char,std::char_traits<char>,std::allocator<char> >,void *> > >::destroy<std::basic_string<char,std::char_traits<char>,std::allocator<char> > >
PUBLIC	??$exchange@PAU?$_Tree_node@V?$basic_string@DU?$char_traits@D@std@@V?$allocator@D@2@@std@@PAX@std@@$$T@std@@YAPAU?$_Tree_node@V?$basic_string@DU?$char_traits@D@std@@V?$allocator@D@2@@std@@PAX@0@AAPAU10@$$QA$$T@Z ; std::exchange<std::_Tree_node<std::basic_string<char,std::char_traits<char>,std::allocator<char> >,void *> *,std::nullptr_t>
PUBLIC	??$_Copy_nodes@$0A@@?$_Tree@V?$_Tset_traits@HU?$less@H@std@@V?$allocator@H@2@$0A@@std@@@std@@IAEPAU?$_Tree_node@HPAX@1@PAU21@0@Z ; std::_Tree<std::_Tset_traits<int,std::less<int>,std::allocator<int>,0> >::_Copy_nodes<0>
PUBLIC	??$_Adl_verify_range@V?$_Tree_unchecked_const_iterator@V?$_Tree_val@U?$_Tree_simple_types@U?$pair@$$CBKK@std@@@std@@@std@@U_Iterator_base0@2@@std@@V12@@std@@YAXABV?$_Tree_unchecked_const_iterator@V?$_Tree_val@U?$_Tree_simple_types@U?$pair@$$CBKK@std@@@std@@@std@@U_Iterator_base0@2@@0@0@Z ; std::_Adl_verify_range<std::_Tree_unchecked_const_iterator<std::_Tree_val<std::_Tree_simple_types<std::pair<unsigned long const ,unsigned long> > >,std::_Iterator_base0>,std::_Tree_unchecked_const_iterator<std::_Tree_val<std::_Tree_simple_types<std::pair<unsigned long const ,unsigned long> > >,std::_Iterator_base0> >
PUBLIC	??$_Adl_verify_range@V?$_Tree_unchecked_const_iterator@V?$_Tree_val@U?$_Tree_simple_types@U?$pair@$$CBKUSReserveTargetEffect@CPythonBackground@@@std@@@std@@@std@@U_Iterator_base0@2@@std@@V12@@std@@YAXABV?$_Tree_unchecked_const_iterator@V?$_Tree_val@U?$_Tree_simple_types@U?$pair@$$CBKUSReserveTargetEffect@CPythonBackground@@@std@@@std@@@std@@U_Iterator_base0@2@@0@0@Z ; std::_Adl_verify_range<std::_Tree_unchecked_const_iterator<std::_Tree_val<std::_Tree_simple_types<std::pair<unsigned long const ,CPythonBackground::SReserveTargetEffect> > >,std::_Iterator_base0>,std::_Tree_unchecked_const_iterator<std::_Tree_val<std::_Tree_simple_types<std::pair<unsigned long const ,CPythonBackground::SReserveTargetEffect> > >,std::_Iterator_base0> >
PUBLIC	??$_Destroy_in_place@PAU?$_Tree_node@HPAX@std@@@std@@YAXAAPAU?$_Tree_node@HPAX@0@@Z ; std::_Destroy_in_place<std::_Tree_node<int,void *> *>
PUBLIC	??$destroy@H@?$_Default_allocator_traits@V?$allocator@U?$_Tree_node@HPAX@std@@@std@@@std@@SAXAAV?$allocator@U?$_Tree_node@HPAX@std@@@1@QAH@Z ; std::_Default_allocator_traits<std::allocator<std::_Tree_node<int,void *> > >::destroy<int>
PUBLIC	??$_Destroy_in_place@PAU?$_Tree_node@V?$basic_string@DU?$char_traits@D@std@@V?$allocator@D@2@@std@@PAX@std@@@std@@YAXAAPAU?$_Tree_node@V?$basic_string@DU?$char_traits@D@std@@V?$allocator@D@2@@std@@PAX@0@@Z ; std::_Destroy_in_place<std::_Tree_node<std::basic_string<char,std::char_traits<char>,std::allocator<char> >,void *> *>
PUBLIC	??$_Freenode@V?$allocator@U?$_Tree_node@V?$basic_string@DU?$char_traits@D@std@@V?$allocator@D@2@@std@@PAX@std@@@std@@@?$_Tree_node@V?$basic_string@DU?$char_traits@D@std@@V?$allocator@D@2@@std@@PAX@std@@SAXAAV?$allocator@U?$_Tree_node@V?$basic_string@DU?$char_traits@D@std@@V?$allocator@D@2@@std@@PAX@std@@@1@PAU01@@Z ; std::_Tree_node<std::basic_string<char,std::char_traits<char>,std::allocator<char> >,void *>::_Freenode<std::allocator<std::_Tree_node<std::basic_string<char,std::char_traits<char>,std::allocator<char> >,void *> > >
PUBLIC	??$exchange@PAU?$_Tree_node@V?$basic_string@DU?$char_traits@D@std@@V?$allocator@D@2@@std@@PAX@std@@AAPAU12@@std@@YAPAU?$_Tree_node@V?$basic_string@DU?$char_traits@D@std@@V?$allocator@D@2@@std@@PAX@0@AAPAU10@0@Z ; std::exchange<std::_Tree_node<std::basic_string<char,std::char_traits<char>,std::allocator<char> >,void *> *,std::_Tree_node<std::basic_string<char,std::char_traits<char>,std::allocator<char> >,void *> * &>
PUBLIC	??$_Destroy_in_place@PAU?$_Tree_node@U?$pair@$$CBKUSReserveTargetEffect@CPythonBackground@@@std@@PAX@std@@@std@@YAXAAPAU?$_Tree_node@U?$pair@$$CBKUSReserveTargetEffect@CPythonBackground@@@std@@PAX@0@@Z ; std::_Destroy_in_place<std::_Tree_node<std::pair<unsigned long const ,CPythonBackground::SReserveTargetEffect>,void *> *>
PUBLIC	??$destroy@U?$pair@$$CBKUSReserveTargetEffect@CPythonBackground@@@std@@@?$_Default_allocator_traits@V?$allocator@U?$_Tree_node@U?$pair@$$CBKUSReserveTargetEffect@CPythonBackground@@@std@@PAX@std@@@std@@@std@@SAXAAV?$allocator@U?$_Tree_node@U?$pair@$$CBKUSReserveTargetEffect@CPythonBackground@@@std@@PAX@std@@@1@QAU?$pair@$$CBKUSReserveTargetEffect@CPythonBackground@@@1@@Z ; std::_Default_allocator_traits<std::allocator<std::_Tree_node<std::pair<unsigned long const ,CPythonBackground::SReserveTargetEffect>,void *> > >::destroy<std::pair<unsigned long const ,CPythonBackground::SReserveTargetEffect> >
PUBLIC	??$forward@V?$_Tree_iterator@V?$_Tree_val@U?$_Tree_simple_types@U?$pair@$$CBKUSReserveTargetEffect@CPythonBackground@@@std@@@std@@@std@@@std@@@std@@YA$$QAV?$_Tree_iterator@V?$_Tree_val@U?$_Tree_simple_types@U?$pair@$$CBKUSReserveTargetEffect@CPythonBackground@@@std@@@std@@@std@@@0@AAV10@@Z ; std::forward<std::_Tree_iterator<std::_Tree_val<std::_Tree_simple_types<std::pair<unsigned long const ,CPythonBackground::SReserveTargetEffect> > > > >
PUBLIC	??$?0PAU?$_Tree_node@U?$pair@$$CBKUSReserveTargetEffect@CPythonBackground@@@std@@PAX@std@@_N$0A@@?$pair@PAU?$_Tree_node@U?$pair@$$CBKUSReserveTargetEffect@CPythonBackground@@@std@@PAX@std@@_N@std@@QAE@$$QAPAU?$_Tree_node@U?$pair@$$CBKUSReserveTargetEffect@CPythonBackground@@@std@@PAX@1@$$QA_N@Z ; std::pair<std::_Tree_node<std::pair<unsigned long const ,CPythonBackground::SReserveTargetEffect>,void *> *,bool>::pair<std::_Tree_node<std::pair<unsigned long const ,CPythonBackground::SReserveTargetEffect>,void *> *,bool><std::_Tree_node<std::pair<unsigned long const ,CPythonBackground::SReserveTargetEffect>,void *> *,bool,0>
PUBLIC	??$?0AAPAU?$_Tree_node@U?$pair@$$CBKUSReserveTargetEffect@CPythonBackground@@@std@@PAX@std@@_N$0A@@?$pair@PAU?$_Tree_node@U?$pair@$$CBKUSReserveTargetEffect@CPythonBackground@@@std@@PAX@std@@_N@std@@QAE@AAPAU?$_Tree_node@U?$pair@$$CBKUSReserveTargetEffect@CPythonBackground@@@std@@PAX@1@$$QA_N@Z ; std::pair<std::_Tree_node<std::pair<unsigned long const ,CPythonBackground::SReserveTargetEffect>,void *> *,bool>::pair<std::_Tree_node<std::pair<unsigned long const ,CPythonBackground::SReserveTargetEffect>,void *> *,bool><std::_Tree_node<std::pair<unsigned long const ,CPythonBackground::SReserveTargetEffect>,void *> * &,bool,0>
PUBLIC	??$?0U?$pair@KUSReserveTargetEffect@CPythonBackground@@@std@@@?$_Tree_temp_node@V?$allocator@U?$_Tree_node@U?$pair@$$CBKUSReserveTargetEffect@CPythonBackground@@@std@@PAX@std@@@std@@@std@@QAE@AAV?$allocator@U?$_Tree_node@U?$pair@$$CBKUSReserveTargetEffect@CPythonBackground@@@std@@PAX@std@@@1@PAU?$_Tree_node@U?$pair@$$CBKUSReserveTargetEffect@CPythonBackground@@@std@@PAX@1@$$QAU?$pair@KUSReserveTargetEffect@CPythonBackground@@@1@@Z ; std::_Tree_temp_node<std::allocator<std::_Tree_node<std::pair<unsigned long const ,CPythonBackground::SReserveTargetEffect>,void *> > >::_Tree_temp_node<std::allocator<std::_Tree_node<std::pair<unsigned long const ,CPythonBackground::SReserveTargetEffect>,void *> > ><std::pair<unsigned long,CPythonBackground::SReserveTargetEffect> >
PUBLIC	??$forward@PAU?$_Tree_node@V?$basic_string@DU?$char_traits@D@std@@V?$allocator@D@2@@std@@PAX@std@@@std@@YA$$QAPAU?$_Tree_node@V?$basic_string@DU?$char_traits@D@std@@V?$allocator@D@2@@std@@PAX@0@AAPAU10@@Z ; std::forward<std::_Tree_node<std::basic_string<char,std::char_traits<char>,std::allocator<char> >,void *> *>
PUBLIC	??$forward@AAPAU?$_Tree_node@V?$basic_string@DU?$char_traits@D@std@@V?$allocator@D@2@@std@@PAX@std@@@std@@YAAAPAU?$_Tree_node@V?$basic_string@DU?$char_traits@D@std@@V?$allocator@D@2@@std@@PAX@0@AAPAU10@@Z ; std::forward<std::_Tree_node<std::basic_string<char,std::char_traits<char>,std::allocator<char> >,void *> * &>
PUBLIC	??$_Construct_in_place@PAU?$_Tree_node@V?$basic_string@DU?$char_traits@D@std@@V?$allocator@D@2@@std@@PAX@std@@AAPAU12@@std@@YAXAAPAU?$_Tree_node@V?$basic_string@DU?$char_traits@D@std@@V?$allocator@D@2@@std@@PAX@0@0@Z ; std::_Construct_in_place<std::_Tree_node<std::basic_string<char,std::char_traits<char>,std::allocator<char> >,void *> *,std::_Tree_node<std::basic_string<char,std::char_traits<char>,std::allocator<char> >,void *> * &>
PUBLIC	??$construct@V?$basic_string@DU?$char_traits@D@std@@V?$allocator@D@2@@std@@V12@@?$_Default_allocator_traits@V?$allocator@U?$_Tree_node@V?$basic_string@DU?$char_traits@D@std@@V?$allocator@D@2@@std@@PAX@std@@@std@@@std@@SAXAAV?$allocator@U?$_Tree_node@V?$basic_string@DU?$char_traits@D@std@@V?$allocator@D@2@@std@@PAX@std@@@1@QAV?$basic_string@DU?$char_traits@D@std@@V?$allocator@D@2@@1@$$QAV31@@Z ; std::_Default_allocator_traits<std::allocator<std::_Tree_node<std::basic_string<char,std::char_traits<char>,std::allocator<char> >,void *> > >::construct<std::basic_string<char,std::char_traits<char>,std::allocator<char> >,std::basic_string<char,std::char_traits<char>,std::allocator<char> > >
PUBLIC	??$forward@PAU?$_Tree_node@HPAX@std@@@std@@YA$$QAPAU?$_Tree_node@HPAX@0@AAPAU10@@Z ; std::forward<std::_Tree_node<int,void *> *>
PUBLIC	??$forward@AAPAU?$_Tree_node@HPAX@std@@@std@@YAAAPAU?$_Tree_node@HPAX@0@AAPAU10@@Z ; std::forward<std::_Tree_node<int,void *> * &>
PUBLIC	??$_Construct_in_place@PAU?$_Tree_node@HPAX@std@@AAPAU12@@std@@YAXAAPAU?$_Tree_node@HPAX@0@0@Z ; std::_Construct_in_place<std::_Tree_node<int,void *> *,std::_Tree_node<int,void *> * &>
PUBLIC	??$construct@HABH@?$_Default_allocator_traits@V?$allocator@U?$_Tree_node@HPAX@std@@@std@@@std@@SAXAAV?$allocator@U?$_Tree_node@HPAX@std@@@1@QAHABH@Z ; std::_Default_allocator_traits<std::allocator<std::_Tree_node<int,void *> > >::construct<int,int const &>
PUBLIC	??$addressof@H@std@@YAPAHAAH@Z			; std::addressof<int>
PUBLIC	??$forward@AAPAU?$_Tree_node@U?$pair@$$CBKUSReserveTargetEffect@CPythonBackground@@@std@@PAX@std@@@std@@YAAAPAU?$_Tree_node@U?$pair@$$CBKUSReserveTargetEffect@CPythonBackground@@@std@@PAX@0@AAPAU10@@Z ; std::forward<std::_Tree_node<std::pair<unsigned long const ,CPythonBackground::SReserveTargetEffect>,void *> * &>
PUBLIC	??$?0$$V@?$_Compressed_pair@V?$allocator@U?$_Tree_node@HPAX@std@@@std@@V?$_Tree_val@U?$_Tree_simple_types@H@std@@@2@$00@std@@QAE@U_Zero_then_variadic_args_t@1@@Z ; std::_Compressed_pair<std::allocator<std::_Tree_node<int,void *> >,std::_Tree_val<std::_Tree_simple_types<int> >,1>::_Compressed_pair<std::allocator<std::_Tree_node<int,void *> >,std::_Tree_val<std::_Tree_simple_types<int> >,1><>
PUBLIC	??$?0$$V@?$_Compressed_pair@V?$allocator@U?$_Tree_node@V?$basic_string@DU?$char_traits@D@std@@V?$allocator@D@2@@std@@PAX@std@@@std@@V?$_Tree_val@U?$_Tree_simple_types@V?$basic_string@DU?$char_traits@D@std@@V?$allocator@D@2@@std@@@std@@@2@$00@std@@QAE@U_Zero_then_variadic_args_t@1@@Z ; std::_Compressed_pair<std::allocator<std::_Tree_node<std::basic_string<char,std::char_traits<char>,std::allocator<char> >,void *> >,std::_Tree_val<std::_Tree_simple_types<std::basic_string<char,std::char_traits<char>,std::allocator<char> > > >,1>::_Compressed_pair<std::allocator<std::_Tree_node<std::basic_string<char,std::char_traits<char>,std::allocator<char> >,void *> >,std::_Tree_val<std::_Tree_simple_types<std::basic_string<char,std::char_traits<char>,std::allocator<char> > > >,1><>
PUBLIC	??$?0$$V@?$_Compressed_pair@V?$allocator@U?$_Tree_node@U?$pair@$$CBKUSReserveTargetEffect@CPythonBackground@@@std@@PAX@std@@@std@@V?$_Tree_val@U?$_Tree_simple_types@U?$pair@$$CBKUSReserveTargetEffect@CPythonBackground@@@std@@@std@@@2@$00@std@@QAE@U_Zero_then_variadic_args_t@1@@Z ; std::_Compressed_pair<std::allocator<std::_Tree_node<std::pair<unsigned long const ,CPythonBackground::SReserveTargetEffect>,void *> >,std::_Tree_val<std::_Tree_simple_types<std::pair<unsigned long const ,CPythonBackground::SReserveTargetEffect> > >,1>::_Compressed_pair<std::allocator<std::_Tree_node<std::pair<unsigned long const ,CPythonBackground::SReserveTargetEffect>,void *> >,std::_Tree_val<std::_Tree_simple_types<std::pair<unsigned long const ,CPythonBackground::SReserveTargetEffect> > >,1><>
PUBLIC	??1?$_Tree_temp_node_alloc@V?$allocator@U?$_Tree_node@V?$basic_string@DU?$char_traits@D@std@@V?$allocator@D@2@@std@@PAX@std@@@std@@@std@@QAE@XZ ; std::_Tree_temp_node_alloc<std::allocator<std::_Tree_node<std::basic_string<char,std::char_traits<char>,std::allocator<char> >,void *> > >::~_Tree_temp_node_alloc<std::allocator<std::_Tree_node<std::basic_string<char,std::char_traits<char>,std::allocator<char> >,void *> > >
PUBLIC	??1?$_Tree_temp_node_alloc@V?$allocator@U?$_Tree_node@HPAX@std@@@std@@@std@@QAE@XZ ; std::_Tree_temp_node_alloc<std::allocator<std::_Tree_node<int,void *> > >::~_Tree_temp_node_alloc<std::allocator<std::_Tree_node<int,void *> > >
PUBLIC	?_Seek_to@?$_Vector_const_iterator@V?$_Vector_val@U?$_Simple_types@V?$basic_string@DU?$char_traits@D@std@@V?$allocator@D@2@@std@@@std@@@std@@@std@@QAEXPBV?$basic_string@DU?$char_traits@D@std@@V?$allocator@D@2@@2@@Z ; std::_Vector_const_iterator<std::_Vector_val<std::_Simple_types<std::basic_string<char,std::char_traits<char>,std::allocator<char> > > > >::_Seek_to
PUBLIC	?_Check_grow_by_1@?$_Tree@V?$_Tset_traits@HU?$less@H@std@@V?$allocator@H@2@$0A@@std@@@std@@IAEXXZ ; std::_Tree<std::_Tset_traits<int,std::less<int>,std::allocator<int>,0> >::_Check_grow_by_1
PUBLIC	?_Alloc_sentinel_and_proxy@?$_Tree@V?$_Tset_traits@HU?$less@H@std@@V?$allocator@H@2@$0A@@std@@@std@@IAEXXZ ; std::_Tree<std::_Tset_traits<int,std::less<int>,std::allocator<int>,0> >::_Alloc_sentinel_and_proxy
PUBLIC	?_Getcomp@?$_Tree@V?$_Tset_traits@HU?$less@H@std@@V?$allocator@H@2@$0A@@std@@@std@@IAEAAU?$less@H@2@XZ ; std::_Tree<std::_Tset_traits<int,std::less<int>,std::allocator<int>,0> >::_Getcomp
PUBLIC	?_Getcomp@?$_Tree@V?$_Tset_traits@HU?$less@H@std@@V?$allocator@H@2@$0A@@std@@@std@@IBEABU?$less@H@2@XZ ; std::_Tree<std::_Tset_traits<int,std::less<int>,std::allocator<int>,0> >::_Getcomp
PUBLIC	?_Getal@?$_Tree@V?$_Tset_traits@HU?$less@H@std@@V?$allocator@H@2@$0A@@std@@@std@@IBEABV?$allocator@U?$_Tree_node@HPAX@std@@@2@XZ ; std::_Tree<std::_Tset_traits<int,std::less<int>,std::allocator<int>,0> >::_Getal
PUBLIC	?_Get_scary@?$_Tree@V?$_Tset_traits@HU?$less@H@std@@V?$allocator@H@2@$0A@@std@@@std@@IBEPBV?$_Tree_val@U?$_Tree_simple_types@H@std@@@2@XZ ; std::_Tree<std::_Tset_traits<int,std::less<int>,std::allocator<int>,0> >::_Get_scary
PUBLIC	?_Min@?$_Tree_val@U?$_Tree_simple_types@H@std@@@std@@SAPAU?$_Tree_node@HPAX@2@PAU32@@Z ; std::_Tree_val<std::_Tree_simple_types<int> >::_Min
PUBLIC	?_Insert_node@?$_Tree_val@U?$_Tree_simple_types@H@std@@@std@@QAEPAU?$_Tree_node@HPAX@2@U?$_Tree_id@PAU?$_Tree_node@HPAX@std@@@2@QAU32@@Z ; std::_Tree_val<std::_Tree_simple_types<int> >::_Insert_node
PUBLIC	?_Get_first@?$_Compressed_pair@V?$allocator@U?$_Tree_node@HPAX@std@@@std@@V?$_Tree_val@U?$_Tree_simple_types@H@std@@@2@$00@std@@QAEAAV?$allocator@U?$_Tree_node@HPAX@std@@@2@XZ ; std::_Compressed_pair<std::allocator<std::_Tree_node<int,void *> >,std::_Tree_val<std::_Tree_simple_types<int> >,1>::_Get_first
PUBLIC	?_Seek_to@?$_Vector_const_iterator@V?$_Vector_val@U?$_Simple_types@UTMapInfo@CMapManager@@@std@@@std@@@std@@QAEXPBUTMapInfo@CMapManager@@@Z ; std::_Vector_const_iterator<std::_Vector_val<std::_Simple_types<CMapManager::TMapInfo> > >::_Seek_to
PUBLIC	?_Check_grow_by_1@?$_Tree@V?$_Tset_traits@V?$basic_string@DU?$char_traits@D@std@@V?$allocator@D@2@@std@@U?$less@V?$basic_string@DU?$char_traits@D@std@@V?$allocator@D@2@@std@@@2@V?$allocator@V?$basic_string@DU?$char_traits@D@std@@V?$allocator@D@2@@std@@@2@$0A@@std@@@std@@IAEXXZ ; std::_Tree<std::_Tset_traits<std::basic_string<char,std::char_traits<char>,std::allocator<char> >,std::less<std::basic_string<char,std::char_traits<char>,std::allocator<char> > >,std::allocator<std::basic_string<char,std::char_traits<char>,std::allocator<char> > >,0> >::_Check_grow_by_1
PUBLIC	?_Alloc_sentinel_and_proxy@?$_Tree@V?$_Tset_traits@V?$basic_string@DU?$char_traits@D@std@@V?$allocator@D@2@@std@@U?$less@V?$basic_string@DU?$char_traits@D@std@@V?$allocator@D@2@@std@@@2@V?$allocator@V?$basic_string@DU?$char_traits@D@std@@V?$allocator@D@2@@std@@@2@$0A@@std@@@std@@IAEXXZ ; std::_Tree<std::_Tset_traits<std::basic_string<char,std::char_traits<char>,std::allocator<char> >,std::less<std::basic_string<char,std::char_traits<char>,std::allocator<char> > >,std::allocator<std::basic_string<char,std::char_traits<char>,std::allocator<char> > >,0> >::_Alloc_sentinel_and_proxy
PUBLIC	?_Get_scary@?$_Tree@V?$_Tset_traits@V?$basic_string@DU?$char_traits@D@std@@V?$allocator@D@2@@std@@U?$less@V?$basic_string@DU?$char_traits@D@std@@V?$allocator@D@2@@std@@@2@V?$allocator@V?$basic_string@DU?$char_traits@D@std@@V?$allocator@D@2@@std@@@2@$0A@@std@@@std@@IBEPBV?$_Tree_val@U?$_Tree_simple_types@V?$basic_string@DU?$char_traits@D@std@@V?$allocator@D@2@@std@@@std@@@2@XZ ; std::_Tree<std::_Tset_traits<std::basic_string<char,std::char_traits<char>,std::allocator<char> >,std::less<std::basic_string<char,std::char_traits<char>,std::allocator<char> > >,std::allocator<std::basic_string<char,std::char_traits<char>,std::allocator<char> > >,0> >::_Get_scary
PUBLIC	?_Insert_node@?$_Tree_val@U?$_Tree_simple_types@V?$basic_string@DU?$char_traits@D@std@@V?$allocator@D@2@@std@@@std@@@std@@QAEPAU?$_Tree_node@V?$basic_string@DU?$char_traits@D@std@@V?$allocator@D@2@@std@@PAX@2@U?$_Tree_id@PAU?$_Tree_node@V?$basic_string@DU?$char_traits@D@std@@V?$allocator@D@2@@std@@PAX@std@@@2@QAU32@@Z ; std::_Tree_val<std::_Tree_simple_types<std::basic_string<char,std::char_traits<char>,std::allocator<char> > > >::_Insert_node
PUBLIC	?_Get_first@?$_Compressed_pair@V?$allocator@U?$_Tree_node@V?$basic_string@DU?$char_traits@D@std@@V?$allocator@D@2@@std@@PAX@std@@@std@@V?$_Tree_val@U?$_Tree_simple_types@V?$basic_string@DU?$char_traits@D@std@@V?$allocator@D@2@@std@@@std@@@2@$00@std@@QAEAAV?$allocator@U?$_Tree_node@V?$basic_string@DU?$char_traits@D@std@@V?$allocator@D@2@@std@@PAX@std@@@2@XZ ; std::_Compressed_pair<std::allocator<std::_Tree_node<std::basic_string<char,std::char_traits<char>,std::allocator<char> >,void *> >,std::_Tree_val<std::_Tree_simple_types<std::basic_string<char,std::char_traits<char>,std::allocator<char> > > >,1>::_Get_first
PUBLIC	?_Erase_unchecked@?$_Tree@V?$_Tmap_traits@KKU?$less@K@std@@V?$allocator@U?$pair@$$CBKK@std@@@2@$0A@@std@@@std@@AAEPAU?$_Tree_node@U?$pair@$$CBKK@std@@PAX@2@V?$_Tree_unchecked_const_iterator@V?$_Tree_val@U?$_Tree_simple_types@U?$pair@$$CBKK@std@@@std@@@std@@U_Iterator_base0@2@@2@0@Z ; std::_Tree<std::_Tmap_traits<unsigned long,unsigned long,std::less<unsigned long>,std::allocator<std::pair<unsigned long const ,unsigned long> >,0> >::_Erase_unchecked
PUBLIC	?_Erase_unchecked@?$_Tree@V?$_Tmap_traits@KUSReserveTargetEffect@CPythonBackground@@U?$less@K@std@@V?$allocator@U?$pair@$$CBKUSReserveTargetEffect@CPythonBackground@@@std@@@4@$0A@@std@@@std@@AAEPAU?$_Tree_node@U?$pair@$$CBKUSReserveTargetEffect@CPythonBackground@@@std@@PAX@2@V?$_Tree_unchecked_const_iterator@V?$_Tree_val@U?$_Tree_simple_types@U?$pair@$$CBKUSReserveTargetEffect@CPythonBackground@@@std@@@std@@@std@@U_Iterator_base0@2@@2@0@Z ; std::_Tree<std::_Tmap_traits<unsigned long,CPythonBackground::SReserveTargetEffect,std::less<unsigned long>,std::allocator<std::pair<unsigned long const ,CPythonBackground::SReserveTargetEffect> >,0> >::_Erase_unchecked
PUBLIC	?_Alloc_sentinel_and_proxy@?$_Tree@V?$_Tmap_traits@KUSReserveTargetEffect@CPythonBackground@@U?$less@K@std@@V?$allocator@U?$pair@$$CBKUSReserveTargetEffect@CPythonBackground@@@std@@@4@$0A@@std@@@std@@IAEXXZ ; std::_Tree<std::_Tmap_traits<unsigned long,CPythonBackground::SReserveTargetEffect,std::less<unsigned long>,std::allocator<std::pair<unsigned long const ,CPythonBackground::SReserveTargetEffect> >,0> >::_Alloc_sentinel_and_proxy
PUBLIC	?_Getcomp@?$_Tree@V?$_Tmap_traits@KUSReserveTargetEffect@CPythonBackground@@U?$less@K@std@@V?$allocator@U?$pair@$$CBKUSReserveTargetEffect@CPythonBackground@@@std@@@4@$0A@@std@@@std@@IBEABU?$less@K@2@XZ ; std::_Tree<std::_Tmap_traits<unsigned long,CPythonBackground::SReserveTargetEffect,std::less<unsigned long>,std::allocator<std::pair<unsigned long const ,CPythonBackground::SReserveTargetEffect> >,0> >::_Getcomp
PUBLIC	?_Get_scary@?$_Tree@V?$_Tmap_traits@KUSReserveTargetEffect@CPythonBackground@@U?$less@K@std@@V?$allocator@U?$pair@$$CBKUSReserveTargetEffect@CPythonBackground@@@std@@@4@$0A@@std@@@std@@IBEPBV?$_Tree_val@U?$_Tree_simple_types@U?$pair@$$CBKUSReserveTargetEffect@CPythonBackground@@@std@@@std@@@2@XZ ; std::_Tree<std::_Tmap_traits<unsigned long,CPythonBackground::SReserveTargetEffect,std::less<unsigned long>,std::allocator<std::pair<unsigned long const ,CPythonBackground::SReserveTargetEffect> >,0> >::_Get_scary
PUBLIC	?_Extract@?$_Tree_val@U?$_Tree_simple_types@U?$pair@$$CBKUSReserveTargetEffect@CPythonBackground@@@std@@@std@@@std@@QAEPAU?$_Tree_node@U?$pair@$$CBKUSReserveTargetEffect@CPythonBackground@@@std@@PAX@2@V?$_Tree_unchecked_const_iterator@V?$_Tree_val@U?$_Tree_simple_types@U?$pair@$$CBKUSReserveTargetEffect@CPythonBackground@@@std@@@std@@@std@@U_Iterator_base0@2@@2@@Z ; std::_Tree_val<std::_Tree_simple_types<std::pair<unsigned long const ,CPythonBackground::SReserveTargetEffect> > >::_Extract
PUBLIC	??D?$_Tree_const_iterator@V?$_Tree_val@U?$_Tree_simple_types@U?$pair@$$CBKUSReserveTargetEffect@CPythonBackground@@@std@@@std@@@std@@@std@@QBEABU?$pair@$$CBKUSReserveTargetEffect@CPythonBackground@@@1@XZ ; std::_Tree_const_iterator<std::_Tree_val<std::_Tree_simple_types<std::pair<unsigned long const ,CPythonBackground::SReserveTargetEffect> > > >::operator*
PUBLIC	??E?$_Tree_unchecked_const_iterator@V?$_Tree_val@U?$_Tree_simple_types@U?$pair@$$CBKUSReserveTargetEffect@CPythonBackground@@@std@@@std@@@std@@U_Iterator_base0@2@@std@@QAEAAV01@XZ ; std::_Tree_unchecked_const_iterator<std::_Tree_val<std::_Tree_simple_types<std::pair<unsigned long const ,CPythonBackground::SReserveTargetEffect> > >,std::_Iterator_base0>::operator++
PUBLIC	?_Get_first@?$_Compressed_pair@V?$allocator@U?$_Tree_node@U?$pair@$$CBKUSReserveTargetEffect@CPythonBackground@@@std@@PAX@std@@@std@@V?$_Tree_val@U?$_Tree_simple_types@U?$pair@$$CBKUSReserveTargetEffect@CPythonBackground@@@std@@@std@@@2@$00@std@@QAEAAV?$allocator@U?$_Tree_node@U?$pair@$$CBKUSReserveTargetEffect@CPythonBackground@@@std@@PAX@std@@@2@XZ ; std::_Compressed_pair<std::allocator<std::_Tree_node<std::pair<unsigned long const ,CPythonBackground::SReserveTargetEffect>,void *> >,std::_Tree_val<std::_Tree_simple_types<std::pair<unsigned long const ,CPythonBackground::SReserveTargetEffect> > >,1>::_Get_first
PUBLIC	?_Extract@?$_In_place_key_extract_set_impl@HH@std@@SAABHABH@Z ; std::_In_place_key_extract_set_impl<int,int>::_Extract
PUBLIC	??1?$_Tree_temp_node@V?$allocator@U?$_Tree_node@HPAX@std@@@std@@@std@@QAE@XZ ; std::_Tree_temp_node<std::allocator<std::_Tree_node<int,void *> > >::~_Tree_temp_node<std::allocator<std::_Tree_node<int,void *> > >
PUBLIC	?_Release@?$_Alloc_construct_ptr@V?$allocator@U?$_Tree_node@HPAX@std@@@std@@@std@@QAEPAU?$_Tree_node@HPAX@2@XZ ; std::_Alloc_construct_ptr<std::allocator<std::_Tree_node<int,void *> > >::_Release
PUBLIC	?_Extract@?$_In_place_key_extract_set_impl@V?$basic_string@DU?$char_traits@D@std@@V?$allocator@D@2@@std@@V12@@std@@SAABV?$basic_string@DU?$char_traits@D@std@@V?$allocator@D@2@@2@ABV32@@Z ; std::_In_place_key_extract_set_impl<std::basic_string<char,std::char_traits<char>,std::allocator<char> >,std::basic_string<char,std::char_traits<char>,std::allocator<char> > >::_Extract
PUBLIC	??1?$_Tree_temp_node@V?$allocator@U?$_Tree_node@V?$basic_string@DU?$char_traits@D@std@@V?$allocator@D@2@@std@@PAX@std@@@std@@@std@@QAE@XZ ; std::_Tree_temp_node<std::allocator<std::_Tree_node<std::basic_string<char,std::char_traits<char>,std::allocator<char> >,void *> > >::~_Tree_temp_node<std::allocator<std::_Tree_node<std::basic_string<char,std::char_traits<char>,std::allocator<char> >,void *> > >
PUBLIC	?_Release@?$_Alloc_construct_ptr@V?$allocator@U?$_Tree_node@V?$basic_string@DU?$char_traits@D@std@@V?$allocator@D@2@@std@@PAX@std@@@std@@@std@@QAEPAU?$_Tree_node@V?$basic_string@DU?$char_traits@D@std@@V?$allocator@D@2@@std@@PAX@2@XZ ; std::_Alloc_construct_ptr<std::allocator<std::_Tree_node<std::basic_string<char,std::char_traits<char>,std::allocator<char> >,void *> > >::_Release
PUBLIC	??$_Unfancy_maybe_null@V?$basic_string@DU?$char_traits@D@std@@V?$allocator@D@2@@std@@@std@@YAPAV?$basic_string@DU?$char_traits@D@std@@V?$allocator@D@2@@0@PAV10@@Z ; std::_Unfancy_maybe_null<std::basic_string<char,std::char_traits<char>,std::allocator<char> > >
PUBLIC	??$?0ABU?$less@H@std@@U_Zero_then_variadic_args_t@1@@?$_Compressed_pair@U?$less@H@std@@V?$_Compressed_pair@V?$allocator@U?$_Tree_node@HPAX@std@@@std@@V?$_Tree_val@U?$_Tree_simple_types@H@std@@@2@$00@2@$00@std@@QAE@U_One_then_variadic_args_t@1@ABU?$less@H@1@$$QAU_Zero_then_variadic_args_t@1@@Z ; std::_Compressed_pair<std::less<int>,std::_Compressed_pair<std::allocator<std::_Tree_node<int,void *> >,std::_Tree_val<std::_Tree_simple_types<int> >,1>,1>::_Compressed_pair<std::less<int>,std::_Compressed_pair<std::allocator<std::_Tree_node<int,void *> >,std::_Tree_val<std::_Tree_simple_types<int> >,1>,1><std::less<int> const &,std::_Zero_then_variadic_args_t>
PUBLIC	??$_Copy@$0A@@?$_Tree@V?$_Tset_traits@HU?$less@H@std@@V?$allocator@H@2@$0A@@std@@@std@@IAEXABV01@@Z ; std::_Tree<std::_Tset_traits<int,std::less<int>,std::allocator<int>,0> >::_Copy<0>
PUBLIC	??$_Pocca@V?$allocator@U?$_Tree_node@HPAX@std@@@std@@@std@@YAXAAV?$allocator@U?$_Tree_node@HPAX@std@@@0@ABV10@@Z ; std::_Pocca<std::allocator<std::_Tree_node<int,void *> > >
PUBLIC	??$addressof@$$CBV?$_Tree@V?$_Tset_traits@HU?$less@H@std@@V?$allocator@H@2@$0A@@std@@@std@@@std@@YAPBV?$_Tree@V?$_Tset_traits@HU?$less@H@std@@V?$allocator@H@2@$0A@@std@@@0@ABV10@@Z ; std::addressof<std::_Tree<std::_Tset_traits<int,std::less<int>,std::allocator<int>,0> > const >
PUBLIC	??$addressof@V?$_Tree_val@U?$_Tree_simple_types@H@std@@@std@@@std@@YAPAV?$_Tree_val@U?$_Tree_simple_types@H@std@@@0@AAV10@@Z ; std::addressof<std::_Tree_val<std::_Tree_simple_types<int> > >
PUBLIC	??$?0ABU?$less@V?$basic_string@DU?$char_traits@D@std@@V?$allocator@D@2@@std@@@std@@U_Zero_then_variadic_args_t@1@@?$_Compressed_pair@U?$less@V?$basic_string@DU?$char_traits@D@std@@V?$allocator@D@2@@std@@@std@@V?$_Compressed_pair@V?$allocator@U?$_Tree_node@V?$basic_string@DU?$char_traits@D@std@@V?$allocator@D@2@@std@@PAX@std@@@std@@V?$_Tree_val@U?$_Tree_simple_types@V?$basic_string@DU?$char_traits@D@std@@V?$allocator@D@2@@std@@@std@@@2@$00@2@$00@std@@QAE@U_One_then_variadic_args_t@1@ABU?$less@V?$basic_string@DU?$char_traits@D@std@@V?$allocator@D@2@@std@@@1@$$QAU_Zero_then_variadic_args_t@1@@Z ; std::_Compressed_pair<std::less<std::basic_string<char,std::char_traits<char>,std::allocator<char> > >,std::_Compressed_pair<std::allocator<std::_Tree_node<std::basic_string<char,std::char_traits<char>,std::allocator<char> >,void *> >,std::_Tree_val<std::_Tree_simple_types<std::basic_string<char,std::char_traits<char>,std::allocator<char> > > >,1>,1>::_Compressed_pair<std::less<std::basic_string<char,std::char_traits<char>,std::allocator<char> > >,std::_Compressed_pair<std::allocator<std::_Tree_node<std::basic_string<char,std::char_traits<char>,std::allocator<char> >,void *> >,std::_Tree_val<std::_Tree_simple_types<std::basic_string<char,std::char_traits<char>,std::allocator<char> > > >,1>,1><std::less<std::basic_string<char,std::char_traits<char>,std::allocator<char> > > const &,std::_Zero_then_variadic_args_t>
PUBLIC	??$addressof@V?$_Tree_val@U?$_Tree_simple_types@V?$basic_string@DU?$char_traits@D@std@@V?$allocator@D@2@@std@@@std@@@std@@@std@@YAPAV?$_Tree_val@U?$_Tree_simple_types@V?$basic_string@DU?$char_traits@D@std@@V?$allocator@D@2@@std@@@std@@@0@AAV10@@Z ; std::addressof<std::_Tree_val<std::_Tree_simple_types<std::basic_string<char,std::char_traits<char>,std::allocator<char> > > > >
PUBLIC	??$_Get_unwrapped@AAV?$_Tree_unchecked_const_iterator@V?$_Tree_val@U?$_Tree_simple_types@U?$pair@$$CBKK@std@@@std@@@std@@U_Iterator_base0@2@@std@@@std@@YA?A_TAAV?$_Tree_unchecked_const_iterator@V?$_Tree_val@U?$_Tree_simple_types@U?$pair@$$CBKK@std@@@std@@@std@@U_Iterator_base0@2@@0@@Z ; std::_Get_unwrapped<std::_Tree_unchecked_const_iterator<std::_Tree_val<std::_Tree_simple_types<std::pair<unsigned long const ,unsigned long> > >,std::_Iterator_base0> &>
PUBLIC	??$distance@V?$_Tree_unchecked_const_iterator@V?$_Tree_val@U?$_Tree_simple_types@U?$pair@$$CBKK@std@@@std@@@std@@U_Iterator_base0@2@@std@@@std@@YAHV?$_Tree_unchecked_const_iterator@V?$_Tree_val@U?$_Tree_simple_types@U?$pair@$$CBKK@std@@@std@@@std@@U_Iterator_base0@2@@0@0@Z ; std::distance<std::_Tree_unchecked_const_iterator<std::_Tree_val<std::_Tree_simple_types<std::pair<unsigned long const ,unsigned long> > >,std::_Iterator_base0> >
PUBLIC	??$?0ABU?$less@K@std@@U_Zero_then_variadic_args_t@1@@?$_Compressed_pair@U?$less@K@std@@V?$_Compressed_pair@V?$allocator@U?$_Tree_node@U?$pair@$$CBKUSReserveTargetEffect@CPythonBackground@@@std@@PAX@std@@@std@@V?$_Tree_val@U?$_Tree_simple_types@U?$pair@$$CBKUSReserveTargetEffect@CPythonBackground@@@std@@@std@@@2@$00@2@$00@std@@QAE@U_One_then_variadic_args_t@1@ABU?$less@K@1@$$QAU_Zero_then_variadic_args_t@1@@Z ; std::_Compressed_pair<std::less<unsigned long>,std::_Compressed_pair<std::allocator<std::_Tree_node<std::pair<unsigned long const ,CPythonBackground::SReserveTargetEffect>,void *> >,std::_Tree_val<std::_Tree_simple_types<std::pair<unsigned long const ,CPythonBackground::SReserveTargetEffect> > >,1>,1>::_Compressed_pair<std::less<unsigned long>,std::_Compressed_pair<std::allocator<std::_Tree_node<std::pair<unsigned long const ,CPythonBackground::SReserveTargetEffect>,void *> >,std::_Tree_val<std::_Tree_simple_types<std::pair<unsigned long const ,CPythonBackground::SReserveTargetEffect> > >,1>,1><std::less<unsigned long> const &,std::_Zero_then_variadic_args_t>
PUBLIC	??$_Get_unwrapped@AAV?$_Tree_unchecked_const_iterator@V?$_Tree_val@U?$_Tree_simple_types@U?$pair@$$CBKUSReserveTargetEffect@CPythonBackground@@@std@@@std@@@std@@U_Iterator_base0@2@@std@@@std@@YA?A_TAAV?$_Tree_unchecked_const_iterator@V?$_Tree_val@U?$_Tree_simple_types@U?$pair@$$CBKUSReserveTargetEffect@CPythonBackground@@@std@@@std@@@std@@U_Iterator_base0@2@@0@@Z ; std::_Get_unwrapped<std::_Tree_unchecked_const_iterator<std::_Tree_val<std::_Tree_simple_types<std::pair<unsigned long const ,CPythonBackground::SReserveTargetEffect> > >,std::_Iterator_base0> &>
PUBLIC	??$distance@V?$_Tree_unchecked_const_iterator@V?$_Tree_val@U?$_Tree_simple_types@U?$pair@$$CBKUSReserveTargetEffect@CPythonBackground@@@std@@@std@@@std@@U_Iterator_base0@2@@std@@@std@@YAHV?$_Tree_unchecked_const_iterator@V?$_Tree_val@U?$_Tree_simple_types@U?$pair@$$CBKUSReserveTargetEffect@CPythonBackground@@@std@@@std@@@std@@U_Iterator_base0@2@@0@0@Z ; std::distance<std::_Tree_unchecked_const_iterator<std::_Tree_val<std::_Tree_simple_types<std::pair<unsigned long const ,CPythonBackground::SReserveTargetEffect> > >,std::_Iterator_base0> >
PUBLIC	??$addressof@V?$_Tree_val@U?$_Tree_simple_types@U?$pair@$$CBKUSReserveTargetEffect@CPythonBackground@@@std@@@std@@@std@@@std@@YAPAV?$_Tree_val@U?$_Tree_simple_types@U?$pair@$$CBKUSReserveTargetEffect@CPythonBackground@@@std@@@std@@@0@AAV10@@Z ; std::addressof<std::_Tree_val<std::_Tree_simple_types<std::pair<unsigned long const ,CPythonBackground::SReserveTargetEffect> > > >
PUBLIC	??$addressof@U?$pair@$$CBKUSReserveTargetEffect@CPythonBackground@@@std@@@std@@YAPAU?$pair@$$CBKUSReserveTargetEffect@CPythonBackground@@@0@AAU10@@Z ; std::addressof<std::pair<unsigned long const ,CPythonBackground::SReserveTargetEffect> >
PUBLIC	??$_Freenode0@V?$allocator@U?$_Tree_node@HPAX@std@@@std@@@?$_Tree_node@HPAX@std@@SAXAAV?$allocator@U?$_Tree_node@HPAX@std@@@1@PAU01@@Z ; std::_Tree_node<int,void *>::_Freenode0<std::allocator<std::_Tree_node<int,void *> > >
PUBLIC	??$_Freenode@V?$allocator@U?$_Tree_node@HPAX@std@@@std@@@?$_Tree_node@HPAX@std@@SAXAAV?$allocator@U?$_Tree_node@HPAX@std@@@1@PAU01@@Z ; std::_Tree_node<int,void *>::_Freenode<std::allocator<std::_Tree_node<int,void *> > >
PUBLIC	??$exchange@PAU?$_Tree_node@HPAX@std@@AAPAU12@@std@@YAPAU?$_Tree_node@HPAX@0@AAPAU10@0@Z ; std::exchange<std::_Tree_node<int,void *> *,std::_Tree_node<int,void *> * &>
PUBLIC	??$_Freenode0@V?$allocator@U?$_Tree_node@V?$basic_string@DU?$char_traits@D@std@@V?$allocator@D@2@@std@@PAX@std@@@std@@@?$_Tree_node@V?$basic_string@DU?$char_traits@D@std@@V?$allocator@D@2@@std@@PAX@std@@SAXAAV?$allocator@U?$_Tree_node@V?$basic_string@DU?$char_traits@D@std@@V?$allocator@D@2@@std@@PAX@std@@@1@PAU01@@Z ; std::_Tree_node<std::basic_string<char,std::char_traits<char>,std::allocator<char> >,void *>::_Freenode0<std::allocator<std::_Tree_node<std::basic_string<char,std::char_traits<char>,std::allocator<char> >,void *> > >
PUBLIC	??$_Erase_tree@V?$allocator@U?$_Tree_node@V?$basic_string@DU?$char_traits@D@std@@V?$allocator@D@2@@std@@PAX@std@@@std@@@?$_Tree_val@U?$_Tree_simple_types@V?$basic_string@DU?$char_traits@D@std@@V?$allocator@D@2@@std@@@std@@@std@@QAEXAAV?$allocator@U?$_Tree_node@V?$basic_string@DU?$char_traits@D@std@@V?$allocator@D@2@@std@@PAX@std@@@1@PAU?$_Tree_node@V?$basic_string@DU?$char_traits@D@std@@V?$allocator@D@2@@std@@PAX@1@@Z ; std::_Tree_val<std::_Tree_simple_types<std::basic_string<char,std::char_traits<char>,std::allocator<char> > > >::_Erase_tree<std::allocator<std::_Tree_node<std::basic_string<char,std::char_traits<char>,std::allocator<char> >,void *> > >
PUBLIC	??$_Freenode0@V?$allocator@U?$_Tree_node@U?$pair@$$CBKUSReserveTargetEffect@CPythonBackground@@@std@@PAX@std@@@std@@@?$_Tree_node@U?$pair@$$CBKUSReserveTargetEffect@CPythonBackground@@@std@@PAX@std@@SAXAAV?$allocator@U?$_Tree_node@U?$pair@$$CBKUSReserveTargetEffect@CPythonBackground@@@std@@PAX@std@@@1@PAU01@@Z ; std::_Tree_node<std::pair<unsigned long const ,CPythonBackground::SReserveTargetEffect>,void *>::_Freenode0<std::allocator<std::_Tree_node<std::pair<unsigned long const ,CPythonBackground::SReserveTargetEffect>,void *> > >
PUBLIC	??$_Freenode@V?$allocator@U?$_Tree_node@U?$pair@$$CBKUSReserveTargetEffect@CPythonBackground@@@std@@PAX@std@@@std@@@?$_Tree_node@U?$pair@$$CBKUSReserveTargetEffect@CPythonBackground@@@std@@PAX@std@@SAXAAV?$allocator@U?$_Tree_node@U?$pair@$$CBKUSReserveTargetEffect@CPythonBackground@@@std@@PAX@std@@@1@PAU01@@Z ; std::_Tree_node<std::pair<unsigned long const ,CPythonBackground::SReserveTargetEffect>,void *>::_Freenode<std::allocator<std::_Tree_node<std::pair<unsigned long const ,CPythonBackground::SReserveTargetEffect>,void *> > >
PUBLIC	??$exchange@PAU?$_Tree_node@U?$pair@$$CBKUSReserveTargetEffect@CPythonBackground@@@std@@PAX@std@@AAPAU12@@std@@YAPAU?$_Tree_node@U?$pair@$$CBKUSReserveTargetEffect@CPythonBackground@@@std@@PAX@0@AAPAU10@0@Z ; std::exchange<std::_Tree_node<std::pair<unsigned long const ,CPythonBackground::SReserveTargetEffect>,void *> *,std::_Tree_node<std::pair<unsigned long const ,CPythonBackground::SReserveTargetEffect>,void *> * &>
PUBLIC	??$_Lower_bound_duplicate@K@?$_Tree@V?$_Tmap_traits@KUSReserveTargetEffect@CPythonBackground@@U?$less@K@std@@V?$allocator@U?$pair@$$CBKUSReserveTargetEffect@CPythonBackground@@@std@@@4@$0A@@std@@@std@@IBE_NQAU?$_Tree_node@U?$pair@$$CBKUSReserveTargetEffect@CPythonBackground@@@std@@PAX@1@ABK@Z ; std::_Tree<std::_Tmap_traits<unsigned long,CPythonBackground::SReserveTargetEffect,std::less<unsigned long>,std::allocator<std::pair<unsigned long const ,CPythonBackground::SReserveTargetEffect> >,0> >::_Lower_bound_duplicate<unsigned long>
PUBLIC	??$_Find_lower_bound@K@?$_Tree@V?$_Tmap_traits@KUSReserveTargetEffect@CPythonBackground@@U?$less@K@std@@V?$allocator@U?$pair@$$CBKUSReserveTargetEffect@CPythonBackground@@@std@@@4@$0A@@std@@@std@@IBE?AU?$_Tree_find_result@PAU?$_Tree_node@U?$pair@$$CBKUSReserveTargetEffect@CPythonBackground@@@std@@PAX@std@@@1@ABK@Z ; std::_Tree<std::_Tmap_traits<unsigned long,CPythonBackground::SReserveTargetEffect,std::less<unsigned long>,std::allocator<std::pair<unsigned long const ,CPythonBackground::SReserveTargetEffect> >,0> >::_Find_lower_bound<unsigned long>
PUBLIC	??$?0V?$_Tree_iterator@V?$_Tree_val@U?$_Tree_simple_types@U?$pair@$$CBKUSReserveTargetEffect@CPythonBackground@@@std@@@std@@@std@@@std@@AB_N$0A@@?$pair@V?$_Tree_iterator@V?$_Tree_val@U?$_Tree_simple_types@U?$pair@$$CBKUSReserveTargetEffect@CPythonBackground@@@std@@@std@@@std@@@std@@_N@std@@QAE@$$QAV?$_Tree_iterator@V?$_Tree_val@U?$_Tree_simple_types@U?$pair@$$CBKUSReserveTargetEffect@CPythonBackground@@@std@@@std@@@std@@@1@AB_N@Z ; std::pair<std::_Tree_iterator<std::_Tree_val<std::_Tree_simple_types<std::pair<unsigned long const ,CPythonBackground::SReserveTargetEffect> > > >,bool>::pair<std::_Tree_iterator<std::_Tree_val<std::_Tree_simple_types<std::pair<unsigned long const ,CPythonBackground::SReserveTargetEffect> > > >,bool><std::_Tree_iterator<std::_Tree_val<std::_Tree_simple_types<std::pair<unsigned long const ,CPythonBackground::SReserveTargetEffect> > > >,bool const &,0>
PUBLIC	??$_Emplace@U?$pair@KUSReserveTargetEffect@CPythonBackground@@@std@@@?$_Tree@V?$_Tmap_traits@KUSReserveTargetEffect@CPythonBackground@@U?$less@K@std@@V?$allocator@U?$pair@$$CBKUSReserveTargetEffect@CPythonBackground@@@std@@@4@$0A@@std@@@std@@IAE?AU?$pair@PAU?$_Tree_node@U?$pair@$$CBKUSReserveTargetEffect@CPythonBackground@@@std@@PAX@std@@_N@1@$$QAU?$pair@KUSReserveTargetEffect@CPythonBackground@@@1@@Z ; std::_Tree<std::_Tmap_traits<unsigned long,CPythonBackground::SReserveTargetEffect,std::less<unsigned long>,std::allocator<std::pair<unsigned long const ,CPythonBackground::SReserveTargetEffect> >,0> >::_Emplace<std::pair<unsigned long,CPythonBackground::SReserveTargetEffect> >
PUBLIC	??$forward@AAPAUTMapInfo@CMapManager@@@std@@YAAAPAUTMapInfo@CMapManager@@AAPAU12@@Z ; std::forward<CMapManager::TMapInfo * &>
PUBLIC	??$forward@V?$_Tree_const_iterator@V?$_Tree_val@U?$_Tree_simple_types@V?$basic_string@DU?$char_traits@D@std@@V?$allocator@D@2@@std@@@std@@@std@@@std@@@std@@YA$$QAV?$_Tree_const_iterator@V?$_Tree_val@U?$_Tree_simple_types@V?$basic_string@DU?$char_traits@D@std@@V?$allocator@D@2@@std@@@std@@@std@@@0@AAV10@@Z ; std::forward<std::_Tree_const_iterator<std::_Tree_val<std::_Tree_simple_types<std::basic_string<char,std::char_traits<char>,std::allocator<char> > > > > >
PUBLIC	??$?0PAU?$_Tree_node@V?$basic_string@DU?$char_traits@D@std@@V?$allocator@D@2@@std@@PAX@std@@_N$0A@@?$pair@PAU?$_Tree_node@V?$basic_string@DU?$char_traits@D@std@@V?$allocator@D@2@@std@@PAX@std@@_N@std@@QAE@$$QAPAU?$_Tree_node@V?$basic_string@DU?$char_traits@D@std@@V?$allocator@D@2@@std@@PAX@1@$$QA_N@Z ; std::pair<std::_Tree_node<std::basic_string<char,std::char_traits<char>,std::allocator<char> >,void *> *,bool>::pair<std::_Tree_node<std::basic_string<char,std::char_traits<char>,std::allocator<char> >,void *> *,bool><std::_Tree_node<std::basic_string<char,std::char_traits<char>,std::allocator<char> >,void *> *,bool,0>
PUBLIC	??$?0AAPAU?$_Tree_node@V?$basic_string@DU?$char_traits@D@std@@V?$allocator@D@2@@std@@PAX@std@@_N$0A@@?$pair@PAU?$_Tree_node@V?$basic_string@DU?$char_traits@D@std@@V?$allocator@D@2@@std@@PAX@std@@_N@std@@QAE@AAPAU?$_Tree_node@V?$basic_string@DU?$char_traits@D@std@@V?$allocator@D@2@@std@@PAX@1@$$QA_N@Z ; std::pair<std::_Tree_node<std::basic_string<char,std::char_traits<char>,std::allocator<char> >,void *> *,bool>::pair<std::_Tree_node<std::basic_string<char,std::char_traits<char>,std::allocator<char> >,void *> *,bool><std::_Tree_node<std::basic_string<char,std::char_traits<char>,std::allocator<char> >,void *> * &,bool,0>
PUBLIC	??$?0V?$basic_string@DU?$char_traits@D@std@@V?$allocator@D@2@@std@@@?$_Tree_temp_node@V?$allocator@U?$_Tree_node@V?$basic_string@DU?$char_traits@D@std@@V?$allocator@D@2@@std@@PAX@std@@@std@@@std@@QAE@AAV?$allocator@U?$_Tree_node@V?$basic_string@DU?$char_traits@D@std@@V?$allocator@D@2@@std@@PAX@std@@@1@PAU?$_Tree_node@V?$basic_string@DU?$char_traits@D@std@@V?$allocator@D@2@@std@@PAX@1@$$QAV?$basic_string@DU?$char_traits@D@std@@V?$allocator@D@2@@1@@Z ; std::_Tree_temp_node<std::allocator<std::_Tree_node<std::basic_string<char,std::char_traits<char>,std::allocator<char> >,void *> > >::_Tree_temp_node<std::allocator<std::_Tree_node<std::basic_string<char,std::char_traits<char>,std::allocator<char> >,void *> > ><std::basic_string<char,std::char_traits<char>,std::allocator<char> > >
PUBLIC	??$_Lower_bound_duplicate@V?$basic_string@DU?$char_traits@D@std@@V?$allocator@D@2@@std@@@?$_Tree@V?$_Tset_traits@V?$basic_string@DU?$char_traits@D@std@@V?$allocator@D@2@@std@@U?$less@V?$basic_string@DU?$char_traits@D@std@@V?$allocator@D@2@@std@@@2@V?$allocator@V?$basic_string@DU?$char_traits@D@std@@V?$allocator@D@2@@std@@@2@$0A@@std@@@std@@IBE_NQAU?$_Tree_node@V?$basic_string@DU?$char_traits@D@std@@V?$allocator@D@2@@std@@PAX@1@ABV?$basic_string@DU?$char_traits@D@std@@V?$allocator@D@2@@1@@Z ; std::_Tree<std::_Tset_traits<std::basic_string<char,std::char_traits<char>,std::allocator<char> >,std::less<std::basic_string<char,std::char_traits<char>,std::allocator<char> > >,std::allocator<std::basic_string<char,std::char_traits<char>,std::allocator<char> > >,0> >::_Lower_bound_duplicate<std::basic_string<char,std::char_traits<char>,std::allocator<char> > >
PUBLIC	??$_Find_lower_bound@V?$basic_string@DU?$char_traits@D@std@@V?$allocator@D@2@@std@@@?$_Tree@V?$_Tset_traits@V?$basic_string@DU?$char_traits@D@std@@V?$allocator@D@2@@std@@U?$less@V?$basic_string@DU?$char_traits@D@std@@V?$allocator@D@2@@std@@@2@V?$allocator@V?$basic_string@DU?$char_traits@D@std@@V?$allocator@D@2@@std@@@2@$0A@@std@@@std@@IBE?AU?$_Tree_find_result@PAU?$_Tree_node@V?$basic_string@DU?$char_traits@D@std@@V?$allocator@D@2@@std@@PAX@std@@@1@ABV?$basic_string@DU?$char_traits@D@std@@V?$allocator@D@2@@1@@Z ; std::_Tree<std::_Tset_traits<std::basic_string<char,std::char_traits<char>,std::allocator<char> >,std::less<std::basic_string<char,std::char_traits<char>,std::allocator<char> > >,std::allocator<std::basic_string<char,std::char_traits<char>,std::allocator<char> > >,0> >::_Find_lower_bound<std::basic_string<char,std::char_traits<char>,std::allocator<char> > >
PUBLIC	??$forward@V?$_Tree_const_iterator@V?$_Tree_val@U?$_Tree_simple_types@H@std@@@std@@@std@@@std@@YA$$QAV?$_Tree_const_iterator@V?$_Tree_val@U?$_Tree_simple_types@H@std@@@std@@@0@AAV10@@Z ; std::forward<std::_Tree_const_iterator<std::_Tree_val<std::_Tree_simple_types<int> > > >
PUBLIC	??$?0PAU?$_Tree_node@HPAX@std@@_N$0A@@?$pair@PAU?$_Tree_node@HPAX@std@@_N@std@@QAE@$$QAPAU?$_Tree_node@HPAX@1@$$QA_N@Z ; std::pair<std::_Tree_node<int,void *> *,bool>::pair<std::_Tree_node<int,void *> *,bool><std::_Tree_node<int,void *> *,bool,0>
PUBLIC	??$?0AAPAU?$_Tree_node@HPAX@std@@_N$0A@@?$pair@PAU?$_Tree_node@HPAX@std@@_N@std@@QAE@AAPAU?$_Tree_node@HPAX@1@$$QA_N@Z ; std::pair<std::_Tree_node<int,void *> *,bool>::pair<std::_Tree_node<int,void *> *,bool><std::_Tree_node<int,void *> * &,bool,0>
PUBLIC	??$?0ABH@?$_Tree_temp_node@V?$allocator@U?$_Tree_node@HPAX@std@@@std@@@std@@QAE@AAV?$allocator@U?$_Tree_node@HPAX@std@@@1@PAU?$_Tree_node@HPAX@1@ABH@Z ; std::_Tree_temp_node<std::allocator<std::_Tree_node<int,void *> > >::_Tree_temp_node<std::allocator<std::_Tree_node<int,void *> > ><int const &>
PUBLIC	??$forward@ABH@std@@YAABHABH@Z			; std::forward<int const &>
PUBLIC	??$_Lower_bound_duplicate@H@?$_Tree@V?$_Tset_traits@HU?$less@H@std@@V?$allocator@H@2@$0A@@std@@@std@@IBE_NQAU?$_Tree_node@HPAX@1@ABH@Z ; std::_Tree<std::_Tset_traits<int,std::less<int>,std::allocator<int>,0> >::_Lower_bound_duplicate<int>
PUBLIC	??$_Find_lower_bound@H@?$_Tree@V?$_Tset_traits@HU?$less@H@std@@V?$allocator@H@2@$0A@@std@@@std@@IBE?AU?$_Tree_find_result@PAU?$_Tree_node@HPAX@std@@@1@ABH@Z ; std::_Tree<std::_Tset_traits<int,std::less<int>,std::allocator<int>,0> >::_Find_lower_bound<int>
PUBLIC	??$?0AAPAU?$_Tree_node@U?$pair@$$CBKK@std@@PAX@std@@AAPAU01@$0A@@?$pair@PAU?$_Tree_node@U?$pair@$$CBKK@std@@PAX@std@@PAU12@@std@@QAE@AAPAU?$_Tree_node@U?$pair@$$CBKK@std@@PAX@1@0@Z ; std::pair<std::_Tree_node<std::pair<unsigned long const ,unsigned long>,void *> *,std::_Tree_node<std::pair<unsigned long const ,unsigned long>,void *> *>::pair<std::_Tree_node<std::pair<unsigned long const ,unsigned long>,void *> *,std::_Tree_node<std::pair<unsigned long const ,unsigned long>,void *> *><std::_Tree_node<std::pair<unsigned long const ,unsigned long>,void *> * &,std::_Tree_node<std::pair<unsigned long const ,unsigned long>,void *> * &,0>
PUBLIC	??$?0AAPAU?$_Tree_node@U?$pair@$$CBKUSReserveTargetEffect@CPythonBackground@@@std@@PAX@std@@AAPAU01@$0A@@?$pair@PAU?$_Tree_node@U?$pair@$$CBKUSReserveTargetEffect@CPythonBackground@@@std@@PAX@std@@PAU12@@std@@QAE@AAPAU?$_Tree_node@U?$pair@$$CBKUSReserveTargetEffect@CPythonBackground@@@std@@PAX@1@0@Z ; std::pair<std::_Tree_node<std::pair<unsigned long const ,CPythonBackground::SReserveTargetEffect>,void *> *,std::_Tree_node<std::pair<unsigned long const ,CPythonBackground::SReserveTargetEffect>,void *> *>::pair<std::_Tree_node<std::pair<unsigned long const ,CPythonBackground::SReserveTargetEffect>,void *> *,std::_Tree_node<std::pair<unsigned long const ,CPythonBackground::SReserveTargetEffect>,void *> *><std::_Tree_node<std::pair<unsigned long const ,CPythonBackground::SReserveTargetEffect>,void *> * &,std::_Tree_node<std::pair<unsigned long const ,CPythonBackground::SReserveTargetEffect>,void *> * &,0>
PUBLIC	??$_Kfn@$$CBKUSReserveTargetEffect@CPythonBackground@@@?$_Tmap_traits@KUSReserveTargetEffect@CPythonBackground@@U?$less@K@std@@V?$allocator@U?$pair@$$CBKUSReserveTargetEffect@CPythonBackground@@@std@@@4@$0A@@std@@SAABKABU?$pair@$$CBKUSReserveTargetEffect@CPythonBackground@@@1@@Z ; std::_Tmap_traits<unsigned long,CPythonBackground::SReserveTargetEffect,std::less<unsigned long>,std::allocator<std::pair<unsigned long const ,CPythonBackground::SReserveTargetEffect> >,0>::_Kfn<unsigned long const ,CPythonBackground::SReserveTargetEffect>
PUBLIC	??0?$_Tree_unchecked_iterator@V?$_Tree_val@U?$_Tree_simple_types@U?$pair@$$CBKUSReserveTargetEffect@CPythonBackground@@@std@@@std@@@std@@@std@@QAE@PAU?$_Tree_node@U?$pair@$$CBKUSReserveTargetEffect@CPythonBackground@@@std@@PAX@1@PBV?$_Tree_val@U?$_Tree_simple_types@U?$pair@$$CBKUSReserveTargetEffect@CPythonBackground@@@std@@@std@@@1@@Z ; std::_Tree_unchecked_iterator<std::_Tree_val<std::_Tree_simple_types<std::pair<unsigned long const ,CPythonBackground::SReserveTargetEffect> > > >::_Tree_unchecked_iterator<std::_Tree_val<std::_Tree_simple_types<std::pair<unsigned long const ,CPythonBackground::SReserveTargetEffect> > > >
PUBLIC	??_G?$RangeTester@UFGetPortalID@@@@UAEPAXI@Z	; RangeTester<FGetPortalID>::`scalar deleting destructor'
PUBLIC	??_G?$RangeTester@UCollisionAdjustChecker@@@@UAEPAXI@Z ; RangeTester<CollisionAdjustChecker>::`scalar deleting destructor'
PUBLIC	??_G?$RangeTester@UCollisionChecker@@@@UAEPAXI@Z ; RangeTester<CollisionChecker>::`scalar deleting destructor'
PUBLIC	?_Equal@?$basic_string@DU?$char_traits@D@std@@V?$allocator@D@2@@std@@QBE_NQBD@Z ; std::basic_string<char,std::char_traits<char>,std::allocator<char> >::_Equal
PUBLIC	??0?$_Vector_const_iterator@V?$_Vector_val@U?$_Simple_types@V?$basic_string@DU?$char_traits@D@std@@V?$allocator@D@2@@std@@@std@@@std@@@std@@QAE@PAV?$basic_string@DU?$char_traits@D@std@@V?$allocator@D@2@@1@PBU_Container_base0@1@@Z ; std::_Vector_const_iterator<std::_Vector_val<std::_Simple_types<std::basic_string<char,std::char_traits<char>,std::allocator<char> > > > >::_Vector_const_iterator<std::_Vector_val<std::_Simple_types<std::basic_string<char,std::char_traits<char>,std::allocator<char> > > > >
PUBLIC	?_Compat@?$_Vector_const_iterator@V?$_Vector_val@U?$_Simple_types@V?$basic_string@DU?$char_traits@D@std@@V?$allocator@D@2@@std@@@std@@@std@@@std@@QBEXABV12@@Z ; std::_Vector_const_iterator<std::_Vector_val<std::_Simple_types<std::basic_string<char,std::char_traits<char>,std::allocator<char> > > > >::_Compat
PUBLIC	?_Unwrapped@?$_Vector_const_iterator@V?$_Vector_val@U?$_Simple_types@V?$basic_string@DU?$char_traits@D@std@@V?$allocator@D@2@@std@@@std@@@std@@@std@@QBEPBV?$basic_string@DU?$char_traits@D@std@@V?$allocator@D@2@@2@XZ ; std::_Vector_const_iterator<std::_Vector_val<std::_Simple_types<std::basic_string<char,std::char_traits<char>,std::allocator<char> > > > >::_Unwrapped
PUBLIC	??0?$_Tree@V?$_Tset_traits@HU?$less@H@std@@V?$allocator@H@2@$0A@@std@@@std@@QAE@ABU?$less@H@1@@Z ; std::_Tree<std::_Tset_traits<int,std::less<int>,std::allocator<int>,0> >::_Tree<std::_Tset_traits<int,std::less<int>,std::allocator<int>,0> >
PUBLIC	??4?$_Tree@V?$_Tset_traits@HU?$less@H@std@@V?$allocator@H@2@$0A@@std@@@std@@QAEAAV01@ABV01@@Z ; std::_Tree<std::_Tset_traits<int,std::less<int>,std::allocator<int>,0> >::operator=
PUBLIC	?_Getal@?$_Tree@V?$_Tset_traits@HU?$less@H@std@@V?$allocator@H@2@$0A@@std@@@std@@IAEAAV?$allocator@U?$_Tree_node@HPAX@std@@@2@XZ ; std::_Tree<std::_Tset_traits<int,std::less<int>,std::allocator<int>,0> >::_Getal
PUBLIC	?_Get_scary@?$_Tree@V?$_Tset_traits@HU?$less@H@std@@V?$allocator@H@2@$0A@@std@@@std@@IAEPAV?$_Tree_val@U?$_Tree_simple_types@H@std@@@2@XZ ; std::_Tree<std::_Tset_traits<int,std::less<int>,std::allocator<int>,0> >::_Get_scary
PUBLIC	?_Orphan_ptr@?$_Tree_val@U?$_Tree_simple_types@H@std@@@std@@QAEXQAU?$_Tree_node@HPAX@2@@Z ; std::_Tree_val<std::_Tree_simple_types<int> >::_Orphan_ptr
PUBLIC	??0?$_Tree_unchecked_const_iterator@V?$_Tree_val@U?$_Tree_simple_types@H@std@@@std@@U_Iterator_base0@2@@std@@QAE@PAU?$_Tree_node@HPAX@1@PBV?$_Tree_val@U?$_Tree_simple_types@H@std@@@1@@Z ; std::_Tree_unchecked_const_iterator<std::_Tree_val<std::_Tree_simple_types<int> >,std::_Iterator_base0>::_Tree_unchecked_const_iterator<std::_Tree_val<std::_Tree_simple_types<int> >,std::_Iterator_base0>
PUBLIC	??E?$_Tree_unchecked_const_iterator@V?$_Tree_val@U?$_Tree_simple_types@H@std@@@std@@U_Iterator_base0@2@@std@@QAEAAV01@XZ ; std::_Tree_unchecked_const_iterator<std::_Tree_val<std::_Tree_simple_types<int> >,std::_Iterator_base0>::operator++
PUBLIC	??0?$_Vector_const_iterator@V?$_Vector_val@U?$_Simple_types@UTMapInfo@CMapManager@@@std@@@std@@@std@@QAE@PAUTMapInfo@CMapManager@@PBU_Container_base0@1@@Z ; std::_Vector_const_iterator<std::_Vector_val<std::_Simple_types<CMapManager::TMapInfo> > >::_Vector_const_iterator<std::_Vector_val<std::_Simple_types<CMapManager::TMapInfo> > >
PUBLIC	??D?$_Vector_const_iterator@V?$_Vector_val@U?$_Simple_types@UTMapInfo@CMapManager@@@std@@@std@@@std@@QBEABUTMapInfo@CMapManager@@XZ ; std::_Vector_const_iterator<std::_Vector_val<std::_Simple_types<CMapManager::TMapInfo> > >::operator*
PUBLIC	?_Compat@?$_Vector_const_iterator@V?$_Vector_val@U?$_Simple_types@UTMapInfo@CMapManager@@@std@@@std@@@std@@QBEXABV12@@Z ; std::_Vector_const_iterator<std::_Vector_val<std::_Simple_types<CMapManager::TMapInfo> > >::_Compat
PUBLIC	??0?$_Tree@V?$_Tset_traits@V?$basic_string@DU?$char_traits@D@std@@V?$allocator@D@2@@std@@U?$less@V?$basic_string@DU?$char_traits@D@std@@V?$allocator@D@2@@std@@@2@V?$allocator@V?$basic_string@DU?$char_traits@D@std@@V?$allocator@D@2@@std@@@2@$0A@@std@@@std@@QAE@ABU?$less@V?$basic_string@DU?$char_traits@D@std@@V?$allocator@D@2@@std@@@1@@Z ; std::_Tree<std::_Tset_traits<std::basic_string<char,std::char_traits<char>,std::allocator<char> >,std::less<std::basic_string<char,std::char_traits<char>,std::allocator<char> > >,std::allocator<std::basic_string<char,std::char_traits<char>,std::allocator<char> > >,0> >::_Tree<std::_Tset_traits<std::basic_string<char,std::char_traits<char>,std::allocator<char> >,std::less<std::basic_string<char,std::char_traits<char>,std::allocator<char> > >,std::allocator<std::basic_string<char,std::char_traits<char>,std::allocator<char> > >,0> >
PUBLIC	?_Getal@?$_Tree@V?$_Tset_traits@V?$basic_string@DU?$char_traits@D@std@@V?$allocator@D@2@@std@@U?$less@V?$basic_string@DU?$char_traits@D@std@@V?$allocator@D@2@@std@@@2@V?$allocator@V?$basic_string@DU?$char_traits@D@std@@V?$allocator@D@2@@std@@@2@$0A@@std@@@std@@IAEAAV?$allocator@U?$_Tree_node@V?$basic_string@DU?$char_traits@D@std@@V?$allocator@D@2@@std@@PAX@std@@@2@XZ ; std::_Tree<std::_Tset_traits<std::basic_string<char,std::char_traits<char>,std::allocator<char> >,std::less<std::basic_string<char,std::char_traits<char>,std::allocator<char> > >,std::allocator<std::basic_string<char,std::char_traits<char>,std::allocator<char> > >,0> >::_Getal
PUBLIC	?_Get_scary@?$_Tree@V?$_Tset_traits@V?$basic_string@DU?$char_traits@D@std@@V?$allocator@D@2@@std@@U?$less@V?$basic_string@DU?$char_traits@D@std@@V?$allocator@D@2@@std@@@2@V?$allocator@V?$basic_string@DU?$char_traits@D@std@@V?$allocator@D@2@@std@@@2@$0A@@std@@@std@@IAEPAV?$_Tree_val@U?$_Tree_simple_types@V?$basic_string@DU?$char_traits@D@std@@V?$allocator@D@2@@std@@@std@@@2@XZ ; std::_Tree<std::_Tset_traits<std::basic_string<char,std::char_traits<char>,std::allocator<char> >,std::less<std::basic_string<char,std::char_traits<char>,std::allocator<char> > >,std::allocator<std::basic_string<char,std::char_traits<char>,std::allocator<char> > >,0> >::_Get_scary
PUBLIC	??0?$_Tree_unchecked_const_iterator@V?$_Tree_val@U?$_Tree_simple_types@V?$basic_string@DU?$char_traits@D@std@@V?$allocator@D@2@@std@@@std@@@std@@U_Iterator_base0@2@@std@@QAE@PAU?$_Tree_node@V?$basic_string@DU?$char_traits@D@std@@V?$allocator@D@2@@std@@PAX@1@PBV?$_Tree_val@U?$_Tree_simple_types@V?$basic_string@DU?$char_traits@D@std@@V?$allocator@D@2@@std@@@std@@@1@@Z ; std::_Tree_unchecked_const_iterator<std::_Tree_val<std::_Tree_simple_types<std::basic_string<char,std::char_traits<char>,std::allocator<char> > > >,std::_Iterator_base0>::_Tree_unchecked_const_iterator<std::_Tree_val<std::_Tree_simple_types<std::basic_string<char,std::char_traits<char>,std::allocator<char> > > >,std::_Iterator_base0>
PUBLIC	?_Erase@?$_Tree@V?$_Tmap_traits@KKU?$less@K@std@@V?$allocator@U?$pair@$$CBKK@std@@@2@$0A@@std@@@std@@AAEIU?$pair@PAU?$_Tree_node@U?$pair@$$CBKK@std@@PAX@std@@PAU12@@2@@Z ; std::_Tree<std::_Tmap_traits<unsigned long,unsigned long,std::less<unsigned long>,std::allocator<std::pair<unsigned long const ,unsigned long> >,0> >::_Erase
PUBLIC	??0?$_Tree@V?$_Tmap_traits@KUSReserveTargetEffect@CPythonBackground@@U?$less@K@std@@V?$allocator@U?$pair@$$CBKUSReserveTargetEffect@CPythonBackground@@@std@@@4@$0A@@std@@@std@@QAE@ABU?$less@K@1@@Z ; std::_Tree<std::_Tmap_traits<unsigned long,CPythonBackground::SReserveTargetEffect,std::less<unsigned long>,std::allocator<std::pair<unsigned long const ,CPythonBackground::SReserveTargetEffect> >,0> >::_Tree<std::_Tmap_traits<unsigned long,CPythonBackground::SReserveTargetEffect,std::less<unsigned long>,std::allocator<std::pair<unsigned long const ,CPythonBackground::SReserveTargetEffect> >,0> >
PUBLIC	?_Erase_unchecked@?$_Tree@V?$_Tmap_traits@KUSReserveTargetEffect@CPythonBackground@@U?$less@K@std@@V?$allocator@U?$pair@$$CBKUSReserveTargetEffect@CPythonBackground@@@std@@@4@$0A@@std@@@std@@AAEPAU?$_Tree_node@U?$pair@$$CBKUSReserveTargetEffect@CPythonBackground@@@std@@PAX@2@V?$_Tree_unchecked_const_iterator@V?$_Tree_val@U?$_Tree_simple_types@U?$pair@$$CBKUSReserveTargetEffect@CPythonBackground@@@std@@@std@@@std@@U_Iterator_base0@2@@2@@Z ; std::_Tree<std::_Tmap_traits<unsigned long,CPythonBackground::SReserveTargetEffect,std::less<unsigned long>,std::allocator<std::pair<unsigned long const ,CPythonBackground::SReserveTargetEffect> >,0> >::_Erase_unchecked
PUBLIC	?_Erase@?$_Tree@V?$_Tmap_traits@KUSReserveTargetEffect@CPythonBackground@@U?$less@K@std@@V?$allocator@U?$pair@$$CBKUSReserveTargetEffect@CPythonBackground@@@std@@@4@$0A@@std@@@std@@AAEIU?$pair@PAU?$_Tree_node@U?$pair@$$CBKUSReserveTargetEffect@CPythonBackground@@@std@@PAX@std@@PAU12@@2@@Z ; std::_Tree<std::_Tmap_traits<unsigned long,CPythonBackground::SReserveTargetEffect,std::less<unsigned long>,std::allocator<std::pair<unsigned long const ,CPythonBackground::SReserveTargetEffect> >,0> >::_Erase
PUBLIC	?_Getal@?$_Tree@V?$_Tmap_traits@KUSReserveTargetEffect@CPythonBackground@@U?$less@K@std@@V?$allocator@U?$pair@$$CBKUSReserveTargetEffect@CPythonBackground@@@std@@@4@$0A@@std@@@std@@IAEAAV?$allocator@U?$_Tree_node@U?$pair@$$CBKUSReserveTargetEffect@CPythonBackground@@@std@@PAX@std@@@2@XZ ; std::_Tree<std::_Tmap_traits<unsigned long,CPythonBackground::SReserveTargetEffect,std::less<unsigned long>,std::allocator<std::pair<unsigned long const ,CPythonBackground::SReserveTargetEffect> >,0> >::_Getal
PUBLIC	?_Get_scary@?$_Tree@V?$_Tmap_traits@KUSReserveTargetEffect@CPythonBackground@@U?$less@K@std@@V?$allocator@U?$pair@$$CBKUSReserveTargetEffect@CPythonBackground@@@std@@@4@$0A@@std@@@std@@IAEPAV?$_Tree_val@U?$_Tree_simple_types@U?$pair@$$CBKUSReserveTargetEffect@CPythonBackground@@@std@@@std@@@2@XZ ; std::_Tree<std::_Tmap_traits<unsigned long,CPythonBackground::SReserveTargetEffect,std::less<unsigned long>,std::allocator<std::pair<unsigned long const ,CPythonBackground::SReserveTargetEffect> >,0> >::_Get_scary
PUBLIC	?_Orphan_ptr@?$_Tree_val@U?$_Tree_simple_types@U?$pair@$$CBKUSReserveTargetEffect@CPythonBackground@@@std@@@std@@@std@@QAEXQAU?$_Tree_node@U?$pair@$$CBKUSReserveTargetEffect@CPythonBackground@@@std@@PAX@2@@Z ; std::_Tree_val<std::_Tree_simple_types<std::pair<unsigned long const ,CPythonBackground::SReserveTargetEffect> > >::_Orphan_ptr
PUBLIC	??E?$_Tree_const_iterator@V?$_Tree_val@U?$_Tree_simple_types@U?$pair@$$CBKUSReserveTargetEffect@CPythonBackground@@@std@@@std@@@std@@@std@@QAEAAV01@XZ ; std::_Tree_const_iterator<std::_Tree_val<std::_Tree_simple_types<std::pair<unsigned long const ,CPythonBackground::SReserveTargetEffect> > > >::operator++
PUBLIC	??D?$_Tree_iterator@V?$_Tree_val@U?$_Tree_simple_types@U?$pair@$$CBKUSReserveTargetEffect@CPythonBackground@@@std@@@std@@@std@@@std@@QBEAAU?$pair@$$CBKUSReserveTargetEffect@CPythonBackground@@@1@XZ ; std::_Tree_iterator<std::_Tree_val<std::_Tree_simple_types<std::pair<unsigned long const ,CPythonBackground::SReserveTargetEffect> > > >::operator*
PUBLIC	?_Unwrapped@?$_Tree_iterator@V?$_Tree_val@U?$_Tree_simple_types@U?$pair@$$CBKUSReserveTargetEffect@CPythonBackground@@@std@@@std@@@std@@@std@@QBE?AV?$_Tree_unchecked_iterator@V?$_Tree_val@U?$_Tree_simple_types@U?$pair@$$CBKUSReserveTargetEffect@CPythonBackground@@@std@@@std@@@std@@@2@XZ ; std::_Tree_iterator<std::_Tree_val<std::_Tree_simple_types<std::pair<unsigned long const ,CPythonBackground::SReserveTargetEffect> > > >::_Unwrapped
PUBLIC	??0?$_Tree_unchecked_const_iterator@V?$_Tree_val@U?$_Tree_simple_types@U?$pair@$$CBKUSReserveTargetEffect@CPythonBackground@@@std@@@std@@@std@@U_Iterator_base0@2@@std@@QAE@PAU?$_Tree_node@U?$pair@$$CBKUSReserveTargetEffect@CPythonBackground@@@std@@PAX@1@PBV?$_Tree_val@U?$_Tree_simple_types@U?$pair@$$CBKUSReserveTargetEffect@CPythonBackground@@@std@@@std@@@1@@Z ; std::_Tree_unchecked_const_iterator<std::_Tree_val<std::_Tree_simple_types<std::pair<unsigned long const ,CPythonBackground::SReserveTargetEffect> > >,std::_Iterator_base0>::_Tree_unchecked_const_iterator<std::_Tree_val<std::_Tree_simple_types<std::pair<unsigned long const ,CPythonBackground::SReserveTargetEffect> > >,std::_Iterator_base0>
PUBLIC	??0?$RangeTester@UFGetPortalID@@@@QAE@PAUFGetPortalID@@M@Z ; RangeTester<FGetPortalID>::RangeTester<FGetPortalID>
PUBLIC	??1?$RangeTester@UFGetPortalID@@@@UAE@XZ	; RangeTester<FGetPortalID>::~RangeTester<FGetPortalID>
PUBLIC	?RayTraceCallback@?$RangeTester@UFGetPortalID@@@@UAEXABVVector3d@@0M0PAVSpherePack@@@Z ; RangeTester<FGetPortalID>::RayTraceCallback
PUBLIC	?VisibilityCallback@?$RangeTester@UFGetPortalID@@@@UAEXABVFrustum@@PAVSpherePack@@W4ViewState@@@Z ; RangeTester<FGetPortalID>::VisibilityCallback
PUBLIC	?RangeTestCallback@?$RangeTester@UFGetPortalID@@@@UAEXABVVector3d@@MPAVSpherePack@@W4ViewState@@@Z ; RangeTester<FGetPortalID>::RangeTestCallback
PUBLIC	?PointTest2dCallback@?$RangeTester@UFGetPortalID@@@@UAEXABVVector3d@@PAVSpherePack@@W4ViewState@@@Z ; RangeTester<FGetPortalID>::PointTest2dCallback
PUBLIC	??0?$RangeTester@UCollisionAdjustChecker@@@@QAE@PAUCollisionAdjustChecker@@M@Z ; RangeTester<CollisionAdjustChecker>::RangeTester<CollisionAdjustChecker>
PUBLIC	??1?$RangeTester@UCollisionAdjustChecker@@@@UAE@XZ ; RangeTester<CollisionAdjustChecker>::~RangeTester<CollisionAdjustChecker>
PUBLIC	?RayTraceCallback@?$RangeTester@UCollisionAdjustChecker@@@@UAEXABVVector3d@@0M0PAVSpherePack@@@Z ; RangeTester<CollisionAdjustChecker>::RayTraceCallback
PUBLIC	?VisibilityCallback@?$RangeTester@UCollisionAdjustChecker@@@@UAEXABVFrustum@@PAVSpherePack@@W4ViewState@@@Z ; RangeTester<CollisionAdjustChecker>::VisibilityCallback
PUBLIC	?RangeTestCallback@?$RangeTester@UCollisionAdjustChecker@@@@UAEXABVVector3d@@MPAVSpherePack@@W4ViewState@@@Z ; RangeTester<CollisionAdjustChecker>::RangeTestCallback
PUBLIC	?PointTest2dCallback@?$RangeTester@UCollisionAdjustChecker@@@@UAEXABVVector3d@@PAVSpherePack@@W4ViewState@@@Z ; RangeTester<CollisionAdjustChecker>::PointTest2dCallback
PUBLIC	??0?$RangeTester@UCollisionChecker@@@@QAE@PAUCollisionChecker@@M@Z ; RangeTester<CollisionChecker>::RangeTester<CollisionChecker>
PUBLIC	??1?$RangeTester@UCollisionChecker@@@@UAE@XZ	; RangeTester<CollisionChecker>::~RangeTester<CollisionChecker>
PUBLIC	?RayTraceCallback@?$RangeTester@UCollisionChecker@@@@UAEXABVVector3d@@0M0PAVSpherePack@@@Z ; RangeTester<CollisionChecker>::RayTraceCallback
PUBLIC	?VisibilityCallback@?$RangeTester@UCollisionChecker@@@@UAEXABVFrustum@@PAVSpherePack@@W4ViewState@@@Z ; RangeTester<CollisionChecker>::VisibilityCallback
PUBLIC	?RangeTestCallback@?$RangeTester@UCollisionChecker@@@@UAEXABVVector3d@@MPAVSpherePack@@W4ViewState@@@Z ; RangeTester<CollisionChecker>::RangeTestCallback
PUBLIC	?PointTest2dCallback@?$RangeTester@UCollisionChecker@@@@UAEXABVVector3d@@PAVSpherePack@@W4ViewState@@@Z ; RangeTester<CollisionChecker>::PointTest2dCallback
PUBLIC	?pointer_to@?$pointer_traits@PAU?$pair@$$CBKUSReserveTargetEffect@CPythonBackground@@@std@@@std@@SAPAU?$pair@$$CBKUSReserveTargetEffect@CPythonBackground@@@2@AAU32@@Z ; std::pointer_traits<std::pair<unsigned long const ,CPythonBackground::SReserveTargetEffect> *>::pointer_to
PUBLIC	??$addressof@$$CBV?$_Vector_val@U?$_Simple_types@V?$basic_string@DU?$char_traits@D@std@@V?$allocator@D@2@@std@@@std@@@std@@@std@@YAPBV?$_Vector_val@U?$_Simple_types@V?$basic_string@DU?$char_traits@D@std@@V?$allocator@D@2@@std@@@std@@@0@ABV10@@Z ; std::addressof<std::_Vector_val<std::_Simple_types<std::basic_string<char,std::char_traits<char>,std::allocator<char> > > > const >
PUBLIC	??$_Erase_head@V?$allocator@U?$_Tree_node@HPAX@std@@@std@@@?$_Tree_val@U?$_Tree_simple_types@H@std@@@std@@QAEXAAV?$allocator@U?$_Tree_node@HPAX@std@@@1@@Z ; std::_Tree_val<std::_Tree_simple_types<int> >::_Erase_head<std::allocator<std::_Tree_node<int,void *> > >
PUBLIC	??$_Erase_tree@V?$allocator@U?$_Tree_node@HPAX@std@@@std@@@?$_Tree_val@U?$_Tree_simple_types@H@std@@@std@@QAEXAAV?$allocator@U?$_Tree_node@HPAX@std@@@1@PAU?$_Tree_node@HPAX@1@@Z ; std::_Tree_val<std::_Tree_simple_types<int> >::_Erase_tree<std::allocator<std::_Tree_node<int,void *> > >
PUBLIC	??$_Find@H@?$_Tree@V?$_Tset_traits@HU?$less@H@std@@V?$allocator@H@2@$0A@@std@@@std@@ABEPAU?$_Tree_node@HPAX@1@ABH@Z ; std::_Tree<std::_Tset_traits<int,std::less<int>,std::allocator<int>,0> >::_Find<int>
PUBLIC	??$addressof@V?$_Vector_val@U?$_Simple_types@UTMapInfo@CMapManager@@@std@@@std@@@std@@YAPAV?$_Vector_val@U?$_Simple_types@UTMapInfo@CMapManager@@@std@@@0@AAV10@@Z ; std::addressof<std::_Vector_val<std::_Simple_types<CMapManager::TMapInfo> > >
PUBLIC	??$_Erase_head@V?$allocator@U?$_Tree_node@V?$basic_string@DU?$char_traits@D@std@@V?$allocator@D@2@@std@@PAX@std@@@std@@@?$_Tree_val@U?$_Tree_simple_types@V?$basic_string@DU?$char_traits@D@std@@V?$allocator@D@2@@std@@@std@@@std@@QAEXAAV?$allocator@U?$_Tree_node@V?$basic_string@DU?$char_traits@D@std@@V?$allocator@D@2@@std@@PAX@std@@@1@@Z ; std::_Tree_val<std::_Tree_simple_types<std::basic_string<char,std::char_traits<char>,std::allocator<char> > > >::_Erase_head<std::allocator<std::_Tree_node<std::basic_string<char,std::char_traits<char>,std::allocator<char> >,void *> > >
PUBLIC	??$_Find@V?$basic_string@DU?$char_traits@D@std@@V?$allocator@D@2@@std@@@?$_Tree@V?$_Tset_traits@V?$basic_string@DU?$char_traits@D@std@@V?$allocator@D@2@@std@@U?$less@V?$basic_string@DU?$char_traits@D@std@@V?$allocator@D@2@@std@@@2@V?$allocator@V?$basic_string@DU?$char_traits@D@std@@V?$allocator@D@2@@std@@@2@$0A@@std@@@std@@ABEPAU?$_Tree_node@V?$basic_string@DU?$char_traits@D@std@@V?$allocator@D@2@@std@@PAX@1@ABV?$basic_string@DU?$char_traits@D@std@@V?$allocator@D@2@@1@@Z ; std::_Tree<std::_Tset_traits<std::basic_string<char,std::char_traits<char>,std::allocator<char> >,std::less<std::basic_string<char,std::char_traits<char>,std::allocator<char> > >,std::allocator<std::basic_string<char,std::char_traits<char>,std::allocator<char> > >,0> >::_Find<std::basic_string<char,std::char_traits<char>,std::allocator<char> > >
PUBLIC	??$_Erase_head@V?$allocator@U?$_Tree_node@U?$pair@$$CBKUSReserveTargetEffect@CPythonBackground@@@std@@PAX@std@@@std@@@?$_Tree_val@U?$_Tree_simple_types@U?$pair@$$CBKUSReserveTargetEffect@CPythonBackground@@@std@@@std@@@std@@QAEXAAV?$allocator@U?$_Tree_node@U?$pair@$$CBKUSReserveTargetEffect@CPythonBackground@@@std@@PAX@std@@@1@@Z ; std::_Tree_val<std::_Tree_simple_types<std::pair<unsigned long const ,CPythonBackground::SReserveTargetEffect> > >::_Erase_head<std::allocator<std::_Tree_node<std::pair<unsigned long const ,CPythonBackground::SReserveTargetEffect>,void *> > >
PUBLIC	??$_Erase_tree@V?$allocator@U?$_Tree_node@U?$pair@$$CBKUSReserveTargetEffect@CPythonBackground@@@std@@PAX@std@@@std@@@?$_Tree_val@U?$_Tree_simple_types@U?$pair@$$CBKUSReserveTargetEffect@CPythonBackground@@@std@@@std@@@std@@QAEXAAV?$allocator@U?$_Tree_node@U?$pair@$$CBKUSReserveTargetEffect@CPythonBackground@@@std@@PAX@std@@@1@PAU?$_Tree_node@U?$pair@$$CBKUSReserveTargetEffect@CPythonBackground@@@std@@PAX@1@@Z ; std::_Tree_val<std::_Tree_simple_types<std::pair<unsigned long const ,CPythonBackground::SReserveTargetEffect> > >::_Erase_tree<std::allocator<std::_Tree_node<std::pair<unsigned long const ,CPythonBackground::SReserveTargetEffect>,void *> > >
PUBLIC	??$_Find@K@?$_Tree@V?$_Tmap_traits@KUSReserveTargetEffect@CPythonBackground@@U?$less@K@std@@V?$allocator@U?$pair@$$CBKUSReserveTargetEffect@CPythonBackground@@@std@@@4@$0A@@std@@@std@@ABEPAU?$_Tree_node@U?$pair@$$CBKUSReserveTargetEffect@CPythonBackground@@@std@@PAX@1@ABK@Z ; std::_Tree<std::_Tmap_traits<unsigned long,CPythonBackground::SReserveTargetEffect,std::less<unsigned long>,std::allocator<std::pair<unsigned long const ,CPythonBackground::SReserveTargetEffect> >,0> >::_Find<unsigned long>
PUBLIC	??$_Seek_wrapped@V?$_Vector_const_iterator@V?$_Vector_val@U?$_Simple_types@V?$basic_string@DU?$char_traits@D@std@@V?$allocator@D@2@@std@@@std@@@std@@@std@@PBV?$basic_string@DU?$char_traits@D@std@@V?$allocator@D@2@@2@@std@@YAXAAV?$_Vector_const_iterator@V?$_Vector_val@U?$_Simple_types@V?$basic_string@DU?$char_traits@D@std@@V?$allocator@D@2@@std@@@std@@@std@@@0@$$QAPBV?$basic_string@DU?$char_traits@D@std@@V?$allocator@D@2@@0@@Z ; std::_Seek_wrapped<std::_Vector_const_iterator<std::_Vector_val<std::_Simple_types<std::basic_string<char,std::char_traits<char>,std::allocator<char> > > > >,std::basic_string<char,std::char_traits<char>,std::allocator<char> > const *>
PUBLIC	??$_Find_unchecked@PBV?$basic_string@DU?$char_traits@D@std@@V?$allocator@D@2@@std@@V12@@std@@YAPBV?$basic_string@DU?$char_traits@D@std@@V?$allocator@D@2@@0@PBV10@QBV10@ABV10@@Z ; std::_Find_unchecked<std::basic_string<char,std::char_traits<char>,std::allocator<char> > const *,std::basic_string<char,std::char_traits<char>,std::allocator<char> > >
PUBLIC	??$_Adl_verify_range@V?$_Vector_const_iterator@V?$_Vector_val@U?$_Simple_types@V?$basic_string@DU?$char_traits@D@std@@V?$allocator@D@2@@std@@@std@@@std@@@std@@V12@@std@@YAXABV?$_Vector_const_iterator@V?$_Vector_val@U?$_Simple_types@V?$basic_string@DU?$char_traits@D@std@@V?$allocator@D@2@@std@@@std@@@std@@@0@0@Z ; std::_Adl_verify_range<std::_Vector_const_iterator<std::_Vector_val<std::_Simple_types<std::basic_string<char,std::char_traits<char>,std::allocator<char> > > > >,std::_Vector_const_iterator<std::_Vector_val<std::_Simple_types<std::basic_string<char,std::char_traits<char>,std::allocator<char> > > > > >
PUBLIC	??$emplace@U?$pair@KUSReserveTargetEffect@CPythonBackground@@@std@@@?$_Tree@V?$_Tmap_traits@KUSReserveTargetEffect@CPythonBackground@@U?$less@K@std@@V?$allocator@U?$pair@$$CBKUSReserveTargetEffect@CPythonBackground@@@std@@@4@$0A@@std@@@std@@QAE?AU?$pair@V?$_Tree_iterator@V?$_Tree_val@U?$_Tree_simple_types@U?$pair@$$CBKUSReserveTargetEffect@CPythonBackground@@@std@@@std@@@std@@@std@@_N@1@$$QAU?$pair@KUSReserveTargetEffect@CPythonBackground@@@1@@Z ; std::_Tree<std::_Tmap_traits<unsigned long,CPythonBackground::SReserveTargetEffect,std::less<unsigned long>,std::allocator<std::pair<unsigned long const ,CPythonBackground::SReserveTargetEffect> >,0> >::emplace<std::pair<unsigned long,CPythonBackground::SReserveTargetEffect> >
PUBLIC	??$forward@U?$pair@KUSReserveTargetEffect@CPythonBackground@@@std@@@std@@YA$$QAU?$pair@KUSReserveTargetEffect@CPythonBackground@@@0@AAU10@@Z ; std::forward<std::pair<unsigned long,CPythonBackground::SReserveTargetEffect> >
PUBLIC	??$?0AAKAAUSReserveTargetEffect@CPythonBackground@@$0A@@?$pair@KUSReserveTargetEffect@CPythonBackground@@@std@@QAE@AAKAAUSReserveTargetEffect@CPythonBackground@@@Z ; std::pair<unsigned long,CPythonBackground::SReserveTargetEffect>::pair<unsigned long,CPythonBackground::SReserveTargetEffect><unsigned long &,CPythonBackground::SReserveTargetEffect &,0>
PUBLIC	??$forward@AAUSReserveTargetEffect@CPythonBackground@@@std@@YAAAUSReserveTargetEffect@CPythonBackground@@AAU12@@Z ; std::forward<CPythonBackground::SReserveTargetEffect &>
PUBLIC	??$_Seek_wrapped@V?$_Vector_iterator@V?$_Vector_val@U?$_Simple_types@UTMapInfo@CMapManager@@@std@@@std@@@std@@AAPAUTMapInfo@CMapManager@@@std@@YAXAAV?$_Vector_iterator@V?$_Vector_val@U?$_Simple_types@UTMapInfo@CMapManager@@@std@@@std@@@0@AAPAUTMapInfo@CMapManager@@@Z ; std::_Seek_wrapped<std::_Vector_iterator<std::_Vector_val<std::_Simple_types<CMapManager::TMapInfo> > >,CMapManager::TMapInfo * &>
PUBLIC	??$_Unfancy_maybe_null@UTMapInfo@CMapManager@@@std@@YAPAUTMapInfo@CMapManager@@PAU12@@Z ; std::_Unfancy_maybe_null<CMapManager::TMapInfo>
PUBLIC	??$_Adl_verify_range@V?$_Vector_iterator@V?$_Vector_val@U?$_Simple_types@UTMapInfo@CMapManager@@@std@@@std@@@std@@V12@@std@@YAXABV?$_Vector_iterator@V?$_Vector_val@U?$_Simple_types@UTMapInfo@CMapManager@@@std@@@std@@@0@0@Z ; std::_Adl_verify_range<std::_Vector_iterator<std::_Vector_val<std::_Simple_types<CMapManager::TMapInfo> > >,std::_Vector_iterator<std::_Vector_val<std::_Simple_types<CMapManager::TMapInfo> > > >
PUBLIC	??$?0V?$_Tree_const_iterator@V?$_Tree_val@U?$_Tree_simple_types@V?$basic_string@DU?$char_traits@D@std@@V?$allocator@D@2@@std@@@std@@@std@@@std@@AB_N$0A@@?$pair@V?$_Tree_const_iterator@V?$_Tree_val@U?$_Tree_simple_types@V?$basic_string@DU?$char_traits@D@std@@V?$allocator@D@2@@std@@@std@@@std@@@std@@_N@std@@QAE@$$QAV?$_Tree_const_iterator@V?$_Tree_val@U?$_Tree_simple_types@V?$basic_string@DU?$char_traits@D@std@@V?$allocator@D@2@@std@@@std@@@std@@@1@AB_N@Z ; std::pair<std::_Tree_const_iterator<std::_Tree_val<std::_Tree_simple_types<std::basic_string<char,std::char_traits<char>,std::allocator<char> > > > >,bool>::pair<std::_Tree_const_iterator<std::_Tree_val<std::_Tree_simple_types<std::basic_string<char,std::char_traits<char>,std::allocator<char> > > > >,bool><std::_Tree_const_iterator<std::_Tree_val<std::_Tree_simple_types<std::basic_string<char,std::char_traits<char>,std::allocator<char> > > > >,bool const &,0>
PUBLIC	??$_Emplace@V?$basic_string@DU?$char_traits@D@std@@V?$allocator@D@2@@std@@@?$_Tree@V?$_Tset_traits@V?$basic_string@DU?$char_traits@D@std@@V?$allocator@D@2@@std@@U?$less@V?$basic_string@DU?$char_traits@D@std@@V?$allocator@D@2@@std@@@2@V?$allocator@V?$basic_string@DU?$char_traits@D@std@@V?$allocator@D@2@@std@@@2@$0A@@std@@@std@@IAE?AU?$pair@PAU?$_Tree_node@V?$basic_string@DU?$char_traits@D@std@@V?$allocator@D@2@@std@@PAX@std@@_N@1@$$QAV?$basic_string@DU?$char_traits@D@std@@V?$allocator@D@2@@1@@Z ; std::_Tree<std::_Tset_traits<std::basic_string<char,std::char_traits<char>,std::allocator<char> >,std::less<std::basic_string<char,std::char_traits<char>,std::allocator<char> > >,std::allocator<std::basic_string<char,std::char_traits<char>,std::allocator<char> > >,0> >::_Emplace<std::basic_string<char,std::char_traits<char>,std::allocator<char> > >
PUBLIC	??$?0V?$_Tree_const_iterator@V?$_Tree_val@U?$_Tree_simple_types@H@std@@@std@@@std@@AB_N$0A@@?$pair@V?$_Tree_const_iterator@V?$_Tree_val@U?$_Tree_simple_types@H@std@@@std@@@std@@_N@std@@QAE@$$QAV?$_Tree_const_iterator@V?$_Tree_val@U?$_Tree_simple_types@H@std@@@std@@@1@AB_N@Z ; std::pair<std::_Tree_const_iterator<std::_Tree_val<std::_Tree_simple_types<int> > >,bool>::pair<std::_Tree_const_iterator<std::_Tree_val<std::_Tree_simple_types<int> > >,bool><std::_Tree_const_iterator<std::_Tree_val<std::_Tree_simple_types<int> > >,bool const &,0>
PUBLIC	??$_Emplace@ABH@?$_Tree@V?$_Tset_traits@HU?$less@H@std@@V?$allocator@H@2@$0A@@std@@@std@@IAE?AU?$pair@PAU?$_Tree_node@HPAX@std@@_N@1@ABH@Z ; std::_Tree<std::_Tset_traits<int,std::less<int>,std::allocator<int>,0> >::_Emplace<int const &>
PUBLIC	??$_Eqrange@K@?$_Tree@V?$_Tmap_traits@KKU?$less@K@std@@V?$allocator@U?$pair@$$CBKK@std@@@2@$0A@@std@@@std@@IBE?AU?$pair@PAU?$_Tree_node@U?$pair@$$CBKK@std@@PAX@std@@PAU12@@1@ABK@Z ; std::_Tree<std::_Tmap_traits<unsigned long,unsigned long,std::less<unsigned long>,std::allocator<std::pair<unsigned long const ,unsigned long> >,0> >::_Eqrange<unsigned long>
PUBLIC	??$_Eqrange@K@?$_Tree@V?$_Tmap_traits@KUSReserveTargetEffect@CPythonBackground@@U?$less@K@std@@V?$allocator@U?$pair@$$CBKUSReserveTargetEffect@CPythonBackground@@@std@@@4@$0A@@std@@@std@@IBE?AU?$pair@PAU?$_Tree_node@U?$pair@$$CBKUSReserveTargetEffect@CPythonBackground@@@std@@PAX@std@@PAU12@@1@ABK@Z ; std::_Tree<std::_Tmap_traits<unsigned long,CPythonBackground::SReserveTargetEffect,std::less<unsigned long>,std::allocator<std::pair<unsigned long const ,CPythonBackground::SReserveTargetEffect> >,0> >::_Eqrange<unsigned long>
PUBLIC	??0?$_Tree_const_iterator@V?$_Tree_val@U?$_Tree_simple_types@U?$pair@$$CBKUSReserveTargetEffect@CPythonBackground@@@std@@@std@@@std@@@std@@QAE@PAU?$_Tree_node@U?$pair@$$CBKUSReserveTargetEffect@CPythonBackground@@@std@@PAX@1@PBV?$_Tree_val@U?$_Tree_simple_types@U?$pair@$$CBKUSReserveTargetEffect@CPythonBackground@@@std@@@std@@@1@@Z ; std::_Tree_const_iterator<std::_Tree_val<std::_Tree_simple_types<std::pair<unsigned long const ,CPythonBackground::SReserveTargetEffect> > > >::_Tree_const_iterator<std::_Tree_val<std::_Tree_simple_types<std::pair<unsigned long const ,CPythonBackground::SReserveTargetEffect> > > >
PUBLIC	??_G?$CSingleton@VCPythonBackground@@@@UAEPAXI@Z ; CSingleton<CPythonBackground>::`scalar deleting destructor'
PUBLIC	??0?$_Tree_const_iterator@V?$_Tree_val@U?$_Tree_simple_types@V?$basic_string@DU?$char_traits@D@std@@V?$allocator@D@2@@std@@@std@@@std@@@std@@QAE@PAU?$_Tree_node@V?$basic_string@DU?$char_traits@D@std@@V?$allocator@D@2@@std@@PAX@1@PBV?$_Tree_val@U?$_Tree_simple_types@V?$basic_string@DU?$char_traits@D@std@@V?$allocator@D@2@@std@@@std@@@1@@Z ; std::_Tree_const_iterator<std::_Tree_val<std::_Tree_simple_types<std::basic_string<char,std::char_traits<char>,std::allocator<char> > > > >::_Tree_const_iterator<std::_Tree_val<std::_Tree_simple_types<std::basic_string<char,std::char_traits<char>,std::allocator<char> > > > >
PUBLIC	??0?$_Tree_iterator@V?$_Tree_val@U?$_Tree_simple_types@U?$pair@$$CBKUSReserveTargetEffect@CPythonBackground@@@std@@@std@@@std@@@std@@QAE@PAU?$_Tree_node@U?$pair@$$CBKUSReserveTargetEffect@CPythonBackground@@@std@@PAX@1@PBV?$_Tree_val@U?$_Tree_simple_types@U?$pair@$$CBKUSReserveTargetEffect@CPythonBackground@@@std@@@std@@@1@@Z ; std::_Tree_iterator<std::_Tree_val<std::_Tree_simple_types<std::pair<unsigned long const ,CPythonBackground::SReserveTargetEffect> > > >::_Tree_iterator<std::_Tree_val<std::_Tree_simple_types<std::pair<unsigned long const ,CPythonBackground::SReserveTargetEffect> > > >
PUBLIC	??0?$_Tree_const_iterator@V?$_Tree_val@U?$_Tree_simple_types@H@std@@@std@@@std@@QAE@PAU?$_Tree_node@HPAX@1@PBV?$_Tree_val@U?$_Tree_simple_types@H@std@@@1@@Z ; std::_Tree_const_iterator<std::_Tree_val<std::_Tree_simple_types<int> > >::_Tree_const_iterator<std::_Tree_val<std::_Tree_simple_types<int> > >
PUBLIC	?begin@?$vector@V?$basic_string@DU?$char_traits@D@std@@V?$allocator@D@2@@std@@V?$allocator@V?$basic_string@DU?$char_traits@D@std@@V?$allocator@D@2@@std@@@2@@std@@QBE?AV?$_Vector_const_iterator@V?$_Vector_val@U?$_Simple_types@V?$basic_string@DU?$char_traits@D@std@@V?$allocator@D@2@@std@@@std@@@std@@@2@XZ ; std::vector<std::basic_string<char,std::char_traits<char>,std::allocator<char> >,std::allocator<std::basic_string<char,std::char_traits<char>,std::allocator<char> > > >::begin
PUBLIC	?end@?$vector@V?$basic_string@DU?$char_traits@D@std@@V?$allocator@D@2@@std@@V?$allocator@V?$basic_string@DU?$char_traits@D@std@@V?$allocator@D@2@@std@@@2@@std@@QBE?AV?$_Vector_const_iterator@V?$_Vector_val@U?$_Simple_types@V?$basic_string@DU?$char_traits@D@std@@V?$allocator@D@2@@std@@@std@@@std@@@2@XZ ; std::vector<std::basic_string<char,std::char_traits<char>,std::allocator<char> >,std::allocator<std::basic_string<char,std::char_traits<char>,std::allocator<char> > > >::end
PUBLIC	??8?$_Vector_const_iterator@V?$_Vector_val@U?$_Simple_types@V?$basic_string@DU?$char_traits@D@std@@V?$allocator@D@2@@std@@@std@@@std@@@std@@QBE_NABV01@@Z ; std::_Vector_const_iterator<std::_Vector_val<std::_Simple_types<std::basic_string<char,std::char_traits<char>,std::allocator<char> > > > >::operator==
PUBLIC	??0?$set@V?$basic_string@DU?$char_traits@D@std@@V?$allocator@D@2@@std@@U?$less@V?$basic_string@DU?$char_traits@D@std@@V?$allocator@D@2@@std@@@2@V?$allocator@V?$basic_string@DU?$char_traits@D@std@@V?$allocator@D@2@@std@@@2@@std@@QAE@XZ ; std::set<std::basic_string<char,std::char_traits<char>,std::allocator<char> >,std::less<std::basic_string<char,std::char_traits<char>,std::allocator<char> > >,std::allocator<std::basic_string<char,std::char_traits<char>,std::allocator<char> > > >::set<std::basic_string<char,std::char_traits<char>,std::allocator<char> >,std::less<std::basic_string<char,std::char_traits<char>,std::allocator<char> > >,std::allocator<std::basic_string<char,std::char_traits<char>,std::allocator<char> > > >
PUBLIC	??0?$set@HU?$less@H@std@@V?$allocator@H@2@@std@@QAE@XZ ; std::set<int,std::less<int>,std::allocator<int> >::set<int,std::less<int>,std::allocator<int> >
PUBLIC	??4?$set@HU?$less@H@std@@V?$allocator@H@2@@std@@QAEAAV01@ABV01@@Z ; std::set<int,std::less<int>,std::allocator<int> >::operator=
PUBLIC	??1?$_Tree@V?$_Tset_traits@HU?$less@H@std@@V?$allocator@H@2@$0A@@std@@@std@@QAE@XZ ; std::_Tree<std::_Tset_traits<int,std::less<int>,std::allocator<int>,0> >::~_Tree<std::_Tset_traits<int,std::less<int>,std::allocator<int>,0> >
PUBLIC	?begin@?$_Tree@V?$_Tset_traits@HU?$less@H@std@@V?$allocator@H@2@$0A@@std@@@std@@QAE?AV?$_Tree_const_iterator@V?$_Tree_val@U?$_Tree_simple_types@H@std@@@std@@@2@XZ ; std::_Tree<std::_Tset_traits<int,std::less<int>,std::allocator<int>,0> >::begin
PUBLIC	?end@?$_Tree@V?$_Tset_traits@HU?$less@H@std@@V?$allocator@H@2@$0A@@std@@@std@@QAE?AV?$_Tree_const_iterator@V?$_Tree_val@U?$_Tree_simple_types@H@std@@@std@@@2@XZ ; std::_Tree<std::_Tset_traits<int,std::less<int>,std::allocator<int>,0> >::end
PUBLIC	?clear@?$_Tree@V?$_Tset_traits@HU?$less@H@std@@V?$allocator@H@2@$0A@@std@@@std@@QAEXXZ ; std::_Tree<std::_Tset_traits<int,std::less<int>,std::allocator<int>,0> >::clear
PUBLIC	?find@?$_Tree@V?$_Tset_traits@HU?$less@H@std@@V?$allocator@H@2@$0A@@std@@@std@@QAE?AV?$_Tree_const_iterator@V?$_Tree_val@U?$_Tree_simple_types@H@std@@@std@@@2@ABH@Z ; std::_Tree<std::_Tset_traits<int,std::less<int>,std::allocator<int>,0> >::find
PUBLIC	??D?$_Tree_const_iterator@V?$_Tree_val@U?$_Tree_simple_types@H@std@@@std@@@std@@QBEABHXZ ; std::_Tree_const_iterator<std::_Tree_val<std::_Tree_simple_types<int> > >::operator*
PUBLIC	??E?$_Tree_const_iterator@V?$_Tree_val@U?$_Tree_simple_types@H@std@@@std@@@std@@QAEAAV01@XZ ; std::_Tree_const_iterator<std::_Tree_val<std::_Tree_simple_types<int> > >::operator++
PUBLIC	??8?$_Tree_const_iterator@V?$_Tree_val@U?$_Tree_simple_types@H@std@@@std@@@std@@QBE_NABV01@@Z ; std::_Tree_const_iterator<std::_Tree_val<std::_Tree_simple_types<int> > >::operator==
PUBLIC	??0?$_Tree_unchecked_const_iterator@V?$_Tree_val@U?$_Tree_simple_types@H@std@@@std@@U_Iterator_base0@2@@std@@QAE@XZ ; std::_Tree_unchecked_const_iterator<std::_Tree_val<std::_Tree_simple_types<int> >,std::_Iterator_base0>::_Tree_unchecked_const_iterator<std::_Tree_val<std::_Tree_simple_types<int> >,std::_Iterator_base0>
PUBLIC	?begin@?$vector@UTMapInfo@CMapManager@@V?$allocator@UTMapInfo@CMapManager@@@std@@@std@@QAE?AV?$_Vector_iterator@V?$_Vector_val@U?$_Simple_types@UTMapInfo@CMapManager@@@std@@@std@@@2@XZ ; std::vector<CMapManager::TMapInfo,std::allocator<CMapManager::TMapInfo> >::begin
PUBLIC	??0?$_Vector_iterator@V?$_Vector_val@U?$_Simple_types@UTMapInfo@CMapManager@@@std@@@std@@@std@@QAE@PAUTMapInfo@CMapManager@@PBU_Container_base0@1@@Z ; std::_Vector_iterator<std::_Vector_val<std::_Simple_types<CMapManager::TMapInfo> > >::_Vector_iterator<std::_Vector_val<std::_Simple_types<CMapManager::TMapInfo> > >
PUBLIC	?end@?$vector@UTMapInfo@CMapManager@@V?$allocator@UTMapInfo@CMapManager@@@std@@@std@@QAE?AV?$_Vector_iterator@V?$_Vector_val@U?$_Simple_types@UTMapInfo@CMapManager@@@std@@@std@@@2@XZ ; std::vector<CMapManager::TMapInfo,std::allocator<CMapManager::TMapInfo> >::end
PUBLIC	??D?$_Vector_iterator@V?$_Vector_val@U?$_Simple_types@UTMapInfo@CMapManager@@@std@@@std@@@std@@QBEAAUTMapInfo@CMapManager@@XZ ; std::_Vector_iterator<std::_Vector_val<std::_Simple_types<CMapManager::TMapInfo> > >::operator*
PUBLIC	??8?$_Vector_const_iterator@V?$_Vector_val@U?$_Simple_types@UTMapInfo@CMapManager@@@std@@@std@@@std@@QBE_NABV01@@Z ; std::_Vector_const_iterator<std::_Vector_val<std::_Simple_types<CMapManager::TMapInfo> > >::operator==
PUBLIC	??0?$CSingleton@VCPythonBackground@@@@QAE@XZ	; CSingleton<CPythonBackground>::CSingleton<CPythonBackground>
PUBLIC	??1?$CSingleton@VCPythonBackground@@@@UAE@XZ	; CSingleton<CPythonBackground>::~CSingleton<CPythonBackground>
PUBLIC	??1?$_Tree@V?$_Tset_traits@V?$basic_string@DU?$char_traits@D@std@@V?$allocator@D@2@@std@@U?$less@V?$basic_string@DU?$char_traits@D@std@@V?$allocator@D@2@@std@@@2@V?$allocator@V?$basic_string@DU?$char_traits@D@std@@V?$allocator@D@2@@std@@@2@$0A@@std@@@std@@QAE@XZ ; std::_Tree<std::_Tset_traits<std::basic_string<char,std::char_traits<char>,std::allocator<char> >,std::less<std::basic_string<char,std::char_traits<char>,std::allocator<char> > >,std::allocator<std::basic_string<char,std::char_traits<char>,std::allocator<char> > >,0> >::~_Tree<std::_Tset_traits<std::basic_string<char,std::char_traits<char>,std::allocator<char> >,std::less<std::basic_string<char,std::char_traits<char>,std::allocator<char> > >,std::allocator<std::basic_string<char,std::char_traits<char>,std::allocator<char> > >,0> >
PUBLIC	?end@?$_Tree@V?$_Tset_traits@V?$basic_string@DU?$char_traits@D@std@@V?$allocator@D@2@@std@@U?$less@V?$basic_string@DU?$char_traits@D@std@@V?$allocator@D@2@@std@@@2@V?$allocator@V?$basic_string@DU?$char_traits@D@std@@V?$allocator@D@2@@std@@@2@$0A@@std@@@std@@QAE?AV?$_Tree_const_iterator@V?$_Tree_val@U?$_Tree_simple_types@V?$basic_string@DU?$char_traits@D@std@@V?$allocator@D@2@@std@@@std@@@std@@@2@XZ ; std::_Tree<std::_Tset_traits<std::basic_string<char,std::char_traits<char>,std::allocator<char> >,std::less<std::basic_string<char,std::char_traits<char>,std::allocator<char> > >,std::allocator<std::basic_string<char,std::char_traits<char>,std::allocator<char> > >,0> >::end
PUBLIC	?find@?$_Tree@V?$_Tset_traits@V?$basic_string@DU?$char_traits@D@std@@V?$allocator@D@2@@std@@U?$less@V?$basic_string@DU?$char_traits@D@std@@V?$allocator@D@2@@std@@@2@V?$allocator@V?$basic_string@DU?$char_traits@D@std@@V?$allocator@D@2@@std@@@2@$0A@@std@@@std@@QAE?AV?$_Tree_const_iterator@V?$_Tree_val@U?$_Tree_simple_types@V?$basic_string@DU?$char_traits@D@std@@V?$allocator@D@2@@std@@@std@@@std@@@2@ABV?$basic_string@DU?$char_traits@D@std@@V?$allocator@D@2@@2@@Z ; std::_Tree<std::_Tset_traits<std::basic_string<char,std::char_traits<char>,std::allocator<char> >,std::less<std::basic_string<char,std::char_traits<char>,std::allocator<char> > >,std::allocator<std::basic_string<char,std::char_traits<char>,std::allocator<char> > >,0> >::find
PUBLIC	??8?$_Tree_const_iterator@V?$_Tree_val@U?$_Tree_simple_types@V?$basic_string@DU?$char_traits@D@std@@V?$allocator@D@2@@std@@@std@@@std@@@std@@QBE_NABV01@@Z ; std::_Tree_const_iterator<std::_Tree_val<std::_Tree_simple_types<std::basic_string<char,std::char_traits<char>,std::allocator<char> > > > >::operator==
PUBLIC	?erase@?$_Tree@V?$_Tmap_traits@KKU?$less@K@std@@V?$allocator@U?$pair@$$CBKK@std@@@2@$0A@@std@@@std@@QAEIABK@Z ; std::_Tree<std::_Tmap_traits<unsigned long,unsigned long,std::less<unsigned long>,std::allocator<std::pair<unsigned long const ,unsigned long> >,0> >::erase
PUBLIC	??0?$map@KUSReserveTargetEffect@CPythonBackground@@U?$less@K@std@@V?$allocator@U?$pair@$$CBKUSReserveTargetEffect@CPythonBackground@@@std@@@4@@std@@QAE@XZ ; std::map<unsigned long,CPythonBackground::SReserveTargetEffect,std::less<unsigned long>,std::allocator<std::pair<unsigned long const ,CPythonBackground::SReserveTargetEffect> > >::map<unsigned long,CPythonBackground::SReserveTargetEffect,std::less<unsigned long>,std::allocator<std::pair<unsigned long const ,CPythonBackground::SReserveTargetEffect> > >
PUBLIC	??1?$_Tree@V?$_Tmap_traits@KUSReserveTargetEffect@CPythonBackground@@U?$less@K@std@@V?$allocator@U?$pair@$$CBKUSReserveTargetEffect@CPythonBackground@@@std@@@4@$0A@@std@@@std@@QAE@XZ ; std::_Tree<std::_Tmap_traits<unsigned long,CPythonBackground::SReserveTargetEffect,std::less<unsigned long>,std::allocator<std::pair<unsigned long const ,CPythonBackground::SReserveTargetEffect> >,0> >::~_Tree<std::_Tmap_traits<unsigned long,CPythonBackground::SReserveTargetEffect,std::less<unsigned long>,std::allocator<std::pair<unsigned long const ,CPythonBackground::SReserveTargetEffect> >,0> >
PUBLIC	?begin@?$_Tree@V?$_Tmap_traits@KUSReserveTargetEffect@CPythonBackground@@U?$less@K@std@@V?$allocator@U?$pair@$$CBKUSReserveTargetEffect@CPythonBackground@@@std@@@4@$0A@@std@@@std@@QAE?AV?$_Tree_iterator@V?$_Tree_val@U?$_Tree_simple_types@U?$pair@$$CBKUSReserveTargetEffect@CPythonBackground@@@std@@@std@@@std@@@2@XZ ; std::_Tree<std::_Tmap_traits<unsigned long,CPythonBackground::SReserveTargetEffect,std::less<unsigned long>,std::allocator<std::pair<unsigned long const ,CPythonBackground::SReserveTargetEffect> >,0> >::begin
PUBLIC	?end@?$_Tree@V?$_Tmap_traits@KUSReserveTargetEffect@CPythonBackground@@U?$less@K@std@@V?$allocator@U?$pair@$$CBKUSReserveTargetEffect@CPythonBackground@@@std@@@4@$0A@@std@@@std@@QAE?AV?$_Tree_iterator@V?$_Tree_val@U?$_Tree_simple_types@U?$pair@$$CBKUSReserveTargetEffect@CPythonBackground@@@std@@@std@@@std@@@2@XZ ; std::_Tree<std::_Tmap_traits<unsigned long,CPythonBackground::SReserveTargetEffect,std::less<unsigned long>,std::allocator<std::pair<unsigned long const ,CPythonBackground::SReserveTargetEffect> >,0> >::end
PUBLIC	?erase@?$_Tree@V?$_Tmap_traits@KUSReserveTargetEffect@CPythonBackground@@U?$less@K@std@@V?$allocator@U?$pair@$$CBKUSReserveTargetEffect@CPythonBackground@@@std@@@4@$0A@@std@@@std@@QAEIABK@Z ; std::_Tree<std::_Tmap_traits<unsigned long,CPythonBackground::SReserveTargetEffect,std::less<unsigned long>,std::allocator<std::pair<unsigned long const ,CPythonBackground::SReserveTargetEffect> >,0> >::erase
PUBLIC	?clear@?$_Tree@V?$_Tmap_traits@KUSReserveTargetEffect@CPythonBackground@@U?$less@K@std@@V?$allocator@U?$pair@$$CBKUSReserveTargetEffect@CPythonBackground@@@std@@@4@$0A@@std@@@std@@QAEXXZ ; std::_Tree<std::_Tmap_traits<unsigned long,CPythonBackground::SReserveTargetEffect,std::less<unsigned long>,std::allocator<std::pair<unsigned long const ,CPythonBackground::SReserveTargetEffect> >,0> >::clear
PUBLIC	?find@?$_Tree@V?$_Tmap_traits@KUSReserveTargetEffect@CPythonBackground@@U?$less@K@std@@V?$allocator@U?$pair@$$CBKUSReserveTargetEffect@CPythonBackground@@@std@@@4@$0A@@std@@@std@@QAE?AV?$_Tree_iterator@V?$_Tree_val@U?$_Tree_simple_types@U?$pair@$$CBKUSReserveTargetEffect@CPythonBackground@@@std@@@std@@@std@@@2@ABK@Z ; std::_Tree<std::_Tmap_traits<unsigned long,CPythonBackground::SReserveTargetEffect,std::less<unsigned long>,std::allocator<std::pair<unsigned long const ,CPythonBackground::SReserveTargetEffect> >,0> >::find
PUBLIC	??8?$_Tree_const_iterator@V?$_Tree_val@U?$_Tree_simple_types@U?$pair@$$CBKUSReserveTargetEffect@CPythonBackground@@@std@@@std@@@std@@@std@@QBE_NABV01@@Z ; std::_Tree_const_iterator<std::_Tree_val<std::_Tree_simple_types<std::pair<unsigned long const ,CPythonBackground::SReserveTargetEffect> > > >::operator==
PUBLIC	??C?$_Tree_iterator@V?$_Tree_val@U?$_Tree_simple_types@U?$pair@$$CBKUSReserveTargetEffect@CPythonBackground@@@std@@@std@@@std@@@std@@QBEPAU?$pair@$$CBKUSReserveTargetEffect@CPythonBackground@@@1@XZ ; std::_Tree_iterator<std::_Tree_val<std::_Tree_simple_types<std::pair<unsigned long const ,CPythonBackground::SReserveTargetEffect> > > >::operator->
PUBLIC	??E?$_Tree_iterator@V?$_Tree_val@U?$_Tree_simple_types@U?$pair@$$CBKUSReserveTargetEffect@CPythonBackground@@@std@@@std@@@std@@@std@@QAEAAV01@XZ ; std::_Tree_iterator<std::_Tree_val<std::_Tree_simple_types<std::pair<unsigned long const ,CPythonBackground::SReserveTargetEffect> > > >::operator++
PUBLIC	?Instance@?$CSingleton@VCPythonMiniMap@@@@SAAAVCPythonMiniMap@@XZ ; CSingleton<CPythonMiniMap>::Instance
PUBLIC	??$_Get_unwrapped@ABV?$_Vector_const_iterator@V?$_Vector_val@U?$_Simple_types@V?$basic_string@DU?$char_traits@D@std@@V?$allocator@D@2@@std@@@std@@@std@@@std@@@std@@YA?A_TABV?$_Vector_const_iterator@V?$_Vector_val@U?$_Simple_types@V?$basic_string@DU?$char_traits@D@std@@V?$allocator@D@2@@std@@@std@@@std@@@0@@Z ; std::_Get_unwrapped<std::_Vector_const_iterator<std::_Vector_val<std::_Simple_types<std::basic_string<char,std::char_traits<char>,std::allocator<char> > > > > const &>
PUBLIC	??$_Get_unwrapped@AAV?$_Vector_const_iterator@V?$_Vector_val@U?$_Simple_types@V?$basic_string@DU?$char_traits@D@std@@V?$allocator@D@2@@std@@@std@@@std@@@std@@@std@@YA?A_TAAV?$_Vector_const_iterator@V?$_Vector_val@U?$_Simple_types@V?$basic_string@DU?$char_traits@D@std@@V?$allocator@D@2@@std@@@std@@@std@@@0@@Z ; std::_Get_unwrapped<std::_Vector_const_iterator<std::_Vector_val<std::_Simple_types<std::basic_string<char,std::char_traits<char>,std::allocator<char> > > > > &>
PUBLIC	??$find@V?$_Vector_const_iterator@V?$_Vector_val@U?$_Simple_types@V?$basic_string@DU?$char_traits@D@std@@V?$allocator@D@2@@std@@@std@@@std@@@std@@V?$basic_string@DU?$char_traits@D@std@@V?$allocator@D@2@@2@@std@@YA?AV?$_Vector_const_iterator@V?$_Vector_val@U?$_Simple_types@V?$basic_string@DU?$char_traits@D@std@@V?$allocator@D@2@@std@@@std@@@std@@@0@V10@V10@ABV?$basic_string@DU?$char_traits@D@std@@V?$allocator@D@2@@0@@Z ; std::find<std::_Vector_const_iterator<std::_Vector_val<std::_Simple_types<std::basic_string<char,std::char_traits<char>,std::allocator<char> > > > >,std::basic_string<char,std::char_traits<char>,std::allocator<char> > >
PUBLIC	??$insert@U?$pair@KUSReserveTargetEffect@CPythonBackground@@@std@@$0A@@?$map@KUSReserveTargetEffect@CPythonBackground@@U?$less@K@std@@V?$allocator@U?$pair@$$CBKUSReserveTargetEffect@CPythonBackground@@@std@@@4@@std@@QAE?AU?$pair@V?$_Tree_iterator@V?$_Tree_val@U?$_Tree_simple_types@U?$pair@$$CBKUSReserveTargetEffect@CPythonBackground@@@std@@@std@@@std@@@std@@_N@1@$$QAU?$pair@KUSReserveTargetEffect@CPythonBackground@@@1@@Z ; std::map<unsigned long,CPythonBackground::SReserveTargetEffect,std::less<unsigned long>,std::allocator<std::pair<unsigned long const ,CPythonBackground::SReserveTargetEffect> > >::insert<std::pair<unsigned long,CPythonBackground::SReserveTargetEffect>,0>
PUBLIC	??$make_pair@AAKAAUSReserveTargetEffect@CPythonBackground@@@std@@YA?AU?$pair@KUSReserveTargetEffect@CPythonBackground@@@0@AAKAAUSReserveTargetEffect@CPythonBackground@@@Z ; std::make_pair<unsigned long &,CPythonBackground::SReserveTargetEffect &>
PUBLIC	??$?8DU?$char_traits@D@std@@V?$allocator@D@1@@std@@YA_NABV?$basic_string@DU?$char_traits@D@std@@V?$allocator@D@2@@0@QBD@Z ; std::operator==<char,std::char_traits<char>,std::allocator<char> >
PUBLIC	?_Unwrapped@?$_Vector_iterator@V?$_Vector_val@U?$_Simple_types@UTMapInfo@CMapManager@@@std@@@std@@@std@@QBEPAUTMapInfo@CMapManager@@XZ ; std::_Vector_iterator<std::_Vector_val<std::_Simple_types<CMapManager::TMapInfo> > >::_Unwrapped
PUBLIC	??$_Get_unwrapped@ABV?$_Vector_iterator@V?$_Vector_val@U?$_Simple_types@UTMapInfo@CMapManager@@@std@@@std@@@std@@@std@@YA?A_TABV?$_Vector_iterator@V?$_Vector_val@U?$_Simple_types@UTMapInfo@CMapManager@@@std@@@std@@@0@@Z ; std::_Get_unwrapped<std::_Vector_iterator<std::_Vector_val<std::_Simple_types<CMapManager::TMapInfo> > > const &>
PUBLIC	??$_Get_unwrapped@AAV?$_Vector_iterator@V?$_Vector_val@U?$_Simple_types@UTMapInfo@CMapManager@@@std@@@std@@@std@@@std@@YA?A_TAAV?$_Vector_iterator@V?$_Vector_val@U?$_Simple_types@UTMapInfo@CMapManager@@@std@@@std@@@0@@Z ; std::_Get_unwrapped<std::_Vector_iterator<std::_Vector_val<std::_Simple_types<CMapManager::TMapInfo> > > &>
PUBLIC	??$find_if@V?$_Vector_iterator@V?$_Vector_val@U?$_Simple_types@UTMapInfo@CMapManager@@@std@@@std@@@std@@UFFindWarpMapName@CPythonBackground@@@std@@YA?AV?$_Vector_iterator@V?$_Vector_val@U?$_Simple_types@UTMapInfo@CMapManager@@@std@@@std@@@0@V10@V10@UFFindWarpMapName@CPythonBackground@@@Z ; std::find_if<std::_Vector_iterator<std::_Vector_val<std::_Simple_types<CMapManager::TMapInfo> > >,CPythonBackground::FFindWarpMapName>
PUBLIC	??$insert@$0A@$0A@@?$_Tree@V?$_Tset_traits@V?$basic_string@DU?$char_traits@D@std@@V?$allocator@D@2@@std@@U?$less@V?$basic_string@DU?$char_traits@D@std@@V?$allocator@D@2@@std@@@2@V?$allocator@V?$basic_string@DU?$char_traits@D@std@@V?$allocator@D@2@@std@@@2@$0A@@std@@@std@@QAE?AU?$pair@V?$_Tree_const_iterator@V?$_Tree_val@U?$_Tree_simple_types@V?$basic_string@DU?$char_traits@D@std@@V?$allocator@D@2@@std@@@std@@@std@@@std@@_N@1@$$QAV?$basic_string@DU?$char_traits@D@std@@V?$allocator@D@2@@1@@Z ; std::_Tree<std::_Tset_traits<std::basic_string<char,std::char_traits<char>,std::allocator<char> >,std::less<std::basic_string<char,std::char_traits<char>,std::allocator<char> > >,std::allocator<std::basic_string<char,std::char_traits<char>,std::allocator<char> > >,0> >::insert<0,0>
PUBLIC	??$ForInRange@UCollisionChecker@@@CCullingManager@@QAEXABVVector3d@@MPAUCollisionChecker@@@Z ; CCullingManager::ForInRange<CollisionChecker>
PUBLIC	??$ForInRange@UCollisionAdjustChecker@@@CCullingManager@@QAEXABVVector3d@@MPAUCollisionAdjustChecker@@@Z ; CCullingManager::ForInRange<CollisionAdjustChecker>
PUBLIC	??$erase@V?$_Tree_iterator@V?$_Tree_val@U?$_Tree_simple_types@U?$pair@$$CBKUSReserveTargetEffect@CPythonBackground@@@std@@@std@@@std@@@std@@$0A@@?$_Tree@V?$_Tmap_traits@KUSReserveTargetEffect@CPythonBackground@@U?$less@K@std@@V?$allocator@U?$pair@$$CBKUSReserveTargetEffect@CPythonBackground@@@std@@@4@$0A@@std@@@std@@QAE?AV?$_Tree_iterator@V?$_Tree_val@U?$_Tree_simple_types@U?$pair@$$CBKUSReserveTargetEffect@CPythonBackground@@@std@@@std@@@std@@@1@V21@@Z ; std::_Tree<std::_Tmap_traits<unsigned long,CPythonBackground::SReserveTargetEffect,std::less<unsigned long>,std::allocator<std::pair<unsigned long const ,CPythonBackground::SReserveTargetEffect> >,0> >::erase<std::_Tree_iterator<std::_Tree_val<std::_Tree_simple_types<std::pair<unsigned long const ,CPythonBackground::SReserveTargetEffect> > > >,0>
PUBLIC	??$ForInRay@UFGetPortalID@@@CCullingManager@@QAEXABVVector3d@@0PAUFGetPortalID@@@Z ; CCullingManager::ForInRay<FGetPortalID>
PUBLIC	??$insert@$0A@$0A@@?$_Tree@V?$_Tset_traits@HU?$less@H@std@@V?$allocator@H@2@$0A@@std@@@std@@QAE?AU?$pair@V?$_Tree_const_iterator@V?$_Tree_val@U?$_Tree_simple_types@H@std@@@std@@@std@@_N@1@ABH@Z ; std::_Tree<std::_Tset_traits<int,std::less<int>,std::allocator<int>,0> >::insert<0,0>
PUBLIC	?DeleteSpecialShopPosEffect@CPythonBackground@@QAEXXZ ; CPythonBackground::DeleteSpecialShopPosEffect
PUBLIC	?CreateSpecialShopPosEffect@CPythonBackground@@QAEXKMMMPBD@Z ; CPythonBackground::CreateSpecialShopPosEffect
PUBLIC	?GetNightModeOption@CPythonBackground@@QBE_NXZ	; CPythonBackground::GetNightModeOption
PUBLIC	?SetNightModeOption@CPythonBackground@@QAEX_N@Z	; CPythonBackground::SetNightModeOption
PUBLIC	??$construct@V?$basic_string@DU?$char_traits@D@std@@V?$allocator@D@2@@std@@ABV12@@?$_Default_allocator_traits@V?$allocator@V?$basic_string@DU?$char_traits@D@std@@V?$allocator@D@2@@std@@@std@@@std@@SAXAAV?$allocator@V?$basic_string@DU?$char_traits@D@std@@V?$allocator@D@2@@std@@@1@QAV?$basic_string@DU?$char_traits@D@std@@V?$allocator@D@2@@1@ABV31@@Z ; std::_Default_allocator_traits<std::allocator<std::basic_string<char,std::char_traits<char>,std::allocator<char> > > >::construct<std::basic_string<char,std::char_traits<char>,std::allocator<char> >,std::basic_string<char,std::char_traits<char>,std::allocator<char> > const &>
PUBLIC	??$_Emplace_back@ABV?$basic_string@DU?$char_traits@D@std@@V?$allocator@D@2@@std@@@?$_Uninitialized_backout_al@V?$allocator@V?$basic_string@DU?$char_traits@D@std@@V?$allocator@D@2@@std@@@std@@@std@@QAEXABV?$basic_string@DU?$char_traits@D@std@@V?$allocator@D@2@@1@@Z ; std::_Uninitialized_backout_al<std::allocator<std::basic_string<char,std::char_traits<char>,std::allocator<char> > > >::_Emplace_back<std::basic_string<char,std::char_traits<char>,std::allocator<char> > const &>
PUBLIC	??$move@AAPBV?$basic_string@DU?$char_traits@D@std@@V?$allocator@D@2@@std@@@std@@YA$$QAPBV?$basic_string@DU?$char_traits@D@std@@V?$allocator@D@2@@0@AAPBV10@@Z ; std::move<std::basic_string<char,std::char_traits<char>,std::allocator<char> > const * &>
PUBLIC	??$_Uninitialized_copy@PBV?$basic_string@DU?$char_traits@D@std@@V?$allocator@D@2@@std@@PBV12@V?$allocator@V?$basic_string@DU?$char_traits@D@std@@V?$allocator@D@2@@std@@@2@@std@@YAPAV?$basic_string@DU?$char_traits@D@std@@V?$allocator@D@2@@0@PBV10@0PAV10@AAV?$allocator@V?$basic_string@DU?$char_traits@D@std@@V?$allocator@D@2@@std@@@0@@Z ; std::_Uninitialized_copy<std::basic_string<char,std::char_traits<char>,std::allocator<char> > const *,std::basic_string<char,std::char_traits<char>,std::allocator<char> > const *,std::allocator<std::basic_string<char,std::char_traits<char>,std::allocator<char> > > >
PUBLIC	??$_Unwrap_sent@PBV?$basic_string@DU?$char_traits@D@std@@V?$allocator@D@2@@std@@PBV12@@ranges@std@@YA?A_T$$QAPBV?$basic_string@DU?$char_traits@D@std@@V?$allocator@D@2@@1@@Z ; std::ranges::_Unwrap_sent<std::basic_string<char,std::char_traits<char>,std::allocator<char> > const *,std::basic_string<char,std::char_traits<char>,std::allocator<char> > const *>
PUBLIC	??$_Unwrap_iter@PBV?$basic_string@DU?$char_traits@D@std@@V?$allocator@D@2@@std@@PBV12@@ranges@std@@YA?A_T$$QAPBV?$basic_string@DU?$char_traits@D@std@@V?$allocator@D@2@@1@@Z ; std::ranges::_Unwrap_iter<std::basic_string<char,std::char_traits<char>,std::allocator<char> > const *,std::basic_string<char,std::char_traits<char>,std::allocator<char> > const *>
PUBLIC	??$forward@PBV?$basic_string@DU?$char_traits@D@std@@V?$allocator@D@2@@std@@@std@@YA$$QAPBV?$basic_string@DU?$char_traits@D@std@@V?$allocator@D@2@@0@AAPBV10@@Z ; std::forward<std::basic_string<char,std::char_traits<char>,std::allocator<char> > const *>
PUBLIC	??$_Construct_n@PBV?$basic_string@DU?$char_traits@D@std@@V?$allocator@D@2@@std@@PBV12@@?$vector@V?$basic_string@DU?$char_traits@D@std@@V?$allocator@D@2@@std@@V?$allocator@V?$basic_string@DU?$char_traits@D@std@@V?$allocator@D@2@@std@@@2@@std@@AAEXI$$QAPBV?$basic_string@DU?$char_traits@D@std@@V?$allocator@D@2@@1@0@Z ; std::vector<std::basic_string<char,std::char_traits<char>,std::allocator<char> >,std::allocator<std::basic_string<char,std::char_traits<char>,std::allocator<char> > > >::_Construct_n<std::basic_string<char,std::char_traits<char>,std::allocator<char> > const *,std::basic_string<char,std::char_traits<char>,std::allocator<char> > const *>
PUBLIC	?end@?$initializer_list@V?$basic_string@DU?$char_traits@D@std@@V?$allocator@D@2@@std@@@std@@QBEPBV?$basic_string@DU?$char_traits@D@std@@V?$allocator@D@2@@2@XZ ; std::initializer_list<std::basic_string<char,std::char_traits<char>,std::allocator<char> > >::end
PUBLIC	?begin@?$initializer_list@V?$basic_string@DU?$char_traits@D@std@@V?$allocator@D@2@@std@@@std@@QBEPBV?$basic_string@DU?$char_traits@D@std@@V?$allocator@D@2@@2@XZ ; std::initializer_list<std::basic_string<char,std::char_traits<char>,std::allocator<char> > >::begin
PUBLIC	?size@?$initializer_list@V?$basic_string@DU?$char_traits@D@std@@V?$allocator@D@2@@std@@@std@@QBEIXZ ; std::initializer_list<std::basic_string<char,std::char_traits<char>,std::allocator<char> > >::size
PUBLIC	??$forward@ABV?$allocator@V?$basic_string@DU?$char_traits@D@std@@V?$allocator@D@2@@std@@@std@@@std@@YAABV?$allocator@V?$basic_string@DU?$char_traits@D@std@@V?$allocator@D@2@@std@@@0@ABV10@@Z ; std::forward<std::allocator<std::basic_string<char,std::char_traits<char>,std::allocator<char> > > const &>
PUBLIC	??$?0ABV?$allocator@V?$basic_string@DU?$char_traits@D@std@@V?$allocator@D@2@@std@@@std@@$$V@?$_Compressed_pair@V?$allocator@V?$basic_string@DU?$char_traits@D@std@@V?$allocator@D@2@@std@@@std@@V?$_Vector_val@U?$_Simple_types@V?$basic_string@DU?$char_traits@D@std@@V?$allocator@D@2@@std@@@std@@@2@$00@std@@QAE@U_One_then_variadic_args_t@1@ABV?$allocator@V?$basic_string@DU?$char_traits@D@std@@V?$allocator@D@2@@std@@@1@@Z ; std::_Compressed_pair<std::allocator<std::basic_string<char,std::char_traits<char>,std::allocator<char> > >,std::_Vector_val<std::_Simple_types<std::basic_string<char,std::char_traits<char>,std::allocator<char> > > >,1>::_Compressed_pair<std::allocator<std::basic_string<char,std::char_traits<char>,std::allocator<char> > >,std::_Vector_val<std::_Simple_types<std::basic_string<char,std::char_traits<char>,std::allocator<char> > > >,1><std::allocator<std::basic_string<char,std::char_traits<char>,std::allocator<char> > > const &>
PUBLIC	??0?$vector@V?$basic_string@DU?$char_traits@D@std@@V?$allocator@D@2@@std@@V?$allocator@V?$basic_string@DU?$char_traits@D@std@@V?$allocator@D@2@@std@@@2@@std@@QAE@V?$initializer_list@V?$basic_string@DU?$char_traits@D@std@@V?$allocator@D@2@@std@@@1@ABV?$allocator@V?$basic_string@DU?$char_traits@D@std@@V?$allocator@D@2@@std@@@1@@Z ; std::vector<std::basic_string<char,std::char_traits<char>,std::allocator<char> >,std::allocator<std::basic_string<char,std::char_traits<char>,std::allocator<char> > > >::vector<std::basic_string<char,std::char_traits<char>,std::allocator<char> >,std::allocator<std::basic_string<char,std::char_traits<char>,std::allocator<char> > > >
PUBLIC	??0?$initializer_list@V?$basic_string@DU?$char_traits@D@std@@V?$allocator@D@2@@std@@@std@@QAE@PBV?$basic_string@DU?$char_traits@D@std@@V?$allocator@D@2@@1@0@Z ; std::initializer_list<std::basic_string<char,std::char_traits<char>,std::allocator<char> > >::initializer_list<std::basic_string<char,std::char_traits<char>,std::allocator<char> > >
PUBLIC	?IsBoomMap@CPythonBackground@@QBE_NABV?$basic_string@DU?$char_traits@D@std@@V?$allocator@D@2@@std@@@Z ; CPythonBackground::IsBoomMap
PUBLIC	?DeleteSpecialEffect@CPythonBackground@@QAEXK@Z	; CPythonBackground::DeleteSpecialEffect
PUBLIC	?CreateSpecialEffect@CPythonBackground@@QAEXKMMMPBD@Z ; CPythonBackground::CreateSpecialEffect
PUBLIC	?DeleteTargetEffect@CPythonBackground@@QAEXK@Z	; CPythonBackground::DeleteTargetEffect
PUBLIC	?CreateTargetEffect@CPythonBackground@@QAEXKJJ@Z ; CPythonBackground::CreateTargetEffect
PUBLIC	?CreateTargetEffect@CPythonBackground@@QAEXKK@Z	; CPythonBackground::CreateTargetEffect
PUBLIC	?SetXMaxTree@CPythonBackground@@QAEXH@Z		; CPythonBackground::SetXMaxTree
PUBLIC	?DisableSnowEnvironment@CPythonBackground@@QAEXXZ ; CPythonBackground::DisableSnowEnvironment
PUBLIC	?EnableSnowEnvironment@CPythonBackground@@QAEXXZ ; CPythonBackground::EnableSnowEnvironment
PUBLIC	?ChangeToNight@CPythonBackground@@QAEXXZ	; CPythonBackground::ChangeToNight
PUBLIC	?ChangeToDay@CPythonBackground@@QAEXXZ		; CPythonBackground::ChangeToDay
PUBLIC	?GetWarpMapName@CPythonBackground@@QAEPBDXZ	; CPythonBackground::GetWarpMapName
PUBLIC	?DisableGuildArea@CPythonBackground@@QAEXXZ	; CPythonBackground::DisableGuildArea
PUBLIC	?VisibleGuildArea@CPythonBackground@@QAEXXZ	; CPythonBackground::VisibleGuildArea
PUBLIC	?Warp@CPythonBackground@@QAEXKK@Z		; CPythonBackground::Warp
PUBLIC	?GlobalPositionToMapInfo@CPythonBackground@@QAEPAUTMapInfo@CMapManager@@KK@Z ; CPythonBackground::GlobalPositionToMapInfo
PUBLIC	?RegisterDungeonMapName@CPythonBackground@@QAEXPBD@Z ; CPythonBackground::RegisterDungeonMapName
PUBLIC	?LocalPositionToGlobalPosition@CPythonBackground@@QAEXAAJ0@Z ; CPythonBackground::LocalPositionToGlobalPosition
PUBLIC	?RegisterGuildArea@CPythonBackground@@QAEXHHHH@Z ; CPythonBackground::RegisterGuildArea
PUBLIC	?ClearGuildArea@CPythonBackground@@QAEXXZ	; CPythonBackground::ClearGuildArea
PUBLIC	?CheckAdvancing@CPythonBackground@@QAE_NPAVCInstanceBase@@@Z ; CPythonBackground::CheckAdvancing
PUBLIC	??RCollisionAdjustChecker@@QAEXPAVCGraphicObjectInstance@@@Z ; CollisionAdjustChecker::operator()
PUBLIC	??0CollisionAdjustChecker@@QAE@PAVCInstanceBase@@@Z ; CollisionAdjustChecker::CollisionAdjustChecker
PUBLIC	??RCollisionChecker@@QAEXPAVCGraphicObjectInstance@@@Z ; CollisionChecker::operator()
PUBLIC	??0CollisionChecker@@QAE@PAVCInstanceBase@@@Z	; CollisionChecker::CollisionChecker
PUBLIC	?RenderCollision@CPythonBackground@@QAEXXZ	; CPythonBackground::RenderCollision
PUBLIC	??0?$_Tree_const_iterator@V?$_Tree_val@U?$_Tree_simple_types@H@std@@@std@@@std@@QAE@XZ ; std::_Tree_const_iterator<std::_Tree_val<std::_Tree_simple_types<int> > >::_Tree_const_iterator<std::_Tree_val<std::_Tree_simple_types<int> > >
PUBLIC	?__IsSame@CPythonBackground@@IAE_NAAV?$set@HU?$less@H@std@@V?$allocator@H@2@@std@@0@Z ; CPythonBackground::__IsSame
PUBLIC	??1FGetPortalID@@QAE@XZ				; FGetPortalID::~FGetPortalID
PUBLIC	??RFGetPortalID@@QAEXPAVCGraphicObjectInstance@@@Z ; FGetPortalID::operator()
PUBLIC	??0FGetPortalID@@QAE@MM@Z			; FGetPortalID::FGetPortalID
PUBLIC	?Create@CPythonBackground@@QAEXXZ		; CPythonBackground::Create
PUBLIC	?GetPickingPoint@CPythonBackground@@QAE_NPAUD3DXVECTOR3@@@Z ; CPythonBackground::GetPickingPoint
PUBLIC	?__CreateProperty@CPythonBackground@@IAEXXZ	; CPythonBackground::__CreateProperty
PUBLIC	?Initialize@CPythonBackground@@QAEXXZ		; CPythonBackground::Initialize
PUBLIC	??1?$map@KUSReserveTargetEffect@CPythonBackground@@U?$less@K@std@@V?$allocator@U?$pair@$$CBKUSReserveTargetEffect@CPythonBackground@@@std@@@4@@std@@QAE@XZ ; std::map<unsigned long,CPythonBackground::SReserveTargetEffect,std::less<unsigned long>,std::allocator<std::pair<unsigned long const ,CPythonBackground::SReserveTargetEffect> > >::~map<unsigned long,CPythonBackground::SReserveTargetEffect,std::less<unsigned long>,std::allocator<std::pair<unsigned long const ,CPythonBackground::SReserveTargetEffect> > >
PUBLIC	??1?$set@V?$basic_string@DU?$char_traits@D@std@@V?$allocator@D@2@@std@@U?$less@V?$basic_string@DU?$char_traits@D@std@@V?$allocator@D@2@@std@@@2@V?$allocator@V?$basic_string@DU?$char_traits@D@std@@V?$allocator@D@2@@std@@@2@@std@@QAE@XZ ; std::set<std::basic_string<char,std::char_traits<char>,std::allocator<char> >,std::less<std::basic_string<char,std::char_traits<char>,std::allocator<char> > >,std::allocator<std::basic_string<char,std::char_traits<char>,std::allocator<char> > > >::~set<std::basic_string<char,std::char_traits<char>,std::allocator<char> >,std::less<std::basic_string<char,std::char_traits<char>,std::allocator<char> > >,std::allocator<std::basic_string<char,std::char_traits<char>,std::allocator<char> > > >
PUBLIC	??1?$set@HU?$less@H@std@@V?$allocator@H@2@@std@@QAE@XZ ; std::set<int,std::less<int>,std::allocator<int> >::~set<int,std::less<int>,std::allocator<int> >
PUBLIC	??0SVIEWDISTANCESET@CPythonBackground@@QAE@XZ	; CPythonBackground::SVIEWDISTANCESET::SVIEWDISTANCESET
PUBLIC	??_GCPythonBackground@@UAEPAXI@Z		; CPythonBackground::`scalar deleting destructor'
PUBLIC	?GetDistanceSetInfo@CPythonBackground@@QAEXPAHPAM11@Z ; CPythonBackground::GetDistanceSetInfo
PUBLIC	?SelectViewDistanceNum@CPythonBackground@@QAEXH@Z ; CPythonBackground::SelectViewDistanceNum
PUBLIC	?SetShadowLevel@CPythonBackground@@QAE_NH@Z	; CPythonBackground::SetShadowLevel
PUBLIC	?RefreshShadowLevel@CPythonBackground@@QAEXXZ	; CPythonBackground::RefreshShadowLevel
PUBLIC	?SetSplatLimit@CPythonBackground@@QAE_NH@Z	; CPythonBackground::SetSplatLimit
PUBLIC	?EnableTerrainOnlyForHeight@CPythonBackground@@QAEXXZ ; CPythonBackground::EnableTerrainOnlyForHeight
PUBLIC	?SetVisiblePart@CPythonBackground@@QAE_NH_N@Z	; CPythonBackground::SetVisiblePart
PUBLIC	?GetRenderShadowTime@CPythonBackground@@QAEKXZ	; CPythonBackground::GetRenderShadowTime
PUBLIC	??RFFindWarpMapName@CPythonBackground@@QAE_NAAUTMapInfo@CMapManager@@@Z ; CPythonBackground::FFindWarpMapName::operator()
PUBLIC	??0FFindWarpMapName@CPythonBackground@@QAE@KK@Z	; CPythonBackground::FFindWarpMapName::FFindWarpMapName
PUBLIC	?GetDayMode@CPythonBackground@@QAEHXZ		; CPythonBackground::GetDayMode
PUBLIC	?SetAtlasInfoFileName@CMapManager@@QAEXPBD@Z	; CMapManager::SetAtlasInfoFileName
PUBLIC	?IsEnablePortal@CMapOutdoor@@QAE_NXZ		; CMapOutdoor::IsEnablePortal
PUBLIC	?EnableTerrainOnlyForHeight@CMapOutdoor@@QAEX_N@Z ; CMapOutdoor::EnableTerrainOnlyForHeight
PUBLIC	??0CPythonBackground@@QAE@XZ			; CPythonBackground::CPythonBackground
PUBLIC	??1CPythonBackground@@UAE@XZ			; CPythonBackground::~CPythonBackground
PUBLIC	?GetFarClip@CPythonBackground@@QAEMXZ		; CPythonBackground::GetFarClip
PUBLIC	?RenderCharacterShadowToTexture@CPythonBackground@@QAEXXZ ; CPythonBackground::RenderCharacterShadowToTexture
PUBLIC	?RenderSky@CPythonBackground@@QAEXXZ		; CPythonBackground::RenderSky
PUBLIC	?RenderBeforeLensFlare@CPythonBackground@@QAEXXZ ; CPythonBackground::RenderBeforeLensFlare
PUBLIC	?RenderCloud@CPythonBackground@@QAEXXZ		; CPythonBackground::RenderCloud
PUBLIC	?Render@CPythonBackground@@QAEXXZ		; CPythonBackground::Render
PUBLIC	?SetCharacterDirLight@CPythonBackground@@QAEXXZ	; CPythonBackground::SetCharacterDirLight
PUBLIC	?SetBackgroundDirLight@CPythonBackground@@QAEXXZ ; CPythonBackground::SetBackgroundDirLight
PUBLIC	?RenderWater@CPythonBackground@@QAEXXZ		; CPythonBackground::RenderWater
PUBLIC	?RenderSnow@CPythonBackground@@QAEXXZ		; CPythonBackground::RenderSnow
PUBLIC	?RenderEffect@CPythonBackground@@QAEXXZ		; CPythonBackground::RenderEffect
PUBLIC	?RenderPCBlocker@CPythonBackground@@QAEXXZ	; CPythonBackground::RenderPCBlocker
PUBLIC	?RenderAfterLensFlare@CPythonBackground@@QAEXXZ	; CPythonBackground::RenderAfterLensFlare
PUBLIC	?Update@CPythonBackground@@QAEXMMM@Z		; CPythonBackground::Update
PUBLIC	?CreateCharacterShadowTexture@CPythonBackground@@QAEXXZ ; CPythonBackground::CreateCharacterShadowTexture
PUBLIC	?SetViewDistanceSet@CPythonBackground@@QAEXHM@Z	; CPythonBackground::SetViewDistanceSet
PUBLIC	?ReleaseCharacterShadowTexture@CPythonBackground@@QAEXXZ ; CPythonBackground::ReleaseCharacterShadowTexture
PUBLIC	?GlobalPositionToLocalPosition@CPythonBackground@@QAEXAAJ0@Z ; CPythonBackground::GlobalPositionToLocalPosition
PUBLIC	?Destroy@CPythonBackground@@QAEXXZ		; CPythonBackground::Destroy
PUBLIC	?GetPickingPointWithRayOnlyTerrain@CPythonBackground@@QAE_NABVCRay@@PAUD3DXVECTOR3@@@Z ; CPythonBackground::GetPickingPointWithRayOnlyTerrain
PUBLIC	?g_strEffectName@@3V?$basic_string@DU?$char_traits@D@std@@V?$allocator@D@2@@std@@A ; g_strEffectName
EXTRN	??_ECPythonBackground@@UAEPAXI@Z:PROC		; CPythonBackground::`vector deleting destructor'
EXTRN	??_E?$CSingleton@VCPythonBackground@@@@UAEPAXI@Z:PROC ; CSingleton<CPythonBackground>::`vector deleting destructor'
EXTRN	??_E?$RangeTester@UFGetPortalID@@@@UAEPAXI@Z:PROC ; RangeTester<FGetPortalID>::`vector deleting destructor'
EXTRN	??_E?$RangeTester@UCollisionAdjustChecker@@@@UAEPAXI@Z:PROC ; RangeTester<CollisionAdjustChecker>::`vector deleting destructor'
EXTRN	??_E?$RangeTester@UCollisionChecker@@@@UAEPAXI@Z:PROC ; RangeTester<CollisionChecker>::`vector deleting destructor'
?g_strEffectName@@3V?$basic_string@DU?$char_traits@D@std@@V?$allocator@D@2@@std@@A DB 018H DUP (?) ; g_strEffectName
_BSS	ENDS
;	COMDAT ?$TSS0@?1??SetXMaxTree@CPythonBackground@@QAEXH@Z@4HA
_BSS	SEGMENT
?$TSS0@?1??SetXMaxTree@CPythonBackground@@QAEXH@Z@4HA DD 01H DUP (?) ; `CPythonBackground::SetXMaxTree'::`2'::$TSS0
_BSS	ENDS
;	COMDAT ?s_strTreeName@?1??SetXMaxTree@CPythonBackground@@QAEXH@Z@4PAV?$basic_string@DU?$char_traits@D@std@@V?$allocator@D@2@@std@@A
_BSS	SEGMENT
?s_strTreeName@?1??SetXMaxTree@CPythonBackground@@QAEXH@Z@4PAV?$basic_string@DU?$char_traits@D@std@@V?$allocator@D@2@@std@@A DB 048H DUP (?) ; `CPythonBackground::SetXMaxTree'::`2'::s_strTreeName
_BSS	ENDS
;	COMDAT ?$TSS1@?1??SetXMaxTree@CPythonBackground@@QAEXH@Z@4HA
_BSS	SEGMENT
?$TSS1@?1??SetXMaxTree@CPythonBackground@@QAEXH@Z@4HA DD 01H DUP (?) ; `CPythonBackground::SetXMaxTree'::`2'::$TSS1
_BSS	ENDS
;	COMDAT ?s_strEffectName@?1??SetXMaxTree@CPythonBackground@@QAEXH@Z@4PAV?$basic_string@DU?$char_traits@D@std@@V?$allocator@D@2@@std@@A
_BSS	SEGMENT
?s_strEffectName@?1??SetXMaxTree@CPythonBackground@@QAEXH@Z@4PAV?$basic_string@DU?$char_traits@D@std@@V?$allocator@D@2@@std@@A DB 048H DUP (?) ; `CPythonBackground::SetXMaxTree'::`2'::s_strEffectName
_BSS	ENDS
;	COMDAT ?$TSS0@?1??IsBoomMap@CPythonBackground@@QBE_NABV?$basic_string@DU?$char_traits@D@std@@V?$allocator@D@2@@std@@@Z@4HA
_BSS	SEGMENT
?$TSS0@?1??IsBoomMap@CPythonBackground@@QBE_NABV?$basic_string@DU?$char_traits@D@std@@V?$allocator@D@2@@std@@@Z@4HA DD 01H DUP (?) ; `CPythonBackground::IsBoomMap'::`2'::$TSS0
_BSS	ENDS
;	COMDAT ?vMapName@?1??IsBoomMap@CPythonBackground@@QBE_NABV?$basic_string@DU?$char_traits@D@std@@V?$allocator@D@2@@std@@@Z@4V?$vector@V?$basic_string@DU?$char_traits@D@std@@V?$allocator@D@2@@std@@V?$allocator@V?$basic_string@DU?$char_traits@D@std@@V?$allocator@D@2@@std@@@2@@4@B
_BSS	SEGMENT
?vMapName@?1??IsBoomMap@CPythonBackground@@QBE_NABV?$basic_string@DU?$char_traits@D@std@@V?$allocator@D@2@@std@@@Z@4V?$vector@V?$basic_string@DU?$char_traits@D@std@@V?$allocator@D@2@@std@@V?$allocator@V?$basic_string@DU?$char_traits@D@std@@V?$allocator@D@2@@std@@@2@@4@B DB 0cH DUP (?) ; `CPythonBackground::IsBoomMap'::`2'::vMapName
_BSS	ENDS
	ORG $+4760
?c_v3TreePos@@3UD3DXVECTOR3@@B DD 047956a00r	; 76500	; c_v3TreePos
	DD	0c76de400r			; -60900
	DD	0469dee00r			; 20215
CONST	ENDS
;	COMDAT xdata$x
xdata$x	SEGMENT
__ehfuncinfo$?Update@CPythonBackground@@QAEXMMM@Z DD 019930522H
	DD	02H
	DD	FLAT:__unwindtable$?Update@CPythonBackground@@QAEXMMM@Z
	DD	2 DUP(00H)
	DD	2 DUP(00H)
	DD	00H
	DD	01H
__unwindtable$?Update@CPythonBackground@@QAEXMMM@Z DD 0ffffffffH
	DD	FLAT:__unwindfunclet$?Update@CPythonBackground@@QAEXMMM@Z$0
	DD	00H
	DD	FLAT:__unwindfunclet$?Update@CPythonBackground@@QAEXMMM@Z$5
xdata$x	ENDS
;	COMDAT xdata$x
xdata$x	SEGMENT
__ehfuncinfo$??1CPythonBackground@@UAE@XZ DQ 00000000019930522r ; 2.11987e-315
	DQ	00000000000000000r		; 0
	DQ	00000000000000000r		; 0
	DQ	00000000000000000r		; 0
	DD	05H
xdata$x	ENDS
;	COMDAT xdata$x
xdata$x	SEGMENT
__ehfuncinfo$??0CPythonBackground@@QAE@XZ DD 019930522H
	DD	08H
	DD	FLAT:__unwindtable$??0CPythonBackground@@QAE@XZ
	DD	2 DUP(00H)
	DD	2 DUP(00H)
	DD	00H
	DD	01H
	ORG $+4
__unwindtable$??0CPythonBackground@@QAE@XZ DD 0ffffffffH
	DD	FLAT:__unwindfunclet$??0CPythonBackground@@QAE@XZ$0
	DD	00H
	DD	FLAT:__unwindfunclet$??0CPythonBackground@@QAE@XZ$1
	DD	01H
	DD	FLAT:__unwindfunclet$??0CPythonBackground@@QAE@XZ$2
	DD	02H
	DD	FLAT:__unwindfunclet$??0CPythonBackground@@QAE@XZ$3
	DD	03H
	DD	FLAT:__unwindfunclet$??0CPythonBackground@@QAE@XZ$4
	DD	04H
	DD	FLAT:__unwindfunclet$??0CPythonBackground@@QAE@XZ$5
	DD	05H
	DD	FLAT:__unwindfunclet$??0CPythonBackground@@QAE@XZ$6
	DD	06H
	DD	FLAT:__unwindfunclet$??0CPythonBackground@@QAE@XZ$7
xdata$x	ENDS
;	COMDAT xdata$x
xdata$x	SEGMENT
__ehfuncinfo$?Initialize@CPythonBackground@@QAEXXZ DQ 00000000119930522r ; 2.33398e-314
	DD	FLAT:__unwindtable$?Initialize@CPythonBackground@@QAEXXZ
	DQ	00000000000000000r		; 0
	DQ	00000000000000000r		; 0
	DQ	00000000100000000r		; 2.122e-314
__unwindtable$?Initialize@CPythonBackground@@QAEXXZ DD 0ffffffffH
	DD	FLAT:__unwindfunclet$?Initialize@CPythonBackground@@QAEXXZ$0
xdata$x	ENDS
;	COMDAT xdata$x
xdata$x	SEGMENT
__ehfuncinfo$?__CreateProperty@CPythonBackground@@IAEXXZ DQ 00000000119930522r ; 2.33398e-314
	DD	FLAT:__unwindtable$?__CreateProperty@CPythonBackground@@IAEXXZ
	DQ	00000000000000000r		; 0
	DQ	00000000000000000r		; 0
	DQ	00000000100000000r		; 2.122e-314
__unwindtable$?__CreateProperty@CPythonBackground@@IAEXXZ DD 0ffffffffH
	DD	FLAT:__unwindfunclet$?__CreateProperty@CPythonBackground@@IAEXXZ$0
xdata$x	ENDS
;	COMDAT xdata$x
xdata$x	SEGMENT
__ehfuncinfo$??RFGetPortalID@@QAEXPAVCGraphicObjectInstance@@@Z DQ 00000000119930522r ; 2.33398e-314
	DD	FLAT:__unwindtable$??RFGetPortalID@@QAEXPAVCGraphicObjectInstance@@@Z
	DQ	00000000000000000r		; 0
	DQ	00000000000000000r		; 0
	DQ	00000000100000000r		; 2.122e-314
__unwindtable$??RFGetPortalID@@QAEXPAVCGraphicObjectInstance@@@Z DD 0ffffffffH
	DD	FLAT:__unwindfunclet$??RFGetPortalID@@QAEXPAVCGraphicObjectInstance@@@Z$2
xdata$x	ENDS
;	COMDAT xdata$x
xdata$x	SEGMENT
__ehfuncinfo$?CheckAdvancing@CPythonBackground@@QAE_NPAVCInstanceBase@@@Z DQ 00000000219930522r ; 4.45598e-314
	DD	FLAT:__unwindtable$?CheckAdvancing@CPythonBackground@@QAE_NPAVCInstanceBase@@@Z
	DQ	00000000000000000r		; 0
	DQ	00000000000000000r		; 0
	DQ	00000000100000000r		; 2.122e-314
__unwindtable$?CheckAdvancing@CPythonBackground@@QAE_NPAVCInstanceBase@@@Z DD 0ffffffffH
	DD	FLAT:__unwindfunclet$?CheckAdvancing@CPythonBackground@@QAE_NPAVCInstanceBase@@@Z$0
	DD	0ffffffffH
	DD	FLAT:__unwindfunclet$?CheckAdvancing@CPythonBackground@@QAE_NPAVCInstanceBase@@@Z$1
xdata$x	ENDS
;	COMDAT xdata$x
xdata$x	SEGMENT
__ehfuncinfo$?RegisterDungeonMapName@CPythonBackground@@QAEXPBD@Z DQ 00000000119930522r ; 2.33398e-314
	DD	FLAT:__unwindtable$?RegisterDungeonMapName@CPythonBackground@@QAEXPBD@Z
	DQ	00000000000000000r		; 0
	DQ	00000000000000000r		; 0
	DQ	00000000100000000r		; 2.122e-314
__unwindtable$?RegisterDungeonMapName@CPythonBackground@@QAEXPBD@Z DD 0ffffffffH
	DD	FLAT:__unwindfunclet$?RegisterDungeonMapName@CPythonBackground@@QAEXPBD@Z$0
xdata$x	ENDS
;	COMDAT xdata$x
xdata$x	SEGMENT
__ehfuncinfo$?SetXMaxTree@CPythonBackground@@QAEXH@Z DQ 00000000419930522r ; 8.69997e-314
	DD	FLAT:__unwindtable$?SetXMaxTree@CPythonBackground@@QAEXH@Z
	DQ	00000000000000000r		; 0
	DQ	00000000000000000r		; 0
	DQ	00000000100000000r		; 2.122e-314
__unwindtable$?SetXMaxTree@CPythonBackground@@QAEXH@Z DD 0ffffffffH
	DD	FLAT:__unwindfunclet$?SetXMaxTree@CPythonBackground@@QAEXH@Z$0
	DD	00H
	DD	FLAT:__unwindfunclet$?SetXMaxTree@CPythonBackground@@QAEXH@Z$1
	DD	0ffffffffH
	DD	FLAT:__unwindfunclet$?SetXMaxTree@CPythonBackground@@QAEXH@Z$3
	DD	02H
	DD	FLAT:__unwindfunclet$?SetXMaxTree@CPythonBackground@@QAEXH@Z$4
xdata$x	ENDS
;	COMDAT xdata$x
xdata$x	SEGMENT
__ehfuncinfo$?CreateTargetEffect@CPythonBackground@@QAEXKJJ@Z DD 019930522H
	DD	01H
	DD	FLAT:__unwindtable$?CreateTargetEffect@CPythonBackground@@QAEXKJJ@Z
	DD	2 DUP(00H)
	DD	2 DUP(00H)
	DD	00H
	DD	01H
__unwindtable$?CreateTargetEffect@CPythonBackground@@QAEXKJJ@Z DD 0ffffffffH
	DD	FLAT:__unwindfunclet$?CreateTargetEffect@CPythonBackground@@QAEXKJJ@Z$2
xdata$x	ENDS
;	COMDAT xdata$x
xdata$x	SEGMENT
__ehfuncinfo$?IsBoomMap@CPythonBackground@@QBE_NABV?$basic_string@DU?$char_traits@D@std@@V?$allocator@D@2@@std@@@Z DQ 00000003419930522r ; 1.10556e-312
	DD	FLAT:__unwindtable$?IsBoomMap@CPythonBackground@@QBE_NABV?$basic_string@DU?$char_traits@D@std@@V?$allocator@D@2@@std@@@Z
	DQ	00000000000000000r		; 0
	DQ	00000000000000000r		; 0
	DQ	00000000100000000r		; 2.122e-314
	ORG $+4
__unwindtable$?IsBoomMap@CPythonBackground@@QBE_NABV?$basic_string@DU?$char_traits@D@std@@V?$allocator@D@2@@std@@@Z DD 0ffffffffH
	DD	FLAT:__unwindfunclet$?IsBoomMap@CPythonBackground@@QBE_NABV?$basic_string@DU?$char_traits@D@std@@V?$allocator@D@2@@std@@@Z$0
	DD	00H
	DD	FLAT:__unwindfunclet$?IsBoomMap@CPythonBackground@@QBE_NABV?$basic_string@DU?$char_traits@D@std@@V?$allocator@D@2@@std@@@Z$1
	DD	01H
	DD	FLAT:__unwindfunclet$?IsBoomMap@CPythonBackground@@QBE_NABV?$basic_string@DU?$char_traits@D@std@@V?$allocator@D@2@@std@@@Z$2
	DD	02H
	DD	FLAT:__unwindfunclet$?IsBoomMap@CPythonBackground@@QBE_NABV?$basic_string@DU?$char_traits@D@std@@V?$allocator@D@2@@std@@@Z$3
	DD	03H
	DD	FLAT:__unwindfunclet$?IsBoomMap@CPythonBackground@@QBE_NABV?$basic_string@DU?$char_traits@D@std@@V?$allocator@D@2@@std@@@Z$4
	DD	04H
	DD	FLAT:__unwindfunclet$?IsBoomMap@CPythonBackground@@QBE_NABV?$basic_string@DU?$char_traits@D@std@@V?$allocator@D@2@@std@@@Z$5
	DD	05H
	DD	FLAT:__unwindfunclet$?IsBoomMap@CPythonBackground@@QBE_NABV?$basic_string@DU?$char_traits@D@std@@V?$allocator@D@2@@std@@@Z$6
	DD	06H
	DD	FLAT:__unwindfunclet$?IsBoomMap@CPythonBackground@@QBE_NABV?$basic_string@DU?$char_traits@D@std@@V?$allocator@D@2@@std@@@Z$7
	DD	07H
	DD	FLAT:__unwindfunclet$?IsBoomMap@CPythonBackground@@QBE_NABV?$basic_string@DU?$char_traits@D@std@@V?$allocator@D@2@@std@@@Z$8
	DD	08H
	DD	FLAT:__unwindfunclet$?IsBoomMap@CPythonBackground@@QBE_NABV?$basic_string@DU?$char_traits@D@std@@V?$allocator@D@2@@std@@@Z$9
	DD	09H
	DD	FLAT:__unwindfunclet$?IsBoomMap@CPythonBackground@@QBE_NABV?$basic_string@DU?$char_traits@D@std@@V?$allocator@D@2@@std@@@Z$10
	DD	0aH
	DD	FLAT:__unwindfunclet$?IsBoomMap@CPythonBackground@@QBE_NABV?$basic_string@DU?$char_traits@D@std@@V?$allocator@D@2@@std@@@Z$11
	DD	0bH
	DD	FLAT:__unwindfunclet$?IsBoomMap@CPythonBackground@@QBE_NABV?$basic_string@DU?$char_traits@D@std@@V?$allocator@D@2@@std@@@Z$12
	DD	0cH
	DD	FLAT:__unwindfunclet$?IsBoomMap@CPythonBackground@@QBE_NABV?$basic_string@DU?$char_traits@D@std@@V?$allocator@D@2@@std@@@Z$13
	DD	0dH
	DD	FLAT:__unwindfunclet$?IsBoomMap@CPythonBackground@@QBE_NABV?$basic_string@DU?$char_traits@D@std@@V?$allocator@D@2@@std@@@Z$14
	DD	0eH
	DD	FLAT:__unwindfunclet$?IsBoomMap@CPythonBackground@@QBE_NABV?$basic_string@DU?$char_traits@D@std@@V?$allocator@D@2@@std@@@Z$15
	DD	0fH
	DD	FLAT:__unwindfunclet$?IsBoomMap@CPythonBackground@@QBE_NABV?$basic_string@DU?$char_traits@D@std@@V?$allocator@D@2@@std@@@Z$16
	DD	010H
	DD	FLAT:__unwindfunclet$?IsBoomMap@CPythonBackground@@QBE_NABV?$basic_string@DU?$char_traits@D@std@@V?$allocator@D@2@@std@@@Z$17
	DD	011H
	DD	FLAT:__unwindfunclet$?IsBoomMap@CPythonBackground@@QBE_NABV?$basic_string@DU?$char_traits@D@std@@V?$allocator@D@2@@std@@@Z$18
	DD	012H
	DD	FLAT:__unwindfunclet$?IsBoomMap@CPythonBackground@@QBE_NABV?$basic_string@DU?$char_traits@D@std@@V?$allocator@D@2@@std@@@Z$19
	DD	013H
	DD	FLAT:__unwindfunclet$?IsBoomMap@CPythonBackground@@QBE_NABV?$basic_string@DU?$char_traits@D@std@@V?$allocator@D@2@@std@@@Z$20
	DD	014H
	DD	FLAT:__unwindfunclet$?IsBoomMap@CPythonBackground@@QBE_NABV?$basic_string@DU?$char_traits@D@std@@V?$allocator@D@2@@std@@@Z$21
	DD	015H
	DD	FLAT:__unwindfunclet$?IsBoomMap@CPythonBackground@@QBE_NABV?$basic_string@DU?$char_traits@D@std@@V?$allocator@D@2@@std@@@Z$22
	DD	016H
	DD	FLAT:__unwindfunclet$?IsBoomMap@CPythonBackground@@QBE_NABV?$basic_string@DU?$char_traits@D@std@@V?$allocator@D@2@@std@@@Z$23
	DD	017H
	DD	FLAT:__unwindfunclet$?IsBoomMap@CPythonBackground@@QBE_NABV?$basic_string@DU?$char_traits@D@std@@V?$allocator@D@2@@std@@@Z$24
	DD	018H
	DD	FLAT:__unwindfunclet$?IsBoomMap@CPythonBackground@@QBE_NABV?$basic_string@DU?$char_traits@D@std@@V?$allocator@D@2@@std@@@Z$25
	DD	019H
	DD	FLAT:__unwindfunclet$?IsBoomMap@CPythonBackground@@QBE_NABV?$basic_string@DU?$char_traits@D@std@@V?$allocator@D@2@@std@@@Z$26
	DD	01aH
	DD	FLAT:__unwindfunclet$?IsBoomMap@CPythonBackground@@QBE_NABV?$basic_string@DU?$char_traits@D@std@@V?$allocator@D@2@@std@@@Z$27
	DD	01bH
	DD	FLAT:__unwindfunclet$?IsBoomMap@CPythonBackground@@QBE_NABV?$basic_string@DU?$char_traits@D@std@@V?$allocator@D@2@@std@@@Z$28
	DD	01cH
	DD	FLAT:__unwindfunclet$?IsBoomMap@CPythonBackground@@QBE_NABV?$basic_string@DU?$char_traits@D@std@@V?$allocator@D@2@@std@@@Z$29
	DD	01dH
	DD	FLAT:__unwindfunclet$?IsBoomMap@CPythonBackground@@QBE_NABV?$basic_string@DU?$char_traits@D@std@@V?$allocator@D@2@@std@@@Z$30
	DD	01eH
	DD	FLAT:__unwindfunclet$?IsBoomMap@CPythonBackground@@QBE_NABV?$basic_string@DU?$char_traits@D@std@@V?$allocator@D@2@@std@@@Z$31
	DD	01fH
	DD	FLAT:__unwindfunclet$?IsBoomMap@CPythonBackground@@QBE_NABV?$basic_string@DU?$char_traits@D@std@@V?$allocator@D@2@@std@@@Z$32
	DD	020H
	DD	FLAT:__unwindfunclet$?IsBoomMap@CPythonBackground@@QBE_NABV?$basic_string@DU?$char_traits@D@std@@V?$allocator@D@2@@std@@@Z$33
	DD	021H
	DD	FLAT:__unwindfunclet$?IsBoomMap@CPythonBackground@@QBE_NABV?$basic_string@DU?$char_traits@D@std@@V?$allocator@D@2@@std@@@Z$34
	DD	022H
	DD	FLAT:__unwindfunclet$?IsBoomMap@CPythonBackground@@QBE_NABV?$basic_string@DU?$char_traits@D@std@@V?$allocator@D@2@@std@@@Z$35
	DD	023H
	DD	FLAT:__unwindfunclet$?IsBoomMap@CPythonBackground@@QBE_NABV?$basic_string@DU?$char_traits@D@std@@V?$allocator@D@2@@std@@@Z$36
	DD	024H
	DD	FLAT:__unwindfunclet$?IsBoomMap@CPythonBackground@@QBE_NABV?$basic_string@DU?$char_traits@D@std@@V?$allocator@D@2@@std@@@Z$37
	DD	025H
	DD	FLAT:__unwindfunclet$?IsBoomMap@CPythonBackground@@QBE_NABV?$basic_string@DU?$char_traits@D@std@@V?$allocator@D@2@@std@@@Z$38
	DD	026H
	DD	FLAT:__unwindfunclet$?IsBoomMap@CPythonBackground@@QBE_NABV?$basic_string@DU?$char_traits@D@std@@V?$allocator@D@2@@std@@@Z$39
	DD	027H
	DD	FLAT:__unwindfunclet$?IsBoomMap@CPythonBackground@@QBE_NABV?$basic_string@DU?$char_traits@D@std@@V?$allocator@D@2@@std@@@Z$40
	DD	028H
	DD	FLAT:__unwindfunclet$?IsBoomMap@CPythonBackground@@QBE_NABV?$basic_string@DU?$char_traits@D@std@@V?$allocator@D@2@@std@@@Z$41
	DD	029H
	DD	FLAT:__unwindfunclet$?IsBoomMap@CPythonBackground@@QBE_NABV?$basic_string@DU?$char_traits@D@std@@V?$allocator@D@2@@std@@@Z$42
	DD	02aH
	DD	FLAT:__unwindfunclet$?IsBoomMap@CPythonBackground@@QBE_NABV?$basic_string@DU?$char_traits@D@std@@V?$allocator@D@2@@std@@@Z$43
	DD	02bH
	DD	FLAT:__unwindfunclet$?IsBoomMap@CPythonBackground@@QBE_NABV?$basic_string@DU?$char_traits@D@std@@V?$allocator@D@2@@std@@@Z$44
	DD	02cH
	DD	FLAT:__unwindfunclet$?IsBoomMap@CPythonBackground@@QBE_NABV?$basic_string@DU?$char_traits@D@std@@V?$allocator@D@2@@std@@@Z$45
	DD	02dH
	DD	FLAT:__unwindfunclet$?IsBoomMap@CPythonBackground@@QBE_NABV?$basic_string@DU?$char_traits@D@std@@V?$allocator@D@2@@std@@@Z$46
	DD	02eH
	DD	FLAT:__unwindfunclet$?IsBoomMap@CPythonBackground@@QBE_NABV?$basic_string@DU?$char_traits@D@std@@V?$allocator@D@2@@std@@@Z$47
	DD	02fH
	DD	FLAT:__unwindfunclet$?IsBoomMap@CPythonBackground@@QBE_NABV?$basic_string@DU?$char_traits@D@std@@V?$allocator@D@2@@std@@@Z$48
	DD	030H
	DD	FLAT:__unwindfunclet$?IsBoomMap@CPythonBackground@@QBE_NABV?$basic_string@DU?$char_traits@D@std@@V?$allocator@D@2@@std@@@Z$49
	DD	031H
	DD	FLAT:__unwindfunclet$?IsBoomMap@CPythonBackground@@QBE_NABV?$basic_string@DU?$char_traits@D@std@@V?$allocator@D@2@@std@@@Z$50
	DD	00H
	DD	FLAT:__unwindfunclet$?IsBoomMap@CPythonBackground@@QBE_NABV?$basic_string@DU?$char_traits@D@std@@V?$allocator@D@2@@std@@@Z$52
xdata$x	ENDS
;	COMDAT xdata$x
xdata$x	SEGMENT
__ehfuncinfo$??0?$vector@V?$basic_string@DU?$char_traits@D@std@@V?$allocator@D@2@@std@@V?$allocator@V?$basic_string@DU?$char_traits@D@std@@V?$allocator@D@2@@std@@@2@@std@@QAE@V?$initializer_list@V?$basic_string@DU?$char_traits@D@std@@V?$allocator@D@2@@std@@@1@ABV?$allocator@V?$basic_string@DU?$char_traits@D@std@@V?$allocator@D@2@@std@@@1@@Z DQ 00000000219930522r ; 4.45598e-314
	DD	FLAT:__unwindtable$??0?$vector@V?$basic_string@DU?$char_traits@D@std@@V?$allocator@D@2@@std@@V?$allocator@V?$basic_string@DU?$char_traits@D@std@@V?$allocator@D@2@@std@@@2@@std@@QAE@V?$initializer_list@V?$basic_string@DU?$char_traits@D@std@@V?$allocator@D@2@@std@@@1@ABV?$allocator@V?$basic_string@DU?$char_traits@D@std@@V?$allocator@D@2@@std@@@1@@Z
	DQ	00000000000000000r		; 0
	DQ	00000000000000000r		; 0
	DQ	00000000100000000r		; 2.122e-314
__unwindtable$??0?$vector@V?$basic_string@DU?$char_traits@D@std@@V?$allocator@D@2@@std@@V?$allocator@V?$basic_string@DU?$char_traits@D@std@@V?$allocator@D@2@@std@@@2@@std@@QAE@V?$initializer_list@V?$basic_string@DU?$char_traits@D@std@@V?$allocator@D@2@@std@@@1@ABV?$allocator@V?$basic_string@DU?$char_traits@D@std@@V?$allocator@D@2@@std@@@1@@Z DD 0ffffffffH
	DD	FLAT:__unwindfunclet$??0?$vector@V?$basic_string@DU?$char_traits@D@std@@V?$allocator@D@2@@std@@V?$allocator@V?$basic_string@DU?$char_traits@D@std@@V?$allocator@D@2@@std@@@2@@std@@QAE@V?$initializer_list@V?$basic_string@DU?$char_traits@D@std@@V?$allocator@D@2@@std@@@1@ABV?$allocator@V?$basic_string@DU?$char_traits@D@std@@V?$allocator@D@2@@std@@@1@@Z$0
	DD	00H
	DD	FLAT:__unwindfunclet$??0?$vector@V?$basic_string@DU?$char_traits@D@std@@V?$allocator@D@2@@std@@V?$allocator@V?$basic_string@DU?$char_traits@D@std@@V?$allocator@D@2@@std@@@2@@std@@QAE@V?$initializer_list@V?$basic_string@DU?$char_traits@D@std@@V?$allocator@D@2@@std@@@1@ABV?$allocator@V?$basic_string@DU?$char_traits@D@std@@V?$allocator@D@2@@std@@@1@@Z$1
xdata$x	ENDS
;	COMDAT xdata$x
xdata$x	SEGMENT
__ehfuncinfo$??$_Construct_n@PBV?$basic_string@DU?$char_traits@D@std@@V?$allocator@D@2@@std@@PBV12@@?$vector@V?$basic_string@DU?$char_traits@D@std@@V?$allocator@D@2@@std@@V?$allocator@V?$basic_string@DU?$char_traits@D@std@@V?$allocator@D@2@@std@@@2@@std@@AAEXI$$QAPBV?$basic_string@DU?$char_traits@D@std@@V?$allocator@D@2@@1@0@Z DQ 00000000219930522r ; 4.45598e-314
	DD	FLAT:__unwindtable$??$_Construct_n@PBV?$basic_string@DU?$char_traits@D@std@@V?$allocator@D@2@@std@@PBV12@@?$vector@V?$basic_string@DU?$char_traits@D@std@@V?$allocator@D@2@@std@@V?$allocator@V?$basic_string@DU?$char_traits@D@std@@V?$allocator@D@2@@std@@@2@@std@@AAEXI$$QAPBV?$basic_string@DU?$char_traits@D@std@@V?$allocator@D@2@@1@0@Z
	DQ	00000000000000000r		; 0
	DQ	00000000000000000r		; 0
	DQ	00000000100000000r		; 2.122e-314
__unwindtable$??$_Construct_n@PBV?$basic_string@DU?$char_traits@D@std@@V?$allocator@D@2@@std@@PBV12@@?$vector@V?$basic_string@DU?$char_traits@D@std@@V?$allocator@D@2@@std@@V?$allocator@V?$basic_string@DU?$char_traits@D@std@@V?$allocator@D@2@@std@@@2@@std@@AAEXI$$QAPBV?$basic_string@DU?$char_traits@D@std@@V?$allocator@D@2@@1@0@Z DD 0ffffffffH
	DD	FLAT:__unwindfunclet$??$_Construct_n@PBV?$basic_string@DU?$char_traits@D@std@@V?$allocator@D@2@@std@@PBV12@@?$vector@V?$basic_string@DU?$char_traits@D@std@@V?$allocator@D@2@@std@@V?$allocator@V?$basic_string@DU?$char_traits@D@std@@V?$allocator@D@2@@std@@@2@@std@@AAEXI$$QAPBV?$basic_string@DU?$char_traits@D@std@@V?$allocator@D@2@@1@0@Z$0
	DD	00H
	DD	FLAT:__unwindfunclet$??$_Construct_n@PBV?$basic_string@DU?$char_traits@D@std@@V?$allocator@D@2@@std@@PBV12@@?$vector@V?$basic_string@DU?$char_traits@D@std@@V?$allocator@D@2@@std@@V?$allocator@V?$basic_string@DU?$char_traits@D@std@@V?$allocator@D@2@@std@@@2@@std@@AAEXI$$QAPBV?$basic_string@DU?$char_traits@D@std@@V?$allocator@D@2@@1@0@Z$1
xdata$x	ENDS
;	COMDAT xdata$x
xdata$x	SEGMENT
__ehfuncinfo$??$_Uninitialized_copy@PBV?$basic_string@DU?$char_traits@D@std@@V?$allocator@D@2@@std@@PBV12@V?$allocator@V?$basic_string@DU?$char_traits@D@std@@V?$allocator@D@2@@std@@@2@@std@@YAPAV?$basic_string@DU?$char_traits@D@std@@V?$allocator@D@2@@0@PBV10@0PAV10@AAV?$allocator@V?$basic_string@DU?$char_traits@D@std@@V?$allocator@D@2@@std@@@0@@Z DQ 00000000119930522r ; 2.33398e-314
	DD	FLAT:__unwindtable$??$_Uninitialized_copy@PBV?$basic_string@DU?$char_traits@D@std@@V?$allocator@D@2@@std@@PBV12@V?$allocator@V?$basic_string@DU?$char_traits@D@std@@V?$allocator@D@2@@std@@@2@@std@@YAPAV?$basic_string@DU?$char_traits@D@std@@V?$allocator@D@2@@0@PBV10@0PAV10@AAV?$allocator@V?$basic_string@DU?$char_traits@D@std@@V?$allocator@D@2@@std@@@0@@Z
	DQ	00000000000000000r		; 0
	DQ	00000000000000000r		; 0
	DQ	00000000100000000r		; 2.122e-314
__unwindtable$??$_Uninitialized_copy@PBV?$basic_string@DU?$char_traits@D@std@@V?$allocator@D@2@@std@@PBV12@V?$allocator@V?$basic_string@DU?$char_traits@D@std@@V?$allocator@D@2@@std@@@2@@std@@YAPAV?$basic_string@DU?$char_traits@D@std@@V?$allocator@D@2@@0@PBV10@0PAV10@AAV?$allocator@V?$basic_string@DU?$char_traits@D@std@@V?$allocator@D@2@@std@@@0@@Z DD 0ffffffffH
	DD	FLAT:__unwindfunclet$??$_Uninitialized_copy@PBV?$basic_string@DU?$char_traits@D@std@@V?$allocator@D@2@@std@@PBV12@V?$allocator@V?$basic_string@DU?$char_traits@D@std@@V?$allocator@D@2@@std@@@2@@std@@YAPAV?$basic_string@DU?$char_traits@D@std@@V?$allocator@D@2@@0@PBV10@0PAV10@AAV?$allocator@V?$basic_string@DU?$char_traits@D@std@@V?$allocator@D@2@@std@@@0@@Z$0
xdata$x	ENDS
;	COMDAT xdata$x
xdata$x	SEGMENT
__ehfuncinfo$??$insert@$0A@$0A@@?$_Tree@V?$_Tset_traits@HU?$less@H@std@@V?$allocator@H@2@$0A@@std@@@std@@QAE?AU?$pair@V?$_Tree_const_iterator@V?$_Tree_val@U?$_Tree_simple_types@H@std@@@std@@@std@@_N@1@ABH@Z DQ 00000000119930522r ; 2.33398e-314
	DD	FLAT:__unwindtable$??$insert@$0A@$0A@@?$_Tree@V?$_Tset_traits@HU?$less@H@std@@V?$allocator@H@2@$0A@@std@@@std@@QAE?AU?$pair@V?$_Tree_const_iterator@V?$_Tree_val@U?$_Tree_simple_types@H@std@@@std@@@std@@_N@1@ABH@Z
	DQ	00000000000000000r		; 0
	DQ	00000000000000000r		; 0
	DQ	00000000100000000r		; 2.122e-314
__unwindtable$??$insert@$0A@$0A@@?$_Tree@V?$_Tset_traits@HU?$less@H@std@@V?$allocator@H@2@$0A@@std@@@std@@QAE?AU?$pair@V?$_Tree_const_iterator@V?$_Tree_val@U?$_Tree_simple_types@H@std@@@std@@@std@@_N@1@ABH@Z DD 0ffffffffH
	DD	FLAT:__unwindfunclet$??$insert@$0A@$0A@@?$_Tree@V?$_Tset_traits@HU?$less@H@std@@V?$allocator@H@2@$0A@@std@@@std@@QAE?AU?$pair@V?$_Tree_const_iterator@V?$_Tree_val@U?$_Tree_simple_types@H@std@@@std@@@std@@_N@1@ABH@Z$2
xdata$x	ENDS
;	COMDAT xdata$x
xdata$x	SEGMENT
__ehfuncinfo$??$ForInRay@UFGetPortalID@@@CCullingManager@@QAEXABVVector3d@@0PAUFGetPortalID@@@Z DQ 00000000119930522r ; 2.33398e-314
	DD	FLAT:__unwindtable$??$ForInRay@UFGetPortalID@@@CCullingManager@@QAEXABVVector3d@@0PAUFGetPortalID@@@Z
	DQ	00000000000000000r		; 0
	DQ	00000000000000000r		; 0
	DQ	00000000100000000r		; 2.122e-314
__unwindtable$??$ForInRay@UFGetPortalID@@@CCullingManager@@QAEXABVVector3d@@0PAUFGetPortalID@@@Z DD 0ffffffffH
	DD	FLAT:__unwindfunclet$??$ForInRay@UFGetPortalID@@@CCullingManager@@QAEXABVVector3d@@0PAUFGetPortalID@@@Z$0
xdata$x	ENDS
;	COMDAT xdata$x
xdata$x	SEGMENT
__ehfuncinfo$??$ForInRange@UCollisionAdjustChecker@@@CCullingManager@@QAEXABVVector3d@@MPAUCollisionAdjustChecker@@@Z DQ 00000000119930522r ; 2.33398e-314
	DD	FLAT:__unwindtable$??$ForInRange@UCollisionAdjustChecker@@@CCullingManager@@QAEXABVVector3d@@MPAUCollisionAdjustChecker@@@Z
	DQ	00000000000000000r		; 0
	DQ	00000000000000000r		; 0
	DQ	00000000100000000r		; 2.122e-314
__unwindtable$??$ForInRange@UCollisionAdjustChecker@@@CCullingManager@@QAEXABVVector3d@@MPAUCollisionAdjustChecker@@@Z DD 0ffffffffH
	DD	FLAT:__unwindfunclet$??$ForInRange@UCollisionAdjustChecker@@@CCullingManager@@QAEXABVVector3d@@MPAUCollisionAdjustChecker@@@Z$0
xdata$x	ENDS
;	COMDAT xdata$x
xdata$x	SEGMENT
__ehfuncinfo$??$ForInRange@UCollisionChecker@@@CCullingManager@@QAEXABVVector3d@@MPAUCollisionChecker@@@Z DQ 00000000119930522r ; 2.33398e-314
	DD	FLAT:__unwindtable$??$ForInRange@UCollisionChecker@@@CCullingManager@@QAEXABVVector3d@@MPAUCollisionChecker@@@Z
	DQ	00000000000000000r		; 0
	DQ	00000000000000000r		; 0
	DQ	00000000100000000r		; 2.122e-314
__unwindtable$??$ForInRange@UCollisionChecker@@@CCullingManager@@QAEXABVVector3d@@MPAUCollisionChecker@@@Z DD 0ffffffffH
	DD	FLAT:__unwindfunclet$??$ForInRange@UCollisionChecker@@@CCullingManager@@QAEXABVVector3d@@MPAUCollisionChecker@@@Z$0
xdata$x	ENDS
;	COMDAT xdata$x
xdata$x	SEGMENT
__ehfuncinfo$??$insert@$0A@$0A@@?$_Tree@V?$_Tset_traits@V?$basic_string@DU?$char_traits@D@std@@V?$allocator@D@2@@std@@U?$less@V?$basic_string@DU?$char_traits@D@std@@V?$allocator@D@2@@std@@@2@V?$allocator@V?$basic_string@DU?$char_traits@D@std@@V?$allocator@D@2@@std@@@2@$0A@@std@@@std@@QAE?AU?$pair@V?$_Tree_const_iterator@V?$_Tree_val@U?$_Tree_simple_types@V?$basic_string@DU?$char_traits@D@std@@V?$allocator@D@2@@std@@@std@@@std@@@std@@_N@1@$$QAV?$basic_string@DU?$char_traits@D@std@@V?$allocator@D@2@@1@@Z DQ 00000000119930522r ; 2.33398e-314
	DD	FLAT:__unwindtable$??$insert@$0A@$0A@@?$_Tree@V?$_Tset_traits@V?$basic_string@DU?$char_traits@D@std@@V?$allocator@D@2@@std@@U?$less@V?$basic_string@DU?$char_traits@D@std@@V?$allocator@D@2@@std@@@2@V?$allocator@V?$basic_string@DU?$char_traits@D@std@@V?$allocator@D@2@@std@@@2@$0A@@std@@@std@@QAE?AU?$pair@V?$_Tree_const_iterator@V?$_Tree_val@U?$_Tree_simple_types@V?$basic_string@DU?$char_traits@D@std@@V?$allocator@D@2@@std@@@std@@@std@@@std@@_N@1@$$QAV?$basic_string@DU?$char_traits@D@std@@V?$allocator@D@2@@1@@Z
	DQ	00000000000000000r		; 0
	DQ	00000000000000000r		; 0
	DQ	00000000100000000r		; 2.122e-314
__unwindtable$??$insert@$0A@$0A@@?$_Tree@V?$_Tset_traits@V?$basic_string@DU?$char_traits@D@std@@V?$allocator@D@2@@std@@U?$less@V?$basic_string@DU?$char_traits@D@std@@V?$allocator@D@2@@std@@@2@V?$allocator@V?$basic_string@DU?$char_traits@D@std@@V?$allocator@D@2@@std@@@2@$0A@@std@@@std@@QAE?AU?$pair@V?$_Tree_const_iterator@V?$_Tree_val@U?$_Tree_simple_types@V?$basic_string@DU?$char_traits@D@std@@V?$allocator@D@2@@std@@@std@@@std@@@std@@_N@1@$$QAV?$basic_string@DU?$char_traits@D@std@@V?$allocator@D@2@@1@@Z DD 0ffffffffH
	DD	FLAT:__unwindfunclet$??$insert@$0A@$0A@@?$_Tree@V?$_Tset_traits@V?$basic_string@DU?$char_traits@D@std@@V?$allocator@D@2@@std@@U?$less@V?$basic_string@DU?$char_traits@D@std@@V?$allocator@D@2@@std@@@2@V?$allocator@V?$basic_string@DU?$char_traits@D@std@@V?$allocator@D@2@@std@@@2@$0A@@std@@@std@@QAE?AU?$pair@V?$_Tree_const_iterator@V?$_Tree_val@U?$_Tree_simple_types@V?$basic_string@DU?$char_traits@D@std@@V?$allocator@D@2@@std@@@std@@@std@@@std@@_N@1@$$QAV?$basic_string@DU?$char_traits@D@std@@V?$allocator@D@2@@1@@Z$2
xdata$x	ENDS
;	COMDAT xdata$x
xdata$x	SEGMENT
__ehfuncinfo$??$insert@U?$pair@KUSReserveTargetEffect@CPythonBackground@@@std@@$0A@@?$map@KUSReserveTargetEffect@CPythonBackground@@U?$less@K@std@@V?$allocator@U?$pair@$$CBKUSReserveTargetEffect@CPythonBackground@@@std@@@4@@std@@QAE?AU?$pair@V?$_Tree_iterator@V?$_Tree_val@U?$_Tree_simple_types@U?$pair@$$CBKUSReserveTargetEffect@CPythonBackground@@@std@@@std@@@std@@@std@@_N@1@$$QAU?$pair@KUSReserveTargetEffect@CPythonBackground@@@1@@Z DQ 00000000119930522r ; 2.33398e-314
	DD	FLAT:__unwindtable$??$insert@U?$pair@KUSReserveTargetEffect@CPythonBackground@@@std@@$0A@@?$map@KUSReserveTargetEffect@CPythonBackground@@U?$less@K@std@@V?$allocator@U?$pair@$$CBKUSReserveTargetEffect@CPythonBackground@@@std@@@4@@std@@QAE?AU?$pair@V?$_Tree_iterator@V?$_Tree_val@U?$_Tree_simple_types@U?$pair@$$CBKUSReserveTargetEffect@CPythonBackground@@@std@@@std@@@std@@@std@@_N@1@$$QAU?$pair@KUSReserveTargetEffect@CPythonBackground@@@1@@Z
	DQ	00000000000000000r		; 0
	DQ	00000000000000000r		; 0
	DQ	00000000100000000r		; 2.122e-314
__unwindtable$??$insert@U?$pair@KUSReserveTargetEffect@CPythonBackground@@@std@@$0A@@?$map@KUSReserveTargetEffect@CPythonBackground@@U?$less@K@std@@V?$allocator@U?$pair@$$CBKUSReserveTargetEffect@CPythonBackground@@@std@@@4@@std@@QAE?AU?$pair@V?$_Tree_iterator@V?$_Tree_val@U?$_Tree_simple_types@U?$pair@$$CBKUSReserveTargetEffect@CPythonBackground@@@std@@@std@@@std@@@std@@_N@1@$$QAU?$pair@KUSReserveTargetEffect@CPythonBackground@@@1@@Z DD 0ffffffffH
	DD	FLAT:__unwindfunclet$??$insert@U?$pair@KUSReserveTargetEffect@CPythonBackground@@@std@@$0A@@?$map@KUSReserveTargetEffect@CPythonBackground@@U?$less@K@std@@V?$allocator@U?$pair@$$CBKUSReserveTargetEffect@CPythonBackground@@@std@@@4@@std@@QAE?AU?$pair@V?$_Tree_iterator@V?$_Tree_val@U?$_Tree_simple_types@U?$pair@$$CBKUSReserveTargetEffect@CPythonBackground@@@std@@@std@@@std@@@std@@_N@1@$$QAU?$pair@KUSReserveTargetEffect@CPythonBackground@@@1@@Z$2
xdata$x	ENDS
;	COMDAT xdata$x
xdata$x	SEGMENT
__ehfuncinfo$??$_Emplace@ABH@?$_Tree@V?$_Tset_traits@HU?$less@H@std@@V?$allocator@H@2@$0A@@std@@@std@@IAE?AU?$pair@PAU?$_Tree_node@HPAX@std@@_N@1@ABH@Z DQ 00000000119930522r ; 2.33398e-314
	DD	FLAT:__unwindtable$??$_Emplace@ABH@?$_Tree@V?$_Tset_traits@HU?$less@H@std@@V?$allocator@H@2@$0A@@std@@@std@@IAE?AU?$pair@PAU?$_Tree_node@HPAX@std@@_N@1@ABH@Z
	DQ	00000000000000000r		; 0
	DQ	00000000000000000r		; 0
	DQ	00000000100000000r		; 2.122e-314
__unwindtable$??$_Emplace@ABH@?$_Tree@V?$_Tset_traits@HU?$less@H@std@@V?$allocator@H@2@$0A@@std@@@std@@IAE?AU?$pair@PAU?$_Tree_node@HPAX@std@@_N@1@ABH@Z DD 0ffffffffH
	DD	FLAT:__unwindfunclet$??$_Emplace@ABH@?$_Tree@V?$_Tset_traits@HU?$less@H@std@@V?$allocator@H@2@$0A@@std@@@std@@IAE?AU?$pair@PAU?$_Tree_node@HPAX@std@@_N@1@ABH@Z$2
xdata$x	ENDS
;	COMDAT xdata$x
xdata$x	SEGMENT
__ehfuncinfo$??$_Emplace@V?$basic_string@DU?$char_traits@D@std@@V?$allocator@D@2@@std@@@?$_Tree@V?$_Tset_traits@V?$basic_string@DU?$char_traits@D@std@@V?$allocator@D@2@@std@@U?$less@V?$basic_string@DU?$char_traits@D@std@@V?$allocator@D@2@@std@@@2@V?$allocator@V?$basic_string@DU?$char_traits@D@std@@V?$allocator@D@2@@std@@@2@$0A@@std@@@std@@IAE?AU?$pair@PAU?$_Tree_node@V?$basic_string@DU?$char_traits@D@std@@V?$allocator@D@2@@std@@PAX@std@@_N@1@$$QAV?$basic_string@DU?$char_traits@D@std@@V?$allocator@D@2@@1@@Z DQ 00000000119930522r ; 2.33398e-314
	DD	FLAT:__unwindtable$??$_Emplace@V?$basic_string@DU?$char_traits@D@std@@V?$allocator@D@2@@std@@@?$_Tree@V?$_Tset_traits@V?$basic_string@DU?$char_traits@D@std@@V?$allocator@D@2@@std@@U?$less@V?$basic_string@DU?$char_traits@D@std@@V?$allocator@D@2@@std@@@2@V?$allocator@V?$basic_string@DU?$char_traits@D@std@@V?$allocator@D@2@@std@@@2@$0A@@std@@@std@@IAE?AU?$pair@PAU?$_Tree_node@V?$basic_string@DU?$char_traits@D@std@@V?$allocator@D@2@@std@@PAX@std@@_N@1@$$QAV?$basic_string@DU?$char_traits@D@std@@V?$allocator@D@2@@1@@Z
	DQ	00000000000000000r		; 0
	DQ	00000000000000000r		; 0
	DQ	00000000100000000r		; 2.122e-314
__unwindtable$??$_Emplace@V?$basic_string@DU?$char_traits@D@std@@V?$allocator@D@2@@std@@@?$_Tree@V?$_Tset_traits@V?$basic_string@DU?$char_traits@D@std@@V?$allocator@D@2@@std@@U?$less@V?$basic_string@DU?$char_traits@D@std@@V?$allocator@D@2@@std@@@2@V?$allocator@V?$basic_string@DU?$char_traits@D@std@@V?$allocator@D@2@@std@@@2@$0A@@std@@@std@@IAE?AU?$pair@PAU?$_Tree_node@V?$basic_string@DU?$char_traits@D@std@@V?$allocator@D@2@@std@@PAX@std@@_N@1@$$QAV?$basic_string@DU?$char_traits@D@std@@V?$allocator@D@2@@1@@Z DD 0ffffffffH
	DD	FLAT:__unwindfunclet$??$_Emplace@V?$basic_string@DU?$char_traits@D@std@@V?$allocator@D@2@@std@@@?$_Tree@V?$_Tset_traits@V?$basic_string@DU?$char_traits@D@std@@V?$allocator@D@2@@std@@U?$less@V?$basic_string@DU?$char_traits@D@std@@V?$allocator@D@2@@std@@@2@V?$allocator@V?$basic_string@DU?$char_traits@D@std@@V?$allocator@D@2@@std@@@2@$0A@@std@@@std@@IAE?AU?$pair@PAU?$_Tree_node@V?$basic_string@DU?$char_traits@D@std@@V?$allocator@D@2@@std@@PAX@std@@_N@1@$$QAV?$basic_string@DU?$char_traits@D@std@@V?$allocator@D@2@@1@@Z$2
xdata$x	ENDS
;	COMDAT xdata$x
xdata$x	SEGMENT
__ehfuncinfo$??$emplace@U?$pair@KUSReserveTargetEffect@CPythonBackground@@@std@@@?$_Tree@V?$_Tmap_traits@KUSReserveTargetEffect@CPythonBackground@@U?$less@K@std@@V?$allocator@U?$pair@$$CBKUSReserveTargetEffect@CPythonBackground@@@std@@@4@$0A@@std@@@std@@QAE?AU?$pair@V?$_Tree_iterator@V?$_Tree_val@U?$_Tree_simple_types@U?$pair@$$CBKUSReserveTargetEffect@CPythonBackground@@@std@@@std@@@std@@@std@@_N@1@$$QAU?$pair@KUSReserveTargetEffect@CPythonBackground@@@1@@Z DQ 00000000119930522r ; 2.33398e-314
	DD	FLAT:__unwindtable$??$emplace@U?$pair@KUSReserveTargetEffect@CPythonBackground@@@std@@@?$_Tree@V?$_Tmap_traits@KUSReserveTargetEffect@CPythonBackground@@U?$less@K@std@@V?$allocator@U?$pair@$$CBKUSReserveTargetEffect@CPythonBackground@@@std@@@4@$0A@@std@@@std@@QAE?AU?$pair@V?$_Tree_iterator@V?$_Tree_val@U?$_Tree_simple_types@U?$pair@$$CBKUSReserveTargetEffect@CPythonBackground@@@std@@@std@@@std@@@std@@_N@1@$$QAU?$pair@KUSReserveTargetEffect@CPythonBackground@@@1@@Z
	DQ	00000000000000000r		; 0
	DQ	00000000000000000r		; 0
	DQ	00000000100000000r		; 2.122e-314
__unwindtable$??$emplace@U?$pair@KUSReserveTargetEffect@CPythonBackground@@@std@@@?$_Tree@V?$_Tmap_traits@KUSReserveTargetEffect@CPythonBackground@@U?$less@K@std@@V?$allocator@U?$pair@$$CBKUSReserveTargetEffect@CPythonBackground@@@std@@@4@$0A@@std@@@std@@QAE?AU?$pair@V?$_Tree_iterator@V?$_Tree_val@U?$_Tree_simple_types@U?$pair@$$CBKUSReserveTargetEffect@CPythonBackground@@@std@@@std@@@std@@@std@@_N@1@$$QAU?$pair@KUSReserveTargetEffect@CPythonBackground@@@1@@Z DD 0ffffffffH
	DD	FLAT:__unwindfunclet$??$emplace@U?$pair@KUSReserveTargetEffect@CPythonBackground@@@std@@@?$_Tree@V?$_Tmap_traits@KUSReserveTargetEffect@CPythonBackground@@U?$less@K@std@@V?$allocator@U?$pair@$$CBKUSReserveTargetEffect@CPythonBackground@@@std@@@4@$0A@@std@@@std@@QAE?AU?$pair@V?$_Tree_iterator@V?$_Tree_val@U?$_Tree_simple_types@U?$pair@$$CBKUSReserveTargetEffect@CPythonBackground@@@std@@@std@@@std@@@std@@_N@1@$$QAU?$pair@KUSReserveTargetEffect@CPythonBackground@@@1@@Z$2
xdata$x	ENDS
;	COMDAT xdata$x
xdata$x	SEGMENT
__ehfuncinfo$??$?0ABH@?$_Tree_temp_node@V?$allocator@U?$_Tree_node@HPAX@std@@@std@@@std@@QAE@AAV?$allocator@U?$_Tree_node@HPAX@std@@@1@PAU?$_Tree_node@HPAX@1@ABH@Z DQ 00000000119930522r ; 2.33398e-314
	DD	FLAT:__unwindtable$??$?0ABH@?$_Tree_temp_node@V?$allocator@U?$_Tree_node@HPAX@std@@@std@@@std@@QAE@AAV?$allocator@U?$_Tree_node@HPAX@std@@@1@PAU?$_Tree_node@HPAX@1@ABH@Z
	DQ	00000000000000000r		; 0
	DQ	00000000000000000r		; 0
	DQ	00000000100000000r		; 2.122e-314
__unwindtable$??$?0ABH@?$_Tree_temp_node@V?$allocator@U?$_Tree_node@HPAX@std@@@std@@@std@@QAE@AAV?$allocator@U?$_Tree_node@HPAX@std@@@1@PAU?$_Tree_node@HPAX@1@ABH@Z DD 0ffffffffH
	DD	FLAT:__unwindfunclet$??$?0ABH@?$_Tree_temp_node@V?$allocator@U?$_Tree_node@HPAX@std@@@std@@@std@@QAE@AAV?$allocator@U?$_Tree_node@HPAX@std@@@1@PAU?$_Tree_node@HPAX@1@ABH@Z$1
xdata$x	ENDS
;	COMDAT xdata$x
xdata$x	SEGMENT
__ehfuncinfo$??$?0V?$basic_string@DU?$char_traits@D@std@@V?$allocator@D@2@@std@@@?$_Tree_temp_node@V?$allocator@U?$_Tree_node@V?$basic_string@DU?$char_traits@D@std@@V?$allocator@D@2@@std@@PAX@std@@@std@@@std@@QAE@AAV?$allocator@U?$_Tree_node@V?$basic_string@DU?$char_traits@D@std@@V?$allocator@D@2@@std@@PAX@std@@@1@PAU?$_Tree_node@V?$basic_string@DU?$char_traits@D@std@@V?$allocator@D@2@@std@@PAX@1@$$QAV?$basic_string@DU?$char_traits@D@std@@V?$allocator@D@2@@1@@Z DQ 00000000119930522r ; 2.33398e-314
	DD	FLAT:__unwindtable$??$?0V?$basic_string@DU?$char_traits@D@std@@V?$allocator@D@2@@std@@@?$_Tree_temp_node@V?$allocator@U?$_Tree_node@V?$basic_string@DU?$char_traits@D@std@@V?$allocator@D@2@@std@@PAX@std@@@std@@@std@@QAE@AAV?$allocator@U?$_Tree_node@V?$basic_string@DU?$char_traits@D@std@@V?$allocator@D@2@@std@@PAX@std@@@1@PAU?$_Tree_node@V?$basic_string@DU?$char_traits@D@std@@V?$allocator@D@2@@std@@PAX@1@$$QAV?$basic_string@DU?$char_traits@D@std@@V?$allocator@D@2@@1@@Z
	DQ	00000000000000000r		; 0
	DQ	00000000000000000r		; 0
	DQ	00000000100000000r		; 2.122e-314
__unwindtable$??$?0V?$basic_string@DU?$char_traits@D@std@@V?$allocator@D@2@@std@@@?$_Tree_temp_node@V?$allocator@U?$_Tree_node@V?$basic_string@DU?$char_traits@D@std@@V?$allocator@D@2@@std@@PAX@std@@@std@@@std@@QAE@AAV?$allocator@U?$_Tree_node@V?$basic_string@DU?$char_traits@D@std@@V?$allocator@D@2@@std@@PAX@std@@@1@PAU?$_Tree_node@V?$basic_string@DU?$char_traits@D@std@@V?$allocator@D@2@@std@@PAX@1@$$QAV?$basic_string@DU?$char_traits@D@std@@V?$allocator@D@2@@1@@Z DD 0ffffffffH
	DD	FLAT:__unwindfunclet$??$?0V?$basic_string@DU?$char_traits@D@std@@V?$allocator@D@2@@std@@@?$_Tree_temp_node@V?$allocator@U?$_Tree_node@V?$basic_string@DU?$char_traits@D@std@@V?$allocator@D@2@@std@@PAX@std@@@std@@@std@@QAE@AAV?$allocator@U?$_Tree_node@V?$basic_string@DU?$char_traits@D@std@@V?$allocator@D@2@@std@@PAX@std@@@1@PAU?$_Tree_node@V?$basic_string@DU?$char_traits@D@std@@V?$allocator@D@2@@std@@PAX@1@$$QAV?$basic_string@DU?$char_traits@D@std@@V?$allocator@D@2@@1@@Z$1
xdata$x	ENDS
;	COMDAT xdata$x
xdata$x	SEGMENT
__ehfuncinfo$??$_Emplace@U?$pair@KUSReserveTargetEffect@CPythonBackground@@@std@@@?$_Tree@V?$_Tmap_traits@KUSReserveTargetEffect@CPythonBackground@@U?$less@K@std@@V?$allocator@U?$pair@$$CBKUSReserveTargetEffect@CPythonBackground@@@std@@@4@$0A@@std@@@std@@IAE?AU?$pair@PAU?$_Tree_node@U?$pair@$$CBKUSReserveTargetEffect@CPythonBackground@@@std@@PAX@std@@_N@1@$$QAU?$pair@KUSReserveTargetEffect@CPythonBackground@@@1@@Z DQ 00000000119930522r ; 2.33398e-314
	DD	FLAT:__unwindtable$??$_Emplace@U?$pair@KUSReserveTargetEffect@CPythonBackground@@@std@@@?$_Tree@V?$_Tmap_traits@KUSReserveTargetEffect@CPythonBackground@@U?$less@K@std@@V?$allocator@U?$pair@$$CBKUSReserveTargetEffect@CPythonBackground@@@std@@@4@$0A@@std@@@std@@IAE?AU?$pair@PAU?$_Tree_node@U?$pair@$$CBKUSReserveTargetEffect@CPythonBackground@@@std@@PAX@std@@_N@1@$$QAU?$pair@KUSReserveTargetEffect@CPythonBackground@@@1@@Z
	DQ	00000000000000000r		; 0
	DQ	00000000000000000r		; 0
	DQ	00000000100000000r		; 2.122e-314
__unwindtable$??$_Emplace@U?$pair@KUSReserveTargetEffect@CPythonBackground@@@std@@@?$_Tree@V?$_Tmap_traits@KUSReserveTargetEffect@CPythonBackground@@U?$less@K@std@@V?$allocator@U?$pair@$$CBKUSReserveTargetEffect@CPythonBackground@@@std@@@4@$0A@@std@@@std@@IAE?AU?$pair@PAU?$_Tree_node@U?$pair@$$CBKUSReserveTargetEffect@CPythonBackground@@@std@@PAX@std@@_N@1@$$QAU?$pair@KUSReserveTargetEffect@CPythonBackground@@@1@@Z DD 0ffffffffH
	DD	FLAT:__unwindfunclet$??$_Emplace@U?$pair@KUSReserveTargetEffect@CPythonBackground@@@std@@@?$_Tree@V?$_Tmap_traits@KUSReserveTargetEffect@CPythonBackground@@U?$less@K@std@@V?$allocator@U?$pair@$$CBKUSReserveTargetEffect@CPythonBackground@@@std@@@4@$0A@@std@@@std@@IAE?AU?$pair@PAU?$_Tree_node@U?$pair@$$CBKUSReserveTargetEffect@CPythonBackground@@@std@@PAX@std@@_N@1@$$QAU?$pair@KUSReserveTargetEffect@CPythonBackground@@@1@@Z$2
xdata$x	ENDS
;	COMDAT xdata$x
xdata$x	SEGMENT
__ehfuncinfo$??$?0U?$pair@KUSReserveTargetEffect@CPythonBackground@@@std@@@?$_Tree_temp_node@V?$allocator@U?$_Tree_node@U?$pair@$$CBKUSReserveTargetEffect@CPythonBackground@@@std@@PAX@std@@@std@@@std@@QAE@AAV?$allocator@U?$_Tree_node@U?$pair@$$CBKUSReserveTargetEffect@CPythonBackground@@@std@@PAX@std@@@1@PAU?$_Tree_node@U?$pair@$$CBKUSReserveTargetEffect@CPythonBackground@@@std@@PAX@1@$$QAU?$pair@KUSReserveTargetEffect@CPythonBackground@@@1@@Z DQ 00000000119930522r ; 2.33398e-314
	DD	FLAT:__unwindtable$??$?0U?$pair@KUSReserveTargetEffect@CPythonBackground@@@std@@@?$_Tree_temp_node@V?$allocator@U?$_Tree_node@U?$pair@$$CBKUSReserveTargetEffect@CPythonBackground@@@std@@PAX@std@@@std@@@std@@QAE@AAV?$allocator@U?$_Tree_node@U?$pair@$$CBKUSReserveTargetEffect@CPythonBackground@@@std@@PAX@std@@@1@PAU?$_Tree_node@U?$pair@$$CBKUSReserveTargetEffect@CPythonBackground@@@std@@PAX@1@$$QAU?$pair@KUSReserveTargetEffect@CPythonBackground@@@1@@Z
	DQ	00000000000000000r		; 0
	DQ	00000000000000000r		; 0
	DQ	00000000100000000r		; 2.122e-314
__unwindtable$??$?0U?$pair@KUSReserveTargetEffect@CPythonBackground@@@std@@@?$_Tree_temp_node@V?$allocator@U?$_Tree_node@U?$pair@$$CBKUSReserveTargetEffect@CPythonBackground@@@std@@PAX@std@@@std@@@std@@QAE@AAV?$allocator@U?$_Tree_node@U?$pair@$$CBKUSReserveTargetEffect@CPythonBackground@@@std@@PAX@std@@@1@PAU?$_Tree_node@U?$pair@$$CBKUSReserveTargetEffect@CPythonBackground@@@std@@PAX@1@$$QAU?$pair@KUSReserveTargetEffect@CPythonBackground@@@1@@Z DD 0ffffffffH
	DD	FLAT:__unwindfunclet$??$?0U?$pair@KUSReserveTargetEffect@CPythonBackground@@@std@@@?$_Tree_temp_node@V?$allocator@U?$_Tree_node@U?$pair@$$CBKUSReserveTargetEffect@CPythonBackground@@@std@@PAX@std@@@std@@@std@@QAE@AAV?$allocator@U?$_Tree_node@U?$pair@$$CBKUSReserveTargetEffect@CPythonBackground@@@std@@PAX@std@@@1@PAU?$_Tree_node@U?$pair@$$CBKUSReserveTargetEffect@CPythonBackground@@@std@@PAX@1@$$QAU?$pair@KUSReserveTargetEffect@CPythonBackground@@@1@@Z$1
xdata$x	ENDS
;	COMDAT xdata$x
xdata$x	SEGMENT
__ehfuncinfo$??$_Copy_nodes@$0A@@?$_Tree@V?$_Tset_traits@HU?$less@H@std@@V?$allocator@H@2@$0A@@std@@@std@@IAEPAU?$_Tree_node@HPAX@1@PAU21@0@Z DQ 00000000219930522r ; 4.45598e-314
	DD	FLAT:__unwindtable$??$_Copy_nodes@$0A@@?$_Tree@V?$_Tset_traits@HU?$less@H@std@@V?$allocator@H@2@$0A@@std@@@std@@IAEPAU?$_Tree_node@HPAX@1@PAU21@0@Z
	DQ	00000000000000000r		; 0
	DQ	00000000000000000r		; 0
	DQ	00000000100000000r		; 2.122e-314
__unwindtable$??$_Copy_nodes@$0A@@?$_Tree@V?$_Tset_traits@HU?$less@H@std@@V?$allocator@H@2@$0A@@std@@@std@@IAEPAU?$_Tree_node@HPAX@1@PAU21@0@Z DD 0ffffffffH
	DD	FLAT:__unwindfunclet$??$_Copy_nodes@$0A@@?$_Tree@V?$_Tset_traits@HU?$less@H@std@@V?$allocator@H@2@$0A@@std@@@std@@IAEPAU?$_Tree_node@HPAX@1@PAU21@0@Z$1
	DD	0ffffffffH
	DD	FLAT:__unwindfunclet$??$_Copy_nodes@$0A@@?$_Tree@V?$_Tset_traits@HU?$less@H@std@@V?$allocator@H@2@$0A@@std@@@std@@IAEPAU?$_Tree_node@HPAX@1@PAU21@0@Z$0
xdata$x	ENDS
;	COMDAT xdata$x
xdata$x	SEGMENT
__ehfuncinfo$??0?$_Tree_temp_node_alloc@V?$allocator@U?$_Tree_node@V?$basic_string@DU?$char_traits@D@std@@V?$allocator@D@2@@std@@PAX@std@@@std@@@std@@QAE@AAV?$allocator@U?$_Tree_node@V?$basic_string@DU?$char_traits@D@std@@V?$allocator@D@2@@std@@PAX@std@@@1@@Z DQ 00000000119930522r ; 2.33398e-314
	DD	FLAT:__unwindtable$??0?$_Tree_temp_node_alloc@V?$allocator@U?$_Tree_node@V?$basic_string@DU?$char_traits@D@std@@V?$allocator@D@2@@std@@PAX@std@@@std@@@std@@QAE@AAV?$allocator@U?$_Tree_node@V?$basic_string@DU?$char_traits@D@std@@V?$allocator@D@2@@std@@PAX@std@@@1@@Z
	DQ	00000000000000000r		; 0
	DQ	00000000000000000r		; 0
	DQ	00000000100000000r		; 2.122e-314
__unwindtable$??0?$_Tree_temp_node_alloc@V?$allocator@U?$_Tree_node@V?$basic_string@DU?$char_traits@D@std@@V?$allocator@D@2@@std@@PAX@std@@@std@@@std@@QAE@AAV?$allocator@U?$_Tree_node@V?$basic_string@DU?$char_traits@D@std@@V?$allocator@D@2@@std@@PAX@std@@@1@@Z DD 0ffffffffH
	DD	FLAT:__unwindfunclet$??0?$_Tree_temp_node_alloc@V?$allocator@U?$_Tree_node@V?$basic_string@DU?$char_traits@D@std@@V?$allocator@D@2@@std@@PAX@std@@@std@@@std@@QAE@AAV?$allocator@U?$_Tree_node@V?$basic_string@DU?$char_traits@D@std@@V?$allocator@D@2@@std@@PAX@std@@@1@@Z$0
xdata$x	ENDS
;	COMDAT xdata$x
xdata$x	SEGMENT
__ehfuncinfo$??0?$_Tree_temp_node_alloc@V?$allocator@U?$_Tree_node@HPAX@std@@@std@@@std@@QAE@AAV?$allocator@U?$_Tree_node@HPAX@std@@@1@@Z DQ 00000000119930522r ; 2.33398e-314
	DD	FLAT:__unwindtable$??0?$_Tree_temp_node_alloc@V?$allocator@U?$_Tree_node@HPAX@std@@@std@@@std@@QAE@AAV?$allocator@U?$_Tree_node@HPAX@std@@@1@@Z
	DQ	00000000000000000r		; 0
	DQ	00000000000000000r		; 0
	DQ	00000000100000000r		; 2.122e-314
__unwindtable$??0?$_Tree_temp_node_alloc@V?$allocator@U?$_Tree_node@HPAX@std@@@std@@@std@@QAE@AAV?$allocator@U?$_Tree_node@HPAX@std@@@1@@Z DD 0ffffffffH
	DD	FLAT:__unwindfunclet$??0?$_Tree_temp_node_alloc@V?$allocator@U?$_Tree_node@HPAX@std@@@std@@@std@@QAE@AAV?$allocator@U?$_Tree_node@HPAX@std@@@1@@Z$0
xdata$x	ENDS
;	COMDAT xdata$x
xdata$x	SEGMENT
__ehfuncinfo$??$_Copy_or_move@$0A@H@?$_Tree@V?$_Tset_traits@HU?$less@H@std@@V?$allocator@H@2@$0A@@std@@@std@@IAEPAU?$_Tree_node@HPAX@1@AAH@Z DQ 00000000119930522r ; 2.33398e-314
	DD	FLAT:__unwindtable$??$_Copy_or_move@$0A@H@?$_Tree@V?$_Tset_traits@HU?$less@H@std@@V?$allocator@H@2@$0A@@std@@@std@@IAEPAU?$_Tree_node@HPAX@1@AAH@Z
	DQ	00000000000000000r		; 0
	DQ	00000000000000000r		; 0
	DQ	00000000100000000r		; 2.122e-314
__unwindtable$??$_Copy_or_move@$0A@H@?$_Tree@V?$_Tset_traits@HU?$less@H@std@@V?$allocator@H@2@$0A@@std@@@std@@IAEPAU?$_Tree_node@HPAX@1@AAH@Z DD 0ffffffffH
	DD	FLAT:__unwindfunclet$??$_Copy_or_move@$0A@H@?$_Tree@V?$_Tset_traits@HU?$less@H@std@@V?$allocator@H@2@$0A@@std@@@std@@IAEPAU?$_Tree_node@HPAX@1@AAH@Z$0
xdata$x	ENDS
;	COMDAT xdata$x
xdata$x	SEGMENT
__ehfuncinfo$??0?$_Tree_temp_node_alloc@V?$allocator@U?$_Tree_node@U?$pair@$$CBKUSReserveTargetEffect@CPythonBackground@@@std@@PAX@std@@@std@@@std@@QAE@AAV?$allocator@U?$_Tree_node@U?$pair@$$CBKUSReserveTargetEffect@CPythonBackground@@@std@@PAX@std@@@1@@Z DQ 00000000119930522r ; 2.33398e-314
	DD	FLAT:__unwindtable$??0?$_Tree_temp_node_alloc@V?$allocator@U?$_Tree_node@U?$pair@$$CBKUSReserveTargetEffect@CPythonBackground@@@std@@PAX@std@@@std@@@std@@QAE@AAV?$allocator@U?$_Tree_node@U?$pair@$$CBKUSReserveTargetEffect@CPythonBackground@@@std@@PAX@std@@@1@@Z
	DQ	00000000000000000r		; 0
	DQ	00000000000000000r		; 0
	DQ	00000000100000000r		; 2.122e-314
__unwindtable$??0?$_Tree_temp_node_alloc@V?$allocator@U?$_Tree_node@U?$pair@$$CBKUSReserveTargetEffect@CPythonBackground@@@std@@PAX@std@@@std@@@std@@QAE@AAV?$allocator@U?$_Tree_node@U?$pair@$$CBKUSReserveTargetEffect@CPythonBackground@@@std@@PAX@std@@@1@@Z DD 0ffffffffH
	DD	FLAT:__unwindfunclet$??0?$_Tree_temp_node_alloc@V?$allocator@U?$_Tree_node@U?$pair@$$CBKUSReserveTargetEffect@CPythonBackground@@@std@@PAX@std@@@std@@@std@@QAE@AAV?$allocator@U?$_Tree_node@U?$pair@$$CBKUSReserveTargetEffect@CPythonBackground@@@std@@PAX@std@@@1@@Z$0
xdata$x	ENDS
;	COMDAT xdata$x
xdata$x	SEGMENT
__ehfuncinfo$??$_Buynode@AAH@?$_Tree@V?$_Tset_traits@HU?$less@H@std@@V?$allocator@H@2@$0A@@std@@@std@@IAEPAU?$_Tree_node@HPAX@1@AAH@Z DQ 00000000119930522r ; 2.33398e-314
	DD	FLAT:__unwindtable$??$_Buynode@AAH@?$_Tree@V?$_Tset_traits@HU?$less@H@std@@V?$allocator@H@2@$0A@@std@@@std@@IAEPAU?$_Tree_node@HPAX@1@AAH@Z
	DQ	00000000000000000r		; 0
	DQ	00000000000000000r		; 0
	DQ	00000000100000000r		; 2.122e-314
__unwindtable$??$_Buynode@AAH@?$_Tree@V?$_Tset_traits@HU?$less@H@std@@V?$allocator@H@2@$0A@@std@@@std@@IAEPAU?$_Tree_node@HPAX@1@AAH@Z DD 0ffffffffH
	DD	FLAT:__unwindfunclet$??$_Buynode@AAH@?$_Tree@V?$_Tset_traits@HU?$less@H@std@@V?$allocator@H@2@$0A@@std@@@std@@IAEPAU?$_Tree_node@HPAX@1@AAH@Z$0
xdata$x	ENDS
;	COMDAT xdata$x
xdata$x	SEGMENT
__ehfuncinfo$??$_Buynode@V?$allocator@U?$_Tree_node@HPAX@std@@@std@@AAH@?$_Tree_node@HPAX@std@@SAPAU01@AAV?$allocator@U?$_Tree_node@HPAX@std@@@1@PAU01@AAH@Z DQ 00000000119930522r ; 2.33398e-314
	DD	FLAT:__unwindtable$??$_Buynode@V?$allocator@U?$_Tree_node@HPAX@std@@@std@@AAH@?$_Tree_node@HPAX@std@@SAPAU01@AAV?$allocator@U?$_Tree_node@HPAX@std@@@1@PAU01@AAH@Z
	DQ	00000000000000000r		; 0
	DQ	00000000000000000r		; 0
	DQ	00000000100000000r		; 2.122e-314
__unwindtable$??$_Buynode@V?$allocator@U?$_Tree_node@HPAX@std@@@std@@AAH@?$_Tree_node@HPAX@std@@SAPAU01@AAV?$allocator@U?$_Tree_node@HPAX@std@@@1@PAU01@AAH@Z DD 0ffffffffH
	DD	FLAT:__unwindfunclet$??$_Buynode@V?$allocator@U?$_Tree_node@HPAX@std@@@std@@AAH@?$_Tree_node@HPAX@std@@SAPAU01@AAV?$allocator@U?$_Tree_node@HPAX@std@@@1@PAU01@AAH@Z$0
?g_strEffectName$initializer$@@3P6AXXZA DD FLAT:??__Eg_strEffectName@@YAXXZ ; g_strEffectName$initializer$
; Function compile flags: /Ogtp
; File C:\Anka2Project\Anka2Project\Source\Binary\source\UserInterface\PythonBackground.cpp
; File C:\Anka2Project\Anka2Project\Source\Binary\extern\include\d3dx8math.inl
; File C:\Anka2Project\Anka2Project\Source\Binary\source\UserInterface\PythonBackground.cpp
; File C:\Anka2Project\Anka2Project\Source\Binary\extern\include\d3dx8math.inl
; File C:\Anka2Project\Anka2Project\Source\Binary\source\UserInterface\PythonBackground.cpp
; File C:\Anka2Project\Anka2Project\Source\Binary\extern\include\d3dx8math.inl
; File C:\Anka2Project\Anka2Project\Source\Binary\source\UserInterface\PythonBackground.cpp
; File C:\Anka2Project\Anka2Project\Source\Binary\extern\include\d3dx8math.inl
; File C:\Anka2Project\Anka2Project\Source\Binary\source\UserInterface\PythonBackground.cpp
; File C:\Anka2Project\Anka2Project\Source\Binary\source\eterBase\Singleton.h
; File C:\Program Files\Microsoft Visual Studio\2022\Community\VC\Tools\MSVC\14.44.35207\include\xmemory
; File C:\Program Files\Microsoft Visual Studio\2022\Community\VC\Tools\MSVC\14.44.35207\include\xtree
; File C:\Program Files\Microsoft Visual Studio\2022\Community\VC\Tools\MSVC\14.44.35207\include\xmemory
; File C:\Anka2Project\Anka2Project\Source\Binary\source\UserInterface\PythonBackground.cpp
; File C:\Program Files\Microsoft Visual Studio\2022\Community\VC\Tools\MSVC\14.44.35207\include\xmemory
; File C:\Anka2Project\Anka2Project\Source\Binary\source\UserInterface\PythonBackground.cpp
; File C:\Program Files\Microsoft Visual Studio\2022\Community\VC\Tools\MSVC\14.44.35207\include\xtree
; File C:\Anka2Project\Anka2Project\Source\Binary\source\UserInterface\PythonBackground.cpp
; File C:\Anka2Project\Anka2Project\Source\Binary\source\eterlib\CullingManager.h
; File C:\Anka2Project\Anka2Project\Source\Binary\source\SphereLib\vector.h
; File C:\Anka2Project\Anka2Project\Source\Binary\source\eterlib\CullingManager.h
; File C:\Anka2Project\Anka2Project\Source\Binary\source\UserInterface\PythonBackground.cpp
; File C:\Anka2Project\Anka2Project\Source\Binary\source\eterlib\CullingManager.h
; File C:\Anka2Project\Anka2Project\Source\Binary\source\UserInterface\PythonBackground.cpp
; File C:\Program Files\Microsoft Visual Studio\2022\Community\VC\Tools\MSVC\14.44.35207\include\xtree
; File C:\Anka2Project\Anka2Project\Source\Binary\source\UserInterface\PythonBackground.cpp
; File C:\Program Files\Microsoft Visual Studio\2022\Community\VC\Tools\MSVC\14.44.35207\include\xtree
; File C:\Anka2Project\Anka2Project\Source\Binary\source\UserInterface\PythonBackground.cpp
; File C:\Program Files\Microsoft Visual Studio\2022\Community\VC\Tools\MSVC\14.44.35207\include\xtree
; File C:\Anka2Project\Anka2Project\Source\Binary\source\UserInterface\PythonBackground.cpp
; File C:\Program Files\Microsoft Visual Studio\2022\Community\VC\Tools\MSVC\14.44.35207\include\xtree
; File C:\Program Files\Microsoft Visual Studio\2022\Community\VC\Tools\MSVC\14.44.35207\include\xmemory
; File C:\Program Files\Microsoft Visual Studio\2022\Community\VC\Tools\MSVC\14.44.35207\include\xtree
; File C:\Anka2Project\Anka2Project\Source\Binary\source\UserInterface\PythonBackground.cpp
; File C:\Anka2Project\Anka2Project\Source\Binary\source\eterBase\Singleton.h
; File C:\Anka2Project\Anka2Project\Source\Binary\source\UserInterface\PythonBackground.cpp
; File C:\Program Files\Microsoft Visual Studio\2022\Community\VC\Tools\MSVC\14.44.35207\include\xstring
; File C:\Anka2Project\Anka2Project\Source\Binary\source\UserInterface\PythonBackground.cpp
; File C:\Program Files\Microsoft Visual Studio\2022\Community\VC\Tools\MSVC\14.44.35207\include\xstring
; File C:\Anka2Project\Anka2Project\Source\Binary\source\UserInterface\PythonBackground.cpp
; File C:\Program Files\Microsoft Visual Studio\2022\Community\VC\Tools\MSVC\14.44.35207\include\xtree
; File C:\Anka2Project\Anka2Project\Source\Binary\source\UserInterface\PythonBackground.cpp
; File C:\Program Files\Microsoft Visual Studio\2022\Community\VC\Tools\MSVC\14.44.35207\include\xtree
; File C:\Anka2Project\Anka2Project\Source\Binary\source\UserInterface\PythonBackground.cpp
; File C:\Program Files\Microsoft Visual Studio\2022\Community\VC\Tools\MSVC\14.44.35207\include\xtree
; File C:\Anka2Project\Anka2Project\Source\Binary\source\UserInterface\PythonBackground.cpp
; File C:\Program Files\Microsoft Visual Studio\2022\Community\VC\Tools\MSVC\14.44.35207\include\xstring
; File C:\Anka2Project\Anka2Project\Source\Binary\source\UserInterface\PythonBackground.cpp
; File C:\Program Files\Microsoft Visual Studio\2022\Community\VC\Tools\MSVC\14.44.35207\include\xstring
; File C:\Anka2Project\Anka2Project\Source\Binary\source\UserInterface\PythonBackground.cpp
; File C:\Program Files\Microsoft Visual Studio\2022\Community\VC\Tools\MSVC\14.44.35207\include\xtree
; File C:\Anka2Project\Anka2Project\Source\Binary\source\UserInterface\PythonBackground.cpp
; File C:\Program Files\Microsoft Visual Studio\2022\Community\VC\Tools\MSVC\14.44.35207\include\xtree
; File C:\Anka2Project\Anka2Project\Source\Binary\source\UserInterface\PythonBackground.cpp
;	COMDAT ?Update@CPythonBackground@@QAEXMMM@Z
_TEXT	SEGMENT
_ily$1$ = -96						; size = 4
_rkMap$1$ = -92						; size = 4
_ilx$1$ = -88						; size = 4
_kGetPortalID$61 = -84					; size = 16
_dwID$1$ = -68						; size = 4
_fCenterY$GSCopy$1$ = -68				; size = 4
_fHeight$62 = -64					; size = 4
tv349 = -64						; size = 4
_dwTargetID$1$ = -64					; size = 4
_fCenterX$GSCopy$1$ = -64				; size = 4
_itor$63 = -60						; size = 4
_itor$64 = -60						; size = 4
tv1749 = -60						; size = 4
_fCenterZ$GSCopy$1$ = -60				; size = 4
_toTop$65 = -56						; size = 12
_aVector3d$66 = -44					; size = 12
_kPixelPosition$67 = -44				; size = 12
$T1 = -32						; size = 12
_r$68 = -32						; size = 12
__$ArrayPad$ = -20					; size = 4
__$EHRec$ = -12						; size = 12
?Update@CPythonBackground@@QAEXMMM@Z PROC		; CPythonBackground::Update, COMDAT
; _this$ = ecx
; _fCenterX$ = xmm1s
; _fCenterY$ = xmm2s
; _fCenterZ$ = xmm3s

; 340  : {

  00000	53		 push	 ebx
  00001	8b dc		 mov	 ebx, esp
  00003	83 ec 08	 sub	 esp, 8
  00006	83 e4 f8	 and	 esp, -8			; fffffff8H
  00009	83 c4 04	 add	 esp, 4
  0000c	55		 push	 ebp
  0000d	8b 6b 04	 mov	 ebp, DWORD PTR [ebx+4]
  00010	89 6c 24 04	 mov	 DWORD PTR [esp+4], ebp
  00014	8b ec		 mov	 ebp, esp
  00016	6a ff		 push	 -1
  00018	68 00 00 00 00	 push	 __ehhandler$?Update@CPythonBackground@@QAEXMMM@Z
  0001d	64 a1 00 00 00
	00		 mov	 eax, DWORD PTR fs:0
  00023	50		 push	 eax
  00024	53		 push	 ebx
  00025	83 ec 50	 sub	 esp, 80			; 00000050H
  00028	a1 00 00 00 00	 mov	 eax, DWORD PTR ___security_cookie
  0002d	33 c5		 xor	 eax, ebp
  0002f	89 45 ec	 mov	 DWORD PTR __$ArrayPad$[ebp], eax
  00032	56		 push	 esi
  00033	57		 push	 edi
  00034	50		 push	 eax
  00035	8d 45 f4	 lea	 eax, DWORD PTR __$EHRec$[ebp]
  00038	64 a3 00 00 00
	00		 mov	 DWORD PTR fs:0, eax
  0003e	f3 0f 11 5d c4	 movss	 DWORD PTR _fCenterZ$GSCopy$1$[ebp], xmm3
  00043	f3 0f 11 55 bc	 movss	 DWORD PTR _fCenterY$GSCopy$1$[ebp], xmm2
  00048	f3 0f 11 4d c0	 movss	 DWORD PTR _fCenterX$GSCopy$1$[ebp], xmm1
  0004d	8b f9		 mov	 edi, ecx

; 341  : 	if (!IsMapReady())

  0004f	e8 00 00 00 00	 call	 ?IsMapReady@CMapManager@@QAE_NXZ ; CMapManager::IsMapReady
  00054	84 c0		 test	 al, al
  00056	0f 84 0d 04 00
	00		 je	 $LN9@Update

; 342  : 		return;
; 343  : 	UpdateMap(fCenterX, fCenterY, fCenterZ);

  0005c	f3 0f 10 45 c4	 movss	 xmm0, DWORD PTR _fCenterZ$GSCopy$1$[ebp]
  00061	83 ec 0c	 sub	 esp, 12			; 0000000cH
  00064	8b cf		 mov	 ecx, edi
  00066	f3 0f 11 44 24
	08		 movss	 DWORD PTR [esp+8], xmm0
  0006c	f3 0f 10 45 bc	 movss	 xmm0, DWORD PTR _fCenterY$GSCopy$1$[ebp]
  00071	f3 0f 11 44 24
	04		 movss	 DWORD PTR [esp+4], xmm0
  00077	f3 0f 10 45 c0	 movss	 xmm0, DWORD PTR _fCenterX$GSCopy$1$[ebp]
  0007c	f3 0f 11 04 24	 movss	 DWORD PTR [esp], xmm0
  00081	e8 00 00 00 00	 call	 ?UpdateMap@CMapManager@@QAE_NMMM@Z ; CMapManager::UpdateMap

; 344  : 	UpdateAroundAmbience(fCenterX, fCenterY, fCenterZ);

  00086	f3 0f 10 45 c4	 movss	 xmm0, DWORD PTR _fCenterZ$GSCopy$1$[ebp]
  0008b	83 ec 0c	 sub	 esp, 12			; 0000000cH
  0008e	8b cf		 mov	 ecx, edi
  00090	f3 0f 11 44 24
	08		 movss	 DWORD PTR [esp+8], xmm0
  00096	f3 0f 10 45 bc	 movss	 xmm0, DWORD PTR _fCenterY$GSCopy$1$[ebp]
  0009b	f3 0f 11 44 24
	04		 movss	 DWORD PTR [esp+4], xmm0
  000a1	f3 0f 10 45 c0	 movss	 xmm0, DWORD PTR _fCenterX$GSCopy$1$[ebp]
  000a6	f3 0f 11 04 24	 movss	 DWORD PTR [esp], xmm0
  000ab	e8 00 00 00 00	 call	 ?UpdateAroundAmbience@CMapManager@@QAEXMMM@Z ; CMapManager::UpdateAroundAmbience
; File C:\Anka2Project\Anka2Project\Source\Binary\extern\include\d3dx8math.inl

; 180  :     x = fx;

  000b0	f3 0f 10 45 c0	 movss	 xmm0, DWORD PTR _fCenterX$GSCopy$1$[ebp]
; File C:\Anka2Project\Anka2Project\Source\Binary\source\UserInterface\PythonBackground.cpp

; 345  : 	m_SnowEnvironment.Update(D3DXVECTOR3(fCenterX, -fCenterY, fCenterZ));

  000b5	8d 45 e0	 lea	 eax, DWORD PTR $T1[ebp]
; File C:\Anka2Project\Anka2Project\Source\Binary\extern\include\d3dx8math.inl

; 180  :     x = fx;

  000b8	f3 0f 11 45 e0	 movss	 DWORD PTR $T1[ebp], xmm0
; File C:\Anka2Project\Anka2Project\Source\Binary\source\UserInterface\PythonBackground.cpp

; 345  : 	m_SnowEnvironment.Update(D3DXVECTOR3(fCenterX, -fCenterY, fCenterZ));

  000bd	8d 8f f4 14 00
	00		 lea	 ecx, DWORD PTR [edi+5364]
  000c3	f3 0f 10 45 bc	 movss	 xmm0, DWORD PTR _fCenterY$GSCopy$1$[ebp]
  000c8	0f 57 05 00 00
	00 00		 xorps	 xmm0, DWORD PTR __xmm@80000000800000008000000080000000
  000cf	f3 0f 11 45 bc	 movss	 DWORD PTR _fCenterY$GSCopy$1$[ebp], xmm0
; File C:\Anka2Project\Anka2Project\Source\Binary\extern\include\d3dx8math.inl

; 181  :     y = fy;

  000d4	f3 0f 11 45 e4	 movss	 DWORD PTR $T1[ebp+4], xmm0

; 182  :     z = fz;

  000d9	f3 0f 10 45 c4	 movss	 xmm0, DWORD PTR _fCenterZ$GSCopy$1$[ebp]
; File C:\Anka2Project\Anka2Project\Source\Binary\source\UserInterface\PythonBackground.cpp

; 345  : 	m_SnowEnvironment.Update(D3DXVECTOR3(fCenterX, -fCenterY, fCenterZ));

  000de	50		 push	 eax
; File C:\Anka2Project\Anka2Project\Source\Binary\extern\include\d3dx8math.inl

; 182  :     z = fz;

  000df	f3 0f 11 45 e8	 movss	 DWORD PTR $T1[ebp+8], xmm0
; File C:\Anka2Project\Anka2Project\Source\Binary\source\UserInterface\PythonBackground.cpp

; 345  : 	m_SnowEnvironment.Update(D3DXVECTOR3(fCenterX, -fCenterY, fCenterZ));

  000e4	e8 00 00 00 00	 call	 ?Update@CSnowEnvironment@@QAEXABUD3DXVECTOR3@@@Z ; CSnowEnvironment::Update

; 346  : 
; 347  : 	// Portal Process
; 348  : 	CMapOutdoor& rkMap=GetMapOutdoorRef();

  000e9	8b cf		 mov	 ecx, edi
  000eb	e8 00 00 00 00	 call	 ?GetMapOutdoorRef@CMapManager@@QAEAAVCMapOutdoor@@XZ ; CMapManager::GetMapOutdoorRef
  000f0	89 45 a4	 mov	 DWORD PTR _rkMap$1$[ebp], eax

; 349  : 	if (rkMap.IsEnablePortal())

  000f3	80 b8 17 10 00
	00 00		 cmp	 BYTE PTR [eax+4119], 0
  000fa	0f 84 02 02 00
	00		 je	 $LN203@Update
; File C:\Anka2Project\Anka2Project\Source\Binary\source\eterBase\Singleton.h

; 26   : 		assert(ms_singleton);

  00100	8b 35 00 00 00
	00		 mov	 esi, DWORD PTR ?ms_singleton@?$CSingleton@VCCullingManager@@@@0PAVCCullingManager@@A ; CSingleton<CCullingManager>::ms_singleton
  00106	85 f6		 test	 esi, esi
  00108	75 1a		 jne	 SHORT $LN275@Update
  0010a	6a 1a		 push	 26			; 0000001aH
  0010c	68 00 00 00 00	 push	 OFFSET ??_C@_1IO@CAJLEEOI@?$AAC?$AA?3?$AA?2?$AAA?$AAn?$AAk?$AAa?$AA2?$AAP?$AAr?$AAo?$AAj?$AAe?$AAc?$AAt@
  00111	68 00 00 00 00	 push	 OFFSET ??_C@_1BK@FMEHPMFE@?$AAm?$AAs?$AA_?$AAs?$AAi?$AAn?$AAg?$AAl?$AAe?$AAt?$AAo?$AAn@
  00116	e8 00 00 00 00	 call	 __wassert
  0011b	8b 35 00 00 00
	00		 mov	 esi, DWORD PTR ?ms_singleton@?$CSingleton@VCCullingManager@@@@0PAVCCullingManager@@A ; CSingleton<CCullingManager>::ms_singleton
  00121	83 c4 0c	 add	 esp, 12			; 0000000cH
$LN275@Update:
; File C:\Program Files\Microsoft Visual Studio\2022\Community\VC\Tools\MSVC\14.44.35207\include\xmemory

; 136  :         return ::operator new(_Bytes);

  00124	6a 14		 push	 20			; 00000014H
; File C:\Program Files\Microsoft Visual Studio\2022\Community\VC\Tools\MSVC\14.44.35207\include\xtree

; 450  :     _Tree_val() noexcept : _Myhead(), _Mysize(0) {}

  00126	c7 45 b4 00 00
	00 00		 mov	 DWORD PTR _kGetPortalID$61[ebp+8], 0
  0012d	c7 45 b8 00 00
	00 00		 mov	 DWORD PTR _kGetPortalID$61[ebp+12], 0
; File C:\Program Files\Microsoft Visual Studio\2022\Community\VC\Tools\MSVC\14.44.35207\include\xmemory

; 136  :         return ::operator new(_Bytes);

  00134	e8 00 00 00 00	 call	 ??2@YAPAXI@Z		; operator new
; File C:\Anka2Project\Anka2Project\Source\Binary\source\UserInterface\PythonBackground.cpp

; 323  : 		m_fRequestX=fRequestX;

  00139	f3 0f 10 4d c0	 movss	 xmm1, DWORD PTR _fCenterX$GSCopy$1$[ebp]
; File C:\Program Files\Microsoft Visual Studio\2022\Community\VC\Tools\MSVC\14.44.35207\include\xmemory

; 136  :         return ::operator new(_Bytes);

  0013e	83 c4 04	 add	 esp, 4
; File C:\Anka2Project\Anka2Project\Source\Binary\source\UserInterface\PythonBackground.cpp

; 324  : 		m_fRequestY=fRequestY;

  00141	f3 0f 10 45 bc	 movss	 xmm0, DWORD PTR _fCenterY$GSCopy$1$[ebp]
; File C:\Program Files\Microsoft Visual Studio\2022\Community\VC\Tools\MSVC\14.44.35207\include\xtree

; 346  :         _Construct_in_place(_Pnode->_Left, _Pnode);

  00146	89 00		 mov	 DWORD PTR [eax], eax

; 347  :         _Construct_in_place(_Pnode->_Parent, _Pnode);

  00148	89 40 04	 mov	 DWORD PTR [eax+4], eax

; 348  :         _Construct_in_place(_Pnode->_Right, _Pnode);

  0014b	89 40 08	 mov	 DWORD PTR [eax+8], eax

; 349  :         _Pnode->_Color = _Black;

  0014e	66 c7 40 0c 01
	01		 mov	 WORD PTR [eax+12], 257	; 00000101H

; 1957 :         _Scary->_Myhead = _Node::_Buyheadnode(_Getal());

  00154	89 45 b4	 mov	 DWORD PTR _kGetPortalID$61[ebp+8], eax
; File C:\Anka2Project\Anka2Project\Source\Binary\source\UserInterface\PythonBackground.cpp

; 323  : 		m_fRequestX=fRequestX;

  00157	f3 0f 11 4d ac	 movss	 DWORD PTR _kGetPortalID$61[ebp], xmm1

; 324  : 		m_fRequestY=fRequestY;

  0015c	f3 0f 11 45 b0	 movss	 DWORD PTR _kGetPortalID$61[ebp+4], xmm0

; 350  : 	{
; 351  : 		CCullingManager & rkCullingMgr = CCullingManager::Instance();
; 352  : 		FGetPortalID kGetPortalID(fCenterX, -fCenterY);

  00161	c7 45 fc 00 00
	00 00		 mov	 DWORD PTR __$EHRec$[ebp+8], 0
; File C:\Anka2Project\Anka2Project\Source\Binary\source\eterlib\CullingManager.h

; 15   : 		: f(fn), dist(distance)

  00168	8d 45 ac	 lea	 eax, DWORD PTR _kGetPortalID$61[ebp]
; File C:\Anka2Project\Anka2Project\Source\Binary\source\SphereLib\vector.h

; 108  : 		y = b;

  0016b	f3 0f 11 45 d8	 movss	 DWORD PTR _aVector3d$66[ebp+4], xmm0

; 109  : 		z = c;

  00170	f3 0f 10 45 c4	 movss	 xmm0, DWORD PTR _fCenterZ$GSCopy$1$[ebp]
  00175	f3 0f 11 4d d4	 movss	 DWORD PTR _aVector3d$66[ebp], xmm1
  0017a	f3 0f 11 45 dc	 movss	 DWORD PTR _aVector3d$66[ebp+8], xmm0

; 107  : 		x = a;

  0017f	c7 45 c8 00 00
	00 00		 mov	 DWORD PTR _toTop$65[ebp], 0

; 108  : 		y = b;

  00186	c7 45 cc 00 00
	00 00		 mov	 DWORD PTR _toTop$65[ebp+4], 0

; 109  : 		z = c;

  0018d	c7 45 d0 00 50
	c3 46		 mov	 DWORD PTR _toTop$65[ebp+8], 1187205120 ; 46c35000H
; File C:\Anka2Project\Anka2Project\Source\Binary\source\eterlib\CullingManager.h

; 16   : 	{}

  00194	c7 45 e0 00 00
	00 00		 mov	 DWORD PTR _r$68[ebp], OFFSET ??_7?$RangeTester@UFGetPortalID@@@@6B@

; 15   : 		: f(fn), dist(distance)

  0019b	89 45 e4	 mov	 DWORD PTR _r$68[ebp+4], eax
  0019e	c7 45 e8 00 00
	80 bf		 mov	 DWORD PTR _r$68[ebp+8], -1082130432 ; bf800000H

; 127  : 		m_Factory->RayTrace(p1, dir, &r/*this*/);

  001a5	8d 45 e0	 lea	 eax, DWORD PTR _r$68[ebp]
  001a8	c6 45 fc 01	 mov	 BYTE PTR __$EHRec$[ebp+8], 1
  001ac	8b 4e 1c	 mov	 ecx, DWORD PTR [esi+28]
  001af	50		 push	 eax
  001b0	8d 45 c8	 lea	 eax, DWORD PTR _toTop$65[ebp]
  001b3	50		 push	 eax
  001b4	8d 45 d4	 lea	 eax, DWORD PTR _aVector3d$66[ebp]
  001b7	50		 push	 eax
  001b8	e8 00 00 00 00	 call	 ?RayTrace@SpherePackFactory@@QAEXABVVector3d@@0PAVSpherePackCallback@@@Z ; SpherePackFactory::RayTrace
; File C:\Anka2Project\Anka2Project\Source\Binary\source\UserInterface\PythonBackground.cpp

; 363  : 		if (!__IsSame(kGetPortalID.m_kSet_iPortalID, m_kSet_iShowingPortalID))

  001bd	8d 87 e4 15 00
	00		 lea	 eax, DWORD PTR [edi+5604]
; File C:\Anka2Project\Anka2Project\Source\Binary\source\eterlib\CullingManager.h

; 128  : 	}

  001c3	c6 45 fc 00	 mov	 BYTE PTR __$EHRec$[ebp+8], 0
; File C:\Anka2Project\Anka2Project\Source\Binary\source\UserInterface\PythonBackground.cpp

; 363  : 		if (!__IsSame(kGetPortalID.m_kSet_iPortalID, m_kSet_iShowingPortalID))

  001c7	50		 push	 eax
  001c8	8d 45 b4	 lea	 eax, DWORD PTR _kGetPortalID$61[ebp+8]
  001cb	50		 push	 eax
  001cc	e8 00 00 00 00	 call	 ?__IsSame@CPythonBackground@@IAE_NAAV?$set@HU?$less@H@std@@V?$allocator@H@2@@std@@0@Z ; CPythonBackground::__IsSame
  001d1	84 c0		 test	 al, al
  001d3	0f 85 04 01 00
	00		 jne	 $LN241@Update

; 364  : 		{
; 365  : 			ClearPortal();

  001d9	8b cf		 mov	 ecx, edi
  001db	e8 00 00 00 00	 call	 ?ClearPortal@CMapManager@@QAEXXZ ; CMapManager::ClearPortal
; File C:\Program Files\Microsoft Visual Studio\2022\Community\VC\Tools\MSVC\14.44.35207\include\xtree

; 37   :     _Tree_unchecked_const_iterator(_Nodeptr _Pnode, const _Mytree* _Plist) noexcept : _Ptr(_Pnode) {

  001e0	8b 45 b4	 mov	 eax, DWORD PTR _kGetPortalID$61[ebp+8]
  001e3	8b 30		 mov	 esi, DWORD PTR [eax]
  001e5	3b f0		 cmp	 esi, eax
; File C:\Anka2Project\Anka2Project\Source\Binary\source\UserInterface\PythonBackground.cpp

; 367  : 			for (; itor!=kGetPortalID.m_kSet_iPortalID.end(); ++itor)

  001e7	74 58		 je	 SHORT $LN3@Update
  001e9	0f 1f 80 00 00
	00 00		 npad	 7
$LL4@Update:

; 368  : 			{
; 369  : 				AddShowingPortalID(*itor);

  001f0	ff 76 10	 push	 DWORD PTR [esi+16]
  001f3	8b cf		 mov	 ecx, edi
  001f5	e8 00 00 00 00	 call	 ?AddShowingPortalID@CMapManager@@QAEXH@Z ; CMapManager::AddShowingPortalID
; File C:\Program Files\Microsoft Visual Studio\2022\Community\VC\Tools\MSVC\14.44.35207\include\xtree

; 50   :         if (_Ptr->_Right->_Isnil) { // climb looking for right subtree

  001fa	8b 46 08	 mov	 eax, DWORD PTR [esi+8]
  001fd	80 78 0d 00	 cmp	 BYTE PTR [eax+13], 0
  00201	74 21		 je	 SHORT $LN262@Update

; 51   :             _Nodeptr _Pnode;
; 52   :             while (!(_Pnode = _Ptr->_Parent)->_Isnil && _Ptr == _Pnode->_Right) {

  00203	8b 46 04	 mov	 eax, DWORD PTR [esi+4]
  00206	80 78 0d 00	 cmp	 BYTE PTR [eax+13], 0
  0020a	75 14		 jne	 SHORT $LN374@Update
  0020c	0f 1f 40 00	 npad	 4
$LL260@Update:
  00210	3b 70 08	 cmp	 esi, DWORD PTR [eax+8]
  00213	75 0b		 jne	 SHORT $LN374@Update

; 53   :                 _Ptr = _Pnode; // ==> parent while right subtree

  00215	8b f0		 mov	 esi, eax
  00217	8b 40 04	 mov	 eax, DWORD PTR [eax+4]
  0021a	80 78 0d 00	 cmp	 BYTE PTR [eax+13], 0
  0021e	74 f0		 je	 SHORT $LL260@Update
$LN374@Update:

; 54   :             }
; 55   : 
; 56   :             _Ptr = _Pnode; // ==> parent (head if end())

  00220	8b f0		 mov	 esi, eax

; 57   :         } else {

  00222	eb 18		 jmp	 SHORT $LN268@Update
$LN262@Update:

; 58   :             _Ptr = _Mytree::_Min(_Ptr->_Right); // ==> smallest of right subtree

  00224	8b f0		 mov	 esi, eax

; 476  :         while (!_Pnode->_Left->_Isnil) {

  00226	8b 0e		 mov	 ecx, DWORD PTR [esi]
  00228	80 79 0d 00	 cmp	 BYTE PTR [ecx+13], 0
  0022c	75 0e		 jne	 SHORT $LN268@Update
  0022e	66 90		 npad	 2
$LL267@Update:
  00230	8b 01		 mov	 eax, DWORD PTR [ecx]

; 477  :             _Pnode = _Pnode->_Left;

  00232	8b f1		 mov	 esi, ecx
  00234	8b c8		 mov	 ecx, eax
  00236	80 78 0d 00	 cmp	 BYTE PTR [eax+13], 0
  0023a	74 f4		 je	 SHORT $LL267@Update
$LN268@Update:

; 232  :         return this->_Ptr == _Right._Ptr;

  0023c	3b 75 b4	 cmp	 esi, DWORD PTR _kGetPortalID$61[ebp+8]
; File C:\Anka2Project\Anka2Project\Source\Binary\source\UserInterface\PythonBackground.cpp

; 367  : 			for (; itor!=kGetPortalID.m_kSet_iPortalID.end(); ++itor)

  0023f	75 af		 jne	 SHORT $LL4@Update
$LN3@Update:

; 370  : 			}
; 371  : 			RefreshPortal();

  00241	8b cf		 mov	 ecx, edi
  00243	e8 00 00 00 00	 call	 ?RefreshPortal@CMapManager@@QAEXXZ ; CMapManager::RefreshPortal
; File C:\Program Files\Microsoft Visual Studio\2022\Community\VC\Tools\MSVC\14.44.35207\include\xtree

; 1106 :         if (this == _STD addressof(_Right)) {

  00248	8d 4d b4	 lea	 ecx, DWORD PTR _kGetPortalID$61[ebp+8]
  0024b	8d 87 e4 15 00
	00		 lea	 eax, DWORD PTR [edi+5604]
  00251	3b c1		 cmp	 eax, ecx
  00253	0f 84 84 00 00
	00		 je	 $LN241@Update

; 1373 :         auto _Head = _Scary->_Myhead;

  00259	8b 30		 mov	 esi, DWORD PTR [eax]

; 1374 :         _Scary->_Erase_tree(_Getal(), _Head->_Parent);

  0025b	8b c8		 mov	 ecx, eax
  0025d	ff 76 04	 push	 DWORD PTR [esi+4]
  00260	50		 push	 eax
  00261	e8 00 00 00 00	 call	 ??$_Erase_tree@V?$allocator@U?$_Tree_node@HPAX@std@@@std@@@?$_Tree_val@U?$_Tree_simple_types@H@std@@@std@@QAEXAAV?$allocator@U?$_Tree_node@HPAX@std@@@1@PAU?$_Tree_node@HPAX@1@@Z ; std::_Tree_val<std::_Tree_simple_types<int> >::_Erase_tree<std::allocator<std::_Tree_node<int,void *> > >

; 1375 :         _Head->_Parent  = _Head;

  00266	89 76 04	 mov	 DWORD PTR [esi+4], esi

; 1376 :         _Head->_Left    = _Head;

  00269	89 36		 mov	 DWORD PTR [esi], esi

; 1377 :         _Head->_Right   = _Head;

  0026b	89 76 08	 mov	 DWORD PTR [esi+8], esi

; 1378 :         _Scary->_Mysize = 0;

  0026e	8d b7 e4 15 00
	00		 lea	 esi, DWORD PTR [edi+5604]

; 1657 :         _Scary->_Myhead->_Parent = _Copy_nodes<_Strat>(_Right_scary->_Myhead->_Parent, _Scary->_Myhead);

  00274	8b 45 b4	 mov	 eax, DWORD PTR _kGetPortalID$61[ebp+8]
  00277	8b ce		 mov	 ecx, esi
  00279	ff 36		 push	 DWORD PTR [esi]

; 1378 :         _Scary->_Mysize = 0;

  0027b	c7 46 04 00 00
	00 00		 mov	 DWORD PTR [esi+4], 0

; 1657 :         _Scary->_Myhead->_Parent = _Copy_nodes<_Strat>(_Right_scary->_Myhead->_Parent, _Scary->_Myhead);

  00282	ff 70 04	 push	 DWORD PTR [eax+4]
  00285	e8 00 00 00 00	 call	 ??$_Copy_nodes@$0A@@?$_Tree@V?$_Tset_traits@HU?$less@H@std@@V?$allocator@H@2@$0A@@std@@@std@@IAEPAU?$_Tree_node@HPAX@1@PAU21@0@Z ; std::_Tree<std::_Tset_traits<int,std::less<int>,std::allocator<int>,0> >::_Copy_nodes<0>
  0028a	8b 0e		 mov	 ecx, DWORD PTR [esi]
  0028c	89 41 04	 mov	 DWORD PTR [ecx+4], eax

; 1658 :         _Scary->_Mysize          = _Right_scary->_Mysize;

  0028f	8b 45 b8	 mov	 eax, DWORD PTR _kGetPortalID$61[ebp+12]
  00292	89 46 04	 mov	 DWORD PTR [esi+4], eax

; 1659 :         if (!_Scary->_Myhead->_Parent->_Isnil) { // nonempty tree, look for new smallest and largest

  00295	8b 06		 mov	 eax, DWORD PTR [esi]
  00297	8b 50 04	 mov	 edx, DWORD PTR [eax+4]
  0029a	80 7a 0d 00	 cmp	 BYTE PTR [edx+13], 0
  0029e	75 36		 jne	 SHORT $LN240@Update

; 476  :         while (!_Pnode->_Left->_Isnil) {

  002a0	8b 0a		 mov	 ecx, DWORD PTR [edx]
  002a2	80 79 0d 00	 cmp	 BYTE PTR [ecx+13], 0
  002a6	75 0e		 jne	 SHORT $LN245@Update
$LL244@Update:
  002a8	8b 01		 mov	 eax, DWORD PTR [ecx]

; 477  :             _Pnode = _Pnode->_Left;

  002aa	8b d1		 mov	 edx, ecx
  002ac	8b c8		 mov	 ecx, eax
  002ae	80 78 0d 00	 cmp	 BYTE PTR [eax+13], 0
  002b2	74 f4		 je	 SHORT $LL244@Update
  002b4	8b 06		 mov	 eax, DWORD PTR [esi]
$LN245@Update:

; 1660 :             _Scary->_Myhead->_Left  = _Scary_val::_Min(_Scary->_Myhead->_Parent);

  002b6	89 10		 mov	 DWORD PTR [eax], edx

; 1661 :             _Scary->_Myhead->_Right = _Scary_val::_Max(_Scary->_Myhead->_Parent);

  002b8	8b 16		 mov	 edx, DWORD PTR [esi]
  002ba	8b 4a 04	 mov	 ecx, DWORD PTR [edx+4]

; 468  :         while (!_Pnode->_Right->_Isnil) {

  002bd	8b 41 08	 mov	 eax, DWORD PTR [ecx+8]
  002c0	80 78 0d 00	 cmp	 BYTE PTR [eax+13], 0
  002c4	75 0b		 jne	 SHORT $LN250@Update
$LL249@Update:

; 469  :             _Pnode = _Pnode->_Right;

  002c6	8b c8		 mov	 ecx, eax
  002c8	8b 41 08	 mov	 eax, DWORD PTR [ecx+8]
  002cb	80 78 0d 00	 cmp	 BYTE PTR [eax+13], 0
  002cf	74 f5		 je	 SHORT $LL249@Update
$LN250@Update:

; 1661 :             _Scary->_Myhead->_Right = _Scary_val::_Max(_Scary->_Myhead->_Parent);

  002d1	89 4a 08	 mov	 DWORD PTR [edx+8], ecx

; 1662 :         } else { // empty tree, just tidy head pointers

  002d4	eb 07		 jmp	 SHORT $LN241@Update
$LN240@Update:

; 1663 :             _Scary->_Myhead->_Left  = _Scary->_Myhead;

  002d6	89 00		 mov	 DWORD PTR [eax], eax

; 1664 :             _Scary->_Myhead->_Right = _Scary->_Myhead;

  002d8	8b 06		 mov	 eax, DWORD PTR [esi]
  002da	89 40 08	 mov	 DWORD PTR [eax+8], eax
$LN241@Update:
; File C:\Anka2Project\Anka2Project\Source\Binary\source\UserInterface\PythonBackground.cpp

; 375  : 	}

  002dd	c7 45 fc ff ff
	ff ff		 mov	 DWORD PTR __$EHRec$[ebp+8], -1
; File C:\Program Files\Microsoft Visual Studio\2022\Community\VC\Tools\MSVC\14.44.35207\include\xtree

; 777  :         _Erase_tree(_Al, _Myhead->_Parent);

  002e4	8b 45 b4	 mov	 eax, DWORD PTR _kGetPortalID$61[ebp+8]
  002e7	ff 70 04	 push	 DWORD PTR [eax+4]
  002ea	8d 45 b4	 lea	 eax, DWORD PTR _kGetPortalID$61[ebp+8]
  002ed	50		 push	 eax
  002ee	8b c8		 mov	 ecx, eax
  002f0	e8 00 00 00 00	 call	 ??$_Erase_tree@V?$allocator@U?$_Tree_node@HPAX@std@@@std@@@?$_Tree_val@U?$_Tree_simple_types@H@std@@@std@@QAEXAAV?$allocator@U?$_Tree_node@HPAX@std@@@1@PAU?$_Tree_node@HPAX@1@@Z ; std::_Tree_val<std::_Tree_simple_types<int> >::_Erase_tree<std::allocator<std::_Tree_node<int,void *> > >
; File C:\Program Files\Microsoft Visual Studio\2022\Community\VC\Tools\MSVC\14.44.35207\include\xmemory

; 289  :         ::operator delete(_Ptr, _Bytes);

  002f5	6a 14		 push	 20			; 00000014H
  002f7	ff 75 b4	 push	 DWORD PTR _kGetPortalID$61[ebp+8]
  002fa	e8 00 00 00 00	 call	 ??3@YAXPAXI@Z		; operator delete
  002ff	83 c4 08	 add	 esp, 8
$LN203@Update:
; File C:\Program Files\Microsoft Visual Studio\2022\Community\VC\Tools\MSVC\14.44.35207\include\xtree

; 1142 :         return iterator(_Scary->_Myhead->_Left, _Scary);

  00302	8b 8f f4 15 00
	00		 mov	 ecx, DWORD PTR [edi+5620]

; 37   :     _Tree_unchecked_const_iterator(_Nodeptr _Pnode, const _Mytree* _Plist) noexcept : _Ptr(_Pnode) {

  00308	8b 01		 mov	 eax, DWORD PTR [ecx]
  0030a	89 45 c4	 mov	 DWORD PTR _itor$63[ebp], eax
  0030d	3b c1		 cmp	 eax, ecx
; File C:\Anka2Project\Anka2Project\Source\Binary\source\UserInterface\PythonBackground.cpp

; 380  : 		for (; itor != m_kMap_dwTargetID_dwChrID.end(); ++itor)

  0030f	0f 84 99 00 00
	00		 je	 $LN6@Update
$LL7@Update:

; 381  : 		{
; 382  : 			DWORD dwTargetID = itor->first;

  00315	8b 48 10	 mov	 ecx, DWORD PTR [eax+16]

; 383  : 			DWORD dwChrID = itor->second;

  00318	8b 70 14	 mov	 esi, DWORD PTR [eax+20]
  0031b	89 4d c0	 mov	 DWORD PTR _dwTargetID$1$[ebp], ecx
; File C:\Anka2Project\Anka2Project\Source\Binary\source\eterBase\Singleton.h

; 26   : 		assert(ms_singleton);

  0031e	8b 0d 00 00 00
	00		 mov	 ecx, DWORD PTR ?ms_singleton@?$CSingleton@VCPythonCharacterManager@@@@0PAVCPythonCharacterManager@@A ; CSingleton<CPythonCharacterManager>::ms_singleton
  00324	85 c9		 test	 ecx, ecx
  00326	75 1a		 jne	 SHORT $LN141@Update
  00328	6a 1a		 push	 26			; 0000001aH
  0032a	68 00 00 00 00	 push	 OFFSET ??_C@_1IO@CAJLEEOI@?$AAC?$AA?3?$AA?2?$AAA?$AAn?$AAk?$AAa?$AA2?$AAP?$AAr?$AAo?$AAj?$AAe?$AAc?$AAt@
  0032f	68 00 00 00 00	 push	 OFFSET ??_C@_1BK@FMEHPMFE@?$AAm?$AAs?$AA_?$AAs?$AAi?$AAn?$AAg?$AAl?$AAe?$AAt?$AAo?$AAn@
  00334	e8 00 00 00 00	 call	 __wassert
  00339	8b 0d 00 00 00
	00		 mov	 ecx, DWORD PTR ?ms_singleton@?$CSingleton@VCPythonCharacterManager@@@@0PAVCPythonCharacterManager@@A ; CSingleton<CPythonCharacterManager>::ms_singleton
  0033f	83 c4 0c	 add	 esp, 12			; 0000000cH
$LN141@Update:
; File C:\Anka2Project\Anka2Project\Source\Binary\source\UserInterface\PythonBackground.cpp

; 385  : 			CInstanceBase * pInstance = CPythonCharacterManager::Instance().GetInstancePtr(dwChrID);

  00342	8b 41 04	 mov	 eax, DWORD PTR [ecx+4]
  00345	83 c1 04	 add	 ecx, 4
  00348	56		 push	 esi
  00349	8b 40 08	 mov	 eax, DWORD PTR [eax+8]
  0034c	ff d0		 call	 eax

; 386  : 
; 387  : 			if (!pInstance)

  0034e	85 c0		 test	 eax, eax
  00350	74 45		 je	 SHORT $LN5@Update

; 388  : 				continue;
; 389  : 
; 390  : 			TPixelPosition kPixelPosition;
; 391  : 			pInstance->NEW_GetPixelPosition(&kPixelPosition);

  00352	8d 4d d4	 lea	 ecx, DWORD PTR _kPixelPosition$67[ebp]
  00355	51		 push	 ecx
  00356	8b c8		 mov	 ecx, eax
  00358	e8 00 00 00 00	 call	 ?NEW_GetPixelPosition@CInstanceBase@@QAEXPAUD3DXVECTOR3@@@Z ; CInstanceBase::NEW_GetPixelPosition
; File C:\Program Files\Microsoft Visual Studio\2022\Community\VC\Tools\MSVC\14.44.35207\include\xstring

; 453  :         return _Myres > _Small_string_capacity;

  0035d	83 3d 14 00 00
	00 0f		 cmp	 DWORD PTR ?g_strEffectName@@3V?$basic_string@DU?$char_traits@D@std@@V?$allocator@D@2@@std@@A+20, 15 ; 0000000fH

; 444  :         const value_type* _Result = _Bx._Buf;

  00364	b8 00 00 00 00	 mov	 eax, OFFSET ?g_strEffectName@@3V?$basic_string@DU?$char_traits@D@std@@V?$allocator@D@2@@std@@A ; g_strEffectName
; File C:\Anka2Project\Anka2Project\Source\Binary\source\UserInterface\PythonBackground.cpp

; 393  : 			CreateSpecialEffect(dwTargetID,

  00369	f3 0f 10 45 dc	 movss	 xmm0, DWORD PTR _kPixelPosition$67[ebp+8]
; File C:\Program Files\Microsoft Visual Studio\2022\Community\VC\Tools\MSVC\14.44.35207\include\xstring

; 445  :         if (_Large_mode_engaged()) {

  0036e	0f 47 05 00 00
	00 00		 cmova	 eax, DWORD PTR ?g_strEffectName@@3V?$basic_string@DU?$char_traits@D@std@@V?$allocator@D@2@@std@@A
; File C:\Anka2Project\Anka2Project\Source\Binary\source\UserInterface\PythonBackground.cpp

; 393  : 			CreateSpecialEffect(dwTargetID,

  00375	f3 0f 10 5d d8	 movss	 xmm3, DWORD PTR _kPixelPosition$67[ebp+4]
  0037a	0f 57 1d 00 00
	00 00		 xorps	 xmm3, DWORD PTR __xmm@80000000800000008000000080000000
  00381	f3 0f 10 55 d4	 movss	 xmm2, DWORD PTR _kPixelPosition$67[ebp]
  00386	50		 push	 eax
  00387	51		 push	 ecx
  00388	f3 0f 11 04 24	 movss	 DWORD PTR [esp], xmm0
  0038d	8b cf		 mov	 ecx, edi
  0038f	ff 75 c0	 push	 DWORD PTR _dwTargetID$1$[ebp]
  00392	e8 00 00 00 00	 call	 ?CreateSpecialEffect@CPythonBackground@@QAEXKMMMPBD@Z ; CPythonBackground::CreateSpecialEffect
$LN5@Update:
; File C:\Program Files\Microsoft Visual Studio\2022\Community\VC\Tools\MSVC\14.44.35207\include\xtree

; 198  :         _Mybase::operator++();

  00397	8d 4d c4	 lea	 ecx, DWORD PTR _itor$63[ebp]
  0039a	e8 00 00 00 00	 call	 ??E?$_Tree_unchecked_const_iterator@V?$_Tree_val@U?$_Tree_simple_types@U?$pair@$$CBKK@std@@@std@@@std@@U_Iterator_base0@2@@std@@QAEAAV01@XZ ; std::_Tree_unchecked_const_iterator<std::_Tree_val<std::_Tree_simple_types<std::pair<unsigned long const ,unsigned long> > >,std::_Iterator_base0>::operator++

; 232  :         return this->_Ptr == _Right._Ptr;

  0039f	8b 45 c4	 mov	 eax, DWORD PTR _itor$63[ebp]
  003a2	3b 87 f4 15 00
	00		 cmp	 eax, DWORD PTR [edi+5620]
; File C:\Anka2Project\Anka2Project\Source\Binary\source\UserInterface\PythonBackground.cpp

; 380  : 		for (; itor != m_kMap_dwTargetID_dwChrID.end(); ++itor)

  003a8	0f 85 67 ff ff
	ff		 jne	 $LL7@Update
$LN6@Update:
; File C:\Program Files\Microsoft Visual Studio\2022\Community\VC\Tools\MSVC\14.44.35207\include\xtree

; 1142 :         return iterator(_Scary->_Myhead->_Left, _Scary);

  003ae	8b 87 fc 15 00
	00		 mov	 eax, DWORD PTR [edi+5628]

; 37   :     _Tree_unchecked_const_iterator(_Nodeptr _Pnode, const _Mytree* _Plist) noexcept : _Ptr(_Pnode) {

  003b4	8b 30		 mov	 esi, DWORD PTR [eax]
  003b6	89 75 c4	 mov	 DWORD PTR _itor$64[ebp], esi
  003b9	3b f0		 cmp	 esi, eax
; File C:\Anka2Project\Anka2Project\Source\Binary\source\UserInterface\PythonBackground.cpp

; 404  : 		for (; itor != m_kMap_dwID_kReserveTargetEffect.end();)

  003bb	0f 84 a8 00 00
	00		 je	 $LN9@Update
$LL10@Update:

; 405  : 		{
; 406  : 			DWORD dwID = itor->first;
; 407  : 			SReserveTargetEffect & rReserveTargetEffect = itor->second;
; 408  : 
; 409  : 			float ilx = float(rReserveTargetEffect.ilx);
; 410  : 			float ily = float(rReserveTargetEffect.ily);
; 411  : 
; 412  : 			float fHeight = rkMap.GetHeight(ilx, ily);

  003c1	8b 4d a4	 mov	 ecx, DWORD PTR _rkMap$1$[ebp]
  003c4	83 ec 08	 sub	 esp, 8
  003c7	8b 46 10	 mov	 eax, DWORD PTR [esi+16]
  003ca	66 0f 6e 4e 18	 movd	 xmm1, DWORD PTR [esi+24]
  003cf	66 0f 6e 46 14	 movd	 xmm0, DWORD PTR [esi+20]
  003d4	89 45 bc	 mov	 DWORD PTR _dwID$1$[ebp], eax
  003d7	8b 01		 mov	 eax, DWORD PTR [ecx]
  003d9	0f 5b c9	 cvtdq2ps xmm1, xmm1
  003dc	8b 40 1c	 mov	 eax, DWORD PTR [eax+28]
  003df	89 45 c0	 mov	 DWORD PTR tv349[ebp], eax
  003e2	0f 5b c0	 cvtdq2ps xmm0, xmm0
  003e5	f3 0f 11 4c 24
	04		 movss	 DWORD PTR [esp+4], xmm1
  003eb	f3 0f 11 45 a8	 movss	 DWORD PTR _ilx$1$[ebp], xmm0
  003f0	f3 0f 11 4d a0	 movss	 DWORD PTR _ily$1$[ebp], xmm1
  003f5	f3 0f 11 04 24	 movss	 DWORD PTR [esp], xmm0
  003fa	ff 55 c0	 call	 DWORD PTR tv349[ebp]
  003fd	d9 5d c0	 fstp	 DWORD PTR _fHeight$62[ebp]

; 413  : 			if (0.0f == fHeight)

  00400	f3 0f 10 45 c0	 movss	 xmm0, DWORD PTR _fHeight$62[ebp]
  00405	0f 57 c9	 xorps	 xmm1, xmm1
  00408	0f 2e c8	 ucomiss xmm1, xmm0
  0040b	9f		 lahf
  0040c	f6 c4 44	 test	 ah, 68			; 00000044H
  0040f	7a 0d		 jp	 SHORT $LN15@Update
; File C:\Program Files\Microsoft Visual Studio\2022\Community\VC\Tools\MSVC\14.44.35207\include\xtree

; 198  :         _Mybase::operator++();

  00411	8d 4d c4	 lea	 ecx, DWORD PTR _itor$64[ebp]
  00414	e8 00 00 00 00	 call	 ??E?$_Tree_unchecked_const_iterator@V?$_Tree_val@U?$_Tree_simple_types@U?$pair@$$CBKUSReserveTargetEffect@CPythonBackground@@@std@@@std@@@std@@U_Iterator_base0@2@@std@@QAEAAV01@XZ ; std::_Tree_unchecked_const_iterator<std::_Tree_val<std::_Tree_simple_types<std::pair<unsigned long const ,CPythonBackground::SReserveTargetEffect> > >,std::_Iterator_base0>::operator++
; File C:\Anka2Project\Anka2Project\Source\Binary\source\UserInterface\PythonBackground.cpp

; 416  : 				continue;

  00419	8b 75 c4	 mov	 esi, DWORD PTR _itor$64[ebp]
  0041c	eb 3f		 jmp	 SHORT $LN8@Update
$LN15@Update:
; File C:\Program Files\Microsoft Visual Studio\2022\Community\VC\Tools\MSVC\14.44.35207\include\xstring

; 453  :         return _Myres > _Small_string_capacity;

  0041e	83 3d 14 00 00
	00 0f		 cmp	 DWORD PTR ?g_strEffectName@@3V?$basic_string@DU?$char_traits@D@std@@V?$allocator@D@2@@std@@A+20, 15 ; 0000000fH

; 444  :         const value_type* _Result = _Bx._Buf;

  00425	b8 00 00 00 00	 mov	 eax, OFFSET ?g_strEffectName@@3V?$basic_string@DU?$char_traits@D@std@@V?$allocator@D@2@@std@@A ; g_strEffectName
; File C:\Anka2Project\Anka2Project\Source\Binary\source\UserInterface\PythonBackground.cpp

; 419  : 			CreateSpecialEffect(dwID, ilx, ily, fHeight, g_strEffectName.c_str());

  0042a	f3 0f 10 5d a0	 movss	 xmm3, DWORD PTR _ily$1$[ebp]
; File C:\Program Files\Microsoft Visual Studio\2022\Community\VC\Tools\MSVC\14.44.35207\include\xstring

; 445  :         if (_Large_mode_engaged()) {

  0042f	0f 47 05 00 00
	00 00		 cmova	 eax, DWORD PTR ?g_strEffectName@@3V?$basic_string@DU?$char_traits@D@std@@V?$allocator@D@2@@std@@A
; File C:\Anka2Project\Anka2Project\Source\Binary\source\UserInterface\PythonBackground.cpp

; 419  : 			CreateSpecialEffect(dwID, ilx, ily, fHeight, g_strEffectName.c_str());

  00436	f3 0f 10 55 a8	 movss	 xmm2, DWORD PTR _ilx$1$[ebp]
  0043b	50		 push	 eax
  0043c	51		 push	 ecx
  0043d	f3 0f 11 04 24	 movss	 DWORD PTR [esp], xmm0
  00442	8b cf		 mov	 ecx, edi
  00444	ff 75 bc	 push	 DWORD PTR _dwID$1$[ebp]
  00447	e8 00 00 00 00	 call	 ?CreateSpecialEffect@CPythonBackground@@QAEXKMMMPBD@Z ; CPythonBackground::CreateSpecialEffect
; File C:\Program Files\Microsoft Visual Studio\2022\Community\VC\Tools\MSVC\14.44.35207\include\xtree

; 1341 :         return iterator(_Erase_unchecked(_Where._Unwrapped()), _Scary);

  0044c	56		 push	 esi
  0044d	8d 8f fc 15 00
	00		 lea	 ecx, DWORD PTR [edi+5628]
  00453	e8 00 00 00 00	 call	 ?_Erase_unchecked@?$_Tree@V?$_Tmap_traits@KUSReserveTargetEffect@CPythonBackground@@U?$less@K@std@@V?$allocator@U?$pair@$$CBKUSReserveTargetEffect@CPythonBackground@@@std@@@4@$0A@@std@@@std@@AAEPAU?$_Tree_node@U?$pair@$$CBKUSReserveTargetEffect@CPythonBackground@@@std@@PAX@2@V?$_Tree_unchecked_const_iterator@V?$_Tree_val@U?$_Tree_simple_types@U?$pair@$$CBKUSReserveTargetEffect@CPythonBackground@@@std@@@std@@@std@@U_Iterator_base0@2@@2@@Z ; std::_Tree<std::_Tmap_traits<unsigned long,CPythonBackground::SReserveTargetEffect,std::less<unsigned long>,std::allocator<std::pair<unsigned long const ,CPythonBackground::SReserveTargetEffect> >,0> >::_Erase_unchecked
; File C:\Anka2Project\Anka2Project\Source\Binary\source\UserInterface\PythonBackground.cpp

; 421  : 			itor = m_kMap_dwID_kReserveTargetEffect.erase(itor);

  00458	8b f0		 mov	 esi, eax
  0045a	89 75 c4	 mov	 DWORD PTR _itor$64[ebp], esi
$LN8@Update:
; File C:\Program Files\Microsoft Visual Studio\2022\Community\VC\Tools\MSVC\14.44.35207\include\xtree

; 232  :         return this->_Ptr == _Right._Ptr;

  0045d	3b b7 fc 15 00
	00		 cmp	 esi, DWORD PTR [edi+5628]
; File C:\Anka2Project\Anka2Project\Source\Binary\source\UserInterface\PythonBackground.cpp

; 404  : 		for (; itor != m_kMap_dwID_kReserveTargetEffect.end();)

  00463	0f 85 58 ff ff
	ff		 jne	 $LL10@Update
$LN9@Update:

; 422  : 		}
; 423  : 	}
; 424  : }

  00469	8b 4d f4	 mov	 ecx, DWORD PTR __$EHRec$[ebp]
  0046c	64 89 0d 00 00
	00 00		 mov	 DWORD PTR fs:0, ecx
  00473	59		 pop	 ecx
  00474	5f		 pop	 edi
  00475	5e		 pop	 esi
  00476	8b 4d ec	 mov	 ecx, DWORD PTR __$ArrayPad$[ebp]
  00479	33 cd		 xor	 ecx, ebp
  0047b	e8 00 00 00 00	 call	 @__security_check_cookie@4
  00480	8b e5		 mov	 esp, ebp
  00482	5d		 pop	 ebp
  00483	8b e3		 mov	 esp, ebx
  00485	5b		 pop	 ebx
  00486	c3		 ret	 0
_TEXT	ENDS
;	COMDAT text$x
text$x	SEGMENT
__unwindfunclet$?Update@CPythonBackground@@QAEXMMM@Z$0:
  00000	8d 4d ac	 lea	 ecx, DWORD PTR _kGetPortalID$61[ebp]
  00003	e9 00 00 00 00	 jmp	 ??1FGetPortalID@@QAE@XZ
__unwindfunclet$?Update@CPythonBackground@@QAEXMMM@Z$5:
  00008	8d 4d e0	 lea	 ecx, DWORD PTR _r$68[ebp]
  0000b	e9 00 00 00 00	 jmp	 ??1?$RangeTester@UFGetPortalID@@@@UAE@XZ ; RangeTester<FGetPortalID>::~RangeTester<FGetPortalID>
  00010	cc		 int	 3
  00011	cc		 int	 3
  00012	cc		 int	 3
  00013	cc		 int	 3
  00014	cc		 int	 3
__ehhandler$?Update@CPythonBackground@@QAEXMMM@Z:
  00015	90		 npad	 1
  00016	90		 npad	 1
  00017	8b 54 24 08	 mov	 edx, DWORD PTR [esp+8]
  0001b	8d 42 0c	 lea	 eax, DWORD PTR [edx+12]
  0001e	8b 4a a0	 mov	 ecx, DWORD PTR [edx-96]
  00021	33 c8		 xor	 ecx, eax
  00023	e8 00 00 00 00	 call	 @__security_check_cookie@4
  00028	8b 4a f8	 mov	 ecx, DWORD PTR [edx-8]
  0002b	33 c8		 xor	 ecx, eax
  0002d	e8 00 00 00 00	 call	 @__security_check_cookie@4
  00032	b8 00 00 00 00	 mov	 eax, OFFSET __ehfuncinfo$?Update@CPythonBackground@@QAEXMMM@Z
  00037	e9 00 00 00 00	 jmp	 ___CxxFrameHandler3
text$x	ENDS
?Update@CPythonBackground@@QAEXMMM@Z ENDP		; CPythonBackground::Update
; Function compile flags: /Ogtp
; File C:\Anka2Project\Anka2Project\Source\Binary\source\UserInterface\PythonBackground.cpp
; File C:\Anka2Project\Anka2Project\Source\Binary\source\eterBase\Singleton.h
; File C:\Anka2Project\Anka2Project\Source\Binary\source\UserInterface\PythonBackground.cpp
; File C:\Program Files\Microsoft Visual Studio\2022\Community\VC\Tools\MSVC\14.44.35207\include\xstring
; File C:\Anka2Project\Anka2Project\Source\Binary\source\UserInterface\PythonBackground.cpp
; File C:\Program Files\Microsoft Visual Studio\2022\Community\VC\Tools\MSVC\14.44.35207\include\xmemory
; File C:\Anka2Project\Anka2Project\Source\Binary\source\UserInterface\PythonBackground.cpp
; File C:\Program Files\Microsoft Visual Studio\2022\Community\VC\Tools\MSVC\14.44.35207\include\xtree
; File C:\Program Files\Microsoft Visual Studio\2022\Community\VC\Tools\MSVC\14.44.35207\include\xmemory
; File C:\Program Files\Microsoft Visual Studio\2022\Community\VC\Tools\MSVC\14.44.35207\include\xtree
; File C:\Anka2Project\Anka2Project\Source\Binary\source\UserInterface\PythonBackground.cpp
; File C:\Program Files\Microsoft Visual Studio\2022\Community\VC\Tools\MSVC\14.44.35207\include\xtree
; File C:\Anka2Project\Anka2Project\Source\Binary\source\UserInterface\PythonBackground.cpp
; File C:\Program Files\Microsoft Visual Studio\2022\Community\VC\Tools\MSVC\14.44.35207\include\xtree
; File C:\Anka2Project\Anka2Project\Source\Binary\source\UserInterface\PythonBackground.cpp
; File C:\Program Files\Microsoft Visual Studio\2022\Community\VC\Tools\MSVC\14.44.35207\include\xmemory
; File C:\Anka2Project\Anka2Project\Source\Binary\source\UserInterface\PythonBackground.cpp
; File C:\Program Files\Microsoft Visual Studio\2022\Community\VC\Tools\MSVC\14.44.35207\include\xtree
; File C:\Program Files\Microsoft Visual Studio\2022\Community\VC\Tools\MSVC\14.44.35207\include\xmemory
; File C:\Program Files\Microsoft Visual Studio\2022\Community\VC\Tools\MSVC\14.44.35207\include\xtree
; File C:\Anka2Project\Anka2Project\Source\Binary\source\UserInterface\PythonBackground.cpp
; File C:\Program Files\Microsoft Visual Studio\2022\Community\VC\Tools\MSVC\14.44.35207\include\xmemory
; File C:\Anka2Project\Anka2Project\Source\Binary\source\UserInterface\PythonBackground.cpp
; File C:\Program Files\Microsoft Visual Studio\2022\Community\VC\Tools\MSVC\14.44.35207\include\xtree
; File C:\Program Files\Microsoft Visual Studio\2022\Community\VC\Tools\MSVC\14.44.35207\include\xmemory
; File C:\Program Files\Microsoft Visual Studio\2022\Community\VC\Tools\MSVC\14.44.35207\include\xtree
; File C:\Anka2Project\Anka2Project\Source\Binary\source\UserInterface\PythonBackground.cpp
; File C:\Program Files\Microsoft Visual Studio\2022\Community\VC\Tools\MSVC\14.44.35207\include\xstring
; File C:\Anka2Project\Anka2Project\Source\Binary\source\UserInterface\PythonBackground.cpp
; File C:\Program Files\Microsoft Visual Studio\2022\Community\VC\Tools\MSVC\14.44.35207\include\xstring
; File C:\Anka2Project\Anka2Project\Source\Binary\source\UserInterface\PythonBackground.cpp
;	COMDAT ??0CPythonBackground@@QAE@XZ
_TEXT	SEGMENT
_this$ = -24						; size = 4
_this$ = -24						; size = 4
_this$ = -24						; size = 4
_this$ = -24						; size = 4
_this$ = -20						; size = 4
__$EHRec$ = -12						; size = 12
??0CPythonBackground@@QAE@XZ PROC			; CPythonBackground::CPythonBackground, COMDAT
; _this$ = ecx

; 204  : {

  00000	53		 push	 ebx
  00001	8b dc		 mov	 ebx, esp
  00003	83 ec 08	 sub	 esp, 8
  00006	83 e4 f8	 and	 esp, -8			; fffffff8H
  00009	83 c4 04	 add	 esp, 4
  0000c	55		 push	 ebp
  0000d	8b 6b 04	 mov	 ebp, DWORD PTR [ebx+4]
  00010	89 6c 24 04	 mov	 DWORD PTR [esp+4], ebp
  00014	8b ec		 mov	 ebp, esp
  00016	6a ff		 push	 -1
  00018	68 00 00 00 00	 push	 __ehhandler$??0CPythonBackground@@QAE@XZ
  0001d	64 a1 00 00 00
	00		 mov	 eax, DWORD PTR fs:0
  00023	50		 push	 eax
  00024	53		 push	 ebx
  00025	83 ec 08	 sub	 esp, 8
  00028	56		 push	 esi
  00029	57		 push	 edi
  0002a	a1 00 00 00 00	 mov	 eax, DWORD PTR ___security_cookie
  0002f	33 c5		 xor	 eax, ebp
  00031	50		 push	 eax
  00032	8d 45 f4	 lea	 eax, DWORD PTR __$EHRec$[ebp]
  00035	64 a3 00 00 00
	00		 mov	 DWORD PTR fs:0, eax
  0003b	8b f1		 mov	 esi, ecx
  0003d	89 75 ec	 mov	 DWORD PTR _this$[ebp], esi
  00040	e8 00 00 00 00	 call	 ??0CMapManager@@QAE@XZ	; CMapManager::CMapManager
  00045	c7 45 fc 00 00
	00 00		 mov	 DWORD PTR __$EHRec$[ebp+8], 0
; File C:\Anka2Project\Anka2Project\Source\Binary\source\eterBase\Singleton.h

; 12   : 	{

  0004c	c7 86 d8 14 00
	00 00 00 00 00	 mov	 DWORD PTR [esi+5336], OFFSET ??_7?$CSingleton@VCPythonBackground@@@@6B@

; 13   : 		assert(!ms_singleton);

  00056	83 3d 00 00 00
	00 00		 cmp	 DWORD PTR ?ms_singleton@?$CSingleton@VCPythonBackground@@@@0PAVCPythonBackground@@A, 0 ; CSingleton<CPythonBackground>::ms_singleton
  0005d	74 14		 je	 SHORT $LN13@CPythonBac
  0005f	6a 0d		 push	 13			; 0000000dH
  00061	68 00 00 00 00	 push	 OFFSET ??_C@_1IO@CAJLEEOI@?$AAC?$AA?3?$AA?2?$AAA?$AAn?$AAk?$AAa?$AA2?$AAP?$AAr?$AAo?$AAj?$AAe?$AAc?$AAt@
  00066	68 00 00 00 00	 push	 OFFSET ??_C@_1BM@EENBGLDC@?$AA?$CB?$AAm?$AAs?$AA_?$AAs?$AAi?$AAn?$AAg?$AAl?$AAe?$AAt?$AAo?$AAn@
  0006b	e8 00 00 00 00	 call	 __wassert
  00070	83 c4 0c	 add	 esp, 12			; 0000000cH
$LN13@CPythonBac:

; 14   : 		int offset = (int) (T*) 1 - (int) (CSingleton <T>*) (T*) 1;
; 15   : 		ms_singleton = (T*) ((int) this + offset);

  00073	8b c6		 mov	 eax, esi
  00075	a3 00 00 00 00	 mov	 DWORD PTR ?ms_singleton@?$CSingleton@VCPythonBackground@@@@0PAVCPythonBackground@@A, eax ; CSingleton<CPythonBackground>::ms_singleton
; File C:\Anka2Project\Anka2Project\Source\Binary\source\UserInterface\PythonBackground.cpp

; 204  : {

  0007a	8d be dc 14 00
	00		 lea	 edi, DWORD PTR [esi+5340]
  00080	c7 06 00 00 00
	00		 mov	 DWORD PTR [esi], OFFSET ??_7CPythonBackground@@6BCScreen@@@
  00086	c7 46 04 00 00
	00 00		 mov	 DWORD PTR [esi+4], OFFSET ??_7CPythonBackground@@6BIPhysicsWorld@@@
  0008d	0f 57 c0	 xorps	 xmm0, xmm0
  00090	c7 86 d8 14 00
	00 00 00 00 00	 mov	 DWORD PTR [esi+5336], OFFSET ??_7CPythonBackground@@6B@
; File C:\Program Files\Microsoft Visual Studio\2022\Community\VC\Tools\MSVC\14.44.35207\include\xstring

; 493  :         _CONSTEXPR20 _Bxty() noexcept : _Buf() {} // user-provided, for fancy pointers

  0009a	0f 11 07	 movups	 XMMWORD PTR [edi], xmm0

; 860  :         _My_data._Mysize = 0;

  0009d	c7 47 10 00 00
	00 00		 mov	 DWORD PTR [edi+16], 0

; 861  :         _My_data._Myres  = _Small_string_capacity;

  000a4	c7 47 14 0f 00
	00 00		 mov	 DWORD PTR [edi+20], 15	; 0000000fH

; 862  :         _My_data._Activate_SSO_buffer();
; 863  : 
; 864  :         // the _Traits::assign is last so the codegen doesn't think the char write can alias this
; 865  :         _Traits::assign(_My_data._Bx._Buf[0], _Elem());

  000ab	c6 07 00	 mov	 BYTE PTR [edi], 0
; File C:\Anka2Project\Anka2Project\Source\Binary\source\UserInterface\PythonBackground.cpp

; 204  : {

  000ae	8d 8e f4 14 00
	00		 lea	 ecx, DWORD PTR [esi+5364]
  000b4	c6 45 fc 02	 mov	 BYTE PTR __$EHRec$[ebp+8], 2
  000b8	e8 00 00 00 00	 call	 ??0CSnowEnvironment@@QAE@XZ ; CSnowEnvironment::CSnowEnvironment
  000bd	81 c6 e4 15 00
	00		 add	 esi, 5604		; 000015e4H
  000c3	c6 45 fc 03	 mov	 BYTE PTR __$EHRec$[ebp+8], 3
; File C:\Program Files\Microsoft Visual Studio\2022\Community\VC\Tools\MSVC\14.44.35207\include\xmemory

; 136  :         return ::operator new(_Bytes);

  000c7	6a 14		 push	 20			; 00000014H
; File C:\Anka2Project\Anka2Project\Source\Binary\source\UserInterface\PythonBackground.cpp

; 204  : {

  000c9	89 75 e8	 mov	 DWORD PTR _this$[ebp], esi
; File C:\Program Files\Microsoft Visual Studio\2022\Community\VC\Tools\MSVC\14.44.35207\include\xtree

; 450  :     _Tree_val() noexcept : _Myhead(), _Mysize(0) {}

  000cc	c7 06 00 00 00
	00		 mov	 DWORD PTR [esi], 0
  000d2	c7 46 04 00 00
	00 00		 mov	 DWORD PTR [esi+4], 0
; File C:\Program Files\Microsoft Visual Studio\2022\Community\VC\Tools\MSVC\14.44.35207\include\xmemory

; 136  :         return ::operator new(_Bytes);

  000d9	e8 00 00 00 00	 call	 ??2@YAPAXI@Z		; operator new
  000de	83 c4 04	 add	 esp, 4
; File C:\Program Files\Microsoft Visual Studio\2022\Community\VC\Tools\MSVC\14.44.35207\include\xtree

; 346  :         _Construct_in_place(_Pnode->_Left, _Pnode);

  000e1	89 00		 mov	 DWORD PTR [eax], eax

; 347  :         _Construct_in_place(_Pnode->_Parent, _Pnode);

  000e3	89 40 04	 mov	 DWORD PTR [eax+4], eax

; 348  :         _Construct_in_place(_Pnode->_Right, _Pnode);

  000e6	89 40 08	 mov	 DWORD PTR [eax+8], eax

; 349  :         _Pnode->_Color = _Black;

  000e9	66 c7 40 0c 01
	01		 mov	 WORD PTR [eax+12], 257	; 00000101H

; 1957 :         _Scary->_Myhead = _Node::_Buyheadnode(_Getal());

  000ef	89 06		 mov	 DWORD PTR [esi], eax
; File C:\Anka2Project\Anka2Project\Source\Binary\source\UserInterface\PythonBackground.cpp

; 204  : {

  000f1	c6 45 fc 04	 mov	 BYTE PTR __$EHRec$[ebp+8], 4
  000f5	8b 75 ec	 mov	 esi, DWORD PTR _this$[ebp]
  000f8	81 c6 ec 15 00
	00		 add	 esi, 5612		; 000015ecH
; File C:\Program Files\Microsoft Visual Studio\2022\Community\VC\Tools\MSVC\14.44.35207\include\xtree

; 345  :         const auto _Pnode = _Al.allocate(1);

  000fe	6a 28		 push	 40			; 00000028H
; File C:\Anka2Project\Anka2Project\Source\Binary\source\UserInterface\PythonBackground.cpp

; 204  : {

  00100	89 75 e8	 mov	 DWORD PTR _this$[ebp], esi
; File C:\Program Files\Microsoft Visual Studio\2022\Community\VC\Tools\MSVC\14.44.35207\include\xtree

; 450  :     _Tree_val() noexcept : _Myhead(), _Mysize(0) {}

  00103	c7 06 00 00 00
	00		 mov	 DWORD PTR [esi], 0
  00109	c7 46 04 00 00
	00 00		 mov	 DWORD PTR [esi+4], 0

; 345  :         const auto _Pnode = _Al.allocate(1);

  00110	e8 00 00 00 00	 call	 ??2@YAPAXI@Z		; operator new
  00115	83 c4 04	 add	 esp, 4

; 346  :         _Construct_in_place(_Pnode->_Left, _Pnode);

  00118	89 00		 mov	 DWORD PTR [eax], eax

; 347  :         _Construct_in_place(_Pnode->_Parent, _Pnode);

  0011a	89 40 04	 mov	 DWORD PTR [eax+4], eax

; 348  :         _Construct_in_place(_Pnode->_Right, _Pnode);

  0011d	89 40 08	 mov	 DWORD PTR [eax+8], eax

; 349  :         _Pnode->_Color = _Black;

  00120	66 c7 40 0c 01
	01		 mov	 WORD PTR [eax+12], 257	; 00000101H

; 1957 :         _Scary->_Myhead = _Node::_Buyheadnode(_Getal());

  00126	89 06		 mov	 DWORD PTR [esi], eax
; File C:\Anka2Project\Anka2Project\Source\Binary\source\UserInterface\PythonBackground.cpp

; 204  : {

  00128	c6 45 fc 05	 mov	 BYTE PTR __$EHRec$[ebp+8], 5
  0012c	8b 75 ec	 mov	 esi, DWORD PTR _this$[ebp]
  0012f	81 c6 f4 15 00
	00		 add	 esi, 5620		; 000015f4H
; File C:\Program Files\Microsoft Visual Studio\2022\Community\VC\Tools\MSVC\14.44.35207\include\xmemory

; 136  :         return ::operator new(_Bytes);

  00135	6a 18		 push	 24			; 00000018H
; File C:\Anka2Project\Anka2Project\Source\Binary\source\UserInterface\PythonBackground.cpp

; 204  : {

  00137	89 75 e8	 mov	 DWORD PTR _this$[ebp], esi
; File C:\Program Files\Microsoft Visual Studio\2022\Community\VC\Tools\MSVC\14.44.35207\include\xtree

; 450  :     _Tree_val() noexcept : _Myhead(), _Mysize(0) {}

  0013a	c7 06 00 00 00
	00		 mov	 DWORD PTR [esi], 0
  00140	c7 46 04 00 00
	00 00		 mov	 DWORD PTR [esi+4], 0
; File C:\Program Files\Microsoft Visual Studio\2022\Community\VC\Tools\MSVC\14.44.35207\include\xmemory

; 136  :         return ::operator new(_Bytes);

  00147	e8 00 00 00 00	 call	 ??2@YAPAXI@Z		; operator new
  0014c	83 c4 04	 add	 esp, 4
; File C:\Program Files\Microsoft Visual Studio\2022\Community\VC\Tools\MSVC\14.44.35207\include\xtree

; 346  :         _Construct_in_place(_Pnode->_Left, _Pnode);

  0014f	89 00		 mov	 DWORD PTR [eax], eax

; 347  :         _Construct_in_place(_Pnode->_Parent, _Pnode);

  00151	89 40 04	 mov	 DWORD PTR [eax+4], eax

; 348  :         _Construct_in_place(_Pnode->_Right, _Pnode);

  00154	89 40 08	 mov	 DWORD PTR [eax+8], eax

; 349  :         _Pnode->_Color = _Black;

  00157	66 c7 40 0c 01
	01		 mov	 WORD PTR [eax+12], 257	; 00000101H

; 1957 :         _Scary->_Myhead = _Node::_Buyheadnode(_Getal());

  0015d	89 06		 mov	 DWORD PTR [esi], eax
; File C:\Anka2Project\Anka2Project\Source\Binary\source\UserInterface\PythonBackground.cpp

; 204  : {

  0015f	c6 45 fc 06	 mov	 BYTE PTR __$EHRec$[ebp+8], 6
  00163	8b 75 ec	 mov	 esi, DWORD PTR _this$[ebp]
  00166	81 c6 fc 15 00
	00		 add	 esi, 5628		; 000015fcH
; File C:\Program Files\Microsoft Visual Studio\2022\Community\VC\Tools\MSVC\14.44.35207\include\xmemory

; 136  :         return ::operator new(_Bytes);

  0016c	6a 1c		 push	 28			; 0000001cH
; File C:\Anka2Project\Anka2Project\Source\Binary\source\UserInterface\PythonBackground.cpp

; 204  : {

  0016e	89 75 e8	 mov	 DWORD PTR _this$[ebp], esi
; File C:\Program Files\Microsoft Visual Studio\2022\Community\VC\Tools\MSVC\14.44.35207\include\xtree

; 450  :     _Tree_val() noexcept : _Myhead(), _Mysize(0) {}

  00171	c7 06 00 00 00
	00		 mov	 DWORD PTR [esi], 0
  00177	c7 46 04 00 00
	00 00		 mov	 DWORD PTR [esi+4], 0
; File C:\Program Files\Microsoft Visual Studio\2022\Community\VC\Tools\MSVC\14.44.35207\include\xmemory

; 136  :         return ::operator new(_Bytes);

  0017e	e8 00 00 00 00	 call	 ??2@YAPAXI@Z		; operator new
  00183	83 c4 04	 add	 esp, 4
; File C:\Program Files\Microsoft Visual Studio\2022\Community\VC\Tools\MSVC\14.44.35207\include\xtree

; 346  :         _Construct_in_place(_Pnode->_Left, _Pnode);

  00186	89 00		 mov	 DWORD PTR [eax], eax

; 347  :         _Construct_in_place(_Pnode->_Parent, _Pnode);

  00188	89 40 04	 mov	 DWORD PTR [eax+4], eax

; 348  :         _Construct_in_place(_Pnode->_Right, _Pnode);

  0018b	89 40 08	 mov	 DWORD PTR [eax+8], eax

; 349  :         _Pnode->_Color = _Black;

  0018e	66 c7 40 0c 01
	01		 mov	 WORD PTR [eax+12], 257	; 00000101H

; 1957 :         _Scary->_Myhead = _Node::_Buyheadnode(_Getal());

  00194	89 06		 mov	 DWORD PTR [esi], eax
; File C:\Anka2Project\Anka2Project\Source\Binary\source\UserInterface\PythonBackground.cpp

; 204  : {

  00196	c6 45 fc 07	 mov	 BYTE PTR __$EHRec$[ebp+8], 7

; 205  : 	m_dwRenderShadowTime = 0;

  0019a	8b 75 ec	 mov	 esi, DWORD PTR _this$[ebp]
  0019d	c7 86 60 15 00
	00 00 00 00 00	 mov	 DWORD PTR [esi+5472], 0

; 206  : 	m_eViewDistanceNum = 0;
; 207  : 	m_eViewDistanceNum = 0;
; 208  : 	m_eViewDistanceNum = 0;

  001a7	c7 86 58 15 00
	00 00 00 00 00	 mov	 DWORD PTR [esi+5464], 0

; 209  : 	m_eShadowLevel = SHADOW_NONE;

  001b1	c7 86 54 15 00
	00 00 00 00 00	 mov	 DWORD PTR [esi+5460], 0
; File C:\Program Files\Microsoft Visual Studio\2022\Community\VC\Tools\MSVC\14.44.35207\include\xstring

; 1638 :         return assign(_Ptr, _Convert_size<size_type>(_Traits::length(_Ptr)));

  001bb	6a 00		 push	 0
  001bd	68 00 00 00 00	 push	 OFFSET ??_C@_00CNPNBAHC@@
  001c2	8b cf		 mov	 ecx, edi
; File C:\Anka2Project\Anka2Project\Source\Binary\source\UserInterface\PythonBackground.cpp

; 210  : 	m_dwBaseX = 0;

  001c4	c7 86 64 15 00
	00 00 00 00 00	 mov	 DWORD PTR [esi+5476], 0

; 211  : 	m_dwBaseY = 0;

  001ce	c7 86 68 15 00
	00 00 00 00 00	 mov	 DWORD PTR [esi+5480], 0
; File C:\Program Files\Microsoft Visual Studio\2022\Community\VC\Tools\MSVC\14.44.35207\include\xstring

; 1638 :         return assign(_Ptr, _Convert_size<size_type>(_Traits::length(_Ptr)));

  001d8	e8 00 00 00 00	 call	 ?assign@?$basic_string@DU?$char_traits@D@std@@V?$allocator@D@2@@std@@QAEAAV12@QBDI@Z ; std::basic_string<char,std::char_traits<char>,std::allocator<char> >::assign
; File C:\Anka2Project\Anka2Project\Source\Binary\source\UserInterface\PythonBackground.cpp

; 217  : 	SetViewDistanceSet(4, 25600.0f);

  001dd	f3 0f 10 15 00
	00 00 00	 movss	 xmm2, DWORD PTR __real@46c80000
  001e5	8b ce		 mov	 ecx, esi
  001e7	6a 04		 push	 4
  001e9	c7 86 4c 15 00
	00 00 00 00 00	 mov	 DWORD PTR [esi+5452], 0
  001f3	c7 86 50 15 00
	00 00 00 00 00	 mov	 DWORD PTR [esi+5456], 0
  001fd	c7 86 5c 15 00
	00 00 00 00 00	 mov	 DWORD PTR [esi+5468], 0
  00207	e8 00 00 00 00	 call	 ?SetViewDistanceSet@CPythonBackground@@QAEXHM@Z ; CPythonBackground::SetViewDistanceSet

; 218  : 	SetViewDistanceSet(3, 25600.0f);

  0020c	f3 0f 10 15 00
	00 00 00	 movss	 xmm2, DWORD PTR __real@46c80000
  00214	8b ce		 mov	 ecx, esi
  00216	6a 03		 push	 3
  00218	e8 00 00 00 00	 call	 ?SetViewDistanceSet@CPythonBackground@@QAEXHM@Z ; CPythonBackground::SetViewDistanceSet

; 219  : 	SetViewDistanceSet(2, 25600.0f);

  0021d	f3 0f 10 15 00
	00 00 00	 movss	 xmm2, DWORD PTR __real@46c80000
  00225	8b ce		 mov	 ecx, esi
  00227	6a 02		 push	 2
  00229	e8 00 00 00 00	 call	 ?SetViewDistanceSet@CPythonBackground@@QAEXHM@Z ; CPythonBackground::SetViewDistanceSet

; 220  : 	SetViewDistanceSet(1, 25600.0f);

  0022e	f3 0f 10 15 00
	00 00 00	 movss	 xmm2, DWORD PTR __real@46c80000
  00236	8b ce		 mov	 ecx, esi
  00238	6a 01		 push	 1
  0023a	e8 00 00 00 00	 call	 ?SetViewDistanceSet@CPythonBackground@@QAEXHM@Z ; CPythonBackground::SetViewDistanceSet

; 221  : 	SetViewDistanceSet(0, 25600.0f);

  0023f	f3 0f 10 15 00
	00 00 00	 movss	 xmm2, DWORD PTR __real@46c80000
  00247	8b ce		 mov	 ecx, esi
  00249	6a 00		 push	 0
  0024b	e8 00 00 00 00	 call	 ?SetViewDistanceSet@CPythonBackground@@QAEXHM@Z ; CPythonBackground::SetViewDistanceSet

; 222  : 
; 223  : #ifdef ENABLE_ENVIRONMENT_EFFECT_OPTION
; 224  : 	m_bNightMode = true;
; 225  : #endif
; 226  : 
; 227  : 	Initialize();

  00250	8b ce		 mov	 ecx, esi
  00252	c6 86 04 16 00
	00 01		 mov	 BYTE PTR [esi+5636], 1
  00259	e8 00 00 00 00	 call	 ?Initialize@CPythonBackground@@QAEXXZ ; CPythonBackground::Initialize

; 228  : }

  0025e	8b c6		 mov	 eax, esi
  00260	8b 4d f4	 mov	 ecx, DWORD PTR __$EHRec$[ebp]
  00263	64 89 0d 00 00
	00 00		 mov	 DWORD PTR fs:0, ecx
  0026a	59		 pop	 ecx
  0026b	5f		 pop	 edi
  0026c	5e		 pop	 esi
  0026d	8b e5		 mov	 esp, ebp
  0026f	5d		 pop	 ebp
  00270	8b e3		 mov	 esp, ebx
  00272	5b		 pop	 ebx
  00273	c3		 ret	 0
_TEXT	ENDS
;	COMDAT text$x
text$x	SEGMENT
__unwindfunclet$??0CPythonBackground@@QAE@XZ$0:
  00000	8b 4d ec	 mov	 ecx, DWORD PTR _this$[ebp]
  00003	e9 00 00 00 00	 jmp	 ??1CMapManager@@UAE@XZ	; CMapManager::~CMapManager
__unwindfunclet$??0CPythonBackground@@QAE@XZ$1:
  00008	8b 4d ec	 mov	 ecx, DWORD PTR _this$[ebp]
  0000b	81 c1 d8 14 00
	00		 add	 ecx, 5336		; 000014d8H
  00011	e9 00 00 00 00	 jmp	 ??1?$CSingleton@VCPythonBackground@@@@UAE@XZ ; CSingleton<CPythonBackground>::~CSingleton<CPythonBackground>
__unwindfunclet$??0CPythonBackground@@QAE@XZ$2:
  00016	8b 4d ec	 mov	 ecx, DWORD PTR _this$[ebp]
  00019	81 c1 dc 14 00
	00		 add	 ecx, 5340		; 000014dcH
  0001f	e9 00 00 00 00	 jmp	 ??1?$basic_string@DU?$char_traits@D@std@@V?$allocator@D@2@@std@@QAE@XZ ; std::basic_string<char,std::char_traits<char>,std::allocator<char> >::~basic_string<char,std::char_traits<char>,std::allocator<char> >
__unwindfunclet$??0CPythonBackground@@QAE@XZ$3:
  00024	8b 4d ec	 mov	 ecx, DWORD PTR _this$[ebp]
  00027	81 c1 f4 14 00
	00		 add	 ecx, 5364		; 000014f4H
  0002d	e9 00 00 00 00	 jmp	 ??1CSnowEnvironment@@UAE@XZ ; CSnowEnvironment::~CSnowEnvironment
__unwindfunclet$??0CPythonBackground@@QAE@XZ$4:
  00032	8b 4d ec	 mov	 ecx, DWORD PTR _this$[ebp]
  00035	81 c1 e4 15 00
	00		 add	 ecx, 5604		; 000015e4H
  0003b	e9 00 00 00 00	 jmp	 ??1?$set@HU?$less@H@std@@V?$allocator@H@2@@std@@QAE@XZ
__unwindfunclet$??0CPythonBackground@@QAE@XZ$5:
  00040	8b 4d ec	 mov	 ecx, DWORD PTR _this$[ebp]
  00043	81 c1 ec 15 00
	00		 add	 ecx, 5612		; 000015ecH
  00049	e9 00 00 00 00	 jmp	 ??1?$set@V?$basic_string@DU?$char_traits@D@std@@V?$allocator@D@2@@std@@U?$less@V?$basic_string@DU?$char_traits@D@std@@V?$allocator@D@2@@std@@@2@V?$allocator@V?$basic_string@DU?$char_traits@D@std@@V?$allocator@D@2@@std@@@2@@std@@QAE@XZ
__unwindfunclet$??0CPythonBackground@@QAE@XZ$6:
  0004e	8b 4d ec	 mov	 ecx, DWORD PTR _this$[ebp]
  00051	81 c1 f4 15 00
	00		 add	 ecx, 5620		; 000015f4H
  00057	e9 00 00 00 00	 jmp	 ??1?$map@KKU?$less@K@std@@V?$allocator@U?$pair@$$CBKK@std@@@2@@std@@QAE@XZ
__unwindfunclet$??0CPythonBackground@@QAE@XZ$7:
  0005c	8b 4d ec	 mov	 ecx, DWORD PTR _this$[ebp]
  0005f	81 c1 fc 15 00
	00		 add	 ecx, 5628		; 000015fcH
  00065	e9 00 00 00 00	 jmp	 ??1?$map@KUSReserveTargetEffect@CPythonBackground@@U?$less@K@std@@V?$allocator@U?$pair@$$CBKUSReserveTargetEffect@CPythonBackground@@@std@@@4@@std@@QAE@XZ
  0006a	cc		 int	 3
  0006b	cc		 int	 3
  0006c	cc		 int	 3
  0006d	cc		 int	 3
  0006e	cc		 int	 3
__ehhandler$??0CPythonBackground@@QAE@XZ:
  0006f	90		 npad	 1
  00070	90		 npad	 1
  00071	8b 54 24 08	 mov	 edx, DWORD PTR [esp+8]
  00075	8d 42 0c	 lea	 eax, DWORD PTR [edx+12]
  00078	8b 4a e8	 mov	 ecx, DWORD PTR [edx-24]
  0007b	33 c8		 xor	 ecx, eax
  0007d	e8 00 00 00 00	 call	 @__security_check_cookie@4
  00082	b8 00 00 00 00	 mov	 eax, OFFSET __ehfuncinfo$??0CPythonBackground@@QAE@XZ
  00087	e9 00 00 00 00	 jmp	 ___CxxFrameHandler3
text$x	ENDS
??0CPythonBackground@@QAE@XZ ENDP			; CPythonBackground::CPythonBackground
; Function compile flags: /Ogtp
; File C:\Anka2Project\Anka2Project\Source\Binary\source\UserInterface\PythonBackground.cpp
; File C:\Program Files\Microsoft Visual Studio\2022\Community\VC\Tools\MSVC\14.44.35207\include\xmemory
; File C:\Program Files\Microsoft Visual Studio\2022\Community\VC\Tools\MSVC\14.44.35207\include\__msvc_string_view.hpp
; File C:\Program Files\Microsoft Visual Studio\2022\Community\VC\Tools\MSVC\14.44.35207\include\xmemory
; File C:\Program Files\Microsoft Visual Studio\2022\Community\VC\Tools\MSVC\14.44.35207\include\xstring
; File C:\Anka2Project\Anka2Project\Source\Binary\source\UserInterface\PythonBackground.cpp
; File C:\Program Files\Microsoft Visual Studio\2022\Community\VC\Tools\MSVC\14.44.35207\include\__msvc_string_view.hpp
; File C:\Program Files\Microsoft Visual Studio\2022\Community\VC\Tools\MSVC\14.44.35207\include\xstring
; File C:\Anka2Project\Anka2Project\Source\Binary\source\UserInterface\PythonBackground.cpp
;	COMDAT ??__Eg_strEffectName@@YAXXZ
text$di	SEGMENT
??__Eg_strEffectName@@YAXXZ PROC			; `dynamic initializer for 'g_strEffectName'', COMDAT
; File C:\Program Files\Microsoft Visual Studio\2022\Community\VC\Tools\MSVC\14.44.35207\include\xmemory

; 136  :         return ::operator new(_Bytes);

  00000	6a 40		 push	 64			; 00000040H
  00002	e8 00 00 00 00	 call	 ??2@YAPAXI@Z		; operator new
; File C:\Program Files\Microsoft Visual Studio\2022\Community\VC\Tools\MSVC\14.44.35207\include\__msvc_string_view.hpp

; 121  :         _CSTD memcpy(_First1, _First2, _Count * sizeof(_Elem));

  00007	0f 10 05 00 00
	00 00		 movups	 xmm0, XMMWORD PTR ??_C@_0DF@GEMPMAOP@d?3?1ymir?5work?1effect?1etc?1directi@
; File C:\Program Files\Microsoft Visual Studio\2022\Community\VC\Tools\MSVC\14.44.35207\include\xmemory

; 256  :         return _Traits::_Allocate(_Bytes);

  0000e	8b c8		 mov	 ecx, eax
; File C:\Program Files\Microsoft Visual Studio\2022\Community\VC\Tools\MSVC\14.44.35207\include\xstring

; 915  :         _My_data._Mysize = _Count;

  00010	c7 05 10 00 00
	00 34 00 00 00	 mov	 DWORD PTR ?g_strEffectName@@3V?$basic_string@DU?$char_traits@D@std@@V?$allocator@D@2@@std@@A+16, 52 ; 00000034H
  0001a	89 0d 00 00 00
	00		 mov	 DWORD PTR ?g_strEffectName@@3V?$basic_string@DU?$char_traits@D@std@@V?$allocator@D@2@@std@@A, ecx

; 916  :         _My_data._Myres  = _New_capacity;

  00020	c7 05 14 00 00
	00 3f 00 00 00	 mov	 DWORD PTR ?g_strEffectName@@3V?$basic_string@DU?$char_traits@D@std@@V?$allocator@D@2@@std@@A+20, 63 ; 0000003fH
; File C:\Anka2Project\Anka2Project\Source\Binary\source\UserInterface\PythonBackground.cpp

; 15   : std::string g_strEffectName = "d:/ymir work/effect/etc/direction/direction_land.mse";

  0002a	68 00 00 00 00	 push	 OFFSET ??__Fg_strEffectName@@YAXXZ ; `dynamic atexit destructor for 'g_strEffectName''
; File C:\Program Files\Microsoft Visual Studio\2022\Community\VC\Tools\MSVC\14.44.35207\include\__msvc_string_view.hpp

; 121  :         _CSTD memcpy(_First1, _First2, _Count * sizeof(_Elem));

  0002f	0f 11 01	 movups	 XMMWORD PTR [ecx], xmm0
  00032	0f 10 05 10 00
	00 00		 movups	 xmm0, XMMWORD PTR ??_C@_0DF@GEMPMAOP@d?3?1ymir?5work?1effect?1etc?1directi@+16
  00039	0f 11 41 10	 movups	 XMMWORD PTR [ecx+16], xmm0
  0003d	0f 10 05 20 00
	00 00		 movups	 xmm0, XMMWORD PTR ??_C@_0DF@GEMPMAOP@d?3?1ymir?5work?1effect?1etc?1directi@+32
  00044	0f 11 41 20	 movups	 XMMWORD PTR [ecx+32], xmm0
  00048	a1 30 00 00 00	 mov	 eax, DWORD PTR ??_C@_0DF@GEMPMAOP@d?3?1ymir?5work?1effect?1etc?1directi@+48
  0004d	89 41 30	 mov	 DWORD PTR [ecx+48], eax
; File C:\Program Files\Microsoft Visual Studio\2022\Community\VC\Tools\MSVC\14.44.35207\include\xstring

; 922  :             _Traits::assign(_Unfancy(_New_ptr)[_Count], _Elem());

  00050	c6 41 34 00	 mov	 BYTE PTR [ecx+52], 0
; File C:\Anka2Project\Anka2Project\Source\Binary\source\UserInterface\PythonBackground.cpp

; 15   : std::string g_strEffectName = "d:/ymir work/effect/etc/direction/direction_land.mse";

  00054	e8 00 00 00 00	 call	 _atexit
  00059	83 c4 08	 add	 esp, 8
  0005c	c3		 ret	 0
??__Eg_strEffectName@@YAXXZ ENDP			; `dynamic initializer for 'g_strEffectName''
text$di	ENDS
; Function compile flags: /Ogtp
; File C:\Program Files\Microsoft Visual Studio\2022\Community\VC\Tools\MSVC\14.44.35207\include\xstring
;	COMDAT ??__Fg_strEffectName@@YAXXZ
text$yd	SEGMENT
??__Fg_strEffectName@@YAXXZ PROC			; `dynamic atexit destructor for 'g_strEffectName'', COMDAT

; 1383 :         _Tidy_deallocate();

  00000	b9 00 00 00 00	 mov	 ecx, OFFSET ?g_strEffectName@@3V?$basic_string@DU?$char_traits@D@std@@V?$allocator@D@2@@std@@A ; g_strEffectName
  00005	e9 00 00 00 00	 jmp	 ?_Tidy_deallocate@?$basic_string@DU?$char_traits@D@std@@V?$allocator@D@2@@std@@AAEXXZ ; std::basic_string<char,std::char_traits<char>,std::allocator<char> >::_Tidy_deallocate
??__Fg_strEffectName@@YAXXZ ENDP			; `dynamic atexit destructor for 'g_strEffectName''
text$yd	ENDS
; Function compile flags: /Ogtp
; File C:\Anka2Project\Anka2Project\Source\Binary\source\UserInterface\PythonBackground.cpp
; File C:\Anka2Project\Anka2Project\Source\Binary\source\eterBase\Singleton.h
; File C:\Anka2Project\Anka2Project\Source\Binary\source\UserInterface\PythonBackground.cpp
; File C:\Program Files\Microsoft Visual Studio\2022\Community\VC\Tools\MSVC\14.44.35207\include\xstring
; File C:\Anka2Project\Anka2Project\Source\Binary\source\UserInterface\PythonBackground.cpp
; File C:\Program Files\Microsoft Visual Studio\2022\Community\VC\Tools\MSVC\14.44.35207\include\xtree
; File C:\Program Files\Microsoft Visual Studio\2022\Community\VC\Tools\MSVC\14.44.35207\include\xstring
; File C:\Program Files\Microsoft Visual Studio\2022\Community\VC\Tools\MSVC\14.44.35207\include\xtree
; File C:\Program Files\Microsoft Visual Studio\2022\Community\VC\Tools\MSVC\14.44.35207\include\xstring
; File C:\Program Files\Microsoft Visual Studio\2022\Community\VC\Tools\MSVC\14.44.35207\include\compare
; File C:\Program Files\Microsoft Visual Studio\2022\Community\VC\Tools\MSVC\14.44.35207\include\xtree
; File C:\Anka2Project\Anka2Project\Source\Binary\source\UserInterface\PythonBackground.cpp
; File C:\Program Files\Microsoft Visual Studio\2022\Community\VC\Tools\MSVC\14.44.35207\include\xtree
; File C:\Anka2Project\Anka2Project\Source\Binary\source\UserInterface\PythonBackground.cpp
; File C:\Program Files\Microsoft Visual Studio\2022\Community\VC\Tools\MSVC\14.44.35207\include\xtree
; File C:\Anka2Project\Anka2Project\Source\Binary\source\UserInterface\PythonBackground.cpp
; File C:\Program Files\Microsoft Visual Studio\2022\Community\VC\Tools\MSVC\14.44.35207\include\xtree
; File C:\Anka2Project\Anka2Project\Source\Binary\source\UserInterface\PythonBackground.cpp
; File C:\Program Files\Microsoft Visual Studio\2022\Community\VC\Tools\MSVC\14.44.35207\include\xtree
; File C:\Anka2Project\Anka2Project\Source\Binary\source\UserInterface\PythonBackground.cpp
;	COMDAT ?Warp@CPythonBackground@@QAEXKK@Z
_TEXT	SEGMENT
__Loc$35 = -12						; size = 12
_dwX$ = 8						; size = 4
_c_pEnvironmenData$36 = 8				; size = 4
_dwY$ = 12						; size = 4
?Warp@CPythonBackground@@QAEXKK@Z PROC			; CPythonBackground::Warp, COMDAT
; _this$ = ecx

; 710  : {

  00000	55		 push	 ebp
  00001	8b ec		 mov	 ebp, esp
  00003	83 ec 0c	 sub	 esp, 12			; 0000000cH
  00006	53		 push	 ebx
  00007	56		 push	 esi
  00008	57		 push	 edi

; 711  : 	TMapInfo* pkMapInfo = GlobalPositionToMapInfo(dwX, dwY);

  00009	8b 7d 0c	 mov	 edi, DWORD PTR _dwY$[ebp]
  0000c	8b d9		 mov	 ebx, ecx
  0000e	57		 push	 edi
  0000f	ff 75 08	 push	 DWORD PTR _dwX$[ebp]
  00012	e8 00 00 00 00	 call	 ?GlobalPositionToMapInfo@CPythonBackground@@QAEPAUTMapInfo@CMapManager@@KK@Z ; CPythonBackground::GlobalPositionToMapInfo
  00017	8b f0		 mov	 esi, eax

; 712  : 	if (!pkMapInfo)

  00019	85 f6		 test	 esi, esi
  0001b	75 1a		 jne	 SHORT $LN2@Warp

; 713  : 	{
; 714  : 		TraceError("NOT_FOUND_GLOBAL_POSITION(%d, %d)", dwX, dwY);

  0001d	57		 push	 edi
  0001e	ff 75 08	 push	 DWORD PTR _dwX$[ebp]
  00021	68 00 00 00 00	 push	 OFFSET ??_C@_0CC@FDBLKFI@NOT_FOUND_GLOBAL_POSITION?$CI?$CFd?0?5?$CF@
  00026	e8 00 00 00 00	 call	 ?TraceError@@YAXPBDZZ	; TraceError
  0002b	83 c4 0c	 add	 esp, 12			; 0000000cH

; 759  : 	}
; 760  : #endif
; 761  : }

  0002e	5f		 pop	 edi
  0002f	5e		 pop	 esi
  00030	5b		 pop	 ebx
  00031	8b e5		 mov	 esp, ebp
  00033	5d		 pop	 ebp
  00034	c2 08 00	 ret	 8
$LN2@Warp:

; 715  : 		return;
; 716  : 	}
; 717  : 
; 718  : 	RefreshShadowLevel();

  00037	8b cb		 mov	 ecx, ebx
  00039	e8 00 00 00 00	 call	 ?RefreshShadowLevel@CPythonBackground@@QAEXXZ ; CPythonBackground::RefreshShadowLevel

; 719  : 	TMapInfo & rMapInfo = *pkMapInfo;
; 720  : 	assert( (dwX >= rMapInfo.m_dwBaseX) && (dwY >= rMapInfo.m_dwBaseY) );

  0003e	8b 45 08	 mov	 eax, DWORD PTR _dwX$[ebp]
  00041	3b 46 18	 cmp	 eax, DWORD PTR [esi+24]
  00044	72 07		 jb	 SHORT $LN91@Warp
  00046	8b cf		 mov	 ecx, edi
  00048	3b 4e 1c	 cmp	 ecx, DWORD PTR [esi+28]
  0004b	73 19		 jae	 SHORT $LN9@Warp
$LN91@Warp:
  0004d	68 d0 02 00 00	 push	 720			; 000002d0H
  00052	68 00 00 00 00	 push	 OFFSET ??_C@_1KK@CCJDGFDK@?$AAC?$AA?3?$AA?2?$AAA?$AAn?$AAk?$AAa?$AA2?$AAP?$AAr?$AAo?$AAj?$AAe?$AAc?$AAt@
  00057	68 00 00 00 00	 push	 OFFSET ??_C@_1HG@OJBJJMHC@?$AA?$CI?$AAd?$AAw?$AAX?$AA?5?$AA?$DO?$AA?$DN?$AA?5?$AAr?$AAM?$AAa?$AAp?$AAI?$AAn?$AAf@
  0005c	e8 00 00 00 00	 call	 __wassert
  00061	83 c4 0c	 add	 esp, 12			; 0000000cH
  00064	8b cf		 mov	 ecx, edi
$LN9@Warp:

; 721  : 
; 722  : 	if (!LoadMap(rMapInfo.m_strName, float(dwX - rMapInfo.m_dwBaseX), float(dwY - rMapInfo.m_dwBaseY), 0))

  00066	2b 4e 1c	 sub	 ecx, DWORD PTR [esi+28]
  00069	83 ec 0c	 sub	 esp, 12			; 0000000cH
  0006c	8b 03		 mov	 eax, DWORD PTR [ebx]
  0006e	66 0f 6e c1	 movd	 xmm0, ecx
  00072	f3 0f e6 c0	 cvtdq2pd xmm0, xmm0
  00076	c1 e9 1f	 shr	 ecx, 31			; 0000001fH
  00079	c7 44 24 08 00
	00 00 00	 mov	 DWORD PTR [esp+8], 0
  00081	8b 40 0c	 mov	 eax, DWORD PTR [eax+12]
  00084	f2 0f 58 04 cd
	00 00 00 00	 addsd	 xmm0, QWORD PTR __xmm@41f00000000000000000000000000000[ecx*8]
  0008d	8b 4d 08	 mov	 ecx, DWORD PTR _dwX$[ebp]
  00090	2b 4e 18	 sub	 ecx, DWORD PTR [esi+24]
  00093	66 0f 5a c0	 cvtpd2ps xmm0, xmm0
  00097	f3 0f 11 44 24
	04		 movss	 DWORD PTR [esp+4], xmm0
  0009d	66 0f 6e c1	 movd	 xmm0, ecx
  000a1	f3 0f e6 c0	 cvtdq2pd xmm0, xmm0
  000a5	c1 e9 1f	 shr	 ecx, 31			; 0000001fH
  000a8	f2 0f 58 04 cd
	00 00 00 00	 addsd	 xmm0, QWORD PTR __xmm@41f00000000000000000000000000000[ecx*8]
  000b1	8b cb		 mov	 ecx, ebx
  000b3	66 0f 5a c0	 cvtpd2ps xmm0, xmm0
  000b7	f3 0f 11 04 24	 movss	 DWORD PTR [esp], xmm0
  000bc	56		 push	 esi
  000bd	ff d0		 call	 eax
  000bf	84 c0		 test	 al, al
  000c1	75 11		 jne	 SHORT $LN3@Warp

; 723  : 	{
; 724  : 		// LOAD_MAP_ERROR_HANDLING
; 725  : 		PostQuitMessage(0);

  000c3	6a 00		 push	 0
  000c5	ff 15 00 00 00
	00		 call	 DWORD PTR __imp__PostQuitMessage@4

; 759  : 	}
; 760  : #endif
; 761  : }

  000cb	5f		 pop	 edi
  000cc	5e		 pop	 esi
  000cd	5b		 pop	 ebx
  000ce	8b e5		 mov	 esp, ebp
  000d0	5d		 pop	 ebp
  000d1	c2 08 00	 ret	 8
$LN3@Warp:
; File C:\Anka2Project\Anka2Project\Source\Binary\source\eterBase\Singleton.h

; 26   : 		assert(ms_singleton);

  000d4	8b 0d 00 00 00
	00		 mov	 ecx, DWORD PTR ?ms_singleton@?$CSingleton@VCPythonMiniMap@@@@0PAVCPythonMiniMap@@A ; CSingleton<CPythonMiniMap>::ms_singleton
  000da	85 c9		 test	 ecx, ecx
  000dc	75 1a		 jne	 SHORT $LN12@Warp
  000de	6a 1a		 push	 26			; 0000001aH
  000e0	68 00 00 00 00	 push	 OFFSET ??_C@_1IO@CAJLEEOI@?$AAC?$AA?3?$AA?2?$AAA?$AAn?$AAk?$AAa?$AA2?$AAP?$AAr?$AAo?$AAj?$AAe?$AAc?$AAt@
  000e5	68 00 00 00 00	 push	 OFFSET ??_C@_1BK@FMEHPMFE@?$AAm?$AAs?$AA_?$AAs?$AAi?$AAn?$AAg?$AAl?$AAe?$AAt?$AAo?$AAn@
  000ea	e8 00 00 00 00	 call	 __wassert
  000ef	8b 0d 00 00 00
	00		 mov	 ecx, DWORD PTR ?ms_singleton@?$CSingleton@VCPythonMiniMap@@@@0PAVCPythonMiniMap@@A ; CSingleton<CPythonMiniMap>::ms_singleton
  000f5	83 c4 0c	 add	 esp, 12			; 0000000cH
$LN12@Warp:
; File C:\Anka2Project\Anka2Project\Source\Binary\source\UserInterface\PythonBackground.cpp

; 730  : 	CPythonMiniMap::Instance().LoadAtlas();

  000f8	e8 00 00 00 00	 call	 ?LoadAtlas@CPythonMiniMap@@QAE_NXZ ; CPythonMiniMap::LoadAtlas

; 731  : 
; 732  : 	m_dwBaseX=rMapInfo.m_dwBaseX;

  000fd	8b 46 18	 mov	 eax, DWORD PTR [esi+24]

; 733  : 	m_dwBaseY=rMapInfo.m_dwBaseY;
; 734  : 
; 735  : 	m_strMapName = rMapInfo.m_strName;

  00100	8d bb dc 14 00
	00		 lea	 edi, DWORD PTR [ebx+5340]
  00106	89 83 64 15 00
	00		 mov	 DWORD PTR [ebx+5476], eax
  0010c	8b 46 1c	 mov	 eax, DWORD PTR [esi+28]
  0010f	89 83 68 15 00
	00		 mov	 DWORD PTR [ebx+5480], eax
; File C:\Program Files\Microsoft Visual Studio\2022\Community\VC\Tools\MSVC\14.44.35207\include\xstring

; 1395 :         if (this == _STD addressof(_Right)) {

  00115	3b fe		 cmp	 edi, esi
  00117	74 14		 je	 SHORT $LN13@Warp

; 453  :         return _Myres > _Small_string_capacity;

  00119	83 7e 14 0f	 cmp	 DWORD PTR [esi+20], 15	; 0000000fH

; 1434 :         assign(_Right._Mypair._Myval2._Myptr(), _Right._Mypair._Myval2._Mysize);

  0011d	8b 46 10	 mov	 eax, DWORD PTR [esi+16]

; 445  :         if (_Large_mode_engaged()) {

  00120	76 02		 jbe	 SHORT $LN17@Warp

; 446  :             _Result = _Unfancy(_Bx._Ptr);

  00122	8b 36		 mov	 esi, DWORD PTR [esi]
$LN17@Warp:

; 1434 :         assign(_Right._Mypair._Myval2._Myptr(), _Right._Mypair._Myval2._Mysize);

  00124	50		 push	 eax
  00125	56		 push	 esi
  00126	8b cf		 mov	 ecx, edi
  00128	e8 00 00 00 00	 call	 ?assign@?$basic_string@DU?$char_traits@D@std@@V?$allocator@D@2@@std@@QAEAAV12@QBDI@Z ; std::basic_string<char,std::char_traits<char>,std::allocator<char> >::assign
$LN13@Warp:
; File C:\Anka2Project\Anka2Project\Source\Binary\source\UserInterface\PythonBackground.cpp

; 737  : 	SetXMaxTree(m_iXMasTreeGrade);

  0012d	ff b3 50 15 00
	00		 push	 DWORD PTR [ebx+5456]
  00133	8b cb		 mov	 ecx, ebx
  00135	e8 00 00 00 00	 call	 ?SetXMaxTree@CPythonBackground@@QAEXH@Z ; CPythonBackground::SetXMaxTree
; File C:\Program Files\Microsoft Visual Studio\2022\Community\VC\Tools\MSVC\14.44.35207\include\xtree

; 1384 :         const _Tree_find_result<_Nodeptr> _Loc = _Find_lower_bound(_Keyval);

  0013a	57		 push	 edi
  0013b	8d 4d f4	 lea	 ecx, DWORD PTR __Loc$35[ebp]
  0013e	51		 push	 ecx
  0013f	8d 8b ec 15 00
	00		 lea	 ecx, DWORD PTR [ebx+5612]
  00145	e8 00 00 00 00	 call	 ??$_Find_lower_bound@V?$basic_string@DU?$char_traits@D@std@@V?$allocator@D@2@@std@@@?$_Tree@V?$_Tset_traits@V?$basic_string@DU?$char_traits@D@std@@V?$allocator@D@2@@std@@U?$less@V?$basic_string@DU?$char_traits@D@std@@V?$allocator@D@2@@std@@@2@V?$allocator@V?$basic_string@DU?$char_traits@D@std@@V?$allocator@D@2@@std@@@2@$0A@@std@@@std@@IBE?AU?$_Tree_find_result@PAU?$_Tree_node@V?$basic_string@DU?$char_traits@D@std@@V?$allocator@D@2@@std@@PAX@std@@@1@ABV?$basic_string@DU?$char_traits@D@std@@V?$allocator@D@2@@1@@Z ; std::_Tree<std::_Tset_traits<std::basic_string<char,std::char_traits<char>,std::allocator<char> >,std::less<std::basic_string<char,std::char_traits<char>,std::allocator<char> > >,std::allocator<std::basic_string<char,std::char_traits<char>,std::allocator<char> > >,0> >::_Find_lower_bound<std::basic_string<char,std::char_traits<char>,std::allocator<char> > >

; 1624 :         return !_Bound->_Isnil && !_DEBUG_LT_PRED(_Getcomp(), _Keyval, _Traits::_Kfn(_Bound->_Myval));

  0014a	8b 75 fc	 mov	 esi, DWORD PTR __Loc$35[ebp+8]
  0014d	80 7e 0d 00	 cmp	 BYTE PTR [esi+13], 0
  00151	75 3a		 jne	 SHORT $LN35@Warp
; File C:\Program Files\Microsoft Visual Studio\2022\Community\VC\Tools\MSVC\14.44.35207\include\xstring

; 453  :         return _Myres > _Small_string_capacity;

  00153	83 7e 24 0f	 cmp	 DWORD PTR [esi+36], 15	; 0000000fH
; File C:\Program Files\Microsoft Visual Studio\2022\Community\VC\Tools\MSVC\14.44.35207\include\xtree

; 1624 :         return !_Bound->_Isnil && !_DEBUG_LT_PRED(_Getcomp(), _Keyval, _Traits::_Kfn(_Bound->_Myval));

  00157	8d 46 10	 lea	 eax, DWORD PTR [esi+16]
; File C:\Program Files\Microsoft Visual Studio\2022\Community\VC\Tools\MSVC\14.44.35207\include\xstring

; 2890 :         return _Traits_compare<_Traits>(_Mypair._Myval2._Myptr(), _Mypair._Myval2._Mysize,

  0015a	8b 50 10	 mov	 edx, DWORD PTR [eax+16]

; 445  :         if (_Large_mode_engaged()) {

  0015d	76 02		 jbe	 SHORT $LN55@Warp

; 446  :             _Result = _Unfancy(_Bx._Ptr);

  0015f	8b 00		 mov	 eax, DWORD PTR [eax]
$LN55@Warp:

; 453  :         return _Myres > _Small_string_capacity;

  00161	83 7f 14 0f	 cmp	 DWORD PTR [edi+20], 15	; 0000000fH

; 2890 :         return _Traits_compare<_Traits>(_Mypair._Myval2._Myptr(), _Mypair._Myval2._Mysize,

  00165	8b 4f 10	 mov	 ecx, DWORD PTR [edi+16]

; 445  :         if (_Large_mode_engaged()) {

  00168	76 02		 jbe	 SHORT $LN62@Warp

; 446  :             _Result = _Unfancy(_Bx._Ptr);

  0016a	8b 3f		 mov	 edi, DWORD PTR [edi]
$LN62@Warp:

; 2890 :         return _Traits_compare<_Traits>(_Mypair._Myval2._Myptr(), _Mypair._Myval2._Mysize,

  0016c	52		 push	 edx
  0016d	50		 push	 eax
  0016e	51		 push	 ecx
  0016f	57		 push	 edi
  00170	e8 00 00 00 00	 call	 ??$_Traits_compare@U?$char_traits@D@std@@@std@@YAHQBDI0I@Z ; std::_Traits_compare<std::char_traits<char> >
  00175	83 c4 10	 add	 esp, 16			; 00000010H

; 3272 :     return static_cast<_Get_comparison_category_t<_Traits>>(_Left.compare(_Right) <=> 0);

  00178	85 c0		 test	 eax, eax
  0017a	74 17		 je	 SHORT $LN34@Warp
  0017c	b9 ff 00 00 00	 mov	 ecx, 255		; 000000ffH
  00181	ba 01 00 00 00	 mov	 edx, 1
  00186	0f 49 ca	 cmovns	 ecx, edx
; File C:\Program Files\Microsoft Visual Studio\2022\Community\VC\Tools\MSVC\14.44.35207\include\compare

; 193  :         return _Val._Value < 0;

  00189	84 c9		 test	 cl, cl
; File C:\Program Files\Microsoft Visual Studio\2022\Community\VC\Tools\MSVC\14.44.35207\include\xtree

; 1624 :         return !_Bound->_Isnil && !_DEBUG_LT_PRED(_Getcomp(), _Keyval, _Traits::_Kfn(_Bound->_Myval));

  0018b	79 06		 jns	 SHORT $LN34@Warp
$LN35@Warp:

; 1389 :         return _Get_scary()->_Myhead;

  0018d	8b b3 ec 15 00
	00		 mov	 esi, DWORD PTR [ebx+5612]
$LN34@Warp:

; 232  :         return this->_Ptr == _Right._Ptr;

  00193	39 b3 ec 15 00
	00		 cmp	 DWORD PTR [ebx+5612], esi
; File C:\Anka2Project\Anka2Project\Source\Binary\source\UserInterface\PythonBackground.cpp

; 739  : 	if (m_kSet_strDungeonMapName.end() != m_kSet_strDungeonMapName.find(m_strMapName))

  00199	74 17		 je	 SHORT $LN4@Warp

; 740  : 	{
; 741  : 		EnableTerrainOnlyForHeight();

  0019b	8b cb		 mov	 ecx, ebx
  0019d	e8 00 00 00 00	 call	 ?EnableTerrainOnlyForHeight@CPythonBackground@@QAEXXZ ; CPythonBackground::EnableTerrainOnlyForHeight

; 742  : 
; 743  : 		CMapOutdoor& rkMap=GetMapOutdoorRef();

  001a2	8b cb		 mov	 ecx, ebx
  001a4	e8 00 00 00 00	 call	 ?GetMapOutdoorRef@CMapManager@@QAEAAVCMapOutdoor@@XZ ; CMapManager::GetMapOutdoorRef

; 744  : 		rkMap.EnablePortal(TRUE);

  001a9	6a 01		 push	 1
  001ab	8b c8		 mov	 ecx, eax
  001ad	e8 00 00 00 00	 call	 ?EnablePortal@CMapOutdoor@@QAEX_N@Z ; CMapOutdoor::EnablePortal
$LN4@Warp:
; File C:\Program Files\Microsoft Visual Studio\2022\Community\VC\Tools\MSVC\14.44.35207\include\xtree

; 1373 :         auto _Head = _Scary->_Myhead;

  001b2	8b b3 e4 15 00
	00		 mov	 esi, DWORD PTR [ebx+5604]
; File C:\Anka2Project\Anka2Project\Source\Binary\source\UserInterface\PythonBackground.cpp

; 747  : 	m_kSet_iShowingPortalID.clear();

  001b8	8d bb e4 15 00
	00		 lea	 edi, DWORD PTR [ebx+5604]
; File C:\Program Files\Microsoft Visual Studio\2022\Community\VC\Tools\MSVC\14.44.35207\include\xtree

; 1374 :         _Scary->_Erase_tree(_Getal(), _Head->_Parent);

  001be	8b cf		 mov	 ecx, edi
  001c0	ff 76 04	 push	 DWORD PTR [esi+4]
  001c3	57		 push	 edi
  001c4	e8 00 00 00 00	 call	 ??$_Erase_tree@V?$allocator@U?$_Tree_node@HPAX@std@@@std@@@?$_Tree_val@U?$_Tree_simple_types@H@std@@@std@@QAEXAAV?$allocator@U?$_Tree_node@HPAX@std@@@1@PAU?$_Tree_node@HPAX@1@@Z ; std::_Tree_val<std::_Tree_simple_types<int> >::_Erase_tree<std::allocator<std::_Tree_node<int,void *> > >

; 1375 :         _Head->_Parent  = _Head;

  001c9	89 76 04	 mov	 DWORD PTR [esi+4], esi

; 1376 :         _Head->_Left    = _Head;

  001cc	89 36		 mov	 DWORD PTR [esi], esi

; 1377 :         _Head->_Right   = _Head;

  001ce	89 76 08	 mov	 DWORD PTR [esi+8], esi

; 1378 :         _Scary->_Mysize = 0;

  001d1	c7 47 04 00 00
	00 00		 mov	 DWORD PTR [edi+4], 0
; File C:\Anka2Project\Anka2Project\Source\Binary\source\UserInterface\PythonBackground.cpp

; 748  : 	m_kMap_dwTargetID_dwChrID.clear();

  001d8	8d bb f4 15 00
	00		 lea	 edi, DWORD PTR [ebx+5620]
; File C:\Program Files\Microsoft Visual Studio\2022\Community\VC\Tools\MSVC\14.44.35207\include\xtree

; 1373 :         auto _Head = _Scary->_Myhead;

  001de	8b 37		 mov	 esi, DWORD PTR [edi]

; 1374 :         _Scary->_Erase_tree(_Getal(), _Head->_Parent);

  001e0	8b cf		 mov	 ecx, edi
  001e2	ff 76 04	 push	 DWORD PTR [esi+4]
  001e5	57		 push	 edi
  001e6	e8 00 00 00 00	 call	 ??$_Erase_tree@V?$allocator@U?$_Tree_node@U?$pair@$$CBKK@std@@PAX@std@@@std@@@?$_Tree_val@U?$_Tree_simple_types@U?$pair@$$CBKK@std@@@std@@@std@@QAEXAAV?$allocator@U?$_Tree_node@U?$pair@$$CBKK@std@@PAX@std@@@1@PAU?$_Tree_node@U?$pair@$$CBKK@std@@PAX@1@@Z ; std::_Tree_val<std::_Tree_simple_types<std::pair<unsigned long const ,unsigned long> > >::_Erase_tree<std::allocator<std::_Tree_node<std::pair<unsigned long const ,unsigned long>,void *> > >

; 1375 :         _Head->_Parent  = _Head;

  001eb	89 76 04	 mov	 DWORD PTR [esi+4], esi

; 1376 :         _Head->_Left    = _Head;

  001ee	89 36		 mov	 DWORD PTR [esi], esi

; 1377 :         _Head->_Right   = _Head;

  001f0	89 76 08	 mov	 DWORD PTR [esi+8], esi

; 1378 :         _Scary->_Mysize = 0;

  001f3	c7 47 04 00 00
	00 00		 mov	 DWORD PTR [edi+4], 0
; File C:\Anka2Project\Anka2Project\Source\Binary\source\UserInterface\PythonBackground.cpp

; 749  : 	m_kMap_dwID_kReserveTargetEffect.clear();

  001fa	8d bb fc 15 00
	00		 lea	 edi, DWORD PTR [ebx+5628]
; File C:\Program Files\Microsoft Visual Studio\2022\Community\VC\Tools\MSVC\14.44.35207\include\xtree

; 1373 :         auto _Head = _Scary->_Myhead;

  00200	8b 37		 mov	 esi, DWORD PTR [edi]

; 1374 :         _Scary->_Erase_tree(_Getal(), _Head->_Parent);

  00202	8b cf		 mov	 ecx, edi
  00204	ff 76 04	 push	 DWORD PTR [esi+4]
  00207	57		 push	 edi
  00208	e8 00 00 00 00	 call	 ??$_Erase_tree@V?$allocator@U?$_Tree_node@U?$pair@$$CBKUSReserveTargetEffect@CPythonBackground@@@std@@PAX@std@@@std@@@?$_Tree_val@U?$_Tree_simple_types@U?$pair@$$CBKUSReserveTargetEffect@CPythonBackground@@@std@@@std@@@std@@QAEXAAV?$allocator@U?$_Tree_node@U?$pair@$$CBKUSReserveTargetEffect@CPythonBackground@@@std@@PAX@std@@@1@PAU?$_Tree_node@U?$pair@$$CBKUSReserveTargetEffect@CPythonBackground@@@std@@PAX@1@@Z ; std::_Tree_val<std::_Tree_simple_types<std::pair<unsigned long const ,CPythonBackground::SReserveTargetEffect> > >::_Erase_tree<std::allocator<std::_Tree_node<std::pair<unsigned long const ,CPythonBackground::SReserveTargetEffect>,void *> > >

; 1375 :         _Head->_Parent  = _Head;

  0020d	89 76 04	 mov	 DWORD PTR [esi+4], esi

; 1376 :         _Head->_Left    = _Head;

  00210	89 36		 mov	 DWORD PTR [esi], esi

; 1377 :         _Head->_Right   = _Head;

  00212	89 76 08	 mov	 DWORD PTR [esi+8], esi

; 1378 :         _Scary->_Mysize = 0;

  00215	c7 47 04 00 00
	00 00		 mov	 DWORD PTR [edi+4], 0
; File C:\Anka2Project\Anka2Project\Source\Binary\source\UserInterface\PythonBackground.cpp

; 752  : 	if (GetDayMode() != DAY_MODE_LIGHT && GetNightModeOption() && IsBoomMap(m_strMapName))

  0021c	83 bb 4c 15 00
	00 00		 cmp	 DWORD PTR [ebx+5452], 0
  00223	74 44		 je	 SHORT $LN6@Warp
  00225	8b cb		 mov	 ecx, ebx
  00227	e8 00 00 00 00	 call	 ?GetNightModeOption@CPythonBackground@@QBE_NXZ ; CPythonBackground::GetNightModeOption
  0022c	84 c0		 test	 al, al
  0022e	74 39		 je	 SHORT $LN6@Warp
  00230	8d 83 dc 14 00
	00		 lea	 eax, DWORD PTR [ebx+5340]
  00236	50		 push	 eax
  00237	e8 00 00 00 00	 call	 ?IsBoomMap@CPythonBackground@@QBE_NABV?$basic_string@DU?$char_traits@D@std@@V?$allocator@D@2@@std@@@Z ; CPythonBackground::IsBoomMap
  0023c	84 c0		 test	 al, al
  0023e	74 29		 je	 SHORT $LN6@Warp

; 753  : 	{
; 754  : 		RegisterEnvironmentData(DAY_MODE_DARK, "d:/ymir work/environment/moonlight04.msenv");

  00240	68 00 00 00 00	 push	 OFFSET ??_C@_0CL@JOLELNDN@d?3?1ymir?5work?1environment?1moonli@
  00245	6a 01		 push	 1
  00247	8b cb		 mov	 ecx, ebx
  00249	e8 00 00 00 00	 call	 ?RegisterEnvironmentData@CMapManager@@QAE_NKPBD@Z ; CMapManager::RegisterEnvironmentData

; 755  : 
; 756  : 		const TEnvironmentData* c_pEnvironmenData;
; 757  : 		if (GetEnvironmentData(DAY_MODE_DARK, &c_pEnvironmenData))

  0024e	8d 45 08	 lea	 eax, DWORD PTR _c_pEnvironmenData$36[ebp]
  00251	8b cb		 mov	 ecx, ebx
  00253	50		 push	 eax
  00254	6a 01		 push	 1
  00256	e8 00 00 00 00	 call	 ?GetEnvironmentData@CMapManager@@QAE_NKPAPBUSEnvironmentData@@@Z ; CMapManager::GetEnvironmentData
  0025b	84 c0		 test	 al, al
  0025d	74 0a		 je	 SHORT $LN6@Warp

; 758  : 			ResetEnvironmentDataPtr(c_pEnvironmenData);

  0025f	ff 75 08	 push	 DWORD PTR _c_pEnvironmenData$36[ebp]
  00262	8b cb		 mov	 ecx, ebx
  00264	e8 00 00 00 00	 call	 ?ResetEnvironmentDataPtr@CMapManager@@QAEXPBUSEnvironmentData@@@Z ; CMapManager::ResetEnvironmentDataPtr
$LN6@Warp:

; 759  : 	}
; 760  : #endif
; 761  : }

  00269	5f		 pop	 edi
  0026a	5e		 pop	 esi
  0026b	5b		 pop	 ebx
  0026c	8b e5		 mov	 esp, ebp
  0026e	5d		 pop	 ebp
  0026f	c2 08 00	 ret	 8
?Warp@CPythonBackground@@QAEXKK@Z ENDP			; CPythonBackground::Warp
_TEXT	ENDS
; Function compile flags: /Ogtp
;	COMDAT ??__Fs_strEffectName@?1??SetXMaxTree@CPythonBackground@@QAEXH@Z@YAXXZ
text$yd	SEGMENT
??__Fs_strEffectName@?1??SetXMaxTree@CPythonBackground@@QAEXH@Z@YAXXZ PROC ; `CPythonBackground::SetXMaxTree'::`2'::`dynamic atexit destructor for 's_strEffectName'', COMDAT
  00000	68 00 00 00 00	 push	 OFFSET ??1?$basic_string@DU?$char_traits@D@std@@V?$allocator@D@2@@std@@QAE@XZ ; std::basic_string<char,std::char_traits<char>,std::allocator<char> >::~basic_string<char,std::char_traits<char>,std::allocator<char> >
  00005	6a 03		 push	 3
  00007	6a 18		 push	 24			; 00000018H
  00009	68 00 00 00 00	 push	 OFFSET ?s_strEffectName@?1??SetXMaxTree@CPythonBackground@@QAEXH@Z@4PAV?$basic_string@DU?$char_traits@D@std@@V?$allocator@D@2@@std@@A
  0000e	e8 00 00 00 00	 call	 ??_M@YGXPAXIIP6EX0@Z@Z
  00013	c3		 ret	 0
??__Fs_strEffectName@?1??SetXMaxTree@CPythonBackground@@QAEXH@Z@YAXXZ ENDP ; `CPythonBackground::SetXMaxTree'::`2'::`dynamic atexit destructor for 's_strEffectName''
text$yd	ENDS
; Function compile flags: /Ogtp
;	COMDAT ??__Fs_strTreeName@?1??SetXMaxTree@CPythonBackground@@QAEXH@Z@YAXXZ
text$yd	SEGMENT
??__Fs_strTreeName@?1??SetXMaxTree@CPythonBackground@@QAEXH@Z@YAXXZ PROC ; `CPythonBackground::SetXMaxTree'::`2'::`dynamic atexit destructor for 's_strTreeName'', COMDAT
  00000	68 00 00 00 00	 push	 OFFSET ??1?$basic_string@DU?$char_traits@D@std@@V?$allocator@D@2@@std@@QAE@XZ ; std::basic_string<char,std::char_traits<char>,std::allocator<char> >::~basic_string<char,std::char_traits<char>,std::allocator<char> >
  00005	6a 03		 push	 3
  00007	6a 18		 push	 24			; 00000018H
  00009	68 00 00 00 00	 push	 OFFSET ?s_strTreeName@?1??SetXMaxTree@CPythonBackground@@QAEXH@Z@4PAV?$basic_string@DU?$char_traits@D@std@@V?$allocator@D@2@@std@@A
  0000e	e8 00 00 00 00	 call	 ??_M@YGXPAXIIP6EX0@Z@Z
  00013	c3		 ret	 0
??__Fs_strTreeName@?1??SetXMaxTree@CPythonBackground@@QAEXH@Z@YAXXZ ENDP ; `CPythonBackground::SetXMaxTree'::`2'::`dynamic atexit destructor for 's_strTreeName''
text$yd	ENDS
; Function compile flags: /Ogtp
; File C:\Anka2Project\Anka2Project\Source\Binary\source\UserInterface\PythonBackground.cpp
; File C:\Program Files\Microsoft Visual Studio\2022\Community\VC\Tools\MSVC\14.44.35207\include\xtree
; File C:\Anka2Project\Anka2Project\Source\Binary\source\UserInterface\PythonBackground.cpp
; File C:\Program Files\Microsoft Visual Studio\2022\Community\VC\Tools\MSVC\14.44.35207\include\xtree
; File C:\Program Files\Microsoft Visual Studio\2022\Community\VC\Tools\MSVC\14.44.35207\include\type_traits
; File C:\Program Files\Microsoft Visual Studio\2022\Community\VC\Tools\MSVC\14.44.35207\include\xtree
; File C:\Anka2Project\Anka2Project\Source\Binary\source\UserInterface\PythonBackground.cpp
; File C:\Program Files\Microsoft Visual Studio\2022\Community\VC\Tools\MSVC\14.44.35207\include\utility
; File C:\Anka2Project\Anka2Project\Source\Binary\source\UserInterface\PythonBackground.cpp
; File C:\Program Files\Microsoft Visual Studio\2022\Community\VC\Tools\MSVC\14.44.35207\include\utility
; File C:\Program Files\Microsoft Visual Studio\2022\Community\VC\Tools\MSVC\14.44.35207\include\xtree
; File C:\Program Files\Microsoft Visual Studio\2022\Community\VC\Tools\MSVC\14.44.35207\include\utility
; File C:\Program Files\Microsoft Visual Studio\2022\Community\VC\Tools\MSVC\14.44.35207\include\xtree
; File C:\Program Files\Microsoft Visual Studio\2022\Community\VC\Tools\MSVC\14.44.35207\include\utility
; File C:\Program Files\Microsoft Visual Studio\2022\Community\VC\Tools\MSVC\14.44.35207\include\xtree
; File C:\Program Files\Microsoft Visual Studio\2022\Community\VC\Tools\MSVC\14.44.35207\include\type_traits
; File C:\Program Files\Microsoft Visual Studio\2022\Community\VC\Tools\MSVC\14.44.35207\include\xtree
; File C:\Program Files\Microsoft Visual Studio\2022\Community\VC\Tools\MSVC\14.44.35207\include\xmemory
; File C:\Program Files\Microsoft Visual Studio\2022\Community\VC\Tools\MSVC\14.44.35207\include\xtree
; File C:\Program Files\Microsoft Visual Studio\2022\Community\VC\Tools\MSVC\14.44.35207\include\xmemory
; File C:\Program Files\Microsoft Visual Studio\2022\Community\VC\Tools\MSVC\14.44.35207\include\utility
; File C:\Program Files\Microsoft Visual Studio\2022\Community\VC\Tools\MSVC\14.44.35207\include\xmemory
; File C:\Program Files\Microsoft Visual Studio\2022\Community\VC\Tools\MSVC\14.44.35207\include\utility
; File C:\Program Files\Microsoft Visual Studio\2022\Community\VC\Tools\MSVC\14.44.35207\include\xtree
; File C:\Program Files\Microsoft Visual Studio\2022\Community\VC\Tools\MSVC\14.44.35207\include\utility
; File C:\Program Files\Microsoft Visual Studio\2022\Community\VC\Tools\MSVC\14.44.35207\include\xtree
; File C:\Anka2Project\Anka2Project\Source\Binary\source\UserInterface\PythonBackground.cpp
; File C:\Program Files\Microsoft Visual Studio\2022\Community\VC\Tools\MSVC\14.44.35207\include\xstring
; File C:\Anka2Project\Anka2Project\Source\Binary\source\UserInterface\PythonBackground.cpp
; File C:\Program Files\Microsoft Visual Studio\2022\Community\VC\Tools\MSVC\14.44.35207\include\xtree
; File C:\Anka2Project\Anka2Project\Source\Binary\source\UserInterface\PythonBackground.cpp
;	COMDAT ?CreateTargetEffect@CPythonBackground@@QAEXKJJ@Z
_TEXT	SEGMENT
$T17 = -56						; size = 12
__Loc$47 = -44						; size = 12
__Loc$48 = -44						; size = 12
$T15 = -32						; size = 12
$T23 = -28						; size = 8
_dwBaseY$ = -20						; size = 4
_dwBaseX$ = -16						; size = 4
__$EHRec$ = -12						; size = 12
_dwID$ = 8						; size = 4
_ReserveTargetEffect$2$ = 8				; size = 4
_lx$ = 12						; size = 4
_ly$ = 16						; size = 4
_fHeight$ = 16						; size = 4
tv159 = 16						; size = 4
?CreateTargetEffect@CPythonBackground@@QAEXKJJ@Z PROC	; CPythonBackground::CreateTargetEffect, COMDAT
; _this$ = ecx

; 859  : {

  00000	55		 push	 ebp
  00001	8b ec		 mov	 ebp, esp
  00003	6a ff		 push	 -1
  00005	68 00 00 00 00	 push	 __ehhandler$?CreateTargetEffect@CPythonBackground@@QAEXKJJ@Z
  0000a	64 a1 00 00 00
	00		 mov	 eax, DWORD PTR fs:0
  00010	50		 push	 eax
  00011	83 ec 2c	 sub	 esp, 44			; 0000002cH
  00014	53		 push	 ebx
  00015	56		 push	 esi
  00016	57		 push	 edi
  00017	a1 00 00 00 00	 mov	 eax, DWORD PTR ___security_cookie
  0001c	33 c5		 xor	 eax, ebp
  0001e	50		 push	 eax
  0001f	8d 45 f4	 lea	 eax, DWORD PTR __$EHRec$[ebp]
  00022	64 a3 00 00 00
	00		 mov	 DWORD PTR fs:0, eax
  00028	8b d9		 mov	 ebx, ecx
; File C:\Program Files\Microsoft Visual Studio\2022\Community\VC\Tools\MSVC\14.44.35207\include\xtree

; 37   :     _Tree_unchecked_const_iterator(_Nodeptr _Pnode, const _Mytree* _Plist) noexcept : _Ptr(_Pnode) {

  0002a	8b b3 f4 15 00
	00		 mov	 esi, DWORD PTR [ebx+5620]

; 1384 :         const _Tree_find_result<_Nodeptr> _Loc = _Find_lower_bound(_Keyval);

  00030	8d 45 08	 lea	 eax, DWORD PTR _dwID$[ebp]
  00033	50		 push	 eax
  00034	8d 45 d4	 lea	 eax, DWORD PTR __Loc$47[ebp]
; File C:\Anka2Project\Anka2Project\Source\Binary\source\UserInterface\PythonBackground.cpp

; 860  : 	if (m_kMap_dwTargetID_dwChrID.end() != m_kMap_dwTargetID_dwChrID.find(dwID))

  00037	8d 8b f4 15 00
	00		 lea	 ecx, DWORD PTR [ebx+5620]
; File C:\Program Files\Microsoft Visual Studio\2022\Community\VC\Tools\MSVC\14.44.35207\include\xtree

; 1384 :         const _Tree_find_result<_Nodeptr> _Loc = _Find_lower_bound(_Keyval);

  0003d	50		 push	 eax
  0003e	e8 00 00 00 00	 call	 ??$_Find_lower_bound@K@?$_Tree@V?$_Tmap_traits@KKU?$less@K@std@@V?$allocator@U?$pair@$$CBKK@std@@@2@$0A@@std@@@std@@IBE?AU?$_Tree_find_result@PAU?$_Tree_node@U?$pair@$$CBKK@std@@PAX@std@@@1@ABK@Z ; std::_Tree<std::_Tmap_traits<unsigned long,unsigned long,std::less<unsigned long>,std::allocator<std::pair<unsigned long const ,unsigned long> >,0> >::_Find_lower_bound<unsigned long>

; 1624 :         return !_Bound->_Isnil && !_DEBUG_LT_PRED(_Getcomp(), _Keyval, _Traits::_Kfn(_Bound->_Myval));

  00043	8b 45 dc	 mov	 eax, DWORD PTR __Loc$47[ebp+8]
  00046	8b 7d 08	 mov	 edi, DWORD PTR _dwID$[ebp]
  00049	80 78 0d 00	 cmp	 BYTE PTR [eax+13], 0
  0004d	75 0d		 jne	 SHORT $LN173@CreateTarg
; File C:\Program Files\Microsoft Visual Studio\2022\Community\VC\Tools\MSVC\14.44.35207\include\type_traits

; 2380 :         return _Left < _Right;

  0004f	3b 78 10	 cmp	 edi, DWORD PTR [eax+16]
; File C:\Program Files\Microsoft Visual Studio\2022\Community\VC\Tools\MSVC\14.44.35207\include\xtree

; 1624 :         return !_Bound->_Isnil && !_DEBUG_LT_PRED(_Getcomp(), _Keyval, _Traits::_Kfn(_Bound->_Myval));

  00052	72 08		 jb	 SHORT $LN173@CreateTarg

; 232  :         return this->_Ptr == _Right._Ptr;

  00054	3b f0		 cmp	 esi, eax
; File C:\Anka2Project\Anka2Project\Source\Binary\source\UserInterface\PythonBackground.cpp

; 860  : 	if (m_kMap_dwTargetID_dwChrID.end() != m_kMap_dwTargetID_dwChrID.find(dwID))

  00056	0f 85 45 01 00
	00		 jne	 $LN1@CreateTarg
$LN173@CreateTarg:

; 861  : 		return;
; 862  : 
; 863  : 	CMapOutdoor& rkMap=GetMapOutdoorRef();

  0005c	8b cb		 mov	 ecx, ebx
  0005e	e8 00 00 00 00	 call	 ?GetMapOutdoorRef@CMapManager@@QAEAAVCMapOutdoor@@XZ ; CMapManager::GetMapOutdoorRef
  00063	8b f0		 mov	 esi, eax

; 864  : 
; 865  : 	DWORD dwBaseX;
; 866  : 	DWORD dwBaseY;
; 867  : 	rkMap.GetBaseXY(&dwBaseX, &dwBaseY);

  00065	8d 45 ec	 lea	 eax, DWORD PTR _dwBaseY$[ebp]
  00068	50		 push	 eax
  00069	8d 45 f0	 lea	 eax, DWORD PTR _dwBaseX$[ebp]
  0006c	8b ce		 mov	 ecx, esi
  0006e	50		 push	 eax
  0006f	e8 00 00 00 00	 call	 ?GetBaseXY@CMapOutdoor@@QAEXPAK0@Z ; CMapOutdoor::GetBaseXY

; 868  : 
; 869  : 	int ilx = +(lx-int(dwBaseX));
; 870  : 	int ily = -(ly-int(dwBaseY));

  00074	8b 55 ec	 mov	 edx, DWORD PTR _dwBaseY$[ebp]

; 871  : 
; 872  : 	float fHeight = rkMap.GetHeight(float(ilx), float(ily));

  00077	83 ec 08	 sub	 esp, 8
  0007a	2b 55 10	 sub	 edx, DWORD PTR _ly$[ebp]
  0007d	8b 4d 0c	 mov	 ecx, DWORD PTR _lx$[ebp]
  00080	2b 4d f0	 sub	 ecx, DWORD PTR _dwBaseX$[ebp]
  00083	8b 06		 mov	 eax, DWORD PTR [esi]
  00085	66 0f 6e c2	 movd	 xmm0, edx
  00089	0f 5b c0	 cvtdq2ps xmm0, xmm0
  0008c	89 4d 0c	 mov	 DWORD PTR _lx$[ebp], ecx
  0008f	8b 40 1c	 mov	 eax, DWORD PTR [eax+28]
  00092	89 45 10	 mov	 DWORD PTR tv159[ebp], eax
  00095	89 55 08	 mov	 DWORD PTR _ReserveTargetEffect$2$[ebp], edx
  00098	66 0f 6e c9	 movd	 xmm1, ecx
  0009c	8b ce		 mov	 ecx, esi
  0009e	0f 5b c9	 cvtdq2ps xmm1, xmm1
  000a1	f3 0f 11 44 24
	04		 movss	 DWORD PTR [esp+4], xmm0
  000a7	f3 0f 11 0c 24	 movss	 DWORD PTR [esp], xmm1
  000ac	ff 55 10	 call	 DWORD PTR tv159[ebp]
  000af	d9 5d 10	 fstp	 DWORD PTR _fHeight$[ebp]

; 873  : 
; 874  : 	if (0.0f == fHeight)

  000b2	f3 0f 10 4d 10	 movss	 xmm1, DWORD PTR _fHeight$[ebp]
  000b7	0f 57 c0	 xorps	 xmm0, xmm0
  000ba	0f 2e c1	 ucomiss xmm0, xmm1
  000bd	9f		 lahf
  000be	f6 c4 44	 test	 ah, 68			; 00000044H
  000c1	0f 8a a8 00 00
	00		 jp	 $LN3@CreateTarg
; File C:\Program Files\Microsoft Visual Studio\2022\Community\VC\Tools\MSVC\14.44.35207\include\utility

; 274  :         : first(_STD forward<_Other1>(_Val1)), second(_STD forward<_Other2>(_Val2)) {

  000c7	8b 45 0c	 mov	 eax, DWORD PTR _lx$[ebp]
; File C:\Anka2Project\Anka2Project\Source\Binary\source\UserInterface\PythonBackground.cpp

; 879  : 		m_kMap_dwID_kReserveTargetEffect.insert(std::make_pair(dwID, ReserveTargetEffect));

  000ca	81 c3 fc 15 00
	00		 add	 ebx, 5628		; 000015fcH
; File C:\Program Files\Microsoft Visual Studio\2022\Community\VC\Tools\MSVC\14.44.35207\include\utility

; 274  :         : first(_STD forward<_Other1>(_Val1)), second(_STD forward<_Other2>(_Val2)) {

  000d0	89 45 e4	 mov	 DWORD PTR $T15[ebp+4], eax
; File C:\Program Files\Microsoft Visual Studio\2022\Community\VC\Tools\MSVC\14.44.35207\include\xtree

; 1017 :             _Loc                = _Find_lower_bound(_Keyval);

  000d3	8b cb		 mov	 ecx, ebx
; File C:\Program Files\Microsoft Visual Studio\2022\Community\VC\Tools\MSVC\14.44.35207\include\utility

; 274  :         : first(_STD forward<_Other1>(_Val1)), second(_STD forward<_Other2>(_Val2)) {

  000d5	8b 45 08	 mov	 eax, DWORD PTR _ReserveTargetEffect$2$[ebp]
  000d8	89 45 e8	 mov	 DWORD PTR $T15[ebp+8], eax
; File C:\Program Files\Microsoft Visual Studio\2022\Community\VC\Tools\MSVC\14.44.35207\include\xtree

; 1017 :             _Loc                = _Find_lower_bound(_Keyval);

  000db	8d 45 e0	 lea	 eax, DWORD PTR $T15[ebp]
  000de	50		 push	 eax
  000df	8d 45 c8	 lea	 eax, DWORD PTR $T17[ebp]
; File C:\Program Files\Microsoft Visual Studio\2022\Community\VC\Tools\MSVC\14.44.35207\include\utility

; 274  :         : first(_STD forward<_Other1>(_Val1)), second(_STD forward<_Other2>(_Val2)) {

  000e2	89 7d e0	 mov	 DWORD PTR $T15[ebp], edi
; File C:\Program Files\Microsoft Visual Studio\2022\Community\VC\Tools\MSVC\14.44.35207\include\xtree

; 1017 :             _Loc                = _Find_lower_bound(_Keyval);

  000e5	50		 push	 eax
  000e6	e8 00 00 00 00	 call	 ??$_Find_lower_bound@K@?$_Tree@V?$_Tmap_traits@KUSReserveTargetEffect@CPythonBackground@@U?$less@K@std@@V?$allocator@U?$pair@$$CBKUSReserveTargetEffect@CPythonBackground@@@std@@@4@$0A@@std@@@std@@IBE?AU?$_Tree_find_result@PAU?$_Tree_node@U?$pair@$$CBKUSReserveTargetEffect@CPythonBackground@@@std@@PAX@std@@@1@ABK@Z ; std::_Tree<std::_Tmap_traits<unsigned long,CPythonBackground::SReserveTargetEffect,std::less<unsigned long>,std::allocator<std::pair<unsigned long const ,CPythonBackground::SReserveTargetEffect> >,0> >::_Find_lower_bound<unsigned long>
  000eb	f3 0f 7e 00	 movq	 xmm0, QWORD PTR [eax]
  000ef	8b 40 08	 mov	 eax, DWORD PTR [eax+8]
  000f2	66 0f d6 45 d4	 movq	 QWORD PTR __Loc$48[ebp], xmm0

; 1624 :         return !_Bound->_Isnil && !_DEBUG_LT_PRED(_Getcomp(), _Keyval, _Traits::_Kfn(_Bound->_Myval));

  000f7	80 78 0d 00	 cmp	 BYTE PTR [eax+13], 0
  000fb	75 09		 jne	 SHORT $LN57@CreateTarg
; File C:\Program Files\Microsoft Visual Studio\2022\Community\VC\Tools\MSVC\14.44.35207\include\type_traits

; 2380 :         return _Left < _Right;

  000fd	3b 78 10	 cmp	 edi, DWORD PTR [eax+16]
; File C:\Program Files\Microsoft Visual Studio\2022\Community\VC\Tools\MSVC\14.44.35207\include\xtree

; 1624 :         return !_Bound->_Isnil && !_DEBUG_LT_PRED(_Getcomp(), _Keyval, _Traits::_Kfn(_Bound->_Myval));

  00100	0f 83 9b 00 00
	00		 jae	 $LN1@CreateTarg
$LN57@CreateTarg:

; 1648 :         if (max_size() == _Get_scary()->_Mysize) {

  00106	81 7b 04 49 92
	24 09		 cmp	 DWORD PTR [ebx+4], 153391689 ; 09249249H
  0010d	0f 84 a2 00 00
	00		 je	 $LN177@CreateTarg

; 1023 :             _Inserted = _Tree_temp_node<_Alnode>(_Getal(), _Scary->_Myhead, _STD forward<_Valtys>(_Vals)...)._Release();

  00113	8b 33		 mov	 esi, DWORD PTR [ebx]
; File C:\Program Files\Microsoft Visual Studio\2022\Community\VC\Tools\MSVC\14.44.35207\include\xmemory

; 1160 :     _CONSTEXPR20 explicit _Alloc_construct_ptr(_Alloc& _Al_) : _Al(_Al_), _Ptr(nullptr) {}

  00115	89 5d e4	 mov	 DWORD PTR $T23[ebp], ebx
; File C:\Program Files\Microsoft Visual Studio\2022\Community\VC\Tools\MSVC\14.44.35207\include\xtree

; 808  :     explicit _Tree_temp_node_alloc(_Alnode& _Al_) : _Alloc_construct_ptr<_Alnode>(_Al_) {

  00118	c7 45 fc 00 00
	00 00		 mov	 DWORD PTR __$EHRec$[ebp+8], 0
; File C:\Program Files\Microsoft Visual Studio\2022\Community\VC\Tools\MSVC\14.44.35207\include\xmemory

; 136  :         return ::operator new(_Bytes);

  0011f	6a 1c		 push	 28			; 0000001cH

; 1167 :         _Ptr = nullptr; // if allocate throws, prevents double-free

  00121	c7 45 e8 00 00
	00 00		 mov	 DWORD PTR $T23[ebp+4], 0

; 136  :         return ::operator new(_Bytes);

  00128	e8 00 00 00 00	 call	 ??2@YAPAXI@Z		; operator new
; File C:\Program Files\Microsoft Visual Studio\2022\Community\VC\Tools\MSVC\14.44.35207\include\utility

; 303  :         : first(_STD forward<_Other1>(_Right.first)), second(_STD forward<_Other2>(_Right.second)) {}

  0012d	8b 4d 0c	 mov	 ecx, DWORD PTR _lx$[ebp]
; File C:\Program Files\Microsoft Visual Studio\2022\Community\VC\Tools\MSVC\14.44.35207\include\xmemory

; 136  :         return ::operator new(_Bytes);

  00130	83 c4 04	 add	 esp, 4
; File C:\Program Files\Microsoft Visual Studio\2022\Community\VC\Tools\MSVC\14.44.35207\include\utility

; 303  :         : first(_STD forward<_Other1>(_Right.first)), second(_STD forward<_Other2>(_Right.second)) {}

  00133	89 48 14	 mov	 DWORD PTR [eax+20], ecx
  00136	8b 4d 08	 mov	 ecx, DWORD PTR _ReserveTargetEffect$2$[ebp]
  00139	89 48 18	 mov	 DWORD PTR [eax+24], ecx
; File C:\Program Files\Microsoft Visual Studio\2022\Community\VC\Tools\MSVC\14.44.35207\include\xtree

; 1042 :         return {_Scary->_Insert_node(_Loc._Location, _Inserted), true};

  0013c	8b cb		 mov	 ecx, ebx
  0013e	50		 push	 eax
  0013f	ff 75 d8	 push	 DWORD PTR __Loc$48[ebp+4]
; File C:\Program Files\Microsoft Visual Studio\2022\Community\VC\Tools\MSVC\14.44.35207\include\utility

; 303  :         : first(_STD forward<_Other1>(_Right.first)), second(_STD forward<_Other2>(_Right.second)) {}

  00142	89 78 10	 mov	 DWORD PTR [eax+16], edi
; File C:\Program Files\Microsoft Visual Studio\2022\Community\VC\Tools\MSVC\14.44.35207\include\xtree

; 1042 :         return {_Scary->_Insert_node(_Loc._Location, _Inserted), true};

  00145	ff 75 d4	 push	 DWORD PTR __Loc$48[ebp]

; 831  :         _Construct_in_place(this->_Ptr->_Left, _Myhead);

  00148	89 30		 mov	 DWORD PTR [eax], esi

; 832  :         _Construct_in_place(this->_Ptr->_Parent, _Myhead);

  0014a	89 70 04	 mov	 DWORD PTR [eax+4], esi

; 833  :         _Construct_in_place(this->_Ptr->_Right, _Myhead);

  0014d	89 70 08	 mov	 DWORD PTR [eax+8], esi

; 834  :         this->_Ptr->_Color = _Red;

  00150	66 c7 40 0c 00
	00		 mov	 WORD PTR [eax+12], 0

; 1042 :         return {_Scary->_Insert_node(_Loc._Location, _Inserted), true};

  00156	e8 00 00 00 00	 call	 ?_Insert_node@?$_Tree_val@U?$_Tree_simple_types@U?$pair@$$CBKUSReserveTargetEffect@CPythonBackground@@@std@@@std@@@std@@QAEPAU?$_Tree_node@U?$pair@$$CBKUSReserveTargetEffect@CPythonBackground@@@std@@PAX@2@U?$_Tree_id@PAU?$_Tree_node@U?$pair@$$CBKUSReserveTargetEffect@CPythonBackground@@@std@@PAX@std@@@2@QAU32@@Z ; std::_Tree_val<std::_Tree_simple_types<std::pair<unsigned long const ,CPythonBackground::SReserveTargetEffect> > >::_Insert_node
; File C:\Anka2Project\Anka2Project\Source\Binary\source\UserInterface\PythonBackground.cpp

; 884  : }

  0015b	8b 4d f4	 mov	 ecx, DWORD PTR __$EHRec$[ebp]
  0015e	64 89 0d 00 00
	00 00		 mov	 DWORD PTR fs:0, ecx
  00165	59		 pop	 ecx
  00166	5f		 pop	 edi
  00167	5e		 pop	 esi
  00168	5b		 pop	 ebx
  00169	8b e5		 mov	 esp, ebp
  0016b	5d		 pop	 ebp
  0016c	c2 0c 00	 ret	 12			; 0000000cH
$LN3@CreateTarg:
; File C:\Program Files\Microsoft Visual Studio\2022\Community\VC\Tools\MSVC\14.44.35207\include\xstring

; 453  :         return _Myres > _Small_string_capacity;

  0016f	83 3d 14 00 00
	00 0f		 cmp	 DWORD PTR ?g_strEffectName@@3V?$basic_string@DU?$char_traits@D@std@@V?$allocator@D@2@@std@@A+20, 15 ; 0000000fH

; 444  :         const value_type* _Result = _Bx._Buf;

  00176	b8 00 00 00 00	 mov	 eax, OFFSET ?g_strEffectName@@3V?$basic_string@DU?$char_traits@D@std@@V?$allocator@D@2@@std@@A ; g_strEffectName
  0017b	66 0f 6e 5d 08	 movd	 xmm3, DWORD PTR _ReserveTargetEffect$2$[ebp]

; 445  :         if (_Large_mode_engaged()) {

  00180	0f 47 05 00 00
	00 00		 cmova	 eax, DWORD PTR ?g_strEffectName@@3V?$basic_string@DU?$char_traits@D@std@@V?$allocator@D@2@@std@@A
  00187	66 0f 6e 55 0c	 movd	 xmm2, DWORD PTR _lx$[ebp]
; File C:\Anka2Project\Anka2Project\Source\Binary\source\UserInterface\PythonBackground.cpp

; 883  : 	CreateSpecialEffect(dwID, ilx, ily, fHeight, g_strEffectName.c_str());

  0018c	50		 push	 eax
  0018d	51		 push	 ecx
  0018e	0f 5b db	 cvtdq2ps xmm3, xmm3
  00191	8b cb		 mov	 ecx, ebx
  00193	0f 5b d2	 cvtdq2ps xmm2, xmm2
  00196	f3 0f 11 0c 24	 movss	 DWORD PTR [esp], xmm1
  0019b	57		 push	 edi
  0019c	e8 00 00 00 00	 call	 ?CreateSpecialEffect@CPythonBackground@@QAEXKMMMPBD@Z ; CPythonBackground::CreateSpecialEffect
$LN1@CreateTarg:

; 884  : }

  001a1	8b 4d f4	 mov	 ecx, DWORD PTR __$EHRec$[ebp]
  001a4	64 89 0d 00 00
	00 00		 mov	 DWORD PTR fs:0, ecx
  001ab	59		 pop	 ecx
  001ac	5f		 pop	 edi
  001ad	5e		 pop	 esi
  001ae	5b		 pop	 ebx
  001af	8b e5		 mov	 esp, ebp
  001b1	5d		 pop	 ebp
  001b2	c2 0c 00	 ret	 12			; 0000000cH
$LN177@CreateTarg:
; File C:\Program Files\Microsoft Visual Studio\2022\Community\VC\Tools\MSVC\14.44.35207\include\xtree

; 1649 :             _Throw_tree_length_error();

  001b5	e8 00 00 00 00	 call	 ?_Throw_tree_length_error@std@@YAXXZ ; std::_Throw_tree_length_error
$LN175@CreateTarg:
  001ba	cc		 int	 3
_TEXT	ENDS
;	COMDAT text$x
text$x	SEGMENT
__unwindfunclet$?CreateTargetEffect@CPythonBackground@@QAEXKJJ@Z$2:
  00000	8d 4d e4	 lea	 ecx, DWORD PTR $T23[ebp]
  00003	e9 00 00 00 00	 jmp	 ??1?$_Alloc_construct_ptr@V?$allocator@U?$_Tree_node@U?$pair@$$CBKUSReserveTargetEffect@CPythonBackground@@@std@@PAX@std@@@std@@@std@@QAE@XZ ; std::_Alloc_construct_ptr<std::allocator<std::_Tree_node<std::pair<unsigned long const ,CPythonBackground::SReserveTargetEffect>,void *> > >::~_Alloc_construct_ptr<std::allocator<std::_Tree_node<std::pair<unsigned long const ,CPythonBackground::SReserveTargetEffect>,void *> > >
  00008	cc		 int	 3
  00009	cc		 int	 3
  0000a	cc		 int	 3
  0000b	cc		 int	 3
  0000c	cc		 int	 3
__ehhandler$?CreateTargetEffect@CPythonBackground@@QAEXKJJ@Z:
  0000d	90		 npad	 1
  0000e	90		 npad	 1
  0000f	8b 54 24 08	 mov	 edx, DWORD PTR [esp+8]
  00013	8d 42 0c	 lea	 eax, DWORD PTR [edx+12]
  00016	8b 4a c4	 mov	 ecx, DWORD PTR [edx-60]
  00019	33 c8		 xor	 ecx, eax
  0001b	e8 00 00 00 00	 call	 @__security_check_cookie@4
  00020	b8 00 00 00 00	 mov	 eax, OFFSET __ehfuncinfo$?CreateTargetEffect@CPythonBackground@@QAEXKJJ@Z
  00025	e9 00 00 00 00	 jmp	 ___CxxFrameHandler3
text$x	ENDS
?CreateTargetEffect@CPythonBackground@@QAEXKJJ@Z ENDP	; CPythonBackground::CreateTargetEffect
; Function compile flags: /Ogtp
; File C:\Program Files\Microsoft Visual Studio\2022\Community\VC\Tools\MSVC\14.44.35207\include\vector
;	COMDAT ??__FvMapName@?1??IsBoomMap@CPythonBackground@@QBE_NABV?$basic_string@DU?$char_traits@D@std@@V?$allocator@D@2@@std@@@Z@YAXXZ
text$yd	SEGMENT
??__FvMapName@?1??IsBoomMap@CPythonBackground@@QBE_NABV?$basic_string@DU?$char_traits@D@std@@V?$allocator@D@2@@std@@@Z@YAXXZ PROC ; `CPythonBackground::IsBoomMap'::`2'::`dynamic atexit destructor for 'vMapName'', COMDAT

; 830  :         _Tidy();

  00000	b9 00 00 00 00	 mov	 ecx, OFFSET ?vMapName@?1??IsBoomMap@CPythonBackground@@QBE_NABV?$basic_string@DU?$char_traits@D@std@@V?$allocator@D@2@@std@@@Z@4V?$vector@V?$basic_string@DU?$char_traits@D@std@@V?$allocator@D@2@@std@@V?$allocator@V?$basic_string@DU?$char_traits@D@std@@V?$allocator@D@2@@std@@@2@@4@B
  00005	e9 00 00 00 00	 jmp	 ?_Tidy@?$vector@V?$basic_string@DU?$char_traits@D@std@@V?$allocator@D@2@@std@@V?$allocator@V?$basic_string@DU?$char_traits@D@std@@V?$allocator@D@2@@std@@@2@@std@@AAEXXZ ; std::vector<std::basic_string<char,std::char_traits<char>,std::allocator<char> >,std::allocator<std::basic_string<char,std::char_traits<char>,std::allocator<char> > > >::_Tidy
??__FvMapName@?1??IsBoomMap@CPythonBackground@@QBE_NABV?$basic_string@DU?$char_traits@D@std@@V?$allocator@D@2@@std@@@Z@YAXXZ ENDP ; `CPythonBackground::IsBoomMap'::`2'::`dynamic atexit destructor for 'vMapName''
text$yd	ENDS
END
