; Listing generated by Microsoft (R) Optimizing Compiler Version 19.44.35219.0 

	TITLE	c:\anka2project\anka2project\source\binary\vs_files\userinterface\release\pythonitemmodule.obj
	.686P
	.XMM
	include listing.inc
	.model	flat

INCLUDELIB OLDNAMES

PUBLIC	??_C@_0BG@LNOAJHHG@no?5selected?5item?5data@	; `string'
PUBLIC	??_C@_0BJ@FJOAFFCG@Not?5yet?5select?5item?5data@ ; `string'
PUBLIC	??_C@_0BM@MLEHJLDK@Cannot?5get?5icon?5image?5by?5?$CFd@ ; `string'
PUBLIC	??_C@_0BM@KPLEGEEH@Can?8t?5find?5select?5item?5data@ ; `string'
PUBLIC	??_C@_0BC@GFOFMOEA@No?5item?5selected?$CB@	; `string'
PUBLIC	??_C@_0BE@HKKEFMIC@SetUseSoundFileName@		; `string'
PUBLIC	??_C@_0BF@BODGENI@SetDropSoundFileName@		; `string'
PUBLIC	??_C@_0L@GFKKOOBA@SelectItem@			; `string'
PUBLIC	??_C@_0M@BFODJMFI@GetItemName@			; `string'
PUBLIC	??_C@_0BD@GLEOJONA@GetItemDescription@		; `string'
PUBLIC	??_C@_0P@OIBFDAMI@GetItemSummary@		; `string'
PUBLIC	??_C@_0N@IEABDKDK@GetIconImage@			; `string'
PUBLIC	??_C@_0BF@NNPLLIOE@GetIconImageFileName@	; `string'
PUBLIC	??_C@_0M@FBEOFCHB@GetItemSize@			; `string'
PUBLIC	??_C@_0M@LOOAFMCI@GetItemType@			; `string'
PUBLIC	??_C@_0P@MFCMKOKJ@GetItemSubType@		; `string'
PUBLIC	??_C@_0BB@KJGHJKGD@GetIBuyItemPrice@		; `string'
PUBLIC	??_C@_0BC@OKNBBEMG@GetISellItemPrice@		; `string'
PUBLIC	??_C@_0L@NKLNOBKA@IsAntiFlag@			; `string'
PUBLIC	??_C@_06PLFMNGGB@IsFlag@			; `string'
PUBLIC	??_C@_0P@KNFGADIE@IsWearableFlag@		; `string'
PUBLIC	??_C@_0M@IKKLMPND@Is1GoldItem@			; `string'
PUBLIC	??_C@_08KIIGDNA@GetLimit@			; `string'
PUBLIC	??_C@_0N@OIJFEGBC@GetLimitType@			; `string'
PUBLIC	??_C@_0O@PAGKENPD@GetLimitValue@		; `string'
PUBLIC	??_C@_09HJGEAOAM@GetAffect@			; `string'
PUBLIC	??_C@_08GGOMBHIN@GetValue@			; `string'
PUBLIC	??_C@_09ICJIFGNC@GetSocket@			; `string'
PUBLIC	??_C@_0BA@PMLMLIHH@GetIconInstance@		; `string'
PUBLIC	??_C@_0L@POCKMHMA@GetUseType@			; `string'
PUBLIC	??_C@_0BD@BNBIIKMM@DeleteIconInstance@		; `string'
PUBLIC	??_C@_0P@OGDGGJFE@IsEquipmentVID@		; `string'
PUBLIC	??_C@_0P@LGDKNEFF@IsRefineScroll@		; `string'
PUBLIC	??_C@_0P@CNNPGCCK@IsDetachScroll@		; `string'
PUBLIC	??_C@_05CEOMILKP@IsKey@				; `string'
PUBLIC	??_C@_07MLLOFDCE@IsMetin@			; `string'
PUBLIC	??_C@_0BG@FEGHIHDK@CanAddToQuickSlotItem@	; `string'
PUBLIC	??_C@_0L@EMDEHLJF@CreateItem@			; `string'
PUBLIC	??_C@_0L@IIJEEMCG@DeleteItem@			; `string'
PUBLIC	??_C@_0O@HJNOJBCJ@LoadItemTable@		; `string'
PUBLIC	??_C@_0O@FIFLMBIA@IsWeddingItem@		; `string'
PUBLIC	??_C@_0BC@DLHGPCJF@GetItemNameByVnum@		; `string'
PUBLIC	??_C@_0P@KGPFDEPM@SelectItemWiki@		; `string'
PUBLIC	??_C@_0N@NCBLKFBB@GetRefineSet@			; `string'
PUBLIC	??_C@_0P@LHFGFLIF@GetRefinedVnum@		; `string'
PUBLIC	??_C@_0P@JDIMGFAL@GetItemsByName@		; `string'
PUBLIC	??_C@_0BJ@OLOACL@IsPossibleChangeLookLeft@	; `string'
PUBLIC	??_C@_0BK@LGEDBNMJ@IsPossibleChangeLookRight@	; `string'
PUBLIC	??_C@_0BN@PEBKMIDG@IsChangeLookFreePassYangItem@ ; `string'
PUBLIC	??_C@_0BI@PCFHBNB@IsChangeLookClearScroll@	; `string'
PUBLIC	??_C@_0BD@MEKMBKPM@USESOUND_ACCESSORY@		; `string'
PUBLIC	??_C@_0P@ENGKPPPD@USESOUND_ARMOR@		; `string'
PUBLIC	??_C@_0N@MDIFIDON@USESOUND_BOW@			; `string'
PUBLIC	??_C@_0BB@BHHNCGFC@USESOUND_DEFAULT@		; `string'
PUBLIC	??_C@_0BA@IJKKKKOO@USESOUND_WEAPON@		; `string'
PUBLIC	??_C@_0BA@GIIHLHOB@USESOUND_POTION@		; `string'
PUBLIC	??_C@_0BA@HNBMICIL@USESOUND_PORTAL@		; `string'
PUBLIC	??_C@_0BE@PBPPNIPJ@DROPSOUND_ACCESSORY@		; `string'
PUBLIC	??_C@_0BA@PCCDLKKO@DROPSOUND_ARMOR@		; `string'
PUBLIC	??_C@_0O@OOJPAKOO@DROPSOUND_BOW@		; `string'
PUBLIC	??_C@_0BC@BONOAPBN@DROPSOUND_DEFAULT@		; `string'
PUBLIC	??_C@_0BB@JMMPMOOC@DROPSOUND_WEAPON@		; `string'
PUBLIC	??_C@_0BA@KJELJAII@EQUIPMENT_COUNT@		; `string'
PUBLIC	??_C@_0P@GCJFHMFC@EQUIPMENT_HEAD@		; `string'
PUBLIC	??_C@_0P@LODPCKGA@EQUIPMENT_BODY@		; `string'
PUBLIC	??_C@_0BB@IKOPOEMN@EQUIPMENT_WEAPON@		; `string'
PUBLIC	??_C@_0BA@KHENFLDC@EQUIPMENT_WRIST@		; `string'
PUBLIC	??_C@_0BA@GEANIANO@EQUIPMENT_SHOES@		; `string'
PUBLIC	??_C@_0P@GJMJEBFD@EQUIPMENT_NECK@		; `string'
PUBLIC	??_C@_0O@KNFMDJEG@EQUIPMENT_EAR@		; `string'
PUBLIC	??_C@_0BC@IBOCPGBL@EQUIPMENT_UNIQUE1@		; `string'
PUBLIC	??_C@_0BC@KKMPKFNI@EQUIPMENT_UNIQUE2@		; `string'
PUBLIC	??_C@_0BA@MLMLGDPN@EQUIPMENT_ARROW@		; `string'
PUBLIC	??_C@_0BB@GNCAGJLP@EQUIPMENT_SHIELD@		; `string'
PUBLIC	??_C@_0BA@HOMCMAOF@EQUIPMENT_RING1@		; `string'
PUBLIC	??_C@_0BA@FFOPJDCG@EQUIPMENT_RING2@		; `string'
PUBLIC	??_C@_0P@GKDPOFPB@EQUIPMENT_BELT@		; `string'
PUBLIC	??_C@_0BA@JDEBPBPI@EQUIPMENT_MOUNT@		; `string'
PUBLIC	??_C@_0O@JLMIJBLB@EQUIPMENT_PET@		; `string'
PUBLIC	??_C@_0BA@NADJMHBA@EQUIPMENT_TITLE@		; `string'
PUBLIC	??_C@_0BC@LFKEDEAE@EQUIPMENT_PENDANT@		; `string'
PUBLIC	??_C@_0P@EMFHBOCE@ITEM_TYPE_NONE@		; `string'
PUBLIC	??_C@_0BB@KIJBPCOD@ITEM_TYPE_WEAPON@		; `string'
PUBLIC	??_C@_0BA@MCMGEHMH@ITEM_TYPE_ARMOR@		; `string'
PUBLIC	??_C@_0O@EJGIJMHP@ITEM_TYPE_USE@		; `string'
PUBLIC	??_C@_0BC@PDFOCJLB@ITEM_TYPE_AUTOUSE@		; `string'
PUBLIC	??_C@_0BD@NFIKPBKO@ITEM_TYPE_MATERIAL@		; `string'
PUBLIC	??_C@_0BC@EGCNCIAP@ITEM_TYPE_SPECIAL@		; `string'
PUBLIC	??_C@_0P@LGAHEAHJ@ITEM_TYPE_TOOL@		; `string'
PUBLIC	??_C@_0BC@LGJDJIG@ITEM_TYPE_LOTTERY@		; `string'
PUBLIC	??_C@_0O@JAIIACCD@ITEM_TYPE_ELK@		; `string'
PUBLIC	??_C@_0BA@KICPPFNE@ITEM_TYPE_METIN@		; `string'
PUBLIC	??_C@_0BE@JBBPDBJM@ITEM_TYPE_CONTAINER@		; `string'
PUBLIC	??_C@_0P@PIBMEEFH@ITEM_TYPE_FISH@		; `string'
PUBLIC	??_C@_0O@NIJIMPJD@ITEM_TYPE_ROD@		; `string'
PUBLIC	??_C@_0BD@KBPLAMLF@ITEM_TYPE_RESOURCE@		; `string'
PUBLIC	??_C@_0BD@OGNHPHCL@ITEM_TYPE_CAMPFIRE@		; `string'
PUBLIC	??_C@_0BB@CPEAMAMA@ITEM_TYPE_UNIQUE@		; `string'
PUBLIC	??_C@_0BE@FAMMFDKM@ITEM_TYPE_SKILLBOOK@		; `string'
PUBLIC	??_C@_0BA@PFOCEMDB@ITEM_TYPE_QUEST@		; `string'
PUBLIC	??_C@_0BE@DGPJCLHG@ITEM_TYPE_POLYMORPH@		; `string'
PUBLIC	??_C@_0BH@MPEMDLLF@ITEM_TYPE_TREASURE_BOX@	; `string'
PUBLIC	??_C@_0BH@KGMIMAKI@ITEM_TYPE_TREASURE_KEY@	; `string'
PUBLIC	??_C@_0P@CALHNGMG@ITEM_TYPE_PICK@		; `string'
PUBLIC	??_C@_0BA@EDGMOLIF@ITEM_TYPE_BLEND@		; `string'
PUBLIC	??_C@_0N@BKIJEOLO@ITEM_TYPE_DS@			; `string'
PUBLIC	??_C@_0BF@GGLFIBNL@ITEM_TYPE_SPECIAL_DS@	; `string'
PUBLIC	??_C@_0BC@OLPPIKKB@ITEM_TYPE_GIFTBOX@		; `string'
PUBLIC	??_C@_0P@POBKFJPJ@ITEM_TYPE_RING@		; `string'
PUBLIC	??_C@_0BA@OPEBGGEO@ITEM_TYPE_MOUNT@		; `string'
PUBLIC	??_C@_0O@DFMEJAJP@ITEM_TYPE_PET@		; `string'
PUBLIC	??_C@_0BA@KMDJFAKG@ITEM_TYPE_TITLE@		; `string'
PUBLIC	??_C@_0BC@GOFIPFBN@ITEM_TYPE_COSTUME@		; `string'
PUBLIC	??_C@_0BC@IBLNMJBH@COSTUME_TYPE_BODY@		; `string'
PUBLIC	??_C@_0BC@MAPOOMBN@COSTUME_TYPE_HAIR@		; `string'
PUBLIC	??_C@_0BC@GPPDEHKH@COSTUME_TYPE_ACCE@		; `string'
PUBLIC	??_C@_0BE@NDJCIHLM@COSTUME_TYPE_WEAPON@		; `string'
PUBLIC	??_C@_0BD@FNBPJHIE@COSTUME_TYPE_MOUNT@		; `string'
PUBLIC	??_C@_0BB@KMCNDLBH@COSTUME_TYPE_PET@		; `string'
PUBLIC	??_C@_0BC@GDAJEDKH@COSTUME_TYPE_AURA@		; `string'
PUBLIC	??_C@_0BD@JCGACLBK@COSTUME_SLOT_START@		; `string'
PUBLIC	??_C@_0BD@EMMBBFMO@COSTUME_SLOT_COUNT@		; `string'
PUBLIC	??_C@_0BC@OBAEGBKN@COSTUME_SLOT_BODY@		; `string'
PUBLIC	??_C@_0BC@KAEHEEKH@COSTUME_SLOT_HAIR@		; `string'
PUBLIC	??_C@_0BC@PEKOPBN@COSTUME_SLOT_ACCE@		; `string'
PUBLIC	??_C@_0BE@BFLFIKON@COSTUME_SLOT_WEAPON@		; `string'
PUBLIC	??_C@_0BD@HGMLHELO@COSTUME_SLOT_MOUNT@		; `string'
PUBLIC	??_C@_0BB@KFALFEII@COSTUME_SLOT_PET@		; `string'
PUBLIC	??_C@_0BC@DLAOLBN@COSTUME_SLOT_AURA@		; `string'
PUBLIC	??_C@_0BB@IEFLAOJF@COSTUME_SLOT_END@		; `string'
PUBLIC	??_C@_0BK@JAICDGKA@BELT_INVENTORY_SLOT_START@	; `string'
PUBLIC	??_C@_0BK@EOCDAIHE@BELT_INVENTORY_SLOT_COUNT@	; `string'
PUBLIC	??_C@_0BI@GPHFDCEJ@BELT_INVENTORY_SLOT_END@	; `string'
PUBLIC	??_C@_0CA@GGBKFPIG@SKILL_BOOK_INVENTORY_SLOT_START@ ; `string'
PUBLIC	??_C@_0CD@NBCKCAOA@UPGRADE_ITEMS_INVENTORY_SLOT_ST@ ; `string'
PUBLIC	??_C@_0BL@IMGEBG@STONE_INVENTORY_SLOT_START@	; `string'
PUBLIC	??_C@_0BO@HIOPBILE@GIFT_BOX_INVENTORY_SLOT_START@ ; `string'
PUBLIC	??_C@_0BO@KNLOLNDC@CHANGERS_INVENTORY_SLOT_START@ ; `string'
PUBLIC	??_C@_0N@FCLCNMLC@WEAPON_SWORD@			; `string'
PUBLIC	??_C@_0O@IMDDJKDH@WEAPON_DAGGER@		; `string'
PUBLIC	??_C@_0L@KDNCAJJM@WEAPON_BOW@			; `string'
PUBLIC	??_C@_0BC@OILJBHHK@WEAPON_TWO_HANDED@		; `string'
PUBLIC	??_C@_0M@NKBIKBJK@WEAPON_BELL@			; `string'
PUBLIC	??_C@_0L@LNCOBKNJ@WEAPON_FAN@			; `string'
PUBLIC	??_C@_0N@DCOAOKB@WEAPON_ARROW@			; `string'
PUBLIC	??_C@_0BB@KFDFBDPL@WEAPON_NUM_TYPES@		; `string'
PUBLIC	??_C@_0L@DENJCCNI@USE_POTION@			; `string'
PUBLIC	??_C@_0N@CINBPLKM@USE_TALISMAN@			; `string'
PUBLIC	??_C@_0L@JIILHJGL@USE_TUNING@			; `string'
PUBLIC	??_C@_08JHFKMGGA@USE_MOVE@			; `string'
PUBLIC	??_C@_0BB@BBPDKOFG@USE_TREASURE_BOX@		; `string'
PUBLIC	??_C@_0N@BOHEHPFI@USE_MONEYBAG@			; `string'
PUBLIC	??_C@_08LBHGOBNP@USE_BAIT@			; `string'
PUBLIC	??_C@_0P@JBLCKFGE@USE_ABILITY_UP@		; `string'
PUBLIC	??_C@_0L@DLLOJMIP@USE_AFFECT@			; `string'
PUBLIC	??_C@_0BB@PBBDNJH@USE_CREATE_STONE@		; `string'
PUBLIC	??_C@_0M@GHOELJHH@USE_SPECIAL@			; `string'
PUBLIC	??_C@_0BD@MMDEHJ@USE_POTION_NODELAY@		; `string'
PUBLIC	??_C@_09PNKHEPEF@USE_CLEAR@			; `string'
PUBLIC	??_C@_0BB@NCIEFOD@USE_INVISIBILITY@		; `string'
PUBLIC	??_C@_0P@MKAMDACK@USE_DETACHMENT@		; `string'
PUBLIC	??_C@_0BE@NEAJJELI@USE_TIME_CHARGE_PER@		; `string'
PUBLIC	??_C@_0BE@FCIOINBF@USE_TIME_CHARGE_FIX@		; `string'
PUBLIC	??_C@_0BA@NILKDFNN@USE_AFFECT_PLUS@		; `string'
PUBLIC	??_C@_0BJ@FNHNMEGH@USE_PUT_INTO_AURA_SOCKET@	; `string'
PUBLIC	??_C@_0BK@FFJFCNLF@MATERIAL_DS_REFINE_NORMAL@	; `string'
PUBLIC	??_C@_0BL@HNMOOIKG@MATERIAL_DS_REFINE_BLESSED@	; `string'
PUBLIC	??_C@_0BJ@KCHKGND@MATERIAL_DS_REFINE_HOLLY@	; `string'
PUBLIC	??_C@_0N@HOHHHOFD@METIN_NORMAL@			; `string'
PUBLIC	??_C@_0L@MFIGJJDC@METIN_GOLD@			; `string'
PUBLIC	??_C@_0L@MKHGBGII@LIMIT_NONE@			; `string'
PUBLIC	??_C@_0M@CNLALLNH@LIMIT_LEVEL@			; `string'
PUBLIC	??_C@_09JOBFCJGA@LIMIT_STR@			; `string'
PUBLIC	??_C@_09LENAGHIL@LIMIT_DEX@			; `string'
PUBLIC	??_C@_09OGFKBPLL@LIMIT_INT@			; `string'
PUBLIC	??_C@_09DIAIGPDD@LIMIT_CON@			; `string'
PUBLIC	??_C@_0BA@FCJCAFPM@LIMIT_REAL_TIME@		; `string'
PUBLIC	??_C@_0CA@KECNELOI@LIMIT_REAL_TIME_START_FIRST_USE@ ; `string'
PUBLIC	??_C@_0BK@DKGMKHOA@LIMIT_TIMER_BASED_ON_WEAR@	; `string'
PUBLIC	??_C@_0BD@JIAJEJNL@LIMIT_TYPE_MAX_NUM@		; `string'
PUBLIC	??_C@_0O@DPNMMLCK@LIMIT_MAX_NUM@		; `string'
PUBLIC	??_C@_0BF@DFHLBKDO@ITEM_ANTIFLAG_FEMALE@	; `string'
PUBLIC	??_C@_0BD@DBFGLDPM@ITEM_ANTIFLAG_MALE@		; `string'
PUBLIC	??_C@_0BG@OCAOGEDJ@ITEM_ANTIFLAG_WARRIOR@	; `string'
PUBLIC	??_C@_0BH@NDIALJFO@ITEM_ANTIFLAG_ASSASSIN@	; `string'
PUBLIC	??_C@_0BD@EDCJBBKJ@ITEM_ANTIFLAG_SURA@		; `string'
PUBLIC	??_C@_0BF@NIAJKCKI@ITEM_ANTIFLAG_SHAMAN@	; `string'
PUBLIC	??_C@_0BC@NECEHGFA@ITEM_ANTIFLAG_GET@		; `string'
PUBLIC	??_C@_0BD@ELBJHBLB@ITEM_ANTIFLAG_DROP@		; `string'
PUBLIC	??_C@_0BD@LACGLGAB@ITEM_ANTIFLAG_SELL@		; `string'
PUBLIC	??_C@_0BH@ONMHLBEF@ITEM_ANTIFLAG_EMPIRE_A@	; `string'
PUBLIC	??_C@_0BH@MGOKOCIG@ITEM_ANTIFLAG_EMPIRE_B@	; `string'
PUBLIC	??_C@_0BH@IMCIPANH@ITEM_ANTIFLAG_EMPIRE_R@	; `string'
PUBLIC	??_C@_0BD@PPDHLMLJ@ITEM_ANTIFLAG_SAVE@		; `string'
PUBLIC	??_C@_0BD@KPODKFBE@ITEM_ANTIFLAG_GIVE@		; `string'
PUBLIC	??_C@_0BF@HBDABAPH@ITEM_ANTIFLAG_PKDROP@	; `string'
PUBLIC	??_C@_0BE@MAIMKBDM@ITEM_ANTIFLAG_STACK@		; `string'
PUBLIC	??_C@_0BF@NEEDLCAA@ITEM_ANTIFLAG_MYSHOP@	; `string'
PUBLIC	??_C@_0BG@BCNAOFH@ITEM_ANTIFLAG_SAFEBOX@	; `string'
PUBLIC	??_C@_0BG@MEIFFJLC@ITEM_ANTIFLAG_DESTROY@	; `string'
PUBLIC	??_C@_0BI@JFGOOGEF@ITEM_ANTIFLAG_RT_REMOVE@	; `string'
PUBLIC	??_C@_0BE@LJENCJCN@ITEM_FLAG_STACKABLE@		; `string'
PUBLIC	??_C@_0P@POCGDPPH@ITEM_FLAG_RARE@		; `string'
PUBLIC	??_C@_0BB@PGFIBJHK@ITEM_FLAG_UNIQUE@		; `string'
PUBLIC	??_C@_0BL@IPKGPKMA@ITEM_FLAG_CONFIRM_WHEN_USE@	; `string'
PUBLIC	??_C@_0BA@PLOPKCNG@ANTIFLAG_FEMALE@		; `string'
PUBLIC	??_C@_0O@GCOFJDKL@ANTIFLAG_MALE@		; `string'
PUBLIC	??_C@_0BB@EMBBJKML@ANTIFLAG_WARRIOR@		; `string'
PUBLIC	??_C@_0BC@IAJNDFJA@ANTIFLAG_ASSASSIN@		; `string'
PUBLIC	??_C@_0O@BAJKDBPO@ANTIFLAG_SURA@		; `string'
PUBLIC	??_C@_0BA@BGJNBKEA@ANTIFLAG_SHAMAN@		; `string'
PUBLIC	??_C@_0N@NEJHBBKC@ANTIFLAG_GET@			; `string'
PUBLIC	??_C@_0O@BIKKFBOG@ANTIFLAG_DROP@		; `string'
PUBLIC	??_C@_0O@ODJFJGFG@ANTIFLAG_SELL@		; `string'
PUBLIC	??_C@_0BC@LONKDNIL@ANTIFLAG_EMPIRE_A@		; `string'
PUBLIC	??_C@_0BC@JFPHGOEI@ANTIFLAG_EMPIRE_B@		; `string'
PUBLIC	??_C@_0BC@NPDFHMBJ@ANTIFLAG_EMPIRE_R@		; `string'
PUBLIC	??_C@_0O@KMIEJMOO@ANTIFLAG_SAVE@		; `string'
PUBLIC	??_C@_0O@PMFAIFED@ANTIFLAG_GIVE@		; `string'
PUBLIC	??_C@_0BA@LPKEKIBP@ANTIFLAG_PKDROP@		; `string'
PUBLIC	??_C@_0P@DFNANGEL@ANTIFLAG_STACK@		; `string'
PUBLIC	??_C@_0BA@BKNHAKOI@ANTIFLAG_MYSHOP@		; `string'
PUBLIC	??_C@_0BB@KPDCPAKF@ANTIFLAG_SAFEBOX@		; `string'
PUBLIC	??_C@_0BB@GKJKKHEA@ANTIFLAG_DESTROY@		; `string'
PUBLIC	??_C@_0BD@OJOBBEHO@ANTIFLAG_RT_REMOVE@		; `string'
PUBLIC	??_C@_0O@KOFPKKKF@WEARABLE_BODY@		; `string'
PUBLIC	??_C@_0O@HCPFPMJH@WEARABLE_HEAD@		; `string'
PUBLIC	??_C@_0P@HDMMFABO@WEARABLE_FOOTS@		; `string'
PUBLIC	??_C@_0P@EMFDANIN@WEARABLE_WRIST@		; `string'
PUBLIC	??_C@_0BA@NBNKFEIG@WEARABLE_WEAPON@		; `string'
PUBLIC	??_C@_0O@HJKJMBJG@WEARABLE_NECK@		; `string'
PUBLIC	??_C@_0N@BHKGKGNM@WEARABLE_EAR@			; `string'
PUBLIC	??_C@_0BA@FGALGGKF@WEARABLE_UNIQUE@		; `string'
PUBLIC	??_C@_0BA@DGBFNJPE@WEARABLE_SHIELD@		; `string'
PUBLIC	??_C@_0P@CANFDFEC@WEARABLE_ARROW@		; `string'
PUBLIC	??_C@_0O@HKFPGFDE@WEARABLE_BELT@		; `string'
PUBLIC	??_C@_0BB@FEPBJJKM@WEARABLE_PENDANT@		; `string'
PUBLIC	??_C@_0L@FFADCIKH@ARMOR_BODY@			; `string'
PUBLIC	??_C@_0L@IJKJHOJF@ARMOR_HEAD@			; `string'
PUBLIC	??_C@_0N@HJFKCCG@ARMOR_SHIELD@			; `string'
PUBLIC	??_C@_0M@KCKGDACD@ARMOR_WRIST@			; `string'
PUBLIC	??_C@_0M@JNDJGNLA@ARMOR_FOOTS@			; `string'
PUBLIC	??_C@_0L@ICPFEDJE@ARMOR_NECK@			; `string'
PUBLIC	??_C@_09JPGIMBID@ARMOR_EAR@			; `string'
PUBLIC	??_C@_0L@IBADOHDG@ARMOR_BELT@			; `string'
PUBLIC	??_C@_0O@DMBNKKCP@ARMOR_PENDANT@		; `string'
PUBLIC	??_C@_0BD@POBJPMPE@ITEM_APPLY_MAX_NUM@		; `string'
PUBLIC	??_C@_0BE@PABFDMOM@ITEM_SOCKET_MAX_NUM@		; `string'
PUBLIC	??_C@_0L@KOOBDLCP@APPLY_NONE@			; `string'
PUBLIC	??_C@_09GCJAEOHJ@APPLY_STR@			; `string'
PUBLIC	??_C@_09EIFFAAJC@APPLY_DEX@			; `string'
PUBLIC	??_C@_09MEINAICK@APPLY_CON@			; `string'
PUBLIC	??_C@_09BKNPHIKC@APPLY_INT@			; `string'
PUBLIC	??_C@_0N@LMMDFALA@APPLY_MAX_HP@			; `string'
PUBLIC	??_C@_0N@KMLABMCB@APPLY_MAX_SP@			; `string'
PUBLIC	??_C@_0P@CBOEJMBC@APPLY_HP_REGEN@		; `string'
PUBLIC	??_C@_0P@PHBEALO@APPLY_SP_REGEN@		; `string'
PUBLIC	??_C@_0BG@DJGIDNN@APPLY_DEF_GRADE_BONUS@	; `string'
PUBLIC	??_C@_0BG@DIKOCKN@APPLY_ATT_GRADE_BONUS@	; `string'
PUBLIC	??_C@_0BA@PBNDFNHA@APPLY_ATT_SPEED@		; `string'
PUBLIC	??_C@_0BA@IHFPGGCP@APPLY_MOV_SPEED@		; `string'
PUBLIC	??_C@_0BB@IMPHMAIN@APPLY_CAST_SPEED@		; `string'
PUBLIC	??_C@_0BG@JIJNNLOL@APPLY_MAGIC_ATT_GRADE@	; `string'
PUBLIC	??_C@_0BG@PLJBHAML@APPLY_MAGIC_DEF_GRADE@	; `string'
PUBLIC	??_C@_0M@CPHNGINI@APPLY_SKILL@			; `string'
PUBLIC	??_C@_0BG@FCHNFPKG@APPLY_ATTBONUS_ANIMAL@	; `string'
PUBLIC	??_C@_0BG@DEBBIBCN@APPLY_ATTBONUS_UNDEAD@	; `string'
PUBLIC	??_C@_0BF@PHBHKMPC@APPLY_ATTBONUS_DEVIL@	; `string'
PUBLIC	??_C@_0BF@FLAIBIKP@APPLY_ATTBONUS_HUMAN@	; `string'
PUBLIC	??_C@_0BD@DGLENODO@APPLY_BOW_DISTANCE@		; `string'
PUBLIC	??_C@_0BB@KEIAGOOG@APPLY_RESIST_BOW@		; `string'
PUBLIC	??_C@_0BC@BCODEHJE@APPLY_RESIST_FIRE@		; `string'
PUBLIC	??_C@_0BC@CNKONPAF@APPLY_RESIST_ELEC@		; `string'
PUBLIC	??_C@_0BD@BIEOENBH@APPLY_RESIST_MAGIC@		; `string'
PUBLIC	??_C@_0BB@OFEPEABG@APPLY_POISON_PCT@		; `string'
PUBLIC	??_C@_0P@EAEIAPML@APPLY_SLOW_PCT@		; `string'
PUBLIC	??_C@_0P@IGBLFIG@APPLY_STUN_PCT@		; `string'
PUBLIC	??_C@_0BD@DOHBCDEC@APPLY_CRITICAL_PCT@		; `string'
PUBLIC	??_C@_0BE@MIHOPHBF@APPLY_PENETRATE_PCT@		; `string'
PUBLIC	??_C@_0BD@GHNBCFFK@APPLY_ATTBONUS_ORC@		; `string'
PUBLIC	??_C@_0BG@BGJNMLHF@APPLY_ATTBONUS_MILGYO@	; `string'
PUBLIC	??_C@_0P@IJPDEMHM@APPLY_STEAL_HP@		; `string'
PUBLIC	??_C@_0P@JJIAAAON@APPLY_STEAL_SP@		; `string'
PUBLIC	??_C@_0BE@MMJAOBJI@APPLY_MANA_BURN_PCT@		; `string'
PUBLIC	??_C@_0BI@CNPFJGMF@APPLY_DAMAGE_SP_RECOVER@	; `string'
PUBLIC	??_C@_0M@DEKBOLNA@APPLY_BLOCK@			; `string'
PUBLIC	??_C@_0M@OLNDHAEO@APPLY_DODGE@			; `string'
PUBLIC	??_C@_0BD@FELELOGH@APPLY_RESIST_SWORD@		; `string'
PUBLIC	??_C@_0BF@PPDPGLJM@APPLY_RESIST_TWOHAND@	; `string'
PUBLIC	??_C@_0BE@HKIMLKAO@APPLY_RESIST_DAGGER@		; `string'
PUBLIC	??_C@_0BC@GKMPGLNP@APPLY_RESIST_BELL@		; `string'
PUBLIC	??_C@_0BB@LKHMHNKD@APPLY_RESIST_FAN@		; `string'
PUBLIC	??_C@_0BC@EDEEJCPD@APPLY_RESIST_WIND@		; `string'
PUBLIC	??_C@_0BE@JKECBGFJ@APPLY_REFLECT_MELEE@		; `string'
PUBLIC	??_C@_0BE@GIMFBPMF@APPLY_REFLECT_CURSE@		; `string'
PUBLIC	??_C@_0BE@CMJGNONM@APPLY_POISON_REDUCE@		; `string'
PUBLIC	??_C@_0BG@NAAMOKGC@APPLY_KILL_SP_RECOVER@	; `string'
PUBLIC	??_C@_0BH@BOFCHNGC@APPLY_EXP_DOUBLE_BONUS@	; `string'
PUBLIC	??_C@_0BI@CPGCKKHM@APPLY_GOLD_DOUBLE_BONUS@	; `string'
PUBLIC	??_C@_0BG@GJLPLNJK@APPLY_ITEM_DROP_BONUS@	; `string'
PUBLIC	??_C@_0BD@HAABJCED@APPLY_POTION_BONUS@		; `string'
PUBLIC	??_C@_0BG@FNNLKJON@APPLY_KILL_HP_RECOVER@	; `string'
PUBLIC	??_C@_0BC@GMOGAEGD@APPLY_IMMUNE_STUN@		; `string'
PUBLIC	??_C@_0BC@HDPKPEKN@APPLY_IMMUNE_SLOW@		; `string'
PUBLIC	??_C@_0BC@ICOAEBEB@APPLY_IMMUNE_FALL@		; `string'
PUBLIC	??_C@_0BC@MENAELHN@APPLY_MAX_STAMINA@		; `string'
PUBLIC	??_C@_0BH@LHKFGIKM@APPLY_ATTBONUS_WARRIOR@	; `string'
PUBLIC	??_C@_0BI@FDLAHFJJ@APPLY_ATTBONUS_ASSASSIN@	; `string'
PUBLIC	??_C@_0BE@EHJIJMPG@APPLY_ATTBONUS_SURA@		; `string'
PUBLIC	??_C@_0BG@HGCDBIBP@APPLY_ATTBONUS_SHAMAN@	; `string'
PUBLIC	??_C@_0BH@OMHBNPNG@APPLY_ATTBONUS_MONSTER@	; `string'
PUBLIC	??_C@_0BE@INMGAFDB@APPLY_MALL_ATTBONUS@		; `string'
PUBLIC	??_C@_0BE@IHABPMCM@APPLY_MALL_DEFBONUS@		; `string'
PUBLIC	??_C@_0BE@HDMKGFGB@APPLY_MALL_EXPBONUS@		; `string'
PUBLIC	??_C@_0BF@JHCAFPEC@APPLY_MALL_ITEMBONUS@	; `string'
PUBLIC	??_C@_0BF@CNKLONKF@APPLY_MALL_GOLDBONUS@	; `string'
PUBLIC	??_C@_0BB@IOILOHHB@APPLY_MAX_HP_PCT@		; `string'
PUBLIC	??_C@_0BB@OLFCCPEF@APPLY_MAX_SP_PCT@		; `string'
PUBLIC	??_C@_0BJ@ILJOEJMP@APPLY_SKILL_DAMAGE_BONUS@	; `string'
PUBLIC	??_C@_0BO@KJDLNPKH@APPLY_NORMAL_HIT_DAMAGE_BONUS@ ; `string'
PUBLIC	??_C@_0BJ@MCFLODEL@APPLY_SKILL_DEFEND_BONUS@	; `string'
PUBLIC	??_C@_0BO@OAPOHFCD@APPLY_NORMAL_HIT_DEFEND_BONUS@ ; `string'
PUBLIC	??_C@_0BF@DIEIKMOC@APPLY_RESIST_WARRIOR@	; `string'
PUBLIC	??_C@_0BG@MCFLPEMK@APPLY_RESIST_ASSASSIN@	; `string'
PUBLIC	??_C@_0BC@MEEAHCEF@APPLY_RESIST_SURA@		; `string'
PUBLIC	??_C@_0BE@POHJKJMD@APPLY_RESIST_SHAMAN@		; `string'
PUBLIC	??_C@_0N@MOPONLJI@APPLY_ENERGY@			; `string'
PUBLIC	??_C@_0BJ@IGOAELFN@APPLY_COSTUME_ATTR_BONUS@	; `string'
PUBLIC	??_C@_0BJ@JJJKDKFC@APPLY_MAGIC_ATTBONUS_PER@	; `string'
PUBLIC	??_C@_0BP@MGKGKJGA@APPLY_MELEE_MAGIC_ATTBONUS_PER@ ; `string'
PUBLIC	??_C@_0BB@CGPGAFA@APPLY_RESIST_ICE@		; `string'
PUBLIC	??_C@_0BD@GENAIBDP@APPLY_RESIST_EARTH@		; `string'
PUBLIC	??_C@_0BC@DDBEBBJF@APPLY_RESIST_DARK@		; `string'
PUBLIC	??_C@_0BI@KIMFHHIO@APPLY_ANTI_CRITICAL_PCT@	; `string'
PUBLIC	??_C@_0BJ@FKDKMNNK@APPLY_ANTI_PENETRATE_PCT@	; `string'
PUBLIC	??_C@_0BE@KOHGDBLG@APPLY_ATTBONUS_ELEC@		; `string'
PUBLIC	??_C@_0BE@JBDLKJCH@APPLY_ATTBONUS_FIRE@		; `string'
PUBLIC	??_C@_0BD@JAEBEEH@APPLY_ATTBONUS_ICE@		; `string'
PUBLIC	??_C@_0BE@MAJMHMEA@APPLY_ATTBONUS_WIND@		; `string'
PUBLIC	??_C@_0BF@DGDLLLOH@APPLY_ATTBONUS_EARTH@	; `string'
PUBLIC	??_C@_0BE@LAMMPPCG@APPLY_ATTBONUS_DARK@		; `string'
PUBLIC	??_C@_0BF@DJOKGBBD@APPLY_ACCEDRAIN_RATE@	; `string'
PUBLIC	??_C@_0BF@EICHFHDD@APPLY_ATTBONUS_METIN@	; `string'
PUBLIC	??_C@_0BE@FMIKIPNL@APPLY_ATTBONUS_BOSS@		; `string'
PUBLIC	??_C@_0O@BGKMMFJI@RESOURCE_AURA@		; `string'
PUBLIC	??_C@_0BA@NICENPGE@AURA_GRADE_NONE@		; `string'
PUBLIC	??_C@_0BE@KICMMDCG@AURA_GRADE_ORDINARY@		; `string'
PUBLIC	??_C@_0BC@BDEELFEI@AURA_GRADE_SIMPLE@		; `string'
PUBLIC	??_C@_0BB@ICAOLOOJ@AURA_GRADE_NOBLE@		; `string'
PUBLIC	??_C@_0BF@GFOMMPCF@AURA_GRADE_SPARKLING@	; `string'
PUBLIC	??_C@_0BH@DOIMOCHC@AURA_GRADE_MAGNIFICENT@	; `string'
PUBLIC	??_C@_0BD@ONEGMILJ@AURA_GRADE_RADIANT@		; `string'
PUBLIC	??_C@_0BD@HJLOCD@AURA_GRADE_MAX_NUM@		; `string'
PUBLIC	??_C@_0BK@NLOOLJEK@AURA_BOOST_ITEM_VNUM_BASE@	; `string'
PUBLIC	??_C@_0BH@FDHGCHHI@ITEM_AURA_BOOST_ERASER@	; `string'
PUBLIC	??_C@_0BF@FNDAMKGI@ITEM_AURA_BOOST_WEAK@	; `string'
PUBLIC	??_C@_0BH@KKPHDIDK@ITEM_AURA_BOOST_NORMAL@	; `string'
PUBLIC	??_C@_0BH@IHEOGBBB@ITEM_AURA_BOOST_STRONG@	; `string'
PUBLIC	??_C@_0BJ@IENBGIID@ITEM_AURA_BOOST_ULTIMATE@	; `string'
PUBLIC	??_C@_0BE@BKHCEENN@ITEM_AURA_BOOST_MAX@		; `string'
PUBLIC	??_C@_0BG@EGEBENF@ITEM_ANTIFLAG_PETFEED@	; `string'
PUBLIC	??_C@_0BF@BBGPONC@ITEM_TYPE_GROWTH_PET@		; `string'
PUBLIC	??_C@_07JCLDHBPN@PET_EGG@			; `string'
PUBLIC	??_C@_0P@JONLIAGI@PET_UPBRINGING@		; `string'
PUBLIC	??_C@_07LOJDFPG@PET_BAG@			; `string'
PUBLIC	??_C@_0O@MCCAHOPD@PET_FEEDSTUFF@		; `string'
PUBLIC	??_C@_09FDPMEDPA@PET_SKILL@			; `string'
PUBLIC	??_C@_0BD@EFEANFHJ@PET_SKILL_DEL_BOOK@		; `string'
PUBLIC	??_C@_0BA@PPIEAPBO@PET_NAME_CHANGE@		; `string'
PUBLIC	??_C@_0M@IEIELIHE@PET_EXPFOOD@			; `string'
PUBLIC	??_C@_0BH@CJEGELHG@PET_SKILL_ALL_DEL_BOOK@	; `string'
PUBLIC	??_C@_0BA@BFLIKFFA@PET_EXPFOOD_PER@		; `string'
PUBLIC	??_C@_0BD@NBMMKPOB@PET_ATTR_DETERMINE@		; `string'
PUBLIC	??_C@_0BA@EBKLHNHM@PET_ATTR_CHANGE@		; `string'
PUBLIC	??_C@_07CFLIJFDN@PET_PAY@			; `string'
PUBLIC	??_C@_0BG@FGILHPI@PET_PRIMIUM_FEEDSTUFF@	; `string'
PUBLIC	??_C@_0BA@ODJGNODB@EGG_USE_SUCCESS@		; `string'
PUBLIC	??_C@_0BM@HPDPNNJF@EGG_USE_FAILED_BECAUSE_NAME@	; `string'
PUBLIC	??_C@_0BI@IFDKONKH@EGG_USE_FAILED_TIMEOVER@	; `string'
PUBLIC	??_C@_0BB@ENAGGDKK@PET_EGG_USE_TRUE@		; `string'
PUBLIC	??_C@_0CD@KAFFKKLE@PET_EGG_USE_FAILED_BECAUSE_TRAD@ ; `string'
PUBLIC	??_C@_0CF@NGAJHCNG@PET_EGG_USE_FAILED_BECAUSE_SHOP@ ; `string'
PUBLIC	??_C@_0CF@GNDMIEIP@PET_EGG_USE_FAILED_BECAUSE_MALL@ ; `string'
PUBLIC	??_C@_0CI@OIFJGFDC@PET_EGG_USE_FAILED_BECAUSE_SAFE@ ; `string'
PUBLIC	??_C@_0BI@LMIJIOHA@NAME_CHANGE_USE_SUCCESS@	; `string'
PUBLIC	??_C@_0CE@NHAJKPOM@NAME_CHANGE_USE_FAILED_BECAUSE_@ ; `string'
PUBLIC	??_C@_0BJ@NOFPEGC@PET_ATTR_CHANGE_ITEMVNUM@	; `string'
PUBLIC	??_C@_0BD@OMFLBDFK@PET_HATCHING_MONEY@		; `string'
PUBLIC	??_C@_0BC@JKCMILIM@PET_NAME_MAX_SIZE@		; `string'
PUBLIC	??_C@_0BC@ENMHDJMN@PET_NAME_MIN_SIZE@		; `string'
PUBLIC	??_C@_0BO@FKOEFAAC@E_SEAL_DATE_DEFAULT_TIMESTAMP@ ; `string'
PUBLIC	??_C@_0BH@NDKLMGIH@GUILD_SLOT_START_INDEX@	; `string'
EXTRN	__imp__PyInt_FromLong:PROC
EXTRN	?GetTable@CItemData@@QBEPBUSItemTable@1@XZ:PROC	; CItemData::GetTable
EXTRN	?GetRefinedSet@CItemData@@QBEGXZ:PROC		; CItemData::GetRefinedSet
EXTRN	?PyTuple_GetUnsignedLong@@YA_NPAU_object@@HPAK@Z:PROC ; PyTuple_GetUnsignedLong
EXTRN	_tolower:PROC
EXTRN	?GetRefinedVnum@CItemData@@QBEGXZ:PROC		; CItemData::GetRefinedVnum
EXTRN	?GetUseTypeString@CItemData@@QBEPBDXZ:PROC	; CItemData::GetUseTypeString
EXTRN	?IsEquipment@CItemData@@QBEHXZ:PROC		; CItemData::IsEquipment
EXTRN	?New@CGraphicImageInstance@@SAPAV1@XZ:PROC	; CGraphicImageInstance::New
EXTRN	?GetSocket@CItemData@@QBEJE@Z:PROC		; CItemData::GetSocket
EXTRN	?Delete@CGraphicImageInstance@@SAXPAV1@@Z:PROC	; CGraphicImageInstance::Delete
EXTRN	?SetImagePointer@CGraphicImageInstance@@QAEXPAVCGraphicImage@@@Z:PROC ; CGraphicImageInstance::SetImagePointer
EXTRN	?GetLimit@CItemData@@QBEHEPAUSItemLimit@1@@Z:PROC ; CItemData::GetLimit
EXTRN	?GetApply@CItemData@@QBEHEPAUSItemApply@1@@Z:PROC ; CItemData::GetApply
EXTRN	?IsAntiFlag@CItemData@@QBEHK@Z:PROC		; CItemData::IsAntiFlag
EXTRN	?GetISellItemPrice@CItemData@@QBEKXZ:PROC	; CItemData::GetISellItemPrice
EXTRN	?IsWearableFlag@CItemData@@QBEHK@Z:PROC		; CItemData::IsWearableFlag
EXTRN	?IsFlag@CItemData@@QBEHK@Z:PROC			; CItemData::IsFlag
EXTRN	?GetIconImage@CItemData@@QAEPAVCGraphicSubImage@@XZ:PROC ; CItemData::GetIconImage
EXTRN	?GetSummary@CItemData@@QBEPBDXZ:PROC		; CItemData::GetSummary
EXTRN	?GetIBuyItemPrice@CItemData@@QBEKXZ:PROC	; CItemData::GetIBuyItemPrice
EXTRN	?GetSize@CItemData@@QBEEXZ:PROC			; CItemData::GetSize
EXTRN	?SelectItemData@CItemManager@@QAEHK@Z:PROC	; CItemManager::SelectItemData
EXTRN	?GetDescription@CItemData@@QBEPBDXZ:PROC	; CItemData::GetDescription
EXTRN	?GetSelectedItemDataPointer@CItemManager@@QAEPAVCItemData@@XZ:PROC ; CItemManager::GetSelectedItemDataPointer
;	COMDAT ??_C@_0BH@NDKLMGIH@GUILD_SLOT_START_INDEX@
CONST	SEGMENT
??_C@_0BH@NDKLMGIH@GUILD_SLOT_START_INDEX@ DB 'GUILD_SLOT_START_INDEX', 00H ; `string'
CONST	ENDS
;	COMDAT ??_C@_0BO@FKOEFAAC@E_SEAL_DATE_DEFAULT_TIMESTAMP@
CONST	SEGMENT
??_C@_0BO@FKOEFAAC@E_SEAL_DATE_DEFAULT_TIMESTAMP@ DB 'E_SEAL_DATE_DEFAULT'
	DB	'_TIMESTAMP', 00H				; `string'
CONST	ENDS
;	COMDAT ??_C@_0BC@ENMHDJMN@PET_NAME_MIN_SIZE@
CONST	SEGMENT
??_C@_0BC@ENMHDJMN@PET_NAME_MIN_SIZE@ DB 'PET_NAME_MIN_SIZE', 00H ; `string'
CONST	ENDS
;	COMDAT ??_C@_0BC@JKCMILIM@PET_NAME_MAX_SIZE@
CONST	SEGMENT
??_C@_0BC@JKCMILIM@PET_NAME_MAX_SIZE@ DB 'PET_NAME_MAX_SIZE', 00H ; `string'
CONST	ENDS
;	COMDAT ??_C@_0BD@OMFLBDFK@PET_HATCHING_MONEY@
CONST	SEGMENT
??_C@_0BD@OMFLBDFK@PET_HATCHING_MONEY@ DB 'PET_HATCHING_MONEY', 00H ; `string'
CONST	ENDS
;	COMDAT ??_C@_0BJ@NOFPEGC@PET_ATTR_CHANGE_ITEMVNUM@
CONST	SEGMENT
??_C@_0BJ@NOFPEGC@PET_ATTR_CHANGE_ITEMVNUM@ DB 'PET_ATTR_CHANGE_ITEMVNUM', 00H ; `string'
CONST	ENDS
;	COMDAT ??_C@_0CE@NHAJKPOM@NAME_CHANGE_USE_FAILED_BECAUSE_@
CONST	SEGMENT
??_C@_0CE@NHAJKPOM@NAME_CHANGE_USE_FAILED_BECAUSE_@ DB 'NAME_CHANGE_USE_F'
	DB	'AILED_BECAUSE_NAME', 00H			; `string'
CONST	ENDS
;	COMDAT ??_C@_0BI@LMIJIOHA@NAME_CHANGE_USE_SUCCESS@
CONST	SEGMENT
??_C@_0BI@LMIJIOHA@NAME_CHANGE_USE_SUCCESS@ DB 'NAME_CHANGE_USE_SUCCESS', 00H ; `string'
CONST	ENDS
;	COMDAT ??_C@_0CI@OIFJGFDC@PET_EGG_USE_FAILED_BECAUSE_SAFE@
CONST	SEGMENT
??_C@_0CI@OIFJGFDC@PET_EGG_USE_FAILED_BECAUSE_SAFE@ DB 'PET_EGG_USE_FAILE'
	DB	'D_BECAUSE_SAFEBOX_OPEN', 00H		; `string'
CONST	ENDS
;	COMDAT ??_C@_0CF@GNDMIEIP@PET_EGG_USE_FAILED_BECAUSE_MALL@
CONST	SEGMENT
??_C@_0CF@GNDMIEIP@PET_EGG_USE_FAILED_BECAUSE_MALL@ DB 'PET_EGG_USE_FAILE'
	DB	'D_BECAUSE_MALL_OPEN', 00H			; `string'
CONST	ENDS
;	COMDAT ??_C@_0CF@NGAJHCNG@PET_EGG_USE_FAILED_BECAUSE_SHOP@
CONST	SEGMENT
??_C@_0CF@NGAJHCNG@PET_EGG_USE_FAILED_BECAUSE_SHOP@ DB 'PET_EGG_USE_FAILE'
	DB	'D_BECAUSE_SHOP_OPEN', 00H			; `string'
CONST	ENDS
;	COMDAT ??_C@_0CD@KAFFKKLE@PET_EGG_USE_FAILED_BECAUSE_TRAD@
CONST	SEGMENT
??_C@_0CD@KAFFKKLE@PET_EGG_USE_FAILED_BECAUSE_TRAD@ DB 'PET_EGG_USE_FAILE'
	DB	'D_BECAUSE_TRADING', 00H			; `string'
CONST	ENDS
;	COMDAT ??_C@_0BB@ENAGGDKK@PET_EGG_USE_TRUE@
CONST	SEGMENT
??_C@_0BB@ENAGGDKK@PET_EGG_USE_TRUE@ DB 'PET_EGG_USE_TRUE', 00H ; `string'
CONST	ENDS
;	COMDAT ??_C@_0BI@IFDKONKH@EGG_USE_FAILED_TIMEOVER@
CONST	SEGMENT
??_C@_0BI@IFDKONKH@EGG_USE_FAILED_TIMEOVER@ DB 'EGG_USE_FAILED_TIMEOVER', 00H ; `string'
CONST	ENDS
;	COMDAT ??_C@_0BM@HPDPNNJF@EGG_USE_FAILED_BECAUSE_NAME@
CONST	SEGMENT
??_C@_0BM@HPDPNNJF@EGG_USE_FAILED_BECAUSE_NAME@ DB 'EGG_USE_FAILED_BECAUS'
	DB	'E_NAME', 00H				; `string'
CONST	ENDS
;	COMDAT ??_C@_0BA@ODJGNODB@EGG_USE_SUCCESS@
CONST	SEGMENT
??_C@_0BA@ODJGNODB@EGG_USE_SUCCESS@ DB 'EGG_USE_SUCCESS', 00H ; `string'
CONST	ENDS
;	COMDAT ??_C@_0BG@FGILHPI@PET_PRIMIUM_FEEDSTUFF@
CONST	SEGMENT
??_C@_0BG@FGILHPI@PET_PRIMIUM_FEEDSTUFF@ DB 'PET_PRIMIUM_FEEDSTUFF', 00H ; `string'
CONST	ENDS
;	COMDAT ??_C@_07CFLIJFDN@PET_PAY@
CONST	SEGMENT
??_C@_07CFLIJFDN@PET_PAY@ DB 'PET_PAY', 00H		; `string'
CONST	ENDS
;	COMDAT ??_C@_0BA@EBKLHNHM@PET_ATTR_CHANGE@
CONST	SEGMENT
??_C@_0BA@EBKLHNHM@PET_ATTR_CHANGE@ DB 'PET_ATTR_CHANGE', 00H ; `string'
CONST	ENDS
;	COMDAT ??_C@_0BD@NBMMKPOB@PET_ATTR_DETERMINE@
CONST	SEGMENT
??_C@_0BD@NBMMKPOB@PET_ATTR_DETERMINE@ DB 'PET_ATTR_DETERMINE', 00H ; `string'
CONST	ENDS
;	COMDAT ??_C@_0BA@BFLIKFFA@PET_EXPFOOD_PER@
CONST	SEGMENT
??_C@_0BA@BFLIKFFA@PET_EXPFOOD_PER@ DB 'PET_EXPFOOD_PER', 00H ; `string'
CONST	ENDS
;	COMDAT ??_C@_0BH@CJEGELHG@PET_SKILL_ALL_DEL_BOOK@
CONST	SEGMENT
??_C@_0BH@CJEGELHG@PET_SKILL_ALL_DEL_BOOK@ DB 'PET_SKILL_ALL_DEL_BOOK', 00H ; `string'
CONST	ENDS
;	COMDAT ??_C@_0M@IEIELIHE@PET_EXPFOOD@
CONST	SEGMENT
??_C@_0M@IEIELIHE@PET_EXPFOOD@ DB 'PET_EXPFOOD', 00H	; `string'
CONST	ENDS
;	COMDAT ??_C@_0BA@PPIEAPBO@PET_NAME_CHANGE@
CONST	SEGMENT
??_C@_0BA@PPIEAPBO@PET_NAME_CHANGE@ DB 'PET_NAME_CHANGE', 00H ; `string'
CONST	ENDS
;	COMDAT ??_C@_0BD@EFEANFHJ@PET_SKILL_DEL_BOOK@
CONST	SEGMENT
??_C@_0BD@EFEANFHJ@PET_SKILL_DEL_BOOK@ DB 'PET_SKILL_DEL_BOOK', 00H ; `string'
CONST	ENDS
;	COMDAT ??_C@_09FDPMEDPA@PET_SKILL@
CONST	SEGMENT
??_C@_09FDPMEDPA@PET_SKILL@ DB 'PET_SKILL', 00H		; `string'
CONST	ENDS
;	COMDAT ??_C@_0O@MCCAHOPD@PET_FEEDSTUFF@
CONST	SEGMENT
??_C@_0O@MCCAHOPD@PET_FEEDSTUFF@ DB 'PET_FEEDSTUFF', 00H ; `string'
CONST	ENDS
;	COMDAT ??_C@_07LOJDFPG@PET_BAG@
CONST	SEGMENT
??_C@_07LOJDFPG@PET_BAG@ DB 'PET_BAG', 00H		; `string'
CONST	ENDS
;	COMDAT ??_C@_0P@JONLIAGI@PET_UPBRINGING@
CONST	SEGMENT
??_C@_0P@JONLIAGI@PET_UPBRINGING@ DB 'PET_UPBRINGING', 00H ; `string'
CONST	ENDS
;	COMDAT ??_C@_07JCLDHBPN@PET_EGG@
CONST	SEGMENT
??_C@_07JCLDHBPN@PET_EGG@ DB 'PET_EGG', 00H		; `string'
CONST	ENDS
;	COMDAT ??_C@_0BF@BBGPONC@ITEM_TYPE_GROWTH_PET@
CONST	SEGMENT
??_C@_0BF@BBGPONC@ITEM_TYPE_GROWTH_PET@ DB 'ITEM_TYPE_GROWTH_PET', 00H ; `string'
CONST	ENDS
;	COMDAT ??_C@_0BG@EGEBENF@ITEM_ANTIFLAG_PETFEED@
CONST	SEGMENT
??_C@_0BG@EGEBENF@ITEM_ANTIFLAG_PETFEED@ DB 'ITEM_ANTIFLAG_PETFEED', 00H ; `string'
CONST	ENDS
;	COMDAT ??_C@_0BE@BKHCEENN@ITEM_AURA_BOOST_MAX@
CONST	SEGMENT
??_C@_0BE@BKHCEENN@ITEM_AURA_BOOST_MAX@ DB 'ITEM_AURA_BOOST_MAX', 00H ; `string'
CONST	ENDS
;	COMDAT ??_C@_0BJ@IENBGIID@ITEM_AURA_BOOST_ULTIMATE@
CONST	SEGMENT
??_C@_0BJ@IENBGIID@ITEM_AURA_BOOST_ULTIMATE@ DB 'ITEM_AURA_BOOST_ULTIMATE'
	DB	00H						; `string'
CONST	ENDS
;	COMDAT ??_C@_0BH@IHEOGBBB@ITEM_AURA_BOOST_STRONG@
CONST	SEGMENT
??_C@_0BH@IHEOGBBB@ITEM_AURA_BOOST_STRONG@ DB 'ITEM_AURA_BOOST_STRONG', 00H ; `string'
CONST	ENDS
;	COMDAT ??_C@_0BH@KKPHDIDK@ITEM_AURA_BOOST_NORMAL@
CONST	SEGMENT
??_C@_0BH@KKPHDIDK@ITEM_AURA_BOOST_NORMAL@ DB 'ITEM_AURA_BOOST_NORMAL', 00H ; `string'
CONST	ENDS
;	COMDAT ??_C@_0BF@FNDAMKGI@ITEM_AURA_BOOST_WEAK@
CONST	SEGMENT
??_C@_0BF@FNDAMKGI@ITEM_AURA_BOOST_WEAK@ DB 'ITEM_AURA_BOOST_WEAK', 00H ; `string'
CONST	ENDS
;	COMDAT ??_C@_0BH@FDHGCHHI@ITEM_AURA_BOOST_ERASER@
CONST	SEGMENT
??_C@_0BH@FDHGCHHI@ITEM_AURA_BOOST_ERASER@ DB 'ITEM_AURA_BOOST_ERASER', 00H ; `string'
CONST	ENDS
;	COMDAT ??_C@_0BK@NLOOLJEK@AURA_BOOST_ITEM_VNUM_BASE@
CONST	SEGMENT
??_C@_0BK@NLOOLJEK@AURA_BOOST_ITEM_VNUM_BASE@ DB 'AURA_BOOST_ITEM_VNUM_BA'
	DB	'SE', 00H					; `string'
CONST	ENDS
;	COMDAT ??_C@_0BD@HJLOCD@AURA_GRADE_MAX_NUM@
CONST	SEGMENT
??_C@_0BD@HJLOCD@AURA_GRADE_MAX_NUM@ DB 'AURA_GRADE_MAX_NUM', 00H ; `string'
CONST	ENDS
;	COMDAT ??_C@_0BD@ONEGMILJ@AURA_GRADE_RADIANT@
CONST	SEGMENT
??_C@_0BD@ONEGMILJ@AURA_GRADE_RADIANT@ DB 'AURA_GRADE_RADIANT', 00H ; `string'
CONST	ENDS
;	COMDAT ??_C@_0BH@DOIMOCHC@AURA_GRADE_MAGNIFICENT@
CONST	SEGMENT
??_C@_0BH@DOIMOCHC@AURA_GRADE_MAGNIFICENT@ DB 'AURA_GRADE_MAGNIFICENT', 00H ; `string'
CONST	ENDS
;	COMDAT ??_C@_0BF@GFOMMPCF@AURA_GRADE_SPARKLING@
CONST	SEGMENT
??_C@_0BF@GFOMMPCF@AURA_GRADE_SPARKLING@ DB 'AURA_GRADE_SPARKLING', 00H ; `string'
CONST	ENDS
;	COMDAT ??_C@_0BB@ICAOLOOJ@AURA_GRADE_NOBLE@
CONST	SEGMENT
??_C@_0BB@ICAOLOOJ@AURA_GRADE_NOBLE@ DB 'AURA_GRADE_NOBLE', 00H ; `string'
CONST	ENDS
;	COMDAT ??_C@_0BC@BDEELFEI@AURA_GRADE_SIMPLE@
CONST	SEGMENT
??_C@_0BC@BDEELFEI@AURA_GRADE_SIMPLE@ DB 'AURA_GRADE_SIMPLE', 00H ; `string'
CONST	ENDS
;	COMDAT ??_C@_0BE@KICMMDCG@AURA_GRADE_ORDINARY@
CONST	SEGMENT
??_C@_0BE@KICMMDCG@AURA_GRADE_ORDINARY@ DB 'AURA_GRADE_ORDINARY', 00H ; `string'
CONST	ENDS
;	COMDAT ??_C@_0BA@NICENPGE@AURA_GRADE_NONE@
CONST	SEGMENT
??_C@_0BA@NICENPGE@AURA_GRADE_NONE@ DB 'AURA_GRADE_NONE', 00H ; `string'
CONST	ENDS
;	COMDAT ??_C@_0O@BGKMMFJI@RESOURCE_AURA@
CONST	SEGMENT
??_C@_0O@BGKMMFJI@RESOURCE_AURA@ DB 'RESOURCE_AURA', 00H ; `string'
CONST	ENDS
;	COMDAT ??_C@_0BE@FMIKIPNL@APPLY_ATTBONUS_BOSS@
CONST	SEGMENT
??_C@_0BE@FMIKIPNL@APPLY_ATTBONUS_BOSS@ DB 'APPLY_ATTBONUS_BOSS', 00H ; `string'
CONST	ENDS
;	COMDAT ??_C@_0BF@EICHFHDD@APPLY_ATTBONUS_METIN@
CONST	SEGMENT
??_C@_0BF@EICHFHDD@APPLY_ATTBONUS_METIN@ DB 'APPLY_ATTBONUS_METIN', 00H ; `string'
CONST	ENDS
;	COMDAT ??_C@_0BF@DJOKGBBD@APPLY_ACCEDRAIN_RATE@
CONST	SEGMENT
??_C@_0BF@DJOKGBBD@APPLY_ACCEDRAIN_RATE@ DB 'APPLY_ACCEDRAIN_RATE', 00H ; `string'
CONST	ENDS
;	COMDAT ??_C@_0BE@LAMMPPCG@APPLY_ATTBONUS_DARK@
CONST	SEGMENT
??_C@_0BE@LAMMPPCG@APPLY_ATTBONUS_DARK@ DB 'APPLY_ATTBONUS_DARK', 00H ; `string'
CONST	ENDS
;	COMDAT ??_C@_0BF@DGDLLLOH@APPLY_ATTBONUS_EARTH@
CONST	SEGMENT
??_C@_0BF@DGDLLLOH@APPLY_ATTBONUS_EARTH@ DB 'APPLY_ATTBONUS_EARTH', 00H ; `string'
CONST	ENDS
;	COMDAT ??_C@_0BE@MAJMHMEA@APPLY_ATTBONUS_WIND@
CONST	SEGMENT
??_C@_0BE@MAJMHMEA@APPLY_ATTBONUS_WIND@ DB 'APPLY_ATTBONUS_WIND', 00H ; `string'
CONST	ENDS
;	COMDAT ??_C@_0BD@JAEBEEH@APPLY_ATTBONUS_ICE@
CONST	SEGMENT
??_C@_0BD@JAEBEEH@APPLY_ATTBONUS_ICE@ DB 'APPLY_ATTBONUS_ICE', 00H ; `string'
CONST	ENDS
;	COMDAT ??_C@_0BE@JBDLKJCH@APPLY_ATTBONUS_FIRE@
CONST	SEGMENT
??_C@_0BE@JBDLKJCH@APPLY_ATTBONUS_FIRE@ DB 'APPLY_ATTBONUS_FIRE', 00H ; `string'
CONST	ENDS
;	COMDAT ??_C@_0BE@KOHGDBLG@APPLY_ATTBONUS_ELEC@
CONST	SEGMENT
??_C@_0BE@KOHGDBLG@APPLY_ATTBONUS_ELEC@ DB 'APPLY_ATTBONUS_ELEC', 00H ; `string'
CONST	ENDS
;	COMDAT ??_C@_0BJ@FKDKMNNK@APPLY_ANTI_PENETRATE_PCT@
CONST	SEGMENT
??_C@_0BJ@FKDKMNNK@APPLY_ANTI_PENETRATE_PCT@ DB 'APPLY_ANTI_PENETRATE_PCT'
	DB	00H						; `string'
CONST	ENDS
;	COMDAT ??_C@_0BI@KIMFHHIO@APPLY_ANTI_CRITICAL_PCT@
CONST	SEGMENT
??_C@_0BI@KIMFHHIO@APPLY_ANTI_CRITICAL_PCT@ DB 'APPLY_ANTI_CRITICAL_PCT', 00H ; `string'
CONST	ENDS
;	COMDAT ??_C@_0BC@DDBEBBJF@APPLY_RESIST_DARK@
CONST	SEGMENT
??_C@_0BC@DDBEBBJF@APPLY_RESIST_DARK@ DB 'APPLY_RESIST_DARK', 00H ; `string'
CONST	ENDS
;	COMDAT ??_C@_0BD@GENAIBDP@APPLY_RESIST_EARTH@
CONST	SEGMENT
??_C@_0BD@GENAIBDP@APPLY_RESIST_EARTH@ DB 'APPLY_RESIST_EARTH', 00H ; `string'
CONST	ENDS
;	COMDAT ??_C@_0BB@CGPGAFA@APPLY_RESIST_ICE@
CONST	SEGMENT
??_C@_0BB@CGPGAFA@APPLY_RESIST_ICE@ DB 'APPLY_RESIST_ICE', 00H ; `string'
CONST	ENDS
;	COMDAT ??_C@_0BP@MGKGKJGA@APPLY_MELEE_MAGIC_ATTBONUS_PER@
CONST	SEGMENT
??_C@_0BP@MGKGKJGA@APPLY_MELEE_MAGIC_ATTBONUS_PER@ DB 'APPLY_MELEE_MAGIC_'
	DB	'ATTBONUS_PER', 00H				; `string'
CONST	ENDS
;	COMDAT ??_C@_0BJ@JJJKDKFC@APPLY_MAGIC_ATTBONUS_PER@
CONST	SEGMENT
??_C@_0BJ@JJJKDKFC@APPLY_MAGIC_ATTBONUS_PER@ DB 'APPLY_MAGIC_ATTBONUS_PER'
	DB	00H						; `string'
CONST	ENDS
;	COMDAT ??_C@_0BJ@IGOAELFN@APPLY_COSTUME_ATTR_BONUS@
CONST	SEGMENT
??_C@_0BJ@IGOAELFN@APPLY_COSTUME_ATTR_BONUS@ DB 'APPLY_COSTUME_ATTR_BONUS'
	DB	00H						; `string'
CONST	ENDS
;	COMDAT ??_C@_0N@MOPONLJI@APPLY_ENERGY@
CONST	SEGMENT
??_C@_0N@MOPONLJI@APPLY_ENERGY@ DB 'APPLY_ENERGY', 00H	; `string'
CONST	ENDS
;	COMDAT ??_C@_0BE@POHJKJMD@APPLY_RESIST_SHAMAN@
CONST	SEGMENT
??_C@_0BE@POHJKJMD@APPLY_RESIST_SHAMAN@ DB 'APPLY_RESIST_SHAMAN', 00H ; `string'
CONST	ENDS
;	COMDAT ??_C@_0BC@MEEAHCEF@APPLY_RESIST_SURA@
CONST	SEGMENT
??_C@_0BC@MEEAHCEF@APPLY_RESIST_SURA@ DB 'APPLY_RESIST_SURA', 00H ; `string'
CONST	ENDS
;	COMDAT ??_C@_0BG@MCFLPEMK@APPLY_RESIST_ASSASSIN@
CONST	SEGMENT
??_C@_0BG@MCFLPEMK@APPLY_RESIST_ASSASSIN@ DB 'APPLY_RESIST_ASSASSIN', 00H ; `string'
CONST	ENDS
;	COMDAT ??_C@_0BF@DIEIKMOC@APPLY_RESIST_WARRIOR@
CONST	SEGMENT
??_C@_0BF@DIEIKMOC@APPLY_RESIST_WARRIOR@ DB 'APPLY_RESIST_WARRIOR', 00H ; `string'
CONST	ENDS
;	COMDAT ??_C@_0BO@OAPOHFCD@APPLY_NORMAL_HIT_DEFEND_BONUS@
CONST	SEGMENT
??_C@_0BO@OAPOHFCD@APPLY_NORMAL_HIT_DEFEND_BONUS@ DB 'APPLY_NORMAL_HIT_DE'
	DB	'FEND_BONUS', 00H				; `string'
CONST	ENDS
;	COMDAT ??_C@_0BJ@MCFLODEL@APPLY_SKILL_DEFEND_BONUS@
CONST	SEGMENT
??_C@_0BJ@MCFLODEL@APPLY_SKILL_DEFEND_BONUS@ DB 'APPLY_SKILL_DEFEND_BONUS'
	DB	00H						; `string'
CONST	ENDS
;	COMDAT ??_C@_0BO@KJDLNPKH@APPLY_NORMAL_HIT_DAMAGE_BONUS@
CONST	SEGMENT
??_C@_0BO@KJDLNPKH@APPLY_NORMAL_HIT_DAMAGE_BONUS@ DB 'APPLY_NORMAL_HIT_DA'
	DB	'MAGE_BONUS', 00H				; `string'
CONST	ENDS
;	COMDAT ??_C@_0BJ@ILJOEJMP@APPLY_SKILL_DAMAGE_BONUS@
CONST	SEGMENT
??_C@_0BJ@ILJOEJMP@APPLY_SKILL_DAMAGE_BONUS@ DB 'APPLY_SKILL_DAMAGE_BONUS'
	DB	00H						; `string'
CONST	ENDS
;	COMDAT ??_C@_0BB@OLFCCPEF@APPLY_MAX_SP_PCT@
CONST	SEGMENT
??_C@_0BB@OLFCCPEF@APPLY_MAX_SP_PCT@ DB 'APPLY_MAX_SP_PCT', 00H ; `string'
CONST	ENDS
;	COMDAT ??_C@_0BB@IOILOHHB@APPLY_MAX_HP_PCT@
CONST	SEGMENT
??_C@_0BB@IOILOHHB@APPLY_MAX_HP_PCT@ DB 'APPLY_MAX_HP_PCT', 00H ; `string'
CONST	ENDS
;	COMDAT ??_C@_0BF@CNKLONKF@APPLY_MALL_GOLDBONUS@
CONST	SEGMENT
??_C@_0BF@CNKLONKF@APPLY_MALL_GOLDBONUS@ DB 'APPLY_MALL_GOLDBONUS', 00H ; `string'
CONST	ENDS
;	COMDAT ??_C@_0BF@JHCAFPEC@APPLY_MALL_ITEMBONUS@
CONST	SEGMENT
??_C@_0BF@JHCAFPEC@APPLY_MALL_ITEMBONUS@ DB 'APPLY_MALL_ITEMBONUS', 00H ; `string'
CONST	ENDS
;	COMDAT ??_C@_0BE@HDMKGFGB@APPLY_MALL_EXPBONUS@
CONST	SEGMENT
??_C@_0BE@HDMKGFGB@APPLY_MALL_EXPBONUS@ DB 'APPLY_MALL_EXPBONUS', 00H ; `string'
CONST	ENDS
;	COMDAT ??_C@_0BE@IHABPMCM@APPLY_MALL_DEFBONUS@
CONST	SEGMENT
??_C@_0BE@IHABPMCM@APPLY_MALL_DEFBONUS@ DB 'APPLY_MALL_DEFBONUS', 00H ; `string'
CONST	ENDS
;	COMDAT ??_C@_0BE@INMGAFDB@APPLY_MALL_ATTBONUS@
CONST	SEGMENT
??_C@_0BE@INMGAFDB@APPLY_MALL_ATTBONUS@ DB 'APPLY_MALL_ATTBONUS', 00H ; `string'
CONST	ENDS
;	COMDAT ??_C@_0BH@OMHBNPNG@APPLY_ATTBONUS_MONSTER@
CONST	SEGMENT
??_C@_0BH@OMHBNPNG@APPLY_ATTBONUS_MONSTER@ DB 'APPLY_ATTBONUS_MONSTER', 00H ; `string'
CONST	ENDS
;	COMDAT ??_C@_0BG@HGCDBIBP@APPLY_ATTBONUS_SHAMAN@
CONST	SEGMENT
??_C@_0BG@HGCDBIBP@APPLY_ATTBONUS_SHAMAN@ DB 'APPLY_ATTBONUS_SHAMAN', 00H ; `string'
CONST	ENDS
;	COMDAT ??_C@_0BE@EHJIJMPG@APPLY_ATTBONUS_SURA@
CONST	SEGMENT
??_C@_0BE@EHJIJMPG@APPLY_ATTBONUS_SURA@ DB 'APPLY_ATTBONUS_SURA', 00H ; `string'
CONST	ENDS
;	COMDAT ??_C@_0BI@FDLAHFJJ@APPLY_ATTBONUS_ASSASSIN@
CONST	SEGMENT
??_C@_0BI@FDLAHFJJ@APPLY_ATTBONUS_ASSASSIN@ DB 'APPLY_ATTBONUS_ASSASSIN', 00H ; `string'
CONST	ENDS
;	COMDAT ??_C@_0BH@LHKFGIKM@APPLY_ATTBONUS_WARRIOR@
CONST	SEGMENT
??_C@_0BH@LHKFGIKM@APPLY_ATTBONUS_WARRIOR@ DB 'APPLY_ATTBONUS_WARRIOR', 00H ; `string'
CONST	ENDS
;	COMDAT ??_C@_0BC@MENAELHN@APPLY_MAX_STAMINA@
CONST	SEGMENT
??_C@_0BC@MENAELHN@APPLY_MAX_STAMINA@ DB 'APPLY_MAX_STAMINA', 00H ; `string'
CONST	ENDS
;	COMDAT ??_C@_0BC@ICOAEBEB@APPLY_IMMUNE_FALL@
CONST	SEGMENT
??_C@_0BC@ICOAEBEB@APPLY_IMMUNE_FALL@ DB 'APPLY_IMMUNE_FALL', 00H ; `string'
CONST	ENDS
;	COMDAT ??_C@_0BC@HDPKPEKN@APPLY_IMMUNE_SLOW@
CONST	SEGMENT
??_C@_0BC@HDPKPEKN@APPLY_IMMUNE_SLOW@ DB 'APPLY_IMMUNE_SLOW', 00H ; `string'
CONST	ENDS
;	COMDAT ??_C@_0BC@GMOGAEGD@APPLY_IMMUNE_STUN@
CONST	SEGMENT
??_C@_0BC@GMOGAEGD@APPLY_IMMUNE_STUN@ DB 'APPLY_IMMUNE_STUN', 00H ; `string'
CONST	ENDS
;	COMDAT ??_C@_0BG@FNNLKJON@APPLY_KILL_HP_RECOVER@
CONST	SEGMENT
??_C@_0BG@FNNLKJON@APPLY_KILL_HP_RECOVER@ DB 'APPLY_KILL_HP_RECOVER', 00H ; `string'
CONST	ENDS
;	COMDAT ??_C@_0BD@HAABJCED@APPLY_POTION_BONUS@
CONST	SEGMENT
??_C@_0BD@HAABJCED@APPLY_POTION_BONUS@ DB 'APPLY_POTION_BONUS', 00H ; `string'
CONST	ENDS
;	COMDAT ??_C@_0BG@GJLPLNJK@APPLY_ITEM_DROP_BONUS@
CONST	SEGMENT
??_C@_0BG@GJLPLNJK@APPLY_ITEM_DROP_BONUS@ DB 'APPLY_ITEM_DROP_BONUS', 00H ; `string'
CONST	ENDS
;	COMDAT ??_C@_0BI@CPGCKKHM@APPLY_GOLD_DOUBLE_BONUS@
CONST	SEGMENT
??_C@_0BI@CPGCKKHM@APPLY_GOLD_DOUBLE_BONUS@ DB 'APPLY_GOLD_DOUBLE_BONUS', 00H ; `string'
CONST	ENDS
;	COMDAT ??_C@_0BH@BOFCHNGC@APPLY_EXP_DOUBLE_BONUS@
CONST	SEGMENT
??_C@_0BH@BOFCHNGC@APPLY_EXP_DOUBLE_BONUS@ DB 'APPLY_EXP_DOUBLE_BONUS', 00H ; `string'
CONST	ENDS
;	COMDAT ??_C@_0BG@NAAMOKGC@APPLY_KILL_SP_RECOVER@
CONST	SEGMENT
??_C@_0BG@NAAMOKGC@APPLY_KILL_SP_RECOVER@ DB 'APPLY_KILL_SP_RECOVER', 00H ; `string'
CONST	ENDS
;	COMDAT ??_C@_0BE@CMJGNONM@APPLY_POISON_REDUCE@
CONST	SEGMENT
??_C@_0BE@CMJGNONM@APPLY_POISON_REDUCE@ DB 'APPLY_POISON_REDUCE', 00H ; `string'
CONST	ENDS
;	COMDAT ??_C@_0BE@GIMFBPMF@APPLY_REFLECT_CURSE@
CONST	SEGMENT
??_C@_0BE@GIMFBPMF@APPLY_REFLECT_CURSE@ DB 'APPLY_REFLECT_CURSE', 00H ; `string'
CONST	ENDS
;	COMDAT ??_C@_0BE@JKECBGFJ@APPLY_REFLECT_MELEE@
CONST	SEGMENT
??_C@_0BE@JKECBGFJ@APPLY_REFLECT_MELEE@ DB 'APPLY_REFLECT_MELEE', 00H ; `string'
CONST	ENDS
;	COMDAT ??_C@_0BC@EDEEJCPD@APPLY_RESIST_WIND@
CONST	SEGMENT
??_C@_0BC@EDEEJCPD@APPLY_RESIST_WIND@ DB 'APPLY_RESIST_WIND', 00H ; `string'
CONST	ENDS
;	COMDAT ??_C@_0BB@LKHMHNKD@APPLY_RESIST_FAN@
CONST	SEGMENT
??_C@_0BB@LKHMHNKD@APPLY_RESIST_FAN@ DB 'APPLY_RESIST_FAN', 00H ; `string'
CONST	ENDS
;	COMDAT ??_C@_0BC@GKMPGLNP@APPLY_RESIST_BELL@
CONST	SEGMENT
??_C@_0BC@GKMPGLNP@APPLY_RESIST_BELL@ DB 'APPLY_RESIST_BELL', 00H ; `string'
CONST	ENDS
;	COMDAT ??_C@_0BE@HKIMLKAO@APPLY_RESIST_DAGGER@
CONST	SEGMENT
??_C@_0BE@HKIMLKAO@APPLY_RESIST_DAGGER@ DB 'APPLY_RESIST_DAGGER', 00H ; `string'
CONST	ENDS
;	COMDAT ??_C@_0BF@PPDPGLJM@APPLY_RESIST_TWOHAND@
CONST	SEGMENT
??_C@_0BF@PPDPGLJM@APPLY_RESIST_TWOHAND@ DB 'APPLY_RESIST_TWOHAND', 00H ; `string'
CONST	ENDS
;	COMDAT ??_C@_0BD@FELELOGH@APPLY_RESIST_SWORD@
CONST	SEGMENT
??_C@_0BD@FELELOGH@APPLY_RESIST_SWORD@ DB 'APPLY_RESIST_SWORD', 00H ; `string'
CONST	ENDS
;	COMDAT ??_C@_0M@OLNDHAEO@APPLY_DODGE@
CONST	SEGMENT
??_C@_0M@OLNDHAEO@APPLY_DODGE@ DB 'APPLY_DODGE', 00H	; `string'
CONST	ENDS
;	COMDAT ??_C@_0M@DEKBOLNA@APPLY_BLOCK@
CONST	SEGMENT
??_C@_0M@DEKBOLNA@APPLY_BLOCK@ DB 'APPLY_BLOCK', 00H	; `string'
CONST	ENDS
;	COMDAT ??_C@_0BI@CNPFJGMF@APPLY_DAMAGE_SP_RECOVER@
CONST	SEGMENT
??_C@_0BI@CNPFJGMF@APPLY_DAMAGE_SP_RECOVER@ DB 'APPLY_DAMAGE_SP_RECOVER', 00H ; `string'
CONST	ENDS
;	COMDAT ??_C@_0BE@MMJAOBJI@APPLY_MANA_BURN_PCT@
CONST	SEGMENT
??_C@_0BE@MMJAOBJI@APPLY_MANA_BURN_PCT@ DB 'APPLY_MANA_BURN_PCT', 00H ; `string'
CONST	ENDS
;	COMDAT ??_C@_0P@JJIAAAON@APPLY_STEAL_SP@
CONST	SEGMENT
??_C@_0P@JJIAAAON@APPLY_STEAL_SP@ DB 'APPLY_STEAL_SP', 00H ; `string'
CONST	ENDS
;	COMDAT ??_C@_0P@IJPDEMHM@APPLY_STEAL_HP@
CONST	SEGMENT
??_C@_0P@IJPDEMHM@APPLY_STEAL_HP@ DB 'APPLY_STEAL_HP', 00H ; `string'
CONST	ENDS
;	COMDAT ??_C@_0BG@BGJNMLHF@APPLY_ATTBONUS_MILGYO@
CONST	SEGMENT
??_C@_0BG@BGJNMLHF@APPLY_ATTBONUS_MILGYO@ DB 'APPLY_ATTBONUS_MILGYO', 00H ; `string'
CONST	ENDS
;	COMDAT ??_C@_0BD@GHNBCFFK@APPLY_ATTBONUS_ORC@
CONST	SEGMENT
??_C@_0BD@GHNBCFFK@APPLY_ATTBONUS_ORC@ DB 'APPLY_ATTBONUS_ORC', 00H ; `string'
CONST	ENDS
;	COMDAT ??_C@_0BE@MIHOPHBF@APPLY_PENETRATE_PCT@
CONST	SEGMENT
??_C@_0BE@MIHOPHBF@APPLY_PENETRATE_PCT@ DB 'APPLY_PENETRATE_PCT', 00H ; `string'
CONST	ENDS
;	COMDAT ??_C@_0BD@DOHBCDEC@APPLY_CRITICAL_PCT@
CONST	SEGMENT
??_C@_0BD@DOHBCDEC@APPLY_CRITICAL_PCT@ DB 'APPLY_CRITICAL_PCT', 00H ; `string'
CONST	ENDS
;	COMDAT ??_C@_0P@IGBLFIG@APPLY_STUN_PCT@
CONST	SEGMENT
??_C@_0P@IGBLFIG@APPLY_STUN_PCT@ DB 'APPLY_STUN_PCT', 00H ; `string'
CONST	ENDS
;	COMDAT ??_C@_0P@EAEIAPML@APPLY_SLOW_PCT@
CONST	SEGMENT
??_C@_0P@EAEIAPML@APPLY_SLOW_PCT@ DB 'APPLY_SLOW_PCT', 00H ; `string'
CONST	ENDS
;	COMDAT ??_C@_0BB@OFEPEABG@APPLY_POISON_PCT@
CONST	SEGMENT
??_C@_0BB@OFEPEABG@APPLY_POISON_PCT@ DB 'APPLY_POISON_PCT', 00H ; `string'
CONST	ENDS
;	COMDAT ??_C@_0BD@BIEOENBH@APPLY_RESIST_MAGIC@
CONST	SEGMENT
??_C@_0BD@BIEOENBH@APPLY_RESIST_MAGIC@ DB 'APPLY_RESIST_MAGIC', 00H ; `string'
CONST	ENDS
;	COMDAT ??_C@_0BC@CNKONPAF@APPLY_RESIST_ELEC@
CONST	SEGMENT
??_C@_0BC@CNKONPAF@APPLY_RESIST_ELEC@ DB 'APPLY_RESIST_ELEC', 00H ; `string'
CONST	ENDS
;	COMDAT ??_C@_0BC@BCODEHJE@APPLY_RESIST_FIRE@
CONST	SEGMENT
??_C@_0BC@BCODEHJE@APPLY_RESIST_FIRE@ DB 'APPLY_RESIST_FIRE', 00H ; `string'
CONST	ENDS
;	COMDAT ??_C@_0BB@KEIAGOOG@APPLY_RESIST_BOW@
CONST	SEGMENT
??_C@_0BB@KEIAGOOG@APPLY_RESIST_BOW@ DB 'APPLY_RESIST_BOW', 00H ; `string'
CONST	ENDS
;	COMDAT ??_C@_0BD@DGLENODO@APPLY_BOW_DISTANCE@
CONST	SEGMENT
??_C@_0BD@DGLENODO@APPLY_BOW_DISTANCE@ DB 'APPLY_BOW_DISTANCE', 00H ; `string'
CONST	ENDS
;	COMDAT ??_C@_0BF@FLAIBIKP@APPLY_ATTBONUS_HUMAN@
CONST	SEGMENT
??_C@_0BF@FLAIBIKP@APPLY_ATTBONUS_HUMAN@ DB 'APPLY_ATTBONUS_HUMAN', 00H ; `string'
CONST	ENDS
;	COMDAT ??_C@_0BF@PHBHKMPC@APPLY_ATTBONUS_DEVIL@
CONST	SEGMENT
??_C@_0BF@PHBHKMPC@APPLY_ATTBONUS_DEVIL@ DB 'APPLY_ATTBONUS_DEVIL', 00H ; `string'
CONST	ENDS
;	COMDAT ??_C@_0BG@DEBBIBCN@APPLY_ATTBONUS_UNDEAD@
CONST	SEGMENT
??_C@_0BG@DEBBIBCN@APPLY_ATTBONUS_UNDEAD@ DB 'APPLY_ATTBONUS_UNDEAD', 00H ; `string'
CONST	ENDS
;	COMDAT ??_C@_0BG@FCHNFPKG@APPLY_ATTBONUS_ANIMAL@
CONST	SEGMENT
??_C@_0BG@FCHNFPKG@APPLY_ATTBONUS_ANIMAL@ DB 'APPLY_ATTBONUS_ANIMAL', 00H ; `string'
CONST	ENDS
;	COMDAT ??_C@_0M@CPHNGINI@APPLY_SKILL@
CONST	SEGMENT
??_C@_0M@CPHNGINI@APPLY_SKILL@ DB 'APPLY_SKILL', 00H	; `string'
CONST	ENDS
;	COMDAT ??_C@_0BG@PLJBHAML@APPLY_MAGIC_DEF_GRADE@
CONST	SEGMENT
??_C@_0BG@PLJBHAML@APPLY_MAGIC_DEF_GRADE@ DB 'APPLY_MAGIC_DEF_GRADE', 00H ; `string'
CONST	ENDS
;	COMDAT ??_C@_0BG@JIJNNLOL@APPLY_MAGIC_ATT_GRADE@
CONST	SEGMENT
??_C@_0BG@JIJNNLOL@APPLY_MAGIC_ATT_GRADE@ DB 'APPLY_MAGIC_ATT_GRADE', 00H ; `string'
CONST	ENDS
;	COMDAT ??_C@_0BB@IMPHMAIN@APPLY_CAST_SPEED@
CONST	SEGMENT
??_C@_0BB@IMPHMAIN@APPLY_CAST_SPEED@ DB 'APPLY_CAST_SPEED', 00H ; `string'
CONST	ENDS
;	COMDAT ??_C@_0BA@IHFPGGCP@APPLY_MOV_SPEED@
CONST	SEGMENT
??_C@_0BA@IHFPGGCP@APPLY_MOV_SPEED@ DB 'APPLY_MOV_SPEED', 00H ; `string'
CONST	ENDS
;	COMDAT ??_C@_0BA@PBNDFNHA@APPLY_ATT_SPEED@
CONST	SEGMENT
??_C@_0BA@PBNDFNHA@APPLY_ATT_SPEED@ DB 'APPLY_ATT_SPEED', 00H ; `string'
CONST	ENDS
;	COMDAT ??_C@_0BG@DIKOCKN@APPLY_ATT_GRADE_BONUS@
CONST	SEGMENT
??_C@_0BG@DIKOCKN@APPLY_ATT_GRADE_BONUS@ DB 'APPLY_ATT_GRADE_BONUS', 00H ; `string'
CONST	ENDS
;	COMDAT ??_C@_0BG@DJGIDNN@APPLY_DEF_GRADE_BONUS@
CONST	SEGMENT
??_C@_0BG@DJGIDNN@APPLY_DEF_GRADE_BONUS@ DB 'APPLY_DEF_GRADE_BONUS', 00H ; `string'
CONST	ENDS
;	COMDAT ??_C@_0P@PHBEALO@APPLY_SP_REGEN@
CONST	SEGMENT
??_C@_0P@PHBEALO@APPLY_SP_REGEN@ DB 'APPLY_SP_REGEN', 00H ; `string'
CONST	ENDS
;	COMDAT ??_C@_0P@CBOEJMBC@APPLY_HP_REGEN@
CONST	SEGMENT
??_C@_0P@CBOEJMBC@APPLY_HP_REGEN@ DB 'APPLY_HP_REGEN', 00H ; `string'
CONST	ENDS
;	COMDAT ??_C@_0N@KMLABMCB@APPLY_MAX_SP@
CONST	SEGMENT
??_C@_0N@KMLABMCB@APPLY_MAX_SP@ DB 'APPLY_MAX_SP', 00H	; `string'
CONST	ENDS
;	COMDAT ??_C@_0N@LMMDFALA@APPLY_MAX_HP@
CONST	SEGMENT
??_C@_0N@LMMDFALA@APPLY_MAX_HP@ DB 'APPLY_MAX_HP', 00H	; `string'
CONST	ENDS
;	COMDAT ??_C@_09BKNPHIKC@APPLY_INT@
CONST	SEGMENT
??_C@_09BKNPHIKC@APPLY_INT@ DB 'APPLY_INT', 00H		; `string'
CONST	ENDS
;	COMDAT ??_C@_09MEINAICK@APPLY_CON@
CONST	SEGMENT
??_C@_09MEINAICK@APPLY_CON@ DB 'APPLY_CON', 00H		; `string'
CONST	ENDS
;	COMDAT ??_C@_09EIFFAAJC@APPLY_DEX@
CONST	SEGMENT
??_C@_09EIFFAAJC@APPLY_DEX@ DB 'APPLY_DEX', 00H		; `string'
CONST	ENDS
;	COMDAT ??_C@_09GCJAEOHJ@APPLY_STR@
CONST	SEGMENT
??_C@_09GCJAEOHJ@APPLY_STR@ DB 'APPLY_STR', 00H		; `string'
CONST	ENDS
;	COMDAT ??_C@_0L@KOOBDLCP@APPLY_NONE@
CONST	SEGMENT
??_C@_0L@KOOBDLCP@APPLY_NONE@ DB 'APPLY_NONE', 00H	; `string'
CONST	ENDS
;	COMDAT ??_C@_0BE@PABFDMOM@ITEM_SOCKET_MAX_NUM@
CONST	SEGMENT
??_C@_0BE@PABFDMOM@ITEM_SOCKET_MAX_NUM@ DB 'ITEM_SOCKET_MAX_NUM', 00H ; `string'
CONST	ENDS
;	COMDAT ??_C@_0BD@POBJPMPE@ITEM_APPLY_MAX_NUM@
CONST	SEGMENT
??_C@_0BD@POBJPMPE@ITEM_APPLY_MAX_NUM@ DB 'ITEM_APPLY_MAX_NUM', 00H ; `string'
CONST	ENDS
;	COMDAT ??_C@_0O@DMBNKKCP@ARMOR_PENDANT@
CONST	SEGMENT
??_C@_0O@DMBNKKCP@ARMOR_PENDANT@ DB 'ARMOR_PENDANT', 00H ; `string'
CONST	ENDS
;	COMDAT ??_C@_0L@IBADOHDG@ARMOR_BELT@
CONST	SEGMENT
??_C@_0L@IBADOHDG@ARMOR_BELT@ DB 'ARMOR_BELT', 00H	; `string'
CONST	ENDS
;	COMDAT ??_C@_09JPGIMBID@ARMOR_EAR@
CONST	SEGMENT
??_C@_09JPGIMBID@ARMOR_EAR@ DB 'ARMOR_EAR', 00H		; `string'
CONST	ENDS
;	COMDAT ??_C@_0L@ICPFEDJE@ARMOR_NECK@
CONST	SEGMENT
??_C@_0L@ICPFEDJE@ARMOR_NECK@ DB 'ARMOR_NECK', 00H	; `string'
CONST	ENDS
;	COMDAT ??_C@_0M@JNDJGNLA@ARMOR_FOOTS@
CONST	SEGMENT
??_C@_0M@JNDJGNLA@ARMOR_FOOTS@ DB 'ARMOR_FOOTS', 00H	; `string'
CONST	ENDS
;	COMDAT ??_C@_0M@KCKGDACD@ARMOR_WRIST@
CONST	SEGMENT
??_C@_0M@KCKGDACD@ARMOR_WRIST@ DB 'ARMOR_WRIST', 00H	; `string'
CONST	ENDS
;	COMDAT ??_C@_0N@HJFKCCG@ARMOR_SHIELD@
CONST	SEGMENT
??_C@_0N@HJFKCCG@ARMOR_SHIELD@ DB 'ARMOR_SHIELD', 00H	; `string'
CONST	ENDS
;	COMDAT ??_C@_0L@IJKJHOJF@ARMOR_HEAD@
CONST	SEGMENT
??_C@_0L@IJKJHOJF@ARMOR_HEAD@ DB 'ARMOR_HEAD', 00H	; `string'
CONST	ENDS
;	COMDAT ??_C@_0L@FFADCIKH@ARMOR_BODY@
CONST	SEGMENT
??_C@_0L@FFADCIKH@ARMOR_BODY@ DB 'ARMOR_BODY', 00H	; `string'
CONST	ENDS
;	COMDAT ??_C@_0BB@FEPBJJKM@WEARABLE_PENDANT@
CONST	SEGMENT
??_C@_0BB@FEPBJJKM@WEARABLE_PENDANT@ DB 'WEARABLE_PENDANT', 00H ; `string'
CONST	ENDS
;	COMDAT ??_C@_0O@HKFPGFDE@WEARABLE_BELT@
CONST	SEGMENT
??_C@_0O@HKFPGFDE@WEARABLE_BELT@ DB 'WEARABLE_BELT', 00H ; `string'
CONST	ENDS
;	COMDAT ??_C@_0P@CANFDFEC@WEARABLE_ARROW@
CONST	SEGMENT
??_C@_0P@CANFDFEC@WEARABLE_ARROW@ DB 'WEARABLE_ARROW', 00H ; `string'
CONST	ENDS
;	COMDAT ??_C@_0BA@DGBFNJPE@WEARABLE_SHIELD@
CONST	SEGMENT
??_C@_0BA@DGBFNJPE@WEARABLE_SHIELD@ DB 'WEARABLE_SHIELD', 00H ; `string'
CONST	ENDS
;	COMDAT ??_C@_0BA@FGALGGKF@WEARABLE_UNIQUE@
CONST	SEGMENT
??_C@_0BA@FGALGGKF@WEARABLE_UNIQUE@ DB 'WEARABLE_UNIQUE', 00H ; `string'
CONST	ENDS
;	COMDAT ??_C@_0N@BHKGKGNM@WEARABLE_EAR@
CONST	SEGMENT
??_C@_0N@BHKGKGNM@WEARABLE_EAR@ DB 'WEARABLE_EAR', 00H	; `string'
CONST	ENDS
;	COMDAT ??_C@_0O@HJKJMBJG@WEARABLE_NECK@
CONST	SEGMENT
??_C@_0O@HJKJMBJG@WEARABLE_NECK@ DB 'WEARABLE_NECK', 00H ; `string'
CONST	ENDS
;	COMDAT ??_C@_0BA@NBNKFEIG@WEARABLE_WEAPON@
CONST	SEGMENT
??_C@_0BA@NBNKFEIG@WEARABLE_WEAPON@ DB 'WEARABLE_WEAPON', 00H ; `string'
CONST	ENDS
;	COMDAT ??_C@_0P@EMFDANIN@WEARABLE_WRIST@
CONST	SEGMENT
??_C@_0P@EMFDANIN@WEARABLE_WRIST@ DB 'WEARABLE_WRIST', 00H ; `string'
CONST	ENDS
;	COMDAT ??_C@_0P@HDMMFABO@WEARABLE_FOOTS@
CONST	SEGMENT
??_C@_0P@HDMMFABO@WEARABLE_FOOTS@ DB 'WEARABLE_FOOTS', 00H ; `string'
CONST	ENDS
;	COMDAT ??_C@_0O@HCPFPMJH@WEARABLE_HEAD@
CONST	SEGMENT
??_C@_0O@HCPFPMJH@WEARABLE_HEAD@ DB 'WEARABLE_HEAD', 00H ; `string'
CONST	ENDS
;	COMDAT ??_C@_0O@KOFPKKKF@WEARABLE_BODY@
CONST	SEGMENT
??_C@_0O@KOFPKKKF@WEARABLE_BODY@ DB 'WEARABLE_BODY', 00H ; `string'
CONST	ENDS
;	COMDAT ??_C@_0BD@OJOBBEHO@ANTIFLAG_RT_REMOVE@
CONST	SEGMENT
??_C@_0BD@OJOBBEHO@ANTIFLAG_RT_REMOVE@ DB 'ANTIFLAG_RT_REMOVE', 00H ; `string'
CONST	ENDS
;	COMDAT ??_C@_0BB@GKJKKHEA@ANTIFLAG_DESTROY@
CONST	SEGMENT
??_C@_0BB@GKJKKHEA@ANTIFLAG_DESTROY@ DB 'ANTIFLAG_DESTROY', 00H ; `string'
CONST	ENDS
;	COMDAT ??_C@_0BB@KPDCPAKF@ANTIFLAG_SAFEBOX@
CONST	SEGMENT
??_C@_0BB@KPDCPAKF@ANTIFLAG_SAFEBOX@ DB 'ANTIFLAG_SAFEBOX', 00H ; `string'
CONST	ENDS
;	COMDAT ??_C@_0BA@BKNHAKOI@ANTIFLAG_MYSHOP@
CONST	SEGMENT
??_C@_0BA@BKNHAKOI@ANTIFLAG_MYSHOP@ DB 'ANTIFLAG_MYSHOP', 00H ; `string'
CONST	ENDS
;	COMDAT ??_C@_0P@DFNANGEL@ANTIFLAG_STACK@
CONST	SEGMENT
??_C@_0P@DFNANGEL@ANTIFLAG_STACK@ DB 'ANTIFLAG_STACK', 00H ; `string'
CONST	ENDS
;	COMDAT ??_C@_0BA@LPKEKIBP@ANTIFLAG_PKDROP@
CONST	SEGMENT
??_C@_0BA@LPKEKIBP@ANTIFLAG_PKDROP@ DB 'ANTIFLAG_PKDROP', 00H ; `string'
CONST	ENDS
;	COMDAT ??_C@_0O@PMFAIFED@ANTIFLAG_GIVE@
CONST	SEGMENT
??_C@_0O@PMFAIFED@ANTIFLAG_GIVE@ DB 'ANTIFLAG_GIVE', 00H ; `string'
CONST	ENDS
;	COMDAT ??_C@_0O@KMIEJMOO@ANTIFLAG_SAVE@
CONST	SEGMENT
??_C@_0O@KMIEJMOO@ANTIFLAG_SAVE@ DB 'ANTIFLAG_SAVE', 00H ; `string'
CONST	ENDS
;	COMDAT ??_C@_0BC@NPDFHMBJ@ANTIFLAG_EMPIRE_R@
CONST	SEGMENT
??_C@_0BC@NPDFHMBJ@ANTIFLAG_EMPIRE_R@ DB 'ANTIFLAG_EMPIRE_R', 00H ; `string'
CONST	ENDS
;	COMDAT ??_C@_0BC@JFPHGOEI@ANTIFLAG_EMPIRE_B@
CONST	SEGMENT
??_C@_0BC@JFPHGOEI@ANTIFLAG_EMPIRE_B@ DB 'ANTIFLAG_EMPIRE_B', 00H ; `string'
CONST	ENDS
;	COMDAT ??_C@_0BC@LONKDNIL@ANTIFLAG_EMPIRE_A@
CONST	SEGMENT
??_C@_0BC@LONKDNIL@ANTIFLAG_EMPIRE_A@ DB 'ANTIFLAG_EMPIRE_A', 00H ; `string'
CONST	ENDS
;	COMDAT ??_C@_0O@ODJFJGFG@ANTIFLAG_SELL@
CONST	SEGMENT
??_C@_0O@ODJFJGFG@ANTIFLAG_SELL@ DB 'ANTIFLAG_SELL', 00H ; `string'
CONST	ENDS
;	COMDAT ??_C@_0O@BIKKFBOG@ANTIFLAG_DROP@
CONST	SEGMENT
??_C@_0O@BIKKFBOG@ANTIFLAG_DROP@ DB 'ANTIFLAG_DROP', 00H ; `string'
CONST	ENDS
;	COMDAT ??_C@_0N@NEJHBBKC@ANTIFLAG_GET@
CONST	SEGMENT
??_C@_0N@NEJHBBKC@ANTIFLAG_GET@ DB 'ANTIFLAG_GET', 00H	; `string'
CONST	ENDS
;	COMDAT ??_C@_0BA@BGJNBKEA@ANTIFLAG_SHAMAN@
CONST	SEGMENT
??_C@_0BA@BGJNBKEA@ANTIFLAG_SHAMAN@ DB 'ANTIFLAG_SHAMAN', 00H ; `string'
CONST	ENDS
;	COMDAT ??_C@_0O@BAJKDBPO@ANTIFLAG_SURA@
CONST	SEGMENT
??_C@_0O@BAJKDBPO@ANTIFLAG_SURA@ DB 'ANTIFLAG_SURA', 00H ; `string'
CONST	ENDS
;	COMDAT ??_C@_0BC@IAJNDFJA@ANTIFLAG_ASSASSIN@
CONST	SEGMENT
??_C@_0BC@IAJNDFJA@ANTIFLAG_ASSASSIN@ DB 'ANTIFLAG_ASSASSIN', 00H ; `string'
CONST	ENDS
;	COMDAT ??_C@_0BB@EMBBJKML@ANTIFLAG_WARRIOR@
CONST	SEGMENT
??_C@_0BB@EMBBJKML@ANTIFLAG_WARRIOR@ DB 'ANTIFLAG_WARRIOR', 00H ; `string'
CONST	ENDS
;	COMDAT ??_C@_0O@GCOFJDKL@ANTIFLAG_MALE@
CONST	SEGMENT
??_C@_0O@GCOFJDKL@ANTIFLAG_MALE@ DB 'ANTIFLAG_MALE', 00H ; `string'
CONST	ENDS
;	COMDAT ??_C@_0BA@PLOPKCNG@ANTIFLAG_FEMALE@
CONST	SEGMENT
??_C@_0BA@PLOPKCNG@ANTIFLAG_FEMALE@ DB 'ANTIFLAG_FEMALE', 00H ; `string'
CONST	ENDS
;	COMDAT ??_C@_0BL@IPKGPKMA@ITEM_FLAG_CONFIRM_WHEN_USE@
CONST	SEGMENT
??_C@_0BL@IPKGPKMA@ITEM_FLAG_CONFIRM_WHEN_USE@ DB 'ITEM_FLAG_CONFIRM_WHEN'
	DB	'_USE', 00H					; `string'
CONST	ENDS
;	COMDAT ??_C@_0BB@PGFIBJHK@ITEM_FLAG_UNIQUE@
CONST	SEGMENT
??_C@_0BB@PGFIBJHK@ITEM_FLAG_UNIQUE@ DB 'ITEM_FLAG_UNIQUE', 00H ; `string'
CONST	ENDS
;	COMDAT ??_C@_0P@POCGDPPH@ITEM_FLAG_RARE@
CONST	SEGMENT
??_C@_0P@POCGDPPH@ITEM_FLAG_RARE@ DB 'ITEM_FLAG_RARE', 00H ; `string'
CONST	ENDS
;	COMDAT ??_C@_0BE@LJENCJCN@ITEM_FLAG_STACKABLE@
CONST	SEGMENT
??_C@_0BE@LJENCJCN@ITEM_FLAG_STACKABLE@ DB 'ITEM_FLAG_STACKABLE', 00H ; `string'
CONST	ENDS
;	COMDAT ??_C@_0BI@JFGOOGEF@ITEM_ANTIFLAG_RT_REMOVE@
CONST	SEGMENT
??_C@_0BI@JFGOOGEF@ITEM_ANTIFLAG_RT_REMOVE@ DB 'ITEM_ANTIFLAG_RT_REMOVE', 00H ; `string'
CONST	ENDS
;	COMDAT ??_C@_0BG@MEIFFJLC@ITEM_ANTIFLAG_DESTROY@
CONST	SEGMENT
??_C@_0BG@MEIFFJLC@ITEM_ANTIFLAG_DESTROY@ DB 'ITEM_ANTIFLAG_DESTROY', 00H ; `string'
CONST	ENDS
;	COMDAT ??_C@_0BG@BCNAOFH@ITEM_ANTIFLAG_SAFEBOX@
CONST	SEGMENT
??_C@_0BG@BCNAOFH@ITEM_ANTIFLAG_SAFEBOX@ DB 'ITEM_ANTIFLAG_SAFEBOX', 00H ; `string'
CONST	ENDS
;	COMDAT ??_C@_0BF@NEEDLCAA@ITEM_ANTIFLAG_MYSHOP@
CONST	SEGMENT
??_C@_0BF@NEEDLCAA@ITEM_ANTIFLAG_MYSHOP@ DB 'ITEM_ANTIFLAG_MYSHOP', 00H ; `string'
CONST	ENDS
;	COMDAT ??_C@_0BE@MAIMKBDM@ITEM_ANTIFLAG_STACK@
CONST	SEGMENT
??_C@_0BE@MAIMKBDM@ITEM_ANTIFLAG_STACK@ DB 'ITEM_ANTIFLAG_STACK', 00H ; `string'
CONST	ENDS
;	COMDAT ??_C@_0BF@HBDABAPH@ITEM_ANTIFLAG_PKDROP@
CONST	SEGMENT
??_C@_0BF@HBDABAPH@ITEM_ANTIFLAG_PKDROP@ DB 'ITEM_ANTIFLAG_PKDROP', 00H ; `string'
CONST	ENDS
;	COMDAT ??_C@_0BD@KPODKFBE@ITEM_ANTIFLAG_GIVE@
CONST	SEGMENT
??_C@_0BD@KPODKFBE@ITEM_ANTIFLAG_GIVE@ DB 'ITEM_ANTIFLAG_GIVE', 00H ; `string'
CONST	ENDS
;	COMDAT ??_C@_0BD@PPDHLMLJ@ITEM_ANTIFLAG_SAVE@
CONST	SEGMENT
??_C@_0BD@PPDHLMLJ@ITEM_ANTIFLAG_SAVE@ DB 'ITEM_ANTIFLAG_SAVE', 00H ; `string'
CONST	ENDS
;	COMDAT ??_C@_0BH@IMCIPANH@ITEM_ANTIFLAG_EMPIRE_R@
CONST	SEGMENT
??_C@_0BH@IMCIPANH@ITEM_ANTIFLAG_EMPIRE_R@ DB 'ITEM_ANTIFLAG_EMPIRE_R', 00H ; `string'
CONST	ENDS
;	COMDAT ??_C@_0BH@MGOKOCIG@ITEM_ANTIFLAG_EMPIRE_B@
CONST	SEGMENT
??_C@_0BH@MGOKOCIG@ITEM_ANTIFLAG_EMPIRE_B@ DB 'ITEM_ANTIFLAG_EMPIRE_B', 00H ; `string'
CONST	ENDS
;	COMDAT ??_C@_0BH@ONMHLBEF@ITEM_ANTIFLAG_EMPIRE_A@
CONST	SEGMENT
??_C@_0BH@ONMHLBEF@ITEM_ANTIFLAG_EMPIRE_A@ DB 'ITEM_ANTIFLAG_EMPIRE_A', 00H ; `string'
CONST	ENDS
;	COMDAT ??_C@_0BD@LACGLGAB@ITEM_ANTIFLAG_SELL@
CONST	SEGMENT
??_C@_0BD@LACGLGAB@ITEM_ANTIFLAG_SELL@ DB 'ITEM_ANTIFLAG_SELL', 00H ; `string'
CONST	ENDS
;	COMDAT ??_C@_0BD@ELBJHBLB@ITEM_ANTIFLAG_DROP@
CONST	SEGMENT
??_C@_0BD@ELBJHBLB@ITEM_ANTIFLAG_DROP@ DB 'ITEM_ANTIFLAG_DROP', 00H ; `string'
CONST	ENDS
;	COMDAT ??_C@_0BC@NECEHGFA@ITEM_ANTIFLAG_GET@
CONST	SEGMENT
??_C@_0BC@NECEHGFA@ITEM_ANTIFLAG_GET@ DB 'ITEM_ANTIFLAG_GET', 00H ; `string'
CONST	ENDS
;	COMDAT ??_C@_0BF@NIAJKCKI@ITEM_ANTIFLAG_SHAMAN@
CONST	SEGMENT
??_C@_0BF@NIAJKCKI@ITEM_ANTIFLAG_SHAMAN@ DB 'ITEM_ANTIFLAG_SHAMAN', 00H ; `string'
CONST	ENDS
;	COMDAT ??_C@_0BD@EDCJBBKJ@ITEM_ANTIFLAG_SURA@
CONST	SEGMENT
??_C@_0BD@EDCJBBKJ@ITEM_ANTIFLAG_SURA@ DB 'ITEM_ANTIFLAG_SURA', 00H ; `string'
CONST	ENDS
;	COMDAT ??_C@_0BH@NDIALJFO@ITEM_ANTIFLAG_ASSASSIN@
CONST	SEGMENT
??_C@_0BH@NDIALJFO@ITEM_ANTIFLAG_ASSASSIN@ DB 'ITEM_ANTIFLAG_ASSASSIN', 00H ; `string'
CONST	ENDS
;	COMDAT ??_C@_0BG@OCAOGEDJ@ITEM_ANTIFLAG_WARRIOR@
CONST	SEGMENT
??_C@_0BG@OCAOGEDJ@ITEM_ANTIFLAG_WARRIOR@ DB 'ITEM_ANTIFLAG_WARRIOR', 00H ; `string'
CONST	ENDS
;	COMDAT ??_C@_0BD@DBFGLDPM@ITEM_ANTIFLAG_MALE@
CONST	SEGMENT
??_C@_0BD@DBFGLDPM@ITEM_ANTIFLAG_MALE@ DB 'ITEM_ANTIFLAG_MALE', 00H ; `string'
CONST	ENDS
;	COMDAT ??_C@_0BF@DFHLBKDO@ITEM_ANTIFLAG_FEMALE@
CONST	SEGMENT
??_C@_0BF@DFHLBKDO@ITEM_ANTIFLAG_FEMALE@ DB 'ITEM_ANTIFLAG_FEMALE', 00H ; `string'
CONST	ENDS
;	COMDAT ??_C@_0O@DPNMMLCK@LIMIT_MAX_NUM@
CONST	SEGMENT
??_C@_0O@DPNMMLCK@LIMIT_MAX_NUM@ DB 'LIMIT_MAX_NUM', 00H ; `string'
CONST	ENDS
;	COMDAT ??_C@_0BD@JIAJEJNL@LIMIT_TYPE_MAX_NUM@
CONST	SEGMENT
??_C@_0BD@JIAJEJNL@LIMIT_TYPE_MAX_NUM@ DB 'LIMIT_TYPE_MAX_NUM', 00H ; `string'
CONST	ENDS
;	COMDAT ??_C@_0BK@DKGMKHOA@LIMIT_TIMER_BASED_ON_WEAR@
CONST	SEGMENT
??_C@_0BK@DKGMKHOA@LIMIT_TIMER_BASED_ON_WEAR@ DB 'LIMIT_TIMER_BASED_ON_WE'
	DB	'AR', 00H					; `string'
CONST	ENDS
;	COMDAT ??_C@_0CA@KECNELOI@LIMIT_REAL_TIME_START_FIRST_USE@
CONST	SEGMENT
??_C@_0CA@KECNELOI@LIMIT_REAL_TIME_START_FIRST_USE@ DB 'LIMIT_REAL_TIME_S'
	DB	'TART_FIRST_USE', 00H			; `string'
CONST	ENDS
;	COMDAT ??_C@_0BA@FCJCAFPM@LIMIT_REAL_TIME@
CONST	SEGMENT
??_C@_0BA@FCJCAFPM@LIMIT_REAL_TIME@ DB 'LIMIT_REAL_TIME', 00H ; `string'
CONST	ENDS
;	COMDAT ??_C@_09DIAIGPDD@LIMIT_CON@
CONST	SEGMENT
??_C@_09DIAIGPDD@LIMIT_CON@ DB 'LIMIT_CON', 00H		; `string'
CONST	ENDS
;	COMDAT ??_C@_09OGFKBPLL@LIMIT_INT@
CONST	SEGMENT
??_C@_09OGFKBPLL@LIMIT_INT@ DB 'LIMIT_INT', 00H		; `string'
CONST	ENDS
;	COMDAT ??_C@_09LENAGHIL@LIMIT_DEX@
CONST	SEGMENT
??_C@_09LENAGHIL@LIMIT_DEX@ DB 'LIMIT_DEX', 00H		; `string'
CONST	ENDS
;	COMDAT ??_C@_09JOBFCJGA@LIMIT_STR@
CONST	SEGMENT
??_C@_09JOBFCJGA@LIMIT_STR@ DB 'LIMIT_STR', 00H		; `string'
CONST	ENDS
;	COMDAT ??_C@_0M@CNLALLNH@LIMIT_LEVEL@
CONST	SEGMENT
??_C@_0M@CNLALLNH@LIMIT_LEVEL@ DB 'LIMIT_LEVEL', 00H	; `string'
CONST	ENDS
;	COMDAT ??_C@_0L@MKHGBGII@LIMIT_NONE@
CONST	SEGMENT
??_C@_0L@MKHGBGII@LIMIT_NONE@ DB 'LIMIT_NONE', 00H	; `string'
CONST	ENDS
;	COMDAT ??_C@_0L@MFIGJJDC@METIN_GOLD@
CONST	SEGMENT
??_C@_0L@MFIGJJDC@METIN_GOLD@ DB 'METIN_GOLD', 00H	; `string'
CONST	ENDS
;	COMDAT ??_C@_0N@HOHHHOFD@METIN_NORMAL@
CONST	SEGMENT
??_C@_0N@HOHHHOFD@METIN_NORMAL@ DB 'METIN_NORMAL', 00H	; `string'
CONST	ENDS
;	COMDAT ??_C@_0BJ@KCHKGND@MATERIAL_DS_REFINE_HOLLY@
CONST	SEGMENT
??_C@_0BJ@KCHKGND@MATERIAL_DS_REFINE_HOLLY@ DB 'MATERIAL_DS_REFINE_HOLLY', 00H ; `string'
CONST	ENDS
;	COMDAT ??_C@_0BL@HNMOOIKG@MATERIAL_DS_REFINE_BLESSED@
CONST	SEGMENT
??_C@_0BL@HNMOOIKG@MATERIAL_DS_REFINE_BLESSED@ DB 'MATERIAL_DS_REFINE_BLE'
	DB	'SSED', 00H					; `string'
CONST	ENDS
;	COMDAT ??_C@_0BK@FFJFCNLF@MATERIAL_DS_REFINE_NORMAL@
CONST	SEGMENT
??_C@_0BK@FFJFCNLF@MATERIAL_DS_REFINE_NORMAL@ DB 'MATERIAL_DS_REFINE_NORM'
	DB	'AL', 00H					; `string'
CONST	ENDS
;	COMDAT ??_C@_0BJ@FNHNMEGH@USE_PUT_INTO_AURA_SOCKET@
CONST	SEGMENT
??_C@_0BJ@FNHNMEGH@USE_PUT_INTO_AURA_SOCKET@ DB 'USE_PUT_INTO_AURA_SOCKET'
	DB	00H						; `string'
CONST	ENDS
;	COMDAT ??_C@_0BA@NILKDFNN@USE_AFFECT_PLUS@
CONST	SEGMENT
??_C@_0BA@NILKDFNN@USE_AFFECT_PLUS@ DB 'USE_AFFECT_PLUS', 00H ; `string'
CONST	ENDS
;	COMDAT ??_C@_0BE@FCIOINBF@USE_TIME_CHARGE_FIX@
CONST	SEGMENT
??_C@_0BE@FCIOINBF@USE_TIME_CHARGE_FIX@ DB 'USE_TIME_CHARGE_FIX', 00H ; `string'
CONST	ENDS
;	COMDAT ??_C@_0BE@NEAJJELI@USE_TIME_CHARGE_PER@
CONST	SEGMENT
??_C@_0BE@NEAJJELI@USE_TIME_CHARGE_PER@ DB 'USE_TIME_CHARGE_PER', 00H ; `string'
CONST	ENDS
;	COMDAT ??_C@_0P@MKAMDACK@USE_DETACHMENT@
CONST	SEGMENT
??_C@_0P@MKAMDACK@USE_DETACHMENT@ DB 'USE_DETACHMENT', 00H ; `string'
CONST	ENDS
;	COMDAT ??_C@_0BB@NCIEFOD@USE_INVISIBILITY@
CONST	SEGMENT
??_C@_0BB@NCIEFOD@USE_INVISIBILITY@ DB 'USE_INVISIBILITY', 00H ; `string'
CONST	ENDS
;	COMDAT ??_C@_09PNKHEPEF@USE_CLEAR@
CONST	SEGMENT
??_C@_09PNKHEPEF@USE_CLEAR@ DB 'USE_CLEAR', 00H		; `string'
CONST	ENDS
;	COMDAT ??_C@_0BD@MMDEHJ@USE_POTION_NODELAY@
CONST	SEGMENT
??_C@_0BD@MMDEHJ@USE_POTION_NODELAY@ DB 'USE_POTION_NODELAY', 00H ; `string'
CONST	ENDS
;	COMDAT ??_C@_0M@GHOELJHH@USE_SPECIAL@
CONST	SEGMENT
??_C@_0M@GHOELJHH@USE_SPECIAL@ DB 'USE_SPECIAL', 00H	; `string'
CONST	ENDS
;	COMDAT ??_C@_0BB@PBBDNJH@USE_CREATE_STONE@
CONST	SEGMENT
??_C@_0BB@PBBDNJH@USE_CREATE_STONE@ DB 'USE_CREATE_STONE', 00H ; `string'
CONST	ENDS
;	COMDAT ??_C@_0L@DLLOJMIP@USE_AFFECT@
CONST	SEGMENT
??_C@_0L@DLLOJMIP@USE_AFFECT@ DB 'USE_AFFECT', 00H	; `string'
CONST	ENDS
;	COMDAT ??_C@_0P@JBLCKFGE@USE_ABILITY_UP@
CONST	SEGMENT
??_C@_0P@JBLCKFGE@USE_ABILITY_UP@ DB 'USE_ABILITY_UP', 00H ; `string'
CONST	ENDS
;	COMDAT ??_C@_08LBHGOBNP@USE_BAIT@
CONST	SEGMENT
??_C@_08LBHGOBNP@USE_BAIT@ DB 'USE_BAIT', 00H		; `string'
CONST	ENDS
;	COMDAT ??_C@_0N@BOHEHPFI@USE_MONEYBAG@
CONST	SEGMENT
??_C@_0N@BOHEHPFI@USE_MONEYBAG@ DB 'USE_MONEYBAG', 00H	; `string'
CONST	ENDS
;	COMDAT ??_C@_0BB@BBPDKOFG@USE_TREASURE_BOX@
CONST	SEGMENT
??_C@_0BB@BBPDKOFG@USE_TREASURE_BOX@ DB 'USE_TREASURE_BOX', 00H ; `string'
CONST	ENDS
;	COMDAT ??_C@_08JHFKMGGA@USE_MOVE@
CONST	SEGMENT
??_C@_08JHFKMGGA@USE_MOVE@ DB 'USE_MOVE', 00H		; `string'
CONST	ENDS
;	COMDAT ??_C@_0L@JIILHJGL@USE_TUNING@
CONST	SEGMENT
??_C@_0L@JIILHJGL@USE_TUNING@ DB 'USE_TUNING', 00H	; `string'
CONST	ENDS
;	COMDAT ??_C@_0N@CINBPLKM@USE_TALISMAN@
CONST	SEGMENT
??_C@_0N@CINBPLKM@USE_TALISMAN@ DB 'USE_TALISMAN', 00H	; `string'
CONST	ENDS
;	COMDAT ??_C@_0L@DENJCCNI@USE_POTION@
CONST	SEGMENT
??_C@_0L@DENJCCNI@USE_POTION@ DB 'USE_POTION', 00H	; `string'
CONST	ENDS
;	COMDAT ??_C@_0BB@KFDFBDPL@WEAPON_NUM_TYPES@
CONST	SEGMENT
??_C@_0BB@KFDFBDPL@WEAPON_NUM_TYPES@ DB 'WEAPON_NUM_TYPES', 00H ; `string'
CONST	ENDS
;	COMDAT ??_C@_0N@DCOAOKB@WEAPON_ARROW@
CONST	SEGMENT
??_C@_0N@DCOAOKB@WEAPON_ARROW@ DB 'WEAPON_ARROW', 00H	; `string'
CONST	ENDS
;	COMDAT ??_C@_0L@LNCOBKNJ@WEAPON_FAN@
CONST	SEGMENT
??_C@_0L@LNCOBKNJ@WEAPON_FAN@ DB 'WEAPON_FAN', 00H	; `string'
CONST	ENDS
;	COMDAT ??_C@_0M@NKBIKBJK@WEAPON_BELL@
CONST	SEGMENT
??_C@_0M@NKBIKBJK@WEAPON_BELL@ DB 'WEAPON_BELL', 00H	; `string'
CONST	ENDS
;	COMDAT ??_C@_0BC@OILJBHHK@WEAPON_TWO_HANDED@
CONST	SEGMENT
??_C@_0BC@OILJBHHK@WEAPON_TWO_HANDED@ DB 'WEAPON_TWO_HANDED', 00H ; `string'
CONST	ENDS
;	COMDAT ??_C@_0L@KDNCAJJM@WEAPON_BOW@
CONST	SEGMENT
??_C@_0L@KDNCAJJM@WEAPON_BOW@ DB 'WEAPON_BOW', 00H	; `string'
CONST	ENDS
;	COMDAT ??_C@_0O@IMDDJKDH@WEAPON_DAGGER@
CONST	SEGMENT
??_C@_0O@IMDDJKDH@WEAPON_DAGGER@ DB 'WEAPON_DAGGER', 00H ; `string'
CONST	ENDS
;	COMDAT ??_C@_0N@FCLCNMLC@WEAPON_SWORD@
CONST	SEGMENT
??_C@_0N@FCLCNMLC@WEAPON_SWORD@ DB 'WEAPON_SWORD', 00H	; `string'
CONST	ENDS
;	COMDAT ??_C@_0BO@KNLOLNDC@CHANGERS_INVENTORY_SLOT_START@
CONST	SEGMENT
??_C@_0BO@KNLOLNDC@CHANGERS_INVENTORY_SLOT_START@ DB 'CHANGERS_INVENTORY_'
	DB	'SLOT_START', 00H				; `string'
CONST	ENDS
;	COMDAT ??_C@_0BO@HIOPBILE@GIFT_BOX_INVENTORY_SLOT_START@
CONST	SEGMENT
??_C@_0BO@HIOPBILE@GIFT_BOX_INVENTORY_SLOT_START@ DB 'GIFT_BOX_INVENTORY_'
	DB	'SLOT_START', 00H				; `string'
CONST	ENDS
;	COMDAT ??_C@_0BL@IMGEBG@STONE_INVENTORY_SLOT_START@
CONST	SEGMENT
??_C@_0BL@IMGEBG@STONE_INVENTORY_SLOT_START@ DB 'STONE_INVENTORY_SLOT_STA'
	DB	'RT', 00H					; `string'
CONST	ENDS
;	COMDAT ??_C@_0CD@NBCKCAOA@UPGRADE_ITEMS_INVENTORY_SLOT_ST@
CONST	SEGMENT
??_C@_0CD@NBCKCAOA@UPGRADE_ITEMS_INVENTORY_SLOT_ST@ DB 'UPGRADE_ITEMS_INV'
	DB	'ENTORY_SLOT_START', 00H			; `string'
CONST	ENDS
;	COMDAT ??_C@_0CA@GGBKFPIG@SKILL_BOOK_INVENTORY_SLOT_START@
CONST	SEGMENT
??_C@_0CA@GGBKFPIG@SKILL_BOOK_INVENTORY_SLOT_START@ DB 'SKILL_BOOK_INVENT'
	DB	'ORY_SLOT_START', 00H			; `string'
CONST	ENDS
;	COMDAT ??_C@_0BI@GPHFDCEJ@BELT_INVENTORY_SLOT_END@
CONST	SEGMENT
??_C@_0BI@GPHFDCEJ@BELT_INVENTORY_SLOT_END@ DB 'BELT_INVENTORY_SLOT_END', 00H ; `string'
CONST	ENDS
;	COMDAT ??_C@_0BK@EOCDAIHE@BELT_INVENTORY_SLOT_COUNT@
CONST	SEGMENT
??_C@_0BK@EOCDAIHE@BELT_INVENTORY_SLOT_COUNT@ DB 'BELT_INVENTORY_SLOT_COU'
	DB	'NT', 00H					; `string'
CONST	ENDS
;	COMDAT ??_C@_0BK@JAICDGKA@BELT_INVENTORY_SLOT_START@
CONST	SEGMENT
??_C@_0BK@JAICDGKA@BELT_INVENTORY_SLOT_START@ DB 'BELT_INVENTORY_SLOT_STA'
	DB	'RT', 00H					; `string'
CONST	ENDS
;	COMDAT ??_C@_0BB@IEFLAOJF@COSTUME_SLOT_END@
CONST	SEGMENT
??_C@_0BB@IEFLAOJF@COSTUME_SLOT_END@ DB 'COSTUME_SLOT_END', 00H ; `string'
CONST	ENDS
;	COMDAT ??_C@_0BC@DLAOLBN@COSTUME_SLOT_AURA@
CONST	SEGMENT
??_C@_0BC@DLAOLBN@COSTUME_SLOT_AURA@ DB 'COSTUME_SLOT_AURA', 00H ; `string'
CONST	ENDS
;	COMDAT ??_C@_0BB@KFALFEII@COSTUME_SLOT_PET@
CONST	SEGMENT
??_C@_0BB@KFALFEII@COSTUME_SLOT_PET@ DB 'COSTUME_SLOT_PET', 00H ; `string'
CONST	ENDS
;	COMDAT ??_C@_0BD@HGMLHELO@COSTUME_SLOT_MOUNT@
CONST	SEGMENT
??_C@_0BD@HGMLHELO@COSTUME_SLOT_MOUNT@ DB 'COSTUME_SLOT_MOUNT', 00H ; `string'
CONST	ENDS
;	COMDAT ??_C@_0BE@BFLFIKON@COSTUME_SLOT_WEAPON@
CONST	SEGMENT
??_C@_0BE@BFLFIKON@COSTUME_SLOT_WEAPON@ DB 'COSTUME_SLOT_WEAPON', 00H ; `string'
CONST	ENDS
;	COMDAT ??_C@_0BC@PEKOPBN@COSTUME_SLOT_ACCE@
CONST	SEGMENT
??_C@_0BC@PEKOPBN@COSTUME_SLOT_ACCE@ DB 'COSTUME_SLOT_ACCE', 00H ; `string'
CONST	ENDS
;	COMDAT ??_C@_0BC@KAEHEEKH@COSTUME_SLOT_HAIR@
CONST	SEGMENT
??_C@_0BC@KAEHEEKH@COSTUME_SLOT_HAIR@ DB 'COSTUME_SLOT_HAIR', 00H ; `string'
CONST	ENDS
;	COMDAT ??_C@_0BC@OBAEGBKN@COSTUME_SLOT_BODY@
CONST	SEGMENT
??_C@_0BC@OBAEGBKN@COSTUME_SLOT_BODY@ DB 'COSTUME_SLOT_BODY', 00H ; `string'
CONST	ENDS
;	COMDAT ??_C@_0BD@EMMBBFMO@COSTUME_SLOT_COUNT@
CONST	SEGMENT
??_C@_0BD@EMMBBFMO@COSTUME_SLOT_COUNT@ DB 'COSTUME_SLOT_COUNT', 00H ; `string'
CONST	ENDS
;	COMDAT ??_C@_0BD@JCGACLBK@COSTUME_SLOT_START@
CONST	SEGMENT
??_C@_0BD@JCGACLBK@COSTUME_SLOT_START@ DB 'COSTUME_SLOT_START', 00H ; `string'
CONST	ENDS
;	COMDAT ??_C@_0BC@GDAJEDKH@COSTUME_TYPE_AURA@
CONST	SEGMENT
??_C@_0BC@GDAJEDKH@COSTUME_TYPE_AURA@ DB 'COSTUME_TYPE_AURA', 00H ; `string'
CONST	ENDS
;	COMDAT ??_C@_0BB@KMCNDLBH@COSTUME_TYPE_PET@
CONST	SEGMENT
??_C@_0BB@KMCNDLBH@COSTUME_TYPE_PET@ DB 'COSTUME_TYPE_PET', 00H ; `string'
CONST	ENDS
;	COMDAT ??_C@_0BD@FNBPJHIE@COSTUME_TYPE_MOUNT@
CONST	SEGMENT
??_C@_0BD@FNBPJHIE@COSTUME_TYPE_MOUNT@ DB 'COSTUME_TYPE_MOUNT', 00H ; `string'
CONST	ENDS
;	COMDAT ??_C@_0BE@NDJCIHLM@COSTUME_TYPE_WEAPON@
CONST	SEGMENT
??_C@_0BE@NDJCIHLM@COSTUME_TYPE_WEAPON@ DB 'COSTUME_TYPE_WEAPON', 00H ; `string'
CONST	ENDS
;	COMDAT ??_C@_0BC@GPPDEHKH@COSTUME_TYPE_ACCE@
CONST	SEGMENT
??_C@_0BC@GPPDEHKH@COSTUME_TYPE_ACCE@ DB 'COSTUME_TYPE_ACCE', 00H ; `string'
CONST	ENDS
;	COMDAT ??_C@_0BC@MAPOOMBN@COSTUME_TYPE_HAIR@
CONST	SEGMENT
??_C@_0BC@MAPOOMBN@COSTUME_TYPE_HAIR@ DB 'COSTUME_TYPE_HAIR', 00H ; `string'
CONST	ENDS
;	COMDAT ??_C@_0BC@IBLNMJBH@COSTUME_TYPE_BODY@
CONST	SEGMENT
??_C@_0BC@IBLNMJBH@COSTUME_TYPE_BODY@ DB 'COSTUME_TYPE_BODY', 00H ; `string'
CONST	ENDS
;	COMDAT ??_C@_0BC@GOFIPFBN@ITEM_TYPE_COSTUME@
CONST	SEGMENT
??_C@_0BC@GOFIPFBN@ITEM_TYPE_COSTUME@ DB 'ITEM_TYPE_COSTUME', 00H ; `string'
CONST	ENDS
;	COMDAT ??_C@_0BA@KMDJFAKG@ITEM_TYPE_TITLE@
CONST	SEGMENT
??_C@_0BA@KMDJFAKG@ITEM_TYPE_TITLE@ DB 'ITEM_TYPE_TITLE', 00H ; `string'
CONST	ENDS
;	COMDAT ??_C@_0O@DFMEJAJP@ITEM_TYPE_PET@
CONST	SEGMENT
??_C@_0O@DFMEJAJP@ITEM_TYPE_PET@ DB 'ITEM_TYPE_PET', 00H ; `string'
CONST	ENDS
;	COMDAT ??_C@_0BA@OPEBGGEO@ITEM_TYPE_MOUNT@
CONST	SEGMENT
??_C@_0BA@OPEBGGEO@ITEM_TYPE_MOUNT@ DB 'ITEM_TYPE_MOUNT', 00H ; `string'
CONST	ENDS
;	COMDAT ??_C@_0P@POBKFJPJ@ITEM_TYPE_RING@
CONST	SEGMENT
??_C@_0P@POBKFJPJ@ITEM_TYPE_RING@ DB 'ITEM_TYPE_RING', 00H ; `string'
CONST	ENDS
;	COMDAT ??_C@_0BC@OLPPIKKB@ITEM_TYPE_GIFTBOX@
CONST	SEGMENT
??_C@_0BC@OLPPIKKB@ITEM_TYPE_GIFTBOX@ DB 'ITEM_TYPE_GIFTBOX', 00H ; `string'
CONST	ENDS
;	COMDAT ??_C@_0BF@GGLFIBNL@ITEM_TYPE_SPECIAL_DS@
CONST	SEGMENT
??_C@_0BF@GGLFIBNL@ITEM_TYPE_SPECIAL_DS@ DB 'ITEM_TYPE_SPECIAL_DS', 00H ; `string'
CONST	ENDS
;	COMDAT ??_C@_0N@BKIJEOLO@ITEM_TYPE_DS@
CONST	SEGMENT
??_C@_0N@BKIJEOLO@ITEM_TYPE_DS@ DB 'ITEM_TYPE_DS', 00H	; `string'
CONST	ENDS
;	COMDAT ??_C@_0BA@EDGMOLIF@ITEM_TYPE_BLEND@
CONST	SEGMENT
??_C@_0BA@EDGMOLIF@ITEM_TYPE_BLEND@ DB 'ITEM_TYPE_BLEND', 00H ; `string'
CONST	ENDS
;	COMDAT ??_C@_0P@CALHNGMG@ITEM_TYPE_PICK@
CONST	SEGMENT
??_C@_0P@CALHNGMG@ITEM_TYPE_PICK@ DB 'ITEM_TYPE_PICK', 00H ; `string'
CONST	ENDS
;	COMDAT ??_C@_0BH@KGMIMAKI@ITEM_TYPE_TREASURE_KEY@
CONST	SEGMENT
??_C@_0BH@KGMIMAKI@ITEM_TYPE_TREASURE_KEY@ DB 'ITEM_TYPE_TREASURE_KEY', 00H ; `string'
CONST	ENDS
;	COMDAT ??_C@_0BH@MPEMDLLF@ITEM_TYPE_TREASURE_BOX@
CONST	SEGMENT
??_C@_0BH@MPEMDLLF@ITEM_TYPE_TREASURE_BOX@ DB 'ITEM_TYPE_TREASURE_BOX', 00H ; `string'
CONST	ENDS
;	COMDAT ??_C@_0BE@DGPJCLHG@ITEM_TYPE_POLYMORPH@
CONST	SEGMENT
??_C@_0BE@DGPJCLHG@ITEM_TYPE_POLYMORPH@ DB 'ITEM_TYPE_POLYMORPH', 00H ; `string'
CONST	ENDS
;	COMDAT ??_C@_0BA@PFOCEMDB@ITEM_TYPE_QUEST@
CONST	SEGMENT
??_C@_0BA@PFOCEMDB@ITEM_TYPE_QUEST@ DB 'ITEM_TYPE_QUEST', 00H ; `string'
CONST	ENDS
;	COMDAT ??_C@_0BE@FAMMFDKM@ITEM_TYPE_SKILLBOOK@
CONST	SEGMENT
??_C@_0BE@FAMMFDKM@ITEM_TYPE_SKILLBOOK@ DB 'ITEM_TYPE_SKILLBOOK', 00H ; `string'
CONST	ENDS
;	COMDAT ??_C@_0BB@CPEAMAMA@ITEM_TYPE_UNIQUE@
CONST	SEGMENT
??_C@_0BB@CPEAMAMA@ITEM_TYPE_UNIQUE@ DB 'ITEM_TYPE_UNIQUE', 00H ; `string'
CONST	ENDS
;	COMDAT ??_C@_0BD@OGNHPHCL@ITEM_TYPE_CAMPFIRE@
CONST	SEGMENT
??_C@_0BD@OGNHPHCL@ITEM_TYPE_CAMPFIRE@ DB 'ITEM_TYPE_CAMPFIRE', 00H ; `string'
CONST	ENDS
;	COMDAT ??_C@_0BD@KBPLAMLF@ITEM_TYPE_RESOURCE@
CONST	SEGMENT
??_C@_0BD@KBPLAMLF@ITEM_TYPE_RESOURCE@ DB 'ITEM_TYPE_RESOURCE', 00H ; `string'
CONST	ENDS
;	COMDAT ??_C@_0O@NIJIMPJD@ITEM_TYPE_ROD@
CONST	SEGMENT
??_C@_0O@NIJIMPJD@ITEM_TYPE_ROD@ DB 'ITEM_TYPE_ROD', 00H ; `string'
CONST	ENDS
;	COMDAT ??_C@_0P@PIBMEEFH@ITEM_TYPE_FISH@
CONST	SEGMENT
??_C@_0P@PIBMEEFH@ITEM_TYPE_FISH@ DB 'ITEM_TYPE_FISH', 00H ; `string'
CONST	ENDS
;	COMDAT ??_C@_0BE@JBBPDBJM@ITEM_TYPE_CONTAINER@
CONST	SEGMENT
??_C@_0BE@JBBPDBJM@ITEM_TYPE_CONTAINER@ DB 'ITEM_TYPE_CONTAINER', 00H ; `string'
CONST	ENDS
;	COMDAT ??_C@_0BA@KICPPFNE@ITEM_TYPE_METIN@
CONST	SEGMENT
??_C@_0BA@KICPPFNE@ITEM_TYPE_METIN@ DB 'ITEM_TYPE_METIN', 00H ; `string'
CONST	ENDS
;	COMDAT ??_C@_0O@JAIIACCD@ITEM_TYPE_ELK@
CONST	SEGMENT
??_C@_0O@JAIIACCD@ITEM_TYPE_ELK@ DB 'ITEM_TYPE_ELK', 00H ; `string'
CONST	ENDS
;	COMDAT ??_C@_0BC@LGJDJIG@ITEM_TYPE_LOTTERY@
CONST	SEGMENT
??_C@_0BC@LGJDJIG@ITEM_TYPE_LOTTERY@ DB 'ITEM_TYPE_LOTTERY', 00H ; `string'
CONST	ENDS
;	COMDAT ??_C@_0P@LGAHEAHJ@ITEM_TYPE_TOOL@
CONST	SEGMENT
??_C@_0P@LGAHEAHJ@ITEM_TYPE_TOOL@ DB 'ITEM_TYPE_TOOL', 00H ; `string'
CONST	ENDS
;	COMDAT ??_C@_0BC@EGCNCIAP@ITEM_TYPE_SPECIAL@
CONST	SEGMENT
??_C@_0BC@EGCNCIAP@ITEM_TYPE_SPECIAL@ DB 'ITEM_TYPE_SPECIAL', 00H ; `string'
CONST	ENDS
;	COMDAT ??_C@_0BD@NFIKPBKO@ITEM_TYPE_MATERIAL@
CONST	SEGMENT
??_C@_0BD@NFIKPBKO@ITEM_TYPE_MATERIAL@ DB 'ITEM_TYPE_MATERIAL', 00H ; `string'
CONST	ENDS
;	COMDAT ??_C@_0BC@PDFOCJLB@ITEM_TYPE_AUTOUSE@
CONST	SEGMENT
??_C@_0BC@PDFOCJLB@ITEM_TYPE_AUTOUSE@ DB 'ITEM_TYPE_AUTOUSE', 00H ; `string'
CONST	ENDS
;	COMDAT ??_C@_0O@EJGIJMHP@ITEM_TYPE_USE@
CONST	SEGMENT
??_C@_0O@EJGIJMHP@ITEM_TYPE_USE@ DB 'ITEM_TYPE_USE', 00H ; `string'
CONST	ENDS
;	COMDAT ??_C@_0BA@MCMGEHMH@ITEM_TYPE_ARMOR@
CONST	SEGMENT
??_C@_0BA@MCMGEHMH@ITEM_TYPE_ARMOR@ DB 'ITEM_TYPE_ARMOR', 00H ; `string'
CONST	ENDS
;	COMDAT ??_C@_0BB@KIJBPCOD@ITEM_TYPE_WEAPON@
CONST	SEGMENT
??_C@_0BB@KIJBPCOD@ITEM_TYPE_WEAPON@ DB 'ITEM_TYPE_WEAPON', 00H ; `string'
CONST	ENDS
;	COMDAT ??_C@_0P@EMFHBOCE@ITEM_TYPE_NONE@
CONST	SEGMENT
??_C@_0P@EMFHBOCE@ITEM_TYPE_NONE@ DB 'ITEM_TYPE_NONE', 00H ; `string'
CONST	ENDS
;	COMDAT ??_C@_0BC@LFKEDEAE@EQUIPMENT_PENDANT@
CONST	SEGMENT
??_C@_0BC@LFKEDEAE@EQUIPMENT_PENDANT@ DB 'EQUIPMENT_PENDANT', 00H ; `string'
CONST	ENDS
;	COMDAT ??_C@_0BA@NADJMHBA@EQUIPMENT_TITLE@
CONST	SEGMENT
??_C@_0BA@NADJMHBA@EQUIPMENT_TITLE@ DB 'EQUIPMENT_TITLE', 00H ; `string'
CONST	ENDS
;	COMDAT ??_C@_0O@JLMIJBLB@EQUIPMENT_PET@
CONST	SEGMENT
??_C@_0O@JLMIJBLB@EQUIPMENT_PET@ DB 'EQUIPMENT_PET', 00H ; `string'
CONST	ENDS
;	COMDAT ??_C@_0BA@JDEBPBPI@EQUIPMENT_MOUNT@
CONST	SEGMENT
??_C@_0BA@JDEBPBPI@EQUIPMENT_MOUNT@ DB 'EQUIPMENT_MOUNT', 00H ; `string'
CONST	ENDS
;	COMDAT ??_C@_0P@GKDPOFPB@EQUIPMENT_BELT@
CONST	SEGMENT
??_C@_0P@GKDPOFPB@EQUIPMENT_BELT@ DB 'EQUIPMENT_BELT', 00H ; `string'
CONST	ENDS
;	COMDAT ??_C@_0BA@FFOPJDCG@EQUIPMENT_RING2@
CONST	SEGMENT
??_C@_0BA@FFOPJDCG@EQUIPMENT_RING2@ DB 'EQUIPMENT_RING2', 00H ; `string'
CONST	ENDS
;	COMDAT ??_C@_0BA@HOMCMAOF@EQUIPMENT_RING1@
CONST	SEGMENT
??_C@_0BA@HOMCMAOF@EQUIPMENT_RING1@ DB 'EQUIPMENT_RING1', 00H ; `string'
CONST	ENDS
;	COMDAT ??_C@_0BB@GNCAGJLP@EQUIPMENT_SHIELD@
CONST	SEGMENT
??_C@_0BB@GNCAGJLP@EQUIPMENT_SHIELD@ DB 'EQUIPMENT_SHIELD', 00H ; `string'
CONST	ENDS
;	COMDAT ??_C@_0BA@MLMLGDPN@EQUIPMENT_ARROW@
CONST	SEGMENT
??_C@_0BA@MLMLGDPN@EQUIPMENT_ARROW@ DB 'EQUIPMENT_ARROW', 00H ; `string'
CONST	ENDS
;	COMDAT ??_C@_0BC@KKMPKFNI@EQUIPMENT_UNIQUE2@
CONST	SEGMENT
??_C@_0BC@KKMPKFNI@EQUIPMENT_UNIQUE2@ DB 'EQUIPMENT_UNIQUE2', 00H ; `string'
CONST	ENDS
;	COMDAT ??_C@_0BC@IBOCPGBL@EQUIPMENT_UNIQUE1@
CONST	SEGMENT
??_C@_0BC@IBOCPGBL@EQUIPMENT_UNIQUE1@ DB 'EQUIPMENT_UNIQUE1', 00H ; `string'
CONST	ENDS
;	COMDAT ??_C@_0O@KNFMDJEG@EQUIPMENT_EAR@
CONST	SEGMENT
??_C@_0O@KNFMDJEG@EQUIPMENT_EAR@ DB 'EQUIPMENT_EAR', 00H ; `string'
CONST	ENDS
;	COMDAT ??_C@_0P@GJMJEBFD@EQUIPMENT_NECK@
CONST	SEGMENT
??_C@_0P@GJMJEBFD@EQUIPMENT_NECK@ DB 'EQUIPMENT_NECK', 00H ; `string'
CONST	ENDS
;	COMDAT ??_C@_0BA@GEANIANO@EQUIPMENT_SHOES@
CONST	SEGMENT
??_C@_0BA@GEANIANO@EQUIPMENT_SHOES@ DB 'EQUIPMENT_SHOES', 00H ; `string'
CONST	ENDS
;	COMDAT ??_C@_0BA@KHENFLDC@EQUIPMENT_WRIST@
CONST	SEGMENT
??_C@_0BA@KHENFLDC@EQUIPMENT_WRIST@ DB 'EQUIPMENT_WRIST', 00H ; `string'
CONST	ENDS
;	COMDAT ??_C@_0BB@IKOPOEMN@EQUIPMENT_WEAPON@
CONST	SEGMENT
??_C@_0BB@IKOPOEMN@EQUIPMENT_WEAPON@ DB 'EQUIPMENT_WEAPON', 00H ; `string'
CONST	ENDS
;	COMDAT ??_C@_0P@LODPCKGA@EQUIPMENT_BODY@
CONST	SEGMENT
??_C@_0P@LODPCKGA@EQUIPMENT_BODY@ DB 'EQUIPMENT_BODY', 00H ; `string'
CONST	ENDS
;	COMDAT ??_C@_0P@GCJFHMFC@EQUIPMENT_HEAD@
CONST	SEGMENT
??_C@_0P@GCJFHMFC@EQUIPMENT_HEAD@ DB 'EQUIPMENT_HEAD', 00H ; `string'
CONST	ENDS
;	COMDAT ??_C@_0BA@KJELJAII@EQUIPMENT_COUNT@
CONST	SEGMENT
??_C@_0BA@KJELJAII@EQUIPMENT_COUNT@ DB 'EQUIPMENT_COUNT', 00H ; `string'
CONST	ENDS
;	COMDAT ??_C@_0BB@JMMPMOOC@DROPSOUND_WEAPON@
CONST	SEGMENT
??_C@_0BB@JMMPMOOC@DROPSOUND_WEAPON@ DB 'DROPSOUND_WEAPON', 00H ; `string'
CONST	ENDS
;	COMDAT ??_C@_0BC@BONOAPBN@DROPSOUND_DEFAULT@
CONST	SEGMENT
??_C@_0BC@BONOAPBN@DROPSOUND_DEFAULT@ DB 'DROPSOUND_DEFAULT', 00H ; `string'
CONST	ENDS
;	COMDAT ??_C@_0O@OOJPAKOO@DROPSOUND_BOW@
CONST	SEGMENT
??_C@_0O@OOJPAKOO@DROPSOUND_BOW@ DB 'DROPSOUND_BOW', 00H ; `string'
CONST	ENDS
;	COMDAT ??_C@_0BA@PCCDLKKO@DROPSOUND_ARMOR@
CONST	SEGMENT
??_C@_0BA@PCCDLKKO@DROPSOUND_ARMOR@ DB 'DROPSOUND_ARMOR', 00H ; `string'
CONST	ENDS
;	COMDAT ??_C@_0BE@PBPPNIPJ@DROPSOUND_ACCESSORY@
CONST	SEGMENT
??_C@_0BE@PBPPNIPJ@DROPSOUND_ACCESSORY@ DB 'DROPSOUND_ACCESSORY', 00H ; `string'
CONST	ENDS
;	COMDAT ??_C@_0BA@HNBMICIL@USESOUND_PORTAL@
CONST	SEGMENT
??_C@_0BA@HNBMICIL@USESOUND_PORTAL@ DB 'USESOUND_PORTAL', 00H ; `string'
CONST	ENDS
;	COMDAT ??_C@_0BA@GIIHLHOB@USESOUND_POTION@
CONST	SEGMENT
??_C@_0BA@GIIHLHOB@USESOUND_POTION@ DB 'USESOUND_POTION', 00H ; `string'
CONST	ENDS
;	COMDAT ??_C@_0BA@IJKKKKOO@USESOUND_WEAPON@
CONST	SEGMENT
??_C@_0BA@IJKKKKOO@USESOUND_WEAPON@ DB 'USESOUND_WEAPON', 00H ; `string'
CONST	ENDS
;	COMDAT ??_C@_0BB@BHHNCGFC@USESOUND_DEFAULT@
CONST	SEGMENT
??_C@_0BB@BHHNCGFC@USESOUND_DEFAULT@ DB 'USESOUND_DEFAULT', 00H ; `string'
CONST	ENDS
;	COMDAT ??_C@_0N@MDIFIDON@USESOUND_BOW@
CONST	SEGMENT
??_C@_0N@MDIFIDON@USESOUND_BOW@ DB 'USESOUND_BOW', 00H	; `string'
CONST	ENDS
;	COMDAT ??_C@_0P@ENGKPPPD@USESOUND_ARMOR@
CONST	SEGMENT
??_C@_0P@ENGKPPPD@USESOUND_ARMOR@ DB 'USESOUND_ARMOR', 00H ; `string'
CONST	ENDS
;	COMDAT ??_C@_0BD@MEKMBKPM@USESOUND_ACCESSORY@
CONST	SEGMENT
??_C@_0BD@MEKMBKPM@USESOUND_ACCESSORY@ DB 'USESOUND_ACCESSORY', 00H ; `string'
CONST	ENDS
;	COMDAT ??_C@_0BI@PCFHBNB@IsChangeLookClearScroll@
CONST	SEGMENT
??_C@_0BI@PCFHBNB@IsChangeLookClearScroll@ DB 'IsChangeLookClearScroll', 00H ; `string'
CONST	ENDS
;	COMDAT ??_C@_0BN@PEBKMIDG@IsChangeLookFreePassYangItem@
CONST	SEGMENT
??_C@_0BN@PEBKMIDG@IsChangeLookFreePassYangItem@ DB 'IsChangeLookFreePass'
	DB	'YangItem', 00H				; `string'
CONST	ENDS
;	COMDAT ??_C@_0BK@LGEDBNMJ@IsPossibleChangeLookRight@
CONST	SEGMENT
??_C@_0BK@LGEDBNMJ@IsPossibleChangeLookRight@ DB 'IsPossibleChangeLookRig'
	DB	'ht', 00H					; `string'
CONST	ENDS
;	COMDAT ??_C@_0BJ@OLOACL@IsPossibleChangeLookLeft@
CONST	SEGMENT
??_C@_0BJ@OLOACL@IsPossibleChangeLookLeft@ DB 'IsPossibleChangeLookLeft', 00H ; `string'
CONST	ENDS
;	COMDAT ??_C@_0P@JDIMGFAL@GetItemsByName@
CONST	SEGMENT
??_C@_0P@JDIMGFAL@GetItemsByName@ DB 'GetItemsByName', 00H ; `string'
CONST	ENDS
;	COMDAT ??_C@_0P@LHFGFLIF@GetRefinedVnum@
CONST	SEGMENT
??_C@_0P@LHFGFLIF@GetRefinedVnum@ DB 'GetRefinedVnum', 00H ; `string'
CONST	ENDS
;	COMDAT ??_C@_0N@NCBLKFBB@GetRefineSet@
CONST	SEGMENT
??_C@_0N@NCBLKFBB@GetRefineSet@ DB 'GetRefineSet', 00H	; `string'
CONST	ENDS
;	COMDAT ??_C@_0P@KGPFDEPM@SelectItemWiki@
CONST	SEGMENT
??_C@_0P@KGPFDEPM@SelectItemWiki@ DB 'SelectItemWiki', 00H ; `string'
CONST	ENDS
;	COMDAT ??_C@_0BC@DLHGPCJF@GetItemNameByVnum@
CONST	SEGMENT
??_C@_0BC@DLHGPCJF@GetItemNameByVnum@ DB 'GetItemNameByVnum', 00H ; `string'
CONST	ENDS
;	COMDAT ??_C@_0O@FIFLMBIA@IsWeddingItem@
CONST	SEGMENT
??_C@_0O@FIFLMBIA@IsWeddingItem@ DB 'IsWeddingItem', 00H ; `string'
CONST	ENDS
;	COMDAT ??_C@_0O@HJNOJBCJ@LoadItemTable@
CONST	SEGMENT
??_C@_0O@HJNOJBCJ@LoadItemTable@ DB 'LoadItemTable', 00H ; `string'
CONST	ENDS
;	COMDAT ??_C@_0L@IIJEEMCG@DeleteItem@
CONST	SEGMENT
??_C@_0L@IIJEEMCG@DeleteItem@ DB 'DeleteItem', 00H	; `string'
CONST	ENDS
;	COMDAT ??_C@_0L@EMDEHLJF@CreateItem@
CONST	SEGMENT
??_C@_0L@EMDEHLJF@CreateItem@ DB 'CreateItem', 00H	; `string'
CONST	ENDS
;	COMDAT ??_C@_0BG@FEGHIHDK@CanAddToQuickSlotItem@
CONST	SEGMENT
??_C@_0BG@FEGHIHDK@CanAddToQuickSlotItem@ DB 'CanAddToQuickSlotItem', 00H ; `string'
CONST	ENDS
;	COMDAT ??_C@_07MLLOFDCE@IsMetin@
CONST	SEGMENT
??_C@_07MLLOFDCE@IsMetin@ DB 'IsMetin', 00H		; `string'
CONST	ENDS
;	COMDAT ??_C@_05CEOMILKP@IsKey@
CONST	SEGMENT
??_C@_05CEOMILKP@IsKey@ DB 'IsKey', 00H			; `string'
CONST	ENDS
;	COMDAT ??_C@_0P@CNNPGCCK@IsDetachScroll@
CONST	SEGMENT
??_C@_0P@CNNPGCCK@IsDetachScroll@ DB 'IsDetachScroll', 00H ; `string'
CONST	ENDS
;	COMDAT ??_C@_0P@LGDKNEFF@IsRefineScroll@
CONST	SEGMENT
??_C@_0P@LGDKNEFF@IsRefineScroll@ DB 'IsRefineScroll', 00H ; `string'
CONST	ENDS
;	COMDAT ??_C@_0P@OGDGGJFE@IsEquipmentVID@
CONST	SEGMENT
??_C@_0P@OGDGGJFE@IsEquipmentVID@ DB 'IsEquipmentVID', 00H ; `string'
CONST	ENDS
;	COMDAT ??_C@_0BD@BNBIIKMM@DeleteIconInstance@
CONST	SEGMENT
??_C@_0BD@BNBIIKMM@DeleteIconInstance@ DB 'DeleteIconInstance', 00H ; `string'
CONST	ENDS
;	COMDAT ??_C@_0L@POCKMHMA@GetUseType@
CONST	SEGMENT
??_C@_0L@POCKMHMA@GetUseType@ DB 'GetUseType', 00H	; `string'
CONST	ENDS
;	COMDAT ??_C@_0BA@PMLMLIHH@GetIconInstance@
CONST	SEGMENT
??_C@_0BA@PMLMLIHH@GetIconInstance@ DB 'GetIconInstance', 00H ; `string'
CONST	ENDS
;	COMDAT ??_C@_09ICJIFGNC@GetSocket@
CONST	SEGMENT
??_C@_09ICJIFGNC@GetSocket@ DB 'GetSocket', 00H		; `string'
CONST	ENDS
;	COMDAT ??_C@_08GGOMBHIN@GetValue@
CONST	SEGMENT
??_C@_08GGOMBHIN@GetValue@ DB 'GetValue', 00H		; `string'
CONST	ENDS
;	COMDAT ??_C@_09HJGEAOAM@GetAffect@
CONST	SEGMENT
??_C@_09HJGEAOAM@GetAffect@ DB 'GetAffect', 00H		; `string'
CONST	ENDS
;	COMDAT ??_C@_0O@PAGKENPD@GetLimitValue@
CONST	SEGMENT
??_C@_0O@PAGKENPD@GetLimitValue@ DB 'GetLimitValue', 00H ; `string'
CONST	ENDS
;	COMDAT ??_C@_0N@OIJFEGBC@GetLimitType@
CONST	SEGMENT
??_C@_0N@OIJFEGBC@GetLimitType@ DB 'GetLimitType', 00H	; `string'
CONST	ENDS
;	COMDAT ??_C@_08KIIGDNA@GetLimit@
CONST	SEGMENT
??_C@_08KIIGDNA@GetLimit@ DB 'GetLimit', 00H		; `string'
CONST	ENDS
;	COMDAT ??_C@_0M@IKKLMPND@Is1GoldItem@
CONST	SEGMENT
??_C@_0M@IKKLMPND@Is1GoldItem@ DB 'Is1GoldItem', 00H	; `string'
CONST	ENDS
;	COMDAT ??_C@_0P@KNFGADIE@IsWearableFlag@
CONST	SEGMENT
??_C@_0P@KNFGADIE@IsWearableFlag@ DB 'IsWearableFlag', 00H ; `string'
CONST	ENDS
;	COMDAT ??_C@_06PLFMNGGB@IsFlag@
CONST	SEGMENT
??_C@_06PLFMNGGB@IsFlag@ DB 'IsFlag', 00H		; `string'
CONST	ENDS
;	COMDAT ??_C@_0L@NKLNOBKA@IsAntiFlag@
CONST	SEGMENT
??_C@_0L@NKLNOBKA@IsAntiFlag@ DB 'IsAntiFlag', 00H	; `string'
CONST	ENDS
;	COMDAT ??_C@_0BC@OKNBBEMG@GetISellItemPrice@
CONST	SEGMENT
??_C@_0BC@OKNBBEMG@GetISellItemPrice@ DB 'GetISellItemPrice', 00H ; `string'
CONST	ENDS
;	COMDAT ??_C@_0BB@KJGHJKGD@GetIBuyItemPrice@
CONST	SEGMENT
??_C@_0BB@KJGHJKGD@GetIBuyItemPrice@ DB 'GetIBuyItemPrice', 00H ; `string'
CONST	ENDS
;	COMDAT ??_C@_0P@MFCMKOKJ@GetItemSubType@
CONST	SEGMENT
??_C@_0P@MFCMKOKJ@GetItemSubType@ DB 'GetItemSubType', 00H ; `string'
CONST	ENDS
;	COMDAT ??_C@_0M@LOOAFMCI@GetItemType@
CONST	SEGMENT
??_C@_0M@LOOAFMCI@GetItemType@ DB 'GetItemType', 00H	; `string'
CONST	ENDS
;	COMDAT ??_C@_0M@FBEOFCHB@GetItemSize@
CONST	SEGMENT
??_C@_0M@FBEOFCHB@GetItemSize@ DB 'GetItemSize', 00H	; `string'
CONST	ENDS
;	COMDAT ??_C@_0BF@NNPLLIOE@GetIconImageFileName@
CONST	SEGMENT
??_C@_0BF@NNPLLIOE@GetIconImageFileName@ DB 'GetIconImageFileName', 00H ; `string'
CONST	ENDS
;	COMDAT ??_C@_0N@IEABDKDK@GetIconImage@
CONST	SEGMENT
??_C@_0N@IEABDKDK@GetIconImage@ DB 'GetIconImage', 00H	; `string'
CONST	ENDS
;	COMDAT ??_C@_0P@OIBFDAMI@GetItemSummary@
CONST	SEGMENT
??_C@_0P@OIBFDAMI@GetItemSummary@ DB 'GetItemSummary', 00H ; `string'
CONST	ENDS
;	COMDAT ??_C@_0BD@GLEOJONA@GetItemDescription@
CONST	SEGMENT
??_C@_0BD@GLEOJONA@GetItemDescription@ DB 'GetItemDescription', 00H ; `string'
CONST	ENDS
;	COMDAT ??_C@_0M@BFODJMFI@GetItemName@
CONST	SEGMENT
??_C@_0M@BFODJMFI@GetItemName@ DB 'GetItemName', 00H	; `string'
CONST	ENDS
;	COMDAT ??_C@_0L@GFKKOOBA@SelectItem@
CONST	SEGMENT
??_C@_0L@GFKKOOBA@SelectItem@ DB 'SelectItem', 00H	; `string'
CONST	ENDS
;	COMDAT ??_C@_0BF@BODGENI@SetDropSoundFileName@
CONST	SEGMENT
??_C@_0BF@BODGENI@SetDropSoundFileName@ DB 'SetDropSoundFileName', 00H ; `string'
CONST	ENDS
;	COMDAT ??_C@_0BE@HKKEFMIC@SetUseSoundFileName@
CONST	SEGMENT
??_C@_0BE@HKKEFMIC@SetUseSoundFileName@ DB 'SetUseSoundFileName', 00H ; `string'
CONST	ENDS
;	COMDAT ??_C@_0BC@GFOFMOEA@No?5item?5selected?$CB@
CONST	SEGMENT
??_C@_0BC@GFOFMOEA@No?5item?5selected?$CB@ DB 'No item selected!', 00H ; `string'
CONST	ENDS
;	COMDAT ??_C@_0BM@KPLEGEEH@Can?8t?5find?5select?5item?5data@
CONST	SEGMENT
??_C@_0BM@KPLEGEEH@Can?8t?5find?5select?5item?5data@ DB 'Can''t find sele'
	DB	'ct item data', 00H				; `string'
CONST	ENDS
;	COMDAT ??_C@_0BM@MLEHJLDK@Cannot?5get?5icon?5image?5by?5?$CFd@
CONST	SEGMENT
??_C@_0BM@MLEHJLDK@Cannot?5get?5icon?5image?5by?5?$CFd@ DB 'Cannot get ic'
	DB	'on image by %d', 00H			; `string'
CONST	ENDS
;	COMDAT ??_C@_0BJ@FJOAFFCG@Not?5yet?5select?5item?5data@
CONST	SEGMENT
??_C@_0BJ@FJOAFFCG@Not?5yet?5select?5item?5data@ DB 'Not yet select item '
	DB	'data', 00H					; `string'
CONST	ENDS
;	COMDAT ??_C@_0BG@LNOAJHHG@no?5selected?5item?5data@
CONST	SEGMENT
??_C@_0BG@LNOAJHHG@no?5selected?5item?5data@ DB 'no selected item data', 00H ; `string'
CONST	ENDS
;	COMDAT ?s_methods@?1??initItem@@YAXXZ@4PAUPyMethodDef@@A
_DATA	SEGMENT
?s_methods@?1??initItem@@YAXXZ@4PAUPyMethodDef@@A DD FLAT:??_C@_0BE@HKKEFMIC@SetUseSoundFileName@ ; `initItem'::`2'::s_methods
	DD	FLAT:?itemSetUseSoundFileName@@YAPAU_object@@PAU1@0@Z
	DD	01H
	ORG $+4
	DD	FLAT:??_C@_0BF@BODGENI@SetDropSoundFileName@
	DD	FLAT:?itemSetDropSoundFileName@@YAPAU_object@@PAU1@0@Z
	DD	01H
	ORG $+4
	DD	FLAT:??_C@_0L@GFKKOOBA@SelectItem@
	DD	FLAT:?itemSelectItem@@YAPAU_object@@PAU1@0@Z
	DD	01H
	ORG $+4
	DD	FLAT:??_C@_0M@BFODJMFI@GetItemName@
	DD	FLAT:?itemGetItemName@@YAPAU_object@@PAU1@0@Z
	DD	01H
	ORG $+4
	DD	FLAT:??_C@_0BD@GLEOJONA@GetItemDescription@
	DD	FLAT:?itemGetItemDescription@@YAPAU_object@@PAU1@0@Z
	DD	01H
	ORG $+4
	DD	FLAT:??_C@_0P@OIBFDAMI@GetItemSummary@
	DD	FLAT:?itemGetItemSummary@@YAPAU_object@@PAU1@0@Z
	DD	01H
	ORG $+4
	DD	FLAT:??_C@_0N@IEABDKDK@GetIconImage@
	DD	FLAT:?itemGetIconImage@@YAPAU_object@@PAU1@0@Z
	DD	01H
	ORG $+4
	DD	FLAT:??_C@_0BF@NNPLLIOE@GetIconImageFileName@
	DD	FLAT:?itemGetIconImageFileName@@YAPAU_object@@PAU1@0@Z
	DD	01H
	ORG $+4
	DD	FLAT:??_C@_0M@FBEOFCHB@GetItemSize@
	DD	FLAT:?itemGetItemSize@@YAPAU_object@@PAU1@0@Z
	DD	01H
	ORG $+4
	DD	FLAT:??_C@_0M@LOOAFMCI@GetItemType@
	DD	FLAT:?itemGetItemType@@YAPAU_object@@PAU1@0@Z
	DD	01H
	ORG $+4
	DD	FLAT:??_C@_0P@MFCMKOKJ@GetItemSubType@
	DD	FLAT:?itemGetItemSubType@@YAPAU_object@@PAU1@0@Z
	DD	01H
	ORG $+4
	DD	FLAT:??_C@_0BB@KJGHJKGD@GetIBuyItemPrice@
	DD	FLAT:?itemGetIBuyItemPrice@@YAPAU_object@@PAU1@0@Z
	DD	01H
	ORG $+4
	DD	FLAT:??_C@_0BC@OKNBBEMG@GetISellItemPrice@
	DD	FLAT:?itemGetISellItemPrice@@YAPAU_object@@PAU1@0@Z
	DD	01H
	ORG $+4
	DD	FLAT:??_C@_0L@NKLNOBKA@IsAntiFlag@
	DD	FLAT:?itemIsAntiFlag@@YAPAU_object@@PAU1@0@Z
	DD	01H
	ORG $+4
	DD	FLAT:??_C@_06PLFMNGGB@IsFlag@
	DD	FLAT:?itemIsFlag@@YAPAU_object@@PAU1@0@Z
	DD	01H
	ORG $+4
	DD	FLAT:??_C@_0P@KNFGADIE@IsWearableFlag@
	DD	FLAT:?itemIsWearableFlag@@YAPAU_object@@PAU1@0@Z
	DD	01H
	ORG $+4
	DD	FLAT:??_C@_0M@IKKLMPND@Is1GoldItem@
	DD	FLAT:?itemIs1GoldItem@@YAPAU_object@@PAU1@0@Z
	DD	01H
	ORG $+4
	DD	FLAT:??_C@_08KIIGDNA@GetLimit@
	DD	FLAT:?itemGetLimit@@YAPAU_object@@PAU1@0@Z
	DD	01H
	ORG $+4
	DD	FLAT:??_C@_0N@OIJFEGBC@GetLimitType@
	DD	FLAT:?itemGetLimitType@@YAPAU_object@@PAU1@0@Z
	DD	01H
	ORG $+4
	DD	FLAT:??_C@_0O@PAGKENPD@GetLimitValue@
	DD	FLAT:?itemGetLimitValue@@YAPAU_object@@PAU1@0@Z
	DD	01H
	ORG $+4
	DD	FLAT:??_C@_09HJGEAOAM@GetAffect@
	DD	FLAT:?itemGetAffect@@YAPAU_object@@PAU1@0@Z
	DD	01H
	ORG $+4
	DD	FLAT:??_C@_08GGOMBHIN@GetValue@
	DD	FLAT:?itemGetValue@@YAPAU_object@@PAU1@0@Z
	DD	01H
	ORG $+4
	DD	FLAT:??_C@_09ICJIFGNC@GetSocket@
	DD	FLAT:?itemGetSocket@@YAPAU_object@@PAU1@0@Z
	DD	01H
	ORG $+4
	DD	FLAT:??_C@_0BA@PMLMLIHH@GetIconInstance@
	DD	FLAT:?itemGetIconInstance@@YAPAU_object@@PAU1@0@Z
	DD	01H
	ORG $+4
	DD	FLAT:??_C@_0L@POCKMHMA@GetUseType@
	DD	FLAT:?itemGetUseType@@YAPAU_object@@PAU1@0@Z
	DD	01H
	ORG $+4
	DD	FLAT:??_C@_0BD@BNBIIKMM@DeleteIconInstance@
	DD	FLAT:?itemDeleteIconInstance@@YAPAU_object@@PAU1@0@Z
	DD	01H
	ORG $+4
	DD	FLAT:??_C@_0P@OGDGGJFE@IsEquipmentVID@
	DD	FLAT:?itemIsEquipmentVID@@YAPAU_object@@PAU1@0@Z
	DD	01H
	ORG $+4
	DD	FLAT:??_C@_0P@LGDKNEFF@IsRefineScroll@
	DD	FLAT:?itemIsRefineScroll@@YAPAU_object@@PAU1@0@Z
	DD	01H
	ORG $+4
	DD	FLAT:??_C@_0P@CNNPGCCK@IsDetachScroll@
	DD	FLAT:?itemIsDetachScroll@@YAPAU_object@@PAU1@0@Z
	DD	01H
	ORG $+4
	DD	FLAT:??_C@_05CEOMILKP@IsKey@
	DD	FLAT:?itemIsKey@@YAPAU_object@@PAU1@0@Z
	DD	01H
	ORG $+4
	DD	FLAT:??_C@_07MLLOFDCE@IsMetin@
	DD	FLAT:?itemIsMetin@@YAPAU_object@@PAU1@0@Z
	DD	01H
	ORG $+4
	DD	FLAT:??_C@_0BG@FEGHIHDK@CanAddToQuickSlotItem@
	DD	FLAT:?itemCanAddToQuickSlotItem@@YAPAU_object@@PAU1@0@Z
	DD	01H
	ORG $+4
	DD	FLAT:??_C@_06LMAGPFNF@Update@
	DD	FLAT:?itemUpdate@@YAPAU_object@@PAU1@0@Z
	DD	01H
	ORG $+4
	DD	FLAT:??_C@_06EPLDPNDB@Render@
	DD	FLAT:?itemRender@@YAPAU_object@@PAU1@0@Z
	DD	01H
	ORG $+4
	DD	FLAT:??_C@_0L@EMDEHLJF@CreateItem@
	DD	FLAT:?itemCreateItem@@YAPAU_object@@PAU1@0@Z
	DD	01H
	ORG $+4
	DD	FLAT:??_C@_0L@IIJEEMCG@DeleteItem@
	DD	FLAT:?itemDeleteItem@@YAPAU_object@@PAU1@0@Z
	DD	01H
	ORG $+4
	DD	FLAT:??_C@_04ILHILILF@Pick@
	DD	FLAT:?itemPick@@YAPAU_object@@PAU1@0@Z
	DD	01H
	ORG $+4
	DD	FLAT:??_C@_0O@HJNOJBCJ@LoadItemTable@
	DD	FLAT:?itemLoadItemTable@@YAPAU_object@@PAU1@0@Z
	DD	01H
	ORG $+4
	DD	FLAT:??_C@_0O@FIFLMBIA@IsWeddingItem@
	DD	FLAT:?itemIsWeddingItem@@YAPAU_object@@PAU1@0@Z
	DD	01H
	ORG $+4
	DD	FLAT:??_C@_0BC@DLHGPCJF@GetItemNameByVnum@
	DD	FLAT:?itemGetItemNameByVnum@@YAPAU_object@@PAU1@0@Z
	DD	01H
	ORG $+4
	DD	FLAT:??_C@_0P@KGPFDEPM@SelectItemWiki@
	DD	FLAT:?itemSelectItemWiki@@YAPAU_object@@PAU1@0@Z
	DD	01H
	ORG $+4
	DD	FLAT:??_C@_0N@NCBLKFBB@GetRefineSet@
	DD	FLAT:?itemGetRefineSet@@YAPAU_object@@PAU1@0@Z
	DD	01H
	ORG $+4
	DD	FLAT:??_C@_0P@LHFGFLIF@GetRefinedVnum@
	DD	FLAT:?itemGetRefinedVnum@@YAPAU_object@@PAU1@0@Z
	DD	01H
	ORG $+4
	DD	FLAT:??_C@_0P@JDIMGFAL@GetItemsByName@
	DD	FLAT:?itemGetItemsByName@@YAPAU_object@@PAU1@0@Z
	DD	01H
	ORG $+4
	DD	FLAT:??_C@_0BJ@OLOACL@IsPossibleChangeLookLeft@
	DD	FLAT:?itemIsPossibleChangeLookLeft@@YAPAU_object@@PAU1@0@Z
	DD	01H
	ORG $+4
	DD	FLAT:??_C@_0BK@LGEDBNMJ@IsPossibleChangeLookRight@
	DD	FLAT:?itemIsPossibleChangeLookRight@@YAPAU_object@@PAU1@0@Z
	DD	01H
	ORG $+4
	DD	FLAT:??_C@_0BN@PEBKMIDG@IsChangeLookFreePassYangItem@
	DD	FLAT:?itemIsChangeLookFreePassYangItem@@YAPAU_object@@PAU1@0@Z
	DD	01H
	ORG $+4
	DD	FLAT:??_C@_0BI@PCFHBNB@IsChangeLookClearScroll@
	DD	FLAT:?itemIsChangeLookClearScroll@@YAPAU_object@@PAU1@0@Z
	DD	01H
	ORG $+4
	DD	00H
	DD	00H
	ORG $+8
PUBLIC	??$exchange@PAU?$_Tree_node@U?$pair@$$CBKPAVCItemData@@@std@@PAX@std@@$$T@std@@YAPAU?$_Tree_node@U?$pair@$$CBKPAVCItemData@@@std@@PAX@0@AAPAU10@$$QA$$T@Z ; std::exchange<std::_Tree_node<std::pair<unsigned long const ,CItemData *>,void *> *,std::nullptr_t>
PUBLIC	??$construct_at@PAU?$_Tree_node@U?$pair@$$CBKPAVCItemData@@@std@@PAX@std@@AAPAU12@@std@@YAPAPAU?$_Tree_node@U?$pair@$$CBKPAVCItemData@@@std@@PAX@0@QAPAU10@AAPAU10@@Z ; std::construct_at<std::_Tree_node<std::pair<unsigned long const ,CItemData *>,void *> *,std::_Tree_node<std::pair<unsigned long const ,CItemData *>,void *> * &>
PUBLIC	??$forward@AAPAU?$_Tree_node@U?$pair@$$CBKPAVCItemData@@@std@@PAX@std@@@std@@YAAAPAU?$_Tree_node@U?$pair@$$CBKPAVCItemData@@@std@@PAX@0@AAPAU10@@Z ; std::forward<std::_Tree_node<std::pair<unsigned long const ,CItemData *>,void *> * &>
PUBLIC	??$construct_at@U?$pair@$$CBKPAVCItemData@@@std@@AAU12@@std@@YAPAU?$pair@$$CBKPAVCItemData@@@0@QAU10@AAU10@@Z ; std::construct_at<std::pair<unsigned long const ,CItemData *>,std::pair<unsigned long const ,CItemData *> &>
PUBLIC	??0?$_Alloc_construct_ptr@V?$allocator@U?$_Tree_node@U?$pair@$$CBKPAVCItemData@@@std@@PAX@std@@@std@@@std@@QAE@AAV?$allocator@U?$_Tree_node@U?$pair@$$CBKPAVCItemData@@@std@@PAX@std@@@1@@Z ; std::_Alloc_construct_ptr<std::allocator<std::_Tree_node<std::pair<unsigned long const ,CItemData *>,void *> > >::_Alloc_construct_ptr<std::allocator<std::_Tree_node<std::pair<unsigned long const ,CItemData *>,void *> > >
PUBLIC	?_Release@?$_Alloc_construct_ptr@V?$allocator@U?$_Tree_node@U?$pair@$$CBKPAVCItemData@@@std@@PAX@std@@@std@@@std@@QAEPAU?$_Tree_node@U?$pair@$$CBKPAVCItemData@@@std@@PAX@2@XZ ; std::_Alloc_construct_ptr<std::allocator<std::_Tree_node<std::pair<unsigned long const ,CItemData *>,void *> > >::_Release
PUBLIC	?_Allocate@?$_Alloc_construct_ptr@V?$allocator@U?$_Tree_node@U?$pair@$$CBKPAVCItemData@@@std@@PAX@std@@@std@@@std@@QAEXXZ ; std::_Alloc_construct_ptr<std::allocator<std::_Tree_node<std::pair<unsigned long const ,CItemData *>,void *> > >::_Allocate
PUBLIC	??1?$_Alloc_construct_ptr@V?$allocator@U?$_Tree_node@U?$pair@$$CBKPAVCItemData@@@std@@PAX@std@@@std@@@std@@QAE@XZ ; std::_Alloc_construct_ptr<std::allocator<std::_Tree_node<std::pair<unsigned long const ,CItemData *>,void *> > >::~_Alloc_construct_ptr<std::allocator<std::_Tree_node<std::pair<unsigned long const ,CItemData *>,void *> > >
PUBLIC	??$_Construct_in_place@PAU?$_Tree_node@U?$pair@$$CBKPAVCItemData@@@std@@PAX@std@@AAPAU12@@std@@YAXAAPAU?$_Tree_node@U?$pair@$$CBKPAVCItemData@@@std@@PAX@0@0@Z ; std::_Construct_in_place<std::_Tree_node<std::pair<unsigned long const ,CItemData *>,void *> *,std::_Tree_node<std::pair<unsigned long const ,CItemData *>,void *> * &>
PUBLIC	??$construct@U?$pair@$$CBKPAVCItemData@@@std@@AAU12@@?$_Default_allocator_traits@V?$allocator@U?$_Tree_node@U?$pair@$$CBKPAVCItemData@@@std@@PAX@std@@@std@@@std@@SAXAAV?$allocator@U?$_Tree_node@U?$pair@$$CBKPAVCItemData@@@std@@PAX@std@@@1@QAU?$pair@$$CBKPAVCItemData@@@1@AAU31@@Z ; std::_Default_allocator_traits<std::allocator<std::_Tree_node<std::pair<unsigned long const ,CItemData *>,void *> > >::construct<std::pair<unsigned long const ,CItemData *>,std::pair<unsigned long const ,CItemData *> &>
PUBLIC	?_Orphan_ptr@?$_Tree_val@U?$_Tree_simple_types@U?$pair@$$CBKPAVCItemData@@@std@@@std@@@std@@QAEXQAU?$_Tree_node@U?$pair@$$CBKPAVCItemData@@@std@@PAX@2@@Z ; std::_Tree_val<std::_Tree_simple_types<std::pair<unsigned long const ,CItemData *> > >::_Orphan_ptr
PUBLIC	??$_Buynode@V?$allocator@U?$_Tree_node@U?$pair@$$CBKPAVCItemData@@@std@@PAX@std@@@std@@AAU?$pair@$$CBKPAVCItemData@@@2@@?$_Tree_node@U?$pair@$$CBKPAVCItemData@@@std@@PAX@std@@SAPAU01@AAV?$allocator@U?$_Tree_node@U?$pair@$$CBKPAVCItemData@@@std@@PAX@std@@@1@PAU01@AAU?$pair@$$CBKPAVCItemData@@@1@@Z ; std::_Tree_node<std::pair<unsigned long const ,CItemData *>,void *>::_Buynode<std::allocator<std::_Tree_node<std::pair<unsigned long const ,CItemData *>,void *> >,std::pair<unsigned long const ,CItemData *> &>
PUBLIC	??$forward@AAU?$pair@$$CBKPAVCItemData@@@std@@@std@@YAAAU?$pair@$$CBKPAVCItemData@@@0@AAU10@@Z ; std::forward<std::pair<unsigned long const ,CItemData *> &>
PUBLIC	??$_Erase_tree_and_orphan@V?$allocator@U?$_Tree_node@U?$pair@$$CBKPAVCItemData@@@std@@PAX@std@@@std@@@?$_Tree_val@U?$_Tree_simple_types@U?$pair@$$CBKPAVCItemData@@@std@@@std@@@std@@QAEXAAV?$allocator@U?$_Tree_node@U?$pair@$$CBKPAVCItemData@@@std@@PAX@std@@@1@PAU?$_Tree_node@U?$pair@$$CBKPAVCItemData@@@std@@PAX@1@@Z ; std::_Tree_val<std::_Tree_simple_types<std::pair<unsigned long const ,CItemData *> > >::_Erase_tree_and_orphan<std::allocator<std::_Tree_node<std::pair<unsigned long const ,CItemData *>,void *> > >
PUBLIC	??$construct_at@PAU?$_Tree_node@U?$pair@$$CBKPAVCItemData@@@std@@PAX@std@@ABQAU12@@std@@YAPAPAU?$_Tree_node@U?$pair@$$CBKPAVCItemData@@@std@@PAX@0@QAPAU10@ABQAU10@@Z ; std::construct_at<std::_Tree_node<std::pair<unsigned long const ,CItemData *>,void *> *,std::_Tree_node<std::pair<unsigned long const ,CItemData *>,void *> * const &>
PUBLIC	??$forward@ABQAU?$_Tree_node@U?$pair@$$CBKPAVCItemData@@@std@@PAX@std@@@std@@YAABQAU?$_Tree_node@U?$pair@$$CBKPAVCItemData@@@std@@PAX@0@ABQAU10@@Z ; std::forward<std::_Tree_node<std::pair<unsigned long const ,CItemData *>,void *> * const &>
PUBLIC	??$addressof@PAU?$_Tree_node@U?$pair@$$CBKPAVCItemData@@@std@@PAX@std@@@std@@YAPAPAU?$_Tree_node@U?$pair@$$CBKPAVCItemData@@@std@@PAX@0@AAPAU10@@Z ; std::addressof<std::_Tree_node<std::pair<unsigned long const ,CItemData *>,void *> *>
PUBLIC	??$_Buynode@AAU?$pair@$$CBKPAVCItemData@@@std@@@?$_Tree@V?$_Tmap_traits@KPAVCItemData@@U?$less@K@std@@V?$allocator@U?$pair@$$CBKPAVCItemData@@@std@@@3@$0A@@std@@@std@@IAEPAU?$_Tree_node@U?$pair@$$CBKPAVCItemData@@@std@@PAX@1@AAU?$pair@$$CBKPAVCItemData@@@1@@Z ; std::_Tree<std::_Tmap_traits<unsigned long,CItemData *,std::less<unsigned long>,std::allocator<std::pair<unsigned long const ,CItemData *> >,0> >::_Buynode<std::pair<unsigned long const ,CItemData *> &>
PUBLIC	??$destroy_at@U?$pair@$$CBKPAVCItemData@@@std@@@std@@YAXQAU?$pair@$$CBKPAVCItemData@@@0@@Z ; std::destroy_at<std::pair<unsigned long const ,CItemData *> >
PUBLIC	?deallocate@?$allocator@U?$_Tree_node@U?$pair@$$CBKPAVCItemData@@@std@@PAX@std@@@std@@QAEXQAU?$_Tree_node@U?$pair@$$CBKPAVCItemData@@@std@@PAX@2@I@Z ; std::allocator<std::_Tree_node<std::pair<unsigned long const ,CItemData *>,void *> >::deallocate
PUBLIC	?allocate@?$allocator@U?$_Tree_node@U?$pair@$$CBKPAVCItemData@@@std@@PAX@std@@@std@@QAEPAU?$_Tree_node@U?$pair@$$CBKPAVCItemData@@@std@@PAX@2@I@Z ; std::allocator<std::_Tree_node<std::pair<unsigned long const ,CItemData *>,void *> >::allocate
PUBLIC	??0?$_Tree_val@U?$_Tree_simple_types@U?$pair@$$CBKPAVCItemData@@@std@@@std@@@std@@QAE@XZ ; std::_Tree_val<std::_Tree_simple_types<std::pair<unsigned long const ,CItemData *> > >::_Tree_val<std::_Tree_simple_types<std::pair<unsigned long const ,CItemData *> > >
PUBLIC	?_Get_first@?$_Compressed_pair@U?$less@K@std@@V?$_Compressed_pair@V?$allocator@U?$_Tree_node@U?$pair@$$CBKPAVCItemData@@@std@@PAX@std@@@std@@V?$_Tree_val@U?$_Tree_simple_types@U?$pair@$$CBKPAVCItemData@@@std@@@std@@@2@$00@2@$00@std@@QBEABU?$less@K@2@XZ ; std::_Compressed_pair<std::less<unsigned long>,std::_Compressed_pair<std::allocator<std::_Tree_node<std::pair<unsigned long const ,CItemData *>,void *> >,std::_Tree_val<std::_Tree_simple_types<std::pair<unsigned long const ,CItemData *> > >,1>,1>::_Get_first
PUBLIC	??1?$_Erase_tree_and_orphan_guard@V?$allocator@U?$_Tree_node@U?$pair@$$CBKPAVCItemData@@@std@@PAX@std@@@std@@@?$_Tree_val@U?$_Tree_simple_types@U?$pair@$$CBKPAVCItemData@@@std@@@std@@@std@@QAE@XZ ; std::_Tree_val<std::_Tree_simple_types<std::pair<unsigned long const ,CItemData *> > >::_Erase_tree_and_orphan_guard<std::allocator<std::_Tree_node<std::pair<unsigned long const ,CItemData *>,void *> > >::~_Erase_tree_and_orphan_guard<std::allocator<std::_Tree_node<std::pair<unsigned long const ,CItemData *>,void *> > >
PUBLIC	??$_Construct_in_place@PAU?$_Tree_node@U?$pair@$$CBKPAVCItemData@@@std@@PAX@std@@ABQAU12@@std@@YAXAAPAU?$_Tree_node@U?$pair@$$CBKPAVCItemData@@@std@@PAX@0@ABQAU10@@Z ; std::_Construct_in_place<std::_Tree_node<std::pair<unsigned long const ,CItemData *>,void *> *,std::_Tree_node<std::pair<unsigned long const ,CItemData *>,void *> * const &>
PUBLIC	??$_Copy_or_move@$0A@U?$pair@$$CBKPAVCItemData@@@std@@@?$_Tree@V?$_Tmap_traits@KPAVCItemData@@U?$less@K@std@@V?$allocator@U?$pair@$$CBKPAVCItemData@@@std@@@3@$0A@@std@@@std@@IAEPAU?$_Tree_node@U?$pair@$$CBKPAVCItemData@@@std@@PAX@1@AAU?$pair@$$CBKPAVCItemData@@@1@@Z ; std::_Tree<std::_Tmap_traits<unsigned long,CItemData *,std::less<unsigned long>,std::allocator<std::pair<unsigned long const ,CItemData *> >,0> >::_Copy_or_move<0,std::pair<unsigned long const ,CItemData *> >
PUBLIC	??$destroy@U?$pair@$$CBKPAVCItemData@@@std@@@?$_Default_allocator_traits@V?$allocator@U?$_Tree_node@U?$pair@$$CBKPAVCItemData@@@std@@PAX@std@@@std@@@std@@SAXAAV?$allocator@U?$_Tree_node@U?$pair@$$CBKPAVCItemData@@@std@@PAX@std@@@1@QAU?$pair@$$CBKPAVCItemData@@@1@@Z ; std::_Default_allocator_traits<std::allocator<std::_Tree_node<std::pair<unsigned long const ,CItemData *>,void *> > >::destroy<std::pair<unsigned long const ,CItemData *> >
PUBLIC	?_Getcomp@?$_Tree@V?$_Tmap_traits@KPAVCItemData@@U?$less@K@std@@V?$allocator@U?$pair@$$CBKPAVCItemData@@@std@@@3@$0A@@std@@@std@@IBEABU?$less@K@2@XZ ; std::_Tree<std::_Tmap_traits<unsigned long,CItemData *,std::less<unsigned long>,std::allocator<std::pair<unsigned long const ,CItemData *> >,0> >::_Getcomp
PUBLIC	?deallocate@?$_Default_allocator_traits@V?$allocator@U?$_Tree_node@U?$pair@$$CBKPAVCItemData@@@std@@PAX@std@@@std@@@std@@SAXAAV?$allocator@U?$_Tree_node@U?$pair@$$CBKPAVCItemData@@@std@@PAX@std@@@2@QAU?$_Tree_node@U?$pair@$$CBKPAVCItemData@@@std@@PAX@2@I@Z ; std::_Default_allocator_traits<std::allocator<std::_Tree_node<std::pair<unsigned long const ,CItemData *>,void *> > >::deallocate
PUBLIC	?_Max@?$_Tree_val@U?$_Tree_simple_types@U?$pair@$$CBKPAVCItemData@@@std@@@std@@@std@@SAPAU?$_Tree_node@U?$pair@$$CBKPAVCItemData@@@std@@PAX@2@PAU32@@Z ; std::_Tree_val<std::_Tree_simple_types<std::pair<unsigned long const ,CItemData *> > >::_Max
PUBLIC	?_Min@?$_Tree_val@U?$_Tree_simple_types@U?$pair@$$CBKPAVCItemData@@@std@@@std@@@std@@SAPAU?$_Tree_node@U?$pair@$$CBKPAVCItemData@@@std@@PAX@2@PAU32@@Z ; std::_Tree_val<std::_Tree_simple_types<std::pair<unsigned long const ,CItemData *> > >::_Min
PUBLIC	??$_Buyheadnode@V?$allocator@U?$_Tree_node@U?$pair@$$CBKPAVCItemData@@@std@@PAX@std@@@std@@@?$_Tree_node@U?$pair@$$CBKPAVCItemData@@@std@@PAX@std@@SAPAU01@AAV?$allocator@U?$_Tree_node@U?$pair@$$CBKPAVCItemData@@@std@@PAX@std@@@1@@Z ; std::_Tree_node<std::pair<unsigned long const ,CItemData *>,void *>::_Buyheadnode<std::allocator<std::_Tree_node<std::pair<unsigned long const ,CItemData *>,void *> > >
PUBLIC	??$_Copy_nodes@$0A@@?$_Tree@V?$_Tmap_traits@KPAVCItemData@@U?$less@K@std@@V?$allocator@U?$pair@$$CBKPAVCItemData@@@std@@@3@$0A@@std@@@std@@IAEPAU?$_Tree_node@U?$pair@$$CBKPAVCItemData@@@std@@PAX@1@PAU21@0@Z ; std::_Tree<std::_Tmap_traits<unsigned long,CItemData *,std::less<unsigned long>,std::allocator<std::pair<unsigned long const ,CItemData *> >,0> >::_Copy_nodes<0>
PUBLIC	??$forward@U?$less@K@std@@@std@@YA$$QAU?$less@K@0@AAU10@@Z ; std::forward<std::less<unsigned long> >
PUBLIC	??$_Destroy_in_place@PAU?$_Tree_node@U?$pair@$$CBKPAVCItemData@@@std@@PAX@std@@@std@@YAXAAPAU?$_Tree_node@U?$pair@$$CBKPAVCItemData@@@std@@PAX@0@@Z ; std::_Destroy_in_place<std::_Tree_node<std::pair<unsigned long const ,CItemData *>,void *> *>
PUBLIC	??$_Freenode@V?$allocator@U?$_Tree_node@U?$pair@$$CBKPAVCItemData@@@std@@PAX@std@@@std@@@?$_Tree_node@U?$pair@$$CBKPAVCItemData@@@std@@PAX@std@@SAXAAV?$allocator@U?$_Tree_node@U?$pair@$$CBKPAVCItemData@@@std@@PAX@std@@@1@PAU01@@Z ; std::_Tree_node<std::pair<unsigned long const ,CItemData *>,void *>::_Freenode<std::allocator<std::_Tree_node<std::pair<unsigned long const ,CItemData *>,void *> > >
PUBLIC	??$exchange@PAU?$_Tree_node@U?$pair@$$CBKPAVCItemData@@@std@@PAX@std@@AAPAU12@@std@@YAPAU?$_Tree_node@U?$pair@$$CBKPAVCItemData@@@std@@PAX@0@AAPAU10@0@Z ; std::exchange<std::_Tree_node<std::pair<unsigned long const ,CItemData *>,void *> *,std::_Tree_node<std::pair<unsigned long const ,CItemData *>,void *> * &>
PUBLIC	??$?0V?$allocator@U?$_Tree_node@U?$pair@$$CBKPAVCItemData@@@std@@PAX@std@@@std@@$$V@?$_Compressed_pair@V?$allocator@U?$_Tree_node@U?$pair@$$CBKPAVCItemData@@@std@@PAX@std@@@std@@V?$_Tree_val@U?$_Tree_simple_types@U?$pair@$$CBKPAVCItemData@@@std@@@std@@@2@$00@std@@QAE@U_One_then_variadic_args_t@1@$$QAV?$allocator@U?$_Tree_node@U?$pair@$$CBKPAVCItemData@@@std@@PAX@std@@@1@@Z ; std::_Compressed_pair<std::allocator<std::_Tree_node<std::pair<unsigned long const ,CItemData *>,void *> >,std::_Tree_val<std::_Tree_simple_types<std::pair<unsigned long const ,CItemData *> > >,1>::_Compressed_pair<std::allocator<std::_Tree_node<std::pair<unsigned long const ,CItemData *>,void *> >,std::_Tree_val<std::_Tree_simple_types<std::pair<unsigned long const ,CItemData *> > >,1><std::allocator<std::_Tree_node<std::pair<unsigned long const ,CItemData *>,void *> > >
PUBLIC	?key_comp@?$_Tree@V?$_Tmap_traits@KPAVCItemData@@U?$less@K@std@@V?$allocator@U?$pair@$$CBKPAVCItemData@@@std@@@3@$0A@@std@@@std@@QBE?AU?$less@K@2@XZ ; std::_Tree<std::_Tmap_traits<unsigned long,CItemData *,std::less<unsigned long>,std::allocator<std::pair<unsigned long const ,CItemData *> >,0> >::key_comp
PUBLIC	??D?$_Tree_const_iterator@V?$_Tree_val@U?$_Tree_simple_types@U?$pair@$$CBKPAVCItemData@@@std@@@std@@@std@@@std@@QBEABU?$pair@$$CBKPAVCItemData@@@1@XZ ; std::_Tree_const_iterator<std::_Tree_val<std::_Tree_simple_types<std::pair<unsigned long const ,CItemData *> > > >::operator*
PUBLIC	??E?$_Tree_unchecked_const_iterator@V?$_Tree_val@U?$_Tree_simple_types@U?$pair@$$CBKPAVCItemData@@@std@@@std@@@std@@U_Iterator_base0@2@@std@@QAEAAV01@XZ ; std::_Tree_unchecked_const_iterator<std::_Tree_val<std::_Tree_simple_types<std::pair<unsigned long const ,CItemData *> > >,std::_Iterator_base0>::operator++
PUBLIC	?_Get_first@?$_Compressed_pair@V?$allocator@U?$_Tree_node@U?$pair@$$CBKPAVCItemData@@@std@@PAX@std@@@std@@V?$_Tree_val@U?$_Tree_simple_types@U?$pair@$$CBKPAVCItemData@@@std@@@std@@@2@$00@std@@QAEAAV?$allocator@U?$_Tree_node@U?$pair@$$CBKPAVCItemData@@@std@@PAX@std@@@2@XZ ; std::_Compressed_pair<std::allocator<std::_Tree_node<std::pair<unsigned long const ,CItemData *>,void *> >,std::_Tree_val<std::_Tree_simple_types<std::pair<unsigned long const ,CItemData *> > >,1>::_Get_first
PUBLIC	?_Get_first@?$_Compressed_pair@V?$allocator@U?$_Tree_node@U?$pair@$$CBKPAVCItemData@@@std@@PAX@std@@@std@@V?$_Tree_val@U?$_Tree_simple_types@U?$pair@$$CBKPAVCItemData@@@std@@@std@@@2@$00@std@@QBEABV?$allocator@U?$_Tree_node@U?$pair@$$CBKPAVCItemData@@@std@@PAX@std@@@2@XZ ; std::_Compressed_pair<std::allocator<std::_Tree_node<std::pair<unsigned long const ,CItemData *>,void *> >,std::_Tree_val<std::_Tree_simple_types<std::pair<unsigned long const ,CItemData *> > >,1>::_Get_first
PUBLIC	??0?$_Tree_head_scoped_ptr@V?$allocator@U?$_Tree_node@U?$pair@$$CBKPAVCItemData@@@std@@PAX@std@@@std@@V?$_Tree_val@U?$_Tree_simple_types@U?$pair@$$CBKPAVCItemData@@@std@@@std@@@2@@std@@QAE@AAV?$allocator@U?$_Tree_node@U?$pair@$$CBKPAVCItemData@@@std@@PAX@std@@@1@AAV?$_Tree_val@U?$_Tree_simple_types@U?$pair@$$CBKPAVCItemData@@@std@@@std@@@1@@Z ; std::_Tree_head_scoped_ptr<std::allocator<std::_Tree_node<std::pair<unsigned long const ,CItemData *>,void *> >,std::_Tree_val<std::_Tree_simple_types<std::pair<unsigned long const ,CItemData *> > > >::_Tree_head_scoped_ptr<std::allocator<std::_Tree_node<std::pair<unsigned long const ,CItemData *>,void *> >,std::_Tree_val<std::_Tree_simple_types<std::pair<unsigned long const ,CItemData *> > > >
PUBLIC	?_Release@?$_Tree_head_scoped_ptr@V?$allocator@U?$_Tree_node@U?$pair@$$CBKPAVCItemData@@@std@@PAX@std@@@std@@V?$_Tree_val@U?$_Tree_simple_types@U?$pair@$$CBKPAVCItemData@@@std@@@std@@@2@@std@@QAEXXZ ; std::_Tree_head_scoped_ptr<std::allocator<std::_Tree_node<std::pair<unsigned long const ,CItemData *>,void *> >,std::_Tree_val<std::_Tree_simple_types<std::pair<unsigned long const ,CItemData *> > > >::_Release
PUBLIC	??1?$_Tree_head_scoped_ptr@V?$allocator@U?$_Tree_node@U?$pair@$$CBKPAVCItemData@@@std@@PAX@std@@@std@@V?$_Tree_val@U?$_Tree_simple_types@U?$pair@$$CBKPAVCItemData@@@std@@@std@@@2@@std@@QAE@XZ ; std::_Tree_head_scoped_ptr<std::allocator<std::_Tree_node<std::pair<unsigned long const ,CItemData *>,void *> >,std::_Tree_val<std::_Tree_simple_types<std::pair<unsigned long const ,CItemData *> > > >::~_Tree_head_scoped_ptr<std::allocator<std::_Tree_node<std::pair<unsigned long const ,CItemData *>,void *> >,std::_Tree_val<std::_Tree_simple_types<std::pair<unsigned long const ,CItemData *> > > >
PUBLIC	??$addressof@V?$_Tree_val@U?$_Tree_simple_types@U?$pair@$$CBKPAVCItemData@@@std@@@std@@@std@@@std@@YAPAV?$_Tree_val@U?$_Tree_simple_types@U?$pair@$$CBKPAVCItemData@@@std@@@std@@@0@AAV10@@Z ; std::addressof<std::_Tree_val<std::_Tree_simple_types<std::pair<unsigned long const ,CItemData *> > > >
PUBLIC	??$addressof@$$CBV?$_Tree_val@U?$_Tree_simple_types@U?$pair@$$CBKPAVCItemData@@@std@@@std@@@std@@@std@@YAPBV?$_Tree_val@U?$_Tree_simple_types@U?$pair@$$CBKPAVCItemData@@@std@@@std@@@0@ABV10@@Z ; std::addressof<std::_Tree_val<std::_Tree_simple_types<std::pair<unsigned long const ,CItemData *> > > const >
PUBLIC	??$addressof@U?$pair@$$CBKPAVCItemData@@@std@@@std@@YAPAU?$pair@$$CBKPAVCItemData@@@0@AAU10@@Z ; std::addressof<std::pair<unsigned long const ,CItemData *> >
PUBLIC	??$_Copy@$0A@@?$_Tree@V?$_Tmap_traits@KPAVCItemData@@U?$less@K@std@@V?$allocator@U?$pair@$$CBKPAVCItemData@@@std@@@3@$0A@@std@@@std@@IAEXABV01@@Z ; std::_Tree<std::_Tmap_traits<unsigned long,CItemData *,std::less<unsigned long>,std::allocator<std::pair<unsigned long const ,CItemData *> >,0> >::_Copy<0>
PUBLIC	??$?0U?$less@K@std@@U_One_then_variadic_args_t@1@V?$allocator@U?$_Tree_node@U?$pair@$$CBKPAVCItemData@@@std@@PAX@std@@@1@@?$_Compressed_pair@U?$less@K@std@@V?$_Compressed_pair@V?$allocator@U?$_Tree_node@U?$pair@$$CBKPAVCItemData@@@std@@PAX@std@@@std@@V?$_Tree_val@U?$_Tree_simple_types@U?$pair@$$CBKPAVCItemData@@@std@@@std@@@2@$00@2@$00@std@@QAE@U_One_then_variadic_args_t@1@$$QAU?$less@K@1@$$QAU21@$$QAV?$allocator@U?$_Tree_node@U?$pair@$$CBKPAVCItemData@@@std@@PAX@std@@@1@@Z ; std::_Compressed_pair<std::less<unsigned long>,std::_Compressed_pair<std::allocator<std::_Tree_node<std::pair<unsigned long const ,CItemData *>,void *> >,std::_Tree_val<std::_Tree_simple_types<std::pair<unsigned long const ,CItemData *> > >,1>,1>::_Compressed_pair<std::less<unsigned long>,std::_Compressed_pair<std::allocator<std::_Tree_node<std::pair<unsigned long const ,CItemData *>,void *> >,std::_Tree_val<std::_Tree_simple_types<std::pair<unsigned long const ,CItemData *> > >,1>,1><std::less<unsigned long>,std::_One_then_variadic_args_t,std::allocator<std::_Tree_node<std::pair<unsigned long const ,CItemData *>,void *> > >
PUBLIC	??$forward@V?$allocator@U?$_Tree_node@U?$pair@$$CBKPAVCItemData@@@std@@PAX@std@@@std@@@std@@YA$$QAV?$allocator@U?$_Tree_node@U?$pair@$$CBKPAVCItemData@@@std@@PAX@std@@@0@AAV10@@Z ; std::forward<std::allocator<std::_Tree_node<std::pair<unsigned long const ,CItemData *>,void *> > >
PUBLIC	??$_Freenode0@V?$allocator@U?$_Tree_node@U?$pair@$$CBKPAVCItemData@@@std@@PAX@std@@@std@@@?$_Tree_node@U?$pair@$$CBKPAVCItemData@@@std@@PAX@std@@SAXAAV?$allocator@U?$_Tree_node@U?$pair@$$CBKPAVCItemData@@@std@@PAX@std@@@1@PAU01@@Z ; std::_Tree_node<std::pair<unsigned long const ,CItemData *>,void *>::_Freenode0<std::allocator<std::_Tree_node<std::pair<unsigned long const ,CItemData *>,void *> > >
PUBLIC	??$_Erase_tree@V?$allocator@U?$_Tree_node@U?$pair@$$CBKPAVCItemData@@@std@@PAX@std@@@std@@@?$_Tree_val@U?$_Tree_simple_types@U?$pair@$$CBKPAVCItemData@@@std@@@std@@@std@@QAEXAAV?$allocator@U?$_Tree_node@U?$pair@$$CBKPAVCItemData@@@std@@PAX@std@@@1@PAU?$_Tree_node@U?$pair@$$CBKPAVCItemData@@@std@@PAX@1@@Z ; std::_Tree_val<std::_Tree_simple_types<std::pair<unsigned long const ,CItemData *> > >::_Erase_tree<std::allocator<std::_Tree_node<std::pair<unsigned long const ,CItemData *>,void *> > >
PUBLIC	?_Getal@?$_Tree@V?$_Tmap_traits@KPAVCItemData@@U?$less@K@std@@V?$allocator@U?$pair@$$CBKPAVCItemData@@@std@@@3@$0A@@std@@@std@@IAEAAV?$allocator@U?$_Tree_node@U?$pair@$$CBKPAVCItemData@@@std@@PAX@std@@@2@XZ ; std::_Tree<std::_Tmap_traits<unsigned long,CItemData *,std::less<unsigned long>,std::allocator<std::pair<unsigned long const ,CItemData *> >,0> >::_Getal
PUBLIC	?_Getal@?$_Tree@V?$_Tmap_traits@KPAVCItemData@@U?$less@K@std@@V?$allocator@U?$pair@$$CBKPAVCItemData@@@std@@@3@$0A@@std@@@std@@IBEABV?$allocator@U?$_Tree_node@U?$pair@$$CBKPAVCItemData@@@std@@PAX@std@@@2@XZ ; std::_Tree<std::_Tmap_traits<unsigned long,CItemData *,std::less<unsigned long>,std::allocator<std::pair<unsigned long const ,CItemData *> >,0> >::_Getal
PUBLIC	?_Get_scary@?$_Tree@V?$_Tmap_traits@KPAVCItemData@@U?$less@K@std@@V?$allocator@U?$pair@$$CBKPAVCItemData@@@std@@@3@$0A@@std@@@std@@IAEPAV?$_Tree_val@U?$_Tree_simple_types@U?$pair@$$CBKPAVCItemData@@@std@@@std@@@2@XZ ; std::_Tree<std::_Tmap_traits<unsigned long,CItemData *,std::less<unsigned long>,std::allocator<std::pair<unsigned long const ,CItemData *> >,0> >::_Get_scary
PUBLIC	?_Get_scary@?$_Tree@V?$_Tmap_traits@KPAVCItemData@@U?$less@K@std@@V?$allocator@U?$pair@$$CBKPAVCItemData@@@std@@@3@$0A@@std@@@std@@IBEPBV?$_Tree_val@U?$_Tree_simple_types@U?$pair@$$CBKPAVCItemData@@@std@@@std@@@2@XZ ; std::_Tree<std::_Tmap_traits<unsigned long,CItemData *,std::less<unsigned long>,std::allocator<std::pair<unsigned long const ,CItemData *> >,0> >::_Get_scary
PUBLIC	?select_on_container_copy_construction@?$_Default_allocator_traits@V?$allocator@U?$_Tree_node@U?$pair@$$CBKPAVCItemData@@@std@@PAX@std@@@std@@@std@@SA?AV?$allocator@U?$_Tree_node@U?$pair@$$CBKPAVCItemData@@@std@@PAX@std@@@2@ABV32@@Z ; std::_Default_allocator_traits<std::allocator<std::_Tree_node<std::pair<unsigned long const ,CItemData *>,void *> > >::select_on_container_copy_construction
PUBLIC	??E?$_Tree_const_iterator@V?$_Tree_val@U?$_Tree_simple_types@U?$pair@$$CBKPAVCItemData@@@std@@@std@@@std@@@std@@QAEAAV01@XZ ; std::_Tree_const_iterator<std::_Tree_val<std::_Tree_simple_types<std::pair<unsigned long const ,CItemData *> > > >::operator++
PUBLIC	??D?$_Tree_iterator@V?$_Tree_val@U?$_Tree_simple_types@U?$pair@$$CBKPAVCItemData@@@std@@@std@@@std@@@std@@QBEAAU?$pair@$$CBKPAVCItemData@@@1@XZ ; std::_Tree_iterator<std::_Tree_val<std::_Tree_simple_types<std::pair<unsigned long const ,CItemData *> > > >::operator*
PUBLIC	??0?$_Tree_unchecked_const_iterator@V?$_Tree_val@U?$_Tree_simple_types@U?$pair@$$CBKPAVCItemData@@@std@@@std@@@std@@U_Iterator_base0@2@@std@@QAE@PAU?$_Tree_node@U?$pair@$$CBKPAVCItemData@@@std@@PAX@1@PBV?$_Tree_val@U?$_Tree_simple_types@U?$pair@$$CBKPAVCItemData@@@std@@@std@@@1@@Z ; std::_Tree_unchecked_const_iterator<std::_Tree_val<std::_Tree_simple_types<std::pair<unsigned long const ,CItemData *> > >,std::_Iterator_base0>::_Tree_unchecked_const_iterator<std::_Tree_val<std::_Tree_simple_types<std::pair<unsigned long const ,CItemData *> > >,std::_Iterator_base0>
PUBLIC	?pointer_to@?$pointer_traits@PAU?$pair@$$CBKPAVCItemData@@@std@@@std@@SAPAU?$pair@$$CBKPAVCItemData@@@2@AAU32@@Z ; std::pointer_traits<std::pair<unsigned long const ,CItemData *> *>::pointer_to
PUBLIC	??$?0V?$allocator@U?$_Tree_node@U?$pair@$$CBKPAVCItemData@@@std@@PAX@std@@@std@@@?$_Tree@V?$_Tmap_traits@KPAVCItemData@@U?$less@K@std@@V?$allocator@U?$pair@$$CBKPAVCItemData@@@std@@@3@$0A@@std@@@std@@QAE@ABV01@$$QAV?$allocator@U?$_Tree_node@U?$pair@$$CBKPAVCItemData@@@std@@PAX@std@@@1@@Z ; std::_Tree<std::_Tmap_traits<unsigned long,CItemData *,std::less<unsigned long>,std::allocator<std::pair<unsigned long const ,CItemData *> >,0> >::_Tree<std::_Tmap_traits<unsigned long,CItemData *,std::less<unsigned long>,std::allocator<std::pair<unsigned long const ,CItemData *> >,0> ><std::allocator<std::_Tree_node<std::pair<unsigned long const ,CItemData *>,void *> > >
PUBLIC	??$_Erase_head@V?$allocator@U?$_Tree_node@U?$pair@$$CBKPAVCItemData@@@std@@PAX@std@@@std@@@?$_Tree_val@U?$_Tree_simple_types@U?$pair@$$CBKPAVCItemData@@@std@@@std@@@std@@QAEXAAV?$allocator@U?$_Tree_node@U?$pair@$$CBKPAVCItemData@@@std@@PAX@std@@@1@@Z ; std::_Tree_val<std::_Tree_simple_types<std::pair<unsigned long const ,CItemData *> > >::_Erase_head<std::allocator<std::_Tree_node<std::pair<unsigned long const ,CItemData *>,void *> > >
PUBLIC	??0?$_Tree_const_iterator@V?$_Tree_val@U?$_Tree_simple_types@U?$pair@$$CBKPAVCItemData@@@std@@@std@@@std@@@std@@QAE@PAU?$_Tree_node@U?$pair@$$CBKPAVCItemData@@@std@@PAX@1@PBV?$_Tree_val@U?$_Tree_simple_types@U?$pair@$$CBKPAVCItemData@@@std@@@std@@@1@@Z ; std::_Tree_const_iterator<std::_Tree_val<std::_Tree_simple_types<std::pair<unsigned long const ,CItemData *> > > >::_Tree_const_iterator<std::_Tree_val<std::_Tree_simple_types<std::pair<unsigned long const ,CItemData *> > > >
PUBLIC	??0?$_Tree_iterator@V?$_Tree_val@U?$_Tree_simple_types@U?$pair@$$CBKPAVCItemData@@@std@@@std@@@std@@@std@@QAE@PAU?$_Tree_node@U?$pair@$$CBKPAVCItemData@@@std@@PAX@1@PBV?$_Tree_val@U?$_Tree_simple_types@U?$pair@$$CBKPAVCItemData@@@std@@@std@@@1@@Z ; std::_Tree_iterator<std::_Tree_val<std::_Tree_simple_types<std::pair<unsigned long const ,CItemData *> > > >::_Tree_iterator<std::_Tree_val<std::_Tree_simple_types<std::pair<unsigned long const ,CItemData *> > > >
PUBLIC	?compare@?$basic_string@DU?$char_traits@D@std@@V?$allocator@D@2@@std@@QBEHIIABV12@@Z ; std::basic_string<char,std::char_traits<char>,std::allocator<char> >::compare
PUBLIC	??0?$map@KPAVCItemData@@U?$less@K@std@@V?$allocator@U?$pair@$$CBKPAVCItemData@@@std@@@3@@std@@QAE@ABV01@@Z ; std::map<unsigned long,CItemData *,std::less<unsigned long>,std::allocator<std::pair<unsigned long const ,CItemData *> > >::map<unsigned long,CItemData *,std::less<unsigned long>,std::allocator<std::pair<unsigned long const ,CItemData *> > >
PUBLIC	??1?$_Tree@V?$_Tmap_traits@KPAVCItemData@@U?$less@K@std@@V?$allocator@U?$pair@$$CBKPAVCItemData@@@std@@@3@$0A@@std@@@std@@QAE@XZ ; std::_Tree<std::_Tmap_traits<unsigned long,CItemData *,std::less<unsigned long>,std::allocator<std::pair<unsigned long const ,CItemData *> >,0> >::~_Tree<std::_Tmap_traits<unsigned long,CItemData *,std::less<unsigned long>,std::allocator<std::pair<unsigned long const ,CItemData *> >,0> >
PUBLIC	?begin@?$_Tree@V?$_Tmap_traits@KPAVCItemData@@U?$less@K@std@@V?$allocator@U?$pair@$$CBKPAVCItemData@@@std@@@3@$0A@@std@@@std@@QAE?AV?$_Tree_iterator@V?$_Tree_val@U?$_Tree_simple_types@U?$pair@$$CBKPAVCItemData@@@std@@@std@@@std@@@2@XZ ; std::_Tree<std::_Tmap_traits<unsigned long,CItemData *,std::less<unsigned long>,std::allocator<std::pair<unsigned long const ,CItemData *> >,0> >::begin
PUBLIC	?end@?$_Tree@V?$_Tmap_traits@KPAVCItemData@@U?$less@K@std@@V?$allocator@U?$pair@$$CBKPAVCItemData@@@std@@@3@$0A@@std@@@std@@QAE?AV?$_Tree_iterator@V?$_Tree_val@U?$_Tree_simple_types@U?$pair@$$CBKPAVCItemData@@@std@@@std@@@std@@@2@XZ ; std::_Tree<std::_Tmap_traits<unsigned long,CItemData *,std::less<unsigned long>,std::allocator<std::pair<unsigned long const ,CItemData *> >,0> >::end
PUBLIC	?size@?$_Tree@V?$_Tmap_traits@KPAVCItemData@@U?$less@K@std@@V?$allocator@U?$pair@$$CBKPAVCItemData@@@std@@@3@$0A@@std@@@std@@QBEIXZ ; std::_Tree<std::_Tmap_traits<unsigned long,CItemData *,std::less<unsigned long>,std::allocator<std::pair<unsigned long const ,CItemData *> >,0> >::size
PUBLIC	??8?$_Tree_const_iterator@V?$_Tree_val@U?$_Tree_simple_types@U?$pair@$$CBKPAVCItemData@@@std@@@std@@@std@@@std@@QBE_NABV01@@Z ; std::_Tree_const_iterator<std::_Tree_val<std::_Tree_simple_types<std::pair<unsigned long const ,CItemData *> > > >::operator==
PUBLIC	??C?$_Tree_iterator@V?$_Tree_val@U?$_Tree_simple_types@U?$pair@$$CBKPAVCItemData@@@std@@@std@@@std@@@std@@QBEPAU?$pair@$$CBKPAVCItemData@@@1@XZ ; std::_Tree_iterator<std::_Tree_val<std::_Tree_simple_types<std::pair<unsigned long const ,CItemData *> > > >::operator->
PUBLIC	??E?$_Tree_iterator@V?$_Tree_val@U?$_Tree_simple_types@U?$pair@$$CBKPAVCItemData@@@std@@@std@@@std@@@std@@QAEAAV01@XZ ; std::_Tree_iterator<std::_Tree_val<std::_Tree_simple_types<std::pair<unsigned long const ,CItemData *> > > >::operator++
PUBLIC	??0?$_Tree_unchecked_const_iterator@V?$_Tree_val@U?$_Tree_simple_types@U?$pair@$$CBKPAVCItemData@@@std@@@std@@@std@@U_Iterator_base0@2@@std@@QAE@XZ ; std::_Tree_unchecked_const_iterator<std::_Tree_val<std::_Tree_simple_types<std::pair<unsigned long const ,CItemData *> > >,std::_Iterator_base0>::_Tree_unchecked_const_iterator<std::_Tree_val<std::_Tree_simple_types<std::pair<unsigned long const ,CItemData *> > >,std::_Iterator_base0>
PUBLIC	?initItem@@YAXXZ				; initItem
PUBLIC	?itemIsChangeLookClearScroll@@YAPAU_object@@PAU1@0@Z ; itemIsChangeLookClearScroll
PUBLIC	?itemIsChangeLookFreePassYangItem@@YAPAU_object@@PAU1@0@Z ; itemIsChangeLookFreePassYangItem
PUBLIC	?itemIsPossibleChangeLookRight@@YAPAU_object@@PAU1@0@Z ; itemIsPossibleChangeLookRight
PUBLIC	?itemIsPossibleChangeLookLeft@@YAPAU_object@@PAU1@0@Z ; itemIsPossibleChangeLookLeft
PUBLIC	??0?$_Tree_const_iterator@V?$_Tree_val@U?$_Tree_simple_types@U?$pair@$$CBKPAVCItemData@@@std@@@std@@@std@@@std@@QAE@XZ ; std::_Tree_const_iterator<std::_Tree_val<std::_Tree_simple_types<std::pair<unsigned long const ,CItemData *> > > >::_Tree_const_iterator<std::_Tree_val<std::_Tree_simple_types<std::pair<unsigned long const ,CItemData *> > > >
PUBLIC	??0?$_Tree_iterator@V?$_Tree_val@U?$_Tree_simple_types@U?$pair@$$CBKPAVCItemData@@@std@@@std@@@std@@@std@@QAE@XZ ; std::_Tree_iterator<std::_Tree_val<std::_Tree_simple_types<std::pair<unsigned long const ,CItemData *> > > >::_Tree_iterator<std::_Tree_val<std::_Tree_simple_types<std::pair<unsigned long const ,CItemData *> > > >
PUBLIC	?itemGetItemsByName@@YAPAU_object@@PAU1@0@Z	; itemGetItemsByName
PUBLIC	?itemSelectItemWiki@@YAPAU_object@@PAU1@0@Z	; itemSelectItemWiki
PUBLIC	?itemGetRefinedVnum@@YAPAU_object@@PAU1@0@Z	; itemGetRefinedVnum
PUBLIC	?itemGetRefineSet@@YAPAU_object@@PAU1@0@Z	; itemGetRefineSet
PUBLIC	?itemGetItemNameByVnum@@YAPAU_object@@PAU1@0@Z	; itemGetItemNameByVnum
PUBLIC	?itemIsWeddingItem@@YAPAU_object@@PAU1@0@Z	; itemIsWeddingItem
PUBLIC	?itemLoadItemTable@@YAPAU_object@@PAU1@0@Z	; itemLoadItemTable
PUBLIC	?itemPick@@YAPAU_object@@PAU1@0@Z		; itemPick
PUBLIC	?itemDeleteItem@@YAPAU_object@@PAU1@0@Z		; itemDeleteItem
PUBLIC	?itemCreateItem@@YAPAU_object@@PAU1@0@Z		; itemCreateItem
PUBLIC	?itemUpdate@@YAPAU_object@@PAU1@0@Z		; itemUpdate
PUBLIC	?itemRender@@YAPAU_object@@PAU1@0@Z		; itemRender
PUBLIC	?itemIsMetin@@YAPAU_object@@PAU1@0@Z		; itemIsMetin
PUBLIC	?itemIsKey@@YAPAU_object@@PAU1@0@Z		; itemIsKey
PUBLIC	?itemCanAddToQuickSlotItem@@YAPAU_object@@PAU1@0@Z ; itemCanAddToQuickSlotItem
PUBLIC	?itemIsDetachScroll@@YAPAU_object@@PAU1@0@Z	; itemIsDetachScroll
PUBLIC	?itemIsRefineScroll@@YAPAU_object@@PAU1@0@Z	; itemIsRefineScroll
PUBLIC	?itemGetUseType@@YAPAU_object@@PAU1@0@Z		; itemGetUseType
PUBLIC	?itemIsEquipmentVID@@YAPAU_object@@PAU1@0@Z	; itemIsEquipmentVID
PUBLIC	?itemDeleteIconInstance@@YAPAU_object@@PAU1@0@Z	; itemDeleteIconInstance
PUBLIC	?itemGetIconInstance@@YAPAU_object@@PAU1@0@Z	; itemGetIconInstance
PUBLIC	?itemGetSocket@@YAPAU_object@@PAU1@0@Z		; itemGetSocket
PUBLIC	?itemGetValue@@YAPAU_object@@PAU1@0@Z		; itemGetValue
PUBLIC	?itemGetAffect@@YAPAU_object@@PAU1@0@Z		; itemGetAffect
PUBLIC	?itemGetLimitValue@@YAPAU_object@@PAU1@0@Z	; itemGetLimitValue
PUBLIC	?itemGetLimitType@@YAPAU_object@@PAU1@0@Z	; itemGetLimitType
PUBLIC	?itemGetLimit@@YAPAU_object@@PAU1@0@Z		; itemGetLimit
PUBLIC	?itemIs1GoldItem@@YAPAU_object@@PAU1@0@Z	; itemIs1GoldItem
PUBLIC	?itemIsWearableFlag@@YAPAU_object@@PAU1@0@Z	; itemIsWearableFlag
PUBLIC	?itemIsFlag@@YAPAU_object@@PAU1@0@Z		; itemIsFlag
PUBLIC	?itemIsAntiFlag@@YAPAU_object@@PAU1@0@Z		; itemIsAntiFlag
PUBLIC	?itemGetISellItemPrice@@YAPAU_object@@PAU1@0@Z	; itemGetISellItemPrice
PUBLIC	?itemGetIBuyItemPrice@@YAPAU_object@@PAU1@0@Z	; itemGetIBuyItemPrice
PUBLIC	?itemGetItemSubType@@YAPAU_object@@PAU1@0@Z	; itemGetItemSubType
PUBLIC	?itemGetItemType@@YAPAU_object@@PAU1@0@Z	; itemGetItemType
PUBLIC	?itemGetItemSize@@YAPAU_object@@PAU1@0@Z	; itemGetItemSize
PUBLIC	?itemGetIconImageFileName@@YAPAU_object@@PAU1@0@Z ; itemGetIconImageFileName
PUBLIC	?itemGetIconImage@@YAPAU_object@@PAU1@0@Z	; itemGetIconImage
PUBLIC	?itemGetItemSummary@@YAPAU_object@@PAU1@0@Z	; itemGetItemSummary
PUBLIC	?itemGetItemDescription@@YAPAU_object@@PAU1@0@Z	; itemGetItemDescription
PUBLIC	?itemGetItemName@@YAPAU_object@@PAU1@0@Z	; itemGetItemName
PUBLIC	?itemSelectItem@@YAPAU_object@@PAU1@0@Z		; itemSelectItem
PUBLIC	?itemSetDropSoundFileName@@YAPAU_object@@PAU1@0@Z ; itemSetDropSoundFileName
PUBLIC	?itemSetUseSoundFileName@@YAPAU_object@@PAU1@0@Z ; itemSetUseSoundFileName
PUBLIC	??1?$map@KPAVCItemData@@U?$less@K@std@@V?$allocator@U?$pair@$$CBKPAVCItemData@@@std@@@3@@std@@QAE@XZ ; std::map<unsigned long,CItemData *,std::less<unsigned long>,std::allocator<std::pair<unsigned long const ,CItemData *> > >::~map<unsigned long,CItemData *,std::less<unsigned long>,std::allocator<std::pair<unsigned long const ,CItemData *> > >
PUBLIC	?GetItems@CItemManager@@QBE?AV?$map@KPAVCItemData@@U?$less@K@std@@V?$allocator@U?$pair@$$CBKPAVCItemData@@@std@@@3@@std@@XZ ; CItemManager::GetItems
;	COMDAT xdata$x
xdata$x	SEGMENT
__ehfuncinfo$?GetItems@CItemManager@@QBE?AV?$map@KPAVCItemData@@U?$less@K@std@@V?$allocator@U?$pair@$$CBKPAVCItemData@@@std@@@3@@std@@XZ DQ 00000000119930522r ; 2.33398e-314
	DD	FLAT:__unwindtable$?GetItems@CItemManager@@QBE?AV?$map@KPAVCItemData@@U?$less@K@std@@V?$allocator@U?$pair@$$CBKPAVCItemData@@@std@@@3@@std@@XZ
	DQ	00000000000000000r		; 0
	DQ	00000000000000000r		; 0
	DQ	00000000100000000r		; 2.122e-314
__unwindtable$?GetItems@CItemManager@@QBE?AV?$map@KPAVCItemData@@U?$less@K@std@@V?$allocator@U?$pair@$$CBKPAVCItemData@@@std@@@3@@std@@XZ DD 0ffffffffH
	DD	FLAT:__unwindfunclet$?GetItems@CItemManager@@QBE?AV?$map@KPAVCItemData@@U?$less@K@std@@V?$allocator@U?$pair@$$CBKPAVCItemData@@@std@@@3@@std@@XZ$2
xdata$x	ENDS
;	COMDAT xdata$x
xdata$x	SEGMENT
__ehfuncinfo$?itemSetUseSoundFileName@@YAPAU_object@@PAU1@0@Z DQ 00000000119930522r ; 2.33398e-314
	DD	FLAT:__unwindtable$?itemSetUseSoundFileName@@YAPAU_object@@PAU1@0@Z
	DQ	00000000000000000r		; 0
	DQ	00000000000000000r		; 0
	DQ	00000000100000000r		; 2.122e-314
__unwindtable$?itemSetUseSoundFileName@@YAPAU_object@@PAU1@0@Z DD 0ffffffffH
	DD	FLAT:__unwindfunclet$?itemSetUseSoundFileName@@YAPAU_object@@PAU1@0@Z$0
xdata$x	ENDS
;	COMDAT xdata$x
xdata$x	SEGMENT
__ehfuncinfo$?itemSetDropSoundFileName@@YAPAU_object@@PAU1@0@Z DQ 00000000119930522r ; 2.33398e-314
	DD	FLAT:__unwindtable$?itemSetDropSoundFileName@@YAPAU_object@@PAU1@0@Z
	DQ	00000000000000000r		; 0
	DQ	00000000000000000r		; 0
	DQ	00000000100000000r		; 2.122e-314
__unwindtable$?itemSetDropSoundFileName@@YAPAU_object@@PAU1@0@Z DD 0ffffffffH
	DD	FLAT:__unwindfunclet$?itemSetDropSoundFileName@@YAPAU_object@@PAU1@0@Z$0
xdata$x	ENDS
;	COMDAT xdata$x
xdata$x	SEGMENT
__ehfuncinfo$?itemGetItemsByName@@YAPAU_object@@PAU1@0@Z DD 019930522H
	DD	04H
	DD	FLAT:__unwindtable$?itemGetItemsByName@@YAPAU_object@@PAU1@0@Z
	DD	2 DUP(00H)
	DD	2 DUP(00H)
	DD	00H
	DD	01H
__unwindtable$?itemGetItemsByName@@YAPAU_object@@PAU1@0@Z DD 0ffffffffH
	DD	FLAT:__unwindfunclet$?itemGetItemsByName@@YAPAU_object@@PAU1@0@Z$10
	DD	0ffffffffH
	DD	FLAT:__unwindfunclet$?itemGetItemsByName@@YAPAU_object@@PAU1@0@Z$0
	DD	01H
	DD	FLAT:__unwindfunclet$?itemGetItemsByName@@YAPAU_object@@PAU1@0@Z$1
	DD	02H
	DD	FLAT:__unwindfunclet$?itemGetItemsByName@@YAPAU_object@@PAU1@0@Z$2
xdata$x	ENDS
;	COMDAT xdata$x
xdata$x	SEGMENT
__ehfuncinfo$??0?$map@KPAVCItemData@@U?$less@K@std@@V?$allocator@U?$pair@$$CBKPAVCItemData@@@std@@@3@@std@@QAE@ABV01@@Z DQ 00000000119930522r ; 2.33398e-314
	DD	FLAT:__unwindtable$??0?$map@KPAVCItemData@@U?$less@K@std@@V?$allocator@U?$pair@$$CBKPAVCItemData@@@std@@@3@@std@@QAE@ABV01@@Z
	DQ	00000000000000000r		; 0
	DQ	00000000000000000r		; 0
	DQ	00000000100000000r		; 2.122e-314
__unwindtable$??0?$map@KPAVCItemData@@U?$less@K@std@@V?$allocator@U?$pair@$$CBKPAVCItemData@@@std@@@3@@std@@QAE@ABV01@@Z DD 0ffffffffH
	DD	FLAT:__unwindfunclet$??0?$map@KPAVCItemData@@U?$less@K@std@@V?$allocator@U?$pair@$$CBKPAVCItemData@@@std@@@3@@std@@QAE@ABV01@@Z$1
xdata$x	ENDS
;	COMDAT xdata$x
xdata$x	SEGMENT
__ehfuncinfo$??$?0V?$allocator@U?$_Tree_node@U?$pair@$$CBKPAVCItemData@@@std@@PAX@std@@@std@@@?$_Tree@V?$_Tmap_traits@KPAVCItemData@@U?$less@K@std@@V?$allocator@U?$pair@$$CBKPAVCItemData@@@std@@@3@$0A@@std@@@std@@QAE@ABV01@$$QAV?$allocator@U?$_Tree_node@U?$pair@$$CBKPAVCItemData@@@std@@PAX@std@@@1@@Z DQ 00000000119930522r ; 2.33398e-314
	DD	FLAT:__unwindtable$??$?0V?$allocator@U?$_Tree_node@U?$pair@$$CBKPAVCItemData@@@std@@PAX@std@@@std@@@?$_Tree@V?$_Tmap_traits@KPAVCItemData@@U?$less@K@std@@V?$allocator@U?$pair@$$CBKPAVCItemData@@@std@@@3@$0A@@std@@@std@@QAE@ABV01@$$QAV?$allocator@U?$_Tree_node@U?$pair@$$CBKPAVCItemData@@@std@@PAX@std@@@1@@Z
	DQ	00000000000000000r		; 0
	DQ	00000000000000000r		; 0
	DQ	00000000100000000r		; 2.122e-314
__unwindtable$??$?0V?$allocator@U?$_Tree_node@U?$pair@$$CBKPAVCItemData@@@std@@PAX@std@@@std@@@?$_Tree@V?$_Tmap_traits@KPAVCItemData@@U?$less@K@std@@V?$allocator@U?$pair@$$CBKPAVCItemData@@@std@@@3@$0A@@std@@@std@@QAE@ABV01@$$QAV?$allocator@U?$_Tree_node@U?$pair@$$CBKPAVCItemData@@@std@@PAX@std@@@1@@Z DD 0ffffffffH
	DD	FLAT:__unwindfunclet$??$?0V?$allocator@U?$_Tree_node@U?$pair@$$CBKPAVCItemData@@@std@@PAX@std@@@std@@@?$_Tree@V?$_Tmap_traits@KPAVCItemData@@U?$less@K@std@@V?$allocator@U?$pair@$$CBKPAVCItemData@@@std@@@3@$0A@@std@@@std@@QAE@ABV01@$$QAV?$allocator@U?$_Tree_node@U?$pair@$$CBKPAVCItemData@@@std@@PAX@std@@@1@@Z$0
xdata$x	ENDS
;	COMDAT xdata$x
xdata$x	SEGMENT
__ehfuncinfo$??$_Copy_nodes@$0A@@?$_Tree@V?$_Tmap_traits@KPAVCItemData@@U?$less@K@std@@V?$allocator@U?$pair@$$CBKPAVCItemData@@@std@@@3@$0A@@std@@@std@@IAEPAU?$_Tree_node@U?$pair@$$CBKPAVCItemData@@@std@@PAX@1@PAU21@0@Z DQ 00000000219930522r ; 4.45598e-314
	DD	FLAT:__unwindtable$??$_Copy_nodes@$0A@@?$_Tree@V?$_Tmap_traits@KPAVCItemData@@U?$less@K@std@@V?$allocator@U?$pair@$$CBKPAVCItemData@@@std@@@3@$0A@@std@@@std@@IAEPAU?$_Tree_node@U?$pair@$$CBKPAVCItemData@@@std@@PAX@1@PAU21@0@Z
	DQ	00000000000000000r		; 0
	DQ	00000000000000000r		; 0
	DQ	00000000100000000r		; 2.122e-314
__unwindtable$??$_Copy_nodes@$0A@@?$_Tree@V?$_Tmap_traits@KPAVCItemData@@U?$less@K@std@@V?$allocator@U?$pair@$$CBKPAVCItemData@@@std@@@3@$0A@@std@@@std@@IAEPAU?$_Tree_node@U?$pair@$$CBKPAVCItemData@@@std@@PAX@1@PAU21@0@Z DD 0ffffffffH
	DD	FLAT:__unwindfunclet$??$_Copy_nodes@$0A@@?$_Tree@V?$_Tmap_traits@KPAVCItemData@@U?$less@K@std@@V?$allocator@U?$pair@$$CBKPAVCItemData@@@std@@@3@$0A@@std@@@std@@IAEPAU?$_Tree_node@U?$pair@$$CBKPAVCItemData@@@std@@PAX@1@PAU21@0@Z$1
	DD	0ffffffffH
	DD	FLAT:__unwindfunclet$??$_Copy_nodes@$0A@@?$_Tree@V?$_Tmap_traits@KPAVCItemData@@U?$less@K@std@@V?$allocator@U?$pair@$$CBKPAVCItemData@@@std@@@3@$0A@@std@@@std@@IAEPAU?$_Tree_node@U?$pair@$$CBKPAVCItemData@@@std@@PAX@1@PAU21@0@Z$0
xdata$x	ENDS
;	COMDAT xdata$x
xdata$x	SEGMENT
__ehfuncinfo$??$_Copy_or_move@$0A@U?$pair@$$CBKPAVCItemData@@@std@@@?$_Tree@V?$_Tmap_traits@KPAVCItemData@@U?$less@K@std@@V?$allocator@U?$pair@$$CBKPAVCItemData@@@std@@@3@$0A@@std@@@std@@IAEPAU?$_Tree_node@U?$pair@$$CBKPAVCItemData@@@std@@PAX@1@AAU?$pair@$$CBKPAVCItemData@@@1@@Z DQ 00000000119930522r ; 2.33398e-314
	DD	FLAT:__unwindtable$??$_Copy_or_move@$0A@U?$pair@$$CBKPAVCItemData@@@std@@@?$_Tree@V?$_Tmap_traits@KPAVCItemData@@U?$less@K@std@@V?$allocator@U?$pair@$$CBKPAVCItemData@@@std@@@3@$0A@@std@@@std@@IAEPAU?$_Tree_node@U?$pair@$$CBKPAVCItemData@@@std@@PAX@1@AAU?$pair@$$CBKPAVCItemData@@@1@@Z
	DQ	00000000000000000r		; 0
	DQ	00000000000000000r		; 0
	DQ	00000000100000000r		; 2.122e-314
__unwindtable$??$_Copy_or_move@$0A@U?$pair@$$CBKPAVCItemData@@@std@@@?$_Tree@V?$_Tmap_traits@KPAVCItemData@@U?$less@K@std@@V?$allocator@U?$pair@$$CBKPAVCItemData@@@std@@@3@$0A@@std@@@std@@IAEPAU?$_Tree_node@U?$pair@$$CBKPAVCItemData@@@std@@PAX@1@AAU?$pair@$$CBKPAVCItemData@@@1@@Z DD 0ffffffffH
	DD	FLAT:__unwindfunclet$??$_Copy_or_move@$0A@U?$pair@$$CBKPAVCItemData@@@std@@@?$_Tree@V?$_Tmap_traits@KPAVCItemData@@U?$less@K@std@@V?$allocator@U?$pair@$$CBKPAVCItemData@@@std@@@3@$0A@@std@@@std@@IAEPAU?$_Tree_node@U?$pair@$$CBKPAVCItemData@@@std@@PAX@1@AAU?$pair@$$CBKPAVCItemData@@@1@@Z$0
xdata$x	ENDS
;	COMDAT xdata$x
xdata$x	SEGMENT
__ehfuncinfo$??$_Buynode@AAU?$pair@$$CBKPAVCItemData@@@std@@@?$_Tree@V?$_Tmap_traits@KPAVCItemData@@U?$less@K@std@@V?$allocator@U?$pair@$$CBKPAVCItemData@@@std@@@3@$0A@@std@@@std@@IAEPAU?$_Tree_node@U?$pair@$$CBKPAVCItemData@@@std@@PAX@1@AAU?$pair@$$CBKPAVCItemData@@@1@@Z DQ 00000000119930522r ; 2.33398e-314
	DD	FLAT:__unwindtable$??$_Buynode@AAU?$pair@$$CBKPAVCItemData@@@std@@@?$_Tree@V?$_Tmap_traits@KPAVCItemData@@U?$less@K@std@@V?$allocator@U?$pair@$$CBKPAVCItemData@@@std@@@3@$0A@@std@@@std@@IAEPAU?$_Tree_node@U?$pair@$$CBKPAVCItemData@@@std@@PAX@1@AAU?$pair@$$CBKPAVCItemData@@@1@@Z
	DQ	00000000000000000r		; 0
	DQ	00000000000000000r		; 0
	DQ	00000000100000000r		; 2.122e-314
__unwindtable$??$_Buynode@AAU?$pair@$$CBKPAVCItemData@@@std@@@?$_Tree@V?$_Tmap_traits@KPAVCItemData@@U?$less@K@std@@V?$allocator@U?$pair@$$CBKPAVCItemData@@@std@@@3@$0A@@std@@@std@@IAEPAU?$_Tree_node@U?$pair@$$CBKPAVCItemData@@@std@@PAX@1@AAU?$pair@$$CBKPAVCItemData@@@1@@Z DD 0ffffffffH
	DD	FLAT:__unwindfunclet$??$_Buynode@AAU?$pair@$$CBKPAVCItemData@@@std@@@?$_Tree@V?$_Tmap_traits@KPAVCItemData@@U?$less@K@std@@V?$allocator@U?$pair@$$CBKPAVCItemData@@@std@@@3@$0A@@std@@@std@@IAEPAU?$_Tree_node@U?$pair@$$CBKPAVCItemData@@@std@@PAX@1@AAU?$pair@$$CBKPAVCItemData@@@1@@Z$0
xdata$x	ENDS
;	COMDAT xdata$x
xdata$x	SEGMENT
__ehfuncinfo$??$_Buynode@V?$allocator@U?$_Tree_node@U?$pair@$$CBKPAVCItemData@@@std@@PAX@std@@@std@@AAU?$pair@$$CBKPAVCItemData@@@2@@?$_Tree_node@U?$pair@$$CBKPAVCItemData@@@std@@PAX@std@@SAPAU01@AAV?$allocator@U?$_Tree_node@U?$pair@$$CBKPAVCItemData@@@std@@PAX@std@@@1@PAU01@AAU?$pair@$$CBKPAVCItemData@@@1@@Z DQ 00000000119930522r ; 2.33398e-314
	DD	FLAT:__unwindtable$??$_Buynode@V?$allocator@U?$_Tree_node@U?$pair@$$CBKPAVCItemData@@@std@@PAX@std@@@std@@AAU?$pair@$$CBKPAVCItemData@@@2@@?$_Tree_node@U?$pair@$$CBKPAVCItemData@@@std@@PAX@std@@SAPAU01@AAV?$allocator@U?$_Tree_node@U?$pair@$$CBKPAVCItemData@@@std@@PAX@std@@@1@PAU01@AAU?$pair@$$CBKPAVCItemData@@@1@@Z
	DQ	00000000000000000r		; 0
	DQ	00000000000000000r		; 0
	DQ	00000000100000000r		; 2.122e-314
__unwindtable$??$_Buynode@V?$allocator@U?$_Tree_node@U?$pair@$$CBKPAVCItemData@@@std@@PAX@std@@@std@@AAU?$pair@$$CBKPAVCItemData@@@2@@?$_Tree_node@U?$pair@$$CBKPAVCItemData@@@std@@PAX@std@@SAPAU01@AAV?$allocator@U?$_Tree_node@U?$pair@$$CBKPAVCItemData@@@std@@PAX@std@@@1@PAU01@AAU?$pair@$$CBKPAVCItemData@@@1@@Z DD 0ffffffffH
	DD	FLAT:__unwindfunclet$??$_Buynode@V?$allocator@U?$_Tree_node@U?$pair@$$CBKPAVCItemData@@@std@@PAX@std@@@std@@AAU?$pair@$$CBKPAVCItemData@@@2@@?$_Tree_node@U?$pair@$$CBKPAVCItemData@@@std@@PAX@std@@SAPAU01@AAV?$allocator@U?$_Tree_node@U?$pair@$$CBKPAVCItemData@@@std@@PAX@std@@@1@PAU01@AAU?$pair@$$CBKPAVCItemData@@@1@@Z$0
; Function compile flags: /Ogtp
; File C:\Anka2Project\Anka2Project\Source\Binary\source\UserInterface\PythonItemModule.cpp
; File C:\Anka2Project\Anka2Project\Source\Binary\source\eterBase\Singleton.h
; File C:\Anka2Project\Anka2Project\Source\Binary\source\UserInterface\PythonItemModule.cpp
;	COMDAT ?itemGetItemName@@YAPAU_object@@PAU1@0@Z
_TEXT	SEGMENT
_poSelf$ = 8						; size = 4
_poArgs$ = 12						; size = 4
?itemGetItemName@@YAPAU_object@@PAU1@0@Z PROC		; itemGetItemName, COMDAT
; File C:\Anka2Project\Anka2Project\Source\Binary\source\eterBase\Singleton.h

; 26   : 		assert(ms_singleton);

  00000	8b 0d 00 00 00
	00		 mov	 ecx, DWORD PTR ?ms_singleton@?$CSingleton@VCItemManager@@@@0PAVCItemManager@@A ; CSingleton<CItemManager>::ms_singleton
  00006	85 c9		 test	 ecx, ecx
  00008	75 1a		 jne	 SHORT $LN6@itemGetIte
  0000a	6a 1a		 push	 26			; 0000001aH
  0000c	68 00 00 00 00	 push	 OFFSET ??_C@_1IO@CAJLEEOI@?$AAC?$AA?3?$AA?2?$AAA?$AAn?$AAk?$AAa?$AA2?$AAP?$AAr?$AAo?$AAj?$AAe?$AAc?$AAt@
  00011	68 00 00 00 00	 push	 OFFSET ??_C@_1BK@FMEHPMFE@?$AAm?$AAs?$AA_?$AAs?$AAi?$AAn?$AAg?$AAl?$AAe?$AAt?$AAo?$AAn@
  00016	e8 00 00 00 00	 call	 __wassert
  0001b	8b 0d 00 00 00
	00		 mov	 ecx, DWORD PTR ?ms_singleton@?$CSingleton@VCItemManager@@@@0PAVCItemManager@@A ; CSingleton<CItemManager>::ms_singleton
  00021	83 c4 0c	 add	 esp, 12			; 0000000cH
$LN6@itemGetIte:
; File C:\Anka2Project\Anka2Project\Source\Binary\source\UserInterface\PythonItemModule.cpp

; 57   : 	CItemData * pItemData = CItemManager::Instance().GetSelectedItemDataPointer();

  00024	e8 00 00 00 00	 call	 ?GetSelectedItemDataPointer@CItemManager@@QAEPAVCItemData@@XZ ; CItemManager::GetSelectedItemDataPointer

; 58   : 	if (!pItemData)

  00029	85 c0		 test	 eax, eax
  0002b	75 0e		 jne	 SHORT $LN2@itemGetIte

; 59   : 		return Py_BuildException("no selected item data");

  0002d	68 00 00 00 00	 push	 OFFSET ??_C@_0BG@LNOAJHHG@no?5selected?5item?5data@
  00032	e8 00 00 00 00	 call	 ?Py_BuildException@@YAPAU_object@@PBDZZ ; Py_BuildException
  00037	83 c4 04	 add	 esp, 4

; 62   : }

  0003a	c3		 ret	 0
$LN2@itemGetIte:

; 60   : 
; 61   : 	return Py_BuildValue("s", pItemData->GetName());

  0003b	8b c8		 mov	 ecx, eax
  0003d	e8 00 00 00 00	 call	 ?GetName@CItemData@@QBEPBDXZ ; CItemData::GetName
  00042	50		 push	 eax
  00043	68 00 00 00 00	 push	 OFFSET ??_C@_01LKDEMHDF@s@
  00048	ff 15 00 00 00
	00		 call	 DWORD PTR __imp__Py_BuildValue
  0004e	83 c4 08	 add	 esp, 8

; 62   : }

  00051	c3		 ret	 0
?itemGetItemName@@YAPAU_object@@PAU1@0@Z ENDP		; itemGetItemName
_TEXT	ENDS
; Function compile flags: /Ogtp
; File C:\Anka2Project\Anka2Project\Source\Binary\source\UserInterface\PythonItemModule.cpp
; File C:\Anka2Project\Anka2Project\Source\Binary\source\eterBase\Singleton.h
; File C:\Anka2Project\Anka2Project\Source\Binary\source\UserInterface\PythonItemModule.cpp
;	COMDAT ?itemGetItemDescription@@YAPAU_object@@PAU1@0@Z
_TEXT	SEGMENT
_poSelf$ = 8						; size = 4
_poArgs$ = 12						; size = 4
?itemGetItemDescription@@YAPAU_object@@PAU1@0@Z PROC	; itemGetItemDescription, COMDAT
; File C:\Anka2Project\Anka2Project\Source\Binary\source\eterBase\Singleton.h

; 26   : 		assert(ms_singleton);

  00000	8b 0d 00 00 00
	00		 mov	 ecx, DWORD PTR ?ms_singleton@?$CSingleton@VCItemManager@@@@0PAVCItemManager@@A ; CSingleton<CItemManager>::ms_singleton
  00006	85 c9		 test	 ecx, ecx
  00008	75 1a		 jne	 SHORT $LN6@itemGetIte
  0000a	6a 1a		 push	 26			; 0000001aH
  0000c	68 00 00 00 00	 push	 OFFSET ??_C@_1IO@CAJLEEOI@?$AAC?$AA?3?$AA?2?$AAA?$AAn?$AAk?$AAa?$AA2?$AAP?$AAr?$AAo?$AAj?$AAe?$AAc?$AAt@
  00011	68 00 00 00 00	 push	 OFFSET ??_C@_1BK@FMEHPMFE@?$AAm?$AAs?$AA_?$AAs?$AAi?$AAn?$AAg?$AAl?$AAe?$AAt?$AAo?$AAn@
  00016	e8 00 00 00 00	 call	 __wassert
  0001b	8b 0d 00 00 00
	00		 mov	 ecx, DWORD PTR ?ms_singleton@?$CSingleton@VCItemManager@@@@0PAVCItemManager@@A ; CSingleton<CItemManager>::ms_singleton
  00021	83 c4 0c	 add	 esp, 12			; 0000000cH
$LN6@itemGetIte:
; File C:\Anka2Project\Anka2Project\Source\Binary\source\UserInterface\PythonItemModule.cpp

; 66   : 	CItemData * pItemData = CItemManager::Instance().GetSelectedItemDataPointer();

  00024	e8 00 00 00 00	 call	 ?GetSelectedItemDataPointer@CItemManager@@QAEPAVCItemData@@XZ ; CItemManager::GetSelectedItemDataPointer

; 67   : 	if (!pItemData)

  00029	85 c0		 test	 eax, eax
  0002b	75 0e		 jne	 SHORT $LN2@itemGetIte

; 68   : 		return Py_BuildException("no selected item data");

  0002d	68 00 00 00 00	 push	 OFFSET ??_C@_0BG@LNOAJHHG@no?5selected?5item?5data@
  00032	e8 00 00 00 00	 call	 ?Py_BuildException@@YAPAU_object@@PBDZZ ; Py_BuildException
  00037	83 c4 04	 add	 esp, 4

; 71   : }

  0003a	c3		 ret	 0
$LN2@itemGetIte:

; 69   : 
; 70   : 	return Py_BuildValue("s", pItemData->GetDescription());

  0003b	8b c8		 mov	 ecx, eax
  0003d	e8 00 00 00 00	 call	 ?GetDescription@CItemData@@QBEPBDXZ ; CItemData::GetDescription
  00042	50		 push	 eax
  00043	68 00 00 00 00	 push	 OFFSET ??_C@_01LKDEMHDF@s@
  00048	ff 15 00 00 00
	00		 call	 DWORD PTR __imp__Py_BuildValue
  0004e	83 c4 08	 add	 esp, 8

; 71   : }

  00051	c3		 ret	 0
?itemGetItemDescription@@YAPAU_object@@PAU1@0@Z ENDP	; itemGetItemDescription
_TEXT	ENDS
; Function compile flags: /Ogtp
; File C:\Anka2Project\Anka2Project\Source\Binary\source\UserInterface\PythonItemModule.cpp
; File C:\Anka2Project\Anka2Project\Source\Binary\source\eterBase\Singleton.h
; File C:\Anka2Project\Anka2Project\Source\Binary\source\UserInterface\PythonItemModule.cpp
;	COMDAT ?itemGetItemSummary@@YAPAU_object@@PAU1@0@Z
_TEXT	SEGMENT
_poSelf$ = 8						; size = 4
_poArgs$ = 12						; size = 4
?itemGetItemSummary@@YAPAU_object@@PAU1@0@Z PROC	; itemGetItemSummary, COMDAT
; File C:\Anka2Project\Anka2Project\Source\Binary\source\eterBase\Singleton.h

; 26   : 		assert(ms_singleton);

  00000	8b 0d 00 00 00
	00		 mov	 ecx, DWORD PTR ?ms_singleton@?$CSingleton@VCItemManager@@@@0PAVCItemManager@@A ; CSingleton<CItemManager>::ms_singleton
  00006	85 c9		 test	 ecx, ecx
  00008	75 1a		 jne	 SHORT $LN6@itemGetIte
  0000a	6a 1a		 push	 26			; 0000001aH
  0000c	68 00 00 00 00	 push	 OFFSET ??_C@_1IO@CAJLEEOI@?$AAC?$AA?3?$AA?2?$AAA?$AAn?$AAk?$AAa?$AA2?$AAP?$AAr?$AAo?$AAj?$AAe?$AAc?$AAt@
  00011	68 00 00 00 00	 push	 OFFSET ??_C@_1BK@FMEHPMFE@?$AAm?$AAs?$AA_?$AAs?$AAi?$AAn?$AAg?$AAl?$AAe?$AAt?$AAo?$AAn@
  00016	e8 00 00 00 00	 call	 __wassert
  0001b	8b 0d 00 00 00
	00		 mov	 ecx, DWORD PTR ?ms_singleton@?$CSingleton@VCItemManager@@@@0PAVCItemManager@@A ; CSingleton<CItemManager>::ms_singleton
  00021	83 c4 0c	 add	 esp, 12			; 0000000cH
$LN6@itemGetIte:
; File C:\Anka2Project\Anka2Project\Source\Binary\source\UserInterface\PythonItemModule.cpp

; 75   : 	CItemData * pItemData = CItemManager::Instance().GetSelectedItemDataPointer();

  00024	e8 00 00 00 00	 call	 ?GetSelectedItemDataPointer@CItemManager@@QAEPAVCItemData@@XZ ; CItemManager::GetSelectedItemDataPointer

; 76   : 	if (!pItemData)

  00029	85 c0		 test	 eax, eax
  0002b	75 0e		 jne	 SHORT $LN2@itemGetIte

; 77   : 		return Py_BuildException("no selected item data");

  0002d	68 00 00 00 00	 push	 OFFSET ??_C@_0BG@LNOAJHHG@no?5selected?5item?5data@
  00032	e8 00 00 00 00	 call	 ?Py_BuildException@@YAPAU_object@@PBDZZ ; Py_BuildException
  00037	83 c4 04	 add	 esp, 4

; 80   : }

  0003a	c3		 ret	 0
$LN2@itemGetIte:

; 78   : 
; 79   : 	return Py_BuildValue("s", pItemData->GetSummary());

  0003b	8b c8		 mov	 ecx, eax
  0003d	e8 00 00 00 00	 call	 ?GetSummary@CItemData@@QBEPBDXZ ; CItemData::GetSummary
  00042	50		 push	 eax
  00043	68 00 00 00 00	 push	 OFFSET ??_C@_01LKDEMHDF@s@
  00048	ff 15 00 00 00
	00		 call	 DWORD PTR __imp__Py_BuildValue
  0004e	83 c4 08	 add	 esp, 8

; 80   : }

  00051	c3		 ret	 0
?itemGetItemSummary@@YAPAU_object@@PAU1@0@Z ENDP	; itemGetItemSummary
_TEXT	ENDS
; Function compile flags: /Ogtp
; File C:\Anka2Project\Anka2Project\Source\Binary\source\UserInterface\PythonItemModule.cpp
; File C:\Anka2Project\Anka2Project\Source\Binary\source\eterBase\Singleton.h
; File C:\Anka2Project\Anka2Project\Source\Binary\source\UserInterface\PythonItemModule.cpp
;	COMDAT ?itemGetIconImage@@YAPAU_object@@PAU1@0@Z
_TEXT	SEGMENT
_poSelf$ = 8						; size = 4
_poArgs$ = 12						; size = 4
?itemGetIconImage@@YAPAU_object@@PAU1@0@Z PROC		; itemGetIconImage, COMDAT
; File C:\Anka2Project\Anka2Project\Source\Binary\source\eterBase\Singleton.h

; 26   : 		assert(ms_singleton);

  00000	8b 0d 00 00 00
	00		 mov	 ecx, DWORD PTR ?ms_singleton@?$CSingleton@VCItemManager@@@@0PAVCItemManager@@A ; CSingleton<CItemManager>::ms_singleton
  00006	85 c9		 test	 ecx, ecx
  00008	75 1a		 jne	 SHORT $LN6@itemGetIco
  0000a	6a 1a		 push	 26			; 0000001aH
  0000c	68 00 00 00 00	 push	 OFFSET ??_C@_1IO@CAJLEEOI@?$AAC?$AA?3?$AA?2?$AAA?$AAn?$AAk?$AAa?$AA2?$AAP?$AAr?$AAo?$AAj?$AAe?$AAc?$AAt@
  00011	68 00 00 00 00	 push	 OFFSET ??_C@_1BK@FMEHPMFE@?$AAm?$AAs?$AA_?$AAs?$AAi?$AAn?$AAg?$AAl?$AAe?$AAt?$AAo?$AAn@
  00016	e8 00 00 00 00	 call	 __wassert
  0001b	8b 0d 00 00 00
	00		 mov	 ecx, DWORD PTR ?ms_singleton@?$CSingleton@VCItemManager@@@@0PAVCItemManager@@A ; CSingleton<CItemManager>::ms_singleton
  00021	83 c4 0c	 add	 esp, 12			; 0000000cH
$LN6@itemGetIco:
; File C:\Anka2Project\Anka2Project\Source\Binary\source\UserInterface\PythonItemModule.cpp

; 84   : 	CItemData * pItemData = CItemManager::Instance().GetSelectedItemDataPointer();

  00024	e8 00 00 00 00	 call	 ?GetSelectedItemDataPointer@CItemManager@@QAEPAVCItemData@@XZ ; CItemManager::GetSelectedItemDataPointer

; 85   : 	if (!pItemData)

  00029	85 c0		 test	 eax, eax
  0002b	75 0e		 jne	 SHORT $LN2@itemGetIco

; 86   : 		return Py_BuildException("no selected item data");

  0002d	68 00 00 00 00	 push	 OFFSET ??_C@_0BG@LNOAJHHG@no?5selected?5item?5data@
  00032	e8 00 00 00 00	 call	 ?Py_BuildException@@YAPAU_object@@PBDZZ ; Py_BuildException
  00037	83 c4 04	 add	 esp, 4

; 96   : }

  0003a	c3		 ret	 0
$LN2@itemGetIco:

; 87   : 
; 88   : //	if (CItemData::ITEM_TYPE_SKILLBOOK == pItemData->GetType())
; 89   : //	{
; 90   : //		char szItemName[64+1];
; 91   : //		_snprintf(szItemName, "d:/ymir work/ui/items/etc/book_%02d.sub", );
; 92   : //		CGraphicImage * pImage = (CGraphicImage *)CResourceManager::Instance().GetResourcePointer(szItemName);
; 93   : //	}
; 94   : 
; 95   : 	return Py_BuildValue("i", pItemData->GetIconImage());

  0003b	8b c8		 mov	 ecx, eax
  0003d	e8 00 00 00 00	 call	 ?GetIconImage@CItemData@@QAEPAVCGraphicSubImage@@XZ ; CItemData::GetIconImage
  00042	50		 push	 eax
  00043	68 00 00 00 00	 push	 OFFSET ??_C@_01KBJDNOO@i@
  00048	ff 15 00 00 00
	00		 call	 DWORD PTR __imp__Py_BuildValue
  0004e	83 c4 08	 add	 esp, 8

; 96   : }

  00051	c3		 ret	 0
?itemGetIconImage@@YAPAU_object@@PAU1@0@Z ENDP		; itemGetIconImage
_TEXT	ENDS
; Function compile flags: /Ogtp
; File C:\Anka2Project\Anka2Project\Source\Binary\source\UserInterface\PythonItemModule.cpp
; File C:\Anka2Project\Anka2Project\Source\Binary\source\eterBase\Singleton.h
; File C:\Anka2Project\Anka2Project\Source\Binary\source\UserInterface\PythonItemModule.cpp
; File C:\Program Files\Microsoft Visual Studio\2022\Community\VC\Tools\MSVC\14.44.35207\include\xstring
; File C:\Anka2Project\Anka2Project\Source\Binary\source\UserInterface\PythonItemModule.cpp
;	COMDAT ?itemGetIconImageFileName@@YAPAU_object@@PAU1@0@Z
_TEXT	SEGMENT
_poSelf$ = 8						; size = 4
_poArgs$ = 12						; size = 4
?itemGetIconImageFileName@@YAPAU_object@@PAU1@0@Z PROC	; itemGetIconImageFileName, COMDAT
; File C:\Anka2Project\Anka2Project\Source\Binary\source\eterBase\Singleton.h

; 26   : 		assert(ms_singleton);

  00000	8b 0d 00 00 00
	00		 mov	 ecx, DWORD PTR ?ms_singleton@?$CSingleton@VCItemManager@@@@0PAVCItemManager@@A ; CSingleton<CItemManager>::ms_singleton
  00006	85 c9		 test	 ecx, ecx
  00008	75 1a		 jne	 SHORT $LN7@itemGetIco
  0000a	6a 1a		 push	 26			; 0000001aH
  0000c	68 00 00 00 00	 push	 OFFSET ??_C@_1IO@CAJLEEOI@?$AAC?$AA?3?$AA?2?$AAA?$AAn?$AAk?$AAa?$AA2?$AAP?$AAr?$AAo?$AAj?$AAe?$AAc?$AAt@
  00011	68 00 00 00 00	 push	 OFFSET ??_C@_1BK@FMEHPMFE@?$AAm?$AAs?$AA_?$AAs?$AAi?$AAn?$AAg?$AAl?$AAe?$AAt?$AAo?$AAn@
  00016	e8 00 00 00 00	 call	 __wassert
  0001b	8b 0d 00 00 00
	00		 mov	 ecx, DWORD PTR ?ms_singleton@?$CSingleton@VCItemManager@@@@0PAVCItemManager@@A ; CSingleton<CItemManager>::ms_singleton
  00021	83 c4 0c	 add	 esp, 12			; 0000000cH
$LN7@itemGetIco:
; File C:\Anka2Project\Anka2Project\Source\Binary\source\UserInterface\PythonItemModule.cpp

; 100  : 	CItemData * pItemData = CItemManager::Instance().GetSelectedItemDataPointer();

  00024	e8 00 00 00 00	 call	 ?GetSelectedItemDataPointer@CItemManager@@QAEPAVCItemData@@XZ ; CItemManager::GetSelectedItemDataPointer

; 101  : 	if (!pItemData)

  00029	85 c0		 test	 eax, eax
  0002b	75 0e		 jne	 SHORT $LN2@itemGetIco

; 102  : 		return Py_BuildException("no selected item data");

  0002d	68 00 00 00 00	 push	 OFFSET ??_C@_0BG@LNOAJHHG@no?5selected?5item?5data@
  00032	e8 00 00 00 00	 call	 ?Py_BuildException@@YAPAU_object@@PBDZZ ; Py_BuildException
  00037	83 c4 04	 add	 esp, 4

; 109  : }

  0003a	c3		 ret	 0
$LN2@itemGetIco:

; 103  : 
; 104  : 	CGraphicSubImage * pImage = pItemData->GetIconImage();

  0003b	8b c8		 mov	 ecx, eax
  0003d	e8 00 00 00 00	 call	 ?GetIconImage@CItemData@@QAEPAVCGraphicSubImage@@XZ ; CItemData::GetIconImage

; 105  : 	if (!pImage)

  00042	85 c0		 test	 eax, eax
  00044	75 14		 jne	 SHORT $LN3@itemGetIco

; 106  : 		return Py_BuildValue("s", "Noname");

  00046	68 00 00 00 00	 push	 OFFSET ??_C@_06HCBIANPB@Noname@

; 109  : }

  0004b	68 00 00 00 00	 push	 OFFSET ??_C@_01LKDEMHDF@s@
  00050	ff 15 00 00 00
	00		 call	 DWORD PTR __imp__Py_BuildValue
  00056	83 c4 08	 add	 esp, 8
  00059	c3		 ret	 0
$LN3@itemGetIco:
; File C:\Program Files\Microsoft Visual Studio\2022\Community\VC\Tools\MSVC\14.44.35207\include\xstring

; 2356 :         return _Mypair._Myval2._Myptr();

  0005a	83 c0 0c	 add	 eax, 12			; 0000000cH

; 453  :         return _Myres > _Small_string_capacity;

  0005d	83 78 14 0f	 cmp	 DWORD PTR [eax+20], 15	; 0000000fH

; 445  :         if (_Large_mode_engaged()) {

  00061	76 02		 jbe	 SHORT $LN14@itemGetIco

; 446  :             _Result = _Unfancy(_Bx._Ptr);

  00063	8b 00		 mov	 eax, DWORD PTR [eax]
$LN14@itemGetIco:
; File C:\Anka2Project\Anka2Project\Source\Binary\source\UserInterface\PythonItemModule.cpp

; 108  : 	return Py_BuildValue("s", pImage->GetFileName());

  00065	50		 push	 eax

; 109  : }

  00066	68 00 00 00 00	 push	 OFFSET ??_C@_01LKDEMHDF@s@
  0006b	ff 15 00 00 00
	00		 call	 DWORD PTR __imp__Py_BuildValue
  00071	83 c4 08	 add	 esp, 8
  00074	c3		 ret	 0
?itemGetIconImageFileName@@YAPAU_object@@PAU1@0@Z ENDP	; itemGetIconImageFileName
_TEXT	ENDS
; Function compile flags: /Ogtp
; File C:\Anka2Project\Anka2Project\Source\Binary\source\UserInterface\PythonItemModule.cpp
; File C:\Anka2Project\Anka2Project\Source\Binary\source\eterBase\Singleton.h
; File C:\Anka2Project\Anka2Project\Source\Binary\source\UserInterface\PythonItemModule.cpp
;	COMDAT ?itemGetItemSize@@YAPAU_object@@PAU1@0@Z
_TEXT	SEGMENT
_poSelf$ = 8						; size = 4
_poArgs$ = 12						; size = 4
?itemGetItemSize@@YAPAU_object@@PAU1@0@Z PROC		; itemGetItemSize, COMDAT
; File C:\Anka2Project\Anka2Project\Source\Binary\source\eterBase\Singleton.h

; 26   : 		assert(ms_singleton);

  00000	8b 0d 00 00 00
	00		 mov	 ecx, DWORD PTR ?ms_singleton@?$CSingleton@VCItemManager@@@@0PAVCItemManager@@A ; CSingleton<CItemManager>::ms_singleton
  00006	85 c9		 test	 ecx, ecx
  00008	75 1a		 jne	 SHORT $LN6@itemGetIte
  0000a	6a 1a		 push	 26			; 0000001aH
  0000c	68 00 00 00 00	 push	 OFFSET ??_C@_1IO@CAJLEEOI@?$AAC?$AA?3?$AA?2?$AAA?$AAn?$AAk?$AAa?$AA2?$AAP?$AAr?$AAo?$AAj?$AAe?$AAc?$AAt@
  00011	68 00 00 00 00	 push	 OFFSET ??_C@_1BK@FMEHPMFE@?$AAm?$AAs?$AA_?$AAs?$AAi?$AAn?$AAg?$AAl?$AAe?$AAt?$AAo?$AAn@
  00016	e8 00 00 00 00	 call	 __wassert
  0001b	8b 0d 00 00 00
	00		 mov	 ecx, DWORD PTR ?ms_singleton@?$CSingleton@VCItemManager@@@@0PAVCItemManager@@A ; CSingleton<CItemManager>::ms_singleton
  00021	83 c4 0c	 add	 esp, 12			; 0000000cH
$LN6@itemGetIte:
; File C:\Anka2Project\Anka2Project\Source\Binary\source\UserInterface\PythonItemModule.cpp

; 113  : 	CItemData * pItemData = CItemManager::Instance().GetSelectedItemDataPointer();

  00024	e8 00 00 00 00	 call	 ?GetSelectedItemDataPointer@CItemManager@@QAEPAVCItemData@@XZ ; CItemManager::GetSelectedItemDataPointer

; 114  : 	if (!pItemData)

  00029	85 c0		 test	 eax, eax
  0002b	75 0e		 jne	 SHORT $LN2@itemGetIte

; 115  : 		return Py_BuildException("no selected item data");

  0002d	68 00 00 00 00	 push	 OFFSET ??_C@_0BG@LNOAJHHG@no?5selected?5item?5data@
  00032	e8 00 00 00 00	 call	 ?Py_BuildException@@YAPAU_object@@PBDZZ ; Py_BuildException
  00037	83 c4 04	 add	 esp, 4

; 118  : }

  0003a	c3		 ret	 0
$LN2@itemGetIte:

; 116  : 
; 117  : 	return Py_BuildValue("(ii)", 1, pItemData->GetSize());

  0003b	8b c8		 mov	 ecx, eax
  0003d	e8 00 00 00 00	 call	 ?GetSize@CItemData@@QBEEXZ ; CItemData::GetSize
  00042	0f b6 c0	 movzx	 eax, al
  00045	50		 push	 eax
  00046	6a 01		 push	 1
  00048	68 00 00 00 00	 push	 OFFSET ??_C@_04INACLLOK@?$CIii?$CJ@
  0004d	ff 15 00 00 00
	00		 call	 DWORD PTR __imp__Py_BuildValue
  00053	83 c4 0c	 add	 esp, 12			; 0000000cH

; 118  : }

  00056	c3		 ret	 0
?itemGetItemSize@@YAPAU_object@@PAU1@0@Z ENDP		; itemGetItemSize
_TEXT	ENDS
; Function compile flags: /Ogtp
; File C:\Anka2Project\Anka2Project\Source\Binary\source\UserInterface\PythonItemModule.cpp
; File C:\Anka2Project\Anka2Project\Source\Binary\source\eterBase\Singleton.h
; File C:\Anka2Project\Anka2Project\Source\Binary\source\UserInterface\PythonItemModule.cpp
;	COMDAT ?itemGetItemType@@YAPAU_object@@PAU1@0@Z
_TEXT	SEGMENT
_poSelf$ = 8						; size = 4
_poArgs$ = 12						; size = 4
?itemGetItemType@@YAPAU_object@@PAU1@0@Z PROC		; itemGetItemType, COMDAT
; File C:\Anka2Project\Anka2Project\Source\Binary\source\eterBase\Singleton.h

; 26   : 		assert(ms_singleton);

  00000	8b 0d 00 00 00
	00		 mov	 ecx, DWORD PTR ?ms_singleton@?$CSingleton@VCItemManager@@@@0PAVCItemManager@@A ; CSingleton<CItemManager>::ms_singleton
  00006	85 c9		 test	 ecx, ecx
  00008	75 1a		 jne	 SHORT $LN6@itemGetIte
  0000a	6a 1a		 push	 26			; 0000001aH
  0000c	68 00 00 00 00	 push	 OFFSET ??_C@_1IO@CAJLEEOI@?$AAC?$AA?3?$AA?2?$AAA?$AAn?$AAk?$AAa?$AA2?$AAP?$AAr?$AAo?$AAj?$AAe?$AAc?$AAt@
  00011	68 00 00 00 00	 push	 OFFSET ??_C@_1BK@FMEHPMFE@?$AAm?$AAs?$AA_?$AAs?$AAi?$AAn?$AAg?$AAl?$AAe?$AAt?$AAo?$AAn@
  00016	e8 00 00 00 00	 call	 __wassert
  0001b	8b 0d 00 00 00
	00		 mov	 ecx, DWORD PTR ?ms_singleton@?$CSingleton@VCItemManager@@@@0PAVCItemManager@@A ; CSingleton<CItemManager>::ms_singleton
  00021	83 c4 0c	 add	 esp, 12			; 0000000cH
$LN6@itemGetIte:
; File C:\Anka2Project\Anka2Project\Source\Binary\source\UserInterface\PythonItemModule.cpp

; 122  : 	CItemData * pItemData = CItemManager::Instance().GetSelectedItemDataPointer();

  00024	e8 00 00 00 00	 call	 ?GetSelectedItemDataPointer@CItemManager@@QAEPAVCItemData@@XZ ; CItemManager::GetSelectedItemDataPointer

; 123  : 	if (!pItemData)

  00029	85 c0		 test	 eax, eax
  0002b	75 0e		 jne	 SHORT $LN2@itemGetIte

; 124  : 		return Py_BuildException("no selected item data");

  0002d	68 00 00 00 00	 push	 OFFSET ??_C@_0BG@LNOAJHHG@no?5selected?5item?5data@
  00032	e8 00 00 00 00	 call	 ?Py_BuildException@@YAPAU_object@@PBDZZ ; Py_BuildException
  00037	83 c4 04	 add	 esp, 4

; 127  : }

  0003a	c3		 ret	 0
$LN2@itemGetIte:

; 125  : 
; 126  : 	return Py_BuildValue("i", pItemData->GetType());

  0003b	8b c8		 mov	 ecx, eax
  0003d	e8 00 00 00 00	 call	 ?GetType@CItemData@@QBEEXZ ; CItemData::GetType
  00042	0f b6 c0	 movzx	 eax, al
  00045	50		 push	 eax
  00046	68 00 00 00 00	 push	 OFFSET ??_C@_01KBJDNOO@i@
  0004b	ff 15 00 00 00
	00		 call	 DWORD PTR __imp__Py_BuildValue
  00051	83 c4 08	 add	 esp, 8

; 127  : }

  00054	c3		 ret	 0
?itemGetItemType@@YAPAU_object@@PAU1@0@Z ENDP		; itemGetItemType
_TEXT	ENDS
; Function compile flags: /Ogtp
; File C:\Anka2Project\Anka2Project\Source\Binary\source\UserInterface\PythonItemModule.cpp
; File C:\Anka2Project\Anka2Project\Source\Binary\source\eterBase\Singleton.h
; File C:\Anka2Project\Anka2Project\Source\Binary\source\UserInterface\PythonItemModule.cpp
;	COMDAT ?itemGetItemSubType@@YAPAU_object@@PAU1@0@Z
_TEXT	SEGMENT
_poSelf$ = 8						; size = 4
_poArgs$ = 12						; size = 4
?itemGetItemSubType@@YAPAU_object@@PAU1@0@Z PROC	; itemGetItemSubType, COMDAT
; File C:\Anka2Project\Anka2Project\Source\Binary\source\eterBase\Singleton.h

; 26   : 		assert(ms_singleton);

  00000	8b 0d 00 00 00
	00		 mov	 ecx, DWORD PTR ?ms_singleton@?$CSingleton@VCItemManager@@@@0PAVCItemManager@@A ; CSingleton<CItemManager>::ms_singleton
  00006	85 c9		 test	 ecx, ecx
  00008	75 1a		 jne	 SHORT $LN6@itemGetIte
  0000a	6a 1a		 push	 26			; 0000001aH
  0000c	68 00 00 00 00	 push	 OFFSET ??_C@_1IO@CAJLEEOI@?$AAC?$AA?3?$AA?2?$AAA?$AAn?$AAk?$AAa?$AA2?$AAP?$AAr?$AAo?$AAj?$AAe?$AAc?$AAt@
  00011	68 00 00 00 00	 push	 OFFSET ??_C@_1BK@FMEHPMFE@?$AAm?$AAs?$AA_?$AAs?$AAi?$AAn?$AAg?$AAl?$AAe?$AAt?$AAo?$AAn@
  00016	e8 00 00 00 00	 call	 __wassert
  0001b	8b 0d 00 00 00
	00		 mov	 ecx, DWORD PTR ?ms_singleton@?$CSingleton@VCItemManager@@@@0PAVCItemManager@@A ; CSingleton<CItemManager>::ms_singleton
  00021	83 c4 0c	 add	 esp, 12			; 0000000cH
$LN6@itemGetIte:
; File C:\Anka2Project\Anka2Project\Source\Binary\source\UserInterface\PythonItemModule.cpp

; 131  : 	CItemData * pItemData = CItemManager::Instance().GetSelectedItemDataPointer();

  00024	e8 00 00 00 00	 call	 ?GetSelectedItemDataPointer@CItemManager@@QAEPAVCItemData@@XZ ; CItemManager::GetSelectedItemDataPointer

; 132  : 	if (!pItemData)

  00029	85 c0		 test	 eax, eax
  0002b	75 0e		 jne	 SHORT $LN2@itemGetIte

; 133  : 		return Py_BuildException("no selected item data");

  0002d	68 00 00 00 00	 push	 OFFSET ??_C@_0BG@LNOAJHHG@no?5selected?5item?5data@
  00032	e8 00 00 00 00	 call	 ?Py_BuildException@@YAPAU_object@@PBDZZ ; Py_BuildException
  00037	83 c4 04	 add	 esp, 4

; 136  : }

  0003a	c3		 ret	 0
$LN2@itemGetIte:

; 134  : 
; 135  : 	return Py_BuildValue("i", pItemData->GetSubType());

  0003b	8b c8		 mov	 ecx, eax
  0003d	e8 00 00 00 00	 call	 ?GetSubType@CItemData@@QBEEXZ ; CItemData::GetSubType
  00042	0f b6 c0	 movzx	 eax, al
  00045	50		 push	 eax
  00046	68 00 00 00 00	 push	 OFFSET ??_C@_01KBJDNOO@i@
  0004b	ff 15 00 00 00
	00		 call	 DWORD PTR __imp__Py_BuildValue
  00051	83 c4 08	 add	 esp, 8

; 136  : }

  00054	c3		 ret	 0
?itemGetItemSubType@@YAPAU_object@@PAU1@0@Z ENDP	; itemGetItemSubType
_TEXT	ENDS
; Function compile flags: /Ogtp
; File C:\Anka2Project\Anka2Project\Source\Binary\source\UserInterface\PythonItemModule.cpp
; File C:\Anka2Project\Anka2Project\Source\Binary\source\eterBase\Singleton.h
; File C:\Anka2Project\Anka2Project\Source\Binary\source\UserInterface\PythonItemModule.cpp
;	COMDAT ?itemGetIBuyItemPrice@@YAPAU_object@@PAU1@0@Z
_TEXT	SEGMENT
_poSelf$ = 8						; size = 4
_poArgs$ = 12						; size = 4
?itemGetIBuyItemPrice@@YAPAU_object@@PAU1@0@Z PROC	; itemGetIBuyItemPrice, COMDAT
; File C:\Anka2Project\Anka2Project\Source\Binary\source\eterBase\Singleton.h

; 26   : 		assert(ms_singleton);

  00000	8b 0d 00 00 00
	00		 mov	 ecx, DWORD PTR ?ms_singleton@?$CSingleton@VCItemManager@@@@0PAVCItemManager@@A ; CSingleton<CItemManager>::ms_singleton
  00006	85 c9		 test	 ecx, ecx
  00008	75 1a		 jne	 SHORT $LN6@itemGetIBu
  0000a	6a 1a		 push	 26			; 0000001aH
  0000c	68 00 00 00 00	 push	 OFFSET ??_C@_1IO@CAJLEEOI@?$AAC?$AA?3?$AA?2?$AAA?$AAn?$AAk?$AAa?$AA2?$AAP?$AAr?$AAo?$AAj?$AAe?$AAc?$AAt@
  00011	68 00 00 00 00	 push	 OFFSET ??_C@_1BK@FMEHPMFE@?$AAm?$AAs?$AA_?$AAs?$AAi?$AAn?$AAg?$AAl?$AAe?$AAt?$AAo?$AAn@
  00016	e8 00 00 00 00	 call	 __wassert
  0001b	8b 0d 00 00 00
	00		 mov	 ecx, DWORD PTR ?ms_singleton@?$CSingleton@VCItemManager@@@@0PAVCItemManager@@A ; CSingleton<CItemManager>::ms_singleton
  00021	83 c4 0c	 add	 esp, 12			; 0000000cH
$LN6@itemGetIBu:
; File C:\Anka2Project\Anka2Project\Source\Binary\source\UserInterface\PythonItemModule.cpp

; 140  : 	CItemData * pItemData = CItemManager::Instance().GetSelectedItemDataPointer();

  00024	e8 00 00 00 00	 call	 ?GetSelectedItemDataPointer@CItemManager@@QAEPAVCItemData@@XZ ; CItemManager::GetSelectedItemDataPointer

; 141  : 
; 142  : 	if (!pItemData)

  00029	85 c0		 test	 eax, eax
  0002b	75 0e		 jne	 SHORT $LN2@itemGetIBu

; 143  : 		return Py_BuildException("no selected item data");

  0002d	68 00 00 00 00	 push	 OFFSET ??_C@_0BG@LNOAJHHG@no?5selected?5item?5data@
  00032	e8 00 00 00 00	 call	 ?Py_BuildException@@YAPAU_object@@PBDZZ ; Py_BuildException
  00037	83 c4 04	 add	 esp, 4

; 147  : #else
; 148  : 	return Py_BuildValue("i", pItemData->GetIBuyItemPrice());
; 149  : #endif
; 150  : }

  0003a	c3		 ret	 0
$LN2@itemGetIBu:

; 144  : 
; 145  : #ifdef ENABLE_GOLD_LIMIT
; 146  : 	return PyLong_FromLongLong(pItemData->GetIBuyItemPrice());

  0003b	8b c8		 mov	 ecx, eax
  0003d	e8 00 00 00 00	 call	 ?GetIBuyItemPrice@CItemData@@QBEKXZ ; CItemData::GetIBuyItemPrice
  00042	6a 00		 push	 0
  00044	50		 push	 eax
  00045	ff 15 00 00 00
	00		 call	 DWORD PTR __imp__PyLong_FromLongLong
  0004b	83 c4 08	 add	 esp, 8

; 147  : #else
; 148  : 	return Py_BuildValue("i", pItemData->GetIBuyItemPrice());
; 149  : #endif
; 150  : }

  0004e	c3		 ret	 0
?itemGetIBuyItemPrice@@YAPAU_object@@PAU1@0@Z ENDP	; itemGetIBuyItemPrice
_TEXT	ENDS
; Function compile flags: /Ogtp
; File C:\Anka2Project\Anka2Project\Source\Binary\source\UserInterface\PythonItemModule.cpp
; File C:\Anka2Project\Anka2Project\Source\Binary\source\eterBase\Singleton.h
; File C:\Anka2Project\Anka2Project\Source\Binary\source\UserInterface\PythonItemModule.cpp
;	COMDAT ?itemGetISellItemPrice@@YAPAU_object@@PAU1@0@Z
_TEXT	SEGMENT
_poSelf$ = 8						; size = 4
_poArgs$ = 12						; size = 4
?itemGetISellItemPrice@@YAPAU_object@@PAU1@0@Z PROC	; itemGetISellItemPrice, COMDAT
; File C:\Anka2Project\Anka2Project\Source\Binary\source\eterBase\Singleton.h

; 26   : 		assert(ms_singleton);

  00000	8b 0d 00 00 00
	00		 mov	 ecx, DWORD PTR ?ms_singleton@?$CSingleton@VCItemManager@@@@0PAVCItemManager@@A ; CSingleton<CItemManager>::ms_singleton
  00006	85 c9		 test	 ecx, ecx
  00008	75 1a		 jne	 SHORT $LN6@itemGetISe
  0000a	6a 1a		 push	 26			; 0000001aH
  0000c	68 00 00 00 00	 push	 OFFSET ??_C@_1IO@CAJLEEOI@?$AAC?$AA?3?$AA?2?$AAA?$AAn?$AAk?$AAa?$AA2?$AAP?$AAr?$AAo?$AAj?$AAe?$AAc?$AAt@
  00011	68 00 00 00 00	 push	 OFFSET ??_C@_1BK@FMEHPMFE@?$AAm?$AAs?$AA_?$AAs?$AAi?$AAn?$AAg?$AAl?$AAe?$AAt?$AAo?$AAn@
  00016	e8 00 00 00 00	 call	 __wassert
  0001b	8b 0d 00 00 00
	00		 mov	 ecx, DWORD PTR ?ms_singleton@?$CSingleton@VCItemManager@@@@0PAVCItemManager@@A ; CSingleton<CItemManager>::ms_singleton
  00021	83 c4 0c	 add	 esp, 12			; 0000000cH
$LN6@itemGetISe:
; File C:\Anka2Project\Anka2Project\Source\Binary\source\UserInterface\PythonItemModule.cpp

; 154  : 	CItemData * pItemData = CItemManager::Instance().GetSelectedItemDataPointer();

  00024	e8 00 00 00 00	 call	 ?GetSelectedItemDataPointer@CItemManager@@QAEPAVCItemData@@XZ ; CItemManager::GetSelectedItemDataPointer

; 155  : 
; 156  : 	if (!pItemData)

  00029	85 c0		 test	 eax, eax
  0002b	75 0e		 jne	 SHORT $LN2@itemGetISe

; 157  : 		return Py_BuildException("no selected item data");

  0002d	68 00 00 00 00	 push	 OFFSET ??_C@_0BG@LNOAJHHG@no?5selected?5item?5data@
  00032	e8 00 00 00 00	 call	 ?Py_BuildException@@YAPAU_object@@PBDZZ ; Py_BuildException
  00037	83 c4 04	 add	 esp, 4

; 161  : #else
; 162  : 	return Py_BuildValue("i", pItemData->GetISellItemPrice());
; 163  : #endif
; 164  : }

  0003a	c3		 ret	 0
$LN2@itemGetISe:

; 158  : 
; 159  : #ifdef ENABLE_GOLD_LIMIT
; 160  : 	return PyLong_FromLongLong(pItemData->GetISellItemPrice());

  0003b	8b c8		 mov	 ecx, eax
  0003d	e8 00 00 00 00	 call	 ?GetISellItemPrice@CItemData@@QBEKXZ ; CItemData::GetISellItemPrice
  00042	6a 00		 push	 0
  00044	50		 push	 eax
  00045	ff 15 00 00 00
	00		 call	 DWORD PTR __imp__PyLong_FromLongLong
  0004b	83 c4 08	 add	 esp, 8

; 161  : #else
; 162  : 	return Py_BuildValue("i", pItemData->GetISellItemPrice());
; 163  : #endif
; 164  : }

  0004e	c3		 ret	 0
?itemGetISellItemPrice@@YAPAU_object@@PAU1@0@Z ENDP	; itemGetISellItemPrice
_TEXT	ENDS
; Function compile flags: /Ogtp
; File C:\Anka2Project\Anka2Project\Source\Binary\source\UserInterface\PythonItemModule.cpp
; File C:\Anka2Project\Anka2Project\Source\Binary\source\eterBase\Singleton.h
; File C:\Anka2Project\Anka2Project\Source\Binary\source\UserInterface\PythonItemModule.cpp
;	COMDAT ?itemIsAntiFlag@@YAPAU_object@@PAU1@0@Z
_TEXT	SEGMENT
_iFlag$ = -4						; size = 4
_poSelf$ = 8						; size = 4
_poArgs$ = 12						; size = 4
?itemIsAntiFlag@@YAPAU_object@@PAU1@0@Z PROC		; itemIsAntiFlag, COMDAT

; 168  : {

  00000	55		 push	 ebp
  00001	8b ec		 mov	 ebp, esp
  00003	51		 push	 ecx

; 169  : 	int iFlag;
; 170  : 	if (!PyTuple_GetInteger(poArgs, 0, &iFlag))

  00004	8d 45 fc	 lea	 eax, DWORD PTR _iFlag$[ebp]
  00007	50		 push	 eax
  00008	6a 00		 push	 0
  0000a	ff 75 0c	 push	 DWORD PTR _poArgs$[ebp]
  0000d	e8 00 00 00 00	 call	 ?PyTuple_GetInteger@@YA_NPAU_object@@HPAH@Z ; PyTuple_GetInteger
  00012	83 c4 0c	 add	 esp, 12			; 0000000cH
  00015	84 c0		 test	 al, al
  00017	75 09		 jne	 SHORT $LN2@itemIsAnti

; 171  : 		return Py_BadArgument();

  00019	e8 00 00 00 00	 call	 ?Py_BadArgument@@YAPAU_object@@XZ ; Py_BadArgument

; 178  : }

  0001e	8b e5		 mov	 esp, ebp
  00020	5d		 pop	 ebp
  00021	c3		 ret	 0
$LN2@itemIsAnti:
; File C:\Anka2Project\Anka2Project\Source\Binary\source\eterBase\Singleton.h

; 26   : 		assert(ms_singleton);

  00022	8b 0d 00 00 00
	00		 mov	 ecx, DWORD PTR ?ms_singleton@?$CSingleton@VCItemManager@@@@0PAVCItemManager@@A ; CSingleton<CItemManager>::ms_singleton
  00028	85 c9		 test	 ecx, ecx
  0002a	75 1a		 jne	 SHORT $LN7@itemIsAnti
  0002c	6a 1a		 push	 26			; 0000001aH
  0002e	68 00 00 00 00	 push	 OFFSET ??_C@_1IO@CAJLEEOI@?$AAC?$AA?3?$AA?2?$AAA?$AAn?$AAk?$AAa?$AA2?$AAP?$AAr?$AAo?$AAj?$AAe?$AAc?$AAt@
  00033	68 00 00 00 00	 push	 OFFSET ??_C@_1BK@FMEHPMFE@?$AAm?$AAs?$AA_?$AAs?$AAi?$AAn?$AAg?$AAl?$AAe?$AAt?$AAo?$AAn@
  00038	e8 00 00 00 00	 call	 __wassert
  0003d	8b 0d 00 00 00
	00		 mov	 ecx, DWORD PTR ?ms_singleton@?$CSingleton@VCItemManager@@@@0PAVCItemManager@@A ; CSingleton<CItemManager>::ms_singleton
  00043	83 c4 0c	 add	 esp, 12			; 0000000cH
$LN7@itemIsAnti:
; File C:\Anka2Project\Anka2Project\Source\Binary\source\UserInterface\PythonItemModule.cpp

; 173  : 	CItemData * pItemData = CItemManager::Instance().GetSelectedItemDataPointer();

  00046	e8 00 00 00 00	 call	 ?GetSelectedItemDataPointer@CItemManager@@QAEPAVCItemData@@XZ ; CItemManager::GetSelectedItemDataPointer

; 174  : 	if (!pItemData)

  0004b	85 c0		 test	 eax, eax
  0004d	75 11		 jne	 SHORT $LN3@itemIsAnti

; 175  : 		return Py_BuildException("no selected item data");

  0004f	68 00 00 00 00	 push	 OFFSET ??_C@_0BG@LNOAJHHG@no?5selected?5item?5data@
  00054	e8 00 00 00 00	 call	 ?Py_BuildException@@YAPAU_object@@PBDZZ ; Py_BuildException
  00059	83 c4 04	 add	 esp, 4

; 178  : }

  0005c	8b e5		 mov	 esp, ebp
  0005e	5d		 pop	 ebp
  0005f	c3		 ret	 0
$LN3@itemIsAnti:

; 176  : 
; 177  : 	return Py_BuildValue("i", pItemData->IsAntiFlag(iFlag));

  00060	ff 75 fc	 push	 DWORD PTR _iFlag$[ebp]
  00063	8b c8		 mov	 ecx, eax
  00065	e8 00 00 00 00	 call	 ?IsAntiFlag@CItemData@@QBEHK@Z ; CItemData::IsAntiFlag
  0006a	50		 push	 eax
  0006b	68 00 00 00 00	 push	 OFFSET ??_C@_01KBJDNOO@i@
  00070	ff 15 00 00 00
	00		 call	 DWORD PTR __imp__Py_BuildValue
  00076	83 c4 08	 add	 esp, 8

; 178  : }

  00079	8b e5		 mov	 esp, ebp
  0007b	5d		 pop	 ebp
  0007c	c3		 ret	 0
?itemIsAntiFlag@@YAPAU_object@@PAU1@0@Z ENDP		; itemIsAntiFlag
_TEXT	ENDS
; Function compile flags: /Ogtp
; File C:\Anka2Project\Anka2Project\Source\Binary\source\UserInterface\PythonItemModule.cpp
; File C:\Anka2Project\Anka2Project\Source\Binary\source\eterBase\Singleton.h
; File C:\Anka2Project\Anka2Project\Source\Binary\source\UserInterface\PythonItemModule.cpp
;	COMDAT ?itemIsFlag@@YAPAU_object@@PAU1@0@Z
_TEXT	SEGMENT
_iFlag$ = -4						; size = 4
_poSelf$ = 8						; size = 4
_poArgs$ = 12						; size = 4
?itemIsFlag@@YAPAU_object@@PAU1@0@Z PROC		; itemIsFlag, COMDAT

; 181  : {

  00000	55		 push	 ebp
  00001	8b ec		 mov	 ebp, esp
  00003	51		 push	 ecx

; 182  : 	int iFlag;
; 183  : 	if (!PyTuple_GetInteger(poArgs, 0, &iFlag))

  00004	8d 45 fc	 lea	 eax, DWORD PTR _iFlag$[ebp]
  00007	50		 push	 eax
  00008	6a 00		 push	 0
  0000a	ff 75 0c	 push	 DWORD PTR _poArgs$[ebp]
  0000d	e8 00 00 00 00	 call	 ?PyTuple_GetInteger@@YA_NPAU_object@@HPAH@Z ; PyTuple_GetInteger
  00012	83 c4 0c	 add	 esp, 12			; 0000000cH
  00015	84 c0		 test	 al, al
  00017	75 09		 jne	 SHORT $LN2@itemIsFlag

; 184  : 		return Py_BadArgument();

  00019	e8 00 00 00 00	 call	 ?Py_BadArgument@@YAPAU_object@@XZ ; Py_BadArgument

; 191  : }

  0001e	8b e5		 mov	 esp, ebp
  00020	5d		 pop	 ebp
  00021	c3		 ret	 0
$LN2@itemIsFlag:
; File C:\Anka2Project\Anka2Project\Source\Binary\source\eterBase\Singleton.h

; 26   : 		assert(ms_singleton);

  00022	8b 0d 00 00 00
	00		 mov	 ecx, DWORD PTR ?ms_singleton@?$CSingleton@VCItemManager@@@@0PAVCItemManager@@A ; CSingleton<CItemManager>::ms_singleton
  00028	85 c9		 test	 ecx, ecx
  0002a	75 1a		 jne	 SHORT $LN7@itemIsFlag
  0002c	6a 1a		 push	 26			; 0000001aH
  0002e	68 00 00 00 00	 push	 OFFSET ??_C@_1IO@CAJLEEOI@?$AAC?$AA?3?$AA?2?$AAA?$AAn?$AAk?$AAa?$AA2?$AAP?$AAr?$AAo?$AAj?$AAe?$AAc?$AAt@
  00033	68 00 00 00 00	 push	 OFFSET ??_C@_1BK@FMEHPMFE@?$AAm?$AAs?$AA_?$AAs?$AAi?$AAn?$AAg?$AAl?$AAe?$AAt?$AAo?$AAn@
  00038	e8 00 00 00 00	 call	 __wassert
  0003d	8b 0d 00 00 00
	00		 mov	 ecx, DWORD PTR ?ms_singleton@?$CSingleton@VCItemManager@@@@0PAVCItemManager@@A ; CSingleton<CItemManager>::ms_singleton
  00043	83 c4 0c	 add	 esp, 12			; 0000000cH
$LN7@itemIsFlag:
; File C:\Anka2Project\Anka2Project\Source\Binary\source\UserInterface\PythonItemModule.cpp

; 186  : 	CItemData * pItemData = CItemManager::Instance().GetSelectedItemDataPointer();

  00046	e8 00 00 00 00	 call	 ?GetSelectedItemDataPointer@CItemManager@@QAEPAVCItemData@@XZ ; CItemManager::GetSelectedItemDataPointer

; 187  : 	if (!pItemData)

  0004b	85 c0		 test	 eax, eax
  0004d	75 11		 jne	 SHORT $LN3@itemIsFlag

; 188  : 		return Py_BuildException("no selected item data");

  0004f	68 00 00 00 00	 push	 OFFSET ??_C@_0BG@LNOAJHHG@no?5selected?5item?5data@
  00054	e8 00 00 00 00	 call	 ?Py_BuildException@@YAPAU_object@@PBDZZ ; Py_BuildException
  00059	83 c4 04	 add	 esp, 4

; 191  : }

  0005c	8b e5		 mov	 esp, ebp
  0005e	5d		 pop	 ebp
  0005f	c3		 ret	 0
$LN3@itemIsFlag:

; 189  : 
; 190  : 	return Py_BuildValue("i", pItemData->IsFlag(iFlag));

  00060	ff 75 fc	 push	 DWORD PTR _iFlag$[ebp]
  00063	8b c8		 mov	 ecx, eax
  00065	e8 00 00 00 00	 call	 ?IsFlag@CItemData@@QBEHK@Z ; CItemData::IsFlag
  0006a	50		 push	 eax
  0006b	68 00 00 00 00	 push	 OFFSET ??_C@_01KBJDNOO@i@
  00070	ff 15 00 00 00
	00		 call	 DWORD PTR __imp__Py_BuildValue
  00076	83 c4 08	 add	 esp, 8

; 191  : }

  00079	8b e5		 mov	 esp, ebp
  0007b	5d		 pop	 ebp
  0007c	c3		 ret	 0
?itemIsFlag@@YAPAU_object@@PAU1@0@Z ENDP		; itemIsFlag
_TEXT	ENDS
; Function compile flags: /Ogtp
; File C:\Anka2Project\Anka2Project\Source\Binary\source\UserInterface\PythonItemModule.cpp
; File C:\Anka2Project\Anka2Project\Source\Binary\source\eterBase\Singleton.h
; File C:\Anka2Project\Anka2Project\Source\Binary\source\UserInterface\PythonItemModule.cpp
;	COMDAT ?itemIsWearableFlag@@YAPAU_object@@PAU1@0@Z
_TEXT	SEGMENT
_iFlag$ = -4						; size = 4
_poSelf$ = 8						; size = 4
_poArgs$ = 12						; size = 4
?itemIsWearableFlag@@YAPAU_object@@PAU1@0@Z PROC	; itemIsWearableFlag, COMDAT

; 194  : {

  00000	55		 push	 ebp
  00001	8b ec		 mov	 ebp, esp
  00003	51		 push	 ecx

; 195  : 	int iFlag;
; 196  : 	if (!PyTuple_GetInteger(poArgs, 0, &iFlag))

  00004	8d 45 fc	 lea	 eax, DWORD PTR _iFlag$[ebp]
  00007	50		 push	 eax
  00008	6a 00		 push	 0
  0000a	ff 75 0c	 push	 DWORD PTR _poArgs$[ebp]
  0000d	e8 00 00 00 00	 call	 ?PyTuple_GetInteger@@YA_NPAU_object@@HPAH@Z ; PyTuple_GetInteger
  00012	83 c4 0c	 add	 esp, 12			; 0000000cH
  00015	84 c0		 test	 al, al
  00017	75 09		 jne	 SHORT $LN2@itemIsWear

; 197  : 		return Py_BadArgument();

  00019	e8 00 00 00 00	 call	 ?Py_BadArgument@@YAPAU_object@@XZ ; Py_BadArgument

; 204  : }

  0001e	8b e5		 mov	 esp, ebp
  00020	5d		 pop	 ebp
  00021	c3		 ret	 0
$LN2@itemIsWear:
; File C:\Anka2Project\Anka2Project\Source\Binary\source\eterBase\Singleton.h

; 26   : 		assert(ms_singleton);

  00022	8b 0d 00 00 00
	00		 mov	 ecx, DWORD PTR ?ms_singleton@?$CSingleton@VCItemManager@@@@0PAVCItemManager@@A ; CSingleton<CItemManager>::ms_singleton
  00028	85 c9		 test	 ecx, ecx
  0002a	75 1a		 jne	 SHORT $LN7@itemIsWear
  0002c	6a 1a		 push	 26			; 0000001aH
  0002e	68 00 00 00 00	 push	 OFFSET ??_C@_1IO@CAJLEEOI@?$AAC?$AA?3?$AA?2?$AAA?$AAn?$AAk?$AAa?$AA2?$AAP?$AAr?$AAo?$AAj?$AAe?$AAc?$AAt@
  00033	68 00 00 00 00	 push	 OFFSET ??_C@_1BK@FMEHPMFE@?$AAm?$AAs?$AA_?$AAs?$AAi?$AAn?$AAg?$AAl?$AAe?$AAt?$AAo?$AAn@
  00038	e8 00 00 00 00	 call	 __wassert
  0003d	8b 0d 00 00 00
	00		 mov	 ecx, DWORD PTR ?ms_singleton@?$CSingleton@VCItemManager@@@@0PAVCItemManager@@A ; CSingleton<CItemManager>::ms_singleton
  00043	83 c4 0c	 add	 esp, 12			; 0000000cH
$LN7@itemIsWear:
; File C:\Anka2Project\Anka2Project\Source\Binary\source\UserInterface\PythonItemModule.cpp

; 199  : 	CItemData * pItemData = CItemManager::Instance().GetSelectedItemDataPointer();

  00046	e8 00 00 00 00	 call	 ?GetSelectedItemDataPointer@CItemManager@@QAEPAVCItemData@@XZ ; CItemManager::GetSelectedItemDataPointer

; 200  : 	if (!pItemData)

  0004b	85 c0		 test	 eax, eax
  0004d	75 11		 jne	 SHORT $LN3@itemIsWear

; 201  : 		return Py_BuildException("no selected item data");

  0004f	68 00 00 00 00	 push	 OFFSET ??_C@_0BG@LNOAJHHG@no?5selected?5item?5data@
  00054	e8 00 00 00 00	 call	 ?Py_BuildException@@YAPAU_object@@PBDZZ ; Py_BuildException
  00059	83 c4 04	 add	 esp, 4

; 204  : }

  0005c	8b e5		 mov	 esp, ebp
  0005e	5d		 pop	 ebp
  0005f	c3		 ret	 0
$LN3@itemIsWear:

; 202  : 
; 203  : 	return Py_BuildValue("i", pItemData->IsWearableFlag(iFlag));

  00060	ff 75 fc	 push	 DWORD PTR _iFlag$[ebp]
  00063	8b c8		 mov	 ecx, eax
  00065	e8 00 00 00 00	 call	 ?IsWearableFlag@CItemData@@QBEHK@Z ; CItemData::IsWearableFlag
  0006a	50		 push	 eax
  0006b	68 00 00 00 00	 push	 OFFSET ??_C@_01KBJDNOO@i@
  00070	ff 15 00 00 00
	00		 call	 DWORD PTR __imp__Py_BuildValue
  00076	83 c4 08	 add	 esp, 8

; 204  : }

  00079	8b e5		 mov	 esp, ebp
  0007b	5d		 pop	 ebp
  0007c	c3		 ret	 0
?itemIsWearableFlag@@YAPAU_object@@PAU1@0@Z ENDP	; itemIsWearableFlag
_TEXT	ENDS
; Function compile flags: /Ogtp
; File C:\Anka2Project\Anka2Project\Source\Binary\source\UserInterface\PythonItemModule.cpp
; File C:\Anka2Project\Anka2Project\Source\Binary\source\eterBase\Singleton.h
; File C:\Anka2Project\Anka2Project\Source\Binary\source\UserInterface\PythonItemModule.cpp
;	COMDAT ?itemIs1GoldItem@@YAPAU_object@@PAU1@0@Z
_TEXT	SEGMENT
_poSelf$ = 8						; size = 4
_poArgs$ = 12						; size = 4
?itemIs1GoldItem@@YAPAU_object@@PAU1@0@Z PROC		; itemIs1GoldItem, COMDAT
; File C:\Anka2Project\Anka2Project\Source\Binary\source\eterBase\Singleton.h

; 26   : 		assert(ms_singleton);

  00000	8b 0d 00 00 00
	00		 mov	 ecx, DWORD PTR ?ms_singleton@?$CSingleton@VCItemManager@@@@0PAVCItemManager@@A ; CSingleton<CItemManager>::ms_singleton
  00006	85 c9		 test	 ecx, ecx
  00008	75 1a		 jne	 SHORT $LN6@itemIs1Gol
  0000a	6a 1a		 push	 26			; 0000001aH
  0000c	68 00 00 00 00	 push	 OFFSET ??_C@_1IO@CAJLEEOI@?$AAC?$AA?3?$AA?2?$AAA?$AAn?$AAk?$AAa?$AA2?$AAP?$AAr?$AAo?$AAj?$AAe?$AAc?$AAt@
  00011	68 00 00 00 00	 push	 OFFSET ??_C@_1BK@FMEHPMFE@?$AAm?$AAs?$AA_?$AAs?$AAi?$AAn?$AAg?$AAl?$AAe?$AAt?$AAo?$AAn@
  00016	e8 00 00 00 00	 call	 __wassert
  0001b	8b 0d 00 00 00
	00		 mov	 ecx, DWORD PTR ?ms_singleton@?$CSingleton@VCItemManager@@@@0PAVCItemManager@@A ; CSingleton<CItemManager>::ms_singleton
  00021	83 c4 0c	 add	 esp, 12			; 0000000cH
$LN6@itemIs1Gol:
; File C:\Anka2Project\Anka2Project\Source\Binary\source\UserInterface\PythonItemModule.cpp

; 208  : 	CItemData * pItemData = CItemManager::Instance().GetSelectedItemDataPointer();

  00024	e8 00 00 00 00	 call	 ?GetSelectedItemDataPointer@CItemManager@@QAEPAVCItemData@@XZ ; CItemManager::GetSelectedItemDataPointer

; 209  : 	if (!pItemData)

  00029	85 c0		 test	 eax, eax
  0002b	75 0e		 jne	 SHORT $LN2@itemIs1Gol

; 210  : 		return Py_BuildException("no selected item data");

  0002d	68 00 00 00 00	 push	 OFFSET ??_C@_0BG@LNOAJHHG@no?5selected?5item?5data@
  00032	e8 00 00 00 00	 call	 ?Py_BuildException@@YAPAU_object@@PBDZZ ; Py_BuildException
  00037	83 c4 04	 add	 esp, 4

; 213  : }

  0003a	c3		 ret	 0
$LN2@itemIs1Gol:

; 211  : 
; 212  : 	return Py_BuildValue("i", pItemData->IsFlag(CItemData::ITEM_FLAG_COUNT_PER_1GOLD));

  0003b	6a 08		 push	 8
  0003d	8b c8		 mov	 ecx, eax
  0003f	e8 00 00 00 00	 call	 ?IsFlag@CItemData@@QBEHK@Z ; CItemData::IsFlag
  00044	50		 push	 eax
  00045	68 00 00 00 00	 push	 OFFSET ??_C@_01KBJDNOO@i@
  0004a	ff 15 00 00 00
	00		 call	 DWORD PTR __imp__Py_BuildValue
  00050	83 c4 08	 add	 esp, 8

; 213  : }

  00053	c3		 ret	 0
?itemIs1GoldItem@@YAPAU_object@@PAU1@0@Z ENDP		; itemIs1GoldItem
_TEXT	ENDS
; Function compile flags: /Ogtp
; File C:\Anka2Project\Anka2Project\Source\Binary\source\UserInterface\PythonItemModule.cpp
; File C:\Anka2Project\Anka2Project\Source\Binary\source\eterBase\Singleton.h
; File C:\Anka2Project\Anka2Project\Source\Binary\source\UserInterface\PythonItemModule.cpp
;	COMDAT ?itemGetLimit@@YAPAU_object@@PAU1@0@Z
_TEXT	SEGMENT
_ItemLimit$ = -12					; size = 5
_iValueIndex$ = -4					; size = 4
_poSelf$ = 8						; size = 4
_poArgs$ = 12						; size = 4
?itemGetLimit@@YAPAU_object@@PAU1@0@Z PROC		; itemGetLimit, COMDAT

; 216  : {

  00000	55		 push	 ebp
  00001	8b ec		 mov	 ebp, esp
  00003	83 ec 0c	 sub	 esp, 12			; 0000000cH

; 217  : 	int iValueIndex;
; 218  : 	if (!PyTuple_GetInteger(poArgs, 0, &iValueIndex))

  00006	8d 45 fc	 lea	 eax, DWORD PTR _iValueIndex$[ebp]
  00009	50		 push	 eax
  0000a	6a 00		 push	 0
  0000c	ff 75 0c	 push	 DWORD PTR _poArgs$[ebp]
  0000f	e8 00 00 00 00	 call	 ?PyTuple_GetInteger@@YA_NPAU_object@@HPAH@Z ; PyTuple_GetInteger
  00014	83 c4 0c	 add	 esp, 12			; 0000000cH
  00017	84 c0		 test	 al, al
  00019	75 09		 jne	 SHORT $LN2@itemGetLim

; 219  : 		return Py_BadArgument();

  0001b	e8 00 00 00 00	 call	 ?Py_BadArgument@@YAPAU_object@@XZ ; Py_BadArgument

; 230  : }

  00020	8b e5		 mov	 esp, ebp
  00022	5d		 pop	 ebp
  00023	c3		 ret	 0
$LN2@itemGetLim:
; File C:\Anka2Project\Anka2Project\Source\Binary\source\eterBase\Singleton.h

; 26   : 		assert(ms_singleton);

  00024	8b 0d 00 00 00
	00		 mov	 ecx, DWORD PTR ?ms_singleton@?$CSingleton@VCItemManager@@@@0PAVCItemManager@@A ; CSingleton<CItemManager>::ms_singleton
  0002a	85 c9		 test	 ecx, ecx
  0002c	75 1a		 jne	 SHORT $LN8@itemGetLim
  0002e	6a 1a		 push	 26			; 0000001aH
  00030	68 00 00 00 00	 push	 OFFSET ??_C@_1IO@CAJLEEOI@?$AAC?$AA?3?$AA?2?$AAA?$AAn?$AAk?$AAa?$AA2?$AAP?$AAr?$AAo?$AAj?$AAe?$AAc?$AAt@
  00035	68 00 00 00 00	 push	 OFFSET ??_C@_1BK@FMEHPMFE@?$AAm?$AAs?$AA_?$AAs?$AAi?$AAn?$AAg?$AAl?$AAe?$AAt?$AAo?$AAn@
  0003a	e8 00 00 00 00	 call	 __wassert
  0003f	8b 0d 00 00 00
	00		 mov	 ecx, DWORD PTR ?ms_singleton@?$CSingleton@VCItemManager@@@@0PAVCItemManager@@A ; CSingleton<CItemManager>::ms_singleton
  00045	83 c4 0c	 add	 esp, 12			; 0000000cH
$LN8@itemGetLim:
; File C:\Anka2Project\Anka2Project\Source\Binary\source\UserInterface\PythonItemModule.cpp

; 221  : 	CItemData * pItemData = CItemManager::Instance().GetSelectedItemDataPointer();

  00048	e8 00 00 00 00	 call	 ?GetSelectedItemDataPointer@CItemManager@@QAEPAVCItemData@@XZ ; CItemManager::GetSelectedItemDataPointer

; 222  : 	if (!pItemData)

  0004d	85 c0		 test	 eax, eax
  0004f	75 11		 jne	 SHORT $LN3@itemGetLim

; 223  : 		return Py_BuildException("Not yet select item data");

  00051	68 00 00 00 00	 push	 OFFSET ??_C@_0BJ@FJOAFFCG@Not?5yet?5select?5item?5data@
  00056	e8 00 00 00 00	 call	 ?Py_BuildException@@YAPAU_object@@PBDZZ ; Py_BuildException
  0005b	83 c4 04	 add	 esp, 4

; 230  : }

  0005e	8b e5		 mov	 esp, ebp
  00060	5d		 pop	 ebp
  00061	c3		 ret	 0
$LN3@itemGetLim:

; 224  : 
; 225  : 	CItemData::TItemLimit ItemLimit;
; 226  : 	if (!pItemData->GetLimit(iValueIndex, &ItemLimit))

  00062	8d 4d f4	 lea	 ecx, DWORD PTR _ItemLimit$[ebp]
  00065	51		 push	 ecx
  00066	ff 75 fc	 push	 DWORD PTR _iValueIndex$[ebp]
  00069	8b c8		 mov	 ecx, eax
  0006b	e8 00 00 00 00	 call	 ?GetLimit@CItemData@@QBEHEPAUSItemLimit@1@@Z ; CItemData::GetLimit
  00070	85 c0		 test	 eax, eax
  00072	75 0d		 jne	 SHORT $LN4@itemGetLim

; 227  : 		return Py_BuildException();

  00074	50		 push	 eax
  00075	e8 00 00 00 00	 call	 ?Py_BuildException@@YAPAU_object@@PBDZZ ; Py_BuildException
  0007a	83 c4 04	 add	 esp, 4

; 230  : }

  0007d	8b e5		 mov	 esp, ebp
  0007f	5d		 pop	 ebp
  00080	c3		 ret	 0
$LN4@itemGetLim:

; 228  : 
; 229  : 	return Py_BuildValue("ii", ItemLimit.bType, ItemLimit.lValue);

  00081	ff 75 f5	 push	 DWORD PTR _ItemLimit$[ebp+1]
  00084	0f b6 45 f4	 movzx	 eax, BYTE PTR _ItemLimit$[ebp]
  00088	50		 push	 eax
  00089	68 00 00 00 00	 push	 OFFSET ??_C@_02PDIHAGKM@ii@
  0008e	ff 15 00 00 00
	00		 call	 DWORD PTR __imp__Py_BuildValue
  00094	83 c4 0c	 add	 esp, 12			; 0000000cH

; 230  : }

  00097	8b e5		 mov	 esp, ebp
  00099	5d		 pop	 ebp
  0009a	c3		 ret	 0
?itemGetLimit@@YAPAU_object@@PAU1@0@Z ENDP		; itemGetLimit
_TEXT	ENDS
; Function compile flags: /Ogtp
; File C:\Anka2Project\Anka2Project\Source\Binary\source\UserInterface\PythonItemModule.cpp
; File C:\Anka2Project\Anka2Project\Source\Binary\source\eterBase\Singleton.h
; File C:\Anka2Project\Anka2Project\Source\Binary\source\UserInterface\PythonItemModule.cpp
;	COMDAT ?itemGetLimitType@@YAPAU_object@@PAU1@0@Z
_TEXT	SEGMENT
_ItemLimit$ = -12					; size = 5
_iValueIndex$ = -4					; size = 4
_poSelf$ = 8						; size = 4
_poArgs$ = 12						; size = 4
?itemGetLimitType@@YAPAU_object@@PAU1@0@Z PROC		; itemGetLimitType, COMDAT

; 233  : {

  00000	55		 push	 ebp
  00001	8b ec		 mov	 ebp, esp
  00003	83 ec 0c	 sub	 esp, 12			; 0000000cH

; 234  : 	int iValueIndex;
; 235  : 	if (!PyTuple_GetInteger(poArgs, 0, &iValueIndex))

  00006	8d 45 fc	 lea	 eax, DWORD PTR _iValueIndex$[ebp]
  00009	50		 push	 eax
  0000a	6a 00		 push	 0
  0000c	ff 75 0c	 push	 DWORD PTR _poArgs$[ebp]
  0000f	e8 00 00 00 00	 call	 ?PyTuple_GetInteger@@YA_NPAU_object@@HPAH@Z ; PyTuple_GetInteger
  00014	83 c4 0c	 add	 esp, 12			; 0000000cH
  00017	84 c0		 test	 al, al
  00019	75 09		 jne	 SHORT $LN2@itemGetLim

; 236  : 		return Py_BadArgument();

  0001b	e8 00 00 00 00	 call	 ?Py_BadArgument@@YAPAU_object@@XZ ; Py_BadArgument

; 247  : }

  00020	8b e5		 mov	 esp, ebp
  00022	5d		 pop	 ebp
  00023	c3		 ret	 0
$LN2@itemGetLim:
; File C:\Anka2Project\Anka2Project\Source\Binary\source\eterBase\Singleton.h

; 26   : 		assert(ms_singleton);

  00024	8b 0d 00 00 00
	00		 mov	 ecx, DWORD PTR ?ms_singleton@?$CSingleton@VCItemManager@@@@0PAVCItemManager@@A ; CSingleton<CItemManager>::ms_singleton
  0002a	85 c9		 test	 ecx, ecx
  0002c	75 1a		 jne	 SHORT $LN8@itemGetLim
  0002e	6a 1a		 push	 26			; 0000001aH
  00030	68 00 00 00 00	 push	 OFFSET ??_C@_1IO@CAJLEEOI@?$AAC?$AA?3?$AA?2?$AAA?$AAn?$AAk?$AAa?$AA2?$AAP?$AAr?$AAo?$AAj?$AAe?$AAc?$AAt@
  00035	68 00 00 00 00	 push	 OFFSET ??_C@_1BK@FMEHPMFE@?$AAm?$AAs?$AA_?$AAs?$AAi?$AAn?$AAg?$AAl?$AAe?$AAt?$AAo?$AAn@
  0003a	e8 00 00 00 00	 call	 __wassert
  0003f	8b 0d 00 00 00
	00		 mov	 ecx, DWORD PTR ?ms_singleton@?$CSingleton@VCItemManager@@@@0PAVCItemManager@@A ; CSingleton<CItemManager>::ms_singleton
  00045	83 c4 0c	 add	 esp, 12			; 0000000cH
$LN8@itemGetLim:
; File C:\Anka2Project\Anka2Project\Source\Binary\source\UserInterface\PythonItemModule.cpp

; 238  : 	CItemData * pItemData = CItemManager::Instance().GetSelectedItemDataPointer();

  00048	e8 00 00 00 00	 call	 ?GetSelectedItemDataPointer@CItemManager@@QAEPAVCItemData@@XZ ; CItemManager::GetSelectedItemDataPointer

; 239  : 	if (!pItemData)

  0004d	85 c0		 test	 eax, eax
  0004f	75 11		 jne	 SHORT $LN3@itemGetLim

; 240  : 		return Py_BuildException("Not yet select item data");

  00051	68 00 00 00 00	 push	 OFFSET ??_C@_0BJ@FJOAFFCG@Not?5yet?5select?5item?5data@
  00056	e8 00 00 00 00	 call	 ?Py_BuildException@@YAPAU_object@@PBDZZ ; Py_BuildException
  0005b	83 c4 04	 add	 esp, 4

; 247  : }

  0005e	8b e5		 mov	 esp, ebp
  00060	5d		 pop	 ebp
  00061	c3		 ret	 0
$LN3@itemGetLim:

; 241  : 
; 242  : 	CItemData::TItemLimit ItemLimit;
; 243  : 	if (!pItemData->GetLimit(iValueIndex, &ItemLimit))

  00062	8d 4d f4	 lea	 ecx, DWORD PTR _ItemLimit$[ebp]
  00065	51		 push	 ecx
  00066	ff 75 fc	 push	 DWORD PTR _iValueIndex$[ebp]
  00069	8b c8		 mov	 ecx, eax
  0006b	e8 00 00 00 00	 call	 ?GetLimit@CItemData@@QBEHEPAUSItemLimit@1@@Z ; CItemData::GetLimit
  00070	85 c0		 test	 eax, eax
  00072	75 0d		 jne	 SHORT $LN4@itemGetLim

; 244  : 		return Py_BuildException();

  00074	50		 push	 eax
  00075	e8 00 00 00 00	 call	 ?Py_BuildException@@YAPAU_object@@PBDZZ ; Py_BuildException
  0007a	83 c4 04	 add	 esp, 4

; 247  : }

  0007d	8b e5		 mov	 esp, ebp
  0007f	5d		 pop	 ebp
  00080	c3		 ret	 0
$LN4@itemGetLim:

; 245  : 
; 246  : 	return Py_BuildValue("i", ItemLimit.bType);

  00081	0f b6 45 f4	 movzx	 eax, BYTE PTR _ItemLimit$[ebp]
  00085	50		 push	 eax
  00086	68 00 00 00 00	 push	 OFFSET ??_C@_01KBJDNOO@i@
  0008b	ff 15 00 00 00
	00		 call	 DWORD PTR __imp__Py_BuildValue
  00091	83 c4 08	 add	 esp, 8

; 247  : }

  00094	8b e5		 mov	 esp, ebp
  00096	5d		 pop	 ebp
  00097	c3		 ret	 0
?itemGetLimitType@@YAPAU_object@@PAU1@0@Z ENDP		; itemGetLimitType
_TEXT	ENDS
; Function compile flags: /Ogtp
; File C:\Anka2Project\Anka2Project\Source\Binary\source\UserInterface\PythonItemModule.cpp
; File C:\Anka2Project\Anka2Project\Source\Binary\source\eterBase\Singleton.h
; File C:\Anka2Project\Anka2Project\Source\Binary\source\UserInterface\PythonItemModule.cpp
;	COMDAT ?itemGetLimitValue@@YAPAU_object@@PAU1@0@Z
_TEXT	SEGMENT
_ItemLimit$ = -12					; size = 5
_iValueIndex$ = -4					; size = 4
_poSelf$ = 8						; size = 4
_poArgs$ = 12						; size = 4
?itemGetLimitValue@@YAPAU_object@@PAU1@0@Z PROC		; itemGetLimitValue, COMDAT

; 250  : {

  00000	55		 push	 ebp
  00001	8b ec		 mov	 ebp, esp
  00003	83 ec 0c	 sub	 esp, 12			; 0000000cH

; 251  : 	int iValueIndex;
; 252  : 	if (!PyTuple_GetInteger(poArgs, 0, &iValueIndex))

  00006	8d 45 fc	 lea	 eax, DWORD PTR _iValueIndex$[ebp]
  00009	50		 push	 eax
  0000a	6a 00		 push	 0
  0000c	ff 75 0c	 push	 DWORD PTR _poArgs$[ebp]
  0000f	e8 00 00 00 00	 call	 ?PyTuple_GetInteger@@YA_NPAU_object@@HPAH@Z ; PyTuple_GetInteger
  00014	83 c4 0c	 add	 esp, 12			; 0000000cH
  00017	84 c0		 test	 al, al
  00019	75 09		 jne	 SHORT $LN2@itemGetLim

; 253  : 		return Py_BadArgument();

  0001b	e8 00 00 00 00	 call	 ?Py_BadArgument@@YAPAU_object@@XZ ; Py_BadArgument

; 264  : }

  00020	8b e5		 mov	 esp, ebp
  00022	5d		 pop	 ebp
  00023	c3		 ret	 0
$LN2@itemGetLim:
; File C:\Anka2Project\Anka2Project\Source\Binary\source\eterBase\Singleton.h

; 26   : 		assert(ms_singleton);

  00024	8b 0d 00 00 00
	00		 mov	 ecx, DWORD PTR ?ms_singleton@?$CSingleton@VCItemManager@@@@0PAVCItemManager@@A ; CSingleton<CItemManager>::ms_singleton
  0002a	85 c9		 test	 ecx, ecx
  0002c	75 1a		 jne	 SHORT $LN8@itemGetLim
  0002e	6a 1a		 push	 26			; 0000001aH
  00030	68 00 00 00 00	 push	 OFFSET ??_C@_1IO@CAJLEEOI@?$AAC?$AA?3?$AA?2?$AAA?$AAn?$AAk?$AAa?$AA2?$AAP?$AAr?$AAo?$AAj?$AAe?$AAc?$AAt@
  00035	68 00 00 00 00	 push	 OFFSET ??_C@_1BK@FMEHPMFE@?$AAm?$AAs?$AA_?$AAs?$AAi?$AAn?$AAg?$AAl?$AAe?$AAt?$AAo?$AAn@
  0003a	e8 00 00 00 00	 call	 __wassert
  0003f	8b 0d 00 00 00
	00		 mov	 ecx, DWORD PTR ?ms_singleton@?$CSingleton@VCItemManager@@@@0PAVCItemManager@@A ; CSingleton<CItemManager>::ms_singleton
  00045	83 c4 0c	 add	 esp, 12			; 0000000cH
$LN8@itemGetLim:
; File C:\Anka2Project\Anka2Project\Source\Binary\source\UserInterface\PythonItemModule.cpp

; 255  : 	CItemData* pItemData = CItemManager::Instance().GetSelectedItemDataPointer();

  00048	e8 00 00 00 00	 call	 ?GetSelectedItemDataPointer@CItemManager@@QAEPAVCItemData@@XZ ; CItemManager::GetSelectedItemDataPointer

; 256  : 	if (!pItemData)

  0004d	85 c0		 test	 eax, eax
  0004f	75 11		 jne	 SHORT $LN3@itemGetLim

; 257  : 		return Py_BuildException("Not yet select item data");

  00051	68 00 00 00 00	 push	 OFFSET ??_C@_0BJ@FJOAFFCG@Not?5yet?5select?5item?5data@
  00056	e8 00 00 00 00	 call	 ?Py_BuildException@@YAPAU_object@@PBDZZ ; Py_BuildException
  0005b	83 c4 04	 add	 esp, 4

; 264  : }

  0005e	8b e5		 mov	 esp, ebp
  00060	5d		 pop	 ebp
  00061	c3		 ret	 0
$LN3@itemGetLim:

; 258  : 
; 259  : 	CItemData::TItemLimit ItemLimit;
; 260  : 	if (!pItemData->GetLimit(iValueIndex, &ItemLimit))

  00062	8d 4d f4	 lea	 ecx, DWORD PTR _ItemLimit$[ebp]
  00065	51		 push	 ecx
  00066	ff 75 fc	 push	 DWORD PTR _iValueIndex$[ebp]
  00069	8b c8		 mov	 ecx, eax
  0006b	e8 00 00 00 00	 call	 ?GetLimit@CItemData@@QBEHEPAUSItemLimit@1@@Z ; CItemData::GetLimit
  00070	85 c0		 test	 eax, eax
  00072	75 0d		 jne	 SHORT $LN4@itemGetLim

; 261  : 		return Py_BuildException();

  00074	50		 push	 eax
  00075	e8 00 00 00 00	 call	 ?Py_BuildException@@YAPAU_object@@PBDZZ ; Py_BuildException
  0007a	83 c4 04	 add	 esp, 4

; 264  : }

  0007d	8b e5		 mov	 esp, ebp
  0007f	5d		 pop	 ebp
  00080	c3		 ret	 0
$LN4@itemGetLim:

; 262  : 
; 263  : 	return Py_BuildValue("i", ItemLimit.lValue);

  00081	ff 75 f5	 push	 DWORD PTR _ItemLimit$[ebp+1]
  00084	68 00 00 00 00	 push	 OFFSET ??_C@_01KBJDNOO@i@
  00089	ff 15 00 00 00
	00		 call	 DWORD PTR __imp__Py_BuildValue
  0008f	83 c4 08	 add	 esp, 8

; 264  : }

  00092	8b e5		 mov	 esp, ebp
  00094	5d		 pop	 ebp
  00095	c3		 ret	 0
?itemGetLimitValue@@YAPAU_object@@PAU1@0@Z ENDP		; itemGetLimitValue
_TEXT	ENDS
; Function compile flags: /Ogtp
; File C:\Anka2Project\Anka2Project\Source\Binary\source\UserInterface\PythonItemModule.cpp
; File C:\Anka2Project\Anka2Project\Source\Binary\source\eterBase\Singleton.h
; File C:\Anka2Project\Anka2Project\Source\Binary\source\UserInterface\PythonItemModule.cpp
;	COMDAT ?itemGetAffect@@YAPAU_object@@PAU1@0@Z
_TEXT	SEGMENT
_ItemApply$ = -12					; size = 5
_iValueIndex$ = -4					; size = 4
_poSelf$ = 8						; size = 4
_poArgs$ = 12						; size = 4
?itemGetAffect@@YAPAU_object@@PAU1@0@Z PROC		; itemGetAffect, COMDAT

; 267  : {

  00000	55		 push	 ebp
  00001	8b ec		 mov	 ebp, esp
  00003	83 ec 0c	 sub	 esp, 12			; 0000000cH

; 268  : 	int iValueIndex;
; 269  : 	if (!PyTuple_GetInteger(poArgs, 0, &iValueIndex))

  00006	8d 45 fc	 lea	 eax, DWORD PTR _iValueIndex$[ebp]
  00009	50		 push	 eax
  0000a	6a 00		 push	 0
  0000c	ff 75 0c	 push	 DWORD PTR _poArgs$[ebp]
  0000f	e8 00 00 00 00	 call	 ?PyTuple_GetInteger@@YA_NPAU_object@@HPAH@Z ; PyTuple_GetInteger
  00014	83 c4 0c	 add	 esp, 12			; 0000000cH
  00017	84 c0		 test	 al, al
  00019	75 09		 jne	 SHORT $LN2@itemGetAff

; 270  : 		return Py_BadArgument();

  0001b	e8 00 00 00 00	 call	 ?Py_BadArgument@@YAPAU_object@@XZ ; Py_BadArgument

; 286  : }

  00020	8b e5		 mov	 esp, ebp
  00022	5d		 pop	 ebp
  00023	c3		 ret	 0
$LN2@itemGetAff:
; File C:\Anka2Project\Anka2Project\Source\Binary\source\eterBase\Singleton.h

; 26   : 		assert(ms_singleton);

  00024	8b 0d 00 00 00
	00		 mov	 ecx, DWORD PTR ?ms_singleton@?$CSingleton@VCItemManager@@@@0PAVCItemManager@@A ; CSingleton<CItemManager>::ms_singleton
  0002a	85 c9		 test	 ecx, ecx
  0002c	75 1a		 jne	 SHORT $LN9@itemGetAff
  0002e	6a 1a		 push	 26			; 0000001aH
  00030	68 00 00 00 00	 push	 OFFSET ??_C@_1IO@CAJLEEOI@?$AAC?$AA?3?$AA?2?$AAA?$AAn?$AAk?$AAa?$AA2?$AAP?$AAr?$AAo?$AAj?$AAe?$AAc?$AAt@
  00035	68 00 00 00 00	 push	 OFFSET ??_C@_1BK@FMEHPMFE@?$AAm?$AAs?$AA_?$AAs?$AAi?$AAn?$AAg?$AAl?$AAe?$AAt?$AAo?$AAn@
  0003a	e8 00 00 00 00	 call	 __wassert
  0003f	8b 0d 00 00 00
	00		 mov	 ecx, DWORD PTR ?ms_singleton@?$CSingleton@VCItemManager@@@@0PAVCItemManager@@A ; CSingleton<CItemManager>::ms_singleton
  00045	83 c4 0c	 add	 esp, 12			; 0000000cH
$LN9@itemGetAff:
  00048	56		 push	 esi
; File C:\Anka2Project\Anka2Project\Source\Binary\source\UserInterface\PythonItemModule.cpp

; 272  : 	CItemData * pItemData = CItemManager::Instance().GetSelectedItemDataPointer();

  00049	e8 00 00 00 00	 call	 ?GetSelectedItemDataPointer@CItemManager@@QAEPAVCItemData@@XZ ; CItemManager::GetSelectedItemDataPointer
  0004e	8b f0		 mov	 esi, eax

; 273  : 	if (!pItemData)

  00050	85 f6		 test	 esi, esi
  00052	75 12		 jne	 SHORT $LN3@itemGetAff

; 274  : 		return Py_BuildException("Not yet select item data");

  00054	68 00 00 00 00	 push	 OFFSET ??_C@_0BJ@FJOAFFCG@Not?5yet?5select?5item?5data@
  00059	e8 00 00 00 00	 call	 ?Py_BuildException@@YAPAU_object@@PBDZZ ; Py_BuildException
  0005e	83 c4 04	 add	 esp, 4
  00061	5e		 pop	 esi

; 286  : }

  00062	8b e5		 mov	 esp, ebp
  00064	5d		 pop	 ebp
  00065	c3		 ret	 0
$LN3@itemGetAff:

; 275  : 
; 276  : 	CItemData::TItemApply ItemApply;
; 277  : 	if (!pItemData->GetApply(iValueIndex, &ItemApply))

  00066	8d 45 f4	 lea	 eax, DWORD PTR _ItemApply$[ebp]
  00069	8b ce		 mov	 ecx, esi
  0006b	50		 push	 eax
  0006c	ff 75 fc	 push	 DWORD PTR _iValueIndex$[ebp]
  0006f	e8 00 00 00 00	 call	 ?GetApply@CItemData@@QBEHEPAUSItemApply@1@@Z ; CItemData::GetApply
  00074	85 c0		 test	 eax, eax
  00076	75 0e		 jne	 SHORT $LN4@itemGetAff

; 278  : 		return Py_BuildException();

  00078	50		 push	 eax
  00079	e8 00 00 00 00	 call	 ?Py_BuildException@@YAPAU_object@@PBDZZ ; Py_BuildException
  0007e	83 c4 04	 add	 esp, 4
  00081	5e		 pop	 esi

; 286  : }

  00082	8b e5		 mov	 esp, ebp
  00084	5d		 pop	 ebp
  00085	c3		 ret	 0
$LN4@itemGetAff:

; 279  : 
; 280  : 	if ((CItemData::APPLY_ATT_SPEED == ItemApply.bType) && (CItemData::ITEM_TYPE_WEAPON == pItemData->GetType()) && (CItemData::WEAPON_TWO_HANDED == pItemData->GetSubType()))

  00086	80 7d f4 07	 cmp	 BYTE PTR _ItemApply$[ebp], 7
  0008a	75 1e		 jne	 SHORT $LN11@itemGetAff
  0008c	8b ce		 mov	 ecx, esi
  0008e	e8 00 00 00 00	 call	 ?GetType@CItemData@@QBEEXZ ; CItemData::GetType
  00093	3c 01		 cmp	 al, 1
  00095	75 13		 jne	 SHORT $LN11@itemGetAff
  00097	8b ce		 mov	 ecx, esi
  00099	e8 00 00 00 00	 call	 ?GetSubType@CItemData@@QBEEXZ ; CItemData::GetSubType
  0009e	3c 03		 cmp	 al, 3
  000a0	75 08		 jne	 SHORT $LN11@itemGetAff

; 281  : 	{
; 282  : 		ItemApply.lValue -= TWOHANDED_WEWAPON_ATT_SPEED_DECREASE_VALUE;

  000a2	a1 00 00 00 00	 mov	 eax, DWORD PTR ?TWOHANDED_WEWAPON_ATT_SPEED_DECREASE_VALUE@@3HA ; TWOHANDED_WEWAPON_ATT_SPEED_DECREASE_VALUE
  000a7	29 45 f5	 sub	 DWORD PTR _ItemApply$[ebp+1], eax
$LN11@itemGetAff:

; 283  : 	}
; 284  : 
; 285  : 	return Py_BuildValue("ii", ItemApply.bType, ItemApply.lValue);

  000aa	ff 75 f5	 push	 DWORD PTR _ItemApply$[ebp+1]
  000ad	0f b6 45 f4	 movzx	 eax, BYTE PTR _ItemApply$[ebp]
  000b1	50		 push	 eax
  000b2	68 00 00 00 00	 push	 OFFSET ??_C@_02PDIHAGKM@ii@
  000b7	ff 15 00 00 00
	00		 call	 DWORD PTR __imp__Py_BuildValue
  000bd	83 c4 0c	 add	 esp, 12			; 0000000cH
  000c0	5e		 pop	 esi

; 286  : }

  000c1	8b e5		 mov	 esp, ebp
  000c3	5d		 pop	 ebp
  000c4	c3		 ret	 0
?itemGetAffect@@YAPAU_object@@PAU1@0@Z ENDP		; itemGetAffect
_TEXT	ENDS
; Function compile flags: /Ogtp
; File C:\Anka2Project\Anka2Project\Source\Binary\source\UserInterface\PythonItemModule.cpp
; File C:\Anka2Project\Anka2Project\Source\Binary\source\eterBase\Singleton.h
; File C:\Anka2Project\Anka2Project\Source\Binary\source\UserInterface\PythonItemModule.cpp
;	COMDAT ?itemGetValue@@YAPAU_object@@PAU1@0@Z
_TEXT	SEGMENT
_iValueIndex$ = -4					; size = 4
_poSelf$ = 8						; size = 4
_poArgs$ = 12						; size = 4
?itemGetValue@@YAPAU_object@@PAU1@0@Z PROC		; itemGetValue, COMDAT

; 289  : {

  00000	55		 push	 ebp
  00001	8b ec		 mov	 ebp, esp
  00003	51		 push	 ecx

; 290  : 	int iValueIndex;
; 291  : 	if (!PyTuple_GetInteger(poArgs, 0, &iValueIndex))

  00004	8d 45 fc	 lea	 eax, DWORD PTR _iValueIndex$[ebp]
  00007	50		 push	 eax
  00008	6a 00		 push	 0
  0000a	ff 75 0c	 push	 DWORD PTR _poArgs$[ebp]
  0000d	e8 00 00 00 00	 call	 ?PyTuple_GetInteger@@YA_NPAU_object@@HPAH@Z ; PyTuple_GetInteger
  00012	83 c4 0c	 add	 esp, 12			; 0000000cH
  00015	84 c0		 test	 al, al
  00017	75 09		 jne	 SHORT $LN2@itemGetVal

; 292  : 		return Py_BadArgument();

  00019	e8 00 00 00 00	 call	 ?Py_BadArgument@@YAPAU_object@@XZ ; Py_BadArgument

; 299  : }

  0001e	8b e5		 mov	 esp, ebp
  00020	5d		 pop	 ebp
  00021	c3		 ret	 0
$LN2@itemGetVal:
; File C:\Anka2Project\Anka2Project\Source\Binary\source\eterBase\Singleton.h

; 26   : 		assert(ms_singleton);

  00022	8b 0d 00 00 00
	00		 mov	 ecx, DWORD PTR ?ms_singleton@?$CSingleton@VCItemManager@@@@0PAVCItemManager@@A ; CSingleton<CItemManager>::ms_singleton
  00028	85 c9		 test	 ecx, ecx
  0002a	75 1a		 jne	 SHORT $LN7@itemGetVal
  0002c	6a 1a		 push	 26			; 0000001aH
  0002e	68 00 00 00 00	 push	 OFFSET ??_C@_1IO@CAJLEEOI@?$AAC?$AA?3?$AA?2?$AAA?$AAn?$AAk?$AAa?$AA2?$AAP?$AAr?$AAo?$AAj?$AAe?$AAc?$AAt@
  00033	68 00 00 00 00	 push	 OFFSET ??_C@_1BK@FMEHPMFE@?$AAm?$AAs?$AA_?$AAs?$AAi?$AAn?$AAg?$AAl?$AAe?$AAt?$AAo?$AAn@
  00038	e8 00 00 00 00	 call	 __wassert
  0003d	8b 0d 00 00 00
	00		 mov	 ecx, DWORD PTR ?ms_singleton@?$CSingleton@VCItemManager@@@@0PAVCItemManager@@A ; CSingleton<CItemManager>::ms_singleton
  00043	83 c4 0c	 add	 esp, 12			; 0000000cH
$LN7@itemGetVal:
; File C:\Anka2Project\Anka2Project\Source\Binary\source\UserInterface\PythonItemModule.cpp

; 294  : 	CItemData * pItemData = CItemManager::Instance().GetSelectedItemDataPointer();

  00046	e8 00 00 00 00	 call	 ?GetSelectedItemDataPointer@CItemManager@@QAEPAVCItemData@@XZ ; CItemManager::GetSelectedItemDataPointer

; 295  : 	if (!pItemData)

  0004b	85 c0		 test	 eax, eax
  0004d	75 11		 jne	 SHORT $LN3@itemGetVal

; 296  : 		return Py_BuildException("Not yet select item data");

  0004f	68 00 00 00 00	 push	 OFFSET ??_C@_0BJ@FJOAFFCG@Not?5yet?5select?5item?5data@
  00054	e8 00 00 00 00	 call	 ?Py_BuildException@@YAPAU_object@@PBDZZ ; Py_BuildException
  00059	83 c4 04	 add	 esp, 4

; 299  : }

  0005c	8b e5		 mov	 esp, ebp
  0005e	5d		 pop	 ebp
  0005f	c3		 ret	 0
$LN3@itemGetVal:

; 297  : 
; 298  : 	return Py_BuildValue("i", pItemData->GetValue(iValueIndex));

  00060	ff 75 fc	 push	 DWORD PTR _iValueIndex$[ebp]
  00063	8b c8		 mov	 ecx, eax
  00065	e8 00 00 00 00	 call	 ?GetValue@CItemData@@QBEJE@Z ; CItemData::GetValue
  0006a	50		 push	 eax
  0006b	68 00 00 00 00	 push	 OFFSET ??_C@_01KBJDNOO@i@
  00070	ff 15 00 00 00
	00		 call	 DWORD PTR __imp__Py_BuildValue
  00076	83 c4 08	 add	 esp, 8

; 299  : }

  00079	8b e5		 mov	 esp, ebp
  0007b	5d		 pop	 ebp
  0007c	c3		 ret	 0
?itemGetValue@@YAPAU_object@@PAU1@0@Z ENDP		; itemGetValue
_TEXT	ENDS
; Function compile flags: /Ogtp
; File C:\Anka2Project\Anka2Project\Source\Binary\source\UserInterface\PythonItemModule.cpp
; File C:\Anka2Project\Anka2Project\Source\Binary\source\eterBase\Singleton.h
; File C:\Anka2Project\Anka2Project\Source\Binary\source\UserInterface\PythonItemModule.cpp
;	COMDAT ?itemGetSocket@@YAPAU_object@@PAU1@0@Z
_TEXT	SEGMENT
_iValueIndex$ = -4					; size = 4
_poSelf$ = 8						; size = 4
_poArgs$ = 12						; size = 4
?itemGetSocket@@YAPAU_object@@PAU1@0@Z PROC		; itemGetSocket, COMDAT

; 302  : {

  00000	55		 push	 ebp
  00001	8b ec		 mov	 ebp, esp
  00003	51		 push	 ecx

; 303  : 	int iValueIndex;
; 304  : 	if (!PyTuple_GetInteger(poArgs, 0, &iValueIndex))

  00004	8d 45 fc	 lea	 eax, DWORD PTR _iValueIndex$[ebp]
  00007	50		 push	 eax
  00008	6a 00		 push	 0
  0000a	ff 75 0c	 push	 DWORD PTR _poArgs$[ebp]
  0000d	e8 00 00 00 00	 call	 ?PyTuple_GetInteger@@YA_NPAU_object@@HPAH@Z ; PyTuple_GetInteger
  00012	83 c4 0c	 add	 esp, 12			; 0000000cH
  00015	84 c0		 test	 al, al
  00017	75 09		 jne	 SHORT $LN2@itemGetSoc

; 305  : 		return Py_BadArgument();

  00019	e8 00 00 00 00	 call	 ?Py_BadArgument@@YAPAU_object@@XZ ; Py_BadArgument

; 312  : }

  0001e	8b e5		 mov	 esp, ebp
  00020	5d		 pop	 ebp
  00021	c3		 ret	 0
$LN2@itemGetSoc:
; File C:\Anka2Project\Anka2Project\Source\Binary\source\eterBase\Singleton.h

; 26   : 		assert(ms_singleton);

  00022	8b 0d 00 00 00
	00		 mov	 ecx, DWORD PTR ?ms_singleton@?$CSingleton@VCItemManager@@@@0PAVCItemManager@@A ; CSingleton<CItemManager>::ms_singleton
  00028	85 c9		 test	 ecx, ecx
  0002a	75 1a		 jne	 SHORT $LN7@itemGetSoc
  0002c	6a 1a		 push	 26			; 0000001aH
  0002e	68 00 00 00 00	 push	 OFFSET ??_C@_1IO@CAJLEEOI@?$AAC?$AA?3?$AA?2?$AAA?$AAn?$AAk?$AAa?$AA2?$AAP?$AAr?$AAo?$AAj?$AAe?$AAc?$AAt@
  00033	68 00 00 00 00	 push	 OFFSET ??_C@_1BK@FMEHPMFE@?$AAm?$AAs?$AA_?$AAs?$AAi?$AAn?$AAg?$AAl?$AAe?$AAt?$AAo?$AAn@
  00038	e8 00 00 00 00	 call	 __wassert
  0003d	8b 0d 00 00 00
	00		 mov	 ecx, DWORD PTR ?ms_singleton@?$CSingleton@VCItemManager@@@@0PAVCItemManager@@A ; CSingleton<CItemManager>::ms_singleton
  00043	83 c4 0c	 add	 esp, 12			; 0000000cH
$LN7@itemGetSoc:
; File C:\Anka2Project\Anka2Project\Source\Binary\source\UserInterface\PythonItemModule.cpp

; 307  : 	CItemData * pItemData = CItemManager::Instance().GetSelectedItemDataPointer();

  00046	e8 00 00 00 00	 call	 ?GetSelectedItemDataPointer@CItemManager@@QAEPAVCItemData@@XZ ; CItemManager::GetSelectedItemDataPointer

; 308  : 	if (!pItemData)

  0004b	85 c0		 test	 eax, eax
  0004d	75 11		 jne	 SHORT $LN3@itemGetSoc

; 309  : 		return Py_BuildException("Not yet select item data");

  0004f	68 00 00 00 00	 push	 OFFSET ??_C@_0BJ@FJOAFFCG@Not?5yet?5select?5item?5data@
  00054	e8 00 00 00 00	 call	 ?Py_BuildException@@YAPAU_object@@PBDZZ ; Py_BuildException
  00059	83 c4 04	 add	 esp, 4

; 312  : }

  0005c	8b e5		 mov	 esp, ebp
  0005e	5d		 pop	 ebp
  0005f	c3		 ret	 0
$LN3@itemGetSoc:

; 310  : 
; 311  : 	return Py_BuildValue("i", pItemData->GetSocket(iValueIndex));

  00060	ff 75 fc	 push	 DWORD PTR _iValueIndex$[ebp]
  00063	8b c8		 mov	 ecx, eax
  00065	e8 00 00 00 00	 call	 ?GetSocket@CItemData@@QBEJE@Z ; CItemData::GetSocket
  0006a	50		 push	 eax
  0006b	68 00 00 00 00	 push	 OFFSET ??_C@_01KBJDNOO@i@
  00070	ff 15 00 00 00
	00		 call	 DWORD PTR __imp__Py_BuildValue
  00076	83 c4 08	 add	 esp, 8

; 312  : }

  00079	8b e5		 mov	 esp, ebp
  0007b	5d		 pop	 ebp
  0007c	c3		 ret	 0
?itemGetSocket@@YAPAU_object@@PAU1@0@Z ENDP		; itemGetSocket
_TEXT	ENDS
; Function compile flags: /Ogtp
; File C:\Anka2Project\Anka2Project\Source\Binary\source\UserInterface\PythonItemModule.cpp
; File C:\Anka2Project\Anka2Project\Source\Binary\source\eterBase\Singleton.h
; File C:\Anka2Project\Anka2Project\Source\Binary\source\UserInterface\PythonItemModule.cpp
;	COMDAT ?itemGetIconInstance@@YAPAU_object@@PAU1@0@Z
_TEXT	SEGMENT
_poSelf$ = 8						; size = 4
_poArgs$ = 12						; size = 4
?itemGetIconInstance@@YAPAU_object@@PAU1@0@Z PROC	; itemGetIconInstance, COMDAT
; File C:\Anka2Project\Anka2Project\Source\Binary\source\eterBase\Singleton.h

; 26   : 		assert(ms_singleton);

  00000	8b 0d 00 00 00
	00		 mov	 ecx, DWORD PTR ?ms_singleton@?$CSingleton@VCItemManager@@@@0PAVCItemManager@@A ; CSingleton<CItemManager>::ms_singleton
  00006	85 c9		 test	 ecx, ecx
  00008	75 1a		 jne	 SHORT $LN7@itemGetIco
  0000a	6a 1a		 push	 26			; 0000001aH
  0000c	68 00 00 00 00	 push	 OFFSET ??_C@_1IO@CAJLEEOI@?$AAC?$AA?3?$AA?2?$AAA?$AAn?$AAk?$AAa?$AA2?$AAP?$AAr?$AAo?$AAj?$AAe?$AAc?$AAt@
  00011	68 00 00 00 00	 push	 OFFSET ??_C@_1BK@FMEHPMFE@?$AAm?$AAs?$AA_?$AAs?$AAi?$AAn?$AAg?$AAl?$AAe?$AAt?$AAo?$AAn@
  00016	e8 00 00 00 00	 call	 __wassert
  0001b	8b 0d 00 00 00
	00		 mov	 ecx, DWORD PTR ?ms_singleton@?$CSingleton@VCItemManager@@@@0PAVCItemManager@@A ; CSingleton<CItemManager>::ms_singleton
  00021	83 c4 0c	 add	 esp, 12			; 0000000cH
$LN7@itemGetIco:
  00024	56		 push	 esi
; File C:\Anka2Project\Anka2Project\Source\Binary\source\UserInterface\PythonItemModule.cpp

; 316  : 	CItemData * pItemData = CItemManager::Instance().GetSelectedItemDataPointer();

  00025	e8 00 00 00 00	 call	 ?GetSelectedItemDataPointer@CItemManager@@QAEPAVCItemData@@XZ ; CItemManager::GetSelectedItemDataPointer
  0002a	8b f0		 mov	 esi, eax

; 317  : 	if (!pItemData)

  0002c	85 f6		 test	 esi, esi
  0002e	75 0f		 jne	 SHORT $LN2@itemGetIco

; 318  : 		return Py_BuildException("Not yet select item data");

  00030	68 00 00 00 00	 push	 OFFSET ??_C@_0BJ@FJOAFFCG@Not?5yet?5select?5item?5data@
  00035	e8 00 00 00 00	 call	 ?Py_BuildException@@YAPAU_object@@PBDZZ ; Py_BuildException
  0003a	83 c4 04	 add	 esp, 4
  0003d	5e		 pop	 esi

; 328  : }

  0003e	c3		 ret	 0
$LN2@itemGetIco:
  0003f	57		 push	 edi

; 319  : 
; 320  : 	CGraphicSubImage * pImage = pItemData->GetIconImage();

  00040	8b ce		 mov	 ecx, esi
  00042	e8 00 00 00 00	 call	 ?GetIconImage@CItemData@@QAEPAVCGraphicSubImage@@XZ ; CItemData::GetIconImage
  00047	8b f8		 mov	 edi, eax

; 321  : 	if (!pImage)

  00049	85 ff		 test	 edi, edi
  0004b	75 18		 jne	 SHORT $LN3@itemGetIco

; 322  : 		return Py_BuildException("Cannot get icon image by %d", pItemData->GetIndex());

  0004d	8b ce		 mov	 ecx, esi
  0004f	e8 00 00 00 00	 call	 ?GetIndex@CItemData@@QBEKXZ ; CItemData::GetIndex
  00054	50		 push	 eax
  00055	68 00 00 00 00	 push	 OFFSET ??_C@_0BM@MLEHJLDK@Cannot?5get?5icon?5image?5by?5?$CFd@
  0005a	e8 00 00 00 00	 call	 ?Py_BuildException@@YAPAU_object@@PBDZZ ; Py_BuildException

; 326  : 
; 327  : 	return Py_BuildValue("i", pImageInstance);

  0005f	83 c4 08	 add	 esp, 8
  00062	5f		 pop	 edi
  00063	5e		 pop	 esi

; 328  : }

  00064	c3		 ret	 0
$LN3@itemGetIco:

; 323  : 
; 324  : 	CGraphicImageInstance * pImageInstance = CGraphicImageInstance::New();

  00065	e8 00 00 00 00	 call	 ?New@CGraphicImageInstance@@SAPAV1@XZ ; CGraphicImageInstance::New
  0006a	8b f0		 mov	 esi, eax

; 325  : 	pImageInstance->SetImagePointer(pImage);

  0006c	57		 push	 edi
  0006d	8b ce		 mov	 ecx, esi
  0006f	e8 00 00 00 00	 call	 ?SetImagePointer@CGraphicImageInstance@@QAEXPAVCGraphicImage@@@Z ; CGraphicImageInstance::SetImagePointer

; 326  : 
; 327  : 	return Py_BuildValue("i", pImageInstance);

  00074	56		 push	 esi
  00075	68 00 00 00 00	 push	 OFFSET ??_C@_01KBJDNOO@i@
  0007a	ff 15 00 00 00
	00		 call	 DWORD PTR __imp__Py_BuildValue
  00080	83 c4 08	 add	 esp, 8
  00083	5f		 pop	 edi
  00084	5e		 pop	 esi

; 328  : }

  00085	c3		 ret	 0
?itemGetIconInstance@@YAPAU_object@@PAU1@0@Z ENDP	; itemGetIconInstance
_TEXT	ENDS
; Function compile flags: /Ogtp
; File C:\Anka2Project\Anka2Project\Source\Binary\source\UserInterface\PythonItemModule.cpp
; File C:\Anka2Project\Anka2Project\Source\Binary\source\eterBase\Singleton.h
; File C:\Anka2Project\Anka2Project\Source\Binary\source\UserInterface\PythonItemModule.cpp
; File C:\Anka2Project\Anka2Project\Source\Binary\source\eterBase\Singleton.h
; File C:\Anka2Project\Anka2Project\Source\Binary\source\UserInterface\PythonItemModule.cpp
;	COMDAT ?itemIsEquipmentVID@@YAPAU_object@@PAU1@0@Z
_TEXT	SEGMENT
_iItemVID$ = -4						; size = 4
_poSelf$ = 8						; size = 4
_poArgs$ = 12						; size = 4
?itemIsEquipmentVID@@YAPAU_object@@PAU1@0@Z PROC	; itemIsEquipmentVID, COMDAT

; 342  : {

  00000	55		 push	 ebp
  00001	8b ec		 mov	 ebp, esp
  00003	51		 push	 ecx

; 343  : 	int iItemVID;
; 344  : 	if (!PyTuple_GetInteger(poArgs, 0, &iItemVID))

  00004	8d 45 fc	 lea	 eax, DWORD PTR _iItemVID$[ebp]
  00007	50		 push	 eax
  00008	6a 00		 push	 0
  0000a	ff 75 0c	 push	 DWORD PTR _poArgs$[ebp]
  0000d	e8 00 00 00 00	 call	 ?PyTuple_GetInteger@@YA_NPAU_object@@HPAH@Z ; PyTuple_GetInteger
  00012	83 c4 0c	 add	 esp, 12			; 0000000cH
  00015	84 c0		 test	 al, al
  00017	75 09		 jne	 SHORT $LN2@itemIsEqui

; 345  : 		return Py_BadArgument();

  00019	e8 00 00 00 00	 call	 ?Py_BadArgument@@YAPAU_object@@XZ ; Py_BadArgument

; 353  : }

  0001e	8b e5		 mov	 esp, ebp
  00020	5d		 pop	 ebp
  00021	c3		 ret	 0
$LN2@itemIsEqui:
; File C:\Anka2Project\Anka2Project\Source\Binary\source\eterBase\Singleton.h

; 26   : 		assert(ms_singleton);

  00022	8b 0d 00 00 00
	00		 mov	 ecx, DWORD PTR ?ms_singleton@?$CSingleton@VCItemManager@@@@0PAVCItemManager@@A ; CSingleton<CItemManager>::ms_singleton
  00028	85 c9		 test	 ecx, ecx
  0002a	75 1a		 jne	 SHORT $LN7@itemIsEqui
  0002c	6a 1a		 push	 26			; 0000001aH
  0002e	68 00 00 00 00	 push	 OFFSET ??_C@_1IO@CAJLEEOI@?$AAC?$AA?3?$AA?2?$AAA?$AAn?$AAk?$AAa?$AA2?$AAP?$AAr?$AAo?$AAj?$AAe?$AAc?$AAt@
  00033	68 00 00 00 00	 push	 OFFSET ??_C@_1BK@FMEHPMFE@?$AAm?$AAs?$AA_?$AAs?$AAi?$AAn?$AAg?$AAl?$AAe?$AAt?$AAo?$AAn@
  00038	e8 00 00 00 00	 call	 __wassert
  0003d	8b 0d 00 00 00
	00		 mov	 ecx, DWORD PTR ?ms_singleton@?$CSingleton@VCItemManager@@@@0PAVCItemManager@@A ; CSingleton<CItemManager>::ms_singleton
  00043	83 c4 0c	 add	 esp, 12			; 0000000cH
$LN7@itemIsEqui:
; File C:\Anka2Project\Anka2Project\Source\Binary\source\UserInterface\PythonItemModule.cpp

; 347  : 	CItemManager::Instance().SelectItemData(iItemVID);

  00046	ff 75 fc	 push	 DWORD PTR _iItemVID$[ebp]
  00049	e8 00 00 00 00	 call	 ?SelectItemData@CItemManager@@QAEHK@Z ; CItemManager::SelectItemData
; File C:\Anka2Project\Anka2Project\Source\Binary\source\eterBase\Singleton.h

; 26   : 		assert(ms_singleton);

  0004e	8b 0d 00 00 00
	00		 mov	 ecx, DWORD PTR ?ms_singleton@?$CSingleton@VCItemManager@@@@0PAVCItemManager@@A ; CSingleton<CItemManager>::ms_singleton
  00054	85 c9		 test	 ecx, ecx
  00056	75 1a		 jne	 SHORT $LN10@itemIsEqui
  00058	6a 1a		 push	 26			; 0000001aH
  0005a	68 00 00 00 00	 push	 OFFSET ??_C@_1IO@CAJLEEOI@?$AAC?$AA?3?$AA?2?$AAA?$AAn?$AAk?$AAa?$AA2?$AAP?$AAr?$AAo?$AAj?$AAe?$AAc?$AAt@
  0005f	68 00 00 00 00	 push	 OFFSET ??_C@_1BK@FMEHPMFE@?$AAm?$AAs?$AA_?$AAs?$AAi?$AAn?$AAg?$AAl?$AAe?$AAt?$AAo?$AAn@
  00064	e8 00 00 00 00	 call	 __wassert
  00069	8b 0d 00 00 00
	00		 mov	 ecx, DWORD PTR ?ms_singleton@?$CSingleton@VCItemManager@@@@0PAVCItemManager@@A ; CSingleton<CItemManager>::ms_singleton
  0006f	83 c4 0c	 add	 esp, 12			; 0000000cH
$LN10@itemIsEqui:
; File C:\Anka2Project\Anka2Project\Source\Binary\source\UserInterface\PythonItemModule.cpp

; 348  : 	CItemData * pItemData = CItemManager::Instance().GetSelectedItemDataPointer();

  00072	e8 00 00 00 00	 call	 ?GetSelectedItemDataPointer@CItemManager@@QAEPAVCItemData@@XZ ; CItemManager::GetSelectedItemDataPointer

; 349  : 	if (!pItemData)

  00077	85 c0		 test	 eax, eax
  00079	75 11		 jne	 SHORT $LN3@itemIsEqui

; 350  : 		return Py_BuildException("Not yet select item data");

  0007b	68 00 00 00 00	 push	 OFFSET ??_C@_0BJ@FJOAFFCG@Not?5yet?5select?5item?5data@
  00080	e8 00 00 00 00	 call	 ?Py_BuildException@@YAPAU_object@@PBDZZ ; Py_BuildException
  00085	83 c4 04	 add	 esp, 4

; 353  : }

  00088	8b e5		 mov	 esp, ebp
  0008a	5d		 pop	 ebp
  0008b	c3		 ret	 0
$LN3@itemIsEqui:

; 351  : 
; 352  : 	return Py_BuildValue("i", pItemData->IsEquipment());

  0008c	8b c8		 mov	 ecx, eax
  0008e	e8 00 00 00 00	 call	 ?IsEquipment@CItemData@@QBEHXZ ; CItemData::IsEquipment
  00093	50		 push	 eax
  00094	68 00 00 00 00	 push	 OFFSET ??_C@_01KBJDNOO@i@
  00099	ff 15 00 00 00
	00		 call	 DWORD PTR __imp__Py_BuildValue
  0009f	83 c4 08	 add	 esp, 8

; 353  : }

  000a2	8b e5		 mov	 esp, ebp
  000a4	5d		 pop	 ebp
  000a5	c3		 ret	 0
?itemIsEquipmentVID@@YAPAU_object@@PAU1@0@Z ENDP	; itemIsEquipmentVID
_TEXT	ENDS
; Function compile flags: /Ogtp
; File C:\Anka2Project\Anka2Project\Source\Binary\source\UserInterface\PythonItemModule.cpp
; File C:\Anka2Project\Anka2Project\Source\Binary\source\eterBase\Singleton.h
; File C:\Anka2Project\Anka2Project\Source\Binary\source\UserInterface\PythonItemModule.cpp
; File C:\Anka2Project\Anka2Project\Source\Binary\source\eterBase\Singleton.h
; File C:\Anka2Project\Anka2Project\Source\Binary\source\UserInterface\PythonItemModule.cpp
;	COMDAT ?itemGetUseType@@YAPAU_object@@PAU1@0@Z
_TEXT	SEGMENT
_iItemVID$ = -4						; size = 4
_poSelf$ = 8						; size = 4
_poArgs$ = 12						; size = 4
?itemGetUseType@@YAPAU_object@@PAU1@0@Z PROC		; itemGetUseType, COMDAT

; 356  : {

  00000	55		 push	 ebp
  00001	8b ec		 mov	 ebp, esp
  00003	51		 push	 ecx

; 357  : 	int iItemVID;
; 358  : 	if (!PyTuple_GetInteger(poArgs, 0, &iItemVID))

  00004	8d 45 fc	 lea	 eax, DWORD PTR _iItemVID$[ebp]
  00007	50		 push	 eax
  00008	6a 00		 push	 0
  0000a	ff 75 0c	 push	 DWORD PTR _poArgs$[ebp]
  0000d	e8 00 00 00 00	 call	 ?PyTuple_GetInteger@@YA_NPAU_object@@HPAH@Z ; PyTuple_GetInteger
  00012	83 c4 0c	 add	 esp, 12			; 0000000cH
  00015	84 c0		 test	 al, al
  00017	75 09		 jne	 SHORT $LN2@itemGetUse

; 359  : 		return Py_BadArgument();

  00019	e8 00 00 00 00	 call	 ?Py_BadArgument@@YAPAU_object@@XZ ; Py_BadArgument

; 367  : }

  0001e	8b e5		 mov	 esp, ebp
  00020	5d		 pop	 ebp
  00021	c3		 ret	 0
$LN2@itemGetUse:
; File C:\Anka2Project\Anka2Project\Source\Binary\source\eterBase\Singleton.h

; 26   : 		assert(ms_singleton);

  00022	8b 0d 00 00 00
	00		 mov	 ecx, DWORD PTR ?ms_singleton@?$CSingleton@VCItemManager@@@@0PAVCItemManager@@A ; CSingleton<CItemManager>::ms_singleton
  00028	85 c9		 test	 ecx, ecx
  0002a	75 1a		 jne	 SHORT $LN7@itemGetUse
  0002c	6a 1a		 push	 26			; 0000001aH
  0002e	68 00 00 00 00	 push	 OFFSET ??_C@_1IO@CAJLEEOI@?$AAC?$AA?3?$AA?2?$AAA?$AAn?$AAk?$AAa?$AA2?$AAP?$AAr?$AAo?$AAj?$AAe?$AAc?$AAt@
  00033	68 00 00 00 00	 push	 OFFSET ??_C@_1BK@FMEHPMFE@?$AAm?$AAs?$AA_?$AAs?$AAi?$AAn?$AAg?$AAl?$AAe?$AAt?$AAo?$AAn@
  00038	e8 00 00 00 00	 call	 __wassert
  0003d	8b 0d 00 00 00
	00		 mov	 ecx, DWORD PTR ?ms_singleton@?$CSingleton@VCItemManager@@@@0PAVCItemManager@@A ; CSingleton<CItemManager>::ms_singleton
  00043	83 c4 0c	 add	 esp, 12			; 0000000cH
$LN7@itemGetUse:
; File C:\Anka2Project\Anka2Project\Source\Binary\source\UserInterface\PythonItemModule.cpp

; 361  : 	CItemManager::Instance().SelectItemData(iItemVID);

  00046	ff 75 fc	 push	 DWORD PTR _iItemVID$[ebp]
  00049	e8 00 00 00 00	 call	 ?SelectItemData@CItemManager@@QAEHK@Z ; CItemManager::SelectItemData
; File C:\Anka2Project\Anka2Project\Source\Binary\source\eterBase\Singleton.h

; 26   : 		assert(ms_singleton);

  0004e	8b 0d 00 00 00
	00		 mov	 ecx, DWORD PTR ?ms_singleton@?$CSingleton@VCItemManager@@@@0PAVCItemManager@@A ; CSingleton<CItemManager>::ms_singleton
  00054	85 c9		 test	 ecx, ecx
  00056	75 1a		 jne	 SHORT $LN10@itemGetUse
  00058	6a 1a		 push	 26			; 0000001aH
  0005a	68 00 00 00 00	 push	 OFFSET ??_C@_1IO@CAJLEEOI@?$AAC?$AA?3?$AA?2?$AAA?$AAn?$AAk?$AAa?$AA2?$AAP?$AAr?$AAo?$AAj?$AAe?$AAc?$AAt@
  0005f	68 00 00 00 00	 push	 OFFSET ??_C@_1BK@FMEHPMFE@?$AAm?$AAs?$AA_?$AAs?$AAi?$AAn?$AAg?$AAl?$AAe?$AAt?$AAo?$AAn@
  00064	e8 00 00 00 00	 call	 __wassert
  00069	8b 0d 00 00 00
	00		 mov	 ecx, DWORD PTR ?ms_singleton@?$CSingleton@VCItemManager@@@@0PAVCItemManager@@A ; CSingleton<CItemManager>::ms_singleton
  0006f	83 c4 0c	 add	 esp, 12			; 0000000cH
$LN10@itemGetUse:
; File C:\Anka2Project\Anka2Project\Source\Binary\source\UserInterface\PythonItemModule.cpp

; 362  : 	CItemData * pItemData = CItemManager::Instance().GetSelectedItemDataPointer();

  00072	e8 00 00 00 00	 call	 ?GetSelectedItemDataPointer@CItemManager@@QAEPAVCItemData@@XZ ; CItemManager::GetSelectedItemDataPointer

; 363  : 	if (!pItemData)

  00077	85 c0		 test	 eax, eax
  00079	75 11		 jne	 SHORT $LN3@itemGetUse

; 364  : 		return Py_BuildException("Can't find select item data");

  0007b	68 00 00 00 00	 push	 OFFSET ??_C@_0BM@KPLEGEEH@Can?8t?5find?5select?5item?5data@
  00080	e8 00 00 00 00	 call	 ?Py_BuildException@@YAPAU_object@@PBDZZ ; Py_BuildException
  00085	83 c4 04	 add	 esp, 4

; 367  : }

  00088	8b e5		 mov	 esp, ebp
  0008a	5d		 pop	 ebp
  0008b	c3		 ret	 0
$LN3@itemGetUse:

; 365  : 	
; 366  : 	return Py_BuildValue("s", pItemData->GetUseTypeString());	

  0008c	8b c8		 mov	 ecx, eax
  0008e	e8 00 00 00 00	 call	 ?GetUseTypeString@CItemData@@QBEPBDXZ ; CItemData::GetUseTypeString
  00093	50		 push	 eax
  00094	68 00 00 00 00	 push	 OFFSET ??_C@_01LKDEMHDF@s@
  00099	ff 15 00 00 00
	00		 call	 DWORD PTR __imp__Py_BuildValue
  0009f	83 c4 08	 add	 esp, 8

; 367  : }

  000a2	8b e5		 mov	 esp, ebp
  000a4	5d		 pop	 ebp
  000a5	c3		 ret	 0
?itemGetUseType@@YAPAU_object@@PAU1@0@Z ENDP		; itemGetUseType
_TEXT	ENDS
; Function compile flags: /Ogtp
; File C:\Anka2Project\Anka2Project\Source\Binary\source\UserInterface\PythonItemModule.cpp
; File C:\Anka2Project\Anka2Project\Source\Binary\source\eterBase\Singleton.h
; File C:\Anka2Project\Anka2Project\Source\Binary\source\UserInterface\PythonItemModule.cpp
; File C:\Anka2Project\Anka2Project\Source\Binary\source\eterBase\Singleton.h
; File C:\Anka2Project\Anka2Project\Source\Binary\source\UserInterface\PythonItemModule.cpp
;	COMDAT ?itemIsRefineScroll@@YAPAU_object@@PAU1@0@Z
_TEXT	SEGMENT
_iItemIndex$ = -4					; size = 4
_poSelf$ = 8						; size = 4
_poArgs$ = 12						; size = 4
?itemIsRefineScroll@@YAPAU_object@@PAU1@0@Z PROC	; itemIsRefineScroll, COMDAT

; 370  : {

  00000	55		 push	 ebp
  00001	8b ec		 mov	 ebp, esp
  00003	51		 push	 ecx

; 371  : 	int iItemIndex;
; 372  : 	if (!PyTuple_GetInteger(poArgs, 0, &iItemIndex))

  00004	8d 45 fc	 lea	 eax, DWORD PTR _iItemIndex$[ebp]
  00007	50		 push	 eax
  00008	6a 00		 push	 0
  0000a	ff 75 0c	 push	 DWORD PTR _poArgs$[ebp]
  0000d	e8 00 00 00 00	 call	 ?PyTuple_GetInteger@@YA_NPAU_object@@HPAH@Z ; PyTuple_GetInteger
  00012	83 c4 0c	 add	 esp, 12			; 0000000cH
  00015	84 c0		 test	 al, al
  00017	75 09		 jne	 SHORT $LN4@itemIsRefi

; 373  : 		return Py_BadArgument();

  00019	e8 00 00 00 00	 call	 ?Py_BadArgument@@YAPAU_object@@XZ ; Py_BadArgument

; 387  : 			break;
; 388  : 	}
; 389  : 	
; 390  : 	return Py_BuildValue("i", FALSE);
; 391  : }

  0001e	8b e5		 mov	 esp, ebp
  00020	5d		 pop	 ebp
  00021	c3		 ret	 0
$LN4@itemIsRefi:
; File C:\Anka2Project\Anka2Project\Source\Binary\source\eterBase\Singleton.h

; 26   : 		assert(ms_singleton);

  00022	8b 0d 00 00 00
	00		 mov	 ecx, DWORD PTR ?ms_singleton@?$CSingleton@VCItemManager@@@@0PAVCItemManager@@A ; CSingleton<CItemManager>::ms_singleton
  00028	85 c9		 test	 ecx, ecx
  0002a	75 1a		 jne	 SHORT $LN11@itemIsRefi
  0002c	6a 1a		 push	 26			; 0000001aH
  0002e	68 00 00 00 00	 push	 OFFSET ??_C@_1IO@CAJLEEOI@?$AAC?$AA?3?$AA?2?$AAA?$AAn?$AAk?$AAa?$AA2?$AAP?$AAr?$AAo?$AAj?$AAe?$AAc?$AAt@
  00033	68 00 00 00 00	 push	 OFFSET ??_C@_1BK@FMEHPMFE@?$AAm?$AAs?$AA_?$AAs?$AAi?$AAn?$AAg?$AAl?$AAe?$AAt?$AAo?$AAn@
  00038	e8 00 00 00 00	 call	 __wassert
  0003d	8b 0d 00 00 00
	00		 mov	 ecx, DWORD PTR ?ms_singleton@?$CSingleton@VCItemManager@@@@0PAVCItemManager@@A ; CSingleton<CItemManager>::ms_singleton
  00043	83 c4 0c	 add	 esp, 12			; 0000000cH
$LN11@itemIsRefi:
; File C:\Anka2Project\Anka2Project\Source\Binary\source\UserInterface\PythonItemModule.cpp

; 375  : 	CItemManager::Instance().SelectItemData(iItemIndex);

  00046	ff 75 fc	 push	 DWORD PTR _iItemIndex$[ebp]
  00049	e8 00 00 00 00	 call	 ?SelectItemData@CItemManager@@QAEHK@Z ; CItemManager::SelectItemData
; File C:\Anka2Project\Anka2Project\Source\Binary\source\eterBase\Singleton.h

; 26   : 		assert(ms_singleton);

  0004e	8b 0d 00 00 00
	00		 mov	 ecx, DWORD PTR ?ms_singleton@?$CSingleton@VCItemManager@@@@0PAVCItemManager@@A ; CSingleton<CItemManager>::ms_singleton
  00054	85 c9		 test	 ecx, ecx
  00056	75 1a		 jne	 SHORT $LN14@itemIsRefi
  00058	6a 1a		 push	 26			; 0000001aH
  0005a	68 00 00 00 00	 push	 OFFSET ??_C@_1IO@CAJLEEOI@?$AAC?$AA?3?$AA?2?$AAA?$AAn?$AAk?$AAa?$AA2?$AAP?$AAr?$AAo?$AAj?$AAe?$AAc?$AAt@
  0005f	68 00 00 00 00	 push	 OFFSET ??_C@_1BK@FMEHPMFE@?$AAm?$AAs?$AA_?$AAs?$AAi?$AAn?$AAg?$AAl?$AAe?$AAt?$AAo?$AAn@
  00064	e8 00 00 00 00	 call	 __wassert
  00069	8b 0d 00 00 00
	00		 mov	 ecx, DWORD PTR ?ms_singleton@?$CSingleton@VCItemManager@@@@0PAVCItemManager@@A ; CSingleton<CItemManager>::ms_singleton
  0006f	83 c4 0c	 add	 esp, 12			; 0000000cH
$LN14@itemIsRefi:
  00072	56		 push	 esi
; File C:\Anka2Project\Anka2Project\Source\Binary\source\UserInterface\PythonItemModule.cpp

; 376  : 	CItemData * pItemData = CItemManager::Instance().GetSelectedItemDataPointer();

  00073	e8 00 00 00 00	 call	 ?GetSelectedItemDataPointer@CItemManager@@QAEPAVCItemData@@XZ ; CItemManager::GetSelectedItemDataPointer
  00078	8b f0		 mov	 esi, eax

; 377  : 	if (!pItemData)

  0007a	85 f6		 test	 esi, esi
  0007c	75 12		 jne	 SHORT $LN5@itemIsRefi

; 378  : 		return Py_BuildException("Can't find select item data");

  0007e	68 00 00 00 00	 push	 OFFSET ??_C@_0BM@KPLEGEEH@Can?8t?5find?5select?5item?5data@
  00083	e8 00 00 00 00	 call	 ?Py_BuildException@@YAPAU_object@@PBDZZ ; Py_BuildException
  00088	83 c4 04	 add	 esp, 4
  0008b	5e		 pop	 esi

; 387  : 			break;
; 388  : 	}
; 389  : 	
; 390  : 	return Py_BuildValue("i", FALSE);
; 391  : }

  0008c	8b e5		 mov	 esp, ebp
  0008e	5d		 pop	 ebp
  0008f	c3		 ret	 0
$LN5@itemIsRefi:

; 379  : 
; 380  : 	if (pItemData->GetType() != CItemData::ITEM_TYPE_USE)

  00090	8b ce		 mov	 ecx, esi
  00092	e8 00 00 00 00	 call	 ?GetType@CItemData@@QBEEXZ ; CItemData::GetType
  00097	3c 03		 cmp	 al, 3
  00099	74 15		 je	 SHORT $LN6@itemIsRefi
$LN23@itemIsRefi:

; 384  : 	{
; 385  : 		case CItemData::USE_TUNING:
; 386  : 			return Py_BuildValue("i", TRUE);

  0009b	6a 00		 push	 0
  0009d	68 00 00 00 00	 push	 OFFSET ??_C@_01KBJDNOO@i@
  000a2	ff 15 00 00 00
	00		 call	 DWORD PTR __imp__Py_BuildValue
  000a8	83 c4 08	 add	 esp, 8
  000ab	5e		 pop	 esi

; 387  : 			break;
; 388  : 	}
; 389  : 	
; 390  : 	return Py_BuildValue("i", FALSE);
; 391  : }

  000ac	8b e5		 mov	 esp, ebp
  000ae	5d		 pop	 ebp
  000af	c3		 ret	 0
$LN6@itemIsRefi:

; 381  : 		return Py_BuildValue("i", FALSE);
; 382  : 	
; 383  : 	switch (pItemData->GetSubType())

  000b0	8b ce		 mov	 ecx, esi
  000b2	e8 00 00 00 00	 call	 ?GetSubType@CItemData@@QBEEXZ ; CItemData::GetSubType
  000b7	0f b6 c0	 movzx	 eax, al
  000ba	83 e8 02	 sub	 eax, 2
  000bd	75 dc		 jne	 SHORT $LN23@itemIsRefi

; 384  : 	{
; 385  : 		case CItemData::USE_TUNING:
; 386  : 			return Py_BuildValue("i", TRUE);

  000bf	6a 01		 push	 1
  000c1	68 00 00 00 00	 push	 OFFSET ??_C@_01KBJDNOO@i@
  000c6	ff 15 00 00 00
	00		 call	 DWORD PTR __imp__Py_BuildValue
  000cc	83 c4 08	 add	 esp, 8
  000cf	5e		 pop	 esi

; 387  : 			break;
; 388  : 	}
; 389  : 	
; 390  : 	return Py_BuildValue("i", FALSE);
; 391  : }

  000d0	8b e5		 mov	 esp, ebp
  000d2	5d		 pop	 ebp
  000d3	c3		 ret	 0
?itemIsRefineScroll@@YAPAU_object@@PAU1@0@Z ENDP	; itemIsRefineScroll
_TEXT	ENDS
; Function compile flags: /Ogtp
; File C:\Anka2Project\Anka2Project\Source\Binary\source\UserInterface\PythonItemModule.cpp
; File C:\Anka2Project\Anka2Project\Source\Binary\source\eterBase\Singleton.h
; File C:\Anka2Project\Anka2Project\Source\Binary\source\UserInterface\PythonItemModule.cpp
; File C:\Anka2Project\Anka2Project\Source\Binary\source\eterBase\Singleton.h
; File C:\Anka2Project\Anka2Project\Source\Binary\source\UserInterface\PythonItemModule.cpp
;	COMDAT ?itemIsDetachScroll@@YAPAU_object@@PAU1@0@Z
_TEXT	SEGMENT
_iItemIndex$ = -4					; size = 4
_poSelf$ = 8						; size = 4
_poArgs$ = 12						; size = 4
?itemIsDetachScroll@@YAPAU_object@@PAU1@0@Z PROC	; itemIsDetachScroll, COMDAT

; 394  : {

  00000	55		 push	 ebp
  00001	8b ec		 mov	 ebp, esp
  00003	51		 push	 ecx

; 395  : 	int iItemIndex;
; 396  : 	if (!PyTuple_GetInteger(poArgs, 0, &iItemIndex))

  00004	8d 45 fc	 lea	 eax, DWORD PTR _iItemIndex$[ebp]
  00007	50		 push	 eax
  00008	6a 00		 push	 0
  0000a	ff 75 0c	 push	 DWORD PTR _poArgs$[ebp]
  0000d	e8 00 00 00 00	 call	 ?PyTuple_GetInteger@@YA_NPAU_object@@HPAH@Z ; PyTuple_GetInteger
  00012	83 c4 0c	 add	 esp, 12			; 0000000cH
  00015	84 c0		 test	 al, al
  00017	75 09		 jne	 SHORT $LN2@itemIsDeta

; 397  : 		return Py_BadArgument();

  00019	e8 00 00 00 00	 call	 ?Py_BadArgument@@YAPAU_object@@XZ ; Py_BadArgument

; 413  : }

  0001e	8b e5		 mov	 esp, ebp
  00020	5d		 pop	 ebp
  00021	c3		 ret	 0
$LN2@itemIsDeta:
; File C:\Anka2Project\Anka2Project\Source\Binary\source\eterBase\Singleton.h

; 26   : 		assert(ms_singleton);

  00022	8b 0d 00 00 00
	00		 mov	 ecx, DWORD PTR ?ms_singleton@?$CSingleton@VCItemManager@@@@0PAVCItemManager@@A ; CSingleton<CItemManager>::ms_singleton
  00028	85 c9		 test	 ecx, ecx
  0002a	75 1a		 jne	 SHORT $LN9@itemIsDeta
  0002c	6a 1a		 push	 26			; 0000001aH
  0002e	68 00 00 00 00	 push	 OFFSET ??_C@_1IO@CAJLEEOI@?$AAC?$AA?3?$AA?2?$AAA?$AAn?$AAk?$AAa?$AA2?$AAP?$AAr?$AAo?$AAj?$AAe?$AAc?$AAt@
  00033	68 00 00 00 00	 push	 OFFSET ??_C@_1BK@FMEHPMFE@?$AAm?$AAs?$AA_?$AAs?$AAi?$AAn?$AAg?$AAl?$AAe?$AAt?$AAo?$AAn@
  00038	e8 00 00 00 00	 call	 __wassert
  0003d	8b 0d 00 00 00
	00		 mov	 ecx, DWORD PTR ?ms_singleton@?$CSingleton@VCItemManager@@@@0PAVCItemManager@@A ; CSingleton<CItemManager>::ms_singleton
  00043	83 c4 0c	 add	 esp, 12			; 0000000cH
$LN9@itemIsDeta:
; File C:\Anka2Project\Anka2Project\Source\Binary\source\UserInterface\PythonItemModule.cpp

; 399  : 	CItemManager::Instance().SelectItemData(iItemIndex);

  00046	ff 75 fc	 push	 DWORD PTR _iItemIndex$[ebp]
  00049	e8 00 00 00 00	 call	 ?SelectItemData@CItemManager@@QAEHK@Z ; CItemManager::SelectItemData
; File C:\Anka2Project\Anka2Project\Source\Binary\source\eterBase\Singleton.h

; 26   : 		assert(ms_singleton);

  0004e	8b 0d 00 00 00
	00		 mov	 ecx, DWORD PTR ?ms_singleton@?$CSingleton@VCItemManager@@@@0PAVCItemManager@@A ; CSingleton<CItemManager>::ms_singleton
  00054	85 c9		 test	 ecx, ecx
  00056	75 1a		 jne	 SHORT $LN12@itemIsDeta
  00058	6a 1a		 push	 26			; 0000001aH
  0005a	68 00 00 00 00	 push	 OFFSET ??_C@_1IO@CAJLEEOI@?$AAC?$AA?3?$AA?2?$AAA?$AAn?$AAk?$AAa?$AA2?$AAP?$AAr?$AAo?$AAj?$AAe?$AAc?$AAt@
  0005f	68 00 00 00 00	 push	 OFFSET ??_C@_1BK@FMEHPMFE@?$AAm?$AAs?$AA_?$AAs?$AAi?$AAn?$AAg?$AAl?$AAe?$AAt?$AAo?$AAn@
  00064	e8 00 00 00 00	 call	 __wassert
  00069	8b 0d 00 00 00
	00		 mov	 ecx, DWORD PTR ?ms_singleton@?$CSingleton@VCItemManager@@@@0PAVCItemManager@@A ; CSingleton<CItemManager>::ms_singleton
  0006f	83 c4 0c	 add	 esp, 12			; 0000000cH
$LN12@itemIsDeta:
  00072	56		 push	 esi
; File C:\Anka2Project\Anka2Project\Source\Binary\source\UserInterface\PythonItemModule.cpp

; 400  : 	CItemData * pItemData = CItemManager::Instance().GetSelectedItemDataPointer();

  00073	e8 00 00 00 00	 call	 ?GetSelectedItemDataPointer@CItemManager@@QAEPAVCItemData@@XZ ; CItemManager::GetSelectedItemDataPointer
  00078	8b f0		 mov	 esi, eax

; 401  : 	if (!pItemData)

  0007a	85 f6		 test	 esi, esi
  0007c	75 12		 jne	 SHORT $LN3@itemIsDeta

; 402  : 		return Py_BuildException("Can't find select item data");

  0007e	68 00 00 00 00	 push	 OFFSET ??_C@_0BM@KPLEGEEH@Can?8t?5find?5select?5item?5data@
  00083	e8 00 00 00 00	 call	 ?Py_BuildException@@YAPAU_object@@PBDZZ ; Py_BuildException
  00088	83 c4 04	 add	 esp, 4
  0008b	5e		 pop	 esi

; 413  : }

  0008c	8b e5		 mov	 esp, ebp
  0008e	5d		 pop	 ebp
  0008f	c3		 ret	 0
$LN3@itemIsDeta:
  00090	53		 push	 ebx

; 403  : 
; 404  : 	int iType = pItemData->GetType();

  00091	8b ce		 mov	 ecx, esi
  00093	e8 00 00 00 00	 call	 ?GetType@CItemData@@QBEEXZ ; CItemData::GetType

; 405  : 	int iSubType = pItemData->GetSubType();

  00098	8b ce		 mov	 ecx, esi
  0009a	8a d8		 mov	 bl, al
  0009c	e8 00 00 00 00	 call	 ?GetSubType@CItemData@@QBEEXZ ; CItemData::GetSubType

; 406  : 	if (iType == CItemData::ITEM_TYPE_USE)

  000a1	80 fb 03	 cmp	 bl, 3
  000a4	5b		 pop	 ebx
  000a5	75 19		 jne	 SHORT $LN5@itemIsDeta

; 407  : 	if (iSubType == CItemData::USE_DETACHMENT)

  000a7	3c 0e		 cmp	 al, 14			; 0000000eH
  000a9	75 15		 jne	 SHORT $LN5@itemIsDeta

; 408  : 	{
; 409  : 		return Py_BuildValue("i", TRUE);

  000ab	6a 01		 push	 1

; 410  : 	}
; 411  : 
; 412  : 	return Py_BuildValue("i", FALSE);

  000ad	68 00 00 00 00	 push	 OFFSET ??_C@_01KBJDNOO@i@
  000b2	ff 15 00 00 00
	00		 call	 DWORD PTR __imp__Py_BuildValue
  000b8	83 c4 08	 add	 esp, 8
  000bb	5e		 pop	 esi

; 413  : }

  000bc	8b e5		 mov	 esp, ebp
  000be	5d		 pop	 ebp
  000bf	c3		 ret	 0
$LN5@itemIsDeta:

; 410  : 	}
; 411  : 
; 412  : 	return Py_BuildValue("i", FALSE);

  000c0	6a 00		 push	 0
  000c2	68 00 00 00 00	 push	 OFFSET ??_C@_01KBJDNOO@i@
  000c7	ff 15 00 00 00
	00		 call	 DWORD PTR __imp__Py_BuildValue
  000cd	83 c4 08	 add	 esp, 8
  000d0	5e		 pop	 esi

; 413  : }

  000d1	8b e5		 mov	 esp, ebp
  000d3	5d		 pop	 ebp
  000d4	c3		 ret	 0
?itemIsDetachScroll@@YAPAU_object@@PAU1@0@Z ENDP	; itemIsDetachScroll
_TEXT	ENDS
; Function compile flags: /Ogtp
; File C:\Anka2Project\Anka2Project\Source\Binary\source\UserInterface\PythonItemModule.cpp
; File C:\Anka2Project\Anka2Project\Source\Binary\source\eterBase\Singleton.h
; File C:\Anka2Project\Anka2Project\Source\Binary\source\UserInterface\PythonItemModule.cpp
; File C:\Anka2Project\Anka2Project\Source\Binary\source\eterBase\Singleton.h
; File C:\Anka2Project\Anka2Project\Source\Binary\source\UserInterface\PythonItemModule.cpp
;	COMDAT ?itemCanAddToQuickSlotItem@@YAPAU_object@@PAU1@0@Z
_TEXT	SEGMENT
_iItemIndex$ = -4					; size = 4
_poSelf$ = 8						; size = 4
_poArgs$ = 12						; size = 4
?itemCanAddToQuickSlotItem@@YAPAU_object@@PAU1@0@Z PROC	; itemCanAddToQuickSlotItem, COMDAT

; 416  : {

  00000	55		 push	 ebp
  00001	8b ec		 mov	 ebp, esp
  00003	51		 push	 ecx

; 417  : 	int iItemIndex;
; 418  : 	if (!PyTuple_GetInteger(poArgs, 0, &iItemIndex))

  00004	8d 45 fc	 lea	 eax, DWORD PTR _iItemIndex$[ebp]
  00007	50		 push	 eax
  00008	6a 00		 push	 0
  0000a	ff 75 0c	 push	 DWORD PTR _poArgs$[ebp]
  0000d	e8 00 00 00 00	 call	 ?PyTuple_GetInteger@@YA_NPAU_object@@HPAH@Z ; PyTuple_GetInteger
  00012	83 c4 0c	 add	 esp, 12			; 0000000cH
  00015	84 c0		 test	 al, al
  00017	75 09		 jne	 SHORT $LN2@itemCanAdd

; 419  : 		return Py_BadArgument();

  00019	e8 00 00 00 00	 call	 ?Py_BadArgument@@YAPAU_object@@XZ ; Py_BadArgument

; 439  : }

  0001e	8b e5		 mov	 esp, ebp
  00020	5d		 pop	 ebp
  00021	c3		 ret	 0
$LN2@itemCanAdd:
; File C:\Anka2Project\Anka2Project\Source\Binary\source\eterBase\Singleton.h

; 26   : 		assert(ms_singleton);

  00022	8b 0d 00 00 00
	00		 mov	 ecx, DWORD PTR ?ms_singleton@?$CSingleton@VCItemManager@@@@0PAVCItemManager@@A ; CSingleton<CItemManager>::ms_singleton
  00028	85 c9		 test	 ecx, ecx
  0002a	75 1a		 jne	 SHORT $LN10@itemCanAdd
  0002c	6a 1a		 push	 26			; 0000001aH
  0002e	68 00 00 00 00	 push	 OFFSET ??_C@_1IO@CAJLEEOI@?$AAC?$AA?3?$AA?2?$AAA?$AAn?$AAk?$AAa?$AA2?$AAP?$AAr?$AAo?$AAj?$AAe?$AAc?$AAt@
  00033	68 00 00 00 00	 push	 OFFSET ??_C@_1BK@FMEHPMFE@?$AAm?$AAs?$AA_?$AAs?$AAi?$AAn?$AAg?$AAl?$AAe?$AAt?$AAo?$AAn@
  00038	e8 00 00 00 00	 call	 __wassert
  0003d	8b 0d 00 00 00
	00		 mov	 ecx, DWORD PTR ?ms_singleton@?$CSingleton@VCItemManager@@@@0PAVCItemManager@@A ; CSingleton<CItemManager>::ms_singleton
  00043	83 c4 0c	 add	 esp, 12			; 0000000cH
$LN10@itemCanAdd:
; File C:\Anka2Project\Anka2Project\Source\Binary\source\UserInterface\PythonItemModule.cpp

; 421  : 	CItemManager::Instance().SelectItemData(iItemIndex);

  00046	ff 75 fc	 push	 DWORD PTR _iItemIndex$[ebp]
  00049	e8 00 00 00 00	 call	 ?SelectItemData@CItemManager@@QAEHK@Z ; CItemManager::SelectItemData
; File C:\Anka2Project\Anka2Project\Source\Binary\source\eterBase\Singleton.h

; 26   : 		assert(ms_singleton);

  0004e	8b 0d 00 00 00
	00		 mov	 ecx, DWORD PTR ?ms_singleton@?$CSingleton@VCItemManager@@@@0PAVCItemManager@@A ; CSingleton<CItemManager>::ms_singleton
  00054	85 c9		 test	 ecx, ecx
  00056	75 1a		 jne	 SHORT $LN13@itemCanAdd
  00058	6a 1a		 push	 26			; 0000001aH
  0005a	68 00 00 00 00	 push	 OFFSET ??_C@_1IO@CAJLEEOI@?$AAC?$AA?3?$AA?2?$AAA?$AAn?$AAk?$AAa?$AA2?$AAP?$AAr?$AAo?$AAj?$AAe?$AAc?$AAt@
  0005f	68 00 00 00 00	 push	 OFFSET ??_C@_1BK@FMEHPMFE@?$AAm?$AAs?$AA_?$AAs?$AAi?$AAn?$AAg?$AAl?$AAe?$AAt?$AAo?$AAn@
  00064	e8 00 00 00 00	 call	 __wassert
  00069	8b 0d 00 00 00
	00		 mov	 ecx, DWORD PTR ?ms_singleton@?$CSingleton@VCItemManager@@@@0PAVCItemManager@@A ; CSingleton<CItemManager>::ms_singleton
  0006f	83 c4 0c	 add	 esp, 12			; 0000000cH
$LN13@itemCanAdd:
  00072	56		 push	 esi
; File C:\Anka2Project\Anka2Project\Source\Binary\source\UserInterface\PythonItemModule.cpp

; 422  : 	CItemData * pItemData = CItemManager::Instance().GetSelectedItemDataPointer();

  00073	e8 00 00 00 00	 call	 ?GetSelectedItemDataPointer@CItemManager@@QAEPAVCItemData@@XZ ; CItemManager::GetSelectedItemDataPointer
  00078	8b f0		 mov	 esi, eax

; 423  : 	if (!pItemData)

  0007a	85 f6		 test	 esi, esi
  0007c	75 12		 jne	 SHORT $LN3@itemCanAdd

; 424  : 		return Py_BuildException("Can't find select item data");

  0007e	68 00 00 00 00	 push	 OFFSET ??_C@_0BM@KPLEGEEH@Can?8t?5find?5select?5item?5data@
  00083	e8 00 00 00 00	 call	 ?Py_BuildException@@YAPAU_object@@PBDZZ ; Py_BuildException
  00088	83 c4 04	 add	 esp, 4
  0008b	5e		 pop	 esi

; 439  : }

  0008c	8b e5		 mov	 esp, ebp
  0008e	5d		 pop	 ebp
  0008f	c3		 ret	 0
$LN3@itemCanAdd:

; 425  : 
; 426  : 	if (CItemData::ITEM_TYPE_USE == pItemData->GetType() || CItemData::ITEM_TYPE_QUEST == pItemData->GetType())

  00090	8b ce		 mov	 ecx, esi
  00092	e8 00 00 00 00	 call	 ?GetType@CItemData@@QBEEXZ ; CItemData::GetType
  00097	3c 03		 cmp	 al, 3
  00099	74 36		 je	 SHORT $LN5@itemCanAdd
  0009b	8b ce		 mov	 ecx, esi
  0009d	e8 00 00 00 00	 call	 ?GetType@CItemData@@QBEEXZ ; CItemData::GetType
  000a2	3c 12		 cmp	 al, 18			; 00000012H
  000a4	74 2b		 je	 SHORT $LN5@itemCanAdd

; 429  : 	}
; 430  : 
; 431  : #ifdef ENABLE_GROWTH_PET_SYSTEM
; 432  : 	if (CItemData::ITEM_TYPE_GROWTH_PET == pItemData->GetType() && CItemData::PET_UPBRINGING == pItemData->GetSubType())

  000a6	8b ce		 mov	 ecx, esi
  000a8	e8 00 00 00 00	 call	 ?GetType@CItemData@@QBEEXZ ; CItemData::GetType
  000ad	3c 24		 cmp	 al, 36			; 00000024H
  000af	75 0b		 jne	 SHORT $LN6@itemCanAdd
  000b1	8b ce		 mov	 ecx, esi
  000b3	e8 00 00 00 00	 call	 ?GetSubType@CItemData@@QBEEXZ ; CItemData::GetSubType
  000b8	3c 01		 cmp	 al, 1
  000ba	74 15		 je	 SHORT $LN5@itemCanAdd
$LN6@itemCanAdd:

; 433  : 	{
; 434  : 		return Py_BuildValue("i", TRUE);
; 435  : 	}
; 436  : #endif
; 437  : 
; 438  : 	return Py_BuildValue("i", FALSE);

  000bc	6a 00		 push	 0
  000be	68 00 00 00 00	 push	 OFFSET ??_C@_01KBJDNOO@i@
  000c3	ff 15 00 00 00
	00		 call	 DWORD PTR __imp__Py_BuildValue
  000c9	83 c4 08	 add	 esp, 8
  000cc	5e		 pop	 esi

; 439  : }

  000cd	8b e5		 mov	 esp, ebp
  000cf	5d		 pop	 ebp
  000d0	c3		 ret	 0
$LN5@itemCanAdd:

; 427  : 	{
; 428  : 		return Py_BuildValue("i", TRUE);

  000d1	6a 01		 push	 1
  000d3	68 00 00 00 00	 push	 OFFSET ??_C@_01KBJDNOO@i@
  000d8	ff 15 00 00 00
	00		 call	 DWORD PTR __imp__Py_BuildValue
  000de	83 c4 08	 add	 esp, 8
  000e1	5e		 pop	 esi

; 439  : }

  000e2	8b e5		 mov	 esp, ebp
  000e4	5d		 pop	 ebp
  000e5	c3		 ret	 0
?itemCanAddToQuickSlotItem@@YAPAU_object@@PAU1@0@Z ENDP	; itemCanAddToQuickSlotItem
_TEXT	ENDS
; Function compile flags: /Ogtp
; File C:\Anka2Project\Anka2Project\Source\Binary\source\UserInterface\PythonItemModule.cpp
; File C:\Anka2Project\Anka2Project\Source\Binary\source\eterBase\Singleton.h
; File C:\Anka2Project\Anka2Project\Source\Binary\source\UserInterface\PythonItemModule.cpp
; File C:\Anka2Project\Anka2Project\Source\Binary\source\eterBase\Singleton.h
; File C:\Anka2Project\Anka2Project\Source\Binary\source\UserInterface\PythonItemModule.cpp
;	COMDAT ?itemIsKey@@YAPAU_object@@PAU1@0@Z
_TEXT	SEGMENT
_iItemIndex$ = -4					; size = 4
_poSelf$ = 8						; size = 4
_poArgs$ = 12						; size = 4
?itemIsKey@@YAPAU_object@@PAU1@0@Z PROC			; itemIsKey, COMDAT

; 442  : {

  00000	55		 push	 ebp
  00001	8b ec		 mov	 ebp, esp
  00003	51		 push	 ecx

; 443  : 	int iItemIndex;
; 444  : 	if (!PyTuple_GetInteger(poArgs, 0, &iItemIndex))

  00004	8d 45 fc	 lea	 eax, DWORD PTR _iItemIndex$[ebp]
  00007	50		 push	 eax
  00008	6a 00		 push	 0
  0000a	ff 75 0c	 push	 DWORD PTR _poArgs$[ebp]
  0000d	e8 00 00 00 00	 call	 ?PyTuple_GetInteger@@YA_NPAU_object@@HPAH@Z ; PyTuple_GetInteger
  00012	83 c4 0c	 add	 esp, 12			; 0000000cH
  00015	84 c0		 test	 al, al
  00017	75 09		 jne	 SHORT $LN2@itemIsKey

; 445  : 		return Py_BadArgument();

  00019	e8 00 00 00 00	 call	 ?Py_BadArgument@@YAPAU_object@@XZ ; Py_BadArgument

; 458  : }

  0001e	8b e5		 mov	 esp, ebp
  00020	5d		 pop	 ebp
  00021	c3		 ret	 0
$LN2@itemIsKey:
; File C:\Anka2Project\Anka2Project\Source\Binary\source\eterBase\Singleton.h

; 26   : 		assert(ms_singleton);

  00022	8b 0d 00 00 00
	00		 mov	 ecx, DWORD PTR ?ms_singleton@?$CSingleton@VCItemManager@@@@0PAVCItemManager@@A ; CSingleton<CItemManager>::ms_singleton
  00028	85 c9		 test	 ecx, ecx
  0002a	75 1a		 jne	 SHORT $LN8@itemIsKey
  0002c	6a 1a		 push	 26			; 0000001aH
  0002e	68 00 00 00 00	 push	 OFFSET ??_C@_1IO@CAJLEEOI@?$AAC?$AA?3?$AA?2?$AAA?$AAn?$AAk?$AAa?$AA2?$AAP?$AAr?$AAo?$AAj?$AAe?$AAc?$AAt@
  00033	68 00 00 00 00	 push	 OFFSET ??_C@_1BK@FMEHPMFE@?$AAm?$AAs?$AA_?$AAs?$AAi?$AAn?$AAg?$AAl?$AAe?$AAt?$AAo?$AAn@
  00038	e8 00 00 00 00	 call	 __wassert
  0003d	8b 0d 00 00 00
	00		 mov	 ecx, DWORD PTR ?ms_singleton@?$CSingleton@VCItemManager@@@@0PAVCItemManager@@A ; CSingleton<CItemManager>::ms_singleton
  00043	83 c4 0c	 add	 esp, 12			; 0000000cH
$LN8@itemIsKey:
; File C:\Anka2Project\Anka2Project\Source\Binary\source\UserInterface\PythonItemModule.cpp

; 447  : 	CItemManager::Instance().SelectItemData(iItemIndex);

  00046	ff 75 fc	 push	 DWORD PTR _iItemIndex$[ebp]
  00049	e8 00 00 00 00	 call	 ?SelectItemData@CItemManager@@QAEHK@Z ; CItemManager::SelectItemData
; File C:\Anka2Project\Anka2Project\Source\Binary\source\eterBase\Singleton.h

; 26   : 		assert(ms_singleton);

  0004e	8b 0d 00 00 00
	00		 mov	 ecx, DWORD PTR ?ms_singleton@?$CSingleton@VCItemManager@@@@0PAVCItemManager@@A ; CSingleton<CItemManager>::ms_singleton
  00054	85 c9		 test	 ecx, ecx
  00056	75 1a		 jne	 SHORT $LN11@itemIsKey
  00058	6a 1a		 push	 26			; 0000001aH
  0005a	68 00 00 00 00	 push	 OFFSET ??_C@_1IO@CAJLEEOI@?$AAC?$AA?3?$AA?2?$AAA?$AAn?$AAk?$AAa?$AA2?$AAP?$AAr?$AAo?$AAj?$AAe?$AAc?$AAt@
  0005f	68 00 00 00 00	 push	 OFFSET ??_C@_1BK@FMEHPMFE@?$AAm?$AAs?$AA_?$AAs?$AAi?$AAn?$AAg?$AAl?$AAe?$AAt?$AAo?$AAn@
  00064	e8 00 00 00 00	 call	 __wassert
  00069	8b 0d 00 00 00
	00		 mov	 ecx, DWORD PTR ?ms_singleton@?$CSingleton@VCItemManager@@@@0PAVCItemManager@@A ; CSingleton<CItemManager>::ms_singleton
  0006f	83 c4 0c	 add	 esp, 12			; 0000000cH
$LN11@itemIsKey:
; File C:\Anka2Project\Anka2Project\Source\Binary\source\UserInterface\PythonItemModule.cpp

; 448  : 	CItemData * pItemData = CItemManager::Instance().GetSelectedItemDataPointer();

  00072	e8 00 00 00 00	 call	 ?GetSelectedItemDataPointer@CItemManager@@QAEPAVCItemData@@XZ ; CItemManager::GetSelectedItemDataPointer

; 449  : 	if (!pItemData)

  00077	85 c0		 test	 eax, eax
  00079	75 11		 jne	 SHORT $LN3@itemIsKey

; 450  : 		return Py_BuildException("Can't find select item data");

  0007b	68 00 00 00 00	 push	 OFFSET ??_C@_0BM@KPLEGEEH@Can?8t?5find?5select?5item?5data@
  00080	e8 00 00 00 00	 call	 ?Py_BuildException@@YAPAU_object@@PBDZZ ; Py_BuildException
  00085	83 c4 04	 add	 esp, 4

; 458  : }

  00088	8b e5		 mov	 esp, ebp
  0008a	5d		 pop	 ebp
  0008b	c3		 ret	 0
$LN3@itemIsKey:

; 451  : 
; 452  : 	if (CItemData::ITEM_TYPE_TREASURE_KEY == pItemData->GetType())

  0008c	8b c8		 mov	 ecx, eax
  0008e	e8 00 00 00 00	 call	 ?GetType@CItemData@@QBEEXZ ; CItemData::GetType
  00093	3c 15		 cmp	 al, 21			; 00000015H
  00095	75 14		 jne	 SHORT $LN4@itemIsKey

; 453  : 	{
; 454  : 		return Py_BuildValue("i", TRUE);

  00097	6a 01		 push	 1

; 458  : }

  00099	68 00 00 00 00	 push	 OFFSET ??_C@_01KBJDNOO@i@
  0009e	ff 15 00 00 00
	00		 call	 DWORD PTR __imp__Py_BuildValue
  000a4	83 c4 08	 add	 esp, 8
  000a7	8b e5		 mov	 esp, ebp
  000a9	5d		 pop	 ebp
  000aa	c3		 ret	 0
$LN4@itemIsKey:

; 455  : 	}
; 456  : 
; 457  : 	return Py_BuildValue("i", FALSE);

  000ab	6a 00		 push	 0

; 458  : }

  000ad	68 00 00 00 00	 push	 OFFSET ??_C@_01KBJDNOO@i@
  000b2	ff 15 00 00 00
	00		 call	 DWORD PTR __imp__Py_BuildValue
  000b8	83 c4 08	 add	 esp, 8
  000bb	8b e5		 mov	 esp, ebp
  000bd	5d		 pop	 ebp
  000be	c3		 ret	 0
?itemIsKey@@YAPAU_object@@PAU1@0@Z ENDP			; itemIsKey
_TEXT	ENDS
; Function compile flags: /Ogtp
; File C:\Anka2Project\Anka2Project\Source\Binary\source\UserInterface\PythonItemModule.cpp
; File C:\Anka2Project\Anka2Project\Source\Binary\source\eterBase\Singleton.h
; File C:\Anka2Project\Anka2Project\Source\Binary\source\UserInterface\PythonItemModule.cpp
; File C:\Anka2Project\Anka2Project\Source\Binary\source\eterBase\Singleton.h
; File C:\Anka2Project\Anka2Project\Source\Binary\source\UserInterface\PythonItemModule.cpp
;	COMDAT ?itemIsMetin@@YAPAU_object@@PAU1@0@Z
_TEXT	SEGMENT
_iItemIndex$ = -4					; size = 4
_poSelf$ = 8						; size = 4
_poArgs$ = 12						; size = 4
?itemIsMetin@@YAPAU_object@@PAU1@0@Z PROC		; itemIsMetin, COMDAT

; 461  : {

  00000	55		 push	 ebp
  00001	8b ec		 mov	 ebp, esp
  00003	51		 push	 ecx

; 462  : 	int iItemIndex;
; 463  : 	if (!PyTuple_GetInteger(poArgs, 0, &iItemIndex))

  00004	8d 45 fc	 lea	 eax, DWORD PTR _iItemIndex$[ebp]
  00007	50		 push	 eax
  00008	6a 00		 push	 0
  0000a	ff 75 0c	 push	 DWORD PTR _poArgs$[ebp]
  0000d	e8 00 00 00 00	 call	 ?PyTuple_GetInteger@@YA_NPAU_object@@HPAH@Z ; PyTuple_GetInteger
  00012	83 c4 0c	 add	 esp, 12			; 0000000cH
  00015	84 c0		 test	 al, al
  00017	75 09		 jne	 SHORT $LN2@itemIsMeti

; 464  : 		return Py_BadArgument();

  00019	e8 00 00 00 00	 call	 ?Py_BadArgument@@YAPAU_object@@XZ ; Py_BadArgument

; 477  : }

  0001e	8b e5		 mov	 esp, ebp
  00020	5d		 pop	 ebp
  00021	c3		 ret	 0
$LN2@itemIsMeti:
; File C:\Anka2Project\Anka2Project\Source\Binary\source\eterBase\Singleton.h

; 26   : 		assert(ms_singleton);

  00022	8b 0d 00 00 00
	00		 mov	 ecx, DWORD PTR ?ms_singleton@?$CSingleton@VCItemManager@@@@0PAVCItemManager@@A ; CSingleton<CItemManager>::ms_singleton
  00028	85 c9		 test	 ecx, ecx
  0002a	75 1a		 jne	 SHORT $LN8@itemIsMeti
  0002c	6a 1a		 push	 26			; 0000001aH
  0002e	68 00 00 00 00	 push	 OFFSET ??_C@_1IO@CAJLEEOI@?$AAC?$AA?3?$AA?2?$AAA?$AAn?$AAk?$AAa?$AA2?$AAP?$AAr?$AAo?$AAj?$AAe?$AAc?$AAt@
  00033	68 00 00 00 00	 push	 OFFSET ??_C@_1BK@FMEHPMFE@?$AAm?$AAs?$AA_?$AAs?$AAi?$AAn?$AAg?$AAl?$AAe?$AAt?$AAo?$AAn@
  00038	e8 00 00 00 00	 call	 __wassert
  0003d	8b 0d 00 00 00
	00		 mov	 ecx, DWORD PTR ?ms_singleton@?$CSingleton@VCItemManager@@@@0PAVCItemManager@@A ; CSingleton<CItemManager>::ms_singleton
  00043	83 c4 0c	 add	 esp, 12			; 0000000cH
$LN8@itemIsMeti:
; File C:\Anka2Project\Anka2Project\Source\Binary\source\UserInterface\PythonItemModule.cpp

; 466  : 	CItemManager::Instance().SelectItemData(iItemIndex);

  00046	ff 75 fc	 push	 DWORD PTR _iItemIndex$[ebp]
  00049	e8 00 00 00 00	 call	 ?SelectItemData@CItemManager@@QAEHK@Z ; CItemManager::SelectItemData
; File C:\Anka2Project\Anka2Project\Source\Binary\source\eterBase\Singleton.h

; 26   : 		assert(ms_singleton);

  0004e	8b 0d 00 00 00
	00		 mov	 ecx, DWORD PTR ?ms_singleton@?$CSingleton@VCItemManager@@@@0PAVCItemManager@@A ; CSingleton<CItemManager>::ms_singleton
  00054	85 c9		 test	 ecx, ecx
  00056	75 1a		 jne	 SHORT $LN11@itemIsMeti
  00058	6a 1a		 push	 26			; 0000001aH
  0005a	68 00 00 00 00	 push	 OFFSET ??_C@_1IO@CAJLEEOI@?$AAC?$AA?3?$AA?2?$AAA?$AAn?$AAk?$AAa?$AA2?$AAP?$AAr?$AAo?$AAj?$AAe?$AAc?$AAt@
  0005f	68 00 00 00 00	 push	 OFFSET ??_C@_1BK@FMEHPMFE@?$AAm?$AAs?$AA_?$AAs?$AAi?$AAn?$AAg?$AAl?$AAe?$AAt?$AAo?$AAn@
  00064	e8 00 00 00 00	 call	 __wassert
  00069	8b 0d 00 00 00
	00		 mov	 ecx, DWORD PTR ?ms_singleton@?$CSingleton@VCItemManager@@@@0PAVCItemManager@@A ; CSingleton<CItemManager>::ms_singleton
  0006f	83 c4 0c	 add	 esp, 12			; 0000000cH
$LN11@itemIsMeti:
; File C:\Anka2Project\Anka2Project\Source\Binary\source\UserInterface\PythonItemModule.cpp

; 467  : 	CItemData * pItemData = CItemManager::Instance().GetSelectedItemDataPointer();

  00072	e8 00 00 00 00	 call	 ?GetSelectedItemDataPointer@CItemManager@@QAEPAVCItemData@@XZ ; CItemManager::GetSelectedItemDataPointer

; 468  : 	if (!pItemData)

  00077	85 c0		 test	 eax, eax
  00079	75 11		 jne	 SHORT $LN3@itemIsMeti

; 469  : 		return Py_BuildException("Can't find select item data");

  0007b	68 00 00 00 00	 push	 OFFSET ??_C@_0BM@KPLEGEEH@Can?8t?5find?5select?5item?5data@
  00080	e8 00 00 00 00	 call	 ?Py_BuildException@@YAPAU_object@@PBDZZ ; Py_BuildException
  00085	83 c4 04	 add	 esp, 4

; 477  : }

  00088	8b e5		 mov	 esp, ebp
  0008a	5d		 pop	 ebp
  0008b	c3		 ret	 0
$LN3@itemIsMeti:

; 470  : 
; 471  : 	if (CItemData::ITEM_TYPE_METIN == pItemData->GetType())

  0008c	8b c8		 mov	 ecx, eax
  0008e	e8 00 00 00 00	 call	 ?GetType@CItemData@@QBEEXZ ; CItemData::GetType
  00093	3c 0a		 cmp	 al, 10			; 0000000aH
  00095	75 14		 jne	 SHORT $LN4@itemIsMeti

; 472  : 	{
; 473  : 		return Py_BuildValue("i", TRUE);

  00097	6a 01		 push	 1

; 477  : }

  00099	68 00 00 00 00	 push	 OFFSET ??_C@_01KBJDNOO@i@
  0009e	ff 15 00 00 00
	00		 call	 DWORD PTR __imp__Py_BuildValue
  000a4	83 c4 08	 add	 esp, 8
  000a7	8b e5		 mov	 esp, ebp
  000a9	5d		 pop	 ebp
  000aa	c3		 ret	 0
$LN4@itemIsMeti:

; 474  : 	}
; 475  : 
; 476  : 	return Py_BuildValue("i", FALSE);

  000ab	6a 00		 push	 0

; 477  : }

  000ad	68 00 00 00 00	 push	 OFFSET ??_C@_01KBJDNOO@i@
  000b2	ff 15 00 00 00
	00		 call	 DWORD PTR __imp__Py_BuildValue
  000b8	83 c4 08	 add	 esp, 8
  000bb	8b e5		 mov	 esp, ebp
  000bd	5d		 pop	 ebp
  000be	c3		 ret	 0
?itemIsMetin@@YAPAU_object@@PAU1@0@Z ENDP		; itemIsMetin
_TEXT	ENDS
; Function compile flags: /Ogtp
; File C:\Anka2Project\Anka2Project\Source\Binary\source\UserInterface\PythonItemModule.cpp
; File C:\Anka2Project\Anka2Project\Source\Binary\source\UserInterface\AbstractSingleton.h
; File C:\Anka2Project\Anka2Project\Source\Binary\source\UserInterface\PythonItemModule.cpp
; File C:\Anka2Project\Anka2Project\Source\Binary\source\UserInterface\AbstractSingleton.h
; File C:\Anka2Project\Anka2Project\Source\Binary\source\UserInterface\PythonItemModule.cpp
; File C:\Anka2Project\Anka2Project\Source\Binary\source\eterBase\Singleton.h
; File C:\Anka2Project\Anka2Project\Source\Binary\source\UserInterface\PythonItemModule.cpp
;	COMDAT ?itemUpdate@@YAPAU_object@@PAU1@0@Z
_TEXT	SEGMENT
_ptMouse$ = -8						; size = 8
_poSelf$ = 8						; size = 4
_poArgs$ = 12						; size = 4
?itemUpdate@@YAPAU_object@@PAU1@0@Z PROC		; itemUpdate, COMDAT

; 486  : {

  00000	55		 push	 ebp
  00001	8b ec		 mov	 ebp, esp
  00003	83 e4 f8	 and	 esp, -8			; fffffff8H
; File C:\Anka2Project\Anka2Project\Source\Binary\source\UserInterface\AbstractSingleton.h

; 24   : 		assert(ms_singleton!=nullptr);

  00006	8b 0d 00 00 00
	00		 mov	 ecx, DWORD PTR ?ms_singleton@?$TAbstractSingleton@VIAbstractApplication@@@@0PAVIAbstractApplication@@A ; TAbstractSingleton<IAbstractApplication>::ms_singleton
; File C:\Anka2Project\Anka2Project\Source\Binary\source\UserInterface\PythonItemModule.cpp

; 486  : {

  0000c	83 ec 08	 sub	 esp, 8
; File C:\Anka2Project\Anka2Project\Source\Binary\source\UserInterface\AbstractSingleton.h

; 24   : 		assert(ms_singleton!=nullptr);

  0000f	85 c9		 test	 ecx, ecx
  00011	75 1a		 jne	 SHORT $LN5@itemUpdate
  00013	6a 18		 push	 24			; 00000018H
  00015	68 00 00 00 00	 push	 OFFSET ??_C@_1KI@FIPHLMOB@?$AAC?$AA?3?$AA?2?$AAA?$AAn?$AAk?$AAa?$AA2?$AAP?$AAr?$AAo?$AAj?$AAe?$AAc?$AAt@
  0001a	68 00 00 00 00	 push	 OFFSET ??_C@_1CM@FPMBEAEA@?$AAm?$AAs?$AA_?$AAs?$AAi?$AAn?$AAg?$AAl?$AAe?$AAt?$AAo?$AAn?$AA?$CB?$AA?$DN?$AAn@
  0001f	e8 00 00 00 00	 call	 __wassert
  00024	8b 0d 00 00 00
	00		 mov	 ecx, DWORD PTR ?ms_singleton@?$TAbstractSingleton@VIAbstractApplication@@@@0PAVIAbstractApplication@@A ; TAbstractSingleton<IAbstractApplication>::ms_singleton
  0002a	83 c4 0c	 add	 esp, 12			; 0000000cH
$LN5@itemUpdate:
; File C:\Anka2Project\Anka2Project\Source\Binary\source\UserInterface\PythonItemModule.cpp

; 490  : 	rkApp.GetMousePosition(&ptMouse);	

  0002d	8b 01		 mov	 eax, DWORD PTR [ecx]
  0002f	8d 14 24	 lea	 edx, DWORD PTR _ptMouse$[esp+8]
  00032	52		 push	 edx
  00033	ff 50 04	 call	 DWORD PTR [eax+4]
; File C:\Anka2Project\Anka2Project\Source\Binary\source\eterBase\Singleton.h

; 26   : 		assert(ms_singleton);

  00036	8b 0d 00 00 00
	00		 mov	 ecx, DWORD PTR ?ms_singleton@?$CSingleton@VCPythonItem@@@@0PAVCPythonItem@@A ; CSingleton<CPythonItem>::ms_singleton
  0003c	85 c9		 test	 ecx, ecx
  0003e	75 1a		 jne	 SHORT $LN8@itemUpdate
  00040	6a 1a		 push	 26			; 0000001aH
  00042	68 00 00 00 00	 push	 OFFSET ??_C@_1IO@CAJLEEOI@?$AAC?$AA?3?$AA?2?$AAA?$AAn?$AAk?$AAa?$AA2?$AAP?$AAr?$AAo?$AAj?$AAe?$AAc?$AAt@
  00047	68 00 00 00 00	 push	 OFFSET ??_C@_1BK@FMEHPMFE@?$AAm?$AAs?$AA_?$AAs?$AAi?$AAn?$AAg?$AAl?$AAe?$AAt?$AAo?$AAn@
  0004c	e8 00 00 00 00	 call	 __wassert
  00051	8b 0d 00 00 00
	00		 mov	 ecx, DWORD PTR ?ms_singleton@?$CSingleton@VCPythonItem@@@@0PAVCPythonItem@@A ; CSingleton<CPythonItem>::ms_singleton
  00057	83 c4 0c	 add	 esp, 12			; 0000000cH
$LN8@itemUpdate:
; File C:\Anka2Project\Anka2Project\Source\Binary\source\UserInterface\PythonItemModule.cpp

; 492  : 	CPythonItem::Instance().Update(ptMouse);

  0005a	8d 04 24	 lea	 eax, DWORD PTR _ptMouse$[esp+8]
  0005d	50		 push	 eax
  0005e	e8 00 00 00 00	 call	 ?Update@CPythonItem@@QAEXABUtagPOINT@@@Z ; CPythonItem::Update

; 493  : 	return Py_BuildNone();

  00063	e8 00 00 00 00	 call	 ?Py_BuildNone@@YAPAU_object@@XZ ; Py_BuildNone

; 494  : }

  00068	8b e5		 mov	 esp, ebp
  0006a	5d		 pop	 ebp
  0006b	c3		 ret	 0
?itemUpdate@@YAPAU_object@@PAU1@0@Z ENDP		; itemUpdate
_TEXT	ENDS
; Function compile flags: /Ogtp
; File C:\Anka2Project\Anka2Project\Source\Binary\source\UserInterface\PythonItemModule.cpp
; File C:\Anka2Project\Anka2Project\Source\Binary\source\eterBase\Singleton.h
; File C:\Anka2Project\Anka2Project\Source\Binary\source\UserInterface\PythonItemModule.cpp
;	COMDAT ?itemPick@@YAPAU_object@@PAU1@0@Z
_TEXT	SEGMENT
_dwItemID$ = -4						; size = 4
_poSelf$ = 8						; size = 4
_poArgs$ = 12						; size = 4
?itemPick@@YAPAU_object@@PAU1@0@Z PROC			; itemPick, COMDAT

; 534  : {

  00000	55		 push	 ebp
  00001	8b ec		 mov	 ebp, esp
  00003	51		 push	 ecx
; File C:\Anka2Project\Anka2Project\Source\Binary\source\eterBase\Singleton.h

; 26   : 		assert(ms_singleton);

  00004	8b 0d 00 00 00
	00		 mov	 ecx, DWORD PTR ?ms_singleton@?$CSingleton@VCPythonItem@@@@0PAVCPythonItem@@A ; CSingleton<CPythonItem>::ms_singleton
  0000a	85 c9		 test	 ecx, ecx
  0000c	75 1a		 jne	 SHORT $LN7@itemPick
  0000e	6a 1a		 push	 26			; 0000001aH
  00010	68 00 00 00 00	 push	 OFFSET ??_C@_1IO@CAJLEEOI@?$AAC?$AA?3?$AA?2?$AAA?$AAn?$AAk?$AAa?$AA2?$AAP?$AAr?$AAo?$AAj?$AAe?$AAc?$AAt@
  00015	68 00 00 00 00	 push	 OFFSET ??_C@_1BK@FMEHPMFE@?$AAm?$AAs?$AA_?$AAs?$AAi?$AAn?$AAg?$AAl?$AAe?$AAt?$AAo?$AAn@
  0001a	e8 00 00 00 00	 call	 __wassert
  0001f	8b 0d 00 00 00
	00		 mov	 ecx, DWORD PTR ?ms_singleton@?$CSingleton@VCPythonItem@@@@0PAVCPythonItem@@A ; CSingleton<CPythonItem>::ms_singleton
  00025	83 c4 0c	 add	 esp, 12			; 0000000cH
$LN7@itemPick:
; File C:\Anka2Project\Anka2Project\Source\Binary\source\UserInterface\PythonItemModule.cpp

; 536  : 	if (CPythonItem::Instance().GetPickedItemID(&dwItemID))

  00028	8d 45 fc	 lea	 eax, DWORD PTR _dwItemID$[ebp]
  0002b	50		 push	 eax
  0002c	e8 00 00 00 00	 call	 ?GetPickedItemID@CPythonItem@@QAE_NPAK@Z ; CPythonItem::GetPickedItemID
  00031	84 c0		 test	 al, al
  00033	74 15		 je	 SHORT $LN2@itemPick

; 537  : 		return Py_BuildValue("i", dwItemID);

  00035	ff 75 fc	 push	 DWORD PTR _dwItemID$[ebp]

; 540  : }

  00038	68 00 00 00 00	 push	 OFFSET ??_C@_01KBJDNOO@i@
  0003d	ff 15 00 00 00
	00		 call	 DWORD PTR __imp__Py_BuildValue
  00043	83 c4 08	 add	 esp, 8
  00046	8b e5		 mov	 esp, ebp
  00048	5d		 pop	 ebp
  00049	c3		 ret	 0
$LN2@itemPick:

; 538  : 	else
; 539  : 		return Py_BuildValue("i", -1);

  0004a	6a ff		 push	 -1

; 540  : }

  0004c	68 00 00 00 00	 push	 OFFSET ??_C@_01KBJDNOO@i@
  00051	ff 15 00 00 00
	00		 call	 DWORD PTR __imp__Py_BuildValue
  00057	83 c4 08	 add	 esp, 8
  0005a	8b e5		 mov	 esp, ebp
  0005c	5d		 pop	 ebp
  0005d	c3		 ret	 0
?itemPick@@YAPAU_object@@PAU1@0@Z ENDP			; itemPick
_TEXT	ENDS
; Function compile flags: /Ogtp
; File C:\Anka2Project\Anka2Project\Source\Binary\source\UserInterface\PythonItemModule.cpp
; File C:\Anka2Project\Anka2Project\Source\Binary\source\eterBase\Singleton.h
; File C:\Anka2Project\Anka2Project\Source\Binary\source\UserInterface\PythonItemModule.cpp
;	COMDAT ?itemIsWeddingItem@@YAPAU_object@@PAU1@0@Z
_TEXT	SEGMENT
_dwItemIndex$ = -4					; size = 4
_poSelf$ = 8						; size = 4
_poArgs$ = 12						; size = 4
?itemIsWeddingItem@@YAPAU_object@@PAU1@0@Z PROC		; itemIsWeddingItem, COMDAT

; 553  : {

  00000	55		 push	 ebp
  00001	8b ec		 mov	 ebp, esp
  00003	51		 push	 ecx

; 554  : 	DWORD dwItemIndex;
; 555  : 	switch (PyTuple_Size(poArgs))

  00004	ff 75 0c	 push	 DWORD PTR _poArgs$[ebp]
  00007	ff 15 00 00 00
	00		 call	 DWORD PTR __imp__PyTuple_Size
  0000d	83 c4 04	 add	 esp, 4
  00010	83 e8 00	 sub	 eax, 0
  00013	74 2d		 je	 SHORT $LN6@itemIsWedd
  00015	83 e8 01	 sub	 eax, 1
  00018	75 15		 jne	 SHORT $LN30@itemIsWedd

; 563  : 		break;
; 564  : 	}
; 565  : 	case 1:
; 566  : 	{
; 567  : 		if (!PyTuple_GetUnsignedLong(poArgs, 0, &dwItemIndex))

  0001a	8d 45 fc	 lea	 eax, DWORD PTR _dwItemIndex$[ebp]
  0001d	50		 push	 eax
  0001e	6a 00		 push	 0
  00020	ff 75 0c	 push	 DWORD PTR _poArgs$[ebp]
  00023	e8 00 00 00 00	 call	 ?PyTuple_GetUnsignedLong@@YA_NPAU_object@@HPAK@Z ; PyTuple_GetUnsignedLong
  00028	83 c4 0c	 add	 esp, 12			; 0000000cH
  0002b	84 c0		 test	 al, al
  0002d	75 0e		 jne	 SHORT $LN28@itemIsWedd
$LN30@itemIsWedd:

; 592  : }

  0002f	6a 00		 push	 0
  00031	e8 00 00 00 00	 call	 ?Py_BuildException@@YAPAU_object@@PBDZZ ; Py_BuildException
  00036	83 c4 04	 add	 esp, 4
  00039	8b e5		 mov	 esp, ebp
  0003b	5d		 pop	 ebp
  0003c	c3		 ret	 0
$LN28@itemIsWedd:

; 563  : 		break;
; 564  : 	}
; 565  : 	case 1:
; 566  : 	{
; 567  : 		if (!PyTuple_GetUnsignedLong(poArgs, 0, &dwItemIndex))

  0003d	8b 45 fc	 mov	 eax, DWORD PTR _dwItemIndex$[ebp]
  00040	eb 48		 jmp	 SHORT $LN2@itemIsWedd
$LN6@itemIsWedd:
; File C:\Anka2Project\Anka2Project\Source\Binary\source\eterBase\Singleton.h

; 26   : 		assert(ms_singleton);

  00042	8b 0d 00 00 00
	00		 mov	 ecx, DWORD PTR ?ms_singleton@?$CSingleton@VCItemManager@@@@0PAVCItemManager@@A ; CSingleton<CItemManager>::ms_singleton
  00048	85 c9		 test	 ecx, ecx
  0004a	75 1a		 jne	 SHORT $LN25@itemIsWedd
  0004c	6a 1a		 push	 26			; 0000001aH
  0004e	68 00 00 00 00	 push	 OFFSET ??_C@_1IO@CAJLEEOI@?$AAC?$AA?3?$AA?2?$AAA?$AAn?$AAk?$AAa?$AA2?$AAP?$AAr?$AAo?$AAj?$AAe?$AAc?$AAt@
  00053	68 00 00 00 00	 push	 OFFSET ??_C@_1BK@FMEHPMFE@?$AAm?$AAs?$AA_?$AAs?$AAi?$AAn?$AAg?$AAl?$AAe?$AAt?$AAo?$AAn@
  00058	e8 00 00 00 00	 call	 __wassert
  0005d	8b 0d 00 00 00
	00		 mov	 ecx, DWORD PTR ?ms_singleton@?$CSingleton@VCItemManager@@@@0PAVCItemManager@@A ; CSingleton<CItemManager>::ms_singleton
  00063	83 c4 0c	 add	 esp, 12			; 0000000cH
$LN25@itemIsWedd:
; File C:\Anka2Project\Anka2Project\Source\Binary\source\UserInterface\PythonItemModule.cpp

; 559  : 		CItemData* pItemData = CItemManager::Instance().GetSelectedItemDataPointer();

  00066	e8 00 00 00 00	 call	 ?GetSelectedItemDataPointer@CItemManager@@QAEPAVCItemData@@XZ ; CItemManager::GetSelectedItemDataPointer

; 560  : 		if (!pItemData)

  0006b	85 c0		 test	 eax, eax
  0006d	75 11		 jne	 SHORT $LN7@itemIsWedd

; 561  : 			return Py_BuildException("No item selected!");

  0006f	68 00 00 00 00	 push	 OFFSET ??_C@_0BC@GFOFMOEA@No?5item?5selected?$CB@
  00074	e8 00 00 00 00	 call	 ?Py_BuildException@@YAPAU_object@@PBDZZ ; Py_BuildException
  00079	83 c4 04	 add	 esp, 4

; 592  : }

  0007c	8b e5		 mov	 esp, ebp
  0007e	5d		 pop	 ebp
  0007f	c3		 ret	 0
$LN7@itemIsWedd:

; 562  : 		dwItemIndex = pItemData->GetIndex();

  00080	8b c8		 mov	 ecx, eax
  00082	e8 00 00 00 00	 call	 ?GetIndex@CItemData@@QBEKXZ ; CItemData::GetIndex
  00087	89 45 fc	 mov	 DWORD PTR _dwItemIndex$[ebp], eax
$LN2@itemIsWedd:

; 568  : 			return Py_BuildException();
; 569  : 		break;
; 570  : 	}
; 571  : 	default:
; 572  : 		return Py_BuildException();
; 573  : 	}
; 574  : 
; 575  : 	switch (dwItemIndex)

  0008a	3d 19 c4 00 00	 cmp	 eax, 50201		; 0000c419H
  0008f	77 1a		 ja	 SHORT $LN22@itemIsWedd
  00091	74 33		 je	 SHORT $LN11@itemIsWedd
  00093	05 83 d1 ff ff	 add	 eax, -11901		; ffffd183H
  00098	83 f8 0d	 cmp	 eax, 13			; 0000000dH
  0009b	77 15		 ja	 SHORT $LN4@itemIsWedd
  0009d	0f b6 80 00 00
	00 00		 movzx	 eax, BYTE PTR $LN26@itemIsWedd[eax]
  000a4	ff 24 85 00 00
	00 00		 jmp	 DWORD PTR $LN27@itemIsWedd[eax*4]
$LN22@itemIsWedd:
  000ab	3d 1a c4 00 00	 cmp	 eax, 50202		; 0000c41aH
  000b0	74 14		 je	 SHORT $LN11@itemIsWedd
$LN4@itemIsWedd:

; 588  : 			break;
; 589  : 	}
; 590  : 
; 591  : 	return Py_BuildValue("i", FALSE);

  000b2	6a 00		 push	 0

; 592  : }

  000b4	68 00 00 00 00	 push	 OFFSET ??_C@_01KBJDNOO@i@
  000b9	ff 15 00 00 00
	00		 call	 DWORD PTR __imp__Py_BuildValue
  000bf	83 c4 08	 add	 esp, 8
  000c2	8b e5		 mov	 esp, ebp
  000c4	5d		 pop	 ebp
  000c5	c3		 ret	 0
$LN11@itemIsWedd:

; 576  : 	{
; 577  : 		case CItemData::WEDDING_TUXEDO1:
; 578  : 		case CItemData::WEDDING_TUXEDO2:
; 579  : 		case CItemData::WEDDING_TUXEDO3:
; 580  : 		case CItemData::WEDDING_TUXEDO4:
; 581  : 		case CItemData::WEDDING_BRIDE_DRESS1:
; 582  : 		case CItemData::WEDDING_BRIDE_DRESS2:
; 583  : 		case CItemData::WEDDING_BRIDE_DRESS3:
; 584  : 		case CItemData::WEDDING_BRIDE_DRESS4:
; 585  : 		case CItemData::WEDDING_BOUQUET1:
; 586  : 		case CItemData::WEDDING_BOUQUET2:
; 587  : 			return Py_BuildValue("i", TRUE);

  000c6	6a 01		 push	 1

; 592  : }

  000c8	68 00 00 00 00	 push	 OFFSET ??_C@_01KBJDNOO@i@
  000cd	ff 15 00 00 00
	00		 call	 DWORD PTR __imp__Py_BuildValue
  000d3	83 c4 08	 add	 esp, 8
  000d6	8b e5		 mov	 esp, ebp
  000d8	5d		 pop	 ebp
  000d9	c3		 ret	 0
  000da	66 90		 npad	 2
$LN27@itemIsWedd:
  000dc	00 00 00 00	 DD	 $LN11@itemIsWedd
  000e0	00 00 00 00	 DD	 $LN4@itemIsWedd
$LN26@itemIsWedd:
  000e4	00		 DB	 0
  000e5	00		 DB	 0
  000e6	00		 DB	 0
  000e7	00		 DB	 0
  000e8	01		 DB	 1
  000e9	01		 DB	 1
  000ea	01		 DB	 1
  000eb	01		 DB	 1
  000ec	01		 DB	 1
  000ed	01		 DB	 1
  000ee	00		 DB	 0
  000ef	00		 DB	 0
  000f0	00		 DB	 0
  000f1	00		 DB	 0
?itemIsWeddingItem@@YAPAU_object@@PAU1@0@Z ENDP		; itemIsWeddingItem
_TEXT	ENDS
; Function compile flags: /Ogtp
; File C:\Anka2Project\Anka2Project\Source\Binary\source\UserInterface\PythonItemModule.cpp
; File C:\Anka2Project\Anka2Project\Source\Binary\source\eterBase\Singleton.h
; File C:\Anka2Project\Anka2Project\Source\Binary\source\UserInterface\PythonItemModule.cpp
;	COMDAT ?itemGetItemNameByVnum@@YAPAU_object@@PAU1@0@Z
_TEXT	SEGMENT
_pItemData$ = -8					; size = 4
_dwVirtualNumber$ = -4					; size = 4
_poSelf$ = 8						; size = 4
_poArgs$ = 12						; size = 4
?itemGetItemNameByVnum@@YAPAU_object@@PAU1@0@Z PROC	; itemGetItemNameByVnum, COMDAT

; 595  : {

  00000	55		 push	 ebp
  00001	8b ec		 mov	 ebp, esp
  00003	83 ec 08	 sub	 esp, 8

; 596  : 	DWORD dwVirtualNumber;
; 597  : 	if (!PyTuple_GetUnsignedLong(poArgs, 0, &dwVirtualNumber))

  00006	8d 45 fc	 lea	 eax, DWORD PTR _dwVirtualNumber$[ebp]
  00009	50		 push	 eax
  0000a	6a 00		 push	 0
  0000c	ff 75 0c	 push	 DWORD PTR _poArgs$[ebp]
  0000f	e8 00 00 00 00	 call	 ?PyTuple_GetUnsignedLong@@YA_NPAU_object@@HPAK@Z ; PyTuple_GetUnsignedLong
  00014	83 c4 0c	 add	 esp, 12			; 0000000cH
  00017	84 c0		 test	 al, al
  00019	75 09		 jne	 SHORT $LN2@itemGetIte

; 598  : 		return Py_BadArgument();

  0001b	e8 00 00 00 00	 call	 ?Py_BadArgument@@YAPAU_object@@XZ ; Py_BadArgument

; 605  : }

  00020	8b e5		 mov	 esp, ebp
  00022	5d		 pop	 ebp
  00023	c3		 ret	 0
$LN2@itemGetIte:
; File C:\Anka2Project\Anka2Project\Source\Binary\source\eterBase\Singleton.h

; 26   : 		assert(ms_singleton);

  00024	8b 0d 00 00 00
	00		 mov	 ecx, DWORD PTR ?ms_singleton@?$CSingleton@VCItemManager@@@@0PAVCItemManager@@A ; CSingleton<CItemManager>::ms_singleton
  0002a	85 c9		 test	 ecx, ecx
  0002c	75 1a		 jne	 SHORT $LN7@itemGetIte
  0002e	6a 1a		 push	 26			; 0000001aH
  00030	68 00 00 00 00	 push	 OFFSET ??_C@_1IO@CAJLEEOI@?$AAC?$AA?3?$AA?2?$AAA?$AAn?$AAk?$AAa?$AA2?$AAP?$AAr?$AAo?$AAj?$AAe?$AAc?$AAt@
  00035	68 00 00 00 00	 push	 OFFSET ??_C@_1BK@FMEHPMFE@?$AAm?$AAs?$AA_?$AAs?$AAi?$AAn?$AAg?$AAl?$AAe?$AAt?$AAo?$AAn@
  0003a	e8 00 00 00 00	 call	 __wassert
  0003f	8b 0d 00 00 00
	00		 mov	 ecx, DWORD PTR ?ms_singleton@?$CSingleton@VCItemManager@@@@0PAVCItemManager@@A ; CSingleton<CItemManager>::ms_singleton
  00045	83 c4 0c	 add	 esp, 12			; 0000000cH
$LN7@itemGetIte:
; File C:\Anka2Project\Anka2Project\Source\Binary\source\UserInterface\PythonItemModule.cpp

; 601  : 	if (!CItemManager::Instance().GetItemDataPointer(dwVirtualNumber, &pItemData))

  00048	8d 45 f8	 lea	 eax, DWORD PTR _pItemData$[ebp]
  0004b	50		 push	 eax
  0004c	ff 75 fc	 push	 DWORD PTR _dwVirtualNumber$[ebp]
  0004f	e8 00 00 00 00	 call	 ?GetItemDataPointer@CItemManager@@QAEHKPAPAVCItemData@@@Z ; CItemManager::GetItemDataPointer
  00054	85 c0		 test	 eax, eax
  00056	75 0d		 jne	 SHORT $LN3@itemGetIte

; 602  : 		return Py_BuildException();

  00058	50		 push	 eax
  00059	e8 00 00 00 00	 call	 ?Py_BuildException@@YAPAU_object@@PBDZZ ; Py_BuildException
  0005e	83 c4 04	 add	 esp, 4

; 605  : }

  00061	8b e5		 mov	 esp, ebp
  00063	5d		 pop	 ebp
  00064	c3		 ret	 0
$LN3@itemGetIte:

; 603  : 
; 604  : 	return Py_BuildValue("s", pItemData->GetName());

  00065	8b 4d f8	 mov	 ecx, DWORD PTR _pItemData$[ebp]
  00068	e8 00 00 00 00	 call	 ?GetName@CItemData@@QBEPBDXZ ; CItemData::GetName
  0006d	50		 push	 eax
  0006e	68 00 00 00 00	 push	 OFFSET ??_C@_01LKDEMHDF@s@
  00073	ff 15 00 00 00
	00		 call	 DWORD PTR __imp__Py_BuildValue
  00079	83 c4 08	 add	 esp, 8

; 605  : }

  0007c	8b e5		 mov	 esp, ebp
  0007e	5d		 pop	 ebp
  0007f	c3		 ret	 0
?itemGetItemNameByVnum@@YAPAU_object@@PAU1@0@Z ENDP	; itemGetItemNameByVnum
_TEXT	ENDS
; Function compile flags: /Ogtp
; File C:\Anka2Project\Anka2Project\Source\Binary\source\UserInterface\PythonItemModule.cpp
; File C:\Anka2Project\Anka2Project\Source\Binary\source\eterBase\Singleton.h
; File C:\Anka2Project\Anka2Project\Source\Binary\source\UserInterface\PythonItemModule.cpp
;	COMDAT ?itemGetRefineSet@@YAPAU_object@@PAU1@0@Z
_TEXT	SEGMENT
_poSelf$ = 8						; size = 4
_poArgs$ = 12						; size = 4
?itemGetRefineSet@@YAPAU_object@@PAU1@0@Z PROC		; itemGetRefineSet, COMDAT
; File C:\Anka2Project\Anka2Project\Source\Binary\source\eterBase\Singleton.h

; 26   : 		assert(ms_singleton);

  00000	8b 0d 00 00 00
	00		 mov	 ecx, DWORD PTR ?ms_singleton@?$CSingleton@VCItemManager@@@@0PAVCItemManager@@A ; CSingleton<CItemManager>::ms_singleton
  00006	85 c9		 test	 ecx, ecx
  00008	75 1a		 jne	 SHORT $LN6@itemGetRef
  0000a	6a 1a		 push	 26			; 0000001aH
  0000c	68 00 00 00 00	 push	 OFFSET ??_C@_1IO@CAJLEEOI@?$AAC?$AA?3?$AA?2?$AAA?$AAn?$AAk?$AAa?$AA2?$AAP?$AAr?$AAo?$AAj?$AAe?$AAc?$AAt@
  00011	68 00 00 00 00	 push	 OFFSET ??_C@_1BK@FMEHPMFE@?$AAm?$AAs?$AA_?$AAs?$AAi?$AAn?$AAg?$AAl?$AAe?$AAt?$AAo?$AAn@
  00016	e8 00 00 00 00	 call	 __wassert
  0001b	8b 0d 00 00 00
	00		 mov	 ecx, DWORD PTR ?ms_singleton@?$CSingleton@VCItemManager@@@@0PAVCItemManager@@A ; CSingleton<CItemManager>::ms_singleton
  00021	83 c4 0c	 add	 esp, 12			; 0000000cH
$LN6@itemGetRef:
; File C:\Anka2Project\Anka2Project\Source\Binary\source\UserInterface\PythonItemModule.cpp

; 610  : 	CItemData* pItemData = CItemManager::Instance().GetSelectedItemDataPointer();

  00024	e8 00 00 00 00	 call	 ?GetSelectedItemDataPointer@CItemManager@@QAEPAVCItemData@@XZ ; CItemManager::GetSelectedItemDataPointer

; 611  : 	if (!pItemData)

  00029	85 c0		 test	 eax, eax
  0002b	75 0e		 jne	 SHORT $LN2@itemGetRef

; 612  : 		return Py_BuildException("Can't find select item data");

  0002d	68 00 00 00 00	 push	 OFFSET ??_C@_0BM@KPLEGEEH@Can?8t?5find?5select?5item?5data@
  00032	e8 00 00 00 00	 call	 ?Py_BuildException@@YAPAU_object@@PBDZZ ; Py_BuildException
  00037	83 c4 04	 add	 esp, 4

; 614  : }

  0003a	c3		 ret	 0
$LN2@itemGetRef:

; 613  : 	return Py_BuildValue("i", pItemData->GetRefinedSet());

  0003b	8b c8		 mov	 ecx, eax
  0003d	e8 00 00 00 00	 call	 ?GetRefinedSet@CItemData@@QBEGXZ ; CItemData::GetRefinedSet
  00042	0f b7 c0	 movzx	 eax, ax
  00045	50		 push	 eax
  00046	68 00 00 00 00	 push	 OFFSET ??_C@_01KBJDNOO@i@
  0004b	ff 15 00 00 00
	00		 call	 DWORD PTR __imp__Py_BuildValue
  00051	83 c4 08	 add	 esp, 8

; 614  : }

  00054	c3		 ret	 0
?itemGetRefineSet@@YAPAU_object@@PAU1@0@Z ENDP		; itemGetRefineSet
_TEXT	ENDS
; Function compile flags: /Ogtp
; File C:\Anka2Project\Anka2Project\Source\Binary\source\UserInterface\PythonItemModule.cpp
; File C:\Anka2Project\Anka2Project\Source\Binary\source\eterBase\Singleton.h
; File C:\Anka2Project\Anka2Project\Source\Binary\source\UserInterface\PythonItemModule.cpp
;	COMDAT ?itemGetRefinedVnum@@YAPAU_object@@PAU1@0@Z
_TEXT	SEGMENT
_poSelf$ = 8						; size = 4
_poArgs$ = 12						; size = 4
?itemGetRefinedVnum@@YAPAU_object@@PAU1@0@Z PROC	; itemGetRefinedVnum, COMDAT
; File C:\Anka2Project\Anka2Project\Source\Binary\source\eterBase\Singleton.h

; 26   : 		assert(ms_singleton);

  00000	8b 0d 00 00 00
	00		 mov	 ecx, DWORD PTR ?ms_singleton@?$CSingleton@VCItemManager@@@@0PAVCItemManager@@A ; CSingleton<CItemManager>::ms_singleton
  00006	85 c9		 test	 ecx, ecx
  00008	75 1a		 jne	 SHORT $LN6@itemGetRef
  0000a	6a 1a		 push	 26			; 0000001aH
  0000c	68 00 00 00 00	 push	 OFFSET ??_C@_1IO@CAJLEEOI@?$AAC?$AA?3?$AA?2?$AAA?$AAn?$AAk?$AAa?$AA2?$AAP?$AAr?$AAo?$AAj?$AAe?$AAc?$AAt@
  00011	68 00 00 00 00	 push	 OFFSET ??_C@_1BK@FMEHPMFE@?$AAm?$AAs?$AA_?$AAs?$AAi?$AAn?$AAg?$AAl?$AAe?$AAt?$AAo?$AAn@
  00016	e8 00 00 00 00	 call	 __wassert
  0001b	8b 0d 00 00 00
	00		 mov	 ecx, DWORD PTR ?ms_singleton@?$CSingleton@VCItemManager@@@@0PAVCItemManager@@A ; CSingleton<CItemManager>::ms_singleton
  00021	83 c4 0c	 add	 esp, 12			; 0000000cH
$LN6@itemGetRef:
; File C:\Anka2Project\Anka2Project\Source\Binary\source\UserInterface\PythonItemModule.cpp

; 618  : 	CItemData* pItemData = CItemManager::Instance().GetSelectedItemDataPointer();

  00024	e8 00 00 00 00	 call	 ?GetSelectedItemDataPointer@CItemManager@@QAEPAVCItemData@@XZ ; CItemManager::GetSelectedItemDataPointer

; 619  : 	if (!pItemData)

  00029	85 c0		 test	 eax, eax
  0002b	75 0e		 jne	 SHORT $LN2@itemGetRef

; 620  : 		return Py_BuildException("Can't find select item data");

  0002d	68 00 00 00 00	 push	 OFFSET ??_C@_0BM@KPLEGEEH@Can?8t?5find?5select?5item?5data@
  00032	e8 00 00 00 00	 call	 ?Py_BuildException@@YAPAU_object@@PBDZZ ; Py_BuildException
  00037	83 c4 04	 add	 esp, 4

; 622  : }

  0003a	c3		 ret	 0
$LN2@itemGetRef:

; 621  : 	return Py_BuildValue("i", pItemData->GetRefinedVnum());

  0003b	8b c8		 mov	 ecx, eax
  0003d	e8 00 00 00 00	 call	 ?GetRefinedVnum@CItemData@@QBEGXZ ; CItemData::GetRefinedVnum
  00042	0f b7 c0	 movzx	 eax, ax
  00045	50		 push	 eax
  00046	68 00 00 00 00	 push	 OFFSET ??_C@_01KBJDNOO@i@
  0004b	ff 15 00 00 00
	00		 call	 DWORD PTR __imp__Py_BuildValue
  00051	83 c4 08	 add	 esp, 8

; 622  : }

  00054	c3		 ret	 0
?itemGetRefinedVnum@@YAPAU_object@@PAU1@0@Z ENDP	; itemGetRefinedVnum
_TEXT	ENDS
; Function compile flags: /Ogtp
; File C:\Anka2Project\Anka2Project\Source\Binary\source\UserInterface\PythonItemModule.cpp
; File C:\Anka2Project\Anka2Project\Source\Binary\source\eterBase\Singleton.h
; File C:\Anka2Project\Anka2Project\Source\Binary\source\UserInterface\PythonItemModule.cpp
;	COMDAT ?itemSelectItemWiki@@YAPAU_object@@PAU1@0@Z
_TEXT	SEGMENT
_iIndex$ = -4						; size = 4
_poSelf$ = 8						; size = 4
_poArgs$ = 12						; size = 4
?itemSelectItemWiki@@YAPAU_object@@PAU1@0@Z PROC	; itemSelectItemWiki, COMDAT

; 625  : {

  00000	55		 push	 ebp
  00001	8b ec		 mov	 ebp, esp
  00003	51		 push	 ecx

; 626  : 	int iIndex;
; 627  : 	if (!PyTuple_GetInteger(poArgs, 0, &iIndex))

  00004	8d 45 fc	 lea	 eax, DWORD PTR _iIndex$[ebp]
  00007	50		 push	 eax
  00008	6a 00		 push	 0
  0000a	ff 75 0c	 push	 DWORD PTR _poArgs$[ebp]
  0000d	e8 00 00 00 00	 call	 ?PyTuple_GetInteger@@YA_NPAU_object@@HPAH@Z ; PyTuple_GetInteger
  00012	83 c4 0c	 add	 esp, 12			; 0000000cH
  00015	84 c0		 test	 al, al
  00017	75 09		 jne	 SHORT $LN2@itemSelect

; 628  : 		return Py_BadArgument();

  00019	e8 00 00 00 00	 call	 ?Py_BadArgument@@YAPAU_object@@XZ ; Py_BadArgument

; 632  : }

  0001e	8b e5		 mov	 esp, ebp
  00020	5d		 pop	 ebp
  00021	c3		 ret	 0
$LN2@itemSelect:
; File C:\Anka2Project\Anka2Project\Source\Binary\source\eterBase\Singleton.h

; 26   : 		assert(ms_singleton);

  00022	8b 0d 00 00 00
	00		 mov	 ecx, DWORD PTR ?ms_singleton@?$CSingleton@VCItemManager@@@@0PAVCItemManager@@A ; CSingleton<CItemManager>::ms_singleton
  00028	85 c9		 test	 ecx, ecx
  0002a	75 1a		 jne	 SHORT $LN7@itemSelect
  0002c	6a 1a		 push	 26			; 0000001aH
  0002e	68 00 00 00 00	 push	 OFFSET ??_C@_1IO@CAJLEEOI@?$AAC?$AA?3?$AA?2?$AAA?$AAn?$AAk?$AAa?$AA2?$AAP?$AAr?$AAo?$AAj?$AAe?$AAc?$AAt@
  00033	68 00 00 00 00	 push	 OFFSET ??_C@_1BK@FMEHPMFE@?$AAm?$AAs?$AA_?$AAs?$AAi?$AAn?$AAg?$AAl?$AAe?$AAt?$AAo?$AAn@
  00038	e8 00 00 00 00	 call	 __wassert
  0003d	8b 0d 00 00 00
	00		 mov	 ecx, DWORD PTR ?ms_singleton@?$CSingleton@VCItemManager@@@@0PAVCItemManager@@A ; CSingleton<CItemManager>::ms_singleton
  00043	83 c4 0c	 add	 esp, 12			; 0000000cH
$LN7@itemSelect:
; File C:\Anka2Project\Anka2Project\Source\Binary\source\UserInterface\PythonItemModule.cpp

; 629  : 	if (!CItemManager::Instance().SelectItemData(iIndex))

  00046	ff 75 fc	 push	 DWORD PTR _iIndex$[ebp]
  00049	e8 00 00 00 00	 call	 ?SelectItemData@CItemManager@@QAEHK@Z ; CItemManager::SelectItemData
  0004e	85 c0		 test	 eax, eax
  00050	75 13		 jne	 SHORT $LN3@itemSelect

; 630  : 		return Py_BuildValue("i", 0);

  00052	50		 push	 eax

; 632  : }

  00053	68 00 00 00 00	 push	 OFFSET ??_C@_01KBJDNOO@i@
  00058	ff 15 00 00 00
	00		 call	 DWORD PTR __imp__Py_BuildValue
  0005e	83 c4 08	 add	 esp, 8
  00061	8b e5		 mov	 esp, ebp
  00063	5d		 pop	 ebp
  00064	c3		 ret	 0
$LN3@itemSelect:

; 631  : 	return Py_BuildValue("i", 1);

  00065	6a 01		 push	 1

; 632  : }

  00067	68 00 00 00 00	 push	 OFFSET ??_C@_01KBJDNOO@i@
  0006c	ff 15 00 00 00
	00		 call	 DWORD PTR __imp__Py_BuildValue
  00072	83 c4 08	 add	 esp, 8
  00075	8b e5		 mov	 esp, ebp
  00077	5d		 pop	 ebp
  00078	c3		 ret	 0
?itemSelectItemWiki@@YAPAU_object@@PAU1@0@Z ENDP	; itemSelectItemWiki
_TEXT	ENDS
; Function compile flags: /Ogtp
; File C:\Anka2Project\Anka2Project\Source\Binary\source\UserInterface\PythonItemModule.cpp
; File C:\Anka2Project\Anka2Project\Source\Binary\source\eterBase\Singleton.h
; File C:\Program Files\Microsoft Visual Studio\2022\Community\VC\Tools\MSVC\14.44.35207\include\xtree
; File C:\Program Files\Microsoft Visual Studio\2022\Community\VC\Tools\MSVC\14.44.35207\include\xmemory
; File C:\Program Files\Microsoft Visual Studio\2022\Community\VC\Tools\MSVC\14.44.35207\include\xtree
; File C:\Program Files\Microsoft Visual Studio\2022\Community\VC\Tools\MSVC\14.44.35207\include\xmemory
; File C:\Program Files\Microsoft Visual Studio\2022\Community\VC\Tools\MSVC\14.44.35207\include\xtree
; File C:\Anka2Project\Anka2Project\Source\Binary\source\UserInterface\PythonItemModule.cpp
; File C:\Program Files\Microsoft Visual Studio\2022\Community\VC\Tools\MSVC\14.44.35207\include\__msvc_string_view.hpp
; File C:\Program Files\Microsoft Visual Studio\2022\Community\VC\Tools\MSVC\14.44.35207\include\xstring
; File C:\Program Files\Microsoft Visual Studio\2022\Community\VC\Tools\MSVC\14.44.35207\include\__msvc_string_view.hpp
; File C:\Program Files\Microsoft Visual Studio\2022\Community\VC\Tools\MSVC\14.44.35207\include\xstring
; File C:\Anka2Project\Anka2Project\Source\Binary\source\UserInterface\PythonItemModule.cpp
; File C:\Program Files\Microsoft Visual Studio\2022\Community\VC\Tools\MSVC\14.44.35207\include\xtree
; File C:\Anka2Project\Anka2Project\Source\Binary\source\UserInterface\PythonItemModule.cpp
; File C:\Program Files\Microsoft Visual Studio\2022\Community\VC\Tools\MSVC\14.44.35207\include\xtree
; File C:\Anka2Project\Anka2Project\Source\Binary\source\UserInterface\PythonItemModule.cpp
; File C:\Program Files\Microsoft Visual Studio\2022\Community\VC\Tools\MSVC\14.44.35207\include\xstring
; File C:\Program Files\Microsoft Visual Studio\2022\Community\VC\Tools\MSVC\14.44.35207\include\__msvc_string_view.hpp
; File C:\Program Files\Microsoft Visual Studio\2022\Community\VC\Tools\MSVC\14.44.35207\include\xstring
; File C:\Program Files\Microsoft Visual Studio\2022\Community\VC\Tools\MSVC\14.44.35207\include\__msvc_string_view.hpp
; File C:\Program Files\Microsoft Visual Studio\2022\Community\VC\Tools\MSVC\14.44.35207\include\xstring
; File C:\Program Files\Microsoft Visual Studio\2022\Community\VC\Tools\MSVC\14.44.35207\include\algorithm
; File C:\Anka2Project\Anka2Project\Source\Binary\source\UserInterface\PythonItemModule.cpp
; File C:\Program Files\Microsoft Visual Studio\2022\Community\VC\Tools\MSVC\14.44.35207\include\algorithm
; File C:\Anka2Project\Anka2Project\Source\Binary\source\UserInterface\PythonItemModule.cpp
; File C:\Program Files\Microsoft Visual Studio\2022\Community\VC\Tools\MSVC\14.44.35207\include\algorithm
; File C:\Program Files\Microsoft Visual Studio\2022\Community\VC\Tools\MSVC\14.44.35207\include\xstring
; File C:\Anka2Project\Anka2Project\Source\Binary\source\UserInterface\PythonItemModule.cpp
; File C:\Program Files\Microsoft Visual Studio\2022\Community\VC\Tools\MSVC\14.44.35207\include\xstring
; File C:\Program Files\Microsoft Visual Studio\2022\Community\VC\Tools\MSVC\14.44.35207\include\xmemory
; File C:\Program Files\Microsoft Visual Studio\2022\Community\VC\Tools\MSVC\14.44.35207\include\xtree
; File C:\Anka2Project\Anka2Project\Source\Binary\source\UserInterface\PythonItemModule.cpp
; File C:\Program Files\Microsoft Visual Studio\2022\Community\VC\Tools\MSVC\14.44.35207\include\xstring
; File C:\Program Files\Microsoft Visual Studio\2022\Community\VC\Tools\MSVC\14.44.35207\include\xtree
; File C:\Anka2Project\Anka2Project\Source\Binary\source\UserInterface\PythonItemModule.cpp
; File C:\Program Files\Microsoft Visual Studio\2022\Community\VC\Tools\MSVC\14.44.35207\include\xmemory
; File C:\Anka2Project\Anka2Project\Source\Binary\source\UserInterface\PythonItemModule.cpp
;	COMDAT ?itemGetItemsByName@@YAPAU_object@@PAU1@0@Z
_TEXT	SEGMENT
__ULast$1$ = -100					; size = 4
_szItemName$ = -92					; size = 4
__Sentinel$81 = -88					; size = 8
_pTable$1$ = -84					; size = 4
_poList$1$ = -80					; size = 4
_i$1$ = -76						; size = 4
_m_vec_ItemRange$ = -72					; size = 8
_searchedFileName$ = -64				; size = 24
_tempFileName$82 = -40					; size = 24
__$ArrayPad$ = -16					; size = 4
__$EHRec$ = -12						; size = 12
_poSelf$ = 8						; size = 4
_poArgs$ = 12						; size = 4
?itemGetItemsByName@@YAPAU_object@@PAU1@0@Z PROC	; itemGetItemsByName, COMDAT

; 638  : {

  00000	55		 push	 ebp
  00001	8b ec		 mov	 ebp, esp
  00003	6a ff		 push	 -1
  00005	68 00 00 00 00	 push	 __ehhandler$?itemGetItemsByName@@YAPAU_object@@PAU1@0@Z
  0000a	64 a1 00 00 00
	00		 mov	 eax, DWORD PTR fs:0
  00010	50		 push	 eax
  00011	83 ec 58	 sub	 esp, 88			; 00000058H
  00014	a1 00 00 00 00	 mov	 eax, DWORD PTR ___security_cookie
  00019	33 c5		 xor	 eax, ebp
  0001b	89 45 f0	 mov	 DWORD PTR __$ArrayPad$[ebp], eax
  0001e	56		 push	 esi
  0001f	57		 push	 edi
  00020	50		 push	 eax
  00021	8d 45 f4	 lea	 eax, DWORD PTR __$EHRec$[ebp]
  00024	64 a3 00 00 00
	00		 mov	 DWORD PTR fs:0, eax
  0002a	8b 45 0c	 mov	 eax, DWORD PTR _poArgs$[ebp]

; 639  : 	char *szItemName;
; 640  : 	if (!PyTuple_GetString(poArgs, 0, &szItemName))

  0002d	8d 4d a4	 lea	 ecx, DWORD PTR _szItemName$[ebp]
  00030	51		 push	 ecx
  00031	6a 00		 push	 0
  00033	50		 push	 eax
  00034	e8 00 00 00 00	 call	 ?PyTuple_GetString@@YA_NPAU_object@@HPAPAD@Z ; PyTuple_GetString
  00039	83 c4 0c	 add	 esp, 12			; 0000000cH
  0003c	84 c0		 test	 al, al
  0003e	75 0a		 jne	 SHORT $LN5@itemGetIte

; 641  : 		return Py_BadArgument();

  00040	e8 00 00 00 00	 call	 ?Py_BadArgument@@YAPAU_object@@XZ ; Py_BadArgument
  00045	e9 96 02 00 00	 jmp	 $LN1@itemGetIte
$LN5@itemGetIte:
; File C:\Anka2Project\Anka2Project\Source\Binary\source\eterBase\Singleton.h

; 26   : 		assert(ms_singleton);

  0004a	8b 35 00 00 00
	00		 mov	 esi, DWORD PTR ?ms_singleton@?$CSingleton@VCItemManager@@@@0PAVCItemManager@@A ; CSingleton<CItemManager>::ms_singleton
  00050	85 f6		 test	 esi, esi
  00052	75 1a		 jne	 SHORT $LN203@itemGetIte
  00054	6a 1a		 push	 26			; 0000001aH
  00056	68 00 00 00 00	 push	 OFFSET ??_C@_1IO@CAJLEEOI@?$AAC?$AA?3?$AA?2?$AAA?$AAn?$AAk?$AAa?$AA2?$AAP?$AAr?$AAo?$AAj?$AAe?$AAc?$AAt@
  0005b	68 00 00 00 00	 push	 OFFSET ??_C@_1BK@FMEHPMFE@?$AAm?$AAs?$AA_?$AAs?$AAi?$AAn?$AAg?$AAl?$AAe?$AAt?$AAo?$AAn@
  00060	e8 00 00 00 00	 call	 __wassert
  00065	8b 35 00 00 00
	00		 mov	 esi, DWORD PTR ?ms_singleton@?$CSingleton@VCItemManager@@@@0PAVCItemManager@@A ; CSingleton<CItemManager>::ms_singleton
  0006b	83 c4 0c	 add	 esp, 12			; 0000000cH
$LN203@itemGetIte:
; File C:\Program Files\Microsoft Visual Studio\2022\Community\VC\Tools\MSVC\14.44.35207\include\xtree

; 790  :     _Tree_head_scoped_ptr(_Alnode& _Al_, _Scary_val& _Mycont_) : _Al(_Al_), _Mycont(_STD addressof(_Mycont_)) {

  0006e	8d 45 b8	 lea	 eax, DWORD PTR _m_vec_ItemRange$[ebp]

; 450  :     _Tree_val() noexcept : _Myhead(), _Mysize(0) {}

  00071	c7 45 b8 00 00
	00 00		 mov	 DWORD PTR _m_vec_ItemRange$[ebp], 0
; File C:\Program Files\Microsoft Visual Studio\2022\Community\VC\Tools\MSVC\14.44.35207\include\xmemory

; 136  :         return ::operator new(_Bytes);

  00078	6a 18		 push	 24			; 00000018H
; File C:\Program Files\Microsoft Visual Studio\2022\Community\VC\Tools\MSVC\14.44.35207\include\xtree

; 450  :     _Tree_val() noexcept : _Myhead(), _Mysize(0) {}

  0007a	c7 45 bc 00 00
	00 00		 mov	 DWORD PTR _m_vec_ItemRange$[ebp+4], 0

; 790  :     _Tree_head_scoped_ptr(_Alnode& _Al_, _Scary_val& _Mycont_) : _Al(_Al_), _Mycont(_STD addressof(_Mycont_)) {

  00081	89 45 a8	 mov	 DWORD PTR __Sentinel$81[ebp], eax
  00084	89 45 ac	 mov	 DWORD PTR __Sentinel$81[ebp+4], eax
; File C:\Program Files\Microsoft Visual Studio\2022\Community\VC\Tools\MSVC\14.44.35207\include\xmemory

; 136  :         return ::operator new(_Bytes);

  00087	e8 00 00 00 00	 call	 ??2@YAPAXI@Z		; operator new
  0008c	83 c4 04	 add	 esp, 4
; File C:\Program Files\Microsoft Visual Studio\2022\Community\VC\Tools\MSVC\14.44.35207\include\xtree

; 346  :         _Construct_in_place(_Pnode->_Left, _Pnode);

  0008f	89 00		 mov	 DWORD PTR [eax], eax

; 347  :         _Construct_in_place(_Pnode->_Parent, _Pnode);

  00091	89 40 04	 mov	 DWORD PTR [eax+4], eax

; 348  :         _Construct_in_place(_Pnode->_Right, _Pnode);

  00094	89 40 08	 mov	 DWORD PTR [eax+8], eax

; 349  :         _Pnode->_Color = _Black;

  00097	66 c7 40 0c 01
	01		 mov	 WORD PTR [eax+12], 257	; 00000101H

; 791  :         _Mycont->_Myhead = _Alnode::value_type::_Buyheadnode(_Al);

  0009d	89 45 b8	 mov	 DWORD PTR _m_vec_ItemRange$[ebp], eax

; 920  :         _Tree_head_scoped_ptr<_Alnode, _Scary_val> _Sentinel(_Getal(), *_Scary);

  000a0	c7 45 fc 00 00
	00 00		 mov	 DWORD PTR __$EHRec$[ebp+8], 0

; 1657 :         _Scary->_Myhead->_Parent = _Copy_nodes<_Strat>(_Right_scary->_Myhead->_Parent, _Scary->_Myhead);

  000a7	8d 4d b8	 lea	 ecx, DWORD PTR _m_vec_ItemRange$[ebp]
  000aa	50		 push	 eax
  000ab	8b 46 04	 mov	 eax, DWORD PTR [esi+4]
  000ae	ff 70 04	 push	 DWORD PTR [eax+4]
  000b1	e8 00 00 00 00	 call	 ??$_Copy_nodes@$0A@@?$_Tree@V?$_Tmap_traits@KPAVCItemData@@U?$less@K@std@@V?$allocator@U?$pair@$$CBKPAVCItemData@@@std@@@3@$0A@@std@@@std@@IAEPAU?$_Tree_node@U?$pair@$$CBKPAVCItemData@@@std@@PAX@1@PAU21@0@Z ; std::_Tree<std::_Tmap_traits<unsigned long,CItemData *,std::less<unsigned long>,std::allocator<std::pair<unsigned long const ,CItemData *> >,0> >::_Copy_nodes<0>
  000b6	8b 4d b8	 mov	 ecx, DWORD PTR _m_vec_ItemRange$[ebp]
  000b9	89 41 04	 mov	 DWORD PTR [ecx+4], eax

; 1658 :         _Scary->_Mysize          = _Right_scary->_Mysize;

  000bc	8b 46 08	 mov	 eax, DWORD PTR [esi+8]

; 1659 :         if (!_Scary->_Myhead->_Parent->_Isnil) { // nonempty tree, look for new smallest and largest

  000bf	8b 75 b8	 mov	 esi, DWORD PTR _m_vec_ItemRange$[ebp]
  000c2	89 45 bc	 mov	 DWORD PTR _m_vec_ItemRange$[ebp+4], eax
  000c5	8b 56 04	 mov	 edx, DWORD PTR [esi+4]
  000c8	80 7a 0d 00	 cmp	 BYTE PTR [edx+13], 0
  000cc	75 35		 jne	 SHORT $LN246@itemGetIte

; 476  :         while (!_Pnode->_Left->_Isnil) {

  000ce	8b 0a		 mov	 ecx, DWORD PTR [edx]
  000d0	80 79 0d 00	 cmp	 BYTE PTR [ecx+13], 0
  000d4	75 0c		 jne	 SHORT $LN251@itemGetIte
$LL250@itemGetIte:
  000d6	8b 01		 mov	 eax, DWORD PTR [ecx]

; 477  :             _Pnode = _Pnode->_Left;

  000d8	8b d1		 mov	 edx, ecx
  000da	8b c8		 mov	 ecx, eax
  000dc	80 78 0d 00	 cmp	 BYTE PTR [eax+13], 0
  000e0	74 f4		 je	 SHORT $LL250@itemGetIte
$LN251@itemGetIte:

; 1660 :             _Scary->_Myhead->_Left  = _Scary_val::_Min(_Scary->_Myhead->_Parent);

  000e2	89 16		 mov	 DWORD PTR [esi], edx

; 1661 :             _Scary->_Myhead->_Right = _Scary_val::_Max(_Scary->_Myhead->_Parent);

  000e4	8b 55 b8	 mov	 edx, DWORD PTR _m_vec_ItemRange$[ebp]
  000e7	8b 4a 04	 mov	 ecx, DWORD PTR [edx+4]

; 468  :         while (!_Pnode->_Right->_Isnil) {

  000ea	8b 41 08	 mov	 eax, DWORD PTR [ecx+8]
  000ed	80 78 0d 00	 cmp	 BYTE PTR [eax+13], 0
  000f1	75 0b		 jne	 SHORT $LN256@itemGetIte
$LL255@itemGetIte:

; 469  :             _Pnode = _Pnode->_Right;

  000f3	8b c8		 mov	 ecx, eax
  000f5	8b 41 08	 mov	 eax, DWORD PTR [ecx+8]
  000f8	80 78 0d 00	 cmp	 BYTE PTR [eax+13], 0
  000fc	74 f5		 je	 SHORT $LL255@itemGetIte
$LN256@itemGetIte:

; 1661 :             _Scary->_Myhead->_Right = _Scary_val::_Max(_Scary->_Myhead->_Parent);

  000fe	89 4a 08	 mov	 DWORD PTR [edx+8], ecx

; 1662 :         } else { // empty tree, just tidy head pointers

  00101	eb 08		 jmp	 SHORT $LN247@itemGetIte
$LN246@itemGetIte:

; 1663 :             _Scary->_Myhead->_Left  = _Scary->_Myhead;

  00103	89 36		 mov	 DWORD PTR [esi], esi

; 1664 :             _Scary->_Myhead->_Right = _Scary->_Myhead;

  00105	8b 45 b8	 mov	 eax, DWORD PTR _m_vec_ItemRange$[ebp]
  00108	89 40 08	 mov	 DWORD PTR [eax+8], eax
$LN247@itemGetIte:
; File C:\Anka2Project\Anka2Project\Source\Binary\source\UserInterface\PythonItemModule.cpp

; 643  : 	std::map<DWORD, CItemData*> m_vec_ItemRange = CItemManager::Instance().GetItems();

  0010b	c7 45 fc 01 00
	00 00		 mov	 DWORD PTR __$EHRec$[ebp+8], 1
  00112	0f 57 c0	 xorps	 xmm0, xmm0
; File C:\Program Files\Microsoft Visual Studio\2022\Community\VC\Tools\MSVC\14.44.35207\include\__msvc_string_view.hpp

; 456  :             return __builtin_strlen(_First);

  00115	8b 55 a4	 mov	 edx, DWORD PTR _szItemName$[ebp]
  00118	8b ca		 mov	 ecx, edx
; File C:\Program Files\Microsoft Visual Studio\2022\Community\VC\Tools\MSVC\14.44.35207\include\xstring

; 493  :         _CONSTEXPR20 _Bxty() noexcept : _Buf() {} // user-provided, for fancy pointers

  0011a	0f 11 45 c0	 movups	 XMMWORD PTR _searchedFileName$[ebp], xmm0

; 517  :     size_type _Mysize = 0; // current length of string (size)

  0011e	c7 45 d0 00 00
	00 00		 mov	 DWORD PTR _searchedFileName$[ebp+16], 0

; 518  :     size_type _Myres  = 0; // current storage reserved for string (capacity)

  00125	c7 45 d4 00 00
	00 00		 mov	 DWORD PTR _searchedFileName$[ebp+20], 0
; File C:\Program Files\Microsoft Visual Studio\2022\Community\VC\Tools\MSVC\14.44.35207\include\__msvc_string_view.hpp

; 456  :             return __builtin_strlen(_First);

  0012c	8d 71 01	 lea	 esi, DWORD PTR [ecx+1]
  0012f	90		 npad	 1
$LL331@itemGetIte:
  00130	8a 01		 mov	 al, BYTE PTR [ecx]
  00132	41		 inc	 ecx
  00133	84 c0		 test	 al, al
  00135	75 f9		 jne	 SHORT $LL331@itemGetIte
  00137	2b ce		 sub	 ecx, esi
; File C:\Program Files\Microsoft Visual Studio\2022\Community\VC\Tools\MSVC\14.44.35207\include\xstring

; 769  :         _Construct<_Construct_strategy::_From_ptr>(_Ptr, _Convert_size<size_type>(_Traits::length(_Ptr)));

  00139	51		 push	 ecx
  0013a	52		 push	 edx
  0013b	8d 4d c0	 lea	 ecx, DWORD PTR _searchedFileName$[ebp]
  0013e	e8 00 00 00 00	 call	 ??$_Construct@$00PBD@?$basic_string@DU?$char_traits@D@std@@V?$allocator@D@2@@std@@AAEXQBDI@Z ; std::basic_string<char,std::char_traits<char>,std::allocator<char> >::_Construct<1,char const *>
; File C:\Anka2Project\Anka2Project\Source\Binary\source\UserInterface\PythonItemModule.cpp

; 646  : 	PyObject *poList = PyList_New(0);

  00143	6a 00		 push	 0
  00145	c6 45 fc 02	 mov	 BYTE PTR __$EHRec$[ebp+8], 2
  00149	ff 15 00 00 00
	00		 call	 DWORD PTR __imp__PyList_New
; File C:\Program Files\Microsoft Visual Studio\2022\Community\VC\Tools\MSVC\14.44.35207\include\xtree

; 37   :     _Tree_unchecked_const_iterator(_Nodeptr _Pnode, const _Mytree* _Plist) noexcept : _Ptr(_Pnode) {

  0014f	8b 4d b8	 mov	 ecx, DWORD PTR _m_vec_ItemRange$[ebp]
; File C:\Anka2Project\Anka2Project\Source\Binary\source\UserInterface\PythonItemModule.cpp

; 646  : 	PyObject *poList = PyList_New(0);

  00152	83 c4 04	 add	 esp, 4
  00155	8b f8		 mov	 edi, eax
  00157	89 7d b0	 mov	 DWORD PTR _poList$1$[ebp], edi
; File C:\Program Files\Microsoft Visual Studio\2022\Community\VC\Tools\MSVC\14.44.35207\include\xtree

; 37   :     _Tree_unchecked_const_iterator(_Nodeptr _Pnode, const _Mytree* _Plist) noexcept : _Ptr(_Pnode) {

  0015a	8b 31		 mov	 esi, DWORD PTR [ecx]
  0015c	89 75 b4	 mov	 DWORD PTR _i$1$[ebp], esi
  0015f	3b f1		 cmp	 esi, ecx
; File C:\Anka2Project\Anka2Project\Source\Binary\source\UserInterface\PythonItemModule.cpp

; 649  : 	for (i = m_vec_ItemRange.begin(); i != m_vec_ItemRange.end(); ++i)

  00161	0f 84 64 01 00
	00		 je	 $LN318@itemGetIte
$LL4@itemGetIte:

; 650  : 	{
; 651  : 		CItemData* p = i->second;
; 652  : 		const CItemData::TItemTable* pTable = p->GetTable();

  00167	8b 4e 14	 mov	 ecx, DWORD PTR [esi+20]
  0016a	e8 00 00 00 00	 call	 ?GetTable@CItemData@@QBEPBUSItemTable@1@XZ ; CItemData::GetTable
  0016f	89 45 ac	 mov	 DWORD PTR _pTable$1$[ebp], eax

; 653  : 		if (pTable)

  00172	85 c0		 test	 eax, eax
  00174	0f 84 fa 00 00
	00		 je	 $LN2@itemGetIte

; 654  : 		{
; 655  : 			std::string tempFileName(pTable->szLocaleName);

  0017a	8d 50 39	 lea	 edx, DWORD PTR [eax+57]
; File C:\Program Files\Microsoft Visual Studio\2022\Community\VC\Tools\MSVC\14.44.35207\include\xstring

; 517  :     size_type _Mysize = 0; // current length of string (size)

  0017d	c7 45 e8 00 00
	00 00		 mov	 DWORD PTR _tempFileName$82[ebp+16], 0
; File C:\Program Files\Microsoft Visual Studio\2022\Community\VC\Tools\MSVC\14.44.35207\include\__msvc_string_view.hpp

; 456  :             return __builtin_strlen(_First);

  00184	8b ca		 mov	 ecx, edx
; File C:\Program Files\Microsoft Visual Studio\2022\Community\VC\Tools\MSVC\14.44.35207\include\xstring

; 518  :     size_type _Myres  = 0; // current storage reserved for string (capacity)

  00186	c7 45 ec 00 00
	00 00		 mov	 DWORD PTR _tempFileName$82[ebp+20], 0
  0018d	0f 57 c0	 xorps	 xmm0, xmm0

; 493  :         _CONSTEXPR20 _Bxty() noexcept : _Buf() {} // user-provided, for fancy pointers

  00190	0f 11 45 d8	 movups	 XMMWORD PTR _tempFileName$82[ebp], xmm0
; File C:\Program Files\Microsoft Visual Studio\2022\Community\VC\Tools\MSVC\14.44.35207\include\__msvc_string_view.hpp

; 456  :             return __builtin_strlen(_First);

  00194	8d 79 01	 lea	 edi, DWORD PTR [ecx+1]
$LL332@itemGetIte:
  00197	8a 01		 mov	 al, BYTE PTR [ecx]
  00199	41		 inc	 ecx
  0019a	84 c0		 test	 al, al
  0019c	75 f9		 jne	 SHORT $LL332@itemGetIte
  0019e	2b cf		 sub	 ecx, edi
; File C:\Program Files\Microsoft Visual Studio\2022\Community\VC\Tools\MSVC\14.44.35207\include\xstring

; 769  :         _Construct<_Construct_strategy::_From_ptr>(_Ptr, _Convert_size<size_type>(_Traits::length(_Ptr)));

  001a0	51		 push	 ecx
  001a1	52		 push	 edx
  001a2	8d 4d d8	 lea	 ecx, DWORD PTR _tempFileName$82[ebp]
  001a5	e8 00 00 00 00	 call	 ??$_Construct@$00PBD@?$basic_string@DU?$char_traits@D@std@@V?$allocator@D@2@@std@@AAEXQBDI@Z ; std::basic_string<char,std::char_traits<char>,std::allocator<char> >::_Construct<1,char const *>

; 453  :         return _Myres > _Small_string_capacity;

  001aa	83 7d ec 0f	 cmp	 DWORD PTR _tempFileName$82[ebp+20], 15 ; 0000000fH

; 435  :         value_type* _Result = _Bx._Buf;

  001ae	8d 45 d8	 lea	 eax, DWORD PTR _tempFileName$82[ebp]

; 436  :         if (_Large_mode_engaged()) {

  001b1	8b 4d d8	 mov	 ecx, DWORD PTR _tempFileName$82[ebp]
  001b4	8d 55 d8	 lea	 edx, DWORD PTR _tempFileName$82[ebp]
  001b7	0f 47 c1	 cmova	 eax, ecx

; 435  :         value_type* _Result = _Bx._Buf;

  001ba	8d 7d d8	 lea	 edi, DWORD PTR _tempFileName$82[ebp]

; 436  :         if (_Large_mode_engaged()) {

  001bd	0f 47 d1	 cmova	 edx, ecx

; 2170 :         return iterator(

  001c0	03 45 e8	 add	 eax, DWORD PTR _tempFileName$82[ebp+16]

; 453  :         return _Myres > _Small_string_capacity;

  001c3	83 7d ec 0f	 cmp	 DWORD PTR _tempFileName$82[ebp+20], 15 ; 0000000fH

; 2170 :         return iterator(

  001c7	89 45 9c	 mov	 DWORD PTR __ULast$1$[ebp], eax

; 436  :         if (_Large_mode_engaged()) {

  001ca	0f 47 f9	 cmova	 edi, ecx
; File C:\Program Files\Microsoft Visual Studio\2022\Community\VC\Tools\MSVC\14.44.35207\include\algorithm

; 3798 :     for (; _UFirst != _ULast; ++_UFirst, (void) ++_UDest) {

  001cd	3b f8		 cmp	 edi, eax
  001cf	74 1c		 je	 SHORT $LN334@itemGetIte
  001d1	2b d7		 sub	 edx, edi
  001d3	8b f2		 mov	 esi, edx
$LL136@itemGetIte:
; File C:\Anka2Project\Anka2Project\Source\Binary\source\UserInterface\PythonItemModule.cpp

; 656  : 			std::transform(tempFileName.begin(), tempFileName.end(), tempFileName.begin(),[](unsigned char c) { return std::tolower(c); });

  001d5	0f b6 07	 movzx	 eax, BYTE PTR [edi]
  001d8	50		 push	 eax
  001d9	e8 00 00 00 00	 call	 _tolower
; File C:\Program Files\Microsoft Visual Studio\2022\Community\VC\Tools\MSVC\14.44.35207\include\algorithm

; 3799 :         *_UDest = _Func(*_UFirst);

  001de	88 04 3e	 mov	 BYTE PTR [esi+edi], al
; File C:\Anka2Project\Anka2Project\Source\Binary\source\UserInterface\PythonItemModule.cpp

; 656  : 			std::transform(tempFileName.begin(), tempFileName.end(), tempFileName.begin(),[](unsigned char c) { return std::tolower(c); });

  001e1	83 c4 04	 add	 esp, 4
; File C:\Program Files\Microsoft Visual Studio\2022\Community\VC\Tools\MSVC\14.44.35207\include\algorithm

; 3798 :     for (; _UFirst != _ULast; ++_UFirst, (void) ++_UDest) {

  001e4	47		 inc	 edi
  001e5	3b 7d 9c	 cmp	 edi, DWORD PTR __ULast$1$[ebp]
  001e8	75 eb		 jne	 SHORT $LL136@itemGetIte
  001ea	8b 75 b4	 mov	 esi, DWORD PTR _i$1$[ebp]
$LN334@itemGetIte:
; File C:\Program Files\Microsoft Visual Studio\2022\Community\VC\Tools\MSVC\14.44.35207\include\xstring

; 453  :         return _Myres > _Small_string_capacity;

  001ed	83 7d d4 0f	 cmp	 DWORD PTR _searchedFileName$[ebp+20], 15 ; 0000000fH

; 444  :         const value_type* _Result = _Bx._Buf;

  001f1	8d 55 c0	 lea	 edx, DWORD PTR _searchedFileName$[ebp]

; 487  :         return (_STD min)(_Size, _Mysize - _Off);

  001f4	8b 45 e8	 mov	 eax, DWORD PTR _tempFileName$82[ebp+16]

; 445  :         if (_Large_mode_engaged()) {

  001f7	0f 47 55 c0	 cmova	 edx, DWORD PTR _searchedFileName$[ebp]

; 487  :         return (_STD min)(_Size, _Mysize - _Off);

  001fb	8b 4d d0	 mov	 ecx, DWORD PTR _searchedFileName$[ebp+16]
  001fe	3b c1		 cmp	 eax, ecx

; 2897 :         return _Traits_compare<_Traits>(_Mypair._Myval2._Myptr() + _Off, _Mypair._Myval2._Clamp_suffix_size(_Off, _Nx),

  00200	ff 75 d0	 push	 DWORD PTR _searchedFileName$[ebp+16]

; 444  :         const value_type* _Result = _Bx._Buf;

  00203	8b 7d d8	 mov	 edi, DWORD PTR _tempFileName$82[ebp]

; 487  :         return (_STD min)(_Size, _Mysize - _Off);

  00206	0f 42 c8	 cmovb	 ecx, eax

; 453  :         return _Myres > _Small_string_capacity;

  00209	83 7d ec 0f	 cmp	 DWORD PTR _tempFileName$82[ebp+20], 15 ; 0000000fH

; 444  :         const value_type* _Result = _Bx._Buf;

  0020d	8d 45 d8	 lea	 eax, DWORD PTR _tempFileName$82[ebp]

; 2897 :         return _Traits_compare<_Traits>(_Mypair._Myval2._Myptr() + _Off, _Mypair._Myval2._Clamp_suffix_size(_Off, _Nx),

  00210	52		 push	 edx

; 445  :         if (_Large_mode_engaged()) {

  00211	0f 47 c7	 cmova	 eax, edi

; 2897 :         return _Traits_compare<_Traits>(_Mypair._Myval2._Myptr() + _Off, _Mypair._Myval2._Clamp_suffix_size(_Off, _Nx),

  00214	51		 push	 ecx
  00215	50		 push	 eax
  00216	e8 00 00 00 00	 call	 ??$_Traits_compare@U?$char_traits@D@std@@@std@@YAHQBDI0I@Z ; std::_Traits_compare<std::char_traits<char> >
  0021b	83 c4 10	 add	 esp, 16			; 00000010H
; File C:\Anka2Project\Anka2Project\Source\Binary\source\UserInterface\PythonItemModule.cpp

; 657  : 			if (tempFileName.compare(0, searchedFileName.length(), searchedFileName) == 0)

  0021e	85 c0		 test	 eax, eax
  00220	75 1b		 jne	 SHORT $LN7@itemGetIte

; 658  : 			{
; 659  : 				PyObject *poItemVnum = PyInt_FromLong(pTable->dwVnum);

  00222	8b 45 ac	 mov	 eax, DWORD PTR _pTable$1$[ebp]
  00225	ff 30		 push	 DWORD PTR [eax]
  00227	ff 15 00 00 00
	00		 call	 DWORD PTR __imp__PyInt_FromLong

; 660  : 				PyList_Append(poList, poItemVnum);

  0022d	50		 push	 eax
  0022e	ff 75 b0	 push	 DWORD PTR _poList$1$[ebp]
  00231	ff 15 00 00 00
	00		 call	 DWORD PTR __imp__PyList_Append
  00237	8b 7d d8	 mov	 edi, DWORD PTR _tempFileName$82[ebp]
  0023a	83 c4 0c	 add	 esp, 12			; 0000000cH
$LN7@itemGetIte:

; 661  : 			}
; 662  : 		}

  0023d	c6 45 fc 02	 mov	 BYTE PTR __$EHRec$[ebp+8], 2
; File C:\Program Files\Microsoft Visual Studio\2022\Community\VC\Tools\MSVC\14.44.35207\include\xstring

; 453  :         return _Myres > _Small_string_capacity;

  00241	8b 45 ec	 mov	 eax, DWORD PTR _tempFileName$82[ebp+20]
  00244	83 f8 0f	 cmp	 eax, 15			; 0000000fH

; 3083 :         if (_My_data._Large_mode_engaged()) {

  00247	76 2b		 jbe	 SHORT $LN2@itemGetIte

; 852  :         _Al.deallocate(_Old_ptr, _Capacity + 1); // +1 for null terminator

  00249	8d 48 01	 lea	 ecx, DWORD PTR [eax+1]
; File C:\Program Files\Microsoft Visual Studio\2022\Community\VC\Tools\MSVC\14.44.35207\include\xmemory

; 985  :         _STD _Deallocate<_New_alignof<_Ty>>(_Ptr, sizeof(_Ty) * _Count);

  0024c	8b c7		 mov	 eax, edi

; 284  :         if (_Bytes >= _Big_allocation_threshold) {

  0024e	81 f9 00 10 00
	00		 cmp	 ecx, 4096		; 00001000H
  00254	72 14		 jb	 SHORT $LN195@itemGetIte

; 205  :     const uintptr_t _Ptr_container   = _Ptr_user[-1];

  00256	8b 78 fc	 mov	 edi, DWORD PTR [eax-4]
  00259	83 c1 23	 add	 ecx, 35			; 00000023H
  0025c	2b c7		 sub	 eax, edi

; 219  :     _STL_VERIFY(_Back_shift >= _Min_back_shift && _Back_shift <= _Non_user_size, "invalid argument");

  0025e	83 c0 fc	 add	 eax, -4			; fffffffcH
  00261	83 f8 1f	 cmp	 eax, 31			; 0000001fH
  00264	0f 87 91 00 00
	00		 ja	 $LN311@itemGetIte
$LN195@itemGetIte:

; 289  :         ::operator delete(_Ptr, _Bytes);

  0026a	51		 push	 ecx
  0026b	57		 push	 edi
  0026c	e8 00 00 00 00	 call	 ??3@YAXPAXI@Z		; operator delete
  00271	83 c4 08	 add	 esp, 8
$LN2@itemGetIte:
; File C:\Program Files\Microsoft Visual Studio\2022\Community\VC\Tools\MSVC\14.44.35207\include\xtree

; 50   :         if (_Ptr->_Right->_Isnil) { // climb looking for right subtree

  00274	8b 46 08	 mov	 eax, DWORD PTR [esi+8]
  00277	80 78 0d 00	 cmp	 BYTE PTR [eax+13], 0
  0027b	74 20		 je	 SHORT $LN36@itemGetIte

; 51   :             _Nodeptr _Pnode;
; 52   :             while (!(_Pnode = _Ptr->_Parent)->_Isnil && _Ptr == _Pnode->_Right) {

  0027d	8b 46 04	 mov	 eax, DWORD PTR [esi+4]
  00280	80 78 0d 00	 cmp	 BYTE PTR [eax+13], 0
  00284	75 10		 jne	 SHORT $LN35@itemGetIte
$LL34@itemGetIte:
  00286	3b 70 08	 cmp	 esi, DWORD PTR [eax+8]
  00289	75 0b		 jne	 SHORT $LN35@itemGetIte

; 53   :                 _Ptr = _Pnode; // ==> parent while right subtree

  0028b	8b f0		 mov	 esi, eax
  0028d	8b 40 04	 mov	 eax, DWORD PTR [eax+4]
  00290	80 78 0d 00	 cmp	 BYTE PTR [eax+13], 0
  00294	74 f0		 je	 SHORT $LL34@itemGetIte
$LN35@itemGetIte:

; 54   :             }
; 55   : 
; 56   :             _Ptr = _Pnode; // ==> parent (head if end())

  00296	8b f0		 mov	 esi, eax
  00298	89 75 b4	 mov	 DWORD PTR _i$1$[ebp], esi

; 57   :         } else {

  0029b	eb 22		 jmp	 SHORT $LN317@itemGetIte
$LN36@itemGetIte:

; 58   :             _Ptr = _Mytree::_Min(_Ptr->_Right); // ==> smallest of right subtree

  0029d	8b f0		 mov	 esi, eax
  0029f	89 75 b4	 mov	 DWORD PTR _i$1$[ebp], esi

; 476  :         while (!_Pnode->_Left->_Isnil) {

  002a2	8b 0e		 mov	 ecx, DWORD PTR [esi]
  002a4	80 79 0d 00	 cmp	 BYTE PTR [ecx+13], 0
  002a8	75 15		 jne	 SHORT $LN317@itemGetIte
  002aa	66 0f 1f 44 00
	00		 npad	 6
$LL41@itemGetIte:
  002b0	8b 01		 mov	 eax, DWORD PTR [ecx]

; 477  :             _Pnode = _Pnode->_Left;

  002b2	8b f1		 mov	 esi, ecx
  002b4	89 75 b4	 mov	 DWORD PTR _i$1$[ebp], esi
  002b7	8b c8		 mov	 ecx, eax
  002b9	80 78 0d 00	 cmp	 BYTE PTR [eax+13], 0
  002bd	74 f1		 je	 SHORT $LL41@itemGetIte
$LN317@itemGetIte:

; 37   :     _Tree_unchecked_const_iterator(_Nodeptr _Pnode, const _Mytree* _Plist) noexcept : _Ptr(_Pnode) {

  002bf	3b 75 b8	 cmp	 esi, DWORD PTR _m_vec_ItemRange$[ebp]
; File C:\Anka2Project\Anka2Project\Source\Binary\source\UserInterface\PythonItemModule.cpp

; 649  : 	for (i = m_vec_ItemRange.begin(); i != m_vec_ItemRange.end(); ++i)

  002c2	0f 85 9f fe ff
	ff		 jne	 $LL4@itemGetIte
  002c8	8b 7d b0	 mov	 edi, DWORD PTR _poList$1$[ebp]
$LN318@itemGetIte:
; File C:\Program Files\Microsoft Visual Studio\2022\Community\VC\Tools\MSVC\14.44.35207\include\xstring

; 1383 :         _Tidy_deallocate();

  002cb	8d 4d c0	 lea	 ecx, DWORD PTR _searchedFileName$[ebp]
  002ce	e8 00 00 00 00	 call	 ?_Tidy_deallocate@?$basic_string@DU?$char_traits@D@std@@V?$allocator@D@2@@std@@AAEXXZ ; std::basic_string<char,std::char_traits<char>,std::allocator<char> >::_Tidy_deallocate
; File C:\Program Files\Microsoft Visual Studio\2022\Community\VC\Tools\MSVC\14.44.35207\include\xtree

; 1097 :         _Scary->_Erase_head(_Getal());

  002d3	8d 45 b8	 lea	 eax, DWORD PTR _m_vec_ItemRange$[ebp]
  002d6	50		 push	 eax
  002d7	8b c8		 mov	 ecx, eax
  002d9	e8 00 00 00 00	 call	 ??$_Erase_head@V?$allocator@U?$_Tree_node@U?$pair@$$CBKPAVCItemData@@@std@@PAX@std@@@std@@@?$_Tree_val@U?$_Tree_simple_types@U?$pair@$$CBKPAVCItemData@@@std@@@std@@@std@@QAEXAAV?$allocator@U?$_Tree_node@U?$pair@$$CBKPAVCItemData@@@std@@PAX@std@@@1@@Z ; std::_Tree_val<std::_Tree_simple_types<std::pair<unsigned long const ,CItemData *> > >::_Erase_head<std::allocator<std::_Tree_node<std::pair<unsigned long const ,CItemData *>,void *> > >
; File C:\Anka2Project\Anka2Project\Source\Binary\source\UserInterface\PythonItemModule.cpp

; 664  : 	return poList;

  002de	8b c7		 mov	 eax, edi
$LN1@itemGetIte:

; 665  : }

  002e0	8b 4d f4	 mov	 ecx, DWORD PTR __$EHRec$[ebp]
  002e3	64 89 0d 00 00
	00 00		 mov	 DWORD PTR fs:0, ecx
  002ea	59		 pop	 ecx
  002eb	5f		 pop	 edi
  002ec	5e		 pop	 esi
  002ed	8b 4d f0	 mov	 ecx, DWORD PTR __$ArrayPad$[ebp]
  002f0	33 cd		 xor	 ecx, ebp
  002f2	e8 00 00 00 00	 call	 @__security_check_cookie@4
  002f7	8b e5		 mov	 esp, ebp
  002f9	5d		 pop	 ebp
  002fa	c3		 ret	 0
$LN311@itemGetIte:
; File C:\Program Files\Microsoft Visual Studio\2022\Community\VC\Tools\MSVC\14.44.35207\include\xmemory

; 219  :     _STL_VERIFY(_Back_shift >= _Min_back_shift && _Back_shift <= _Non_user_size, "invalid argument");

  002fb	6a 00		 push	 0
  002fd	6a 00		 push	 0
  002ff	6a 00		 push	 0
  00301	6a 00		 push	 0
  00303	6a 00		 push	 0
  00305	e8 00 00 00 00	 call	 __invoke_watson
$LN337@itemGetIte:
  0030a	cc		 int	 3
_TEXT	ENDS
;	COMDAT text$x
text$x	SEGMENT
__unwindfunclet$?itemGetItemsByName@@YAPAU_object@@PAU1@0@Z$10:
  00000	8d 4d a8	 lea	 ecx, DWORD PTR __Sentinel$81[ebp]
  00003	e9 00 00 00 00	 jmp	 ??1?$_Tree_head_scoped_ptr@V?$allocator@U?$_Tree_node@U?$pair@$$CBKPAVCItemData@@@std@@PAX@std@@@std@@V?$_Tree_val@U?$_Tree_simple_types@U?$pair@$$CBKPAVCItemData@@@std@@@std@@@2@@std@@QAE@XZ ; std::_Tree_head_scoped_ptr<std::allocator<std::_Tree_node<std::pair<unsigned long const ,CItemData *>,void *> >,std::_Tree_val<std::_Tree_simple_types<std::pair<unsigned long const ,CItemData *> > > >::~_Tree_head_scoped_ptr<std::allocator<std::_Tree_node<std::pair<unsigned long const ,CItemData *>,void *> >,std::_Tree_val<std::_Tree_simple_types<std::pair<unsigned long const ,CItemData *> > > >
__unwindfunclet$?itemGetItemsByName@@YAPAU_object@@PAU1@0@Z$0:
  00008	8d 4d b8	 lea	 ecx, DWORD PTR _m_vec_ItemRange$[ebp]
  0000b	e9 00 00 00 00	 jmp	 ??1?$map@KPAVCItemData@@U?$less@K@std@@V?$allocator@U?$pair@$$CBKPAVCItemData@@@std@@@3@@std@@QAE@XZ
__unwindfunclet$?itemGetItemsByName@@YAPAU_object@@PAU1@0@Z$1:
  00010	8d 4d c0	 lea	 ecx, DWORD PTR _searchedFileName$[ebp]
  00013	e9 00 00 00 00	 jmp	 ??1?$basic_string@DU?$char_traits@D@std@@V?$allocator@D@2@@std@@QAE@XZ ; std::basic_string<char,std::char_traits<char>,std::allocator<char> >::~basic_string<char,std::char_traits<char>,std::allocator<char> >
__unwindfunclet$?itemGetItemsByName@@YAPAU_object@@PAU1@0@Z$2:
  00018	8d 4d d8	 lea	 ecx, DWORD PTR _tempFileName$82[ebp]
  0001b	e9 00 00 00 00	 jmp	 ??1?$basic_string@DU?$char_traits@D@std@@V?$allocator@D@2@@std@@QAE@XZ ; std::basic_string<char,std::char_traits<char>,std::allocator<char> >::~basic_string<char,std::char_traits<char>,std::allocator<char> >
  00020	cc		 int	 3
  00021	cc		 int	 3
  00022	cc		 int	 3
  00023	cc		 int	 3
  00024	cc		 int	 3
__ehhandler$?itemGetItemsByName@@YAPAU_object@@PAU1@0@Z:
  00025	90		 npad	 1
  00026	90		 npad	 1
  00027	8b 54 24 08	 mov	 edx, DWORD PTR [esp+8]
  0002b	8d 42 0c	 lea	 eax, DWORD PTR [edx+12]
  0002e	8b 4a 9c	 mov	 ecx, DWORD PTR [edx-100]
  00031	33 c8		 xor	 ecx, eax
  00033	e8 00 00 00 00	 call	 @__security_check_cookie@4
  00038	8b 4a fc	 mov	 ecx, DWORD PTR [edx-4]
  0003b	33 c8		 xor	 ecx, eax
  0003d	e8 00 00 00 00	 call	 @__security_check_cookie@4
  00042	b8 00 00 00 00	 mov	 eax, OFFSET __ehfuncinfo$?itemGetItemsByName@@YAPAU_object@@PAU1@0@Z
  00047	e9 00 00 00 00	 jmp	 ___CxxFrameHandler3
text$x	ENDS
?itemGetItemsByName@@YAPAU_object@@PAU1@0@Z ENDP	; itemGetItemsByName
; Function compile flags: /Ogtp
; File C:\Anka2Project\Anka2Project\Source\Binary\source\UserInterface\PythonItemModule.cpp
; File C:\Anka2Project\Anka2Project\Source\Binary\source\eterBase\Singleton.h
; File C:\Anka2Project\Anka2Project\Source\Binary\source\UserInterface\PythonItemModule.cpp
; File C:\Anka2Project\Anka2Project\Source\Binary\source\eterBase\Singleton.h
; File C:\Anka2Project\Anka2Project\Source\Binary\source\UserInterface\PythonItemModule.cpp
; File C:\Anka2Project\Anka2Project\Source\Binary\source\eterBase\Singleton.h
; File C:\Anka2Project\Anka2Project\Source\Binary\source\UserInterface\PythonItemModule.cpp
;	COMDAT ?itemIsPossibleChangeLookLeft@@YAPAU_object@@PAU1@0@Z
_TEXT	SEGMENT
_iItemVID$ = -4						; size = 4
_poSelf$ = 8						; size = 4
_poArgs$ = 12						; size = 4
?itemIsPossibleChangeLookLeft@@YAPAU_object@@PAU1@0@Z PROC ; itemIsPossibleChangeLookLeft, COMDAT

; 670  : {

  00000	55		 push	 ebp
  00001	8b ec		 mov	 ebp, esp
  00003	51		 push	 ecx

; 671  : 	int iItemVID;
; 672  : 	if (!PyTuple_GetInteger(poArgs, 0, &iItemVID))

  00004	8d 45 fc	 lea	 eax, DWORD PTR _iItemVID$[ebp]
  00007	50		 push	 eax
  00008	6a 00		 push	 0
  0000a	ff 75 0c	 push	 DWORD PTR _poArgs$[ebp]
  0000d	e8 00 00 00 00	 call	 ?PyTuple_GetInteger@@YA_NPAU_object@@HPAH@Z ; PyTuple_GetInteger
  00012	83 c4 0c	 add	 esp, 12			; 0000000cH
  00015	84 c0		 test	 al, al
  00017	75 09		 jne	 SHORT $LN2@itemIsPoss

; 673  : 		return Py_BadArgument();

  00019	e8 00 00 00 00	 call	 ?Py_BadArgument@@YAPAU_object@@XZ ; Py_BadArgument

; 681  : }

  0001e	8b e5		 mov	 esp, ebp
  00020	5d		 pop	 ebp
  00021	c3		 ret	 0
$LN2@itemIsPoss:
; File C:\Anka2Project\Anka2Project\Source\Binary\source\eterBase\Singleton.h

; 26   : 		assert(ms_singleton);

  00022	8b 0d 00 00 00
	00		 mov	 ecx, DWORD PTR ?ms_singleton@?$CSingleton@VCItemManager@@@@0PAVCItemManager@@A ; CSingleton<CItemManager>::ms_singleton
  00028	85 c9		 test	 ecx, ecx
  0002a	75 1a		 jne	 SHORT $LN7@itemIsPoss
  0002c	6a 1a		 push	 26			; 0000001aH
  0002e	68 00 00 00 00	 push	 OFFSET ??_C@_1IO@CAJLEEOI@?$AAC?$AA?3?$AA?2?$AAA?$AAn?$AAk?$AAa?$AA2?$AAP?$AAr?$AAo?$AAj?$AAe?$AAc?$AAt@
  00033	68 00 00 00 00	 push	 OFFSET ??_C@_1BK@FMEHPMFE@?$AAm?$AAs?$AA_?$AAs?$AAi?$AAn?$AAg?$AAl?$AAe?$AAt?$AAo?$AAn@
  00038	e8 00 00 00 00	 call	 __wassert
  0003d	8b 0d 00 00 00
	00		 mov	 ecx, DWORD PTR ?ms_singleton@?$CSingleton@VCItemManager@@@@0PAVCItemManager@@A ; CSingleton<CItemManager>::ms_singleton
  00043	83 c4 0c	 add	 esp, 12			; 0000000cH
$LN7@itemIsPoss:
; File C:\Anka2Project\Anka2Project\Source\Binary\source\UserInterface\PythonItemModule.cpp

; 675  : 	CItemManager::Instance().SelectItemData(iItemVID);

  00046	ff 75 fc	 push	 DWORD PTR _iItemVID$[ebp]
  00049	e8 00 00 00 00	 call	 ?SelectItemData@CItemManager@@QAEHK@Z ; CItemManager::SelectItemData
; File C:\Anka2Project\Anka2Project\Source\Binary\source\eterBase\Singleton.h

; 26   : 		assert(ms_singleton);

  0004e	8b 0d 00 00 00
	00		 mov	 ecx, DWORD PTR ?ms_singleton@?$CSingleton@VCItemManager@@@@0PAVCItemManager@@A ; CSingleton<CItemManager>::ms_singleton
  00054	85 c9		 test	 ecx, ecx
  00056	75 1a		 jne	 SHORT $LN10@itemIsPoss
  00058	6a 1a		 push	 26			; 0000001aH
  0005a	68 00 00 00 00	 push	 OFFSET ??_C@_1IO@CAJLEEOI@?$AAC?$AA?3?$AA?2?$AAA?$AAn?$AAk?$AAa?$AA2?$AAP?$AAr?$AAo?$AAj?$AAe?$AAc?$AAt@
  0005f	68 00 00 00 00	 push	 OFFSET ??_C@_1BK@FMEHPMFE@?$AAm?$AAs?$AA_?$AAs?$AAi?$AAn?$AAg?$AAl?$AAe?$AAt?$AAo?$AAn@
  00064	e8 00 00 00 00	 call	 __wassert
  00069	8b 0d 00 00 00
	00		 mov	 ecx, DWORD PTR ?ms_singleton@?$CSingleton@VCItemManager@@@@0PAVCItemManager@@A ; CSingleton<CItemManager>::ms_singleton
  0006f	83 c4 0c	 add	 esp, 12			; 0000000cH
$LN10@itemIsPoss:
  00072	56		 push	 esi
; File C:\Anka2Project\Anka2Project\Source\Binary\source\UserInterface\PythonItemModule.cpp

; 676  : 	CItemData *pItemData = CItemManager::Instance().GetSelectedItemDataPointer();

  00073	e8 00 00 00 00	 call	 ?GetSelectedItemDataPointer@CItemManager@@QAEPAVCItemData@@XZ ; CItemManager::GetSelectedItemDataPointer
  00078	8b f0		 mov	 esi, eax

; 677  : 	if (!pItemData)

  0007a	85 f6		 test	 esi, esi
  0007c	75 12		 jne	 SHORT $LN3@itemIsPoss

; 678  : 		return Py_BuildException("Can't find select item data");

  0007e	68 00 00 00 00	 push	 OFFSET ??_C@_0BM@KPLEGEEH@Can?8t?5find?5select?5item?5data@
  00083	e8 00 00 00 00	 call	 ?Py_BuildException@@YAPAU_object@@PBDZZ ; Py_BuildException
  00088	83 c4 04	 add	 esp, 4
  0008b	5e		 pop	 esi

; 681  : }

  0008c	8b e5		 mov	 esp, ebp
  0008e	5d		 pop	 ebp
  0008f	c3		 ret	 0
$LN3@itemIsPoss:
; File C:\Anka2Project\Anka2Project\Source\Binary\source\eterBase\Singleton.h

; 26   : 		assert(ms_singleton);

  00090	83 3d 00 00 00
	00 00		 cmp	 DWORD PTR ?ms_singleton@?$CSingleton@VCPythonItem@@@@0PAVCPythonItem@@A, 0 ; CSingleton<CPythonItem>::ms_singleton
  00097	75 14		 jne	 SHORT $LN13@itemIsPoss
  00099	6a 1a		 push	 26			; 0000001aH
  0009b	68 00 00 00 00	 push	 OFFSET ??_C@_1IO@CAJLEEOI@?$AAC?$AA?3?$AA?2?$AAA?$AAn?$AAk?$AAa?$AA2?$AAP?$AAr?$AAo?$AAj?$AAe?$AAc?$AAt@
  000a0	68 00 00 00 00	 push	 OFFSET ??_C@_1BK@FMEHPMFE@?$AAm?$AAs?$AA_?$AAs?$AAi?$AAn?$AAg?$AAl?$AAe?$AAt?$AAo?$AAn@
  000a5	e8 00 00 00 00	 call	 __wassert
  000aa	83 c4 0c	 add	 esp, 12			; 0000000cH
$LN13@itemIsPoss:
; File C:\Anka2Project\Anka2Project\Source\Binary\source\UserInterface\PythonItemModule.cpp

; 680  : 	return Py_BuildValue("b", CPythonItem::Instance().CanAddChangeLookItem(pItemData, nullptr));

  000ad	6a 00		 push	 0
  000af	56		 push	 esi
  000b0	e8 00 00 00 00	 call	 ?CanAddChangeLookItem@CPythonItem@@QBE_NPBVCItemData@@0@Z ; CPythonItem::CanAddChangeLookItem
  000b5	0f b6 c0	 movzx	 eax, al
  000b8	50		 push	 eax
  000b9	68 00 00 00 00	 push	 OFFSET ??_C@_01OJONOECF@b@
  000be	ff 15 00 00 00
	00		 call	 DWORD PTR __imp__Py_BuildValue
  000c4	83 c4 08	 add	 esp, 8
  000c7	5e		 pop	 esi

; 681  : }

  000c8	8b e5		 mov	 esp, ebp
  000ca	5d		 pop	 ebp
  000cb	c3		 ret	 0
?itemIsPossibleChangeLookLeft@@YAPAU_object@@PAU1@0@Z ENDP ; itemIsPossibleChangeLookLeft
_TEXT	ENDS
; Function compile flags: /Ogtp
; File C:\Anka2Project\Anka2Project\Source\Binary\source\UserInterface\PythonItemModule.cpp
; File C:\Anka2Project\Anka2Project\Source\Binary\source\eterBase\Singleton.h
; File C:\Anka2Project\Anka2Project\Source\Binary\source\UserInterface\PythonItemModule.cpp
; File C:\Anka2Project\Anka2Project\Source\Binary\source\eterBase\Singleton.h
; File C:\Anka2Project\Anka2Project\Source\Binary\source\UserInterface\PythonItemModule.cpp
; File C:\Anka2Project\Anka2Project\Source\Binary\source\eterBase\Singleton.h
; File C:\Anka2Project\Anka2Project\Source\Binary\source\UserInterface\PythonItemModule.cpp
; File C:\Anka2Project\Anka2Project\Source\Binary\source\eterBase\Singleton.h
; File C:\Anka2Project\Anka2Project\Source\Binary\source\UserInterface\PythonItemModule.cpp
; File C:\Anka2Project\Anka2Project\Source\Binary\source\eterBase\Singleton.h
; File C:\Anka2Project\Anka2Project\Source\Binary\source\UserInterface\PythonItemModule.cpp
; File C:\Anka2Project\Anka2Project\Source\Binary\source\eterBase\Singleton.h
; File C:\Anka2Project\Anka2Project\Source\Binary\source\UserInterface\PythonItemModule.cpp
; File C:\Anka2Project\Anka2Project\Source\Binary\source\eterBase\Singleton.h
; File C:\Anka2Project\Anka2Project\Source\Binary\source\UserInterface\PythonItemModule.cpp
;	COMDAT ?itemIsPossibleChangeLookRight@@YAPAU_object@@PAU1@0@Z
_TEXT	SEGMENT
_iOtherItemVID$ = -8					; size = 4
_iItemVID$ = -4						; size = 4
_poSelf$ = 8						; size = 4
_poArgs$ = 12						; size = 4
?itemIsPossibleChangeLookRight@@YAPAU_object@@PAU1@0@Z PROC ; itemIsPossibleChangeLookRight, COMDAT

; 684  : {

  00000	55		 push	 ebp
  00001	8b ec		 mov	 ebp, esp
  00003	83 ec 08	 sub	 esp, 8

; 685  : 	int iItemVID;
; 686  : 	if (!PyTuple_GetInteger(poArgs, 0, &iItemVID))

  00006	8d 45 fc	 lea	 eax, DWORD PTR _iItemVID$[ebp]
  00009	56		 push	 esi
  0000a	8b 75 0c	 mov	 esi, DWORD PTR _poArgs$[ebp]
  0000d	50		 push	 eax
  0000e	6a 00		 push	 0
  00010	56		 push	 esi
  00011	e8 00 00 00 00	 call	 ?PyTuple_GetInteger@@YA_NPAU_object@@HPAH@Z ; PyTuple_GetInteger
  00016	83 c4 0c	 add	 esp, 12			; 0000000cH
  00019	84 c0		 test	 al, al
  0001b	75 0a		 jne	 SHORT $LN2@itemIsPoss
$LN27@itemIsPoss:

; 700  : }

  0001d	e8 00 00 00 00	 call	 ?Py_BadArgument@@YAPAU_object@@XZ ; Py_BadArgument
  00022	5e		 pop	 esi
  00023	8b e5		 mov	 esp, ebp
  00025	5d		 pop	 ebp
  00026	c3		 ret	 0
$LN2@itemIsPoss:

; 687  : 		return Py_BadArgument();
; 688  : 
; 689  : 	int iOtherItemVID;
; 690  : 	if (!PyTuple_GetInteger(poArgs, 1, &iOtherItemVID))

  00027	8d 45 f8	 lea	 eax, DWORD PTR _iOtherItemVID$[ebp]
  0002a	50		 push	 eax
  0002b	6a 01		 push	 1
  0002d	56		 push	 esi
  0002e	e8 00 00 00 00	 call	 ?PyTuple_GetInteger@@YA_NPAU_object@@HPAH@Z ; PyTuple_GetInteger
  00033	83 c4 0c	 add	 esp, 12			; 0000000cH
  00036	84 c0		 test	 al, al
  00038	74 e3		 je	 SHORT $LN27@itemIsPoss
; File C:\Anka2Project\Anka2Project\Source\Binary\source\eterBase\Singleton.h

; 26   : 		assert(ms_singleton);

  0003a	8b 0d 00 00 00
	00		 mov	 ecx, DWORD PTR ?ms_singleton@?$CSingleton@VCItemManager@@@@0PAVCItemManager@@A ; CSingleton<CItemManager>::ms_singleton
  00040	85 c9		 test	 ecx, ecx
  00042	75 1a		 jne	 SHORT $LN7@itemIsPoss
  00044	6a 1a		 push	 26			; 0000001aH
  00046	68 00 00 00 00	 push	 OFFSET ??_C@_1IO@CAJLEEOI@?$AAC?$AA?3?$AA?2?$AAA?$AAn?$AAk?$AAa?$AA2?$AAP?$AAr?$AAo?$AAj?$AAe?$AAc?$AAt@
  0004b	68 00 00 00 00	 push	 OFFSET ??_C@_1BK@FMEHPMFE@?$AAm?$AAs?$AA_?$AAs?$AAi?$AAn?$AAg?$AAl?$AAe?$AAt?$AAo?$AAn@
  00050	e8 00 00 00 00	 call	 __wassert
  00055	8b 0d 00 00 00
	00		 mov	 ecx, DWORD PTR ?ms_singleton@?$CSingleton@VCItemManager@@@@0PAVCItemManager@@A ; CSingleton<CItemManager>::ms_singleton
  0005b	83 c4 0c	 add	 esp, 12			; 0000000cH
$LN7@itemIsPoss:
; File C:\Anka2Project\Anka2Project\Source\Binary\source\UserInterface\PythonItemModule.cpp

; 693  : 	CItemManager::Instance().SelectItemData(iItemVID);

  0005e	ff 75 fc	 push	 DWORD PTR _iItemVID$[ebp]
  00061	e8 00 00 00 00	 call	 ?SelectItemData@CItemManager@@QAEHK@Z ; CItemManager::SelectItemData
; File C:\Anka2Project\Anka2Project\Source\Binary\source\eterBase\Singleton.h

; 26   : 		assert(ms_singleton);

  00066	8b 0d 00 00 00
	00		 mov	 ecx, DWORD PTR ?ms_singleton@?$CSingleton@VCItemManager@@@@0PAVCItemManager@@A ; CSingleton<CItemManager>::ms_singleton
  0006c	85 c9		 test	 ecx, ecx
  0006e	75 1a		 jne	 SHORT $LN10@itemIsPoss
  00070	6a 1a		 push	 26			; 0000001aH
  00072	68 00 00 00 00	 push	 OFFSET ??_C@_1IO@CAJLEEOI@?$AAC?$AA?3?$AA?2?$AAA?$AAn?$AAk?$AAa?$AA2?$AAP?$AAr?$AAo?$AAj?$AAe?$AAc?$AAt@
  00077	68 00 00 00 00	 push	 OFFSET ??_C@_1BK@FMEHPMFE@?$AAm?$AAs?$AA_?$AAs?$AAi?$AAn?$AAg?$AAl?$AAe?$AAt?$AAo?$AAn@
  0007c	e8 00 00 00 00	 call	 __wassert
  00081	8b 0d 00 00 00
	00		 mov	 ecx, DWORD PTR ?ms_singleton@?$CSingleton@VCItemManager@@@@0PAVCItemManager@@A ; CSingleton<CItemManager>::ms_singleton
  00087	83 c4 0c	 add	 esp, 12			; 0000000cH
$LN10@itemIsPoss:
  0008a	57		 push	 edi
; File C:\Anka2Project\Anka2Project\Source\Binary\source\UserInterface\PythonItemModule.cpp

; 694  : 	CItemData *pItemData = CItemManager::Instance().GetSelectedItemDataPointer();

  0008b	e8 00 00 00 00	 call	 ?GetSelectedItemDataPointer@CItemManager@@QAEPAVCItemData@@XZ ; CItemManager::GetSelectedItemDataPointer
; File C:\Anka2Project\Anka2Project\Source\Binary\source\eterBase\Singleton.h

; 26   : 		assert(ms_singleton);

  00090	8b 0d 00 00 00
	00		 mov	 ecx, DWORD PTR ?ms_singleton@?$CSingleton@VCItemManager@@@@0PAVCItemManager@@A ; CSingleton<CItemManager>::ms_singleton
; File C:\Anka2Project\Anka2Project\Source\Binary\source\UserInterface\PythonItemModule.cpp

; 694  : 	CItemData *pItemData = CItemManager::Instance().GetSelectedItemDataPointer();

  00096	8b f8		 mov	 edi, eax
; File C:\Anka2Project\Anka2Project\Source\Binary\source\eterBase\Singleton.h

; 26   : 		assert(ms_singleton);

  00098	85 c9		 test	 ecx, ecx
  0009a	75 1a		 jne	 SHORT $LN13@itemIsPoss
  0009c	6a 1a		 push	 26			; 0000001aH
  0009e	68 00 00 00 00	 push	 OFFSET ??_C@_1IO@CAJLEEOI@?$AAC?$AA?3?$AA?2?$AAA?$AAn?$AAk?$AAa?$AA2?$AAP?$AAr?$AAo?$AAj?$AAe?$AAc?$AAt@
  000a3	68 00 00 00 00	 push	 OFFSET ??_C@_1BK@FMEHPMFE@?$AAm?$AAs?$AA_?$AAs?$AAi?$AAn?$AAg?$AAl?$AAe?$AAt?$AAo?$AAn@
  000a8	e8 00 00 00 00	 call	 __wassert
  000ad	8b 0d 00 00 00
	00		 mov	 ecx, DWORD PTR ?ms_singleton@?$CSingleton@VCItemManager@@@@0PAVCItemManager@@A ; CSingleton<CItemManager>::ms_singleton
  000b3	83 c4 0c	 add	 esp, 12			; 0000000cH
$LN13@itemIsPoss:
; File C:\Anka2Project\Anka2Project\Source\Binary\source\UserInterface\PythonItemModule.cpp

; 696  : 	CItemManager::Instance().SelectItemData(iOtherItemVID);

  000b6	ff 75 f8	 push	 DWORD PTR _iOtherItemVID$[ebp]
  000b9	e8 00 00 00 00	 call	 ?SelectItemData@CItemManager@@QAEHK@Z ; CItemManager::SelectItemData
; File C:\Anka2Project\Anka2Project\Source\Binary\source\eterBase\Singleton.h

; 26   : 		assert(ms_singleton);

  000be	8b 0d 00 00 00
	00		 mov	 ecx, DWORD PTR ?ms_singleton@?$CSingleton@VCItemManager@@@@0PAVCItemManager@@A ; CSingleton<CItemManager>::ms_singleton
  000c4	85 c9		 test	 ecx, ecx
  000c6	75 1a		 jne	 SHORT $LN16@itemIsPoss
  000c8	6a 1a		 push	 26			; 0000001aH
  000ca	68 00 00 00 00	 push	 OFFSET ??_C@_1IO@CAJLEEOI@?$AAC?$AA?3?$AA?2?$AAA?$AAn?$AAk?$AAa?$AA2?$AAP?$AAr?$AAo?$AAj?$AAe?$AAc?$AAt@
  000cf	68 00 00 00 00	 push	 OFFSET ??_C@_1BK@FMEHPMFE@?$AAm?$AAs?$AA_?$AAs?$AAi?$AAn?$AAg?$AAl?$AAe?$AAt?$AAo?$AAn@
  000d4	e8 00 00 00 00	 call	 __wassert
  000d9	8b 0d 00 00 00
	00		 mov	 ecx, DWORD PTR ?ms_singleton@?$CSingleton@VCItemManager@@@@0PAVCItemManager@@A ; CSingleton<CItemManager>::ms_singleton
  000df	83 c4 0c	 add	 esp, 12			; 0000000cH
$LN16@itemIsPoss:
; File C:\Anka2Project\Anka2Project\Source\Binary\source\UserInterface\PythonItemModule.cpp

; 697  : 	CItemData *pOtherItemData = CItemManager::Instance().GetSelectedItemDataPointer();

  000e2	e8 00 00 00 00	 call	 ?GetSelectedItemDataPointer@CItemManager@@QAEPAVCItemData@@XZ ; CItemManager::GetSelectedItemDataPointer
; File C:\Anka2Project\Anka2Project\Source\Binary\source\eterBase\Singleton.h

; 26   : 		assert(ms_singleton);

  000e7	83 3d 00 00 00
	00 00		 cmp	 DWORD PTR ?ms_singleton@?$CSingleton@VCPythonItem@@@@0PAVCPythonItem@@A, 0 ; CSingleton<CPythonItem>::ms_singleton
; File C:\Anka2Project\Anka2Project\Source\Binary\source\UserInterface\PythonItemModule.cpp

; 697  : 	CItemData *pOtherItemData = CItemManager::Instance().GetSelectedItemDataPointer();

  000ee	8b f0		 mov	 esi, eax
; File C:\Anka2Project\Anka2Project\Source\Binary\source\eterBase\Singleton.h

; 26   : 		assert(ms_singleton);

  000f0	75 14		 jne	 SHORT $LN19@itemIsPoss
  000f2	6a 1a		 push	 26			; 0000001aH
  000f4	68 00 00 00 00	 push	 OFFSET ??_C@_1IO@CAJLEEOI@?$AAC?$AA?3?$AA?2?$AAA?$AAn?$AAk?$AAa?$AA2?$AAP?$AAr?$AAo?$AAj?$AAe?$AAc?$AAt@
  000f9	68 00 00 00 00	 push	 OFFSET ??_C@_1BK@FMEHPMFE@?$AAm?$AAs?$AA_?$AAs?$AAi?$AAn?$AAg?$AAl?$AAe?$AAt?$AAo?$AAn@
  000fe	e8 00 00 00 00	 call	 __wassert
  00103	83 c4 0c	 add	 esp, 12			; 0000000cH
$LN19@itemIsPoss:
; File C:\Anka2Project\Anka2Project\Source\Binary\source\UserInterface\PythonItemModule.cpp

; 699  : 	return Py_BuildValue("b", CPythonItem::Instance().CanAddChangeLookItem(pItemData, pOtherItemData));

  00106	56		 push	 esi
  00107	57		 push	 edi
  00108	e8 00 00 00 00	 call	 ?CanAddChangeLookItem@CPythonItem@@QBE_NPBVCItemData@@0@Z ; CPythonItem::CanAddChangeLookItem
  0010d	0f b6 c0	 movzx	 eax, al
  00110	50		 push	 eax
  00111	68 00 00 00 00	 push	 OFFSET ??_C@_01OJONOECF@b@
  00116	ff 15 00 00 00
	00		 call	 DWORD PTR __imp__Py_BuildValue
  0011c	83 c4 08	 add	 esp, 8
  0011f	5f		 pop	 edi
  00120	5e		 pop	 esi

; 700  : }

  00121	8b e5		 mov	 esp, ebp
  00123	5d		 pop	 ebp
  00124	c3		 ret	 0
?itemIsPossibleChangeLookRight@@YAPAU_object@@PAU1@0@Z ENDP ; itemIsPossibleChangeLookRight
_TEXT	ENDS
; Function compile flags: /Ogtp
; File C:\Anka2Project\Anka2Project\Source\Binary\source\UserInterface\PythonItemModule.cpp
; File C:\Anka2Project\Anka2Project\Source\Binary\source\eterBase\Singleton.h
; File C:\Anka2Project\Anka2Project\Source\Binary\source\UserInterface\PythonItemModule.cpp
;	COMDAT ?itemIsChangeLookFreePassYangItem@@YAPAU_object@@PAU1@0@Z
_TEXT	SEGMENT
_dwVirtualNumber$ = -4					; size = 4
_poSelf$ = 8						; size = 4
_poArgs$ = 12						; size = 4
?itemIsChangeLookFreePassYangItem@@YAPAU_object@@PAU1@0@Z PROC ; itemIsChangeLookFreePassYangItem, COMDAT

; 703  : {

  00000	55		 push	 ebp
  00001	8b ec		 mov	 ebp, esp
  00003	51		 push	 ecx

; 704  : 	DWORD dwVirtualNumber;
; 705  : 	if (!PyTuple_GetUnsignedLong(poArgs, 0, &dwVirtualNumber))

  00004	8d 45 fc	 lea	 eax, DWORD PTR _dwVirtualNumber$[ebp]
  00007	50		 push	 eax
  00008	6a 00		 push	 0
  0000a	ff 75 0c	 push	 DWORD PTR _poArgs$[ebp]
  0000d	e8 00 00 00 00	 call	 ?PyTuple_GetUnsignedLong@@YA_NPAU_object@@HPAK@Z ; PyTuple_GetUnsignedLong
  00012	83 c4 0c	 add	 esp, 12			; 0000000cH
  00015	84 c0		 test	 al, al
  00017	75 09		 jne	 SHORT $LN2@itemIsChan

; 706  : 		return Py_BadArgument();

  00019	e8 00 00 00 00	 call	 ?Py_BadArgument@@YAPAU_object@@XZ ; Py_BadArgument

; 709  : }

  0001e	8b e5		 mov	 esp, ebp
  00020	5d		 pop	 ebp
  00021	c3		 ret	 0
$LN2@itemIsChan:
; File C:\Anka2Project\Anka2Project\Source\Binary\source\eterBase\Singleton.h

; 26   : 		assert(ms_singleton);

  00022	83 3d 00 00 00
	00 00		 cmp	 DWORD PTR ?ms_singleton@?$CSingleton@VCPythonItem@@@@0PAVCPythonItem@@A, 0 ; CSingleton<CPythonItem>::ms_singleton
  00029	75 14		 jne	 SHORT $LN6@itemIsChan
  0002b	6a 1a		 push	 26			; 0000001aH
  0002d	68 00 00 00 00	 push	 OFFSET ??_C@_1IO@CAJLEEOI@?$AAC?$AA?3?$AA?2?$AAA?$AAn?$AAk?$AAa?$AA2?$AAP?$AAr?$AAo?$AAj?$AAe?$AAc?$AAt@
  00032	68 00 00 00 00	 push	 OFFSET ??_C@_1BK@FMEHPMFE@?$AAm?$AAs?$AA_?$AAs?$AAi?$AAn?$AAg?$AAl?$AAe?$AAt?$AAo?$AAn@
  00037	e8 00 00 00 00	 call	 __wassert
  0003c	83 c4 0c	 add	 esp, 12			; 0000000cH
$LN6@itemIsChan:
; File C:\Anka2Project\Anka2Project\Source\Binary\source\UserInterface\PythonItemModule.cpp

; 708  : 	return Py_BuildValue("b", CPythonItem::Instance().CanAddChangeLookFreeItem(dwVirtualNumber));

  0003f	ff 75 fc	 push	 DWORD PTR _dwVirtualNumber$[ebp]
  00042	e8 00 00 00 00	 call	 ?CanAddChangeLookFreeItem@CPythonItem@@QBE_NK@Z ; CPythonItem::CanAddChangeLookFreeItem
  00047	0f b6 c0	 movzx	 eax, al
  0004a	50		 push	 eax
  0004b	68 00 00 00 00	 push	 OFFSET ??_C@_01OJONOECF@b@
  00050	ff 15 00 00 00
	00		 call	 DWORD PTR __imp__Py_BuildValue
  00056	83 c4 08	 add	 esp, 8

; 709  : }

  00059	8b e5		 mov	 esp, ebp
  0005b	5d		 pop	 ebp
  0005c	c3		 ret	 0
?itemIsChangeLookFreePassYangItem@@YAPAU_object@@PAU1@0@Z ENDP ; itemIsChangeLookFreePassYangItem
_TEXT	ENDS
; Function compile flags: /Ogtp
; File C:\Anka2Project\Anka2Project\Source\Binary\source\UserInterface\PythonItemModule.cpp
; File C:\Anka2Project\Anka2Project\Source\Binary\source\eterBase\Singleton.h
; File C:\Anka2Project\Anka2Project\Source\Binary\source\UserInterface\PythonItemModule.cpp
; File C:\Anka2Project\Anka2Project\Source\Binary\source\eterBase\Singleton.h
; File C:\Anka2Project\Anka2Project\Source\Binary\source\UserInterface\PythonItemModule.cpp
; File C:\Anka2Project\Anka2Project\Source\Binary\source\eterBase\Singleton.h
; File C:\Anka2Project\Anka2Project\Source\Binary\source\UserInterface\PythonItemModule.cpp
;	COMDAT ?itemIsChangeLookClearScroll@@YAPAU_object@@PAU1@0@Z
_TEXT	SEGMENT
_iItemVID$ = -4						; size = 4
_poSelf$ = 8						; size = 4
_poArgs$ = 12						; size = 4
?itemIsChangeLookClearScroll@@YAPAU_object@@PAU1@0@Z PROC ; itemIsChangeLookClearScroll, COMDAT

; 712  : {

  00000	55		 push	 ebp
  00001	8b ec		 mov	 ebp, esp
  00003	51		 push	 ecx

; 713  : 	int iItemVID;
; 714  : 	if (!PyTuple_GetInteger(poArgs, 0, &iItemVID))

  00004	8d 45 fc	 lea	 eax, DWORD PTR _iItemVID$[ebp]
  00007	50		 push	 eax
  00008	6a 00		 push	 0
  0000a	ff 75 0c	 push	 DWORD PTR _poArgs$[ebp]
  0000d	e8 00 00 00 00	 call	 ?PyTuple_GetInteger@@YA_NPAU_object@@HPAH@Z ; PyTuple_GetInteger
  00012	83 c4 0c	 add	 esp, 12			; 0000000cH
  00015	84 c0		 test	 al, al
  00017	75 09		 jne	 SHORT $LN2@itemIsChan

; 715  : 		return Py_BadArgument();

  00019	e8 00 00 00 00	 call	 ?Py_BadArgument@@YAPAU_object@@XZ ; Py_BadArgument

; 723  : }

  0001e	8b e5		 mov	 esp, ebp
  00020	5d		 pop	 ebp
  00021	c3		 ret	 0
$LN2@itemIsChan:
; File C:\Anka2Project\Anka2Project\Source\Binary\source\eterBase\Singleton.h

; 26   : 		assert(ms_singleton);

  00022	8b 0d 00 00 00
	00		 mov	 ecx, DWORD PTR ?ms_singleton@?$CSingleton@VCItemManager@@@@0PAVCItemManager@@A ; CSingleton<CItemManager>::ms_singleton
  00028	85 c9		 test	 ecx, ecx
  0002a	75 1a		 jne	 SHORT $LN7@itemIsChan
  0002c	6a 1a		 push	 26			; 0000001aH
  0002e	68 00 00 00 00	 push	 OFFSET ??_C@_1IO@CAJLEEOI@?$AAC?$AA?3?$AA?2?$AAA?$AAn?$AAk?$AAa?$AA2?$AAP?$AAr?$AAo?$AAj?$AAe?$AAc?$AAt@
  00033	68 00 00 00 00	 push	 OFFSET ??_C@_1BK@FMEHPMFE@?$AAm?$AAs?$AA_?$AAs?$AAi?$AAn?$AAg?$AAl?$AAe?$AAt?$AAo?$AAn@
  00038	e8 00 00 00 00	 call	 __wassert
  0003d	8b 0d 00 00 00
	00		 mov	 ecx, DWORD PTR ?ms_singleton@?$CSingleton@VCItemManager@@@@0PAVCItemManager@@A ; CSingleton<CItemManager>::ms_singleton
  00043	83 c4 0c	 add	 esp, 12			; 0000000cH
$LN7@itemIsChan:
; File C:\Anka2Project\Anka2Project\Source\Binary\source\UserInterface\PythonItemModule.cpp

; 717  : 	CItemManager::Instance().SelectItemData(iItemVID);

  00046	ff 75 fc	 push	 DWORD PTR _iItemVID$[ebp]
  00049	e8 00 00 00 00	 call	 ?SelectItemData@CItemManager@@QAEHK@Z ; CItemManager::SelectItemData
; File C:\Anka2Project\Anka2Project\Source\Binary\source\eterBase\Singleton.h

; 26   : 		assert(ms_singleton);

  0004e	8b 0d 00 00 00
	00		 mov	 ecx, DWORD PTR ?ms_singleton@?$CSingleton@VCItemManager@@@@0PAVCItemManager@@A ; CSingleton<CItemManager>::ms_singleton
  00054	85 c9		 test	 ecx, ecx
  00056	75 1a		 jne	 SHORT $LN10@itemIsChan
  00058	6a 1a		 push	 26			; 0000001aH
  0005a	68 00 00 00 00	 push	 OFFSET ??_C@_1IO@CAJLEEOI@?$AAC?$AA?3?$AA?2?$AAA?$AAn?$AAk?$AAa?$AA2?$AAP?$AAr?$AAo?$AAj?$AAe?$AAc?$AAt@
  0005f	68 00 00 00 00	 push	 OFFSET ??_C@_1BK@FMEHPMFE@?$AAm?$AAs?$AA_?$AAs?$AAi?$AAn?$AAg?$AAl?$AAe?$AAt?$AAo?$AAn@
  00064	e8 00 00 00 00	 call	 __wassert
  00069	8b 0d 00 00 00
	00		 mov	 ecx, DWORD PTR ?ms_singleton@?$CSingleton@VCItemManager@@@@0PAVCItemManager@@A ; CSingleton<CItemManager>::ms_singleton
  0006f	83 c4 0c	 add	 esp, 12			; 0000000cH
$LN10@itemIsChan:
  00072	56		 push	 esi
; File C:\Anka2Project\Anka2Project\Source\Binary\source\UserInterface\PythonItemModule.cpp

; 718  : 	CItemData *pItemData = CItemManager::Instance().GetSelectedItemDataPointer();

  00073	e8 00 00 00 00	 call	 ?GetSelectedItemDataPointer@CItemManager@@QAEPAVCItemData@@XZ ; CItemManager::GetSelectedItemDataPointer
  00078	8b f0		 mov	 esi, eax

; 719  : 	if (!pItemData)

  0007a	85 f6		 test	 esi, esi
  0007c	75 12		 jne	 SHORT $LN3@itemIsChan

; 720  : 		return Py_BuildException("Can't find select item data");

  0007e	68 00 00 00 00	 push	 OFFSET ??_C@_0BM@KPLEGEEH@Can?8t?5find?5select?5item?5data@
  00083	e8 00 00 00 00	 call	 ?Py_BuildException@@YAPAU_object@@PBDZZ ; Py_BuildException
  00088	83 c4 04	 add	 esp, 4
  0008b	5e		 pop	 esi

; 723  : }

  0008c	8b e5		 mov	 esp, ebp
  0008e	5d		 pop	 ebp
  0008f	c3		 ret	 0
$LN3@itemIsChan:
; File C:\Anka2Project\Anka2Project\Source\Binary\source\eterBase\Singleton.h

; 26   : 		assert(ms_singleton);

  00090	83 3d 00 00 00
	00 00		 cmp	 DWORD PTR ?ms_singleton@?$CSingleton@VCPythonItem@@@@0PAVCPythonItem@@A, 0 ; CSingleton<CPythonItem>::ms_singleton
  00097	75 14		 jne	 SHORT $LN13@itemIsChan
  00099	6a 1a		 push	 26			; 0000001aH
  0009b	68 00 00 00 00	 push	 OFFSET ??_C@_1IO@CAJLEEOI@?$AAC?$AA?3?$AA?2?$AAA?$AAn?$AAk?$AAa?$AA2?$AAP?$AAr?$AAo?$AAj?$AAe?$AAc?$AAt@
  000a0	68 00 00 00 00	 push	 OFFSET ??_C@_1BK@FMEHPMFE@?$AAm?$AAs?$AA_?$AAs?$AAi?$AAn?$AAg?$AAl?$AAe?$AAt?$AAo?$AAn@
  000a5	e8 00 00 00 00	 call	 __wassert
  000aa	83 c4 0c	 add	 esp, 12			; 0000000cH
$LN13@itemIsChan:
; File C:\Anka2Project\Anka2Project\Source\Binary\source\UserInterface\PythonItemModule.cpp

; 722  : 	return Py_BuildValue("b", CPythonItem::Instance().IsChangeLookClearScrollItem(pItemData->GetIndex()));

  000ad	8b ce		 mov	 ecx, esi
  000af	e8 00 00 00 00	 call	 ?GetIndex@CItemData@@QBEKXZ ; CItemData::GetIndex
  000b4	50		 push	 eax
  000b5	e8 00 00 00 00	 call	 ?IsChangeLookClearScrollItem@CPythonItem@@QBE_NK@Z ; CPythonItem::IsChangeLookClearScrollItem
  000ba	0f b6 c0	 movzx	 eax, al
  000bd	50		 push	 eax
  000be	68 00 00 00 00	 push	 OFFSET ??_C@_01OJONOECF@b@
  000c3	ff 15 00 00 00
	00		 call	 DWORD PTR __imp__Py_BuildValue
  000c9	83 c4 08	 add	 esp, 8
  000cc	5e		 pop	 esi

; 723  : }

  000cd	8b e5		 mov	 esp, ebp
  000cf	5d		 pop	 ebp
  000d0	c3		 ret	 0
?itemIsChangeLookClearScroll@@YAPAU_object@@PAU1@0@Z ENDP ; itemIsChangeLookClearScroll
_TEXT	ENDS
; Function compile flags: /Ogtp
; File C:\Anka2Project\Anka2Project\Source\Binary\source\UserInterface\PythonItemModule.cpp
;	COMDAT ?initItem@@YAXXZ
_TEXT	SEGMENT
?initItem@@YAXXZ PROC					; initItem, COMDAT

; 727  : {

  00000	56		 push	 esi
  00001	57		 push	 edi

; 728  : 	static PyMethodDef s_methods[] =
; 729  : 	{
; 730  : 		{ "SetUseSoundFileName",			itemSetUseSoundFileName,				METH_VARARGS },
; 731  : 		{ "SetDropSoundFileName",			itemSetDropSoundFileName,				METH_VARARGS },
; 732  : 		{ "SelectItem",						itemSelectItem,							METH_VARARGS },
; 733  : 
; 734  : 		{ "GetItemName",					itemGetItemName,						METH_VARARGS },
; 735  : 		{ "GetItemDescription",				itemGetItemDescription,					METH_VARARGS },
; 736  : 		{ "GetItemSummary",					itemGetItemSummary,						METH_VARARGS },
; 737  : 		{ "GetIconImage",					itemGetIconImage,						METH_VARARGS },
; 738  : 		{ "GetIconImageFileName",			itemGetIconImageFileName,				METH_VARARGS },
; 739  : 		{ "GetItemSize",					itemGetItemSize,						METH_VARARGS },
; 740  : 		{ "GetItemType",					itemGetItemType,						METH_VARARGS },
; 741  : 		{ "GetItemSubType",					itemGetItemSubType,						METH_VARARGS },
; 742  : 		{ "GetIBuyItemPrice",				itemGetIBuyItemPrice,					METH_VARARGS },
; 743  : 		{ "GetISellItemPrice",				itemGetISellItemPrice,					METH_VARARGS },
; 744  : 		{ "IsAntiFlag",						itemIsAntiFlag,							METH_VARARGS },
; 745  : 		{ "IsFlag",							itemIsFlag,								METH_VARARGS },
; 746  : 		{ "IsWearableFlag",					itemIsWearableFlag,						METH_VARARGS },
; 747  : 		{ "Is1GoldItem",					itemIs1GoldItem,						METH_VARARGS },
; 748  : 		{ "GetLimit",						itemGetLimit,							METH_VARARGS },
; 749  : 		{ "GetLimitType",					itemGetLimitType,						METH_VARARGS },
; 750  : 		{ "GetLimitValue",					itemGetLimitValue,						METH_VARARGS },
; 751  : 		{ "GetAffect",						itemGetAffect,							METH_VARARGS },
; 752  : 		{ "GetValue",						itemGetValue,							METH_VARARGS },
; 753  : 		{ "GetSocket",						itemGetSocket,							METH_VARARGS },
; 754  : 		{ "GetIconInstance",				itemGetIconInstance,					METH_VARARGS },
; 755  : 		{ "GetUseType",						itemGetUseType,							METH_VARARGS },
; 756  : 		{ "DeleteIconInstance",				itemDeleteIconInstance,					METH_VARARGS },
; 757  : 		{ "IsEquipmentVID",					itemIsEquipmentVID,						METH_VARARGS },		
; 758  : 		{ "IsRefineScroll",					itemIsRefineScroll,						METH_VARARGS },
; 759  : 		{ "IsDetachScroll",					itemIsDetachScroll,						METH_VARARGS },
; 760  : 		{ "IsKey",							itemIsKey,								METH_VARARGS },
; 761  : 		{ "IsMetin",						itemIsMetin,							METH_VARARGS },
; 762  : 		{ "CanAddToQuickSlotItem",			itemCanAddToQuickSlotItem,				METH_VARARGS },
; 763  : 
; 764  : 		{ "Update",							itemUpdate,								METH_VARARGS },
; 765  : 		{ "Render",							itemRender,								METH_VARARGS },
; 766  : 		{ "CreateItem",						itemCreateItem,							METH_VARARGS },
; 767  : 		{ "DeleteItem",						itemDeleteItem,							METH_VARARGS },
; 768  : 		{ "Pick",							itemPick,								METH_VARARGS },
; 769  : 
; 770  : 		{ "LoadItemTable",					itemLoadItemTable,						METH_VARARGS },
; 771  : 
; 772  : 		{ "IsWeddingItem",					itemIsWeddingItem,						METH_VARARGS },
; 773  : 		{ "GetItemNameByVnum",				itemGetItemNameByVnum,					METH_VARARGS },
; 774  : 
; 775  : #ifdef ENABLE_INGAME_WIKI_SYSTEM
; 776  : 		{ "SelectItemWiki",					itemSelectItemWiki,						METH_VARARGS },
; 777  : 		{ "GetRefineSet",					itemGetRefineSet,						METH_VARARGS },
; 778  : 		{ "GetRefinedVnum",					itemGetRefinedVnum,						METH_VARARGS },
; 779  : #endif
; 780  : 
; 781  : #ifdef ENABLE_OFFLINESHOP_SEARCH_SYSTEM
; 782  : 		{ "GetItemsByName",					itemGetItemsByName,						METH_VARARGS },
; 783  : #endif
; 784  : 
; 785  : #ifdef ENABLE_CHANGE_LOOK_SYSTEM
; 786  : 		{ "IsPossibleChangeLookLeft",		itemIsPossibleChangeLookLeft,			METH_VARARGS },
; 787  : 		{ "IsPossibleChangeLookRight",		itemIsPossibleChangeLookRight,			METH_VARARGS },
; 788  : 		{ "IsChangeLookFreePassYangItem",	itemIsChangeLookFreePassYangItem,		METH_VARARGS },
; 789  : 		{ "IsChangeLookClearScroll",		itemIsChangeLookClearScroll,			METH_VARARGS },
; 790  : #endif
; 791  : 
; 792  : 		{ nullptr, nullptr },
; 793  : 	};
; 794  : 
; 795  : 	PyObject *poModule = Py_InitModule("item", s_methods);

  00002	68 f5 03 00 00	 push	 1013			; 000003f5H
  00007	6a 00		 push	 0
  00009	6a 00		 push	 0
  0000b	68 00 00 00 00	 push	 OFFSET ?s_methods@?1??initItem@@YAXXZ@4PAUPyMethodDef@@A
  00010	68 00 00 00 00	 push	 OFFSET ??_C@_04NHONDGDE@item@
  00015	ff 15 00 00 00
	00		 call	 DWORD PTR __imp__Py_InitModule4

; 796  : 
; 797  : 	PyModule_AddIntConstant(poModule, "USESOUND_ACCESSORY", CPythonItem::USESOUND_ACCESSORY);

  0001b	8b 35 00 00 00
	00		 mov	 esi, DWORD PTR __imp__PyModule_AddIntConstant
  00021	8b f8		 mov	 edi, eax
  00023	6a 05		 push	 5
  00025	68 00 00 00 00	 push	 OFFSET ??_C@_0BD@MEKMBKPM@USESOUND_ACCESSORY@
  0002a	57		 push	 edi
  0002b	ff d6		 call	 esi

; 798  : 	PyModule_AddIntConstant(poModule, "USESOUND_ARMOR", CPythonItem::USESOUND_ARMOR);

  0002d	6a 02		 push	 2
  0002f	68 00 00 00 00	 push	 OFFSET ??_C@_0P@ENGKPPPD@USESOUND_ARMOR@
  00034	57		 push	 edi
  00035	ff d6		 call	 esi

; 799  : 	PyModule_AddIntConstant(poModule, "USESOUND_BOW", CPythonItem::USESOUND_BOW);

  00037	6a 04		 push	 4
  00039	68 00 00 00 00	 push	 OFFSET ??_C@_0N@MDIFIDON@USESOUND_BOW@
  0003e	57		 push	 edi
  0003f	ff d6		 call	 esi

; 800  : 	PyModule_AddIntConstant(poModule, "USESOUND_DEFAULT", CPythonItem::USESOUND_DEFAULT);

  00041	6a 01		 push	 1
  00043	68 00 00 00 00	 push	 OFFSET ??_C@_0BB@BHHNCGFC@USESOUND_DEFAULT@
  00048	57		 push	 edi
  00049	ff d6		 call	 esi
  0004b	83 c4 44	 add	 esp, 68			; 00000044H

; 801  : 	PyModule_AddIntConstant(poModule, "USESOUND_WEAPON", CPythonItem::USESOUND_WEAPON);

  0004e	6a 03		 push	 3
  00050	68 00 00 00 00	 push	 OFFSET ??_C@_0BA@IJKKKKOO@USESOUND_WEAPON@
  00055	57		 push	 edi
  00056	ff d6		 call	 esi

; 802  : 	PyModule_AddIntConstant(poModule, "USESOUND_POTION", CPythonItem::USESOUND_POTION);

  00058	6a 06		 push	 6
  0005a	68 00 00 00 00	 push	 OFFSET ??_C@_0BA@GIIHLHOB@USESOUND_POTION@
  0005f	57		 push	 edi
  00060	ff d6		 call	 esi

; 803  : 	PyModule_AddIntConstant(poModule, "USESOUND_PORTAL", CPythonItem::USESOUND_PORTAL);

  00062	6a 07		 push	 7
  00064	68 00 00 00 00	 push	 OFFSET ??_C@_0BA@HNBMICIL@USESOUND_PORTAL@
  00069	57		 push	 edi
  0006a	ff d6		 call	 esi

; 804  : 
; 805  : 	PyModule_AddIntConstant(poModule, "DROPSOUND_ACCESSORY", CPythonItem::DROPSOUND_ACCESSORY);

  0006c	6a 04		 push	 4
  0006e	68 00 00 00 00	 push	 OFFSET ??_C@_0BE@PBPPNIPJ@DROPSOUND_ACCESSORY@
  00073	57		 push	 edi
  00074	ff d6		 call	 esi

; 806  : 	PyModule_AddIntConstant(poModule, "DROPSOUND_ARMOR", CPythonItem::DROPSOUND_ARMOR);

  00076	6a 01		 push	 1
  00078	68 00 00 00 00	 push	 OFFSET ??_C@_0BA@PCCDLKKO@DROPSOUND_ARMOR@
  0007d	57		 push	 edi
  0007e	ff d6		 call	 esi

; 807  : 	PyModule_AddIntConstant(poModule, "DROPSOUND_BOW", CPythonItem::DROPSOUND_BOW);

  00080	6a 03		 push	 3
  00082	68 00 00 00 00	 push	 OFFSET ??_C@_0O@OOJPAKOO@DROPSOUND_BOW@
  00087	57		 push	 edi
  00088	ff d6		 call	 esi
  0008a	83 c4 48	 add	 esp, 72			; 00000048H

; 808  : 	PyModule_AddIntConstant(poModule, "DROPSOUND_DEFAULT", CPythonItem::DROPSOUND_DEFAULT);

  0008d	6a 00		 push	 0
  0008f	68 00 00 00 00	 push	 OFFSET ??_C@_0BC@BONOAPBN@DROPSOUND_DEFAULT@
  00094	57		 push	 edi
  00095	ff d6		 call	 esi

; 809  : 	PyModule_AddIntConstant(poModule, "DROPSOUND_WEAPON", CPythonItem::DROPSOUND_WEAPON);

  00097	6a 02		 push	 2
  00099	68 00 00 00 00	 push	 OFFSET ??_C@_0BB@JMMPMOOC@DROPSOUND_WEAPON@
  0009e	57		 push	 edi
  0009f	ff d6		 call	 esi

; 810  : 
; 811  : 	PyModule_AddIntConstant(poModule, "EQUIPMENT_COUNT", c_Equipment_Count);

  000a1	6a 0c		 push	 12			; 0000000cH
  000a3	68 00 00 00 00	 push	 OFFSET ??_C@_0BA@KJELJAII@EQUIPMENT_COUNT@
  000a8	57		 push	 edi
  000a9	ff d6		 call	 esi

; 812  : 	PyModule_AddIntConstant(poModule, "EQUIPMENT_HEAD", c_Equipment_Head);

  000ab	68 b5 00 00 00	 push	 181			; 000000b5H
  000b0	68 00 00 00 00	 push	 OFFSET ??_C@_0P@GCJFHMFC@EQUIPMENT_HEAD@
  000b5	57		 push	 edi
  000b6	ff d6		 call	 esi

; 813  : 	PyModule_AddIntConstant(poModule, "EQUIPMENT_BODY", c_Equipment_Body);

  000b8	68 b4 00 00 00	 push	 180			; 000000b4H
  000bd	68 00 00 00 00	 push	 OFFSET ??_C@_0P@LODPCKGA@EQUIPMENT_BODY@
  000c2	57		 push	 edi
  000c3	ff d6		 call	 esi

; 814  : 	PyModule_AddIntConstant(poModule, "EQUIPMENT_WEAPON", c_Equipment_Weapon);

  000c5	68 b8 00 00 00	 push	 184			; 000000b8H
  000ca	68 00 00 00 00	 push	 OFFSET ??_C@_0BB@IKOPOEMN@EQUIPMENT_WEAPON@
  000cf	57		 push	 edi
  000d0	ff d6		 call	 esi
  000d2	83 c4 48	 add	 esp, 72			; 00000048H

; 815  : 	PyModule_AddIntConstant(poModule, "EQUIPMENT_WRIST", c_Equipment_Wrist);

  000d5	68 b7 00 00 00	 push	 183			; 000000b7H
  000da	68 00 00 00 00	 push	 OFFSET ??_C@_0BA@KHENFLDC@EQUIPMENT_WRIST@
  000df	57		 push	 edi
  000e0	ff d6		 call	 esi

; 816  : 	PyModule_AddIntConstant(poModule, "EQUIPMENT_SHOES", c_Equipment_Shoes);

  000e2	68 b6 00 00 00	 push	 182			; 000000b6H
  000e7	68 00 00 00 00	 push	 OFFSET ??_C@_0BA@GEANIANO@EQUIPMENT_SHOES@
  000ec	57		 push	 edi
  000ed	ff d6		 call	 esi

; 817  : 	PyModule_AddIntConstant(poModule, "EQUIPMENT_NECK", c_Equipment_Neck);

  000ef	68 b9 00 00 00	 push	 185			; 000000b9H
  000f4	68 00 00 00 00	 push	 OFFSET ??_C@_0P@GJMJEBFD@EQUIPMENT_NECK@
  000f9	57		 push	 edi
  000fa	ff d6		 call	 esi

; 818  : 	PyModule_AddIntConstant(poModule, "EQUIPMENT_EAR", c_Equipment_Ear);

  000fc	68 ba 00 00 00	 push	 186			; 000000baH
  00101	68 00 00 00 00	 push	 OFFSET ??_C@_0O@KNFMDJEG@EQUIPMENT_EAR@
  00106	57		 push	 edi
  00107	ff d6		 call	 esi

; 819  : 	PyModule_AddIntConstant(poModule, "EQUIPMENT_UNIQUE1", c_Equipment_Unique1);

  00109	68 bb 00 00 00	 push	 187			; 000000bbH
  0010e	68 00 00 00 00	 push	 OFFSET ??_C@_0BC@IBOCPGBL@EQUIPMENT_UNIQUE1@
  00113	57		 push	 edi
  00114	ff d6		 call	 esi

; 820  : 	PyModule_AddIntConstant(poModule, "EQUIPMENT_UNIQUE2", c_Equipment_Unique2);

  00116	68 bc 00 00 00	 push	 188			; 000000bcH
  0011b	68 00 00 00 00	 push	 OFFSET ??_C@_0BC@KKMPKFNI@EQUIPMENT_UNIQUE2@
  00120	57		 push	 edi
  00121	ff d6		 call	 esi
  00123	83 c4 48	 add	 esp, 72			; 00000048H

; 821  : 	PyModule_AddIntConstant(poModule, "EQUIPMENT_ARROW", c_Equipment_Arrow);

  00126	68 bd 00 00 00	 push	 189			; 000000bdH
  0012b	68 00 00 00 00	 push	 OFFSET ??_C@_0BA@MLMLGDPN@EQUIPMENT_ARROW@
  00130	57		 push	 edi
  00131	ff d6		 call	 esi

; 822  : 	PyModule_AddIntConstant(poModule, "EQUIPMENT_SHIELD", c_Equipment_Shield);

  00133	68 be 00 00 00	 push	 190			; 000000beH
  00138	68 00 00 00 00	 push	 OFFSET ??_C@_0BB@GNCAGJLP@EQUIPMENT_SHIELD@
  0013d	57		 push	 edi
  0013e	ff d6		 call	 esi

; 823  : 
; 824  : #ifdef ENABLE_NEW_EQUIPMENT_SYSTEM
; 825  : 	PyModule_AddIntConstant(poModule, "EQUIPMENT_RING1", c_Equipment_Ring1);

  00140	68 ce 00 00 00	 push	 206			; 000000ceH
  00145	68 00 00 00 00	 push	 OFFSET ??_C@_0BA@HOMCMAOF@EQUIPMENT_RING1@
  0014a	57		 push	 edi
  0014b	ff d6		 call	 esi

; 826  : 	PyModule_AddIntConstant(poModule, "EQUIPMENT_RING2", c_Equipment_Ring2);

  0014d	68 cf 00 00 00	 push	 207			; 000000cfH
  00152	68 00 00 00 00	 push	 OFFSET ??_C@_0BA@FFOPJDCG@EQUIPMENT_RING2@
  00157	57		 push	 edi
  00158	ff d6		 call	 esi

; 827  : 	PyModule_AddIntConstant(poModule, "EQUIPMENT_BELT", c_Equipment_Belt);

  0015a	68 d0 00 00 00	 push	 208			; 000000d0H
  0015f	68 00 00 00 00	 push	 OFFSET ??_C@_0P@GKDPOFPB@EQUIPMENT_BELT@
  00164	57		 push	 edi
  00165	ff d6		 call	 esi

; 828  : #ifdef ENABLE_MOUNT_SYSTEM
; 829  : 	PyModule_AddIntConstant(poModule, "EQUIPMENT_MOUNT", c_Equipment_Mount);

  00167	68 d1 00 00 00	 push	 209			; 000000d1H
  0016c	68 00 00 00 00	 push	 OFFSET ??_C@_0BA@JDEBPBPI@EQUIPMENT_MOUNT@
  00171	57		 push	 edi
  00172	ff d6		 call	 esi
  00174	83 c4 48	 add	 esp, 72			; 00000048H

; 830  : #endif
; 831  : #ifdef ENABLE_PET_SYSTEM
; 832  : 	PyModule_AddIntConstant(poModule, "EQUIPMENT_PET", c_Equipment_Pet);

  00177	68 d2 00 00 00	 push	 210			; 000000d2H
  0017c	68 00 00 00 00	 push	 OFFSET ??_C@_0O@JLMIJBLB@EQUIPMENT_PET@
  00181	57		 push	 edi
  00182	ff d6		 call	 esi

; 833  : #endif
; 834  : #ifdef ENABLE_TITLE_SYSTEM
; 835  : 	PyModule_AddIntConstant(poModule, "EQUIPMENT_TITLE", c_Equipment_Title);

  00184	68 d3 00 00 00	 push	 211			; 000000d3H
  00189	68 00 00 00 00	 push	 OFFSET ??_C@_0BA@NADJMHBA@EQUIPMENT_TITLE@
  0018e	57		 push	 edi
  0018f	ff d6		 call	 esi

; 836  : #endif
; 837  : #ifdef ENABLE_PENDANT_SYSTEM
; 838  : 	PyModule_AddIntConstant(poModule, "EQUIPMENT_PENDANT", c_Equipment_Pendant);

  00191	68 d4 00 00 00	 push	 212			; 000000d4H
  00196	68 00 00 00 00	 push	 OFFSET ??_C@_0BC@LFKEDEAE@EQUIPMENT_PENDANT@
  0019b	57		 push	 edi
  0019c	ff d6		 call	 esi

; 839  : #endif
; 840  : #endif
; 841  : 
; 842  : 	PyModule_AddIntConstant(poModule, "ITEM_TYPE_NONE", CItemData::ITEM_TYPE_NONE);

  0019e	6a 00		 push	 0
  001a0	68 00 00 00 00	 push	 OFFSET ??_C@_0P@EMFHBOCE@ITEM_TYPE_NONE@
  001a5	57		 push	 edi
  001a6	ff d6		 call	 esi

; 843  : 	PyModule_AddIntConstant(poModule, "ITEM_TYPE_WEAPON", CItemData::ITEM_TYPE_WEAPON);

  001a8	6a 01		 push	 1
  001aa	68 00 00 00 00	 push	 OFFSET ??_C@_0BB@KIJBPCOD@ITEM_TYPE_WEAPON@
  001af	57		 push	 edi
  001b0	ff d6		 call	 esi

; 844  : 	PyModule_AddIntConstant(poModule, "ITEM_TYPE_ARMOR", CItemData::ITEM_TYPE_ARMOR);

  001b2	6a 02		 push	 2
  001b4	68 00 00 00 00	 push	 OFFSET ??_C@_0BA@MCMGEHMH@ITEM_TYPE_ARMOR@
  001b9	57		 push	 edi
  001ba	ff d6		 call	 esi
  001bc	83 c4 48	 add	 esp, 72			; 00000048H

; 845  : 	PyModule_AddIntConstant(poModule, "ITEM_TYPE_USE", CItemData::ITEM_TYPE_USE);

  001bf	6a 03		 push	 3
  001c1	68 00 00 00 00	 push	 OFFSET ??_C@_0O@EJGIJMHP@ITEM_TYPE_USE@
  001c6	57		 push	 edi
  001c7	ff d6		 call	 esi

; 846  : 	PyModule_AddIntConstant(poModule, "ITEM_TYPE_AUTOUSE", CItemData::ITEM_TYPE_AUTOUSE);

  001c9	6a 04		 push	 4
  001cb	68 00 00 00 00	 push	 OFFSET ??_C@_0BC@PDFOCJLB@ITEM_TYPE_AUTOUSE@
  001d0	57		 push	 edi
  001d1	ff d6		 call	 esi

; 847  : 	PyModule_AddIntConstant(poModule, "ITEM_TYPE_MATERIAL", CItemData::ITEM_TYPE_MATERIAL);

  001d3	6a 05		 push	 5
  001d5	68 00 00 00 00	 push	 OFFSET ??_C@_0BD@NFIKPBKO@ITEM_TYPE_MATERIAL@
  001da	57		 push	 edi
  001db	ff d6		 call	 esi

; 848  : 	PyModule_AddIntConstant(poModule, "ITEM_TYPE_SPECIAL", CItemData::ITEM_TYPE_SPECIAL);

  001dd	6a 06		 push	 6
  001df	68 00 00 00 00	 push	 OFFSET ??_C@_0BC@EGCNCIAP@ITEM_TYPE_SPECIAL@
  001e4	57		 push	 edi
  001e5	ff d6		 call	 esi

; 849  : 	PyModule_AddIntConstant(poModule, "ITEM_TYPE_TOOL", CItemData::ITEM_TYPE_TOOL);

  001e7	6a 07		 push	 7
  001e9	68 00 00 00 00	 push	 OFFSET ??_C@_0P@LGAHEAHJ@ITEM_TYPE_TOOL@
  001ee	57		 push	 edi
  001ef	ff d6		 call	 esi

; 850  : 	PyModule_AddIntConstant(poModule, "ITEM_TYPE_LOTTERY", CItemData::ITEM_TYPE_LOTTERY);

  001f1	6a 08		 push	 8
  001f3	68 00 00 00 00	 push	 OFFSET ??_C@_0BC@LGJDJIG@ITEM_TYPE_LOTTERY@
  001f8	57		 push	 edi
  001f9	ff d6		 call	 esi
  001fb	83 c4 48	 add	 esp, 72			; 00000048H

; 851  : 	PyModule_AddIntConstant(poModule, "ITEM_TYPE_ELK", CItemData::ITEM_TYPE_ELK);

  001fe	6a 09		 push	 9
  00200	68 00 00 00 00	 push	 OFFSET ??_C@_0O@JAIIACCD@ITEM_TYPE_ELK@
  00205	57		 push	 edi
  00206	ff d6		 call	 esi

; 852  : 	PyModule_AddIntConstant(poModule, "ITEM_TYPE_METIN", CItemData::ITEM_TYPE_METIN);

  00208	6a 0a		 push	 10			; 0000000aH
  0020a	68 00 00 00 00	 push	 OFFSET ??_C@_0BA@KICPPFNE@ITEM_TYPE_METIN@
  0020f	57		 push	 edi
  00210	ff d6		 call	 esi

; 853  : 	PyModule_AddIntConstant(poModule, "ITEM_TYPE_CONTAINER", CItemData::ITEM_TYPE_CONTAINER);

  00212	6a 0b		 push	 11			; 0000000bH
  00214	68 00 00 00 00	 push	 OFFSET ??_C@_0BE@JBBPDBJM@ITEM_TYPE_CONTAINER@
  00219	57		 push	 edi
  0021a	ff d6		 call	 esi

; 854  : 	PyModule_AddIntConstant(poModule, "ITEM_TYPE_FISH", CItemData::ITEM_TYPE_FISH);

  0021c	6a 0c		 push	 12			; 0000000cH
  0021e	68 00 00 00 00	 push	 OFFSET ??_C@_0P@PIBMEEFH@ITEM_TYPE_FISH@
  00223	57		 push	 edi
  00224	ff d6		 call	 esi

; 855  : 	PyModule_AddIntConstant(poModule, "ITEM_TYPE_ROD", CItemData::ITEM_TYPE_ROD);

  00226	6a 0d		 push	 13			; 0000000dH
  00228	68 00 00 00 00	 push	 OFFSET ??_C@_0O@NIJIMPJD@ITEM_TYPE_ROD@
  0022d	57		 push	 edi
  0022e	ff d6		 call	 esi

; 856  : 	PyModule_AddIntConstant(poModule, "ITEM_TYPE_RESOURCE", CItemData::ITEM_TYPE_RESOURCE);

  00230	6a 0e		 push	 14			; 0000000eH
  00232	68 00 00 00 00	 push	 OFFSET ??_C@_0BD@KBPLAMLF@ITEM_TYPE_RESOURCE@
  00237	57		 push	 edi
  00238	ff d6		 call	 esi
  0023a	83 c4 48	 add	 esp, 72			; 00000048H

; 857  : 	PyModule_AddIntConstant(poModule, "ITEM_TYPE_CAMPFIRE", CItemData::ITEM_TYPE_CAMPFIRE);

  0023d	6a 0f		 push	 15			; 0000000fH
  0023f	68 00 00 00 00	 push	 OFFSET ??_C@_0BD@OGNHPHCL@ITEM_TYPE_CAMPFIRE@
  00244	57		 push	 edi
  00245	ff d6		 call	 esi

; 858  : 	PyModule_AddIntConstant(poModule, "ITEM_TYPE_UNIQUE", CItemData::ITEM_TYPE_UNIQUE);

  00247	6a 10		 push	 16			; 00000010H
  00249	68 00 00 00 00	 push	 OFFSET ??_C@_0BB@CPEAMAMA@ITEM_TYPE_UNIQUE@
  0024e	57		 push	 edi
  0024f	ff d6		 call	 esi

; 859  : 	PyModule_AddIntConstant(poModule, "ITEM_TYPE_SKILLBOOK", CItemData::ITEM_TYPE_SKILLBOOK);

  00251	6a 11		 push	 17			; 00000011H
  00253	68 00 00 00 00	 push	 OFFSET ??_C@_0BE@FAMMFDKM@ITEM_TYPE_SKILLBOOK@
  00258	57		 push	 edi
  00259	ff d6		 call	 esi

; 860  : 	PyModule_AddIntConstant(poModule, "ITEM_TYPE_QUEST", CItemData::ITEM_TYPE_QUEST);

  0025b	6a 12		 push	 18			; 00000012H
  0025d	68 00 00 00 00	 push	 OFFSET ??_C@_0BA@PFOCEMDB@ITEM_TYPE_QUEST@
  00262	57		 push	 edi
  00263	ff d6		 call	 esi

; 861  : 	PyModule_AddIntConstant(poModule, "ITEM_TYPE_POLYMORPH", CItemData::ITEM_TYPE_POLYMORPH);

  00265	6a 13		 push	 19			; 00000013H
  00267	68 00 00 00 00	 push	 OFFSET ??_C@_0BE@DGPJCLHG@ITEM_TYPE_POLYMORPH@
  0026c	57		 push	 edi
  0026d	ff d6		 call	 esi

; 862  : 	PyModule_AddIntConstant(poModule, "ITEM_TYPE_TREASURE_BOX", CItemData::ITEM_TYPE_TREASURE_BOX);

  0026f	6a 14		 push	 20			; 00000014H
  00271	68 00 00 00 00	 push	 OFFSET ??_C@_0BH@MPEMDLLF@ITEM_TYPE_TREASURE_BOX@
  00276	57		 push	 edi
  00277	ff d6		 call	 esi
  00279	83 c4 48	 add	 esp, 72			; 00000048H

; 863  : 	PyModule_AddIntConstant(poModule, "ITEM_TYPE_TREASURE_KEY", CItemData::ITEM_TYPE_TREASURE_KEY);

  0027c	6a 15		 push	 21			; 00000015H
  0027e	68 00 00 00 00	 push	 OFFSET ??_C@_0BH@KGMIMAKI@ITEM_TYPE_TREASURE_KEY@
  00283	57		 push	 edi
  00284	ff d6		 call	 esi

; 864  : 	PyModule_AddIntConstant(poModule, "ITEM_TYPE_PICK", CItemData::ITEM_TYPE_PICK);

  00286	6a 18		 push	 24			; 00000018H
  00288	68 00 00 00 00	 push	 OFFSET ??_C@_0P@CALHNGMG@ITEM_TYPE_PICK@
  0028d	57		 push	 edi
  0028e	ff d6		 call	 esi

; 865  : 	PyModule_AddIntConstant(poModule, "ITEM_TYPE_BLEND", CItemData::ITEM_TYPE_BLEND);

  00290	6a 1b		 push	 27			; 0000001bH
  00292	68 00 00 00 00	 push	 OFFSET ??_C@_0BA@EDGMOLIF@ITEM_TYPE_BLEND@
  00297	57		 push	 edi
  00298	ff d6		 call	 esi

; 866  : 	PyModule_AddIntConstant(poModule, "ITEM_TYPE_DS", CItemData::ITEM_TYPE_DS);

  0029a	6a 1d		 push	 29			; 0000001dH
  0029c	68 00 00 00 00	 push	 OFFSET ??_C@_0N@BKIJEOLO@ITEM_TYPE_DS@
  002a1	57		 push	 edi
  002a2	ff d6		 call	 esi

; 867  : 	PyModule_AddIntConstant(poModule, "ITEM_TYPE_SPECIAL_DS", CItemData::ITEM_TYPE_SPECIAL_DS);

  002a4	6a 1e		 push	 30			; 0000001eH
  002a6	68 00 00 00 00	 push	 OFFSET ??_C@_0BF@GGLFIBNL@ITEM_TYPE_SPECIAL_DS@
  002ab	57		 push	 edi
  002ac	ff d6		 call	 esi

; 868  : 	PyModule_AddIntConstant(poModule, "ITEM_TYPE_GIFTBOX", CItemData::ITEM_TYPE_GIFTBOX);

  002ae	6a 17		 push	 23			; 00000017H
  002b0	68 00 00 00 00	 push	 OFFSET ??_C@_0BC@OLPPIKKB@ITEM_TYPE_GIFTBOX@
  002b5	57		 push	 edi
  002b6	ff d6		 call	 esi
  002b8	83 c4 48	 add	 esp, 72			; 00000048H

; 869  : 	PyModule_AddIntConstant(poModule, "ITEM_TYPE_RING", CItemData::ITEM_TYPE_RING);

  002bb	6a 21		 push	 33			; 00000021H
  002bd	68 00 00 00 00	 push	 OFFSET ??_C@_0P@POBKFJPJ@ITEM_TYPE_RING@
  002c2	57		 push	 edi
  002c3	ff d6		 call	 esi

; 870  : #ifdef ENABLE_MOUNT_SYSTEM
; 871  : 	PyModule_AddIntConstant(poModule, "ITEM_TYPE_MOUNT", CItemData::ITEM_TYPE_MOUNT);

  002c5	6a 22		 push	 34			; 00000022H
  002c7	68 00 00 00 00	 push	 OFFSET ??_C@_0BA@OPEBGGEO@ITEM_TYPE_MOUNT@
  002cc	57		 push	 edi
  002cd	ff d6		 call	 esi

; 872  : #endif
; 873  : #ifdef ENABLE_PET_SYSTEM
; 874  : 	PyModule_AddIntConstant(poModule, "ITEM_TYPE_PET", CItemData::ITEM_TYPE_PET);

  002cf	6a 23		 push	 35			; 00000023H
  002d1	68 00 00 00 00	 push	 OFFSET ??_C@_0O@DFMEJAJP@ITEM_TYPE_PET@
  002d6	57		 push	 edi
  002d7	ff d6		 call	 esi

; 875  : #endif
; 876  : #ifdef ENABLE_TITLE_SYSTEM
; 877  : 	PyModule_AddIntConstant(poModule, "ITEM_TYPE_TITLE", CItemData::ITEM_TYPE_TITLE);

  002d9	6a 25		 push	 37			; 00000025H
  002db	68 00 00 00 00	 push	 OFFSET ??_C@_0BA@KMDJFAKG@ITEM_TYPE_TITLE@
  002e0	57		 push	 edi
  002e1	ff d6		 call	 esi

; 878  : #endif
; 879  : 
; 880  : #ifdef ENABLE_COSTUME_SYSTEM
; 881  : 	PyModule_AddIntConstant(poModule, "ITEM_TYPE_COSTUME", CItemData::ITEM_TYPE_COSTUME);

  002e3	6a 1c		 push	 28			; 0000001cH
  002e5	68 00 00 00 00	 push	 OFFSET ??_C@_0BC@GOFIPFBN@ITEM_TYPE_COSTUME@
  002ea	57		 push	 edi
  002eb	ff d6		 call	 esi

; 882  : 	PyModule_AddIntConstant(poModule, "COSTUME_TYPE_BODY", CItemData::COSTUME_BODY);

  002ed	6a 00		 push	 0
  002ef	68 00 00 00 00	 push	 OFFSET ??_C@_0BC@IBLNMJBH@COSTUME_TYPE_BODY@
  002f4	57		 push	 edi
  002f5	ff d6		 call	 esi
  002f7	83 c4 48	 add	 esp, 72			; 00000048H

; 883  : 	PyModule_AddIntConstant(poModule, "COSTUME_TYPE_HAIR", CItemData::COSTUME_HAIR);

  002fa	6a 01		 push	 1
  002fc	68 00 00 00 00	 push	 OFFSET ??_C@_0BC@MAPOOMBN@COSTUME_TYPE_HAIR@
  00301	57		 push	 edi
  00302	ff d6		 call	 esi

; 884  : #ifdef ENABLE_ACCE_COSTUME_SYSTEM
; 885  : 	PyModule_AddIntConstant(poModule, "COSTUME_TYPE_ACCE", CItemData::COSTUME_ACCE);

  00304	6a 02		 push	 2
  00306	68 00 00 00 00	 push	 OFFSET ??_C@_0BC@GPPDEHKH@COSTUME_TYPE_ACCE@
  0030b	57		 push	 edi
  0030c	ff d6		 call	 esi

; 886  : #endif
; 887  : #ifdef ENABLE_WEAPON_COSTUME_SYSTEM
; 888  : 	PyModule_AddIntConstant(poModule, "COSTUME_TYPE_WEAPON", CItemData::COSTUME_WEAPON);

  0030e	6a 03		 push	 3
  00310	68 00 00 00 00	 push	 OFFSET ??_C@_0BE@NDJCIHLM@COSTUME_TYPE_WEAPON@
  00315	57		 push	 edi
  00316	ff d6		 call	 esi

; 889  : #endif
; 890  : #ifdef ENABLE_MOUNT_PET_SKIN
; 891  : 	PyModule_AddIntConstant(poModule, "COSTUME_TYPE_MOUNT", CItemData::COSTUME_MOUNT);

  00318	6a 04		 push	 4
  0031a	68 00 00 00 00	 push	 OFFSET ??_C@_0BD@FNBPJHIE@COSTUME_TYPE_MOUNT@
  0031f	57		 push	 edi
  00320	ff d6		 call	 esi

; 892  : 	PyModule_AddIntConstant(poModule, "COSTUME_TYPE_PET", CItemData::COSTUME_PET);

  00322	6a 05		 push	 5
  00324	68 00 00 00 00	 push	 OFFSET ??_C@_0BB@KMCNDLBH@COSTUME_TYPE_PET@
  00329	57		 push	 edi
  0032a	ff d6		 call	 esi

; 893  : #endif
; 894  : #ifdef ENABLE_AURA_COSTUME_SYSTEM
; 895  : 	PyModule_AddIntConstant(poModule, "COSTUME_TYPE_AURA", CItemData::COSTUME_AURA);

  0032c	6a 06		 push	 6
  0032e	68 00 00 00 00	 push	 OFFSET ??_C@_0BC@GDAJEDKH@COSTUME_TYPE_AURA@
  00333	57		 push	 edi
  00334	ff d6		 call	 esi
  00336	83 c4 48	 add	 esp, 72			; 00000048H

; 896  : #endif
; 897  : 
; 898  : 	PyModule_AddIntConstant(poModule, "COSTUME_SLOT_START", c_Costume_Slot_Start);

  00339	68 c7 00 00 00	 push	 199			; 000000c7H
  0033e	68 00 00 00 00	 push	 OFFSET ??_C@_0BD@JCGACLBK@COSTUME_SLOT_START@
  00343	57		 push	 edi
  00344	ff d6		 call	 esi

; 899  : 	PyModule_AddIntConstant(poModule, "COSTUME_SLOT_COUNT", c_Costume_Slot_Count);

  00346	6a 07		 push	 7
  00348	68 00 00 00 00	 push	 OFFSET ??_C@_0BD@EMMBBFMO@COSTUME_SLOT_COUNT@
  0034d	57		 push	 edi
  0034e	ff d6		 call	 esi

; 900  : 	PyModule_AddIntConstant(poModule, "COSTUME_SLOT_BODY", c_Costume_Slot_Body);

  00350	68 c7 00 00 00	 push	 199			; 000000c7H
  00355	68 00 00 00 00	 push	 OFFSET ??_C@_0BC@OBAEGBKN@COSTUME_SLOT_BODY@
  0035a	57		 push	 edi
  0035b	ff d6		 call	 esi

; 901  : 	PyModule_AddIntConstant(poModule, "COSTUME_SLOT_HAIR", c_Costume_Slot_Hair);

  0035d	68 c8 00 00 00	 push	 200			; 000000c8H
  00362	68 00 00 00 00	 push	 OFFSET ??_C@_0BC@KAEHEEKH@COSTUME_SLOT_HAIR@
  00367	57		 push	 edi
  00368	ff d6		 call	 esi

; 902  : #ifdef ENABLE_ACCE_COSTUME_SYSTEM
; 903  : 	PyModule_AddIntConstant(poModule, "COSTUME_SLOT_ACCE", c_Costume_Slot_Acce);

  0036a	68 c9 00 00 00	 push	 201			; 000000c9H
  0036f	68 00 00 00 00	 push	 OFFSET ??_C@_0BC@PEKOPBN@COSTUME_SLOT_ACCE@
  00374	57		 push	 edi
  00375	ff d6		 call	 esi

; 904  : #endif
; 905  : #ifdef ENABLE_WEAPON_COSTUME_SYSTEM
; 906  : 	PyModule_AddIntConstant(poModule, "COSTUME_SLOT_WEAPON", c_Costume_Slot_Weapon);

  00377	68 ca 00 00 00	 push	 202			; 000000caH
  0037c	68 00 00 00 00	 push	 OFFSET ??_C@_0BE@BFLFIKON@COSTUME_SLOT_WEAPON@
  00381	57		 push	 edi
  00382	ff d6		 call	 esi
  00384	83 c4 48	 add	 esp, 72			; 00000048H

; 907  : #endif
; 908  : #ifdef ENABLE_MOUNT_PET_SKIN
; 909  : 	PyModule_AddIntConstant(poModule, "COSTUME_SLOT_MOUNT", c_Costume_Slot_Mount);

  00387	68 cb 00 00 00	 push	 203			; 000000cbH
  0038c	68 00 00 00 00	 push	 OFFSET ??_C@_0BD@HGMLHELO@COSTUME_SLOT_MOUNT@
  00391	57		 push	 edi
  00392	ff d6		 call	 esi

; 910  : 	PyModule_AddIntConstant(poModule, "COSTUME_SLOT_PET", c_Costume_Slot_Pet);

  00394	68 cc 00 00 00	 push	 204			; 000000ccH
  00399	68 00 00 00 00	 push	 OFFSET ??_C@_0BB@KFALFEII@COSTUME_SLOT_PET@
  0039e	57		 push	 edi
  0039f	ff d6		 call	 esi

; 911  : #endif
; 912  : #ifdef ENABLE_AURA_COSTUME_SYSTEM
; 913  : 	PyModule_AddIntConstant(poModule, "COSTUME_SLOT_AURA", c_Costume_Slot_Aura);

  003a1	68 cd 00 00 00	 push	 205			; 000000cdH
  003a6	68 00 00 00 00	 push	 OFFSET ??_C@_0BC@DLAOLBN@COSTUME_SLOT_AURA@
  003ab	57		 push	 edi
  003ac	ff d6		 call	 esi

; 914  : #endif
; 915  : 	PyModule_AddIntConstant(poModule, "COSTUME_SLOT_END", c_Costume_Slot_End);

  003ae	68 ce 00 00 00	 push	 206			; 000000ceH
  003b3	68 00 00 00 00	 push	 OFFSET ??_C@_0BB@IEFLAOJF@COSTUME_SLOT_END@
  003b8	57		 push	 edi
  003b9	ff d6		 call	 esi

; 916  : #endif
; 917  : 
; 918  : #ifdef ENABLE_NEW_EQUIPMENT_SYSTEM
; 919  : 	PyModule_AddIntConstant(poModule, "BELT_INVENTORY_SLOT_START", c_Belt_Inventory_Slot_Start);

  003bb	68 12 01 00 00	 push	 274			; 00000112H
  003c0	68 00 00 00 00	 push	 OFFSET ??_C@_0BK@JAICDGKA@BELT_INVENTORY_SLOT_START@
  003c5	57		 push	 edi
  003c6	ff d6		 call	 esi

; 920  : 	PyModule_AddIntConstant(poModule, "BELT_INVENTORY_SLOT_COUNT", c_Belt_Inventory_Slot_Count);

  003c8	6a 19		 push	 25			; 00000019H
  003ca	68 00 00 00 00	 push	 OFFSET ??_C@_0BK@EOCDAIHE@BELT_INVENTORY_SLOT_COUNT@
  003cf	57		 push	 edi
  003d0	ff d6		 call	 esi
  003d2	83 c4 48	 add	 esp, 72			; 00000048H

; 921  : 	PyModule_AddIntConstant(poModule, "BELT_INVENTORY_SLOT_END", c_Belt_Inventory_Slot_End);

  003d5	68 2b 01 00 00	 push	 299			; 0000012bH
  003da	68 00 00 00 00	 push	 OFFSET ??_C@_0BI@GPHFDCEJ@BELT_INVENTORY_SLOT_END@
  003df	57		 push	 edi
  003e0	ff d6		 call	 esi

; 922  : #endif
; 923  : 
; 924  : #ifdef ENABLE_SPECIAL_INVENTORY
; 925  : 	PyModule_AddIntConstant(poModule, "SKILL_BOOK_INVENTORY_SLOT_START", c_Skill_Book_Inventory_Slot_Start);

  003e2	68 2b 01 00 00	 push	 299			; 0000012bH
  003e7	68 00 00 00 00	 push	 OFFSET ??_C@_0CA@GGBKFPIG@SKILL_BOOK_INVENTORY_SLOT_START@
  003ec	57		 push	 edi
  003ed	ff d6		 call	 esi

; 926  : 	PyModule_AddIntConstant(poModule, "UPGRADE_ITEMS_INVENTORY_SLOT_START", c_Upgrade_Items_Inventory_Slot_Start);

  003ef	68 b2 01 00 00	 push	 434			; 000001b2H
  003f4	68 00 00 00 00	 push	 OFFSET ??_C@_0CD@NBCKCAOA@UPGRADE_ITEMS_INVENTORY_SLOT_ST@
  003f9	57		 push	 edi
  003fa	ff d6		 call	 esi

; 927  : 	PyModule_AddIntConstant(poModule, "STONE_INVENTORY_SLOT_START", c_Stone_Inventory_Slot_Start);

  003fc	68 39 02 00 00	 push	 569			; 00000239H
  00401	68 00 00 00 00	 push	 OFFSET ??_C@_0BL@IMGEBG@STONE_INVENTORY_SLOT_START@
  00406	57		 push	 edi
  00407	ff d6		 call	 esi

; 928  : 	PyModule_AddIntConstant(poModule, "GIFT_BOX_INVENTORY_SLOT_START", c_GiftBox_Inventory_Slot_Start);

  00409	68 c0 02 00 00	 push	 704			; 000002c0H
  0040e	68 00 00 00 00	 push	 OFFSET ??_C@_0BO@HIOPBILE@GIFT_BOX_INVENTORY_SLOT_START@
  00413	57		 push	 edi
  00414	ff d6		 call	 esi

; 929  : 	PyModule_AddIntConstant(poModule, "CHANGERS_INVENTORY_SLOT_START", c_Changers_Inventory_Slot_Start);

  00416	68 47 03 00 00	 push	 839			; 00000347H
  0041b	68 00 00 00 00	 push	 OFFSET ??_C@_0BO@KNLOLNDC@CHANGERS_INVENTORY_SLOT_START@
  00420	57		 push	 edi
  00421	ff d6		 call	 esi
  00423	83 c4 48	 add	 esp, 72			; 00000048H

; 930  : #endif
; 931  : 
; 932  : 	PyModule_AddIntConstant(poModule, "WEAPON_SWORD", CItemData::WEAPON_SWORD);

  00426	6a 00		 push	 0
  00428	68 00 00 00 00	 push	 OFFSET ??_C@_0N@FCLCNMLC@WEAPON_SWORD@
  0042d	57		 push	 edi
  0042e	ff d6		 call	 esi

; 933  : 	PyModule_AddIntConstant(poModule, "WEAPON_DAGGER", CItemData::WEAPON_DAGGER);

  00430	6a 01		 push	 1
  00432	68 00 00 00 00	 push	 OFFSET ??_C@_0O@IMDDJKDH@WEAPON_DAGGER@
  00437	57		 push	 edi
  00438	ff d6		 call	 esi

; 934  : 	PyModule_AddIntConstant(poModule, "WEAPON_BOW", CItemData::WEAPON_BOW);

  0043a	6a 02		 push	 2
  0043c	68 00 00 00 00	 push	 OFFSET ??_C@_0L@KDNCAJJM@WEAPON_BOW@
  00441	57		 push	 edi
  00442	ff d6		 call	 esi

; 935  : 	PyModule_AddIntConstant(poModule, "WEAPON_TWO_HANDED", CItemData::WEAPON_TWO_HANDED);

  00444	6a 03		 push	 3
  00446	68 00 00 00 00	 push	 OFFSET ??_C@_0BC@OILJBHHK@WEAPON_TWO_HANDED@
  0044b	57		 push	 edi
  0044c	ff d6		 call	 esi

; 936  : 	PyModule_AddIntConstant(poModule, "WEAPON_BELL", CItemData::WEAPON_BELL);

  0044e	6a 04		 push	 4
  00450	68 00 00 00 00	 push	 OFFSET ??_C@_0M@NKBIKBJK@WEAPON_BELL@
  00455	57		 push	 edi
  00456	ff d6		 call	 esi

; 937  : 	PyModule_AddIntConstant(poModule, "WEAPON_FAN", CItemData::WEAPON_FAN);

  00458	6a 05		 push	 5
  0045a	68 00 00 00 00	 push	 OFFSET ??_C@_0L@LNCOBKNJ@WEAPON_FAN@
  0045f	57		 push	 edi
  00460	ff d6		 call	 esi
  00462	83 c4 48	 add	 esp, 72			; 00000048H

; 938  : 	PyModule_AddIntConstant(poModule, "WEAPON_ARROW", CItemData::WEAPON_ARROW);

  00465	6a 06		 push	 6
  00467	68 00 00 00 00	 push	 OFFSET ??_C@_0N@DCOAOKB@WEAPON_ARROW@
  0046c	57		 push	 edi
  0046d	ff d6		 call	 esi

; 939  : 	PyModule_AddIntConstant(poModule, "WEAPON_NUM_TYPES", CItemData::WEAPON_NUM_TYPES);

  0046f	6a 08		 push	 8
  00471	68 00 00 00 00	 push	 OFFSET ??_C@_0BB@KFDFBDPL@WEAPON_NUM_TYPES@
  00476	57		 push	 edi
  00477	ff d6		 call	 esi

; 940  : 
; 941  : 	PyModule_AddIntConstant(poModule, "USE_POTION", CItemData::USE_POTION);

  00479	6a 00		 push	 0
  0047b	68 00 00 00 00	 push	 OFFSET ??_C@_0L@DENJCCNI@USE_POTION@
  00480	57		 push	 edi
  00481	ff d6		 call	 esi

; 942  : 	PyModule_AddIntConstant(poModule, "USE_TALISMAN", CItemData::USE_TALISMAN);

  00483	6a 01		 push	 1
  00485	68 00 00 00 00	 push	 OFFSET ??_C@_0N@CINBPLKM@USE_TALISMAN@
  0048a	57		 push	 edi
  0048b	ff d6		 call	 esi

; 943  : 	PyModule_AddIntConstant(poModule, "USE_TUNING", CItemData::USE_TUNING);

  0048d	6a 02		 push	 2
  0048f	68 00 00 00 00	 push	 OFFSET ??_C@_0L@JIILHJGL@USE_TUNING@
  00494	57		 push	 edi
  00495	ff d6		 call	 esi

; 944  : 	PyModule_AddIntConstant(poModule, "USE_MOVE", CItemData::USE_MOVE);

  00497	6a 03		 push	 3
  00499	68 00 00 00 00	 push	 OFFSET ??_C@_08JHFKMGGA@USE_MOVE@
  0049e	57		 push	 edi
  0049f	ff d6		 call	 esi
  004a1	83 c4 48	 add	 esp, 72			; 00000048H

; 945  : 	PyModule_AddIntConstant(poModule, "USE_TREASURE_BOX", CItemData::USE_TREASURE_BOX);

  004a4	6a 04		 push	 4
  004a6	68 00 00 00 00	 push	 OFFSET ??_C@_0BB@BBPDKOFG@USE_TREASURE_BOX@
  004ab	57		 push	 edi
  004ac	ff d6		 call	 esi

; 946  : 	PyModule_AddIntConstant(poModule, "USE_MONEYBAG", CItemData::USE_MONEYBAG);

  004ae	6a 05		 push	 5
  004b0	68 00 00 00 00	 push	 OFFSET ??_C@_0N@BOHEHPFI@USE_MONEYBAG@
  004b5	57		 push	 edi
  004b6	ff d6		 call	 esi

; 947  : 	PyModule_AddIntConstant(poModule, "USE_BAIT", CItemData::USE_BAIT);

  004b8	6a 06		 push	 6
  004ba	68 00 00 00 00	 push	 OFFSET ??_C@_08LBHGOBNP@USE_BAIT@
  004bf	57		 push	 edi
  004c0	ff d6		 call	 esi

; 948  : 	PyModule_AddIntConstant(poModule, "USE_ABILITY_UP", CItemData::USE_ABILITY_UP);

  004c2	6a 07		 push	 7
  004c4	68 00 00 00 00	 push	 OFFSET ??_C@_0P@JBLCKFGE@USE_ABILITY_UP@
  004c9	57		 push	 edi
  004ca	ff d6		 call	 esi

; 949  : 	PyModule_AddIntConstant(poModule, "USE_AFFECT", CItemData::USE_AFFECT);

  004cc	6a 08		 push	 8
  004ce	68 00 00 00 00	 push	 OFFSET ??_C@_0L@DLLOJMIP@USE_AFFECT@
  004d3	57		 push	 edi
  004d4	ff d6		 call	 esi

; 950  : 	PyModule_AddIntConstant(poModule, "USE_CREATE_STONE", CItemData::USE_CREATE_STONE);

  004d6	6a 09		 push	 9
  004d8	68 00 00 00 00	 push	 OFFSET ??_C@_0BB@PBBDNJH@USE_CREATE_STONE@
  004dd	57		 push	 edi
  004de	ff d6		 call	 esi
  004e0	83 c4 48	 add	 esp, 72			; 00000048H

; 951  : 	PyModule_AddIntConstant(poModule, "USE_SPECIAL", CItemData::USE_SPECIAL);

  004e3	6a 0a		 push	 10			; 0000000aH
  004e5	68 00 00 00 00	 push	 OFFSET ??_C@_0M@GHOELJHH@USE_SPECIAL@
  004ea	57		 push	 edi
  004eb	ff d6		 call	 esi

; 952  : 	PyModule_AddIntConstant(poModule, "USE_POTION_NODELAY", CItemData::USE_POTION_NODELAY);

  004ed	6a 0b		 push	 11			; 0000000bH
  004ef	68 00 00 00 00	 push	 OFFSET ??_C@_0BD@MMDEHJ@USE_POTION_NODELAY@
  004f4	57		 push	 edi
  004f5	ff d6		 call	 esi

; 953  : 	PyModule_AddIntConstant(poModule, "USE_CLEAR", CItemData::USE_CLEAR);

  004f7	6a 0c		 push	 12			; 0000000cH
  004f9	68 00 00 00 00	 push	 OFFSET ??_C@_09PNKHEPEF@USE_CLEAR@
  004fe	57		 push	 edi
  004ff	ff d6		 call	 esi

; 954  : 	PyModule_AddIntConstant(poModule, "USE_INVISIBILITY", CItemData::USE_INVISIBILITY);

  00501	6a 0d		 push	 13			; 0000000dH
  00503	68 00 00 00 00	 push	 OFFSET ??_C@_0BB@NCIEFOD@USE_INVISIBILITY@
  00508	57		 push	 edi
  00509	ff d6		 call	 esi

; 955  : 	PyModule_AddIntConstant(poModule, "USE_DETACHMENT", CItemData::USE_DETACHMENT);

  0050b	6a 0e		 push	 14			; 0000000eH
  0050d	68 00 00 00 00	 push	 OFFSET ??_C@_0P@MKAMDACK@USE_DETACHMENT@
  00512	57		 push	 edi
  00513	ff d6		 call	 esi

; 956  : 	PyModule_AddIntConstant(poModule, "USE_TIME_CHARGE_PER", CItemData::USE_TIME_CHARGE_PER);

  00515	6a 1b		 push	 27			; 0000001bH
  00517	68 00 00 00 00	 push	 OFFSET ??_C@_0BE@NEAJJELI@USE_TIME_CHARGE_PER@
  0051c	57		 push	 edi
  0051d	ff d6		 call	 esi
  0051f	83 c4 48	 add	 esp, 72			; 00000048H

; 957  : 	PyModule_AddIntConstant(poModule, "USE_TIME_CHARGE_FIX", CItemData::USE_TIME_CHARGE_FIX);

  00522	6a 1c		 push	 28			; 0000001cH
  00524	68 00 00 00 00	 push	 OFFSET ??_C@_0BE@FCIOINBF@USE_TIME_CHARGE_FIX@
  00529	57		 push	 edi
  0052a	ff d6		 call	 esi

; 958  : #ifdef ENABLE_RENEWAL_AFFECT
; 959  : 	PyModule_AddIntConstant(poModule, "USE_AFFECT_PLUS", CItemData::USE_AFFECT_PLUS);

  0052c	6a 1f		 push	 31			; 0000001fH
  0052e	68 00 00 00 00	 push	 OFFSET ??_C@_0BA@NILKDFNN@USE_AFFECT_PLUS@
  00533	57		 push	 edi
  00534	ff d6		 call	 esi

; 960  : #endif
; 961  : #ifdef ENABLE_AURA_COSTUME_SYSTEM
; 962  : 	PyModule_AddIntConstant(poModule, "USE_PUT_INTO_AURA_SOCKET", CItemData::USE_PUT_INTO_AURA_SOCKET);

  00536	6a 22		 push	 34			; 00000022H
  00538	68 00 00 00 00	 push	 OFFSET ??_C@_0BJ@FNHNMEGH@USE_PUT_INTO_AURA_SOCKET@
  0053d	57		 push	 edi
  0053e	ff d6		 call	 esi

; 963  : #endif
; 964  : 
; 965  : 	PyModule_AddIntConstant(poModule, "MATERIAL_DS_REFINE_NORMAL", CItemData::MATERIAL_DS_REFINE_NORMAL);

  00540	6a 05		 push	 5
  00542	68 00 00 00 00	 push	 OFFSET ??_C@_0BK@FFJFCNLF@MATERIAL_DS_REFINE_NORMAL@
  00547	57		 push	 edi
  00548	ff d6		 call	 esi

; 966  : 	PyModule_AddIntConstant(poModule, "MATERIAL_DS_REFINE_BLESSED", CItemData::MATERIAL_DS_REFINE_BLESSED);

  0054a	6a 06		 push	 6
  0054c	68 00 00 00 00	 push	 OFFSET ??_C@_0BL@HNMOOIKG@MATERIAL_DS_REFINE_BLESSED@
  00551	57		 push	 edi
  00552	ff d6		 call	 esi

; 967  : 	PyModule_AddIntConstant(poModule, "MATERIAL_DS_REFINE_HOLLY", CItemData::MATERIAL_DS_REFINE_HOLLY);

  00554	6a 07		 push	 7
  00556	68 00 00 00 00	 push	 OFFSET ??_C@_0BJ@KCHKGND@MATERIAL_DS_REFINE_HOLLY@
  0055b	57		 push	 edi
  0055c	ff d6		 call	 esi
  0055e	83 c4 48	 add	 esp, 72			; 00000048H

; 968  : 
; 969  : 	PyModule_AddIntConstant(poModule, "METIN_NORMAL", CItemData::METIN_NORMAL);

  00561	6a 00		 push	 0
  00563	68 00 00 00 00	 push	 OFFSET ??_C@_0N@HOHHHOFD@METIN_NORMAL@
  00568	57		 push	 edi
  00569	ff d6		 call	 esi

; 970  : 	PyModule_AddIntConstant(poModule, "METIN_GOLD", CItemData::METIN_GOLD);

  0056b	6a 01		 push	 1
  0056d	68 00 00 00 00	 push	 OFFSET ??_C@_0L@MFIGJJDC@METIN_GOLD@
  00572	57		 push	 edi
  00573	ff d6		 call	 esi

; 971  : 
; 972  : 	PyModule_AddIntConstant(poModule, "LIMIT_NONE", CItemData::LIMIT_NONE);

  00575	6a 00		 push	 0
  00577	68 00 00 00 00	 push	 OFFSET ??_C@_0L@MKHGBGII@LIMIT_NONE@
  0057c	57		 push	 edi
  0057d	ff d6		 call	 esi

; 973  : 	PyModule_AddIntConstant(poModule, "LIMIT_LEVEL", CItemData::LIMIT_LEVEL);

  0057f	6a 01		 push	 1
  00581	68 00 00 00 00	 push	 OFFSET ??_C@_0M@CNLALLNH@LIMIT_LEVEL@
  00586	57		 push	 edi
  00587	ff d6		 call	 esi

; 974  : 	PyModule_AddIntConstant(poModule, "LIMIT_STR", CItemData::LIMIT_STR);

  00589	6a 02		 push	 2
  0058b	68 00 00 00 00	 push	 OFFSET ??_C@_09JOBFCJGA@LIMIT_STR@
  00590	57		 push	 edi
  00591	ff d6		 call	 esi

; 975  : 	PyModule_AddIntConstant(poModule, "LIMIT_DEX", CItemData::LIMIT_DEX);

  00593	6a 03		 push	 3
  00595	68 00 00 00 00	 push	 OFFSET ??_C@_09LENAGHIL@LIMIT_DEX@
  0059a	57		 push	 edi
  0059b	ff d6		 call	 esi
  0059d	83 c4 48	 add	 esp, 72			; 00000048H

; 976  : 	PyModule_AddIntConstant(poModule, "LIMIT_INT", CItemData::LIMIT_INT);

  005a0	6a 04		 push	 4
  005a2	68 00 00 00 00	 push	 OFFSET ??_C@_09OGFKBPLL@LIMIT_INT@
  005a7	57		 push	 edi
  005a8	ff d6		 call	 esi

; 977  : 	PyModule_AddIntConstant(poModule, "LIMIT_CON", CItemData::LIMIT_CON);

  005aa	6a 05		 push	 5
  005ac	68 00 00 00 00	 push	 OFFSET ??_C@_09DIAIGPDD@LIMIT_CON@
  005b1	57		 push	 edi
  005b2	ff d6		 call	 esi

; 978  : 	PyModule_AddIntConstant(poModule, "LIMIT_REAL_TIME", CItemData::LIMIT_REAL_TIME);

  005b4	6a 06		 push	 6
  005b6	68 00 00 00 00	 push	 OFFSET ??_C@_0BA@FCJCAFPM@LIMIT_REAL_TIME@
  005bb	57		 push	 edi
  005bc	ff d6		 call	 esi

; 979  : 	PyModule_AddIntConstant(poModule, "LIMIT_REAL_TIME_START_FIRST_USE", CItemData::LIMIT_REAL_TIME_START_FIRST_USE);

  005be	6a 07		 push	 7
  005c0	68 00 00 00 00	 push	 OFFSET ??_C@_0CA@KECNELOI@LIMIT_REAL_TIME_START_FIRST_USE@
  005c5	57		 push	 edi
  005c6	ff d6		 call	 esi

; 980  : 	PyModule_AddIntConstant(poModule, "LIMIT_TIMER_BASED_ON_WEAR", CItemData::LIMIT_TIMER_BASED_ON_WEAR);

  005c8	6a 08		 push	 8
  005ca	68 00 00 00 00	 push	 OFFSET ??_C@_0BK@DKGMKHOA@LIMIT_TIMER_BASED_ON_WEAR@
  005cf	57		 push	 edi
  005d0	ff d6		 call	 esi

; 981  : 	PyModule_AddIntConstant(poModule, "LIMIT_TYPE_MAX_NUM", CItemData::LIMIT_MAX_NUM);

  005d2	6a 09		 push	 9
  005d4	68 00 00 00 00	 push	 OFFSET ??_C@_0BD@JIAJEJNL@LIMIT_TYPE_MAX_NUM@
  005d9	57		 push	 edi
  005da	ff d6		 call	 esi
  005dc	83 c4 48	 add	 esp, 72			; 00000048H

; 982  : 	PyModule_AddIntConstant(poModule, "LIMIT_MAX_NUM", CItemData::ITEM_LIMIT_MAX_NUM);

  005df	6a 02		 push	 2
  005e1	68 00 00 00 00	 push	 OFFSET ??_C@_0O@DPNMMLCK@LIMIT_MAX_NUM@
  005e6	57		 push	 edi
  005e7	ff d6		 call	 esi

; 983  : 
; 984  : 	PyModule_AddIntConstant(poModule, "ITEM_ANTIFLAG_FEMALE", CItemData::ITEM_ANTIFLAG_FEMALE);

  005e9	6a 01		 push	 1
  005eb	68 00 00 00 00	 push	 OFFSET ??_C@_0BF@DFHLBKDO@ITEM_ANTIFLAG_FEMALE@
  005f0	57		 push	 edi
  005f1	ff d6		 call	 esi

; 985  : 	PyModule_AddIntConstant(poModule, "ITEM_ANTIFLAG_MALE", CItemData::ITEM_ANTIFLAG_MALE);

  005f3	6a 02		 push	 2
  005f5	68 00 00 00 00	 push	 OFFSET ??_C@_0BD@DBFGLDPM@ITEM_ANTIFLAG_MALE@
  005fa	57		 push	 edi
  005fb	ff d6		 call	 esi

; 986  : 	PyModule_AddIntConstant(poModule, "ITEM_ANTIFLAG_WARRIOR", CItemData::ITEM_ANTIFLAG_WARRIOR);

  005fd	6a 04		 push	 4
  005ff	68 00 00 00 00	 push	 OFFSET ??_C@_0BG@OCAOGEDJ@ITEM_ANTIFLAG_WARRIOR@
  00604	57		 push	 edi
  00605	ff d6		 call	 esi

; 987  : 	PyModule_AddIntConstant(poModule, "ITEM_ANTIFLAG_ASSASSIN", CItemData::ITEM_ANTIFLAG_ASSASSIN);

  00607	6a 08		 push	 8
  00609	68 00 00 00 00	 push	 OFFSET ??_C@_0BH@NDIALJFO@ITEM_ANTIFLAG_ASSASSIN@
  0060e	57		 push	 edi
  0060f	ff d6		 call	 esi

; 988  : 	PyModule_AddIntConstant(poModule, "ITEM_ANTIFLAG_SURA", CItemData::ITEM_ANTIFLAG_SURA);

  00611	6a 10		 push	 16			; 00000010H
  00613	68 00 00 00 00	 push	 OFFSET ??_C@_0BD@EDCJBBKJ@ITEM_ANTIFLAG_SURA@
  00618	57		 push	 edi
  00619	ff d6		 call	 esi
  0061b	83 c4 48	 add	 esp, 72			; 00000048H

; 989  : 	PyModule_AddIntConstant(poModule, "ITEM_ANTIFLAG_SHAMAN", CItemData::ITEM_ANTIFLAG_SHAMAN);

  0061e	6a 20		 push	 32			; 00000020H
  00620	68 00 00 00 00	 push	 OFFSET ??_C@_0BF@NIAJKCKI@ITEM_ANTIFLAG_SHAMAN@
  00625	57		 push	 edi
  00626	ff d6		 call	 esi

; 990  : 	PyModule_AddIntConstant(poModule, "ITEM_ANTIFLAG_GET", CItemData::ITEM_ANTIFLAG_GET);

  00628	6a 40		 push	 64			; 00000040H
  0062a	68 00 00 00 00	 push	 OFFSET ??_C@_0BC@NECEHGFA@ITEM_ANTIFLAG_GET@
  0062f	57		 push	 edi
  00630	ff d6		 call	 esi

; 991  : 	PyModule_AddIntConstant(poModule, "ITEM_ANTIFLAG_DROP", CItemData::ITEM_ANTIFLAG_DROP);

  00632	68 80 00 00 00	 push	 128			; 00000080H
  00637	68 00 00 00 00	 push	 OFFSET ??_C@_0BD@ELBJHBLB@ITEM_ANTIFLAG_DROP@
  0063c	57		 push	 edi
  0063d	ff d6		 call	 esi

; 992  : 	PyModule_AddIntConstant(poModule, "ITEM_ANTIFLAG_SELL", CItemData::ITEM_ANTIFLAG_SELL);

  0063f	68 00 01 00 00	 push	 256			; 00000100H
  00644	68 00 00 00 00	 push	 OFFSET ??_C@_0BD@LACGLGAB@ITEM_ANTIFLAG_SELL@
  00649	57		 push	 edi
  0064a	ff d6		 call	 esi

; 993  : 	PyModule_AddIntConstant(poModule, "ITEM_ANTIFLAG_EMPIRE_A", CItemData::ITEM_ANTIFLAG_EMPIRE_A);

  0064c	68 00 02 00 00	 push	 512			; 00000200H
  00651	68 00 00 00 00	 push	 OFFSET ??_C@_0BH@ONMHLBEF@ITEM_ANTIFLAG_EMPIRE_A@
  00656	57		 push	 edi
  00657	ff d6		 call	 esi

; 994  : 	PyModule_AddIntConstant(poModule, "ITEM_ANTIFLAG_EMPIRE_B", CItemData::ITEM_ANTIFLAG_EMPIRE_B);

  00659	68 00 04 00 00	 push	 1024			; 00000400H
  0065e	68 00 00 00 00	 push	 OFFSET ??_C@_0BH@MGOKOCIG@ITEM_ANTIFLAG_EMPIRE_B@
  00663	57		 push	 edi
  00664	ff d6		 call	 esi
  00666	83 c4 48	 add	 esp, 72			; 00000048H

; 995  : 	PyModule_AddIntConstant(poModule, "ITEM_ANTIFLAG_EMPIRE_R", CItemData::ITEM_ANTIFLAG_EMPIRE_R);

  00669	68 00 08 00 00	 push	 2048			; 00000800H
  0066e	68 00 00 00 00	 push	 OFFSET ??_C@_0BH@IMCIPANH@ITEM_ANTIFLAG_EMPIRE_R@
  00673	57		 push	 edi
  00674	ff d6		 call	 esi

; 996  : 	PyModule_AddIntConstant(poModule, "ITEM_ANTIFLAG_SAVE", CItemData::ITEM_ANTIFLAG_SAVE);

  00676	68 00 10 00 00	 push	 4096			; 00001000H
  0067b	68 00 00 00 00	 push	 OFFSET ??_C@_0BD@PPDHLMLJ@ITEM_ANTIFLAG_SAVE@
  00680	57		 push	 edi
  00681	ff d6		 call	 esi

; 997  : 	PyModule_AddIntConstant(poModule, "ITEM_ANTIFLAG_GIVE", CItemData::ITEM_ANTIFLAG_GIVE);

  00683	68 00 20 00 00	 push	 8192			; 00002000H
  00688	68 00 00 00 00	 push	 OFFSET ??_C@_0BD@KPODKFBE@ITEM_ANTIFLAG_GIVE@
  0068d	57		 push	 edi
  0068e	ff d6		 call	 esi

; 998  : 	PyModule_AddIntConstant(poModule, "ITEM_ANTIFLAG_PKDROP", CItemData::ITEM_ANTIFLAG_PKDROP);

  00690	68 00 40 00 00	 push	 16384			; 00004000H
  00695	68 00 00 00 00	 push	 OFFSET ??_C@_0BF@HBDABAPH@ITEM_ANTIFLAG_PKDROP@
  0069a	57		 push	 edi
  0069b	ff d6		 call	 esi

; 999  : 	PyModule_AddIntConstant(poModule, "ITEM_ANTIFLAG_STACK", CItemData::ITEM_ANTIFLAG_STACK);

  0069d	68 00 80 00 00	 push	 32768			; 00008000H
  006a2	68 00 00 00 00	 push	 OFFSET ??_C@_0BE@MAIMKBDM@ITEM_ANTIFLAG_STACK@
  006a7	57		 push	 edi
  006a8	ff d6		 call	 esi

; 1000 : 	PyModule_AddIntConstant(poModule, "ITEM_ANTIFLAG_MYSHOP", CItemData::ITEM_ANTIFLAG_MYSHOP);

  006aa	68 00 00 01 00	 push	 65536			; 00010000H
  006af	68 00 00 00 00	 push	 OFFSET ??_C@_0BF@NEEDLCAA@ITEM_ANTIFLAG_MYSHOP@
  006b4	57		 push	 edi
  006b5	ff d6		 call	 esi
  006b7	83 c4 48	 add	 esp, 72			; 00000048H

; 1001 : 	PyModule_AddIntConstant(poModule, "ITEM_ANTIFLAG_SAFEBOX", CItemData::ITEM_ANTIFLAG_SAFEBOX);

  006ba	68 00 00 02 00	 push	 131072			; 00020000H
  006bf	68 00 00 00 00	 push	 OFFSET ??_C@_0BG@BCNAOFH@ITEM_ANTIFLAG_SAFEBOX@
  006c4	57		 push	 edi
  006c5	ff d6		 call	 esi

; 1002 : #ifdef ENABLE_DESTROY_DIALOG
; 1003 : 	PyModule_AddIntConstant(poModule, "ITEM_ANTIFLAG_DESTROY", CItemData::ITEM_ANTIFLAG_DESTROY);

  006c7	68 00 00 04 00	 push	 262144			; 00040000H
  006cc	68 00 00 00 00	 push	 OFFSET ??_C@_0BG@MEIFFJLC@ITEM_ANTIFLAG_DESTROY@
  006d1	57		 push	 edi
  006d2	ff d6		 call	 esi

; 1004 : #endif
; 1005 : 	PyModule_AddIntConstant(poModule, "ITEM_ANTIFLAG_RT_REMOVE", CItemData::ITEM_ANTIFLAG_RT_REMOVE);

  006d4	68 00 00 10 00	 push	 1048576			; 00100000H
  006d9	68 00 00 00 00	 push	 OFFSET ??_C@_0BI@JFGOOGEF@ITEM_ANTIFLAG_RT_REMOVE@
  006de	57		 push	 edi
  006df	ff d6		 call	 esi

; 1006 : 
; 1007 : 	PyModule_AddIntConstant(poModule, "ITEM_FLAG_STACKABLE", CItemData::ITEM_FLAG_STACKABLE);

  006e1	6a 04		 push	 4
  006e3	68 00 00 00 00	 push	 OFFSET ??_C@_0BE@LJENCJCN@ITEM_FLAG_STACKABLE@
  006e8	57		 push	 edi
  006e9	ff d6		 call	 esi

; 1008 : 
; 1009 : 	PyModule_AddIntConstant(poModule, "ITEM_FLAG_RARE", CItemData::ITEM_FLAG_RARE);

  006eb	6a 20		 push	 32			; 00000020H
  006ed	68 00 00 00 00	 push	 OFFSET ??_C@_0P@POCGDPPH@ITEM_FLAG_RARE@
  006f2	57		 push	 edi
  006f3	ff d6		 call	 esi

; 1010 : 	PyModule_AddIntConstant(poModule, "ITEM_FLAG_UNIQUE", CItemData::ITEM_FLAG_UNIQUE);

  006f5	6a 40		 push	 64			; 00000040H
  006f7	68 00 00 00 00	 push	 OFFSET ??_C@_0BB@PGFIBJHK@ITEM_FLAG_UNIQUE@
  006fc	57		 push	 edi
  006fd	ff d6		 call	 esi
  006ff	83 c4 48	 add	 esp, 72			; 00000048H

; 1011 : 	PyModule_AddIntConstant(poModule, "ITEM_FLAG_CONFIRM_WHEN_USE", CItemData::ITEM_FLAG_CONFIRM_WHEN_USE);

  00702	68 00 02 00 00	 push	 512			; 00000200H
  00707	68 00 00 00 00	 push	 OFFSET ??_C@_0BL@IPKGPKMA@ITEM_FLAG_CONFIRM_WHEN_USE@
  0070c	57		 push	 edi
  0070d	ff d6		 call	 esi

; 1012 : 
; 1013 : 	PyModule_AddIntConstant(poModule, "ANTIFLAG_FEMALE", CItemData::ITEM_ANTIFLAG_FEMALE);

  0070f	6a 01		 push	 1
  00711	68 00 00 00 00	 push	 OFFSET ??_C@_0BA@PLOPKCNG@ANTIFLAG_FEMALE@
  00716	57		 push	 edi
  00717	ff d6		 call	 esi

; 1014 : 	PyModule_AddIntConstant(poModule, "ANTIFLAG_MALE", CItemData::ITEM_ANTIFLAG_MALE);

  00719	6a 02		 push	 2
  0071b	68 00 00 00 00	 push	 OFFSET ??_C@_0O@GCOFJDKL@ANTIFLAG_MALE@
  00720	57		 push	 edi
  00721	ff d6		 call	 esi

; 1015 : 	PyModule_AddIntConstant(poModule, "ANTIFLAG_WARRIOR", CItemData::ITEM_ANTIFLAG_WARRIOR);

  00723	6a 04		 push	 4
  00725	68 00 00 00 00	 push	 OFFSET ??_C@_0BB@EMBBJKML@ANTIFLAG_WARRIOR@
  0072a	57		 push	 edi
  0072b	ff d6		 call	 esi

; 1016 : 	PyModule_AddIntConstant(poModule, "ANTIFLAG_ASSASSIN", CItemData::ITEM_ANTIFLAG_ASSASSIN);

  0072d	6a 08		 push	 8
  0072f	68 00 00 00 00	 push	 OFFSET ??_C@_0BC@IAJNDFJA@ANTIFLAG_ASSASSIN@
  00734	57		 push	 edi
  00735	ff d6		 call	 esi

; 1017 : 	PyModule_AddIntConstant(poModule, "ANTIFLAG_SURA", CItemData::ITEM_ANTIFLAG_SURA);

  00737	6a 10		 push	 16			; 00000010H
  00739	68 00 00 00 00	 push	 OFFSET ??_C@_0O@BAJKDBPO@ANTIFLAG_SURA@
  0073e	57		 push	 edi
  0073f	ff d6		 call	 esi
  00741	83 c4 48	 add	 esp, 72			; 00000048H

; 1018 : 	PyModule_AddIntConstant(poModule, "ANTIFLAG_SHAMAN", CItemData::ITEM_ANTIFLAG_SHAMAN);

  00744	6a 20		 push	 32			; 00000020H
  00746	68 00 00 00 00	 push	 OFFSET ??_C@_0BA@BGJNBKEA@ANTIFLAG_SHAMAN@
  0074b	57		 push	 edi
  0074c	ff d6		 call	 esi

; 1019 : 	PyModule_AddIntConstant(poModule, "ANTIFLAG_GET", CItemData::ITEM_ANTIFLAG_GET);

  0074e	6a 40		 push	 64			; 00000040H
  00750	68 00 00 00 00	 push	 OFFSET ??_C@_0N@NEJHBBKC@ANTIFLAG_GET@
  00755	57		 push	 edi
  00756	ff d6		 call	 esi

; 1020 : 	PyModule_AddIntConstant(poModule, "ANTIFLAG_DROP", CItemData::ITEM_ANTIFLAG_DROP);

  00758	68 80 00 00 00	 push	 128			; 00000080H
  0075d	68 00 00 00 00	 push	 OFFSET ??_C@_0O@BIKKFBOG@ANTIFLAG_DROP@
  00762	57		 push	 edi
  00763	ff d6		 call	 esi

; 1021 : 	PyModule_AddIntConstant(poModule, "ANTIFLAG_SELL", CItemData::ITEM_ANTIFLAG_SELL);

  00765	68 00 01 00 00	 push	 256			; 00000100H
  0076a	68 00 00 00 00	 push	 OFFSET ??_C@_0O@ODJFJGFG@ANTIFLAG_SELL@
  0076f	57		 push	 edi
  00770	ff d6		 call	 esi

; 1022 : 	PyModule_AddIntConstant(poModule, "ANTIFLAG_EMPIRE_A", CItemData::ITEM_ANTIFLAG_EMPIRE_A);

  00772	68 00 02 00 00	 push	 512			; 00000200H
  00777	68 00 00 00 00	 push	 OFFSET ??_C@_0BC@LONKDNIL@ANTIFLAG_EMPIRE_A@
  0077c	57		 push	 edi
  0077d	ff d6		 call	 esi

; 1023 : 	PyModule_AddIntConstant(poModule, "ANTIFLAG_EMPIRE_B", CItemData::ITEM_ANTIFLAG_EMPIRE_B);

  0077f	68 00 04 00 00	 push	 1024			; 00000400H
  00784	68 00 00 00 00	 push	 OFFSET ??_C@_0BC@JFPHGOEI@ANTIFLAG_EMPIRE_B@
  00789	57		 push	 edi
  0078a	ff d6		 call	 esi
  0078c	83 c4 48	 add	 esp, 72			; 00000048H

; 1024 : 	PyModule_AddIntConstant(poModule, "ANTIFLAG_EMPIRE_R", CItemData::ITEM_ANTIFLAG_EMPIRE_R);

  0078f	68 00 08 00 00	 push	 2048			; 00000800H
  00794	68 00 00 00 00	 push	 OFFSET ??_C@_0BC@NPDFHMBJ@ANTIFLAG_EMPIRE_R@
  00799	57		 push	 edi
  0079a	ff d6		 call	 esi

; 1025 : 	PyModule_AddIntConstant(poModule, "ANTIFLAG_SAVE", CItemData::ITEM_ANTIFLAG_SAVE);

  0079c	68 00 10 00 00	 push	 4096			; 00001000H
  007a1	68 00 00 00 00	 push	 OFFSET ??_C@_0O@KMIEJMOO@ANTIFLAG_SAVE@
  007a6	57		 push	 edi
  007a7	ff d6		 call	 esi

; 1026 : 	PyModule_AddIntConstant(poModule, "ANTIFLAG_GIVE", CItemData::ITEM_ANTIFLAG_GIVE);

  007a9	68 00 20 00 00	 push	 8192			; 00002000H
  007ae	68 00 00 00 00	 push	 OFFSET ??_C@_0O@PMFAIFED@ANTIFLAG_GIVE@
  007b3	57		 push	 edi
  007b4	ff d6		 call	 esi

; 1027 : 	PyModule_AddIntConstant(poModule, "ANTIFLAG_PKDROP", CItemData::ITEM_ANTIFLAG_PKDROP);

  007b6	68 00 40 00 00	 push	 16384			; 00004000H
  007bb	68 00 00 00 00	 push	 OFFSET ??_C@_0BA@LPKEKIBP@ANTIFLAG_PKDROP@
  007c0	57		 push	 edi
  007c1	ff d6		 call	 esi

; 1028 : 	PyModule_AddIntConstant(poModule, "ANTIFLAG_STACK", CItemData::ITEM_ANTIFLAG_STACK);

  007c3	68 00 80 00 00	 push	 32768			; 00008000H
  007c8	68 00 00 00 00	 push	 OFFSET ??_C@_0P@DFNANGEL@ANTIFLAG_STACK@
  007cd	57		 push	 edi
  007ce	ff d6		 call	 esi

; 1029 : 	PyModule_AddIntConstant(poModule, "ANTIFLAG_MYSHOP", CItemData::ITEM_ANTIFLAG_MYSHOP);

  007d0	68 00 00 01 00	 push	 65536			; 00010000H
  007d5	68 00 00 00 00	 push	 OFFSET ??_C@_0BA@BKNHAKOI@ANTIFLAG_MYSHOP@
  007da	57		 push	 edi
  007db	ff d6		 call	 esi
  007dd	83 c4 48	 add	 esp, 72			; 00000048H

; 1030 : 	PyModule_AddIntConstant(poModule, "ANTIFLAG_SAFEBOX", CItemData::ITEM_ANTIFLAG_SAFEBOX);

  007e0	68 00 00 02 00	 push	 131072			; 00020000H
  007e5	68 00 00 00 00	 push	 OFFSET ??_C@_0BB@KPDCPAKF@ANTIFLAG_SAFEBOX@
  007ea	57		 push	 edi
  007eb	ff d6		 call	 esi

; 1031 : #ifdef ENABLE_DESTROY_DIALOG
; 1032 : 	PyModule_AddIntConstant(poModule, "ANTIFLAG_DESTROY", CItemData::ITEM_ANTIFLAG_DESTROY);

  007ed	68 00 00 04 00	 push	 262144			; 00040000H
  007f2	68 00 00 00 00	 push	 OFFSET ??_C@_0BB@GKJKKHEA@ANTIFLAG_DESTROY@
  007f7	57		 push	 edi
  007f8	ff d6		 call	 esi

; 1033 : #endif
; 1034 : 	PyModule_AddIntConstant(poModule, "ANTIFLAG_RT_REMOVE", CItemData::ITEM_ANTIFLAG_RT_REMOVE);

  007fa	68 00 00 10 00	 push	 1048576			; 00100000H
  007ff	68 00 00 00 00	 push	 OFFSET ??_C@_0BD@OJOBBEHO@ANTIFLAG_RT_REMOVE@
  00804	57		 push	 edi
  00805	ff d6		 call	 esi

; 1035 : 
; 1036 : 	PyModule_AddIntConstant(poModule, "WEARABLE_BODY", CItemData::WEARABLE_BODY);

  00807	6a 01		 push	 1
  00809	68 00 00 00 00	 push	 OFFSET ??_C@_0O@KOFPKKKF@WEARABLE_BODY@
  0080e	57		 push	 edi
  0080f	ff d6		 call	 esi

; 1037 : 	PyModule_AddIntConstant(poModule, "WEARABLE_HEAD", CItemData::WEARABLE_HEAD);

  00811	6a 02		 push	 2
  00813	68 00 00 00 00	 push	 OFFSET ??_C@_0O@HCPFPMJH@WEARABLE_HEAD@
  00818	57		 push	 edi
  00819	ff d6		 call	 esi

; 1038 : 	PyModule_AddIntConstant(poModule, "WEARABLE_FOOTS", CItemData::WEARABLE_FOOTS);

  0081b	6a 04		 push	 4
  0081d	68 00 00 00 00	 push	 OFFSET ??_C@_0P@HDMMFABO@WEARABLE_FOOTS@
  00822	57		 push	 edi
  00823	ff d6		 call	 esi
  00825	83 c4 48	 add	 esp, 72			; 00000048H

; 1039 : 	PyModule_AddIntConstant(poModule, "WEARABLE_WRIST", CItemData::WEARABLE_WRIST);

  00828	6a 08		 push	 8
  0082a	68 00 00 00 00	 push	 OFFSET ??_C@_0P@EMFDANIN@WEARABLE_WRIST@
  0082f	57		 push	 edi
  00830	ff d6		 call	 esi

; 1040 : 	PyModule_AddIntConstant(poModule, "WEARABLE_WEAPON", CItemData::WEARABLE_WEAPON);

  00832	6a 10		 push	 16			; 00000010H
  00834	68 00 00 00 00	 push	 OFFSET ??_C@_0BA@NBNKFEIG@WEARABLE_WEAPON@
  00839	57		 push	 edi
  0083a	ff d6		 call	 esi

; 1041 : 	PyModule_AddIntConstant(poModule, "WEARABLE_NECK", CItemData::WEARABLE_NECK);

  0083c	6a 20		 push	 32			; 00000020H
  0083e	68 00 00 00 00	 push	 OFFSET ??_C@_0O@HJKJMBJG@WEARABLE_NECK@
  00843	57		 push	 edi
  00844	ff d6		 call	 esi

; 1042 : 	PyModule_AddIntConstant(poModule, "WEARABLE_EAR", CItemData::WEARABLE_EAR);

  00846	6a 40		 push	 64			; 00000040H
  00848	68 00 00 00 00	 push	 OFFSET ??_C@_0N@BHKGKGNM@WEARABLE_EAR@
  0084d	57		 push	 edi
  0084e	ff d6		 call	 esi

; 1043 : 	PyModule_AddIntConstant(poModule, "WEARABLE_UNIQUE", CItemData::WEARABLE_UNIQUE);

  00850	68 80 00 00 00	 push	 128			; 00000080H
  00855	68 00 00 00 00	 push	 OFFSET ??_C@_0BA@FGALGGKF@WEARABLE_UNIQUE@
  0085a	57		 push	 edi
  0085b	ff d6		 call	 esi

; 1044 : 	PyModule_AddIntConstant(poModule, "WEARABLE_SHIELD", CItemData::WEARABLE_SHIELD);

  0085d	68 00 01 00 00	 push	 256			; 00000100H
  00862	68 00 00 00 00	 push	 OFFSET ??_C@_0BA@DGBFNJPE@WEARABLE_SHIELD@
  00867	57		 push	 edi
  00868	ff d6		 call	 esi
  0086a	83 c4 48	 add	 esp, 72			; 00000048H

; 1045 : 	PyModule_AddIntConstant(poModule, "WEARABLE_ARROW", CItemData::WEARABLE_ARROW);

  0086d	68 00 02 00 00	 push	 512			; 00000200H
  00872	68 00 00 00 00	 push	 OFFSET ??_C@_0P@CANFDFEC@WEARABLE_ARROW@
  00877	57		 push	 edi
  00878	ff d6		 call	 esi

; 1046 : 	PyModule_AddIntConstant(poModule, "WEARABLE_BELT", CItemData::WEARABLE_BELT);

  0087a	68 00 00 08 00	 push	 524288			; 00080000H
  0087f	68 00 00 00 00	 push	 OFFSET ??_C@_0O@HKFPGFDE@WEARABLE_BELT@
  00884	57		 push	 edi
  00885	ff d6		 call	 esi

; 1047 : #ifdef ENABLE_PENDANT_SYSTEM
; 1048 : 	PyModule_AddIntConstant(poModule, "WEARABLE_PENDANT", CItemData::WEARABLE_PENDANT);

  00887	68 00 00 80 00	 push	 8388608			; 00800000H
  0088c	68 00 00 00 00	 push	 OFFSET ??_C@_0BB@FEPBJJKM@WEARABLE_PENDANT@
  00891	57		 push	 edi
  00892	ff d6		 call	 esi

; 1049 : #endif
; 1050 : 
; 1051 : 	PyModule_AddIntConstant(poModule, "ARMOR_BODY", CItemData::ARMOR_BODY);

  00894	6a 00		 push	 0
  00896	68 00 00 00 00	 push	 OFFSET ??_C@_0L@FFADCIKH@ARMOR_BODY@
  0089b	57		 push	 edi
  0089c	ff d6		 call	 esi

; 1052 : 	PyModule_AddIntConstant(poModule, "ARMOR_HEAD", CItemData::ARMOR_HEAD);

  0089e	6a 01		 push	 1
  008a0	68 00 00 00 00	 push	 OFFSET ??_C@_0L@IJKJHOJF@ARMOR_HEAD@
  008a5	57		 push	 edi
  008a6	ff d6		 call	 esi

; 1053 : 	PyModule_AddIntConstant(poModule, "ARMOR_SHIELD", CItemData::ARMOR_SHIELD);

  008a8	6a 02		 push	 2
  008aa	68 00 00 00 00	 push	 OFFSET ??_C@_0N@HJFKCCG@ARMOR_SHIELD@
  008af	57		 push	 edi
  008b0	ff d6		 call	 esi
  008b2	83 c4 48	 add	 esp, 72			; 00000048H

; 1054 : 	PyModule_AddIntConstant(poModule, "ARMOR_WRIST", CItemData::ARMOR_WRIST);

  008b5	6a 03		 push	 3
  008b7	68 00 00 00 00	 push	 OFFSET ??_C@_0M@KCKGDACD@ARMOR_WRIST@
  008bc	57		 push	 edi
  008bd	ff d6		 call	 esi

; 1055 : 	PyModule_AddIntConstant(poModule, "ARMOR_FOOTS", CItemData::ARMOR_FOOTS);

  008bf	6a 04		 push	 4
  008c1	68 00 00 00 00	 push	 OFFSET ??_C@_0M@JNDJGNLA@ARMOR_FOOTS@
  008c6	57		 push	 edi
  008c7	ff d6		 call	 esi

; 1056 : 	PyModule_AddIntConstant(poModule, "ARMOR_NECK", CItemData::ARMOR_NECK);

  008c9	6a 05		 push	 5
  008cb	68 00 00 00 00	 push	 OFFSET ??_C@_0L@ICPFEDJE@ARMOR_NECK@
  008d0	57		 push	 edi
  008d1	ff d6		 call	 esi

; 1057 : 	PyModule_AddIntConstant(poModule, "ARMOR_EAR", CItemData::ARMOR_EAR);

  008d3	6a 06		 push	 6
  008d5	68 00 00 00 00	 push	 OFFSET ??_C@_09JPGIMBID@ARMOR_EAR@
  008da	57		 push	 edi
  008db	ff d6		 call	 esi

; 1058 : 	PyModule_AddIntConstant(poModule, "ARMOR_BELT", CItemData::ARMOR_BELT);

  008dd	6a 07		 push	 7
  008df	68 00 00 00 00	 push	 OFFSET ??_C@_0L@IBADOHDG@ARMOR_BELT@
  008e4	57		 push	 edi
  008e5	ff d6		 call	 esi

; 1059 : #ifdef ENABLE_PENDANT_SYSTEM
; 1060 : 	PyModule_AddIntConstant(poModule, "ARMOR_PENDANT", CItemData::ARMOR_PENDANT);

  008e7	6a 08		 push	 8
  008e9	68 00 00 00 00	 push	 OFFSET ??_C@_0O@DMBNKKCP@ARMOR_PENDANT@
  008ee	57		 push	 edi
  008ef	ff d6		 call	 esi
  008f1	83 c4 48	 add	 esp, 72			; 00000048H

; 1061 : #endif
; 1062 : 
; 1063 : 	PyModule_AddIntConstant(poModule, "ITEM_APPLY_MAX_NUM", CItemData::ITEM_APPLY_MAX_NUM);

  008f4	6a 03		 push	 3
  008f6	68 00 00 00 00	 push	 OFFSET ??_C@_0BD@POBJPMPE@ITEM_APPLY_MAX_NUM@
  008fb	57		 push	 edi
  008fc	ff d6		 call	 esi

; 1064 : 	PyModule_AddIntConstant(poModule, "ITEM_SOCKET_MAX_NUM", CItemData::ITEM_SOCKET_MAX_NUM);

  008fe	6a 03		 push	 3
  00900	68 00 00 00 00	 push	 OFFSET ??_C@_0BE@PABFDMOM@ITEM_SOCKET_MAX_NUM@
  00905	57		 push	 edi
  00906	ff d6		 call	 esi

; 1065 : 
; 1066 : 	PyModule_AddIntConstant(poModule, "APPLY_NONE", CItemData::APPLY_NONE);

  00908	6a 00		 push	 0
  0090a	68 00 00 00 00	 push	 OFFSET ??_C@_0L@KOOBDLCP@APPLY_NONE@
  0090f	57		 push	 edi
  00910	ff d6		 call	 esi

; 1067 : 	PyModule_AddIntConstant(poModule, "APPLY_STR", CItemData::APPLY_STR);

  00912	6a 05		 push	 5
  00914	68 00 00 00 00	 push	 OFFSET ??_C@_09GCJAEOHJ@APPLY_STR@
  00919	57		 push	 edi
  0091a	ff d6		 call	 esi

; 1068 : 	PyModule_AddIntConstant(poModule, "APPLY_DEX", CItemData::APPLY_DEX);

  0091c	6a 06		 push	 6
  0091e	68 00 00 00 00	 push	 OFFSET ??_C@_09EIFFAAJC@APPLY_DEX@
  00923	57		 push	 edi
  00924	ff d6		 call	 esi

; 1069 : 	PyModule_AddIntConstant(poModule, "APPLY_CON", CItemData::APPLY_CON);

  00926	6a 03		 push	 3
  00928	68 00 00 00 00	 push	 OFFSET ??_C@_09MEINAICK@APPLY_CON@
  0092d	57		 push	 edi
  0092e	ff d6		 call	 esi
  00930	83 c4 48	 add	 esp, 72			; 00000048H

; 1070 : 	PyModule_AddIntConstant(poModule, "APPLY_INT", CItemData::APPLY_INT);

  00933	6a 04		 push	 4
  00935	68 00 00 00 00	 push	 OFFSET ??_C@_09BKNPHIKC@APPLY_INT@
  0093a	57		 push	 edi
  0093b	ff d6		 call	 esi

; 1071 : 	PyModule_AddIntConstant(poModule, "APPLY_MAX_HP", CItemData::APPLY_MAX_HP);

  0093d	6a 01		 push	 1
  0093f	68 00 00 00 00	 push	 OFFSET ??_C@_0N@LMMDFALA@APPLY_MAX_HP@
  00944	57		 push	 edi
  00945	ff d6		 call	 esi

; 1072 : 	PyModule_AddIntConstant(poModule, "APPLY_MAX_SP", CItemData::APPLY_MAX_SP);

  00947	6a 02		 push	 2
  00949	68 00 00 00 00	 push	 OFFSET ??_C@_0N@KMLABMCB@APPLY_MAX_SP@
  0094e	57		 push	 edi
  0094f	ff d6		 call	 esi

; 1073 : 	PyModule_AddIntConstant(poModule, "APPLY_HP_REGEN", CItemData::APPLY_HP_REGEN);

  00951	6a 0a		 push	 10			; 0000000aH
  00953	68 00 00 00 00	 push	 OFFSET ??_C@_0P@CBOEJMBC@APPLY_HP_REGEN@
  00958	57		 push	 edi
  00959	ff d6		 call	 esi

; 1074 : 	PyModule_AddIntConstant(poModule, "APPLY_SP_REGEN", CItemData::APPLY_SP_REGEN);

  0095b	6a 0b		 push	 11			; 0000000bH
  0095d	68 00 00 00 00	 push	 OFFSET ??_C@_0P@PHBEALO@APPLY_SP_REGEN@
  00962	57		 push	 edi
  00963	ff d6		 call	 esi

; 1075 : 	PyModule_AddIntConstant(poModule, "APPLY_DEF_GRADE_BONUS", CItemData::APPLY_DEF_GRADE_BONUS);

  00965	6a 36		 push	 54			; 00000036H
  00967	68 00 00 00 00	 push	 OFFSET ??_C@_0BG@DJGIDNN@APPLY_DEF_GRADE_BONUS@
  0096c	57		 push	 edi
  0096d	ff d6		 call	 esi
  0096f	83 c4 48	 add	 esp, 72			; 00000048H

; 1076 : 	PyModule_AddIntConstant(poModule, "APPLY_ATT_GRADE_BONUS", CItemData::APPLY_ATT_GRADE_BONUS);

  00972	6a 35		 push	 53			; 00000035H
  00974	68 00 00 00 00	 push	 OFFSET ??_C@_0BG@DIKOCKN@APPLY_ATT_GRADE_BONUS@
  00979	57		 push	 edi
  0097a	ff d6		 call	 esi

; 1077 : 	PyModule_AddIntConstant(poModule, "APPLY_ATT_SPEED", CItemData::APPLY_ATT_SPEED);

  0097c	6a 07		 push	 7
  0097e	68 00 00 00 00	 push	 OFFSET ??_C@_0BA@PBNDFNHA@APPLY_ATT_SPEED@
  00983	57		 push	 edi
  00984	ff d6		 call	 esi

; 1078 : 	PyModule_AddIntConstant(poModule, "APPLY_MOV_SPEED", CItemData::APPLY_MOV_SPEED);

  00986	6a 08		 push	 8
  00988	68 00 00 00 00	 push	 OFFSET ??_C@_0BA@IHFPGGCP@APPLY_MOV_SPEED@
  0098d	57		 push	 edi
  0098e	ff d6		 call	 esi

; 1079 : 	PyModule_AddIntConstant(poModule, "APPLY_CAST_SPEED", CItemData::APPLY_CAST_SPEED);

  00990	6a 09		 push	 9
  00992	68 00 00 00 00	 push	 OFFSET ??_C@_0BB@IMPHMAIN@APPLY_CAST_SPEED@
  00997	57		 push	 edi
  00998	ff d6		 call	 esi

; 1080 : 	PyModule_AddIntConstant(poModule, "APPLY_MAGIC_ATT_GRADE", CItemData::APPLY_MAGIC_ATT_GRADE);

  0099a	6a 37		 push	 55			; 00000037H
  0099c	68 00 00 00 00	 push	 OFFSET ??_C@_0BG@JIJNNLOL@APPLY_MAGIC_ATT_GRADE@
  009a1	57		 push	 edi
  009a2	ff d6		 call	 esi

; 1081 : 	PyModule_AddIntConstant(poModule, "APPLY_MAGIC_DEF_GRADE", CItemData::APPLY_MAGIC_DEF_GRADE);

  009a4	6a 38		 push	 56			; 00000038H
  009a6	68 00 00 00 00	 push	 OFFSET ??_C@_0BG@PLJBHAML@APPLY_MAGIC_DEF_GRADE@
  009ab	57		 push	 edi
  009ac	ff d6		 call	 esi
  009ae	83 c4 48	 add	 esp, 72			; 00000048H

; 1082 : 	PyModule_AddIntConstant(poModule, "APPLY_SKILL", CItemData::APPLY_SKILL);

  009b1	6a 33		 push	 51			; 00000033H
  009b3	68 00 00 00 00	 push	 OFFSET ??_C@_0M@CPHNGINI@APPLY_SKILL@
  009b8	57		 push	 edi
  009b9	ff d6		 call	 esi

; 1083 : 	PyModule_AddIntConstant(poModule, "APPLY_ATTBONUS_ANIMAL", CItemData::APPLY_ATTBONUS_ANIMAL);

  009bb	6a 12		 push	 18			; 00000012H
  009bd	68 00 00 00 00	 push	 OFFSET ??_C@_0BG@FCHNFPKG@APPLY_ATTBONUS_ANIMAL@
  009c2	57		 push	 edi
  009c3	ff d6		 call	 esi

; 1084 : 	PyModule_AddIntConstant(poModule, "APPLY_ATTBONUS_UNDEAD", CItemData::APPLY_ATTBONUS_UNDEAD);

  009c5	6a 15		 push	 21			; 00000015H
  009c7	68 00 00 00 00	 push	 OFFSET ??_C@_0BG@DEBBIBCN@APPLY_ATTBONUS_UNDEAD@
  009cc	57		 push	 edi
  009cd	ff d6		 call	 esi

; 1085 : 	PyModule_AddIntConstant(poModule, "APPLY_ATTBONUS_DEVIL", CItemData::APPLY_ATTBONUS_DEVIL);

  009cf	6a 16		 push	 22			; 00000016H
  009d1	68 00 00 00 00	 push	 OFFSET ??_C@_0BF@PHBHKMPC@APPLY_ATTBONUS_DEVIL@
  009d6	57		 push	 edi
  009d7	ff d6		 call	 esi

; 1086 : 	PyModule_AddIntConstant(poModule, "APPLY_ATTBONUS_HUMAN", CItemData::APPLY_ATTBONUS_HUMAN);

  009d9	6a 11		 push	 17			; 00000011H
  009db	68 00 00 00 00	 push	 OFFSET ??_C@_0BF@FLAIBIKP@APPLY_ATTBONUS_HUMAN@
  009e0	57		 push	 edi
  009e1	ff d6		 call	 esi

; 1087 : 	PyModule_AddIntConstant(poModule, "APPLY_BOW_DISTANCE", CItemData::APPLY_BOW_DISTANCE);

  009e3	6a 34		 push	 52			; 00000034H
  009e5	68 00 00 00 00	 push	 OFFSET ??_C@_0BD@DGLENODO@APPLY_BOW_DISTANCE@
  009ea	57		 push	 edi
  009eb	ff d6		 call	 esi
  009ed	83 c4 48	 add	 esp, 72			; 00000048H

; 1088 : 	PyModule_AddIntConstant(poModule, "APPLY_RESIST_BOW", CItemData::APPLY_RESIST_BOW);

  009f0	6a 22		 push	 34			; 00000022H
  009f2	68 00 00 00 00	 push	 OFFSET ??_C@_0BB@KEIAGOOG@APPLY_RESIST_BOW@
  009f7	57		 push	 edi
  009f8	ff d6		 call	 esi

; 1089 : 	PyModule_AddIntConstant(poModule, "APPLY_RESIST_FIRE", CItemData::APPLY_RESIST_FIRE);

  009fa	6a 23		 push	 35			; 00000023H
  009fc	68 00 00 00 00	 push	 OFFSET ??_C@_0BC@BCODEHJE@APPLY_RESIST_FIRE@
  00a01	57		 push	 edi
  00a02	ff d6		 call	 esi

; 1090 : 	PyModule_AddIntConstant(poModule, "APPLY_RESIST_ELEC", CItemData::APPLY_RESIST_ELEC);

  00a04	6a 24		 push	 36			; 00000024H
  00a06	68 00 00 00 00	 push	 OFFSET ??_C@_0BC@CNKONPAF@APPLY_RESIST_ELEC@
  00a0b	57		 push	 edi
  00a0c	ff d6		 call	 esi

; 1091 : 	PyModule_AddIntConstant(poModule, "APPLY_RESIST_MAGIC", CItemData::APPLY_RESIST_MAGIC);

  00a0e	6a 25		 push	 37			; 00000025H
  00a10	68 00 00 00 00	 push	 OFFSET ??_C@_0BD@BIEOENBH@APPLY_RESIST_MAGIC@
  00a15	57		 push	 edi
  00a16	ff d6		 call	 esi

; 1092 : 	PyModule_AddIntConstant(poModule, "APPLY_POISON_PCT", CItemData::APPLY_POISON_PCT);

  00a18	6a 0c		 push	 12			; 0000000cH
  00a1a	68 00 00 00 00	 push	 OFFSET ??_C@_0BB@OFEPEABG@APPLY_POISON_PCT@
  00a1f	57		 push	 edi
  00a20	ff d6		 call	 esi

; 1093 : 	PyModule_AddIntConstant(poModule, "APPLY_SLOW_PCT", CItemData::APPLY_SLOW_PCT);

  00a22	6a 0e		 push	 14			; 0000000eH
  00a24	68 00 00 00 00	 push	 OFFSET ??_C@_0P@EAEIAPML@APPLY_SLOW_PCT@
  00a29	57		 push	 edi
  00a2a	ff d6		 call	 esi
  00a2c	83 c4 48	 add	 esp, 72			; 00000048H

; 1094 : 	PyModule_AddIntConstant(poModule, "APPLY_STUN_PCT", CItemData::APPLY_STUN_PCT);

  00a2f	6a 0d		 push	 13			; 0000000dH
  00a31	68 00 00 00 00	 push	 OFFSET ??_C@_0P@IGBLFIG@APPLY_STUN_PCT@
  00a36	57		 push	 edi
  00a37	ff d6		 call	 esi

; 1095 : 	PyModule_AddIntConstant(poModule, "APPLY_CRITICAL_PCT", CItemData::APPLY_CRITICAL_PCT);

  00a39	6a 0f		 push	 15			; 0000000fH
  00a3b	68 00 00 00 00	 push	 OFFSET ??_C@_0BD@DOHBCDEC@APPLY_CRITICAL_PCT@
  00a40	57		 push	 edi
  00a41	ff d6		 call	 esi

; 1096 : 	PyModule_AddIntConstant(poModule, "APPLY_PENETRATE_PCT", CItemData::APPLY_PENETRATE_PCT);

  00a43	6a 10		 push	 16			; 00000010H
  00a45	68 00 00 00 00	 push	 OFFSET ??_C@_0BE@MIHOPHBF@APPLY_PENETRATE_PCT@
  00a4a	57		 push	 edi
  00a4b	ff d6		 call	 esi

; 1097 : 	PyModule_AddIntConstant(poModule, "APPLY_ATTBONUS_ORC", CItemData::APPLY_ATTBONUS_ORC);

  00a4d	6a 13		 push	 19			; 00000013H
  00a4f	68 00 00 00 00	 push	 OFFSET ??_C@_0BD@GHNBCFFK@APPLY_ATTBONUS_ORC@
  00a54	57		 push	 edi
  00a55	ff d6		 call	 esi

; 1098 : 	PyModule_AddIntConstant(poModule, "APPLY_ATTBONUS_MILGYO", CItemData::APPLY_ATTBONUS_MILGYO);

  00a57	6a 14		 push	 20			; 00000014H
  00a59	68 00 00 00 00	 push	 OFFSET ??_C@_0BG@BGJNMLHF@APPLY_ATTBONUS_MILGYO@
  00a5e	57		 push	 edi
  00a5f	ff d6		 call	 esi

; 1099 : 	PyModule_AddIntConstant(poModule, "APPLY_ATTBONUS_UNDEAD", CItemData::APPLY_ATTBONUS_UNDEAD);

  00a61	6a 15		 push	 21			; 00000015H
  00a63	68 00 00 00 00	 push	 OFFSET ??_C@_0BG@DEBBIBCN@APPLY_ATTBONUS_UNDEAD@
  00a68	57		 push	 edi
  00a69	ff d6		 call	 esi
  00a6b	83 c4 48	 add	 esp, 72			; 00000048H

; 1100 : 	PyModule_AddIntConstant(poModule, "APPLY_ATTBONUS_DEVIL", CItemData::APPLY_ATTBONUS_DEVIL);

  00a6e	6a 16		 push	 22			; 00000016H
  00a70	68 00 00 00 00	 push	 OFFSET ??_C@_0BF@PHBHKMPC@APPLY_ATTBONUS_DEVIL@
  00a75	57		 push	 edi
  00a76	ff d6		 call	 esi

; 1101 : 	PyModule_AddIntConstant(poModule, "APPLY_STEAL_HP", CItemData::APPLY_STEAL_HP);

  00a78	6a 17		 push	 23			; 00000017H
  00a7a	68 00 00 00 00	 push	 OFFSET ??_C@_0P@IJPDEMHM@APPLY_STEAL_HP@
  00a7f	57		 push	 edi
  00a80	ff d6		 call	 esi

; 1102 : 	PyModule_AddIntConstant(poModule, "APPLY_STEAL_SP", CItemData::APPLY_STEAL_SP);

  00a82	6a 18		 push	 24			; 00000018H
  00a84	68 00 00 00 00	 push	 OFFSET ??_C@_0P@JJIAAAON@APPLY_STEAL_SP@
  00a89	57		 push	 edi
  00a8a	ff d6		 call	 esi

; 1103 : 	PyModule_AddIntConstant(poModule, "APPLY_MANA_BURN_PCT", CItemData::APPLY_MANA_BURN_PCT);

  00a8c	6a 19		 push	 25			; 00000019H
  00a8e	68 00 00 00 00	 push	 OFFSET ??_C@_0BE@MMJAOBJI@APPLY_MANA_BURN_PCT@
  00a93	57		 push	 edi
  00a94	ff d6		 call	 esi

; 1104 : 	PyModule_AddIntConstant(poModule, "APPLY_DAMAGE_SP_RECOVER", CItemData::APPLY_DAMAGE_SP_RECOVER);

  00a96	6a 1a		 push	 26			; 0000001aH
  00a98	68 00 00 00 00	 push	 OFFSET ??_C@_0BI@CNPFJGMF@APPLY_DAMAGE_SP_RECOVER@
  00a9d	57		 push	 edi
  00a9e	ff d6		 call	 esi

; 1105 : 	PyModule_AddIntConstant(poModule, "APPLY_BLOCK", CItemData::APPLY_BLOCK);

  00aa0	6a 1b		 push	 27			; 0000001bH
  00aa2	68 00 00 00 00	 push	 OFFSET ??_C@_0M@DEKBOLNA@APPLY_BLOCK@
  00aa7	57		 push	 edi
  00aa8	ff d6		 call	 esi
  00aaa	83 c4 48	 add	 esp, 72			; 00000048H

; 1106 : 	PyModule_AddIntConstant(poModule, "APPLY_DODGE", CItemData::APPLY_DODGE);

  00aad	6a 1c		 push	 28			; 0000001cH
  00aaf	68 00 00 00 00	 push	 OFFSET ??_C@_0M@OLNDHAEO@APPLY_DODGE@
  00ab4	57		 push	 edi
  00ab5	ff d6		 call	 esi

; 1107 : 	PyModule_AddIntConstant(poModule, "APPLY_RESIST_SWORD", CItemData::APPLY_RESIST_SWORD);

  00ab7	6a 1d		 push	 29			; 0000001dH
  00ab9	68 00 00 00 00	 push	 OFFSET ??_C@_0BD@FELELOGH@APPLY_RESIST_SWORD@
  00abe	57		 push	 edi
  00abf	ff d6		 call	 esi

; 1108 : 	PyModule_AddIntConstant(poModule, "APPLY_RESIST_TWOHAND", CItemData::APPLY_RESIST_TWOHAND);

  00ac1	6a 1e		 push	 30			; 0000001eH
  00ac3	68 00 00 00 00	 push	 OFFSET ??_C@_0BF@PPDPGLJM@APPLY_RESIST_TWOHAND@
  00ac8	57		 push	 edi
  00ac9	ff d6		 call	 esi

; 1109 : 	PyModule_AddIntConstant(poModule, "APPLY_RESIST_DAGGER", CItemData::APPLY_RESIST_DAGGER);

  00acb	6a 1f		 push	 31			; 0000001fH
  00acd	68 00 00 00 00	 push	 OFFSET ??_C@_0BE@HKIMLKAO@APPLY_RESIST_DAGGER@
  00ad2	57		 push	 edi
  00ad3	ff d6		 call	 esi

; 1110 : 	PyModule_AddIntConstant(poModule, "APPLY_RESIST_BELL", CItemData::APPLY_RESIST_BELL);

  00ad5	6a 20		 push	 32			; 00000020H
  00ad7	68 00 00 00 00	 push	 OFFSET ??_C@_0BC@GKMPGLNP@APPLY_RESIST_BELL@
  00adc	57		 push	 edi
  00add	ff d6		 call	 esi

; 1111 : 	PyModule_AddIntConstant(poModule, "APPLY_RESIST_FAN", CItemData::APPLY_RESIST_FAN);

  00adf	6a 21		 push	 33			; 00000021H
  00ae1	68 00 00 00 00	 push	 OFFSET ??_C@_0BB@LKHMHNKD@APPLY_RESIST_FAN@
  00ae6	57		 push	 edi
  00ae7	ff d6		 call	 esi
  00ae9	83 c4 48	 add	 esp, 72			; 00000048H

; 1112 : 	PyModule_AddIntConstant(poModule, "APPLY_RESIST_WIND", CItemData::APPLY_RESIST_WIND);

  00aec	6a 26		 push	 38			; 00000026H
  00aee	68 00 00 00 00	 push	 OFFSET ??_C@_0BC@EDEEJCPD@APPLY_RESIST_WIND@
  00af3	57		 push	 edi
  00af4	ff d6		 call	 esi

; 1113 : 	PyModule_AddIntConstant(poModule, "APPLY_REFLECT_MELEE", CItemData::APPLY_REFLECT_MELEE);

  00af6	6a 27		 push	 39			; 00000027H
  00af8	68 00 00 00 00	 push	 OFFSET ??_C@_0BE@JKECBGFJ@APPLY_REFLECT_MELEE@
  00afd	57		 push	 edi
  00afe	ff d6		 call	 esi

; 1114 : 	PyModule_AddIntConstant(poModule, "APPLY_REFLECT_CURSE", CItemData::APPLY_REFLECT_CURSE);

  00b00	6a 28		 push	 40			; 00000028H
  00b02	68 00 00 00 00	 push	 OFFSET ??_C@_0BE@GIMFBPMF@APPLY_REFLECT_CURSE@
  00b07	57		 push	 edi
  00b08	ff d6		 call	 esi

; 1115 : 	PyModule_AddIntConstant(poModule, "APPLY_POISON_REDUCE", CItemData::APPLY_POISON_REDUCE);

  00b0a	6a 29		 push	 41			; 00000029H
  00b0c	68 00 00 00 00	 push	 OFFSET ??_C@_0BE@CMJGNONM@APPLY_POISON_REDUCE@
  00b11	57		 push	 edi
  00b12	ff d6		 call	 esi

; 1116 : 	PyModule_AddIntConstant(poModule, "APPLY_KILL_SP_RECOVER", CItemData::APPLY_KILL_SP_RECOVER);

  00b14	6a 2a		 push	 42			; 0000002aH
  00b16	68 00 00 00 00	 push	 OFFSET ??_C@_0BG@NAAMOKGC@APPLY_KILL_SP_RECOVER@
  00b1b	57		 push	 edi
  00b1c	ff d6		 call	 esi

; 1117 : 	PyModule_AddIntConstant(poModule, "APPLY_EXP_DOUBLE_BONUS", CItemData::APPLY_EXP_DOUBLE_BONUS);

  00b1e	6a 2b		 push	 43			; 0000002bH
  00b20	68 00 00 00 00	 push	 OFFSET ??_C@_0BH@BOFCHNGC@APPLY_EXP_DOUBLE_BONUS@
  00b25	57		 push	 edi
  00b26	ff d6		 call	 esi
  00b28	83 c4 48	 add	 esp, 72			; 00000048H

; 1118 : 	PyModule_AddIntConstant(poModule, "APPLY_GOLD_DOUBLE_BONUS", CItemData::APPLY_GOLD_DOUBLE_BONUS);

  00b2b	6a 2c		 push	 44			; 0000002cH
  00b2d	68 00 00 00 00	 push	 OFFSET ??_C@_0BI@CPGCKKHM@APPLY_GOLD_DOUBLE_BONUS@
  00b32	57		 push	 edi
  00b33	ff d6		 call	 esi

; 1119 : 	PyModule_AddIntConstant(poModule, "APPLY_ITEM_DROP_BONUS", CItemData::APPLY_ITEM_DROP_BONUS);

  00b35	6a 2d		 push	 45			; 0000002dH
  00b37	68 00 00 00 00	 push	 OFFSET ??_C@_0BG@GJLPLNJK@APPLY_ITEM_DROP_BONUS@
  00b3c	57		 push	 edi
  00b3d	ff d6		 call	 esi

; 1120 : 	PyModule_AddIntConstant(poModule, "APPLY_POTION_BONUS", CItemData::APPLY_POTION_BONUS);

  00b3f	6a 2e		 push	 46			; 0000002eH
  00b41	68 00 00 00 00	 push	 OFFSET ??_C@_0BD@HAABJCED@APPLY_POTION_BONUS@
  00b46	57		 push	 edi
  00b47	ff d6		 call	 esi

; 1121 : 	PyModule_AddIntConstant(poModule, "APPLY_KILL_HP_RECOVER", CItemData::APPLY_KILL_HP_RECOVER);

  00b49	6a 2f		 push	 47			; 0000002fH
  00b4b	68 00 00 00 00	 push	 OFFSET ??_C@_0BG@FNNLKJON@APPLY_KILL_HP_RECOVER@
  00b50	57		 push	 edi
  00b51	ff d6		 call	 esi

; 1122 : 	PyModule_AddIntConstant(poModule, "APPLY_IMMUNE_STUN", CItemData::APPLY_IMMUNE_STUN);

  00b53	6a 30		 push	 48			; 00000030H
  00b55	68 00 00 00 00	 push	 OFFSET ??_C@_0BC@GMOGAEGD@APPLY_IMMUNE_STUN@
  00b5a	57		 push	 edi
  00b5b	ff d6		 call	 esi

; 1123 : 	PyModule_AddIntConstant(poModule, "APPLY_IMMUNE_SLOW", CItemData::APPLY_IMMUNE_SLOW);

  00b5d	6a 31		 push	 49			; 00000031H
  00b5f	68 00 00 00 00	 push	 OFFSET ??_C@_0BC@HDPKPEKN@APPLY_IMMUNE_SLOW@
  00b64	57		 push	 edi
  00b65	ff d6		 call	 esi
  00b67	83 c4 48	 add	 esp, 72			; 00000048H

; 1124 : 	PyModule_AddIntConstant(poModule, "APPLY_IMMUNE_FALL", CItemData::APPLY_IMMUNE_FALL);

  00b6a	6a 32		 push	 50			; 00000032H
  00b6c	68 00 00 00 00	 push	 OFFSET ??_C@_0BC@ICOAEBEB@APPLY_IMMUNE_FALL@
  00b71	57		 push	 edi
  00b72	ff d6		 call	 esi

; 1125 : 	PyModule_AddIntConstant(poModule, "APPLY_MAX_STAMINA", CItemData::APPLY_MAX_STAMINA);

  00b74	6a 3a		 push	 58			; 0000003aH
  00b76	68 00 00 00 00	 push	 OFFSET ??_C@_0BC@MENAELHN@APPLY_MAX_STAMINA@
  00b7b	57		 push	 edi
  00b7c	ff d6		 call	 esi

; 1126 : 	PyModule_AddIntConstant(poModule, "APPLY_ATTBONUS_WARRIOR", CItemData::APPLY_ATT_BONUS_TO_WARRIOR);

  00b7e	6a 3b		 push	 59			; 0000003bH
  00b80	68 00 00 00 00	 push	 OFFSET ??_C@_0BH@LHKFGIKM@APPLY_ATTBONUS_WARRIOR@
  00b85	57		 push	 edi
  00b86	ff d6		 call	 esi

; 1127 : 	PyModule_AddIntConstant(poModule, "APPLY_ATTBONUS_ASSASSIN", CItemData::APPLY_ATT_BONUS_TO_ASSASSIN);

  00b88	6a 3c		 push	 60			; 0000003cH
  00b8a	68 00 00 00 00	 push	 OFFSET ??_C@_0BI@FDLAHFJJ@APPLY_ATTBONUS_ASSASSIN@
  00b8f	57		 push	 edi
  00b90	ff d6		 call	 esi

; 1128 : 	PyModule_AddIntConstant(poModule, "APPLY_ATTBONUS_SURA", CItemData::APPLY_ATT_BONUS_TO_SURA);

  00b92	6a 3d		 push	 61			; 0000003dH
  00b94	68 00 00 00 00	 push	 OFFSET ??_C@_0BE@EHJIJMPG@APPLY_ATTBONUS_SURA@
  00b99	57		 push	 edi
  00b9a	ff d6		 call	 esi

; 1129 : 	PyModule_AddIntConstant(poModule, "APPLY_ATTBONUS_SHAMAN", CItemData::APPLY_ATT_BONUS_TO_SHAMAN);

  00b9c	6a 3e		 push	 62			; 0000003eH
  00b9e	68 00 00 00 00	 push	 OFFSET ??_C@_0BG@HGCDBIBP@APPLY_ATTBONUS_SHAMAN@
  00ba3	57		 push	 edi
  00ba4	ff d6		 call	 esi
  00ba6	83 c4 48	 add	 esp, 72			; 00000048H

; 1130 : 	PyModule_AddIntConstant(poModule, "APPLY_ATTBONUS_MONSTER", CItemData::APPLY_ATT_BONUS_TO_MONSTER);

  00ba9	6a 3f		 push	 63			; 0000003fH
  00bab	68 00 00 00 00	 push	 OFFSET ??_C@_0BH@OMHBNPNG@APPLY_ATTBONUS_MONSTER@
  00bb0	57		 push	 edi
  00bb1	ff d6		 call	 esi

; 1131 : 	PyModule_AddIntConstant(poModule, "APPLY_MALL_ATTBONUS", CItemData::APPLY_MALL_ATTBONUS);

  00bb3	6a 40		 push	 64			; 00000040H
  00bb5	68 00 00 00 00	 push	 OFFSET ??_C@_0BE@INMGAFDB@APPLY_MALL_ATTBONUS@
  00bba	57		 push	 edi
  00bbb	ff d6		 call	 esi

; 1132 : 	PyModule_AddIntConstant(poModule, "APPLY_MALL_DEFBONUS", CItemData::APPLY_MALL_DEFBONUS);

  00bbd	6a 41		 push	 65			; 00000041H
  00bbf	68 00 00 00 00	 push	 OFFSET ??_C@_0BE@IHABPMCM@APPLY_MALL_DEFBONUS@
  00bc4	57		 push	 edi
  00bc5	ff d6		 call	 esi

; 1133 : 	PyModule_AddIntConstant(poModule, "APPLY_MALL_EXPBONUS", CItemData::APPLY_MALL_EXPBONUS);

  00bc7	6a 42		 push	 66			; 00000042H
  00bc9	68 00 00 00 00	 push	 OFFSET ??_C@_0BE@HDMKGFGB@APPLY_MALL_EXPBONUS@
  00bce	57		 push	 edi
  00bcf	ff d6		 call	 esi

; 1134 : 	PyModule_AddIntConstant(poModule, "APPLY_MALL_ITEMBONUS", CItemData::APPLY_MALL_ITEMBONUS);

  00bd1	6a 43		 push	 67			; 00000043H
  00bd3	68 00 00 00 00	 push	 OFFSET ??_C@_0BF@JHCAFPEC@APPLY_MALL_ITEMBONUS@
  00bd8	57		 push	 edi
  00bd9	ff d6		 call	 esi

; 1135 : 	PyModule_AddIntConstant(poModule, "APPLY_MALL_GOLDBONUS", CItemData::APPLY_MALL_GOLDBONUS);

  00bdb	6a 44		 push	 68			; 00000044H
  00bdd	68 00 00 00 00	 push	 OFFSET ??_C@_0BF@CNKLONKF@APPLY_MALL_GOLDBONUS@
  00be2	57		 push	 edi
  00be3	ff d6		 call	 esi
  00be5	83 c4 48	 add	 esp, 72			; 00000048H

; 1136 : 	PyModule_AddIntConstant(poModule, "APPLY_MAX_HP_PCT", CItemData::APPLY_MAX_HP_PCT);

  00be8	6a 45		 push	 69			; 00000045H
  00bea	68 00 00 00 00	 push	 OFFSET ??_C@_0BB@IOILOHHB@APPLY_MAX_HP_PCT@
  00bef	57		 push	 edi
  00bf0	ff d6		 call	 esi

; 1137 : 	PyModule_AddIntConstant(poModule, "APPLY_MAX_SP_PCT", CItemData::APPLY_MAX_SP_PCT);

  00bf2	6a 46		 push	 70			; 00000046H
  00bf4	68 00 00 00 00	 push	 OFFSET ??_C@_0BB@OLFCCPEF@APPLY_MAX_SP_PCT@
  00bf9	57		 push	 edi
  00bfa	ff d6		 call	 esi

; 1138 : 	PyModule_AddIntConstant(poModule, "APPLY_SKILL_DAMAGE_BONUS", CItemData::APPLY_SKILL_DAMAGE_BONUS);

  00bfc	6a 47		 push	 71			; 00000047H
  00bfe	68 00 00 00 00	 push	 OFFSET ??_C@_0BJ@ILJOEJMP@APPLY_SKILL_DAMAGE_BONUS@
  00c03	57		 push	 edi
  00c04	ff d6		 call	 esi

; 1139 : 	PyModule_AddIntConstant(poModule, "APPLY_NORMAL_HIT_DAMAGE_BONUS", CItemData::APPLY_NORMAL_HIT_DAMAGE_BONUS);

  00c06	6a 48		 push	 72			; 00000048H
  00c08	68 00 00 00 00	 push	 OFFSET ??_C@_0BO@KJDLNPKH@APPLY_NORMAL_HIT_DAMAGE_BONUS@
  00c0d	57		 push	 edi
  00c0e	ff d6		 call	 esi

; 1140 : 	PyModule_AddIntConstant(poModule, "APPLY_SKILL_DEFEND_BONUS", CItemData::APPLY_SKILL_DEFEND_BONUS);

  00c10	6a 49		 push	 73			; 00000049H
  00c12	68 00 00 00 00	 push	 OFFSET ??_C@_0BJ@MCFLODEL@APPLY_SKILL_DEFEND_BONUS@
  00c17	57		 push	 edi
  00c18	ff d6		 call	 esi

; 1141 : 	PyModule_AddIntConstant(poModule, "APPLY_NORMAL_HIT_DEFEND_BONUS", CItemData::APPLY_NORMAL_HIT_DEFEND_BONUS);

  00c1a	6a 4a		 push	 74			; 0000004aH
  00c1c	68 00 00 00 00	 push	 OFFSET ??_C@_0BO@OAPOHFCD@APPLY_NORMAL_HIT_DEFEND_BONUS@
  00c21	57		 push	 edi
  00c22	ff d6		 call	 esi
  00c24	83 c4 48	 add	 esp, 72			; 00000048H

; 1142 : 
; 1143 : 	PyModule_AddIntConstant(poModule, "APPLY_RESIST_WARRIOR", CItemData::APPLY_RESIST_WARRIOR);

  00c27	6a 4c		 push	 76			; 0000004cH
  00c29	68 00 00 00 00	 push	 OFFSET ??_C@_0BF@DIEIKMOC@APPLY_RESIST_WARRIOR@
  00c2e	57		 push	 edi
  00c2f	ff d6		 call	 esi

; 1144 : 	PyModule_AddIntConstant(poModule, "APPLY_RESIST_ASSASSIN", CItemData::APPLY_RESIST_ASSASSIN);

  00c31	6a 4d		 push	 77			; 0000004dH
  00c33	68 00 00 00 00	 push	 OFFSET ??_C@_0BG@MCFLPEMK@APPLY_RESIST_ASSASSIN@
  00c38	57		 push	 edi
  00c39	ff d6		 call	 esi

; 1145 : 	PyModule_AddIntConstant(poModule, "APPLY_RESIST_SURA", CItemData::APPLY_RESIST_SURA);

  00c3b	6a 4e		 push	 78			; 0000004eH
  00c3d	68 00 00 00 00	 push	 OFFSET ??_C@_0BC@MEEAHCEF@APPLY_RESIST_SURA@
  00c42	57		 push	 edi
  00c43	ff d6		 call	 esi

; 1146 : 	PyModule_AddIntConstant(poModule, "APPLY_RESIST_SHAMAN", CItemData::APPLY_RESIST_SHAMAN);

  00c45	6a 4f		 push	 79			; 0000004fH
  00c47	68 00 00 00 00	 push	 OFFSET ??_C@_0BE@POHJKJMD@APPLY_RESIST_SHAMAN@
  00c4c	57		 push	 edi
  00c4d	ff d6		 call	 esi

; 1147 : 	PyModule_AddIntConstant(poModule, "APPLY_ENERGY", CItemData::APPLY_ENERGY);

  00c4f	6a 50		 push	 80			; 00000050H
  00c51	68 00 00 00 00	 push	 OFFSET ??_C@_0N@MOPONLJI@APPLY_ENERGY@
  00c56	57		 push	 edi
  00c57	ff d6		 call	 esi

; 1148 : 	PyModule_AddIntConstant(poModule, "APPLY_COSTUME_ATTR_BONUS", CItemData::APPLY_COSTUME_ATTR_BONUS);

  00c59	6a 52		 push	 82			; 00000052H
  00c5b	68 00 00 00 00	 push	 OFFSET ??_C@_0BJ@IGOAELFN@APPLY_COSTUME_ATTR_BONUS@
  00c60	57		 push	 edi
  00c61	ff d6		 call	 esi
  00c63	83 c4 48	 add	 esp, 72			; 00000048H

; 1149 : 
; 1150 : 	PyModule_AddIntConstant(poModule, "APPLY_MAGIC_ATTBONUS_PER", CItemData::APPLY_MAGIC_ATTBONUS_PER);

  00c66	6a 53		 push	 83			; 00000053H
  00c68	68 00 00 00 00	 push	 OFFSET ??_C@_0BJ@JJJKDKFC@APPLY_MAGIC_ATTBONUS_PER@
  00c6d	57		 push	 edi
  00c6e	ff d6		 call	 esi

; 1151 : 	PyModule_AddIntConstant(poModule, "APPLY_MELEE_MAGIC_ATTBONUS_PER", CItemData::APPLY_MELEE_MAGIC_ATTBONUS_PER);

  00c70	6a 54		 push	 84			; 00000054H
  00c72	68 00 00 00 00	 push	 OFFSET ??_C@_0BP@MGKGKJGA@APPLY_MELEE_MAGIC_ATTBONUS_PER@
  00c77	57		 push	 edi
  00c78	ff d6		 call	 esi

; 1152 : 	PyModule_AddIntConstant(poModule, "APPLY_RESIST_ICE", CItemData::APPLY_RESIST_ICE);

  00c7a	6a 55		 push	 85			; 00000055H
  00c7c	68 00 00 00 00	 push	 OFFSET ??_C@_0BB@CGPGAFA@APPLY_RESIST_ICE@
  00c81	57		 push	 edi
  00c82	ff d6		 call	 esi

; 1153 : 	PyModule_AddIntConstant(poModule, "APPLY_RESIST_EARTH", CItemData::APPLY_RESIST_EARTH);

  00c84	6a 56		 push	 86			; 00000056H
  00c86	68 00 00 00 00	 push	 OFFSET ??_C@_0BD@GENAIBDP@APPLY_RESIST_EARTH@
  00c8b	57		 push	 edi
  00c8c	ff d6		 call	 esi

; 1154 : 	PyModule_AddIntConstant(poModule, "APPLY_RESIST_DARK", CItemData::APPLY_RESIST_DARK);

  00c8e	6a 57		 push	 87			; 00000057H
  00c90	68 00 00 00 00	 push	 OFFSET ??_C@_0BC@DDBEBBJF@APPLY_RESIST_DARK@
  00c95	57		 push	 edi
  00c96	ff d6		 call	 esi

; 1155 : 	PyModule_AddIntConstant(poModule, "APPLY_ANTI_CRITICAL_PCT", CItemData::APPLY_ANTI_CRITICAL_PCT);

  00c98	6a 58		 push	 88			; 00000058H
  00c9a	68 00 00 00 00	 push	 OFFSET ??_C@_0BI@KIMFHHIO@APPLY_ANTI_CRITICAL_PCT@
  00c9f	57		 push	 edi
  00ca0	ff d6		 call	 esi
  00ca2	83 c4 48	 add	 esp, 72			; 00000048H

; 1156 : 	PyModule_AddIntConstant(poModule, "APPLY_ANTI_PENETRATE_PCT", CItemData::APPLY_ANTI_PENETRATE_PCT);

  00ca5	6a 59		 push	 89			; 00000059H
  00ca7	68 00 00 00 00	 push	 OFFSET ??_C@_0BJ@FKDKMNNK@APPLY_ANTI_PENETRATE_PCT@
  00cac	57		 push	 edi
  00cad	ff d6		 call	 esi

; 1157 : 
; 1158 : #ifdef ENABLE_PENDANT_SYSTEM
; 1159 : 	PyModule_AddIntConstant(poModule, "APPLY_ATTBONUS_ELEC", CItemData::APPLY_ATTBONUS_ELEC);

  00caf	6a 5a		 push	 90			; 0000005aH
  00cb1	68 00 00 00 00	 push	 OFFSET ??_C@_0BE@KOHGDBLG@APPLY_ATTBONUS_ELEC@
  00cb6	57		 push	 edi
  00cb7	ff d6		 call	 esi

; 1160 : 	PyModule_AddIntConstant(poModule, "APPLY_ATTBONUS_FIRE", CItemData::APPLY_ATTBONUS_FIRE);

  00cb9	6a 5b		 push	 91			; 0000005bH
  00cbb	68 00 00 00 00	 push	 OFFSET ??_C@_0BE@JBDLKJCH@APPLY_ATTBONUS_FIRE@
  00cc0	57		 push	 edi
  00cc1	ff d6		 call	 esi

; 1161 : 	PyModule_AddIntConstant(poModule, "APPLY_ATTBONUS_ICE", CItemData::APPLY_ATTBONUS_ICE);

  00cc3	6a 5c		 push	 92			; 0000005cH
  00cc5	68 00 00 00 00	 push	 OFFSET ??_C@_0BD@JAEBEEH@APPLY_ATTBONUS_ICE@
  00cca	57		 push	 edi
  00ccb	ff d6		 call	 esi

; 1162 : 	PyModule_AddIntConstant(poModule, "APPLY_ATTBONUS_WIND", CItemData::APPLY_ATTBONUS_WIND);

  00ccd	6a 5d		 push	 93			; 0000005dH
  00ccf	68 00 00 00 00	 push	 OFFSET ??_C@_0BE@MAJMHMEA@APPLY_ATTBONUS_WIND@
  00cd4	57		 push	 edi
  00cd5	ff d6		 call	 esi

; 1163 : 	PyModule_AddIntConstant(poModule, "APPLY_ATTBONUS_EARTH", CItemData::APPLY_ATTBONUS_EARTH);

  00cd7	6a 5e		 push	 94			; 0000005eH
  00cd9	68 00 00 00 00	 push	 OFFSET ??_C@_0BF@DGDLLLOH@APPLY_ATTBONUS_EARTH@
  00cde	57		 push	 edi
  00cdf	ff d6		 call	 esi
  00ce1	83 c4 48	 add	 esp, 72			; 00000048H

; 1164 : 	PyModule_AddIntConstant(poModule, "APPLY_ATTBONUS_DARK", CItemData::APPLY_ATTBONUS_DARK);

  00ce4	6a 5f		 push	 95			; 0000005fH
  00ce6	68 00 00 00 00	 push	 OFFSET ??_C@_0BE@LAMMPPCG@APPLY_ATTBONUS_DARK@
  00ceb	57		 push	 edi
  00cec	ff d6		 call	 esi

; 1165 : #endif
; 1166 : 
; 1167 : #ifdef ENABLE_ACCE_COSTUME_SYSTEM
; 1168 : 	PyModule_AddIntConstant(poModule, "APPLY_ACCEDRAIN_RATE", CItemData::APPLY_ACCEDRAIN_RATE);

  00cee	6a 60		 push	 96			; 00000060H
  00cf0	68 00 00 00 00	 push	 OFFSET ??_C@_0BF@DJOKGBBD@APPLY_ACCEDRAIN_RATE@
  00cf5	57		 push	 edi
  00cf6	ff d6		 call	 esi

; 1169 : #endif
; 1170 : 
; 1171 : #ifdef ENABLE_ATTBONUS_METIN
; 1172 : 	PyModule_AddIntConstant(poModule, "APPLY_ATTBONUS_METIN", CItemData::APPLY_ATTBONUS_METIN);

  00cf8	6a 61		 push	 97			; 00000061H
  00cfa	68 00 00 00 00	 push	 OFFSET ??_C@_0BF@EICHFHDD@APPLY_ATTBONUS_METIN@
  00cff	57		 push	 edi
  00d00	ff d6		 call	 esi

; 1173 : #endif
; 1174 : 
; 1175 : #ifdef ENABLE_ATTBONUS_BOSS
; 1176 : 	PyModule_AddIntConstant(poModule, "APPLY_ATTBONUS_BOSS", CItemData::APPLY_ATTBONUS_BOSS);

  00d02	6a 62		 push	 98			; 00000062H
  00d04	68 00 00 00 00	 push	 OFFSET ??_C@_0BE@FMIKIPNL@APPLY_ATTBONUS_BOSS@
  00d09	57		 push	 edi
  00d0a	ff d6		 call	 esi

; 1177 : #endif
; 1178 : 
; 1179 : #ifdef ENABLE_AURA_COSTUME_SYSTEM
; 1180 : 	PyModule_AddIntConstant(poModule, "RESOURCE_AURA", CItemData::RESOURCE_AURA);

  00d0c	6a 0c		 push	 12			; 0000000cH
  00d0e	68 00 00 00 00	 push	 OFFSET ??_C@_0O@BGKMMFJI@RESOURCE_AURA@
  00d13	57		 push	 edi
  00d14	ff d6		 call	 esi

; 1181 : 
; 1182 : 	PyModule_AddIntConstant(poModule, "AURA_GRADE_NONE", CItemData::AURA_GRADE_NONE);

  00d16	6a 00		 push	 0
  00d18	68 00 00 00 00	 push	 OFFSET ??_C@_0BA@NICENPGE@AURA_GRADE_NONE@
  00d1d	57		 push	 edi
  00d1e	ff d6		 call	 esi
  00d20	83 c4 48	 add	 esp, 72			; 00000048H

; 1183 : 	PyModule_AddIntConstant(poModule, "AURA_GRADE_ORDINARY", CItemData::AURA_GRADE_ORDINARY);

  00d23	6a 01		 push	 1
  00d25	68 00 00 00 00	 push	 OFFSET ??_C@_0BE@KICMMDCG@AURA_GRADE_ORDINARY@
  00d2a	57		 push	 edi
  00d2b	ff d6		 call	 esi

; 1184 : 	PyModule_AddIntConstant(poModule, "AURA_GRADE_SIMPLE", CItemData::AURA_GRADE_SIMPLE);

  00d2d	6a 02		 push	 2
  00d2f	68 00 00 00 00	 push	 OFFSET ??_C@_0BC@BDEELFEI@AURA_GRADE_SIMPLE@
  00d34	57		 push	 edi
  00d35	ff d6		 call	 esi

; 1185 : 	PyModule_AddIntConstant(poModule, "AURA_GRADE_NOBLE", CItemData::AURA_GRADE_NOBLE);

  00d37	6a 03		 push	 3
  00d39	68 00 00 00 00	 push	 OFFSET ??_C@_0BB@ICAOLOOJ@AURA_GRADE_NOBLE@
  00d3e	57		 push	 edi
  00d3f	ff d6		 call	 esi

; 1186 : 	PyModule_AddIntConstant(poModule, "AURA_GRADE_SPARKLING", CItemData::AURA_GRADE_SPARKLING);

  00d41	6a 04		 push	 4
  00d43	68 00 00 00 00	 push	 OFFSET ??_C@_0BF@GFOMMPCF@AURA_GRADE_SPARKLING@
  00d48	57		 push	 edi
  00d49	ff d6		 call	 esi

; 1187 : 	PyModule_AddIntConstant(poModule, "AURA_GRADE_MAGNIFICENT", CItemData::AURA_GRADE_MAGNIFICENT);

  00d4b	6a 05		 push	 5
  00d4d	68 00 00 00 00	 push	 OFFSET ??_C@_0BH@DOIMOCHC@AURA_GRADE_MAGNIFICENT@
  00d52	57		 push	 edi
  00d53	ff d6		 call	 esi

; 1188 : 	PyModule_AddIntConstant(poModule, "AURA_GRADE_RADIANT", CItemData::AURA_GRADE_RADIANT);

  00d55	6a 06		 push	 6
  00d57	68 00 00 00 00	 push	 OFFSET ??_C@_0BD@ONEGMILJ@AURA_GRADE_RADIANT@
  00d5c	57		 push	 edi
  00d5d	ff d6		 call	 esi
  00d5f	83 c4 48	 add	 esp, 72			; 00000048H

; 1189 : 	PyModule_AddIntConstant(poModule, "AURA_GRADE_MAX_NUM", CItemData::AURA_GRADE_MAX_NUM);

  00d62	6a 07		 push	 7
  00d64	68 00 00 00 00	 push	 OFFSET ??_C@_0BD@HJLOCD@AURA_GRADE_MAX_NUM@
  00d69	57		 push	 edi
  00d6a	ff d6		 call	 esi

; 1190 : 	PyModule_AddIntConstant(poModule, "AURA_BOOST_ITEM_VNUM_BASE", CItemData::AURA_BOOST_ITEM_VNUM_BASE);

  00d6c	68 3c c3 00 00	 push	 49980			; 0000c33cH
  00d71	68 00 00 00 00	 push	 OFFSET ??_C@_0BK@NLOOLJEK@AURA_BOOST_ITEM_VNUM_BASE@
  00d76	57		 push	 edi
  00d77	ff d6		 call	 esi

; 1191 : 
; 1192 : 	PyModule_AddIntConstant(poModule, "ITEM_AURA_BOOST_ERASER", CItemData::ITEM_AURA_BOOST_ERASER);

  00d79	6a 00		 push	 0
  00d7b	68 00 00 00 00	 push	 OFFSET ??_C@_0BH@FDHGCHHI@ITEM_AURA_BOOST_ERASER@
  00d80	57		 push	 edi
  00d81	ff d6		 call	 esi

; 1193 : 	PyModule_AddIntConstant(poModule, "ITEM_AURA_BOOST_WEAK", CItemData::ITEM_AURA_BOOST_WEAK);

  00d83	6a 01		 push	 1
  00d85	68 00 00 00 00	 push	 OFFSET ??_C@_0BF@FNDAMKGI@ITEM_AURA_BOOST_WEAK@
  00d8a	57		 push	 edi
  00d8b	ff d6		 call	 esi

; 1194 : 	PyModule_AddIntConstant(poModule, "ITEM_AURA_BOOST_NORMAL", CItemData::ITEM_AURA_BOOST_NORMAL);

  00d8d	6a 02		 push	 2
  00d8f	68 00 00 00 00	 push	 OFFSET ??_C@_0BH@KKPHDIDK@ITEM_AURA_BOOST_NORMAL@
  00d94	57		 push	 edi
  00d95	ff d6		 call	 esi

; 1195 : 	PyModule_AddIntConstant(poModule, "ITEM_AURA_BOOST_STRONG", CItemData::ITEM_AURA_BOOST_STRONG);

  00d97	6a 03		 push	 3
  00d99	68 00 00 00 00	 push	 OFFSET ??_C@_0BH@IHEOGBBB@ITEM_AURA_BOOST_STRONG@
  00d9e	57		 push	 edi
  00d9f	ff d6		 call	 esi
  00da1	83 c4 48	 add	 esp, 72			; 00000048H

; 1196 : 	PyModule_AddIntConstant(poModule, "ITEM_AURA_BOOST_ULTIMATE", CItemData::ITEM_AURA_BOOST_ULTIMATE);

  00da4	6a 04		 push	 4
  00da6	68 00 00 00 00	 push	 OFFSET ??_C@_0BJ@IENBGIID@ITEM_AURA_BOOST_ULTIMATE@
  00dab	57		 push	 edi
  00dac	ff d6		 call	 esi

; 1197 : 	PyModule_AddIntConstant(poModule, "ITEM_AURA_BOOST_MAX", CItemData::ITEM_AURA_BOOST_MAX);

  00dae	6a 05		 push	 5
  00db0	68 00 00 00 00	 push	 OFFSET ??_C@_0BE@BKHCEENN@ITEM_AURA_BOOST_MAX@
  00db5	57		 push	 edi
  00db6	ff d6		 call	 esi

; 1198 : #endif
; 1199 : 
; 1200 : #ifdef ENABLE_GROWTH_PET_SYSTEM
; 1201 : 	PyModule_AddIntConstant(poModule, "ITEM_ANTIFLAG_PETFEED", CItemData::ITEM_ANTIFLAG_PETFEED);

  00db8	68 00 00 08 00	 push	 524288			; 00080000H
  00dbd	68 00 00 00 00	 push	 OFFSET ??_C@_0BG@EGEBENF@ITEM_ANTIFLAG_PETFEED@
  00dc2	57		 push	 edi
  00dc3	ff d6		 call	 esi

; 1202 : 	PyModule_AddIntConstant(poModule, "ITEM_TYPE_GROWTH_PET", CItemData::ITEM_TYPE_GROWTH_PET);

  00dc5	6a 24		 push	 36			; 00000024H
  00dc7	68 00 00 00 00	 push	 OFFSET ??_C@_0BF@BBGPONC@ITEM_TYPE_GROWTH_PET@
  00dcc	57		 push	 edi
  00dcd	ff d6		 call	 esi

; 1203 : 
; 1204 : 	PyModule_AddIntConstant(poModule, "PET_EGG", CItemData::PET_EGG);

  00dcf	6a 00		 push	 0
  00dd1	68 00 00 00 00	 push	 OFFSET ??_C@_07JCLDHBPN@PET_EGG@
  00dd6	57		 push	 edi
  00dd7	ff d6		 call	 esi

; 1205 : 	PyModule_AddIntConstant(poModule, "PET_UPBRINGING", CItemData::PET_UPBRINGING);

  00dd9	6a 01		 push	 1
  00ddb	68 00 00 00 00	 push	 OFFSET ??_C@_0P@JONLIAGI@PET_UPBRINGING@
  00de0	57		 push	 edi
  00de1	ff d6		 call	 esi
  00de3	83 c4 48	 add	 esp, 72			; 00000048H

; 1206 : 	PyModule_AddIntConstant(poModule, "PET_BAG", CItemData::PET_BAG);

  00de6	6a 02		 push	 2
  00de8	68 00 00 00 00	 push	 OFFSET ??_C@_07LOJDFPG@PET_BAG@
  00ded	57		 push	 edi
  00dee	ff d6		 call	 esi

; 1207 : 	PyModule_AddIntConstant(poModule, "PET_FEEDSTUFF", CItemData::PET_FEEDSTUFF);

  00df0	6a 03		 push	 3
  00df2	68 00 00 00 00	 push	 OFFSET ??_C@_0O@MCCAHOPD@PET_FEEDSTUFF@
  00df7	57		 push	 edi
  00df8	ff d6		 call	 esi

; 1208 : 	PyModule_AddIntConstant(poModule, "PET_SKILL", CItemData::PET_SKILL);

  00dfa	6a 04		 push	 4
  00dfc	68 00 00 00 00	 push	 OFFSET ??_C@_09FDPMEDPA@PET_SKILL@
  00e01	57		 push	 edi
  00e02	ff d6		 call	 esi

; 1209 : 	PyModule_AddIntConstant(poModule, "PET_SKILL_DEL_BOOK", CItemData::PET_SKILL_DEL_BOOK);

  00e04	6a 05		 push	 5
  00e06	68 00 00 00 00	 push	 OFFSET ??_C@_0BD@EFEANFHJ@PET_SKILL_DEL_BOOK@
  00e0b	57		 push	 edi
  00e0c	ff d6		 call	 esi

; 1210 : 	PyModule_AddIntConstant(poModule, "PET_NAME_CHANGE", CItemData::PET_NAME_CHANGE);

  00e0e	6a 06		 push	 6
  00e10	68 00 00 00 00	 push	 OFFSET ??_C@_0BA@PPIEAPBO@PET_NAME_CHANGE@
  00e15	57		 push	 edi
  00e16	ff d6		 call	 esi

; 1211 : 	PyModule_AddIntConstant(poModule, "PET_EXPFOOD", CItemData::PET_EXPFOOD);

  00e18	6a 07		 push	 7
  00e1a	68 00 00 00 00	 push	 OFFSET ??_C@_0M@IEIELIHE@PET_EXPFOOD@
  00e1f	57		 push	 edi
  00e20	ff d6		 call	 esi
  00e22	83 c4 48	 add	 esp, 72			; 00000048H

; 1212 : 	PyModule_AddIntConstant(poModule, "PET_SKILL_ALL_DEL_BOOK", CItemData::PET_SKILL_ALL_DEL_BOOK);

  00e25	6a 08		 push	 8
  00e27	68 00 00 00 00	 push	 OFFSET ??_C@_0BH@CJEGELHG@PET_SKILL_ALL_DEL_BOOK@
  00e2c	57		 push	 edi
  00e2d	ff d6		 call	 esi

; 1213 : 	PyModule_AddIntConstant(poModule, "PET_EXPFOOD_PER", CItemData::PET_EXPFOOD_PER);

  00e2f	6a 09		 push	 9
  00e31	68 00 00 00 00	 push	 OFFSET ??_C@_0BA@BFLIKFFA@PET_EXPFOOD_PER@
  00e36	57		 push	 edi
  00e37	ff d6		 call	 esi

; 1214 : 	PyModule_AddIntConstant(poModule, "PET_ATTR_DETERMINE", CItemData::PET_ATTR_DETERMINE);

  00e39	6a 0a		 push	 10			; 0000000aH
  00e3b	68 00 00 00 00	 push	 OFFSET ??_C@_0BD@NBMMKPOB@PET_ATTR_DETERMINE@
  00e40	57		 push	 edi
  00e41	ff d6		 call	 esi

; 1215 : 	PyModule_AddIntConstant(poModule, "PET_ATTR_CHANGE", CItemData::PET_ATTR_CHANGE);

  00e43	6a 0b		 push	 11			; 0000000bH
  00e45	68 00 00 00 00	 push	 OFFSET ??_C@_0BA@EBKLHNHM@PET_ATTR_CHANGE@
  00e4a	57		 push	 edi
  00e4b	ff d6		 call	 esi

; 1216 : 	PyModule_AddIntConstant(poModule, "PET_PAY", CItemData::PET_PAY);

  00e4d	6a 0c		 push	 12			; 0000000cH
  00e4f	68 00 00 00 00	 push	 OFFSET ??_C@_07CFLIJFDN@PET_PAY@
  00e54	57		 push	 edi
  00e55	ff d6		 call	 esi

; 1217 : 	PyModule_AddIntConstant(poModule, "PET_PRIMIUM_FEEDSTUFF", CItemData::PET_PRIMIUM_FEEDSTUFF);

  00e57	6a 0d		 push	 13			; 0000000dH
  00e59	68 00 00 00 00	 push	 OFFSET ??_C@_0BG@FGILHPI@PET_PRIMIUM_FEEDSTUFF@
  00e5e	57		 push	 edi
  00e5f	ff d6		 call	 esi
  00e61	83 c4 48	 add	 esp, 72			; 00000048H

; 1218 : 
; 1219 : 	PyModule_AddIntConstant(poModule, "EGG_USE_SUCCESS", CItemData::EGG_USE_SUCCESS);

  00e64	6a 00		 push	 0
  00e66	68 00 00 00 00	 push	 OFFSET ??_C@_0BA@ODJGNODB@EGG_USE_SUCCESS@
  00e6b	57		 push	 edi
  00e6c	ff d6		 call	 esi

; 1220 : 	PyModule_AddIntConstant(poModule, "EGG_USE_FAILED_BECAUSE_NAME", CItemData::EGG_USE_FAILED_BECAUSE_NAME);

  00e6e	6a 01		 push	 1
  00e70	68 00 00 00 00	 push	 OFFSET ??_C@_0BM@HPDPNNJF@EGG_USE_FAILED_BECAUSE_NAME@
  00e75	57		 push	 edi
  00e76	ff d6		 call	 esi

; 1221 : 	PyModule_AddIntConstant(poModule, "EGG_USE_FAILED_TIMEOVER", CItemData::EGG_USE_FAILED_TIMEOVER);

  00e78	6a 02		 push	 2
  00e7a	68 00 00 00 00	 push	 OFFSET ??_C@_0BI@IFDKONKH@EGG_USE_FAILED_TIMEOVER@
  00e7f	57		 push	 edi
  00e80	ff d6		 call	 esi

; 1222 : 
; 1223 : 	PyModule_AddIntConstant(poModule, "PET_EGG_USE_TRUE", CItemData::PET_EGG_USE_TRUE);

  00e82	6a 00		 push	 0
  00e84	68 00 00 00 00	 push	 OFFSET ??_C@_0BB@ENAGGDKK@PET_EGG_USE_TRUE@
  00e89	57		 push	 edi
  00e8a	ff d6		 call	 esi

; 1224 : 	PyModule_AddIntConstant(poModule, "PET_EGG_USE_FAILED_BECAUSE_TRADING", CItemData::PET_EGG_USE_FAILED_BECAUSE_TRADING);

  00e8c	6a 01		 push	 1
  00e8e	68 00 00 00 00	 push	 OFFSET ??_C@_0CD@KAFFKKLE@PET_EGG_USE_FAILED_BECAUSE_TRAD@
  00e93	57		 push	 edi
  00e94	ff d6		 call	 esi

; 1225 : 	PyModule_AddIntConstant(poModule, "PET_EGG_USE_FAILED_BECAUSE_SHOP_OPEN", CItemData::PET_EGG_USE_FAILED_BECAUSE_SHOP_OPEN);

  00e96	6a 02		 push	 2
  00e98	68 00 00 00 00	 push	 OFFSET ??_C@_0CF@NGAJHCNG@PET_EGG_USE_FAILED_BECAUSE_SHOP@
  00e9d	57		 push	 edi
  00e9e	ff d6		 call	 esi
  00ea0	83 c4 48	 add	 esp, 72			; 00000048H

; 1226 : 	PyModule_AddIntConstant(poModule, "PET_EGG_USE_FAILED_BECAUSE_MALL_OPEN", CItemData::PET_EGG_USE_FAILED_BECAUSE_MALL_OPEN);

  00ea3	6a 03		 push	 3
  00ea5	68 00 00 00 00	 push	 OFFSET ??_C@_0CF@GNDMIEIP@PET_EGG_USE_FAILED_BECAUSE_MALL@
  00eaa	57		 push	 edi
  00eab	ff d6		 call	 esi

; 1227 : 	PyModule_AddIntConstant(poModule, "PET_EGG_USE_FAILED_BECAUSE_SAFEBOX_OPEN", CItemData::PET_EGG_USE_FAILED_BECAUSE_SAFEBOX_OPEN);

  00ead	6a 04		 push	 4
  00eaf	68 00 00 00 00	 push	 OFFSET ??_C@_0CI@OIFJGFDC@PET_EGG_USE_FAILED_BECAUSE_SAFE@
  00eb4	57		 push	 edi
  00eb5	ff d6		 call	 esi

; 1228 : 
; 1229 : 	PyModule_AddIntConstant(poModule, "NAME_CHANGE_USE_SUCCESS", CItemData::NAME_CHANGE_USE_SUCCESS);

  00eb7	6a 00		 push	 0
  00eb9	68 00 00 00 00	 push	 OFFSET ??_C@_0BI@LMIJIOHA@NAME_CHANGE_USE_SUCCESS@
  00ebe	57		 push	 edi
  00ebf	ff d6		 call	 esi

; 1230 : 	PyModule_AddIntConstant(poModule, "NAME_CHANGE_USE_FAILED_BECAUSE_NAME", CItemData::NAME_CHANGE_USE_FAILED_BECAUSE_NAME);

  00ec1	6a 01		 push	 1
  00ec3	68 00 00 00 00	 push	 OFFSET ??_C@_0CE@NHAJKPOM@NAME_CHANGE_USE_FAILED_BECAUSE_@
  00ec8	57		 push	 edi
  00ec9	ff d6		 call	 esi

; 1231 : 
; 1232 : 	PyModule_AddIntConstant(poModule, "PET_ATTR_CHANGE_ITEMVNUM", CItemData::PET_ATTR_CHANGE_ITEMVNUM);

  00ecb	68 f9 d6 00 00	 push	 55033			; 0000d6f9H
  00ed0	68 00 00 00 00	 push	 OFFSET ??_C@_0BJ@NOFPEGC@PET_ATTR_CHANGE_ITEMVNUM@
  00ed5	57		 push	 edi
  00ed6	ff d6		 call	 esi

; 1233 : 	PyModule_AddIntConstant(poModule, "PET_HATCHING_MONEY", CItemData::PET_HATCHING_MONEY);

  00ed8	68 a0 86 01 00	 push	 100000			; 000186a0H
  00edd	68 00 00 00 00	 push	 OFFSET ??_C@_0BD@OMFLBDFK@PET_HATCHING_MONEY@
  00ee2	57		 push	 edi
  00ee3	ff d6		 call	 esi
  00ee5	83 c4 48	 add	 esp, 72			; 00000048H

; 1234 : 	PyModule_AddIntConstant(poModule, "PET_NAME_MAX_SIZE", CItemData::PET_NAME_MAX_SIZE);

  00ee8	6a 14		 push	 20			; 00000014H
  00eea	68 00 00 00 00	 push	 OFFSET ??_C@_0BC@JKCMILIM@PET_NAME_MAX_SIZE@
  00eef	57		 push	 edi
  00ef0	ff d6		 call	 esi

; 1235 : 	PyModule_AddIntConstant(poModule, "PET_NAME_MIN_SIZE", CItemData::PET_NAME_MIN_SIZE);

  00ef2	6a 04		 push	 4
  00ef4	68 00 00 00 00	 push	 OFFSET ??_C@_0BC@ENMHDJMN@PET_NAME_MIN_SIZE@
  00ef9	57		 push	 edi
  00efa	ff d6		 call	 esi

; 1236 : 	PyModule_AddIntConstant(poModule, "E_SEAL_DATE_DEFAULT_TIMESTAMP", CItemData::E_SEAL_DATE_DEFAULT_TIMESTAMP);

  00efc	6a ff		 push	 -1
  00efe	68 00 00 00 00	 push	 OFFSET ??_C@_0BO@FKOEFAAC@E_SEAL_DATE_DEFAULT_TIMESTAMP@
  00f03	57		 push	 edi
  00f04	ff d6		 call	 esi

; 1237 : #endif
; 1238 : 
; 1239 : #ifdef ENABLE_GUILDRENEWAL_SYSTEM
; 1240 : 	PyModule_AddIntConstant(poModule, "GUILD_SLOT_START_INDEX",			210);

  00f06	68 d2 00 00 00	 push	 210			; 000000d2H
  00f0b	68 00 00 00 00	 push	 OFFSET ??_C@_0BH@NDKLMGIH@GUILD_SLOT_START_INDEX@
  00f10	57		 push	 edi
  00f11	ff d6		 call	 esi
  00f13	83 c4 30	 add	 esp, 48			; 00000030H
  00f16	5f		 pop	 edi
  00f17	5e		 pop	 esi

; 1241 : #endif
; 1242 : }

  00f18	c3		 ret	 0
?initItem@@YAXXZ ENDP					; initItem
_TEXT	ENDS
END
