; Listing generated by Microsoft (R) Optimizing Compiler Version 19.44.35219.0 

	TITLE	c:\anka2project\anka2project\source\binary\vs_files\userinterface\release\pythoneventmanagermoudle.obj
	.686P
	.XMM
	include listing.inc
	.model	flat

INCLUDELIB OLDNAMES

PUBLIC	??_C@_0BB@CGDFENFO@RegisterEventSet@		; `string'
PUBLIC	??_C@_0BL@MCHCNCJD@RegisterEventSetFromString@	; `string'
PUBLIC	??_C@_0O@JBCNLALP@ClearEventSet@		; `string'
PUBLIC	??_C@_0BD@EKLFHPIO@SetRestrictedCount@		; `string'
PUBLIC	??_C@_0BK@FKKDIMJI@GetEventSetLocalYPosition@	; `string'
PUBLIC	??_C@_0BK@LPJNLOBK@AddEventSetLocalYPosition@	; `string'
PUBLIC	??_C@_0L@JMOIGJIA@InsertText@			; `string'
PUBLIC	??_C@_0BB@MOBCCMCK@InsertTextInline@		; `string'
PUBLIC	??_C@_0P@LODKOLED@UpdateEventSet@		; `string'
PUBLIC	??_C@_0P@MPNMCGPE@RenderEventSet@		; `string'
PUBLIC	??_C@_0BB@HGJNLEEA@SetEventSetWidth@		; `string'
PUBLIC	??_C@_04MCHAEEKC@Skip@				; `string'
PUBLIC	??_C@_06DLEKKAKE@IsWait@			; `string'
PUBLIC	??_C@_0BA@CNECBPF@EndEventProcess@		; `string'
PUBLIC	??_C@_0N@BPMDBAHI@SelectAnswer@			; `string'
PUBLIC	??_C@_0BE@MKDLPPKK@SetVisibleStartLine@		; `string'
PUBLIC	??_C@_0BE@GEBALPNG@GetVisibleStartLine@		; `string'
PUBLIC	??_C@_0BA@PDIIOOGM@SetEventHandler@		; `string'
PUBLIC	??_C@_0BD@LLNLKLKO@SetInterfaceWindow@		; `string'
PUBLIC	??_C@_0BC@JLIPOMMA@SetLeftTimeString@		; `string'
PUBLIC	??_C@_0BB@EPFOFEDL@QuestButtonClick@		; `string'
PUBLIC	??_C@_0BE@OMEAJJPD@SetVisibleLineCount@		; `string'
PUBLIC	??_C@_0O@NDDDABKP@GetLineHeight@		; `string'
PUBLIC	??_C@_0N@IEKLCGNO@SetYPosition@			; `string'
PUBLIC	??_C@_0BG@LPPFGJJO@GetProcessedLineCount@	; `string'
PUBLIC	??_C@_0BD@KCIBGLMP@AllProcessEventSet@		; `string'
PUBLIC	??_C@_0BC@KNHPBFJM@GetTotalLineCount@		; `string'
PUBLIC	??_C@_05GFHEIIDD@event@				; `string'
PUBLIC	??_C@_0BH@NLEPPNKM@BOX_VISIBLE_LINE_COUNT@	; `string'
PUBLIC	??_C@_0BB@LIHDEJBM@BUTTON_TYPE_NEXT@		; `string'
PUBLIC	??_C@_0BB@NGAMENAL@BUTTON_TYPE_DONE@		; `string'
PUBLIC	??_C@_0BD@BLMCHNOK@BUTTON_TYPE_CANCEL@		; `string'
;	COMDAT ?s_methods@?1??initEvent@@YAXXZ@4PAUPyMethodDef@@A
_DATA	SEGMENT
?s_methods@?1??initEvent@@YAXXZ@4PAUPyMethodDef@@A DD FLAT:??_C@_0BB@CGDFENFO@RegisterEventSet@ ; `initEvent'::`2'::s_methods
	DD	FLAT:?eventRegisterEventSet@@YAPAU_object@@PAU1@0@Z
	DD	01H
	ORG $+4
	DD	FLAT:??_C@_0BL@MCHCNCJD@RegisterEventSetFromString@
	DD	FLAT:?eventRegisterEventSetFromString@@YAPAU_object@@PAU1@0@Z
	DD	01H
	ORG $+4
	DD	FLAT:??_C@_0O@JBCNLALP@ClearEventSet@
	DD	FLAT:?eventClearEventSet@@YAPAU_object@@PAU1@0@Z
	DD	01H
	ORG $+4
	DD	FLAT:??_C@_0BD@EKLFHPIO@SetRestrictedCount@
	DD	FLAT:?eventSetRestrictedCount@@YAPAU_object@@PAU1@0@Z
	DD	01H
	ORG $+4
	DD	FLAT:??_C@_0BK@FKKDIMJI@GetEventSetLocalYPosition@
	DD	FLAT:?eventGetEventSetLocalYPosition@@YAPAU_object@@PAU1@0@Z
	DD	01H
	ORG $+4
	DD	FLAT:??_C@_0BK@LPJNLOBK@AddEventSetLocalYPosition@
	DD	FLAT:?eventAddEventSetLocalYPosition@@YAPAU_object@@PAU1@0@Z
	DD	01H
	ORG $+4
	DD	FLAT:??_C@_0L@JMOIGJIA@InsertText@
	DD	FLAT:?eventInsertText@@YAPAU_object@@PAU1@0@Z
	DD	01H
	ORG $+4
	DD	FLAT:??_C@_0BB@MOBCCMCK@InsertTextInline@
	DD	FLAT:?eventInsertTextInline@@YAPAU_object@@PAU1@0@Z
	DD	01H
	ORG $+4
	DD	FLAT:??_C@_0P@LODKOLED@UpdateEventSet@
	DD	FLAT:?eventUpdateEventSet@@YAPAU_object@@PAU1@0@Z
	DD	01H
	ORG $+4
	DD	FLAT:??_C@_0P@MPNMCGPE@RenderEventSet@
	DD	FLAT:?eventRenderEventSet@@YAPAU_object@@PAU1@0@Z
	DD	01H
	ORG $+4
	DD	FLAT:??_C@_0BB@HGJNLEEA@SetEventSetWidth@
	DD	FLAT:?eventSetEventSetWidth@@YAPAU_object@@PAU1@0@Z
	DD	01H
	ORG $+4
	DD	FLAT:??_C@_04MCHAEEKC@Skip@
	DD	FLAT:?eventSkip@@YAPAU_object@@PAU1@0@Z
	DD	01H
	ORG $+4
	DD	FLAT:??_C@_06DLEKKAKE@IsWait@
	DD	FLAT:?eventIsWait@@YAPAU_object@@PAU1@0@Z
	DD	01H
	ORG $+4
	DD	FLAT:??_C@_0BA@CNECBPF@EndEventProcess@
	DD	FLAT:?eventEndEventProcess@@YAPAU_object@@PAU1@0@Z
	DD	01H
	ORG $+4
	DD	FLAT:??_C@_0N@BPMDBAHI@SelectAnswer@
	DD	FLAT:?eventSelectAnswer@@YAPAU_object@@PAU1@0@Z
	DD	01H
	ORG $+4
	DD	FLAT:??_C@_0N@GBIDIHNF@GetLineCount@
	DD	FLAT:?eventGetLineCount@@YAPAU_object@@PAU1@0@Z
	DD	01H
	ORG $+4
	DD	FLAT:??_C@_0BE@MKDLPPKK@SetVisibleStartLine@
	DD	FLAT:?eventSetVisibleStartLine@@YAPAU_object@@PAU1@0@Z
	DD	01H
	ORG $+4
	DD	FLAT:??_C@_0BE@GEBALPNG@GetVisibleStartLine@
	DD	FLAT:?eventGetVisibleStartLine@@YAPAU_object@@PAU1@0@Z
	DD	01H
	ORG $+4
	DD	FLAT:??_C@_0BA@PDIIOOGM@SetEventHandler@
	DD	FLAT:?eventSetEventHandler@@YAPAU_object@@PAU1@0@Z
	DD	01H
	ORG $+4
	DD	FLAT:??_C@_0BD@LLNLKLKO@SetInterfaceWindow@
	DD	FLAT:?eventSetInterfaceWindow@@YAPAU_object@@PAU1@0@Z
	DD	01H
	ORG $+4
	DD	FLAT:??_C@_0BC@JLIPOMMA@SetLeftTimeString@
	DD	FLAT:?eventSetLeftTimeString@@YAPAU_object@@PAU1@0@Z
	DD	01H
	ORG $+4
	DD	FLAT:??_C@_0BB@EPFOFEDL@QuestButtonClick@
	DD	FLAT:?eventQuestButtonClick@@YAPAU_object@@PAU1@0@Z
	DD	01H
	ORG $+4
	DD	FLAT:??_C@_07BDCAJABG@Destroy@
	DD	FLAT:?eventDestroy@@YAPAU_object@@PAU1@0@Z
	DD	01H
	ORG $+4
	DD	FLAT:??_C@_0BE@OMEAJJPD@SetVisibleLineCount@
	DD	FLAT:?eventSetVisibleLineCount@@YAPAU_object@@PAU1@0@Z
	DD	01H
	ORG $+4
	DD	FLAT:??_C@_0O@NDDDABKP@GetLineHeight@
	DD	FLAT:?eventGetLineHeight@@YAPAU_object@@PAU1@0@Z
	DD	01H
	ORG $+4
	DD	FLAT:??_C@_0N@IEKLCGNO@SetYPosition@
	DD	FLAT:?eventSetYPosition@@YAPAU_object@@PAU1@0@Z
	DD	01H
	ORG $+4
	DD	FLAT:??_C@_0BG@LPPFGJJO@GetProcessedLineCount@
	DD	FLAT:?eventGetProcessedLineCount@@YAPAU_object@@PAU1@0@Z
	DD	01H
	ORG $+4
	DD	FLAT:??_C@_0BD@KCIBGLMP@AllProcessEventSet@
	DD	FLAT:?eventAllProcessEventSet@@YAPAU_object@@PAU1@0@Z
	DD	01H
	ORG $+4
	DD	FLAT:??_C@_0BC@KNHPBFJM@GetTotalLineCount@
	DD	FLAT:?eventGetTotalLineCount@@YAPAU_object@@PAU1@0@Z
	DD	01H
	ORG $+4
	DD	00H
	DD	00H
	DD	00H
	ORG $+4
_DATA	ENDS
;	COMDAT ??_C@_0BD@BLMCHNOK@BUTTON_TYPE_CANCEL@
CONST	SEGMENT
??_C@_0BD@BLMCHNOK@BUTTON_TYPE_CANCEL@ DB 'BUTTON_TYPE_CANCEL', 00H ; `string'
CONST	ENDS
;	COMDAT ??_C@_0BB@NGAMENAL@BUTTON_TYPE_DONE@
CONST	SEGMENT
??_C@_0BB@NGAMENAL@BUTTON_TYPE_DONE@ DB 'BUTTON_TYPE_DONE', 00H ; `string'
CONST	ENDS
;	COMDAT ??_C@_0BB@LIHDEJBM@BUTTON_TYPE_NEXT@
CONST	SEGMENT
??_C@_0BB@LIHDEJBM@BUTTON_TYPE_NEXT@ DB 'BUTTON_TYPE_NEXT', 00H ; `string'
CONST	ENDS
;	COMDAT ??_C@_0BH@NLEPPNKM@BOX_VISIBLE_LINE_COUNT@
CONST	SEGMENT
??_C@_0BH@NLEPPNKM@BOX_VISIBLE_LINE_COUNT@ DB 'BOX_VISIBLE_LINE_COUNT', 00H ; `string'
CONST	ENDS
;	COMDAT ??_C@_05GFHEIIDD@event@
CONST	SEGMENT
??_C@_05GFHEIIDD@event@ DB 'event', 00H			; `string'
CONST	ENDS
;	COMDAT ??_C@_0BC@KNHPBFJM@GetTotalLineCount@
CONST	SEGMENT
??_C@_0BC@KNHPBFJM@GetTotalLineCount@ DB 'GetTotalLineCount', 00H ; `string'
CONST	ENDS
;	COMDAT ??_C@_0BD@KCIBGLMP@AllProcessEventSet@
CONST	SEGMENT
??_C@_0BD@KCIBGLMP@AllProcessEventSet@ DB 'AllProcessEventSet', 00H ; `string'
CONST	ENDS
;	COMDAT ??_C@_0BG@LPPFGJJO@GetProcessedLineCount@
CONST	SEGMENT
??_C@_0BG@LPPFGJJO@GetProcessedLineCount@ DB 'GetProcessedLineCount', 00H ; `string'
CONST	ENDS
;	COMDAT ??_C@_0N@IEKLCGNO@SetYPosition@
CONST	SEGMENT
??_C@_0N@IEKLCGNO@SetYPosition@ DB 'SetYPosition', 00H	; `string'
CONST	ENDS
;	COMDAT ??_C@_0O@NDDDABKP@GetLineHeight@
CONST	SEGMENT
??_C@_0O@NDDDABKP@GetLineHeight@ DB 'GetLineHeight', 00H ; `string'
CONST	ENDS
;	COMDAT ??_C@_0BE@OMEAJJPD@SetVisibleLineCount@
CONST	SEGMENT
??_C@_0BE@OMEAJJPD@SetVisibleLineCount@ DB 'SetVisibleLineCount', 00H ; `string'
CONST	ENDS
;	COMDAT ??_C@_0BB@EPFOFEDL@QuestButtonClick@
CONST	SEGMENT
??_C@_0BB@EPFOFEDL@QuestButtonClick@ DB 'QuestButtonClick', 00H ; `string'
CONST	ENDS
;	COMDAT ??_C@_0BC@JLIPOMMA@SetLeftTimeString@
CONST	SEGMENT
??_C@_0BC@JLIPOMMA@SetLeftTimeString@ DB 'SetLeftTimeString', 00H ; `string'
CONST	ENDS
;	COMDAT ??_C@_0BD@LLNLKLKO@SetInterfaceWindow@
CONST	SEGMENT
??_C@_0BD@LLNLKLKO@SetInterfaceWindow@ DB 'SetInterfaceWindow', 00H ; `string'
CONST	ENDS
;	COMDAT ??_C@_0BA@PDIIOOGM@SetEventHandler@
CONST	SEGMENT
??_C@_0BA@PDIIOOGM@SetEventHandler@ DB 'SetEventHandler', 00H ; `string'
CONST	ENDS
;	COMDAT ??_C@_0BE@GEBALPNG@GetVisibleStartLine@
CONST	SEGMENT
??_C@_0BE@GEBALPNG@GetVisibleStartLine@ DB 'GetVisibleStartLine', 00H ; `string'
CONST	ENDS
;	COMDAT ??_C@_0BE@MKDLPPKK@SetVisibleStartLine@
CONST	SEGMENT
??_C@_0BE@MKDLPPKK@SetVisibleStartLine@ DB 'SetVisibleStartLine', 00H ; `string'
CONST	ENDS
;	COMDAT ??_C@_0N@BPMDBAHI@SelectAnswer@
CONST	SEGMENT
??_C@_0N@BPMDBAHI@SelectAnswer@ DB 'SelectAnswer', 00H	; `string'
CONST	ENDS
;	COMDAT ??_C@_0BA@CNECBPF@EndEventProcess@
CONST	SEGMENT
??_C@_0BA@CNECBPF@EndEventProcess@ DB 'EndEventProcess', 00H ; `string'
CONST	ENDS
;	COMDAT ??_C@_06DLEKKAKE@IsWait@
CONST	SEGMENT
??_C@_06DLEKKAKE@IsWait@ DB 'IsWait', 00H		; `string'
CONST	ENDS
;	COMDAT ??_C@_04MCHAEEKC@Skip@
CONST	SEGMENT
??_C@_04MCHAEEKC@Skip@ DB 'Skip', 00H			; `string'
CONST	ENDS
;	COMDAT ??_C@_0BB@HGJNLEEA@SetEventSetWidth@
CONST	SEGMENT
??_C@_0BB@HGJNLEEA@SetEventSetWidth@ DB 'SetEventSetWidth', 00H ; `string'
CONST	ENDS
;	COMDAT ??_C@_0P@MPNMCGPE@RenderEventSet@
CONST	SEGMENT
??_C@_0P@MPNMCGPE@RenderEventSet@ DB 'RenderEventSet', 00H ; `string'
CONST	ENDS
;	COMDAT ??_C@_0P@LODKOLED@UpdateEventSet@
CONST	SEGMENT
??_C@_0P@LODKOLED@UpdateEventSet@ DB 'UpdateEventSet', 00H ; `string'
CONST	ENDS
;	COMDAT ??_C@_0BB@MOBCCMCK@InsertTextInline@
CONST	SEGMENT
??_C@_0BB@MOBCCMCK@InsertTextInline@ DB 'InsertTextInline', 00H ; `string'
CONST	ENDS
;	COMDAT ??_C@_0L@JMOIGJIA@InsertText@
CONST	SEGMENT
??_C@_0L@JMOIGJIA@InsertText@ DB 'InsertText', 00H	; `string'
CONST	ENDS
;	COMDAT ??_C@_0BK@LPJNLOBK@AddEventSetLocalYPosition@
CONST	SEGMENT
??_C@_0BK@LPJNLOBK@AddEventSetLocalYPosition@ DB 'AddEventSetLocalYPositi'
	DB	'on', 00H					; `string'
CONST	ENDS
;	COMDAT ??_C@_0BK@FKKDIMJI@GetEventSetLocalYPosition@
CONST	SEGMENT
??_C@_0BK@FKKDIMJI@GetEventSetLocalYPosition@ DB 'GetEventSetLocalYPositi'
	DB	'on', 00H					; `string'
CONST	ENDS
;	COMDAT ??_C@_0BD@EKLFHPIO@SetRestrictedCount@
CONST	SEGMENT
??_C@_0BD@EKLFHPIO@SetRestrictedCount@ DB 'SetRestrictedCount', 00H ; `string'
CONST	ENDS
;	COMDAT ??_C@_0O@JBCNLALP@ClearEventSet@
CONST	SEGMENT
??_C@_0O@JBCNLALP@ClearEventSet@ DB 'ClearEventSet', 00H ; `string'
CONST	ENDS
;	COMDAT ??_C@_0BL@MCHCNCJD@RegisterEventSetFromString@
CONST	SEGMENT
??_C@_0BL@MCHCNCJD@RegisterEventSetFromString@ DB 'RegisterEventSetFromSt'
	DB	'ring', 00H					; `string'
CONST	ENDS
;	COMDAT ??_C@_0BB@CGDFENFO@RegisterEventSet@
CONST	SEGMENT
??_C@_0BB@CGDFENFO@RegisterEventSet@ DB 'RegisterEventSet', 00H ; `string'
PUBLIC	?Instance@?$CSingleton@VCPythonEventManager@@@@SAAAVCPythonEventManager@@XZ ; CSingleton<CPythonEventManager>::Instance
PUBLIC	?initEvent@@YAXXZ				; initEvent
PUBLIC	?eventGetTotalLineCount@@YAPAU_object@@PAU1@0@Z	; eventGetTotalLineCount
PUBLIC	?eventAllProcessEventSet@@YAPAU_object@@PAU1@0@Z ; eventAllProcessEventSet
PUBLIC	?eventGetProcessedLineCount@@YAPAU_object@@PAU1@0@Z ; eventGetProcessedLineCount
PUBLIC	?eventSetYPosition@@YAPAU_object@@PAU1@0@Z	; eventSetYPosition
PUBLIC	?eventGetLineHeight@@YAPAU_object@@PAU1@0@Z	; eventGetLineHeight
PUBLIC	?eventSetVisibleLineCount@@YAPAU_object@@PAU1@0@Z ; eventSetVisibleLineCount
PUBLIC	?eventDestroy@@YAPAU_object@@PAU1@0@Z		; eventDestroy
PUBLIC	?eventSetLeftTimeString@@YAPAU_object@@PAU1@0@Z	; eventSetLeftTimeString
PUBLIC	?eventSetInterfaceWindow@@YAPAU_object@@PAU1@0@Z ; eventSetInterfaceWindow
PUBLIC	?eventQuestButtonClick@@YAPAU_object@@PAU1@0@Z	; eventQuestButtonClick
PUBLIC	?eventGetVisibleStartLine@@YAPAU_object@@PAU1@0@Z ; eventGetVisibleStartLine
PUBLIC	?eventSetVisibleStartLine@@YAPAU_object@@PAU1@0@Z ; eventSetVisibleStartLine
PUBLIC	?eventGetLineCount@@YAPAU_object@@PAU1@0@Z	; eventGetLineCount
PUBLIC	?eventSelectAnswer@@YAPAU_object@@PAU1@0@Z	; eventSelectAnswer
PUBLIC	?eventSetEventHandler@@YAPAU_object@@PAU1@0@Z	; eventSetEventHandler
PUBLIC	?eventEndEventProcess@@YAPAU_object@@PAU1@0@Z	; eventEndEventProcess
PUBLIC	?eventIsWait@@YAPAU_object@@PAU1@0@Z		; eventIsWait
PUBLIC	?eventSkip@@YAPAU_object@@PAU1@0@Z		; eventSkip
PUBLIC	?eventSetEventSetWidth@@YAPAU_object@@PAU1@0@Z	; eventSetEventSetWidth
PUBLIC	?eventRenderEventSet@@YAPAU_object@@PAU1@0@Z	; eventRenderEventSet
PUBLIC	?eventUpdateEventSet@@YAPAU_object@@PAU1@0@Z	; eventUpdateEventSet
PUBLIC	?eventInsertTextInline@@YAPAU_object@@PAU1@0@Z	; eventInsertTextInline
PUBLIC	?eventInsertText@@YAPAU_object@@PAU1@0@Z	; eventInsertText
PUBLIC	?eventAddEventSetLocalYPosition@@YAPAU_object@@PAU1@0@Z ; eventAddEventSetLocalYPosition
PUBLIC	?eventGetEventSetLocalYPosition@@YAPAU_object@@PAU1@0@Z ; eventGetEventSetLocalYPosition
PUBLIC	?eventSetRestrictedCount@@YAPAU_object@@PAU1@0@Z ; eventSetRestrictedCount
PUBLIC	?eventClearEventSet@@YAPAU_object@@PAU1@0@Z	; eventClearEventSet
PUBLIC	?eventRegisterEventSetFromString@@YAPAU_object@@PAU1@0@Z ; eventRegisterEventSetFromString
PUBLIC	?eventRegisterEventSet@@YAPAU_object@@PAU1@0@Z	; eventRegisterEventSet
;	COMDAT xdata$x
xdata$x	SEGMENT
__ehfuncinfo$?eventRegisterEventSetFromString@@YAPAU_object@@PAU1@0@Z DD 019930522H
	DD	01H
	DD	FLAT:__unwindtable$?eventRegisterEventSetFromString@@YAPAU_object@@PAU1@0@Z
	DD	2 DUP(00H)
	DD	2 DUP(00H)
	DD	00H
	DD	01H
__unwindtable$?eventRegisterEventSetFromString@@YAPAU_object@@PAU1@0@Z DD 0ffffffffH
	DD	FLAT:__unwindfunclet$?eventRegisterEventSetFromString@@YAPAU_object@@PAU1@0@Z$0
; Function compile flags: /Ogtp
; File C:\Anka2Project\Anka2Project\Source\Binary\source\UserInterface\PythonEventManagerMoudle.cpp
; File C:\Anka2Project\Anka2Project\Source\Binary\source\eterBase\Singleton.h
; File C:\Anka2Project\Anka2Project\Source\Binary\source\UserInterface\PythonEventManagerMoudle.cpp
;	COMDAT ?eventRegisterEventSet@@YAPAU_object@@PAU1@0@Z
_TEXT	SEGMENT
_szFileName$ = -4					; size = 4
_poSelf$ = 8						; size = 4
_poArgs$ = 12						; size = 4
?eventRegisterEventSet@@YAPAU_object@@PAU1@0@Z PROC	; eventRegisterEventSet, COMDAT

; 6    : {

  00000	55		 push	 ebp
  00001	8b ec		 mov	 ebp, esp
  00003	51		 push	 ecx

; 7    : 	char *szFileName;
; 8    : 	if (!PyTuple_GetString(poArgs, 0, &szFileName))

  00004	8d 45 fc	 lea	 eax, DWORD PTR _szFileName$[ebp]
  00007	50		 push	 eax
  00008	6a 00		 push	 0
  0000a	ff 75 0c	 push	 DWORD PTR _poArgs$[ebp]
  0000d	e8 00 00 00 00	 call	 ?PyTuple_GetString@@YA_NPAU_object@@HPAPAD@Z ; PyTuple_GetString
  00012	83 c4 0c	 add	 esp, 12			; 0000000cH
  00015	84 c0		 test	 al, al
  00017	75 0e		 jne	 SHORT $LN2@eventRegis

; 9    : 		return Py_BuildException();

  00019	6a 00		 push	 0
  0001b	e8 00 00 00 00	 call	 ?Py_BuildException@@YAPAU_object@@PBDZZ ; Py_BuildException
  00020	83 c4 04	 add	 esp, 4

; 13   : }

  00023	8b e5		 mov	 esp, ebp
  00025	5d		 pop	 ebp
  00026	c3		 ret	 0
$LN2@eventRegis:
; File C:\Anka2Project\Anka2Project\Source\Binary\source\eterBase\Singleton.h

; 26   : 		assert(ms_singleton);

  00027	8b 0d 00 00 00
	00		 mov	 ecx, DWORD PTR ?ms_singleton@?$CSingleton@VCPythonEventManager@@@@0PAVCPythonEventManager@@A ; CSingleton<CPythonEventManager>::ms_singleton
  0002d	85 c9		 test	 ecx, ecx
  0002f	75 1a		 jne	 SHORT $LN6@eventRegis
  00031	6a 1a		 push	 26			; 0000001aH
  00033	68 00 00 00 00	 push	 OFFSET ??_C@_1IO@CAJLEEOI@?$AAC?$AA?3?$AA?2?$AAA?$AAn?$AAk?$AAa?$AA2?$AAP?$AAr?$AAo?$AAj?$AAe?$AAc?$AAt@
  00038	68 00 00 00 00	 push	 OFFSET ??_C@_1BK@FMEHPMFE@?$AAm?$AAs?$AA_?$AAs?$AAi?$AAn?$AAg?$AAl?$AAe?$AAt?$AAo?$AAn@
  0003d	e8 00 00 00 00	 call	 __wassert
  00042	8b 0d 00 00 00
	00		 mov	 ecx, DWORD PTR ?ms_singleton@?$CSingleton@VCPythonEventManager@@@@0PAVCPythonEventManager@@A ; CSingleton<CPythonEventManager>::ms_singleton
  00048	83 c4 0c	 add	 esp, 12			; 0000000cH
$LN6@eventRegis:
; File C:\Anka2Project\Anka2Project\Source\Binary\source\UserInterface\PythonEventManagerMoudle.cpp

; 11   : 	int iEventIndex = CPythonEventManager::Instance().RegisterEventSet(szFileName);

  0004b	ff 75 fc	 push	 DWORD PTR _szFileName$[ebp]
  0004e	e8 00 00 00 00	 call	 ?RegisterEventSet@CPythonEventManager@@QAEHPBD@Z ; CPythonEventManager::RegisterEventSet

; 12   : 	return Py_BuildValue("i", iEventIndex);

  00053	50		 push	 eax
  00054	68 00 00 00 00	 push	 OFFSET ??_C@_01KBJDNOO@i@
  00059	ff 15 00 00 00
	00		 call	 DWORD PTR __imp__Py_BuildValue
  0005f	83 c4 08	 add	 esp, 8

; 13   : }

  00062	8b e5		 mov	 esp, ebp
  00064	5d		 pop	 ebp
  00065	c3		 ret	 0
?eventRegisterEventSet@@YAPAU_object@@PAU1@0@Z ENDP	; eventRegisterEventSet
_TEXT	ENDS
; Function compile flags: /Ogtp
; File C:\Anka2Project\Anka2Project\Source\Binary\source\UserInterface\PythonEventManagerMoudle.cpp
; File C:\Anka2Project\Anka2Project\Source\Binary\source\eterBase\Singleton.h
; File C:\Program Files\Microsoft Visual Studio\2022\Community\VC\Tools\MSVC\14.44.35207\include\__msvc_string_view.hpp
; File C:\Program Files\Microsoft Visual Studio\2022\Community\VC\Tools\MSVC\14.44.35207\include\xstring
; File C:\Program Files\Microsoft Visual Studio\2022\Community\VC\Tools\MSVC\14.44.35207\include\__msvc_string_view.hpp
; File C:\Program Files\Microsoft Visual Studio\2022\Community\VC\Tools\MSVC\14.44.35207\include\xstring
; File C:\Anka2Project\Anka2Project\Source\Binary\source\UserInterface\PythonEventManagerMoudle.cpp
; File C:\Program Files\Microsoft Visual Studio\2022\Community\VC\Tools\MSVC\14.44.35207\include\xstring
; File C:\Anka2Project\Anka2Project\Source\Binary\source\UserInterface\PythonEventManagerMoudle.cpp
; File C:\Program Files\Microsoft Visual Studio\2022\Community\VC\Tools\MSVC\14.44.35207\include\xstring
; File C:\Program Files\Microsoft Visual Studio\2022\Community\VC\Tools\MSVC\14.44.35207\include\xmemory
; File C:\Program Files\Microsoft Visual Studio\2022\Community\VC\Tools\MSVC\14.44.35207\include\xstring
; File C:\Program Files\Microsoft Visual Studio\2022\Community\VC\Tools\MSVC\14.44.35207\include\xmemory
; File C:\Anka2Project\Anka2Project\Source\Binary\source\UserInterface\PythonEventManagerMoudle.cpp
; File C:\Program Files\Microsoft Visual Studio\2022\Community\VC\Tools\MSVC\14.44.35207\include\xmemory
; File C:\Anka2Project\Anka2Project\Source\Binary\source\UserInterface\PythonEventManagerMoudle.cpp
;	COMDAT ?eventRegisterEventSetFromString@@YAPAU_object@@PAU1@0@Z
_TEXT	SEGMENT
_szEventString$ = -44					; size = 4
$T2 = -40						; size = 24
__$ArrayPad$ = -16					; size = 4
__$EHRec$ = -12						; size = 12
_poSelf$ = 8						; size = 4
_poArgs$ = 12						; size = 4
?eventRegisterEventSetFromString@@YAPAU_object@@PAU1@0@Z PROC ; eventRegisterEventSetFromString, COMDAT

; 16   : {

  00000	55		 push	 ebp
  00001	8b ec		 mov	 ebp, esp
  00003	6a ff		 push	 -1
  00005	68 00 00 00 00	 push	 __ehhandler$?eventRegisterEventSetFromString@@YAPAU_object@@PAU1@0@Z
  0000a	64 a1 00 00 00
	00		 mov	 eax, DWORD PTR fs:0
  00010	50		 push	 eax
  00011	83 ec 20	 sub	 esp, 32			; 00000020H
  00014	a1 00 00 00 00	 mov	 eax, DWORD PTR ___security_cookie
  00019	33 c5		 xor	 eax, ebp
  0001b	89 45 f0	 mov	 DWORD PTR __$ArrayPad$[ebp], eax
  0001e	56		 push	 esi
  0001f	57		 push	 edi
  00020	50		 push	 eax
  00021	8d 45 f4	 lea	 eax, DWORD PTR __$EHRec$[ebp]
  00024	64 a3 00 00 00
	00		 mov	 DWORD PTR fs:0, eax
  0002a	8b 45 0c	 mov	 eax, DWORD PTR _poArgs$[ebp]

; 17   : 	char *szEventString;
; 18   : 	if (!PyTuple_GetString(poArgs, 0, &szEventString))

  0002d	8d 4d d4	 lea	 ecx, DWORD PTR _szEventString$[ebp]
  00030	51		 push	 ecx
  00031	6a 00		 push	 0
  00033	50		 push	 eax
  00034	e8 00 00 00 00	 call	 ?PyTuple_GetString@@YA_NPAU_object@@HPAPAD@Z ; PyTuple_GetString
  00039	83 c4 0c	 add	 esp, 12			; 0000000cH
  0003c	84 c0		 test	 al, al
  0003e	75 0f		 jne	 SHORT $LN2@eventRegis

; 19   : 		return Py_BuildException();

  00040	6a 00		 push	 0
  00042	e8 00 00 00 00	 call	 ?Py_BuildException@@YAPAU_object@@PBDZZ ; Py_BuildException
  00047	83 c4 04	 add	 esp, 4
  0004a	e9 a7 00 00 00	 jmp	 $LN1@eventRegis
$LN2@eventRegis:
; File C:\Anka2Project\Anka2Project\Source\Binary\source\eterBase\Singleton.h

; 26   : 		assert(ms_singleton);

  0004f	8b 35 00 00 00
	00		 mov	 esi, DWORD PTR ?ms_singleton@?$CSingleton@VCPythonEventManager@@@@0PAVCPythonEventManager@@A ; CSingleton<CPythonEventManager>::ms_singleton
  00055	85 f6		 test	 esi, esi
  00057	75 1a		 jne	 SHORT $LN7@eventRegis
  00059	6a 1a		 push	 26			; 0000001aH
  0005b	68 00 00 00 00	 push	 OFFSET ??_C@_1IO@CAJLEEOI@?$AAC?$AA?3?$AA?2?$AAA?$AAn?$AAk?$AAa?$AA2?$AAP?$AAr?$AAo?$AAj?$AAe?$AAc?$AAt@
  00060	68 00 00 00 00	 push	 OFFSET ??_C@_1BK@FMEHPMFE@?$AAm?$AAs?$AA_?$AAs?$AAi?$AAn?$AAg?$AAl?$AAe?$AAt?$AAo?$AAn@
  00065	e8 00 00 00 00	 call	 __wassert
  0006a	8b 35 00 00 00
	00		 mov	 esi, DWORD PTR ?ms_singleton@?$CSingleton@VCPythonEventManager@@@@0PAVCPythonEventManager@@A ; CSingleton<CPythonEventManager>::ms_singleton
  00070	83 c4 0c	 add	 esp, 12			; 0000000cH
$LN7@eventRegis:
; File C:\Program Files\Microsoft Visual Studio\2022\Community\VC\Tools\MSVC\14.44.35207\include\__msvc_string_view.hpp

; 456  :             return __builtin_strlen(_First);

  00073	8b 4d d4	 mov	 ecx, DWORD PTR _szEventString$[ebp]
  00076	0f 57 c0	 xorps	 xmm0, xmm0
  00079	8b d1		 mov	 edx, ecx
; File C:\Program Files\Microsoft Visual Studio\2022\Community\VC\Tools\MSVC\14.44.35207\include\xstring

; 517  :     size_type _Mysize = 0; // current length of string (size)

  0007b	c7 45 e8 00 00
	00 00		 mov	 DWORD PTR $T2[ebp+16], 0

; 493  :         _CONSTEXPR20 _Bxty() noexcept : _Buf() {} // user-provided, for fancy pointers

  00082	0f 11 45 d8	 movups	 XMMWORD PTR $T2[ebp], xmm0

; 518  :     size_type _Myres  = 0; // current storage reserved for string (capacity)

  00086	c7 45 ec 00 00
	00 00		 mov	 DWORD PTR $T2[ebp+20], 0
; File C:\Program Files\Microsoft Visual Studio\2022\Community\VC\Tools\MSVC\14.44.35207\include\__msvc_string_view.hpp

; 456  :             return __builtin_strlen(_First);

  0008d	8d 7a 01	 lea	 edi, DWORD PTR [edx+1]
$LL59@eventRegis:
  00090	8a 02		 mov	 al, BYTE PTR [edx]
  00092	42		 inc	 edx
  00093	84 c0		 test	 al, al
  00095	75 f9		 jne	 SHORT $LL59@eventRegis
  00097	2b d7		 sub	 edx, edi
; File C:\Program Files\Microsoft Visual Studio\2022\Community\VC\Tools\MSVC\14.44.35207\include\xstring

; 769  :         _Construct<_Construct_strategy::_From_ptr>(_Ptr, _Convert_size<size_type>(_Traits::length(_Ptr)));

  00099	52		 push	 edx
  0009a	51		 push	 ecx
  0009b	8d 4d d8	 lea	 ecx, DWORD PTR $T2[ebp]
  0009e	e8 00 00 00 00	 call	 ??$_Construct@$00PBD@?$basic_string@DU?$char_traits@D@std@@V?$allocator@D@2@@std@@AAEXQBDI@Z ; std::basic_string<char,std::char_traits<char>,std::allocator<char> >::_Construct<1,char const *>
; File C:\Anka2Project\Anka2Project\Source\Binary\source\UserInterface\PythonEventManagerMoudle.cpp

; 21   : 	int iEventIndex = CPythonEventManager::Instance().RegisterEventSetFromString(szEventString);

  000a3	8d 45 d8	 lea	 eax, DWORD PTR $T2[ebp]
  000a6	c7 45 fc 00 00
	00 00		 mov	 DWORD PTR __$EHRec$[ebp+8], 0
  000ad	50		 push	 eax
  000ae	8b ce		 mov	 ecx, esi
  000b0	e8 00 00 00 00	 call	 ?RegisterEventSetFromString@CPythonEventManager@@QAEHABV?$basic_string@DU?$char_traits@D@std@@V?$allocator@D@2@@std@@@Z ; CPythonEventManager::RegisterEventSetFromString
; File C:\Program Files\Microsoft Visual Studio\2022\Community\VC\Tools\MSVC\14.44.35207\include\xstring

; 453  :         return _Myres > _Small_string_capacity;

  000b5	8b 4d ec	 mov	 ecx, DWORD PTR $T2[ebp+20]
; File C:\Anka2Project\Anka2Project\Source\Binary\source\UserInterface\PythonEventManagerMoudle.cpp

; 21   : 	int iEventIndex = CPythonEventManager::Instance().RegisterEventSetFromString(szEventString);

  000b8	8b f0		 mov	 esi, eax
; File C:\Program Files\Microsoft Visual Studio\2022\Community\VC\Tools\MSVC\14.44.35207\include\xstring

; 453  :         return _Myres > _Small_string_capacity;

  000ba	83 f9 0f	 cmp	 ecx, 15			; 0000000fH

; 3083 :         if (_My_data._Large_mode_engaged()) {

  000bd	76 28		 jbe	 SHORT $LN44@eventRegis
; File C:\Program Files\Microsoft Visual Studio\2022\Community\VC\Tools\MSVC\14.44.35207\include\xmemory

; 985  :         _STD _Deallocate<_New_alignof<_Ty>>(_Ptr, sizeof(_Ty) * _Count);

  000bf	8b 55 d8	 mov	 edx, DWORD PTR $T2[ebp]
; File C:\Program Files\Microsoft Visual Studio\2022\Community\VC\Tools\MSVC\14.44.35207\include\xstring

; 852  :         _Al.deallocate(_Old_ptr, _Capacity + 1); // +1 for null terminator

  000c2	41		 inc	 ecx
; File C:\Program Files\Microsoft Visual Studio\2022\Community\VC\Tools\MSVC\14.44.35207\include\xmemory

; 985  :         _STD _Deallocate<_New_alignof<_Ty>>(_Ptr, sizeof(_Ty) * _Count);

  000c3	8b c2		 mov	 eax, edx

; 284  :         if (_Bytes >= _Big_allocation_threshold) {

  000c5	81 f9 00 10 00
	00		 cmp	 ecx, 4096		; 00001000H
  000cb	72 10		 jb	 SHORT $LN52@eventRegis

; 205  :     const uintptr_t _Ptr_container   = _Ptr_user[-1];

  000cd	8b 50 fc	 mov	 edx, DWORD PTR [eax-4]
  000d0	83 c1 23	 add	 ecx, 35			; 00000023H
  000d3	2b c2		 sub	 eax, edx

; 219  :     _STL_VERIFY(_Back_shift >= _Min_back_shift && _Back_shift <= _Non_user_size, "invalid argument");

  000d5	83 c0 fc	 add	 eax, -4			; fffffffcH
  000d8	83 f8 1f	 cmp	 eax, 31			; 0000001fH
  000db	77 34		 ja	 SHORT $LN63@eventRegis
$LN52@eventRegis:

; 289  :         ::operator delete(_Ptr, _Bytes);

  000dd	51		 push	 ecx
  000de	52		 push	 edx
  000df	e8 00 00 00 00	 call	 ??3@YAXPAXI@Z		; operator delete
  000e4	83 c4 08	 add	 esp, 8
$LN44@eventRegis:
; File C:\Anka2Project\Anka2Project\Source\Binary\source\UserInterface\PythonEventManagerMoudle.cpp

; 22   : 	return Py_BuildValue("i", iEventIndex);

  000e7	56		 push	 esi
  000e8	68 00 00 00 00	 push	 OFFSET ??_C@_01KBJDNOO@i@
  000ed	ff 15 00 00 00
	00		 call	 DWORD PTR __imp__Py_BuildValue
  000f3	83 c4 08	 add	 esp, 8
$LN1@eventRegis:

; 23   : }

  000f6	8b 4d f4	 mov	 ecx, DWORD PTR __$EHRec$[ebp]
  000f9	64 89 0d 00 00
	00 00		 mov	 DWORD PTR fs:0, ecx
  00100	59		 pop	 ecx
  00101	5f		 pop	 edi
  00102	5e		 pop	 esi
  00103	8b 4d f0	 mov	 ecx, DWORD PTR __$ArrayPad$[ebp]
  00106	33 cd		 xor	 ecx, ebp
  00108	e8 00 00 00 00	 call	 @__security_check_cookie@4
  0010d	8b e5		 mov	 esp, ebp
  0010f	5d		 pop	 ebp
  00110	c3		 ret	 0
$LN63@eventRegis:
; File C:\Program Files\Microsoft Visual Studio\2022\Community\VC\Tools\MSVC\14.44.35207\include\xmemory

; 219  :     _STL_VERIFY(_Back_shift >= _Min_back_shift && _Back_shift <= _Non_user_size, "invalid argument");

  00111	6a 00		 push	 0
  00113	6a 00		 push	 0
  00115	6a 00		 push	 0
  00117	6a 00		 push	 0
  00119	6a 00		 push	 0
  0011b	e8 00 00 00 00	 call	 __invoke_watson
$LN61@eventRegis:
  00120	cc		 int	 3
_TEXT	ENDS
;	COMDAT text$x
text$x	SEGMENT
__unwindfunclet$?eventRegisterEventSetFromString@@YAPAU_object@@PAU1@0@Z$0:
  00000	8d 4d d8	 lea	 ecx, DWORD PTR $T2[ebp]
  00003	e9 00 00 00 00	 jmp	 ??1?$basic_string@DU?$char_traits@D@std@@V?$allocator@D@2@@std@@QAE@XZ ; std::basic_string<char,std::char_traits<char>,std::allocator<char> >::~basic_string<char,std::char_traits<char>,std::allocator<char> >
  00008	cc		 int	 3
  00009	cc		 int	 3
  0000a	cc		 int	 3
  0000b	cc		 int	 3
  0000c	cc		 int	 3
__ehhandler$?eventRegisterEventSetFromString@@YAPAU_object@@PAU1@0@Z:
  0000d	90		 npad	 1
  0000e	90		 npad	 1
  0000f	8b 54 24 08	 mov	 edx, DWORD PTR [esp+8]
  00013	8d 42 0c	 lea	 eax, DWORD PTR [edx+12]
  00016	8b 4a d4	 mov	 ecx, DWORD PTR [edx-44]
  00019	33 c8		 xor	 ecx, eax
  0001b	e8 00 00 00 00	 call	 @__security_check_cookie@4
  00020	8b 4a fc	 mov	 ecx, DWORD PTR [edx-4]
  00023	33 c8		 xor	 ecx, eax
  00025	e8 00 00 00 00	 call	 @__security_check_cookie@4
  0002a	b8 00 00 00 00	 mov	 eax, OFFSET __ehfuncinfo$?eventRegisterEventSetFromString@@YAPAU_object@@PAU1@0@Z
  0002f	e9 00 00 00 00	 jmp	 ___CxxFrameHandler3
text$x	ENDS
?eventRegisterEventSetFromString@@YAPAU_object@@PAU1@0@Z ENDP ; eventRegisterEventSetFromString
; Function compile flags: /Ogtp
; File C:\Anka2Project\Anka2Project\Source\Binary\source\UserInterface\PythonEventManagerMoudle.cpp
; File C:\Anka2Project\Anka2Project\Source\Binary\source\eterBase\Singleton.h
; File C:\Anka2Project\Anka2Project\Source\Binary\source\UserInterface\PythonEventManagerMoudle.cpp
;	COMDAT ?eventGetEventSetLocalYPosition@@YAPAU_object@@PAU1@0@Z
_TEXT	SEGMENT
_iIndex$ = -4						; size = 4
_poSelf$ = 8						; size = 4
_poArgs$ = 12						; size = 4
?eventGetEventSetLocalYPosition@@YAPAU_object@@PAU1@0@Z PROC ; eventGetEventSetLocalYPosition, COMDAT

; 50   : {

  00000	55		 push	 ebp
  00001	8b ec		 mov	 ebp, esp
  00003	51		 push	 ecx

; 51   : 	int iIndex;
; 52   : 	if (!PyTuple_GetInteger(poArgs, 0, &iIndex))

  00004	8d 45 fc	 lea	 eax, DWORD PTR _iIndex$[ebp]
  00007	50		 push	 eax
  00008	6a 00		 push	 0
  0000a	ff 75 0c	 push	 DWORD PTR _poArgs$[ebp]
  0000d	e8 00 00 00 00	 call	 ?PyTuple_GetInteger@@YA_NPAU_object@@HPAH@Z ; PyTuple_GetInteger
  00012	83 c4 0c	 add	 esp, 12			; 0000000cH
  00015	84 c0		 test	 al, al
  00017	75 0e		 jne	 SHORT $LN2@eventGetEv

; 53   : 		return Py_BuildException();

  00019	6a 00		 push	 0
  0001b	e8 00 00 00 00	 call	 ?Py_BuildException@@YAPAU_object@@PBDZZ ; Py_BuildException
  00020	83 c4 04	 add	 esp, 4

; 56   : }

  00023	8b e5		 mov	 esp, ebp
  00025	5d		 pop	 ebp
  00026	c3		 ret	 0
$LN2@eventGetEv:
; File C:\Anka2Project\Anka2Project\Source\Binary\source\eterBase\Singleton.h

; 26   : 		assert(ms_singleton);

  00027	8b 0d 00 00 00
	00		 mov	 ecx, DWORD PTR ?ms_singleton@?$CSingleton@VCPythonEventManager@@@@0PAVCPythonEventManager@@A ; CSingleton<CPythonEventManager>::ms_singleton
  0002d	85 c9		 test	 ecx, ecx
  0002f	75 1a		 jne	 SHORT $LN6@eventGetEv
  00031	6a 1a		 push	 26			; 0000001aH
  00033	68 00 00 00 00	 push	 OFFSET ??_C@_1IO@CAJLEEOI@?$AAC?$AA?3?$AA?2?$AAA?$AAn?$AAk?$AAa?$AA2?$AAP?$AAr?$AAo?$AAj?$AAe?$AAc?$AAt@
  00038	68 00 00 00 00	 push	 OFFSET ??_C@_1BK@FMEHPMFE@?$AAm?$AAs?$AA_?$AAs?$AAi?$AAn?$AAg?$AAl?$AAe?$AAt?$AAo?$AAn@
  0003d	e8 00 00 00 00	 call	 __wassert
  00042	8b 0d 00 00 00
	00		 mov	 ecx, DWORD PTR ?ms_singleton@?$CSingleton@VCPythonEventManager@@@@0PAVCPythonEventManager@@A ; CSingleton<CPythonEventManager>::ms_singleton
  00048	83 c4 0c	 add	 esp, 12			; 0000000cH
$LN6@eventGetEv:
; File C:\Anka2Project\Anka2Project\Source\Binary\source\UserInterface\PythonEventManagerMoudle.cpp

; 55   : 	return Py_BuildValue("i", CPythonEventManager::Instance().GetEventSetLocalYPosition(iIndex));

  0004b	ff 75 fc	 push	 DWORD PTR _iIndex$[ebp]
  0004e	e8 00 00 00 00	 call	 ?GetEventSetLocalYPosition@CPythonEventManager@@QAEHH@Z ; CPythonEventManager::GetEventSetLocalYPosition
  00053	50		 push	 eax
  00054	68 00 00 00 00	 push	 OFFSET ??_C@_01KBJDNOO@i@
  00059	ff 15 00 00 00
	00		 call	 DWORD PTR __imp__Py_BuildValue
  0005f	83 c4 08	 add	 esp, 8

; 56   : }

  00062	8b e5		 mov	 esp, ebp
  00064	5d		 pop	 ebp
  00065	c3		 ret	 0
?eventGetEventSetLocalYPosition@@YAPAU_object@@PAU1@0@Z ENDP ; eventGetEventSetLocalYPosition
_TEXT	ENDS
; Function compile flags: /Ogtp
; File C:\Anka2Project\Anka2Project\Source\Binary\source\UserInterface\PythonEventManagerMoudle.cpp
; File C:\Anka2Project\Anka2Project\Source\Binary\source\eterBase\Singleton.h
; File C:\Anka2Project\Anka2Project\Source\Binary\source\UserInterface\PythonEventManagerMoudle.cpp
;	COMDAT ?eventIsWait@@YAPAU_object@@PAU1@0@Z
_TEXT	SEGMENT
_iIndex$ = -4						; size = 4
_poSelf$ = 8						; size = 4
_poArgs$ = 12						; size = 4
?eventIsWait@@YAPAU_object@@PAU1@0@Z PROC		; eventIsWait, COMDAT

; 152  : {

  00000	55		 push	 ebp
  00001	8b ec		 mov	 ebp, esp
  00003	51		 push	 ecx

; 153  : 	int iIndex;
; 154  : 	if (!PyTuple_GetInteger(poArgs, 0, &iIndex))

  00004	8d 45 fc	 lea	 eax, DWORD PTR _iIndex$[ebp]
  00007	50		 push	 eax
  00008	6a 00		 push	 0
  0000a	ff 75 0c	 push	 DWORD PTR _poArgs$[ebp]
  0000d	e8 00 00 00 00	 call	 ?PyTuple_GetInteger@@YA_NPAU_object@@HPAH@Z ; PyTuple_GetInteger
  00012	83 c4 0c	 add	 esp, 12			; 0000000cH
  00015	84 c0		 test	 al, al
  00017	75 0e		 jne	 SHORT $LN2@eventIsWai

; 155  : 		return Py_BuildException();

  00019	6a 00		 push	 0
  0001b	e8 00 00 00 00	 call	 ?Py_BuildException@@YAPAU_object@@PBDZZ ; Py_BuildException
  00020	83 c4 04	 add	 esp, 4

; 158  : }

  00023	8b e5		 mov	 esp, ebp
  00025	5d		 pop	 ebp
  00026	c3		 ret	 0
$LN2@eventIsWai:
; File C:\Anka2Project\Anka2Project\Source\Binary\source\eterBase\Singleton.h

; 26   : 		assert(ms_singleton);

  00027	8b 0d 00 00 00
	00		 mov	 ecx, DWORD PTR ?ms_singleton@?$CSingleton@VCPythonEventManager@@@@0PAVCPythonEventManager@@A ; CSingleton<CPythonEventManager>::ms_singleton
  0002d	85 c9		 test	 ecx, ecx
  0002f	75 1a		 jne	 SHORT $LN6@eventIsWai
  00031	6a 1a		 push	 26			; 0000001aH
  00033	68 00 00 00 00	 push	 OFFSET ??_C@_1IO@CAJLEEOI@?$AAC?$AA?3?$AA?2?$AAA?$AAn?$AAk?$AAa?$AA2?$AAP?$AAr?$AAo?$AAj?$AAe?$AAc?$AAt@
  00038	68 00 00 00 00	 push	 OFFSET ??_C@_1BK@FMEHPMFE@?$AAm?$AAs?$AA_?$AAs?$AAi?$AAn?$AAg?$AAl?$AAe?$AAt?$AAo?$AAn@
  0003d	e8 00 00 00 00	 call	 __wassert
  00042	8b 0d 00 00 00
	00		 mov	 ecx, DWORD PTR ?ms_singleton@?$CSingleton@VCPythonEventManager@@@@0PAVCPythonEventManager@@A ; CSingleton<CPythonEventManager>::ms_singleton
  00048	83 c4 0c	 add	 esp, 12			; 0000000cH
$LN6@eventIsWai:
; File C:\Anka2Project\Anka2Project\Source\Binary\source\UserInterface\PythonEventManagerMoudle.cpp

; 157  : 	return Py_BuildValue("i", CPythonEventManager::Instance().IsWait(iIndex) == true ? 1 : 0);

  0004b	ff 75 fc	 push	 DWORD PTR _iIndex$[ebp]
  0004e	e8 00 00 00 00	 call	 ?IsWait@CPythonEventManager@@QAE_NH@Z ; CPythonEventManager::IsWait
  00053	0f b6 c0	 movzx	 eax, al
  00056	50		 push	 eax
  00057	68 00 00 00 00	 push	 OFFSET ??_C@_01KBJDNOO@i@
  0005c	ff 15 00 00 00
	00		 call	 DWORD PTR __imp__Py_BuildValue
  00062	83 c4 08	 add	 esp, 8

; 158  : }

  00065	8b e5		 mov	 esp, ebp
  00067	5d		 pop	 ebp
  00068	c3		 ret	 0
?eventIsWait@@YAPAU_object@@PAU1@0@Z ENDP		; eventIsWait
_TEXT	ENDS
; Function compile flags: /Ogtp
; File C:\Anka2Project\Anka2Project\Source\Binary\source\UserInterface\PythonEventManagerMoudle.cpp
; File C:\Anka2Project\Anka2Project\Source\Binary\source\eterBase\Singleton.h
; File C:\Anka2Project\Anka2Project\Source\Binary\source\UserInterface\PythonEventManagerMoudle.cpp
;	COMDAT ?eventGetLineCount@@YAPAU_object@@PAU1@0@Z
_TEXT	SEGMENT
_iIndex$ = -4						; size = 4
_poSelf$ = 8						; size = 4
_poArgs$ = 12						; size = 4
?eventGetLineCount@@YAPAU_object@@PAU1@0@Z PROC		; eventGetLineCount, COMDAT

; 200  : {

  00000	55		 push	 ebp
  00001	8b ec		 mov	 ebp, esp
  00003	51		 push	 ecx

; 201  : 	int iIndex;
; 202  : 	if (!PyTuple_GetInteger(poArgs, 0, &iIndex))

  00004	8d 45 fc	 lea	 eax, DWORD PTR _iIndex$[ebp]
  00007	50		 push	 eax
  00008	6a 00		 push	 0
  0000a	ff 75 0c	 push	 DWORD PTR _poArgs$[ebp]
  0000d	e8 00 00 00 00	 call	 ?PyTuple_GetInteger@@YA_NPAU_object@@HPAH@Z ; PyTuple_GetInteger
  00012	83 c4 0c	 add	 esp, 12			; 0000000cH
  00015	84 c0		 test	 al, al
  00017	75 0e		 jne	 SHORT $LN2@eventGetLi

; 203  : 		return Py_BuildException();

  00019	6a 00		 push	 0
  0001b	e8 00 00 00 00	 call	 ?Py_BuildException@@YAPAU_object@@PBDZZ ; Py_BuildException
  00020	83 c4 04	 add	 esp, 4

; 207  : }

  00023	8b e5		 mov	 esp, ebp
  00025	5d		 pop	 ebp
  00026	c3		 ret	 0
$LN2@eventGetLi:
; File C:\Anka2Project\Anka2Project\Source\Binary\source\eterBase\Singleton.h

; 26   : 		assert(ms_singleton);

  00027	8b 0d 00 00 00
	00		 mov	 ecx, DWORD PTR ?ms_singleton@?$CSingleton@VCPythonEventManager@@@@0PAVCPythonEventManager@@A ; CSingleton<CPythonEventManager>::ms_singleton
  0002d	85 c9		 test	 ecx, ecx
  0002f	75 1a		 jne	 SHORT $LN6@eventGetLi
  00031	6a 1a		 push	 26			; 0000001aH
  00033	68 00 00 00 00	 push	 OFFSET ??_C@_1IO@CAJLEEOI@?$AAC?$AA?3?$AA?2?$AAA?$AAn?$AAk?$AAa?$AA2?$AAP?$AAr?$AAo?$AAj?$AAe?$AAc?$AAt@
  00038	68 00 00 00 00	 push	 OFFSET ??_C@_1BK@FMEHPMFE@?$AAm?$AAs?$AA_?$AAs?$AAi?$AAn?$AAg?$AAl?$AAe?$AAt?$AAo?$AAn@
  0003d	e8 00 00 00 00	 call	 __wassert
  00042	8b 0d 00 00 00
	00		 mov	 ecx, DWORD PTR ?ms_singleton@?$CSingleton@VCPythonEventManager@@@@0PAVCPythonEventManager@@A ; CSingleton<CPythonEventManager>::ms_singleton
  00048	83 c4 0c	 add	 esp, 12			; 0000000cH
$LN6@eventGetLi:
; File C:\Anka2Project\Anka2Project\Source\Binary\source\UserInterface\PythonEventManagerMoudle.cpp

; 205  : 	int iLineCount = CPythonEventManager::Instance().GetLineCount(iIndex);

  0004b	ff 75 fc	 push	 DWORD PTR _iIndex$[ebp]
  0004e	e8 00 00 00 00	 call	 ?GetLineCount@CPythonEventManager@@QAEHH@Z ; CPythonEventManager::GetLineCount

; 206  : 	return Py_BuildValue("i", iLineCount);

  00053	50		 push	 eax
  00054	68 00 00 00 00	 push	 OFFSET ??_C@_01KBJDNOO@i@
  00059	ff 15 00 00 00
	00		 call	 DWORD PTR __imp__Py_BuildValue
  0005f	83 c4 08	 add	 esp, 8

; 207  : }

  00062	8b e5		 mov	 esp, ebp
  00064	5d		 pop	 ebp
  00065	c3		 ret	 0
?eventGetLineCount@@YAPAU_object@@PAU1@0@Z ENDP		; eventGetLineCount
_TEXT	ENDS
; Function compile flags: /Ogtp
; File C:\Anka2Project\Anka2Project\Source\Binary\source\UserInterface\PythonEventManagerMoudle.cpp
; File C:\Anka2Project\Anka2Project\Source\Binary\source\eterBase\Singleton.h
; File C:\Anka2Project\Anka2Project\Source\Binary\source\UserInterface\PythonEventManagerMoudle.cpp
;	COMDAT ?eventGetVisibleStartLine@@YAPAU_object@@PAU1@0@Z
_TEXT	SEGMENT
_iIndex$ = -4						; size = 4
_poSelf$ = 8						; size = 4
_poArgs$ = 12						; size = 4
?eventGetVisibleStartLine@@YAPAU_object@@PAU1@0@Z PROC	; eventGetVisibleStartLine, COMDAT

; 224  : {

  00000	55		 push	 ebp
  00001	8b ec		 mov	 ebp, esp
  00003	51		 push	 ecx

; 225  : 	int iIndex;
; 226  : 	if (!PyTuple_GetInteger(poArgs, 0, &iIndex))

  00004	8d 45 fc	 lea	 eax, DWORD PTR _iIndex$[ebp]
  00007	50		 push	 eax
  00008	6a 00		 push	 0
  0000a	ff 75 0c	 push	 DWORD PTR _poArgs$[ebp]
  0000d	e8 00 00 00 00	 call	 ?PyTuple_GetInteger@@YA_NPAU_object@@HPAH@Z ; PyTuple_GetInteger
  00012	83 c4 0c	 add	 esp, 12			; 0000000cH
  00015	84 c0		 test	 al, al
  00017	75 0e		 jne	 SHORT $LN2@eventGetVi

; 227  : 		return Py_BuildException();

  00019	6a 00		 push	 0
  0001b	e8 00 00 00 00	 call	 ?Py_BuildException@@YAPAU_object@@PBDZZ ; Py_BuildException
  00020	83 c4 04	 add	 esp, 4

; 230  : }

  00023	8b e5		 mov	 esp, ebp
  00025	5d		 pop	 ebp
  00026	c3		 ret	 0
$LN2@eventGetVi:
; File C:\Anka2Project\Anka2Project\Source\Binary\source\eterBase\Singleton.h

; 26   : 		assert(ms_singleton);

  00027	8b 0d 00 00 00
	00		 mov	 ecx, DWORD PTR ?ms_singleton@?$CSingleton@VCPythonEventManager@@@@0PAVCPythonEventManager@@A ; CSingleton<CPythonEventManager>::ms_singleton
  0002d	85 c9		 test	 ecx, ecx
  0002f	75 1a		 jne	 SHORT $LN6@eventGetVi
  00031	6a 1a		 push	 26			; 0000001aH
  00033	68 00 00 00 00	 push	 OFFSET ??_C@_1IO@CAJLEEOI@?$AAC?$AA?3?$AA?2?$AAA?$AAn?$AAk?$AAa?$AA2?$AAP?$AAr?$AAo?$AAj?$AAe?$AAc?$AAt@
  00038	68 00 00 00 00	 push	 OFFSET ??_C@_1BK@FMEHPMFE@?$AAm?$AAs?$AA_?$AAs?$AAi?$AAn?$AAg?$AAl?$AAe?$AAt?$AAo?$AAn@
  0003d	e8 00 00 00 00	 call	 __wassert
  00042	8b 0d 00 00 00
	00		 mov	 ecx, DWORD PTR ?ms_singleton@?$CSingleton@VCPythonEventManager@@@@0PAVCPythonEventManager@@A ; CSingleton<CPythonEventManager>::ms_singleton
  00048	83 c4 0c	 add	 esp, 12			; 0000000cH
$LN6@eventGetVi:
; File C:\Anka2Project\Anka2Project\Source\Binary\source\UserInterface\PythonEventManagerMoudle.cpp

; 229  : 	return Py_BuildValue("i", CPythonEventManager::Instance().GetVisibleStartLine(iIndex));

  0004b	ff 75 fc	 push	 DWORD PTR _iIndex$[ebp]
  0004e	e8 00 00 00 00	 call	 ?GetVisibleStartLine@CPythonEventManager@@QAEHH@Z ; CPythonEventManager::GetVisibleStartLine
  00053	50		 push	 eax
  00054	68 00 00 00 00	 push	 OFFSET ??_C@_01KBJDNOO@i@
  00059	ff 15 00 00 00
	00		 call	 DWORD PTR __imp__Py_BuildValue
  0005f	83 c4 08	 add	 esp, 8

; 230  : }

  00062	8b e5		 mov	 esp, ebp
  00064	5d		 pop	 ebp
  00065	c3		 ret	 0
?eventGetVisibleStartLine@@YAPAU_object@@PAU1@0@Z ENDP	; eventGetVisibleStartLine
_TEXT	ENDS
; Function compile flags: /Ogtp
; File C:\Anka2Project\Anka2Project\Source\Binary\source\UserInterface\PythonEventManagerMoudle.cpp
; File C:\Anka2Project\Anka2Project\Source\Binary\source\eterBase\Singleton.h
; File C:\Anka2Project\Anka2Project\Source\Binary\source\UserInterface\PythonEventManagerMoudle.cpp
;	COMDAT ?eventGetLineHeight@@YAPAU_object@@PAU1@0@Z
_TEXT	SEGMENT
_iIndex$ = -4						; size = 4
_poSelf$ = 8						; size = 4
_poArgs$ = 12						; size = 4
?eventGetLineHeight@@YAPAU_object@@PAU1@0@Z PROC	; eventGetLineHeight, COMDAT

; 288  : {

  00000	55		 push	 ebp
  00001	8b ec		 mov	 ebp, esp
  00003	51		 push	 ecx

; 289  : 	int iIndex;
; 290  : 	if (!PyTuple_GetInteger(poArgs, 0, &iIndex))

  00004	8d 45 fc	 lea	 eax, DWORD PTR _iIndex$[ebp]
  00007	50		 push	 eax
  00008	6a 00		 push	 0
  0000a	ff 75 0c	 push	 DWORD PTR _poArgs$[ebp]
  0000d	e8 00 00 00 00	 call	 ?PyTuple_GetInteger@@YA_NPAU_object@@HPAH@Z ; PyTuple_GetInteger
  00012	83 c4 0c	 add	 esp, 12			; 0000000cH
  00015	84 c0		 test	 al, al
  00017	75 0e		 jne	 SHORT $LN2@eventGetLi

; 291  : 		return Py_BuildException();

  00019	6a 00		 push	 0
  0001b	e8 00 00 00 00	 call	 ?Py_BuildException@@YAPAU_object@@PBDZZ ; Py_BuildException
  00020	83 c4 04	 add	 esp, 4

; 294  : }

  00023	8b e5		 mov	 esp, ebp
  00025	5d		 pop	 ebp
  00026	c3		 ret	 0
$LN2@eventGetLi:
; File C:\Anka2Project\Anka2Project\Source\Binary\source\eterBase\Singleton.h

; 26   : 		assert(ms_singleton);

  00027	8b 0d 00 00 00
	00		 mov	 ecx, DWORD PTR ?ms_singleton@?$CSingleton@VCPythonEventManager@@@@0PAVCPythonEventManager@@A ; CSingleton<CPythonEventManager>::ms_singleton
  0002d	85 c9		 test	 ecx, ecx
  0002f	75 1a		 jne	 SHORT $LN6@eventGetLi
  00031	6a 1a		 push	 26			; 0000001aH
  00033	68 00 00 00 00	 push	 OFFSET ??_C@_1IO@CAJLEEOI@?$AAC?$AA?3?$AA?2?$AAA?$AAn?$AAk?$AAa?$AA2?$AAP?$AAr?$AAo?$AAj?$AAe?$AAc?$AAt@
  00038	68 00 00 00 00	 push	 OFFSET ??_C@_1BK@FMEHPMFE@?$AAm?$AAs?$AA_?$AAs?$AAi?$AAn?$AAg?$AAl?$AAe?$AAt?$AAo?$AAn@
  0003d	e8 00 00 00 00	 call	 __wassert
  00042	8b 0d 00 00 00
	00		 mov	 ecx, DWORD PTR ?ms_singleton@?$CSingleton@VCPythonEventManager@@@@0PAVCPythonEventManager@@A ; CSingleton<CPythonEventManager>::ms_singleton
  00048	83 c4 0c	 add	 esp, 12			; 0000000cH
$LN6@eventGetLi:
; File C:\Anka2Project\Anka2Project\Source\Binary\source\UserInterface\PythonEventManagerMoudle.cpp

; 293  : 	return Py_BuildValue("i", CPythonEventManager::Instance().GetLineHeight(iIndex));

  0004b	ff 75 fc	 push	 DWORD PTR _iIndex$[ebp]
  0004e	e8 00 00 00 00	 call	 ?GetLineHeight@CPythonEventManager@@QAEHH@Z ; CPythonEventManager::GetLineHeight
  00053	50		 push	 eax
  00054	68 00 00 00 00	 push	 OFFSET ??_C@_01KBJDNOO@i@
  00059	ff 15 00 00 00
	00		 call	 DWORD PTR __imp__Py_BuildValue
  0005f	83 c4 08	 add	 esp, 8

; 294  : }

  00062	8b e5		 mov	 esp, ebp
  00064	5d		 pop	 ebp
  00065	c3		 ret	 0
?eventGetLineHeight@@YAPAU_object@@PAU1@0@Z ENDP	; eventGetLineHeight
_TEXT	ENDS
; Function compile flags: /Ogtp
; File C:\Anka2Project\Anka2Project\Source\Binary\source\UserInterface\PythonEventManagerMoudle.cpp
; File C:\Anka2Project\Anka2Project\Source\Binary\source\eterBase\Singleton.h
; File C:\Anka2Project\Anka2Project\Source\Binary\source\UserInterface\PythonEventManagerMoudle.cpp
;	COMDAT ?eventGetProcessedLineCount@@YAPAU_object@@PAU1@0@Z
_TEXT	SEGMENT
_iIndex$ = -4						; size = 4
_poSelf$ = 8						; size = 4
_poArgs$ = 12						; size = 4
?eventGetProcessedLineCount@@YAPAU_object@@PAU1@0@Z PROC ; eventGetProcessedLineCount, COMDAT

; 310  : {

  00000	55		 push	 ebp
  00001	8b ec		 mov	 ebp, esp
  00003	51		 push	 ecx

; 311  : 	int iIndex;
; 312  : 	if (!PyTuple_GetInteger(poArgs, 0, &iIndex))

  00004	8d 45 fc	 lea	 eax, DWORD PTR _iIndex$[ebp]
  00007	50		 push	 eax
  00008	6a 00		 push	 0
  0000a	ff 75 0c	 push	 DWORD PTR _poArgs$[ebp]
  0000d	e8 00 00 00 00	 call	 ?PyTuple_GetInteger@@YA_NPAU_object@@HPAH@Z ; PyTuple_GetInteger
  00012	83 c4 0c	 add	 esp, 12			; 0000000cH
  00015	84 c0		 test	 al, al
  00017	75 0e		 jne	 SHORT $LN2@eventGetPr

; 313  : 		return Py_BuildException();

  00019	6a 00		 push	 0
  0001b	e8 00 00 00 00	 call	 ?Py_BuildException@@YAPAU_object@@PBDZZ ; Py_BuildException
  00020	83 c4 04	 add	 esp, 4

; 316  : }

  00023	8b e5		 mov	 esp, ebp
  00025	5d		 pop	 ebp
  00026	c3		 ret	 0
$LN2@eventGetPr:
; File C:\Anka2Project\Anka2Project\Source\Binary\source\eterBase\Singleton.h

; 26   : 		assert(ms_singleton);

  00027	8b 0d 00 00 00
	00		 mov	 ecx, DWORD PTR ?ms_singleton@?$CSingleton@VCPythonEventManager@@@@0PAVCPythonEventManager@@A ; CSingleton<CPythonEventManager>::ms_singleton
  0002d	85 c9		 test	 ecx, ecx
  0002f	75 1a		 jne	 SHORT $LN6@eventGetPr
  00031	6a 1a		 push	 26			; 0000001aH
  00033	68 00 00 00 00	 push	 OFFSET ??_C@_1IO@CAJLEEOI@?$AAC?$AA?3?$AA?2?$AAA?$AAn?$AAk?$AAa?$AA2?$AAP?$AAr?$AAo?$AAj?$AAe?$AAc?$AAt@
  00038	68 00 00 00 00	 push	 OFFSET ??_C@_1BK@FMEHPMFE@?$AAm?$AAs?$AA_?$AAs?$AAi?$AAn?$AAg?$AAl?$AAe?$AAt?$AAo?$AAn@
  0003d	e8 00 00 00 00	 call	 __wassert
  00042	8b 0d 00 00 00
	00		 mov	 ecx, DWORD PTR ?ms_singleton@?$CSingleton@VCPythonEventManager@@@@0PAVCPythonEventManager@@A ; CSingleton<CPythonEventManager>::ms_singleton
  00048	83 c4 0c	 add	 esp, 12			; 0000000cH
$LN6@eventGetPr:
; File C:\Anka2Project\Anka2Project\Source\Binary\source\UserInterface\PythonEventManagerMoudle.cpp

; 315  : 	return Py_BuildValue("i", CPythonEventManager::Instance().GetProcessedLineCount(iIndex));

  0004b	ff 75 fc	 push	 DWORD PTR _iIndex$[ebp]
  0004e	e8 00 00 00 00	 call	 ?GetProcessedLineCount@CPythonEventManager@@QAEHH@Z ; CPythonEventManager::GetProcessedLineCount
  00053	50		 push	 eax
  00054	68 00 00 00 00	 push	 OFFSET ??_C@_01KBJDNOO@i@
  00059	ff 15 00 00 00
	00		 call	 DWORD PTR __imp__Py_BuildValue
  0005f	83 c4 08	 add	 esp, 8

; 316  : }

  00062	8b e5		 mov	 esp, ebp
  00064	5d		 pop	 ebp
  00065	c3		 ret	 0
?eventGetProcessedLineCount@@YAPAU_object@@PAU1@0@Z ENDP ; eventGetProcessedLineCount
_TEXT	ENDS
; Function compile flags: /Ogtp
; File C:\Anka2Project\Anka2Project\Source\Binary\source\UserInterface\PythonEventManagerMoudle.cpp
; File C:\Anka2Project\Anka2Project\Source\Binary\source\eterBase\Singleton.h
; File C:\Anka2Project\Anka2Project\Source\Binary\source\UserInterface\PythonEventManagerMoudle.cpp
;	COMDAT ?eventGetTotalLineCount@@YAPAU_object@@PAU1@0@Z
_TEXT	SEGMENT
_iIndex$ = -4						; size = 4
_poSelf$ = 8						; size = 4
_poArgs$ = 12						; size = 4
?eventGetTotalLineCount@@YAPAU_object@@PAU1@0@Z PROC	; eventGetTotalLineCount, COMDAT

; 329  : {

  00000	55		 push	 ebp
  00001	8b ec		 mov	 ebp, esp
  00003	51		 push	 ecx

; 330  : 	int iIndex;
; 331  : 	if (!PyTuple_GetInteger(poArgs, 0, &iIndex))

  00004	8d 45 fc	 lea	 eax, DWORD PTR _iIndex$[ebp]
  00007	50		 push	 eax
  00008	6a 00		 push	 0
  0000a	ff 75 0c	 push	 DWORD PTR _poArgs$[ebp]
  0000d	e8 00 00 00 00	 call	 ?PyTuple_GetInteger@@YA_NPAU_object@@HPAH@Z ; PyTuple_GetInteger
  00012	83 c4 0c	 add	 esp, 12			; 0000000cH
  00015	84 c0		 test	 al, al
  00017	75 0e		 jne	 SHORT $LN2@eventGetTo

; 332  : 		return Py_BuildException();

  00019	6a 00		 push	 0
  0001b	e8 00 00 00 00	 call	 ?Py_BuildException@@YAPAU_object@@PBDZZ ; Py_BuildException
  00020	83 c4 04	 add	 esp, 4

; 335  : }

  00023	8b e5		 mov	 esp, ebp
  00025	5d		 pop	 ebp
  00026	c3		 ret	 0
$LN2@eventGetTo:
; File C:\Anka2Project\Anka2Project\Source\Binary\source\eterBase\Singleton.h

; 26   : 		assert(ms_singleton);

  00027	8b 0d 00 00 00
	00		 mov	 ecx, DWORD PTR ?ms_singleton@?$CSingleton@VCPythonEventManager@@@@0PAVCPythonEventManager@@A ; CSingleton<CPythonEventManager>::ms_singleton
  0002d	85 c9		 test	 ecx, ecx
  0002f	75 1a		 jne	 SHORT $LN6@eventGetTo
  00031	6a 1a		 push	 26			; 0000001aH
  00033	68 00 00 00 00	 push	 OFFSET ??_C@_1IO@CAJLEEOI@?$AAC?$AA?3?$AA?2?$AAA?$AAn?$AAk?$AAa?$AA2?$AAP?$AAr?$AAo?$AAj?$AAe?$AAc?$AAt@
  00038	68 00 00 00 00	 push	 OFFSET ??_C@_1BK@FMEHPMFE@?$AAm?$AAs?$AA_?$AAs?$AAi?$AAn?$AAg?$AAl?$AAe?$AAt?$AAo?$AAn@
  0003d	e8 00 00 00 00	 call	 __wassert
  00042	8b 0d 00 00 00
	00		 mov	 ecx, DWORD PTR ?ms_singleton@?$CSingleton@VCPythonEventManager@@@@0PAVCPythonEventManager@@A ; CSingleton<CPythonEventManager>::ms_singleton
  00048	83 c4 0c	 add	 esp, 12			; 0000000cH
$LN6@eventGetTo:
; File C:\Anka2Project\Anka2Project\Source\Binary\source\UserInterface\PythonEventManagerMoudle.cpp

; 334  : 	return Py_BuildValue("i", CPythonEventManager::Instance().GetTotalLineCount(iIndex));

  0004b	ff 75 fc	 push	 DWORD PTR _iIndex$[ebp]
  0004e	e8 00 00 00 00	 call	 ?GetTotalLineCount@CPythonEventManager@@QAEHH@Z ; CPythonEventManager::GetTotalLineCount
  00053	50		 push	 eax
  00054	68 00 00 00 00	 push	 OFFSET ??_C@_01KBJDNOO@i@
  00059	ff 15 00 00 00
	00		 call	 DWORD PTR __imp__Py_BuildValue
  0005f	83 c4 08	 add	 esp, 8

; 335  : }

  00062	8b e5		 mov	 esp, ebp
  00064	5d		 pop	 ebp
  00065	c3		 ret	 0
?eventGetTotalLineCount@@YAPAU_object@@PAU1@0@Z ENDP	; eventGetTotalLineCount
_TEXT	ENDS
; Function compile flags: /Ogtp
; File C:\Anka2Project\Anka2Project\Source\Binary\source\UserInterface\PythonEventManagerMoudle.cpp
;	COMDAT ?initEvent@@YAXXZ
_TEXT	SEGMENT
?initEvent@@YAXXZ PROC					; initEvent, COMDAT

; 339  : {

  00000	56		 push	 esi
  00001	57		 push	 edi

; 340  : 	static PyMethodDef s_methods[] =
; 341  : 	{
; 342  : 		{ "RegisterEventSet",			eventRegisterEventSet,				METH_VARARGS },
; 343  : 		{ "RegisterEventSetFromString",	eventRegisterEventSetFromString,	METH_VARARGS },
; 344  : 		{ "ClearEventSet",				eventClearEventSet,					METH_VARARGS },
; 345  : 
; 346  : 		{ "SetRestrictedCount",			eventSetRestrictedCount,			METH_VARARGS },
; 347  : 
; 348  : 		{ "GetEventSetLocalYPosition",	eventGetEventSetLocalYPosition,		METH_VARARGS },
; 349  : 		{ "AddEventSetLocalYPosition",	eventAddEventSetLocalYPosition,		METH_VARARGS },
; 350  : 		{ "InsertText",					eventInsertText,					METH_VARARGS },
; 351  : 		{ "InsertTextInline",			eventInsertTextInline,				METH_VARARGS },
; 352  : 
; 353  : 		{ "UpdateEventSet",				eventUpdateEventSet,				METH_VARARGS },
; 354  : 		{ "RenderEventSet",				eventRenderEventSet,				METH_VARARGS },
; 355  : 		{ "SetEventSetWidth",			eventSetEventSetWidth,				METH_VARARGS },
; 356  : 
; 357  : 		{ "Skip",						eventSkip,							METH_VARARGS },
; 358  : 		{ "IsWait",						eventIsWait,						METH_VARARGS },
; 359  : 		{ "EndEventProcess",			eventEndEventProcess,				METH_VARARGS },
; 360  : 
; 361  : 		{ "SelectAnswer",				eventSelectAnswer,					METH_VARARGS },
; 362  : 		{ "GetLineCount",				eventGetLineCount,					METH_VARARGS },
; 363  : 		{ "SetVisibleStartLine",		eventSetVisibleStartLine,			METH_VARARGS },
; 364  : 		{ "GetVisibleStartLine",		eventGetVisibleStartLine,			METH_VARARGS },
; 365  : 
; 366  : 		{ "SetEventHandler",			eventSetEventHandler,				METH_VARARGS },
; 367  : 		{ "SetInterfaceWindow",			eventSetInterfaceWindow,			METH_VARARGS },
; 368  : 		{ "SetLeftTimeString",			eventSetLeftTimeString,				METH_VARARGS },
; 369  : 
; 370  : 		{ "QuestButtonClick",			eventQuestButtonClick,				METH_VARARGS },
; 371  : 		{ "Destroy",					eventDestroy,						METH_VARARGS },
; 372  : 
; 373  : #ifdef ENABLE_PYTHON_EVENT_FUNCTIONS
; 374  : 		{ "SetVisibleLineCount",		eventSetVisibleLineCount,			METH_VARARGS },
; 375  : 		{ "GetLineHeight",				eventGetLineHeight,					METH_VARARGS },
; 376  : 		{ "SetYPosition",				eventSetYPosition,					METH_VARARGS },
; 377  : 		{ "GetProcessedLineCount",		eventGetProcessedLineCount,			METH_VARARGS },
; 378  : 		{ "AllProcessEventSet",			eventAllProcessEventSet,			METH_VARARGS },
; 379  : 		{ "GetTotalLineCount",			eventGetTotalLineCount,				METH_VARARGS },
; 380  : #endif
; 381  : 
; 382  : 		{ nullptr,							nullptr,								NULL		 },
; 383  : 	};
; 384  : 
; 385  : 	PyObject *poModule = Py_InitModule("event", s_methods);

  00002	68 f5 03 00 00	 push	 1013			; 000003f5H
  00007	6a 00		 push	 0
  00009	6a 00		 push	 0
  0000b	68 00 00 00 00	 push	 OFFSET ?s_methods@?1??initEvent@@YAXXZ@4PAUPyMethodDef@@A
  00010	68 00 00 00 00	 push	 OFFSET ??_C@_05GFHEIIDD@event@
  00015	ff 15 00 00 00
	00		 call	 DWORD PTR __imp__Py_InitModule4

; 386  : 
; 387  : 	PyModule_AddIntConstant(poModule, "BOX_VISIBLE_LINE_COUNT", CPythonEventManager::BOX_VISIBLE_LINE_COUNT);

  0001b	8b 35 00 00 00
	00		 mov	 esi, DWORD PTR __imp__PyModule_AddIntConstant
  00021	8b f8		 mov	 edi, eax
  00023	6a 0f		 push	 15			; 0000000fH
  00025	68 00 00 00 00	 push	 OFFSET ??_C@_0BH@NLEPPNKM@BOX_VISIBLE_LINE_COUNT@
  0002a	57		 push	 edi
  0002b	ff d6		 call	 esi

; 388  : 	PyModule_AddIntConstant(poModule, "BUTTON_TYPE_NEXT", CPythonEventManager::BUTTON_TYPE_NEXT);

  0002d	6a 00		 push	 0
  0002f	68 00 00 00 00	 push	 OFFSET ??_C@_0BB@LIHDEJBM@BUTTON_TYPE_NEXT@
  00034	57		 push	 edi
  00035	ff d6		 call	 esi

; 389  : 	PyModule_AddIntConstant(poModule, "BUTTON_TYPE_DONE", CPythonEventManager::BUTTON_TYPE_DONE);

  00037	6a 01		 push	 1
  00039	68 00 00 00 00	 push	 OFFSET ??_C@_0BB@NGAMENAL@BUTTON_TYPE_DONE@
  0003e	57		 push	 edi
  0003f	ff d6		 call	 esi

; 390  : 	PyModule_AddIntConstant(poModule, "BUTTON_TYPE_CANCEL", CPythonEventManager::BUTTON_TYPE_CANCEL);

  00041	6a 02		 push	 2
  00043	68 00 00 00 00	 push	 OFFSET ??_C@_0BD@BLMCHNOK@BUTTON_TYPE_CANCEL@
  00048	57		 push	 edi
  00049	ff d6		 call	 esi
  0004b	83 c4 44	 add	 esp, 68			; 00000044H
  0004e	5f		 pop	 edi
  0004f	5e		 pop	 esi

; 391  : }

  00050	c3		 ret	 0
?initEvent@@YAXXZ ENDP					; initEvent
_TEXT	ENDS
END
