; Listing generated by Microsoft (R) Optimizing Compiler Version 19.44.35219.0 

	TITLE	c:\anka2project\anka2project\source\binary\vs_files\userinterface\release\pythontexttail.obj
	.686P
	.XMM
	include listing.inc
	.model	flat

INCLUDELIB OLDNAMES

PUBLIC	??_C@_1KG@EOMJEEJK@?$AAC?$AA?3?$AA?2?$AAA?$AAn?$AAk?$AAa?$AA2?$AAP?$AAr?$AAo?$AAj?$AAe?$AAc?$AAt@ ; `string'
PUBLIC	??_C@_0FG@PPLFOIJH@TextTail?3?5ChatTail?5?$CFd?0?5ChrTail?5@ ; `string'
PUBLIC	??_C@_1DI@JNPFFBHI@?$AAg?$AAs?$AA_?$AAT?$AAe?$AAx?$AAt?$AAT?$AAa?$AAi?$AAl?$AA_?$AAL?$AAi?$AAv@ ; `string'
PUBLIC	??_C@_0BC@IBMACGLG@?5?$HMcFFFF8C00?$FLL?$FN?$HMr?5@ ; `string'
PUBLIC	??_C@_0O@HLPIIHNN@Tahoma?312?4fnt@		; `string'
PUBLIC	??_C@_0CH@FJLHMJJF@d?3?1ymir?5work?1ui?1game?1emoji?1flag@ ; `string'
PUBLIC	??_C@_0BC@MKHCBNFN@?5?$HMcFF01796F?$FLG?$FN?$HMr?5@ ; `string'
PUBLIC	??_C@_0DM@EALAGA@?5CPythonTextTail?3?3DeleteItemTex@ ; `string'
PUBLIC	??_C@_0DO@PHLLOPOI@CPythonTextTail?3?3DeleteCharacte@ ; `string'
PUBLIC	??_C@_0DH@ONGBNPOP@CPythonTextTail?3?3Initialize?5?9?5C@ ; `string'
PUBLIC	??_R2STextTail@CPythonTextTail@@8		; CPythonTextTail::STextTail::`RTTI Base Class Array'
PUBLIC	??_R2?$CDynamicPool@USTextTail@CPythonTextTail@@@@8 ; CDynamicPool<CPythonTextTail::STextTail>::`RTTI Base Class Array'
PUBLIC	??_R2?$CSingleton@VCPythonTextTail@@@@8		; CSingleton<CPythonTextTail>::`RTTI Base Class Array'
PUBLIC	??_R2CPythonTextTail@@8				; CPythonTextTail::`RTTI Base Class Array'
PUBLIC	??_R1A@?0A@EA@STextTail@CPythonTextTail@@8	; CPythonTextTail::STextTail::`RTTI Base Class Descriptor at (0,-1,0,64)'
PUBLIC	??_R1A@?0A@EA@?$CDynamicPool@USTextTail@CPythonTextTail@@@@8 ; CDynamicPool<CPythonTextTail::STextTail>::`RTTI Base Class Descriptor at (0,-1,0,64)'
PUBLIC	??_R1A@?0A@EA@?$CSingleton@VCPythonTextTail@@@@8 ; CSingleton<CPythonTextTail>::`RTTI Base Class Descriptor at (0,-1,0,64)'
PUBLIC	??_R1A@?0A@EA@CPythonTextTail@@8		; CPythonTextTail::`RTTI Base Class Descriptor at (0,-1,0,64)'
PUBLIC	??_R0?AV?$CDynamicPool@USTextTail@CPythonTextTail@@@@@8 ; CDynamicPool<CPythonTextTail::STextTail> `RTTI Type Descriptor'
PUBLIC	??_R3?$CDynamicPool@USTextTail@CPythonTextTail@@@@8 ; CDynamicPool<CPythonTextTail::STextTail>::`RTTI Class Hierarchy Descriptor'
PUBLIC	??_R0?AUSTextTail@CPythonTextTail@@@8		; CPythonTextTail::STextTail `RTTI Type Descriptor'
PUBLIC	??_R3STextTail@CPythonTextTail@@8		; CPythonTextTail::STextTail::`RTTI Class Hierarchy Descriptor'
PUBLIC	??_R0?AV?$CSingleton@VCPythonTextTail@@@@@8	; CSingleton<CPythonTextTail> `RTTI Type Descriptor'
PUBLIC	??_R3?$CSingleton@VCPythonTextTail@@@@8		; CSingleton<CPythonTextTail>::`RTTI Class Hierarchy Descriptor'
PUBLIC	??_R0?AVCPythonTextTail@@@8			; CPythonTextTail `RTTI Type Descriptor'
PUBLIC	??_R3CPythonTextTail@@8				; CPythonTextTail::`RTTI Class Hierarchy Descriptor'
PUBLIC	??_R4STextTail@CPythonTextTail@@6B@		; CPythonTextTail::STextTail::`RTTI Complete Object Locator'
PUBLIC	??_R4?$CDynamicPool@USTextTail@CPythonTextTail@@@@6B@ ; CDynamicPool<CPythonTextTail::STextTail>::`RTTI Complete Object Locator'
PUBLIC	??_R4?$CSingleton@VCPythonTextTail@@@@6B@	; CSingleton<CPythonTextTail>::`RTTI Complete Object Locator'
PUBLIC	??_R4CPythonTextTail@@6B@			; CPythonTextTail::`RTTI Complete Object Locator'
PUBLIC	??_7?$CDynamicPool@USTextTail@CPythonTextTail@@@@6B@ ; CDynamicPool<CPythonTextTail::STextTail>::`vftable'
PUBLIC	??_7?$CSingleton@VCPythonTextTail@@@@6B@	; CSingleton<CPythonTextTail>::`vftable'
PUBLIC	??_7CPythonTextTail@@6B@			; CPythonTextTail::`vftable'
PUBLIC	??_C@_01NBENCBCI@?$CK@				; `string'
PUBLIC	?gs_TextTail_LivingTime@@3JA			; gs_TextTail_LivingTime
PUBLIC	?ms_pFont@@3PAVCGraphicText@@A			; ms_pFont
PUBLIC	?bPKTitleEnable@@3HA				; bPKTitleEnable
PUBLIC	??_7STextTail@CPythonTextTail@@6B@		; CPythonTextTail::STextTail::`vftable'
EXTRN	?Delete@CGraphicTextInstance@@SAXPAV1@@Z:PROC	; CGraphicTextInstance::Delete
EXTRN	?Delete@CGraphicMarkInstance@@SAXPAV1@@Z:PROC	; CGraphicMarkInstance::Delete
EXTRN	?New@CGraphicTextInstance@@SAPAV1@XZ:PROC	; CGraphicTextInstance::New
EXTRN	?IsFileExist@CResourceManager@@QAE_NPBD@Z:PROC	; CResourceManager::IsFileExist
EXTRN	?New@CGraphicMarkInstance@@SAPAV1@XZ:PROC	; CGraphicMarkInstance::New
EXTRN	?SetImageFileName@CGraphicMarkInstance@@QAEXPBD@Z:PROC ; CGraphicMarkInstance::SetImageFileName
EXTRN	?Load@CGraphicMarkInstance@@QAEXXZ:PROC		; CGraphicMarkInstance::Load
EXTRN	?SetIndex@CGraphicMarkInstance@@QAEXI@Z:PROC	; CGraphicMarkInstance::SetIndex
EXTRN	?SetVerticalAlign@CGraphicTextInstance@@QAEXH@Z:PROC ; CGraphicTextInstance::SetVerticalAlign
EXTRN	?SetOutline@CGraphicTextInstance@@QAEX_N@Z:PROC	; CGraphicTextInstance::SetOutline
EXTRN	?RenderBar2d@CScreen@@QAEXMMMMM@Z:PROC		; CScreen::RenderBar2d
EXTRN	?GetWidth@CGraphicMarkInstance@@QAEHXZ:PROC	; CGraphicMarkInstance::GetWidth
EXTRN	?SetPosition@CGraphicMarkInstance@@QAEXMM@Z:PROC ; CGraphicMarkInstance::SetPosition
EXTRN	?Render@CGraphicMarkInstance@@QAEXXZ:PROC	; CGraphicMarkInstance::Render
EXTRN	?RenderBox2d@CScreen@@QAEXMMMMM@Z:PROC		; CScreen::RenderBox2d
EXTRN	?Identity@CScreen@@SAXXZ:PROC			; CScreen::Identity
EXTRN	?GetOrthoDepth@CPythonGraphic@@QAEMXZ:PROC	; CPythonGraphic::GetOrthoDepth
?ms_pFont@@3PAVCGraphicText@@A DD 01H DUP (?)		; ms_pFont
_BSS	ENDS
;	COMDAT ??_7STextTail@CPythonTextTail@@6B@
CONST	SEGMENT
??_7STextTail@CPythonTextTail@@6B@ DD FLAT:??_R4STextTail@CPythonTextTail@@6B@ ; CPythonTextTail::STextTail::`vftable'
	DD	FLAT:??_ESTextTail@CPythonTextTail@@UAEPAXI@Z
CONST	ENDS
;	COMDAT ??_C@_01NBENCBCI@?$CK@
CONST	SEGMENT
??_C@_01NBENCBCI@?$CK@ DB '*', 00H			; `string'
CONST	ENDS
;	COMDAT ??_7CPythonTextTail@@6B@
CONST	SEGMENT
??_7CPythonTextTail@@6B@ DD FLAT:??_R4CPythonTextTail@@6B@ ; CPythonTextTail::`vftable'
	DD	FLAT:??_ECPythonTextTail@@UAEPAXI@Z
CONST	ENDS
;	COMDAT ??_7?$CSingleton@VCPythonTextTail@@@@6B@
CONST	SEGMENT
??_7?$CSingleton@VCPythonTextTail@@@@6B@ DD FLAT:??_R4?$CSingleton@VCPythonTextTail@@@@6B@ ; CSingleton<CPythonTextTail>::`vftable'
	DD	FLAT:??_E?$CSingleton@VCPythonTextTail@@@@UAEPAXI@Z
CONST	ENDS
;	COMDAT ??_7?$CDynamicPool@USTextTail@CPythonTextTail@@@@6B@
CONST	SEGMENT
??_7?$CDynamicPool@USTextTail@CPythonTextTail@@@@6B@ DD FLAT:??_R4?$CDynamicPool@USTextTail@CPythonTextTail@@@@6B@ ; CDynamicPool<CPythonTextTail::STextTail>::`vftable'
	DD	FLAT:??_E?$CDynamicPool@USTextTail@CPythonTextTail@@@@UAEPAXI@Z
CONST	ENDS
;	COMDAT ??_R4CPythonTextTail@@6B@
rdata$r	SEGMENT
??_R4CPythonTextTail@@6B@ DD 00H			; CPythonTextTail::`RTTI Complete Object Locator'
	DD	00H
	DD	00H
	DD	FLAT:??_R0?AVCPythonTextTail@@@8
	DD	FLAT:??_R3CPythonTextTail@@8
rdata$r	ENDS
;	COMDAT ??_R4?$CSingleton@VCPythonTextTail@@@@6B@
rdata$r	SEGMENT
??_R4?$CSingleton@VCPythonTextTail@@@@6B@ DD 00H	; CSingleton<CPythonTextTail>::`RTTI Complete Object Locator'
	DD	00H
	DD	00H
	DD	FLAT:??_R0?AV?$CSingleton@VCPythonTextTail@@@@@8
	DD	FLAT:??_R3?$CSingleton@VCPythonTextTail@@@@8
rdata$r	ENDS
;	COMDAT ??_R4?$CDynamicPool@USTextTail@CPythonTextTail@@@@6B@
rdata$r	SEGMENT
??_R4?$CDynamicPool@USTextTail@CPythonTextTail@@@@6B@ DD 00H ; CDynamicPool<CPythonTextTail::STextTail>::`RTTI Complete Object Locator'
	DD	00H
	DD	00H
	DD	FLAT:??_R0?AV?$CDynamicPool@USTextTail@CPythonTextTail@@@@@8
	DD	FLAT:??_R3?$CDynamicPool@USTextTail@CPythonTextTail@@@@8
rdata$r	ENDS
;	COMDAT ??_R4STextTail@CPythonTextTail@@6B@
rdata$r	SEGMENT
??_R4STextTail@CPythonTextTail@@6B@ DD 00H		; CPythonTextTail::STextTail::`RTTI Complete Object Locator'
	DD	00H
	DD	00H
	DD	FLAT:??_R0?AUSTextTail@CPythonTextTail@@@8
	DD	FLAT:??_R3STextTail@CPythonTextTail@@8
rdata$r	ENDS
;	COMDAT ??_R3CPythonTextTail@@8
rdata$r	SEGMENT
??_R3CPythonTextTail@@8 DD 00H				; CPythonTextTail::`RTTI Class Hierarchy Descriptor'
	DD	00H
	DD	02H
	DD	FLAT:??_R2CPythonTextTail@@8
rdata$r	ENDS
;	COMDAT ??_R0?AVCPythonTextTail@@@8
data$rs	SEGMENT
??_R0?AVCPythonTextTail@@@8 DD FLAT:??_7type_info@@6B@	; CPythonTextTail `RTTI Type Descriptor'
	DD	00H
	DB	'.?AVCPythonTextTail@@', 00H
data$rs	ENDS
;	COMDAT ??_R3?$CSingleton@VCPythonTextTail@@@@8
rdata$r	SEGMENT
??_R3?$CSingleton@VCPythonTextTail@@@@8 DD 00H		; CSingleton<CPythonTextTail>::`RTTI Class Hierarchy Descriptor'
	DD	00H
	DD	01H
	DD	FLAT:??_R2?$CSingleton@VCPythonTextTail@@@@8
rdata$r	ENDS
;	COMDAT ??_R0?AV?$CSingleton@VCPythonTextTail@@@@@8
data$rs	SEGMENT
??_R0?AV?$CSingleton@VCPythonTextTail@@@@@8 DD FLAT:??_7type_info@@6B@ ; CSingleton<CPythonTextTail> `RTTI Type Descriptor'
	DD	00H
	DB	'.?AV?$CSingleton@VCPythonTextTail@@@@', 00H
data$rs	ENDS
;	COMDAT ??_R3STextTail@CPythonTextTail@@8
rdata$r	SEGMENT
??_R3STextTail@CPythonTextTail@@8 DD 00H		; CPythonTextTail::STextTail::`RTTI Class Hierarchy Descriptor'
	DD	00H
	DD	01H
	DD	FLAT:??_R2STextTail@CPythonTextTail@@8
rdata$r	ENDS
;	COMDAT ??_R0?AUSTextTail@CPythonTextTail@@@8
data$rs	SEGMENT
??_R0?AUSTextTail@CPythonTextTail@@@8 DD FLAT:??_7type_info@@6B@ ; CPythonTextTail::STextTail `RTTI Type Descriptor'
	DD	00H
	DB	'.?AUSTextTail@CPythonTextTail@@', 00H
data$rs	ENDS
;	COMDAT ??_R3?$CDynamicPool@USTextTail@CPythonTextTail@@@@8
rdata$r	SEGMENT
??_R3?$CDynamicPool@USTextTail@CPythonTextTail@@@@8 DD 00H ; CDynamicPool<CPythonTextTail::STextTail>::`RTTI Class Hierarchy Descriptor'
	DD	00H
	DD	01H
	DD	FLAT:??_R2?$CDynamicPool@USTextTail@CPythonTextTail@@@@8
rdata$r	ENDS
;	COMDAT ??_R0?AV?$CDynamicPool@USTextTail@CPythonTextTail@@@@@8
data$rs	SEGMENT
??_R0?AV?$CDynamicPool@USTextTail@CPythonTextTail@@@@@8 DD FLAT:??_7type_info@@6B@ ; CDynamicPool<CPythonTextTail::STextTail> `RTTI Type Descriptor'
	DD	00H
	DB	'.?AV?$CDynamicPool@USTextTail@CPythonTextTail@@@@', 00H
data$rs	ENDS
;	COMDAT ??_R1A@?0A@EA@CPythonTextTail@@8
rdata$r	SEGMENT
??_R1A@?0A@EA@CPythonTextTail@@8 DD FLAT:??_R0?AVCPythonTextTail@@@8 ; CPythonTextTail::`RTTI Base Class Descriptor at (0,-1,0,64)'
	DD	01H
	DD	00H
	DD	0ffffffffH
	DD	00H
	DD	040H
	DD	FLAT:??_R3CPythonTextTail@@8
rdata$r	ENDS
;	COMDAT ??_R1A@?0A@EA@?$CSingleton@VCPythonTextTail@@@@8
rdata$r	SEGMENT
??_R1A@?0A@EA@?$CSingleton@VCPythonTextTail@@@@8 DD FLAT:??_R0?AV?$CSingleton@VCPythonTextTail@@@@@8 ; CSingleton<CPythonTextTail>::`RTTI Base Class Descriptor at (0,-1,0,64)'
	DD	00H
	DD	00H
	DD	0ffffffffH
	DD	00H
	DD	040H
	DD	FLAT:??_R3?$CSingleton@VCPythonTextTail@@@@8
rdata$r	ENDS
;	COMDAT ??_R1A@?0A@EA@?$CDynamicPool@USTextTail@CPythonTextTail@@@@8
rdata$r	SEGMENT
??_R1A@?0A@EA@?$CDynamicPool@USTextTail@CPythonTextTail@@@@8 DD FLAT:??_R0?AV?$CDynamicPool@USTextTail@CPythonTextTail@@@@@8 ; CDynamicPool<CPythonTextTail::STextTail>::`RTTI Base Class Descriptor at (0,-1,0,64)'
	DD	00H
	DD	00H
	DD	0ffffffffH
	DD	00H
	DD	040H
	DD	FLAT:??_R3?$CDynamicPool@USTextTail@CPythonTextTail@@@@8
rdata$r	ENDS
;	COMDAT ??_R1A@?0A@EA@STextTail@CPythonTextTail@@8
rdata$r	SEGMENT
??_R1A@?0A@EA@STextTail@CPythonTextTail@@8 DD FLAT:??_R0?AUSTextTail@CPythonTextTail@@@8 ; CPythonTextTail::STextTail::`RTTI Base Class Descriptor at (0,-1,0,64)'
	DD	00H
	DD	00H
	DD	0ffffffffH
	DD	00H
	DD	040H
	DD	FLAT:??_R3STextTail@CPythonTextTail@@8
rdata$r	ENDS
;	COMDAT ??_R2CPythonTextTail@@8
rdata$r	SEGMENT
??_R2CPythonTextTail@@8 DD FLAT:??_R1A@?0A@EA@CPythonTextTail@@8 ; CPythonTextTail::`RTTI Base Class Array'
	DD	FLAT:??_R1A@?0A@EA@?$CSingleton@VCPythonTextTail@@@@8
rdata$r	ENDS
;	COMDAT ??_R2?$CSingleton@VCPythonTextTail@@@@8
rdata$r	SEGMENT
??_R2?$CSingleton@VCPythonTextTail@@@@8 DD FLAT:??_R1A@?0A@EA@?$CSingleton@VCPythonTextTail@@@@8 ; CSingleton<CPythonTextTail>::`RTTI Base Class Array'
rdata$r	ENDS
;	COMDAT ??_R2?$CDynamicPool@USTextTail@CPythonTextTail@@@@8
rdata$r	SEGMENT
??_R2?$CDynamicPool@USTextTail@CPythonTextTail@@@@8 DD FLAT:??_R1A@?0A@EA@?$CDynamicPool@USTextTail@CPythonTextTail@@@@8 ; CDynamicPool<CPythonTextTail::STextTail>::`RTTI Base Class Array'
rdata$r	ENDS
;	COMDAT ??_R2STextTail@CPythonTextTail@@8
rdata$r	SEGMENT
??_R2STextTail@CPythonTextTail@@8 DD FLAT:??_R1A@?0A@EA@STextTail@CPythonTextTail@@8 ; CPythonTextTail::STextTail::`RTTI Base Class Array'
rdata$r	ENDS
;	COMDAT ??_C@_0DH@ONGBNPOP@CPythonTextTail?3?3Initialize?5?9?5C@
CONST	SEGMENT
??_C@_0DH@ONGBNPOP@CPythonTextTail?3?3Initialize?5?9?5C@ DB 'CPythonTextT'
	DB	'ail::Initialize - CANNOT_FIND_DEFAULT_FONT', 00H ; `string'
CONST	ENDS
;	COMDAT ??_C@_0DO@PHLLOPOI@CPythonTextTail?3?3DeleteCharacte@
CONST	SEGMENT
??_C@_0DO@PHLLOPOI@CPythonTextTail?3?3DeleteCharacte@ DB 'CPythonTextTail'
	DB	'::DeleteCharacterTextTail - Find VID[%d] Error', 00H ; `string'
CONST	ENDS
;	COMDAT ??_C@_0DM@EALAGA@?5CPythonTextTail?3?3DeleteItemTex@
CONST	SEGMENT
??_C@_0DM@EALAGA@?5CPythonTextTail?3?3DeleteItemTex@ DB ' CPythonTextTail'
	DB	'::DeleteItemTextTail - None Item Text Tail', 0aH, 00H ; `string'
CONST	ENDS
;	COMDAT ??_C@_0BC@MKHCBNFN@?5?$HMcFF01796F?$FLG?$FN?$HMr?5@
CONST	SEGMENT
??_C@_0BC@MKHCBNFN@?5?$HMcFF01796F?$FLG?$FN?$HMr?5@ DB ' |cFF01796F[G]|r '
	DB	00H						; `string'
CONST	ENDS
;	COMDAT ??_C@_0CH@FJLHMJJF@d?3?1ymir?5work?1ui?1game?1emoji?1flag@
CONST	SEGMENT
??_C@_0CH@FJLHMJJF@d?3?1ymir?5work?1ui?1game?1emoji?1flag@ DB 'd:/ymir wo'
	DB	'rk/ui/game/emoji/flag/%s.tga', 00H		; `string'
CONST	ENDS
;	COMDAT ??_C@_0O@HLPIIHNN@Tahoma?312?4fnt@
CONST	SEGMENT
??_C@_0O@HLPIIHNN@Tahoma?312?4fnt@ DB 'Tahoma:12.fnt', 00H ; `string'
CONST	ENDS
;	COMDAT ??_C@_0BC@IBMACGLG@?5?$HMcFFFF8C00?$FLL?$FN?$HMr?5@
CONST	SEGMENT
??_C@_0BC@IBMACGLG@?5?$HMcFFFF8C00?$FLL?$FN?$HMr?5@ DB ' |cFFFF8C00[L]|r '
	DB	00H						; `string'
CONST	ENDS
;	COMDAT ??_C@_1DI@JNPFFBHI@?$AAg?$AAs?$AA_?$AAT?$AAe?$AAx?$AAt?$AAT?$AAa?$AAi?$AAl?$AA_?$AAL?$AAi?$AAv@
CONST	SEGMENT
??_C@_1DI@JNPFFBHI@?$AAg?$AAs?$AA_?$AAT?$AAe?$AAx?$AAt?$AAT?$AAa?$AAi?$AAl?$AA_?$AAL?$AAi?$AAv@ DB 'g'
	DB	00H, 's', 00H, '_', 00H, 'T', 00H, 'e', 00H, 'x', 00H, 't', 00H
	DB	'T', 00H, 'a', 00H, 'i', 00H, 'l', 00H, '_', 00H, 'L', 00H, 'i'
	DB	00H, 'v', 00H, 'i', 00H, 'n', 00H, 'g', 00H, 'T', 00H, 'i', 00H
	DB	'm', 00H, 'e', 00H, '>', 00H, '1', 00H, '0', 00H, '0', 00H, '0'
	DB	00H, 00H, 00H				; `string'
CONST	ENDS
;	COMDAT ??_C@_0FG@PPLFOIJH@TextTail?3?5ChatTail?5?$CFd?0?5ChrTail?5@
CONST	SEGMENT
??_C@_0FG@PPLFOIJH@TextTail?3?5ChatTail?5?$CFd?0?5ChrTail?5@ DB 'TextTail'
	DB	': ChatTail %d, ChrTail (Map %d, List %d), ItemTail (Map %d, L'
	DB	'ist %d), Pool %d', 00H			; `string'
CONST	ENDS
;	COMDAT ??_C@_1KG@EOMJEEJK@?$AAC?$AA?3?$AA?2?$AAA?$AAn?$AAk?$AAa?$AA2?$AAP?$AAr?$AAo?$AAj?$AAe?$AAc?$AAt@
CONST	SEGMENT
??_C@_1KG@EOMJEEJK@?$AAC?$AA?3?$AA?2?$AAA?$AAn?$AAk?$AAa?$AA2?$AAP?$AAr?$AAo?$AAj?$AAe?$AAc?$AAt@ DB 'C'
	DB	00H, ':', 00H, '\', 00H, 'A', 00H, 'n', 00H, 'k', 00H, 'a', 00H
	DB	'2', 00H, 'P', 00H, 'r', 00H, 'o', 00H, 'j', 00H, 'e', 00H, 'c'
	DB	00H, 't', 00H, '\', 00H, 'A', 00H, 'n', 00H, 'k', 00H, 'a', 00H
	DB	'2', 00H, 'P', 00H, 'r', 00H, 'o', 00H, 'j', 00H, 'e', 00H, 'c'
	DB	00H, 't', 00H, '\', 00H, 'S', 00H, 'o', 00H, 'u', 00H, 'r', 00H
	DB	'c', 00H, 'e', 00H, '\', 00H, 'B', 00H, 'i', 00H, 'n', 00H, 'a'
	DB	00H, 'r', 00H, 'y', 00H, '\', 00H, 's', 00H, 'o', 00H, 'u', 00H
	DB	'r', 00H, 'c', 00H, 'e', 00H, '\', 00H, 'U', 00H, 's', 00H, 'e'
	DB	00H, 'r', 00H, 'I', 00H, 'n', 00H, 't', 00H, 'e', 00H, 'r', 00H
	DB	'f', 00H, 'a', 00H, 'c', 00H, 'e', 00H, '\', 00H, 'P', 00H, 'y'
	DB	00H, 't', 00H, 'h', 00H, 'o', 00H, 'n', 00H, 'T', 00H, 'e', 00H
	DB	'x', 00H, 't', 00H, 'T', 00H, 'a', 00H, 'i', 00H, 'l', 00H, '.'
	DB	00H, 'c', 00H, 'p', 00H, 'p', 00H, 00H, 00H	; `string'
?gs_TextTail_LivingTime@@3JA DD 01388H			; gs_TextTail_LivingTime
?bPKTitleEnable@@3HA DD 01H				; bPKTitleEnable
PUBLIC	?D3DXVec2Length@@YAMPBUD3DXVECTOR2@@@Z		; D3DXVec2Length
PUBLIC	??$construct_at@PAUSTextTail@CPythonTextTail@@PAU12@@std@@YAPAPAUSTextTail@CPythonTextTail@@QAPAU12@$$QAPAU12@@Z ; std::construct_at<CPythonTextTail::STextTail *,CPythonTextTail::STextTail *>
PUBLIC	?_Get_first@?$_Compressed_pair@V?$allocator@PAUSTextTail@CPythonTextTail@@@std@@V?$_Vector_val@U?$_Simple_types@PAUSTextTail@CPythonTextTail@@@std@@@2@$00@std@@QBEABV?$allocator@PAUSTextTail@CPythonTextTail@@@2@XZ ; std::_Compressed_pair<std::allocator<CPythonTextTail::STextTail *>,std::_Vector_val<std::_Simple_types<CPythonTextTail::STextTail *> >,1>::_Get_first
PUBLIC	??$construct@PAUSTextTail@CPythonTextTail@@PAU12@@?$_Default_allocator_traits@V?$allocator@PAUSTextTail@CPythonTextTail@@@std@@@std@@SAXAAV?$allocator@PAUSTextTail@CPythonTextTail@@@1@QAPAUSTextTail@CPythonTextTail@@$$QAPAU34@@Z ; std::_Default_allocator_traits<std::allocator<CPythonTextTail::STextTail *> >::construct<CPythonTextTail::STextTail *,CPythonTextTail::STextTail *>
PUBLIC	??$forward@PAUSTextTail@CPythonTextTail@@@std@@YA$$QAPAUSTextTail@CPythonTextTail@@AAPAU12@@Z ; std::forward<CPythonTextTail::STextTail *>
PUBLIC	??$_Copy_memmove_tail@PAPAUSTextTail@CPythonTextTail@@@std@@YAPAPAUSTextTail@CPythonTextTail@@QBDQAPAU12@II@Z ; std::_Copy_memmove_tail<CPythonTextTail::STextTail * *>
PUBLIC	??$move@AAPAPAUSTextTail@CPythonTextTail@@@std@@YA$$QAPAPAUSTextTail@CPythonTextTail@@AAPAPAU12@@Z ; std::move<CPythonTextTail::STextTail * * &>
PUBLIC	??$to_address@PAUSTextTail@CPythonTextTail@@@std@@YAPAPAUSTextTail@CPythonTextTail@@QAPAU12@@Z ; std::to_address<CPythonTextTail::STextTail *>
PUBLIC	?allocate@?$allocator@PAUSTextTail@CPythonTextTail@@@std@@QAEPAPAUSTextTail@CPythonTextTail@@I@Z ; std::allocator<CPythonTextTail::STextTail *>::allocate
PUBLIC	?_Get_first@?$_Compressed_pair@V?$allocator@U?$_Tree_node@U?$pair@$$CBKPAUSTextTail@CPythonTextTail@@@std@@PAX@std@@@std@@V?$_Tree_val@U?$_Tree_simple_types@U?$pair@$$CBKPAUSTextTail@CPythonTextTail@@@std@@@std@@@2@$00@std@@QBEABV?$allocator@U?$_Tree_node@U?$pair@$$CBKPAUSTextTail@CPythonTextTail@@@std@@PAX@std@@@2@XZ ; std::_Compressed_pair<std::allocator<std::_Tree_node<std::pair<unsigned long const ,CPythonTextTail::STextTail *>,void *> >,std::_Tree_val<std::_Tree_simple_types<std::pair<unsigned long const ,CPythonTextTail::STextTail *> > >,1>::_Get_first
PUBLIC	?max_size@?$_Default_allocator_traits@V?$allocator@PAUSTextTail@CPythonTextTail@@@std@@@std@@SAIABV?$allocator@PAUSTextTail@CPythonTextTail@@@2@@Z ; std::_Default_allocator_traits<std::allocator<CPythonTextTail::STextTail *> >::max_size
PUBLIC	?capacity@?$vector@PAUSTextTail@CPythonTextTail@@V?$allocator@PAUSTextTail@CPythonTextTail@@@std@@@std@@QBEIXZ ; std::vector<CPythonTextTail::STextTail *,std::allocator<CPythonTextTail::STextTail *> >::capacity
PUBLIC	?_Getal@?$vector@PAUSTextTail@CPythonTextTail@@V?$allocator@PAUSTextTail@CPythonTextTail@@@std@@@std@@ABEABV?$allocator@PAUSTextTail@CPythonTextTail@@@2@XZ ; std::vector<CPythonTextTail::STextTail *,std::allocator<CPythonTextTail::STextTail *> >::_Getal
PUBLIC	??0?$_Uninitialized_backout_al@V?$allocator@PAUSTextTail@CPythonTextTail@@@std@@@std@@QAE@PAPAUSTextTail@CPythonTextTail@@AAV?$allocator@PAUSTextTail@CPythonTextTail@@@1@@Z ; std::_Uninitialized_backout_al<std::allocator<CPythonTextTail::STextTail *> >::_Uninitialized_backout_al<std::allocator<CPythonTextTail::STextTail *> >
PUBLIC	??1?$_Uninitialized_backout_al@V?$allocator@PAUSTextTail@CPythonTextTail@@@std@@@std@@QAE@XZ ; std::_Uninitialized_backout_al<std::allocator<CPythonTextTail::STextTail *> >::~_Uninitialized_backout_al<std::allocator<CPythonTextTail::STextTail *> >
PUBLIC	?_Release@?$_Uninitialized_backout_al@V?$allocator@PAUSTextTail@CPythonTextTail@@@std@@@std@@QAEPAPAUSTextTail@CPythonTextTail@@XZ ; std::_Uninitialized_backout_al<std::allocator<CPythonTextTail::STextTail *> >::_Release
PUBLIC	??$construct_at@PAU?$_Tree_node@U?$pair@$$CBKPAUSTextTail@CPythonTextTail@@@std@@PAX@std@@ABQAU12@@std@@YAPAPAU?$_Tree_node@U?$pair@$$CBKPAUSTextTail@CPythonTextTail@@@std@@PAX@0@QAPAU10@ABQAU10@@Z ; std::construct_at<std::_Tree_node<std::pair<unsigned long const ,CPythonTextTail::STextTail *>,void *> *,std::_Tree_node<std::pair<unsigned long const ,CPythonTextTail::STextTail *>,void *> * const &>
PUBLIC	??$forward@ABQAU?$_Tree_node@U?$pair@$$CBKPAUSTextTail@CPythonTextTail@@@std@@PAX@std@@@std@@YAABQAU?$_Tree_node@U?$pair@$$CBKPAUSTextTail@CPythonTextTail@@@std@@PAX@0@ABQAU10@@Z ; std::forward<std::_Tree_node<std::pair<unsigned long const ,CPythonTextTail::STextTail *>,void *> * const &>
PUBLIC	??$_Emplace_back@PAUSTextTail@CPythonTextTail@@@?$_Uninitialized_backout_al@V?$allocator@PAUSTextTail@CPythonTextTail@@@std@@@std@@QAEX$$QAPAUSTextTail@CPythonTextTail@@@Z ; std::_Uninitialized_backout_al<std::allocator<CPythonTextTail::STextTail *> >::_Emplace_back<CPythonTextTail::STextTail *>
PUBLIC	??$_To_address@PAPAUSTextTail@CPythonTextTail@@@std@@YA?A_PABQAPAUSTextTail@CPythonTextTail@@@Z ; std::_To_address<CPythonTextTail::STextTail * *>
PUBLIC	??$_Copy_memmove@PAPAUSTextTail@CPythonTextTail@@PAPAU12@@std@@YAPAPAUSTextTail@CPythonTextTail@@PAPAU12@00@Z ; std::_Copy_memmove<CPythonTextTail::STextTail * *,CPythonTextTail::STextTail * *>
PUBLIC	?_Getal@?$_Tree@V?$_Tmap_traits@KPAUSTextTail@CPythonTextTail@@U?$less@K@std@@V?$allocator@U?$pair@$$CBKPAUSTextTail@CPythonTextTail@@@std@@@4@$0A@@std@@@std@@IBEABV?$allocator@U?$_Tree_node@U?$pair@$$CBKPAUSTextTail@CPythonTextTail@@@std@@PAX@std@@@2@XZ ; std::_Tree<std::_Tmap_traits<unsigned long,CPythonTextTail::STextTail *,std::less<unsigned long>,std::allocator<std::pair<unsigned long const ,CPythonTextTail::STextTail *> >,0> >::_Getal
PUBLIC	??0?$allocator@U?$_Tree_node@U?$pair@$$CBKPAUSTextTail@CPythonTextTail@@@std@@PAX@std@@@std@@QAE@XZ ; std::allocator<std::_Tree_node<std::pair<unsigned long const ,CPythonTextTail::STextTail *>,void *> >::allocator<std::_Tree_node<std::pair<unsigned long const ,CPythonTextTail::STextTail *>,void *> >
PUBLIC	?deallocate@?$allocator@U?$_Tree_node@U?$pair@$$CBKPAUSTextTail@CPythonTextTail@@@std@@PAX@std@@@std@@QAEXQAU?$_Tree_node@U?$pair@$$CBKPAUSTextTail@CPythonTextTail@@@std@@PAX@2@I@Z ; std::allocator<std::_Tree_node<std::pair<unsigned long const ,CPythonTextTail::STextTail *>,void *> >::deallocate
PUBLIC	?allocate@?$allocator@U?$_Tree_node@U?$pair@$$CBKPAUSTextTail@CPythonTextTail@@@std@@PAX@std@@@std@@QAEPAU?$_Tree_node@U?$pair@$$CBKPAUSTextTail@CPythonTextTail@@@std@@PAX@2@I@Z ; std::allocator<std::_Tree_node<std::pair<unsigned long const ,CPythonTextTail::STextTail *>,void *> >::allocate
PUBLIC	?max_size@?$_Default_allocator_traits@V?$allocator@U?$_Tree_node@U?$pair@$$CBKPAUSTextTail@CPythonTextTail@@@std@@PAX@std@@@std@@@std@@SAIABV?$allocator@U?$_Tree_node@U?$pair@$$CBKPAUSTextTail@CPythonTextTail@@@std@@PAX@std@@@2@@Z ; std::_Default_allocator_traits<std::allocator<std::_Tree_node<std::pair<unsigned long const ,CPythonTextTail::STextTail *>,void *> > >::max_size
PUBLIC	??0?$_Tree_val@U?$_Tree_simple_types@U?$pair@$$CBKPAUSTextTail@CPythonTextTail@@@std@@@std@@@std@@QAE@XZ ; std::_Tree_val<std::_Tree_simple_types<std::pair<unsigned long const ,CPythonTextTail::STextTail *> > >::_Tree_val<std::_Tree_simple_types<std::pair<unsigned long const ,CPythonTextTail::STextTail *> > >
PUBLIC	?_Get_first@?$_Compressed_pair@U?$less@K@std@@V?$_Compressed_pair@V?$allocator@U?$_Tree_node@U?$pair@$$CBKPAUSTextTail@CPythonTextTail@@@std@@PAX@std@@@std@@V?$_Tree_val@U?$_Tree_simple_types@U?$pair@$$CBKPAUSTextTail@CPythonTextTail@@@std@@@std@@@2@$00@2@$00@std@@QBEABU?$less@K@2@XZ ; std::_Compressed_pair<std::less<unsigned long>,std::_Compressed_pair<std::allocator<std::_Tree_node<std::pair<unsigned long const ,CPythonTextTail::STextTail *>,void *> >,std::_Tree_val<std::_Tree_simple_types<std::pair<unsigned long const ,CPythonTextTail::STextTail *> > >,1>,1>::_Get_first
PUBLIC	?deallocate@?$allocator@U?$_List_node@PAUSTextTail@CPythonTextTail@@PAX@std@@@std@@QAEXQAU?$_List_node@PAUSTextTail@CPythonTextTail@@PAX@2@I@Z ; std::allocator<std::_List_node<CPythonTextTail::STextTail *,void *> >::deallocate
PUBLIC	?_Get_first@?$_Compressed_pair@V?$allocator@U?$_List_node@PAUSTextTail@CPythonTextTail@@PAX@std@@@std@@V?$_List_val@U?$_List_simple_types@PAUSTextTail@CPythonTextTail@@@std@@@2@$00@std@@QBEABV?$allocator@U?$_List_node@PAUSTextTail@CPythonTextTail@@PAX@std@@@2@XZ ; std::_Compressed_pair<std::allocator<std::_List_node<CPythonTextTail::STextTail *,void *> >,std::_List_val<std::_List_simple_types<CPythonTextTail::STextTail *> >,1>::_Get_first
PUBLIC	?max_size@?$vector@PAUSTextTail@CPythonTextTail@@V?$allocator@PAUSTextTail@CPythonTextTail@@@std@@@std@@QBEIXZ ; std::vector<CPythonTextTail::STextTail *,std::allocator<CPythonTextTail::STextTail *> >::max_size
PUBLIC	?_Calculate_growth@?$vector@PAUSTextTail@CPythonTextTail@@V?$allocator@PAUSTextTail@CPythonTextTail@@@std@@@std@@ABEII@Z ; std::vector<CPythonTextTail::STextTail *,std::allocator<CPythonTextTail::STextTail *> >::_Calculate_growth
PUBLIC	?_Change_array@?$vector@PAUSTextTail@CPythonTextTail@@V?$allocator@PAUSTextTail@CPythonTextTail@@@std@@@std@@AAEXQAPAUSTextTail@CPythonTextTail@@II@Z ; std::vector<CPythonTextTail::STextTail *,std::allocator<CPythonTextTail::STextTail *> >::_Change_array
PUBLIC	?_Xlength@?$vector@PAUSTextTail@CPythonTextTail@@V?$allocator@PAUSTextTail@CPythonTextTail@@@std@@@std@@CAXXZ ; std::vector<CPythonTextTail::STextTail *,std::allocator<CPythonTextTail::STextTail *> >::_Xlength
PUBLIC	??1_Reallocation_guard@?$vector@PAUSTextTail@CPythonTextTail@@V?$allocator@PAUSTextTail@CPythonTextTail@@@std@@@std@@QAE@XZ ; std::vector<CPythonTextTail::STextTail *,std::allocator<CPythonTextTail::STextTail *> >::_Reallocation_guard::~_Reallocation_guard
PUBLIC	??0?$_Alloc_construct_ptr@V?$allocator@U?$_Tree_node@U?$pair@$$CBKPAUSTextTail@CPythonTextTail@@@std@@PAX@std@@@std@@@std@@QAE@AAV?$allocator@U?$_Tree_node@U?$pair@$$CBKPAUSTextTail@CPythonTextTail@@@std@@PAX@std@@@1@@Z ; std::_Alloc_construct_ptr<std::allocator<std::_Tree_node<std::pair<unsigned long const ,CPythonTextTail::STextTail *>,void *> > >::_Alloc_construct_ptr<std::allocator<std::_Tree_node<std::pair<unsigned long const ,CPythonTextTail::STextTail *>,void *> > >
PUBLIC	?_Allocate@?$_Alloc_construct_ptr@V?$allocator@U?$_Tree_node@U?$pair@$$CBKPAUSTextTail@CPythonTextTail@@@std@@PAX@std@@@std@@@std@@QAEXXZ ; std::_Alloc_construct_ptr<std::allocator<std::_Tree_node<std::pair<unsigned long const ,CPythonTextTail::STextTail *>,void *> > >::_Allocate
PUBLIC	??$_Construct_in_place@PAU?$_Tree_node@U?$pair@$$CBKPAUSTextTail@CPythonTextTail@@@std@@PAX@std@@ABQAU12@@std@@YAXAAPAU?$_Tree_node@U?$pair@$$CBKPAUSTextTail@CPythonTextTail@@@std@@PAX@0@ABQAU10@@Z ; std::_Construct_in_place<std::_Tree_node<std::pair<unsigned long const ,CPythonTextTail::STextTail *>,void *> *,std::_Tree_node<std::pair<unsigned long const ,CPythonTextTail::STextTail *>,void *> * const &>
PUBLIC	??$construct_at@PAU?$_List_node@PAUSTextTail@CPythonTextTail@@PAX@std@@ABQAU12@@std@@YAPAPAU?$_List_node@PAUSTextTail@CPythonTextTail@@PAX@0@QAPAU10@ABQAU10@@Z ; std::construct_at<std::_List_node<CPythonTextTail::STextTail *,void *> *,std::_List_node<CPythonTextTail::STextTail *,void *> * const &>
PUBLIC	??$forward@ABQAU?$_List_node@PAUSTextTail@CPythonTextTail@@PAX@std@@@std@@YAABQAU?$_List_node@PAUSTextTail@CPythonTextTail@@PAX@0@ABQAU10@@Z ; std::forward<std::_List_node<CPythonTextTail::STextTail *,void *> * const &>
PUBLIC	??$_Uninitialized_move@PAPAUSTextTail@CPythonTextTail@@V?$allocator@PAUSTextTail@CPythonTextTail@@@std@@@std@@YAPAPAUSTextTail@CPythonTextTail@@QAPAU12@0PAPAU12@AAV?$allocator@PAUSTextTail@CPythonTextTail@@@0@@Z ; std::_Uninitialized_move<CPythonTextTail::STextTail * *,std::allocator<CPythonTextTail::STextTail *> >
PUBLIC	??$_Get_unwrapped@ABQAPAUSTextTail@CPythonTextTail@@@std@@YA?A_TABQAPAUSTextTail@CPythonTextTail@@@Z ; std::_Get_unwrapped<CPythonTextTail::STextTail * * const &>
PUBLIC	??$construct@PAUSTextTail@CPythonTextTail@@ABQAU12@@?$_Default_allocator_traits@V?$allocator@PAUSTextTail@CPythonTextTail@@@std@@@std@@SAXAAV?$allocator@PAUSTextTail@CPythonTextTail@@@1@QAPAUSTextTail@CPythonTextTail@@ABQAU34@@Z ; std::_Default_allocator_traits<std::allocator<CPythonTextTail::STextTail *> >::construct<CPythonTextTail::STextTail *,CPythonTextTail::STextTail * const &>
PUBLIC	??$_Allocate_at_least_helper@V?$allocator@PAUSTextTail@CPythonTextTail@@@std@@@std@@YAPAPAUSTextTail@CPythonTextTail@@AAV?$allocator@PAUSTextTail@CPythonTextTail@@@0@AAI@Z ; std::_Allocate_at_least_helper<std::allocator<CPythonTextTail::STextTail *> >
PUBLIC	??$_Construct_in_place@PAUSTextTail@CPythonTextTail@@ABQAU12@@std@@YAXAAPAUSTextTail@CPythonTextTail@@ABQAU12@@Z ; std::_Construct_in_place<CPythonTextTail::STextTail *,CPythonTextTail::STextTail * const &>
PUBLIC	??$construct_at@PAUSTextTail@CPythonTextTail@@ABQAU12@@std@@YAPAPAUSTextTail@CPythonTextTail@@QAPAU12@ABQAU12@@Z ; std::construct_at<CPythonTextTail::STextTail *,CPythonTextTail::STextTail * const &>
PUBLIC	??$destroy_at@U?$pair@$$CBKPAUSTextTail@CPythonTextTail@@@std@@@std@@YAXQAU?$pair@$$CBKPAUSTextTail@CPythonTextTail@@@0@@Z ; std::destroy_at<std::pair<unsigned long const ,CPythonTextTail::STextTail *> >
PUBLIC	??$construct_at@PAU?$_Tree_node@U?$pair@$$CBKPAUSTextTail@CPythonTextTail@@@std@@PAX@std@@AAPAU12@@std@@YAPAPAU?$_Tree_node@U?$pair@$$CBKPAUSTextTail@CPythonTextTail@@@std@@PAX@0@QAPAU10@AAPAU10@@Z ; std::construct_at<std::_Tree_node<std::pair<unsigned long const ,CPythonTextTail::STextTail *>,void *> *,std::_Tree_node<std::pair<unsigned long const ,CPythonTextTail::STextTail *>,void *> * &>
PUBLIC	??$addressof@PAU?$_Tree_node@U?$pair@$$CBKPAUSTextTail@CPythonTextTail@@@std@@PAX@std@@@std@@YAPAPAU?$_Tree_node@U?$pair@$$CBKPAUSTextTail@CPythonTextTail@@@std@@PAX@0@AAPAU10@@Z ; std::addressof<std::_Tree_node<std::pair<unsigned long const ,CPythonTextTail::STextTail *>,void *> *>
PUBLIC	??$construct_at@U?$pair@$$CBKPAUSTextTail@CPythonTextTail@@@std@@U12@@std@@YAPAU?$pair@$$CBKPAUSTextTail@CPythonTextTail@@@0@QAU10@$$QAU10@@Z ; std::construct_at<std::pair<unsigned long const ,CPythonTextTail::STextTail *>,std::pair<unsigned long const ,CPythonTextTail::STextTail *> >
PUBLIC	??0?$allocator@PAUSTextTail@CPythonTextTail@@@std@@QAE@XZ ; std::allocator<CPythonTextTail::STextTail *>::allocator<CPythonTextTail::STextTail *>
PUBLIC	?deallocate@?$allocator@PAUSTextTail@CPythonTextTail@@@std@@QAEXQAPAUSTextTail@CPythonTextTail@@I@Z ; std::allocator<CPythonTextTail::STextTail *>::deallocate
PUBLIC	?_Getal@?$list@PAUSTextTail@CPythonTextTail@@V?$allocator@PAUSTextTail@CPythonTextTail@@@std@@@std@@ABEABV?$allocator@U?$_List_node@PAUSTextTail@CPythonTextTail@@PAX@std@@@2@XZ ; std::list<CPythonTextTail::STextTail *,std::allocator<CPythonTextTail::STextTail *> >::_Getal
PUBLIC	?max_size@?$_Tree@V?$_Tmap_traits@KPAUSTextTail@CPythonTextTail@@U?$less@K@std@@V?$allocator@U?$pair@$$CBKPAUSTextTail@CPythonTextTail@@@std@@@4@$0A@@std@@@std@@QBEIXZ ; std::_Tree<std::_Tmap_traits<unsigned long,CPythonTextTail::STextTail *,std::less<unsigned long>,std::allocator<std::pair<unsigned long const ,CPythonTextTail::STextTail *> >,0> >::max_size
PUBLIC	?_Getcomp@?$_Tree@V?$_Tmap_traits@KPAUSTextTail@CPythonTextTail@@U?$less@K@std@@V?$allocator@U?$pair@$$CBKPAUSTextTail@CPythonTextTail@@@std@@@4@$0A@@std@@@std@@IBEABU?$less@K@2@XZ ; std::_Tree<std::_Tmap_traits<unsigned long,CPythonTextTail::STextTail *,std::less<unsigned long>,std::allocator<std::pair<unsigned long const ,CPythonTextTail::STextTail *> >,0> >::_Getcomp
PUBLIC	?deallocate@?$_Default_allocator_traits@V?$allocator@U?$_Tree_node@U?$pair@$$CBKPAUSTextTail@CPythonTextTail@@@std@@PAX@std@@@std@@@std@@SAXAAV?$allocator@U?$_Tree_node@U?$pair@$$CBKPAUSTextTail@CPythonTextTail@@@std@@PAX@std@@@2@QAU?$_Tree_node@U?$pair@$$CBKPAUSTextTail@CPythonTextTail@@@std@@PAX@2@I@Z ; std::_Default_allocator_traits<std::allocator<std::_Tree_node<std::pair<unsigned long const ,CPythonTextTail::STextTail *>,void *> > >::deallocate
PUBLIC	?_Max@?$_Tree_val@U?$_Tree_simple_types@U?$pair@$$CBKPAUSTextTail@CPythonTextTail@@@std@@@std@@@std@@SAPAU?$_Tree_node@U?$pair@$$CBKPAUSTextTail@CPythonTextTail@@@std@@PAX@2@PAU32@@Z ; std::_Tree_val<std::_Tree_simple_types<std::pair<unsigned long const ,CPythonTextTail::STextTail *> > >::_Max
PUBLIC	?_Min@?$_Tree_val@U?$_Tree_simple_types@U?$pair@$$CBKPAUSTextTail@CPythonTextTail@@@std@@@std@@@std@@SAPAU?$_Tree_node@U?$pair@$$CBKPAUSTextTail@CPythonTextTail@@@std@@PAX@2@PAU32@@Z ; std::_Tree_val<std::_Tree_simple_types<std::pair<unsigned long const ,CPythonTextTail::STextTail *> > >::_Min
PUBLIC	?_Lrotate@?$_Tree_val@U?$_Tree_simple_types@U?$pair@$$CBKPAUSTextTail@CPythonTextTail@@@std@@@std@@@std@@QAEXPAU?$_Tree_node@U?$pair@$$CBKPAUSTextTail@CPythonTextTail@@@std@@PAX@2@@Z ; std::_Tree_val<std::_Tree_simple_types<std::pair<unsigned long const ,CPythonTextTail::STextTail *> > >::_Lrotate
PUBLIC	?_Rrotate@?$_Tree_val@U?$_Tree_simple_types@U?$pair@$$CBKPAUSTextTail@CPythonTextTail@@@std@@@std@@@std@@QAEXPAU?$_Tree_node@U?$pair@$$CBKPAUSTextTail@CPythonTextTail@@@std@@PAX@2@@Z ; std::_Tree_val<std::_Tree_simple_types<std::pair<unsigned long const ,CPythonTextTail::STextTail *> > >::_Rrotate
PUBLIC	?deallocate@?$_Default_allocator_traits@V?$allocator@U?$_List_node@PAUSTextTail@CPythonTextTail@@PAX@std@@@std@@@std@@SAXAAV?$allocator@U?$_List_node@PAUSTextTail@CPythonTextTail@@PAX@std@@@2@QAU?$_List_node@PAUSTextTail@CPythonTextTail@@PAX@2@I@Z ; std::_Default_allocator_traits<std::allocator<std::_List_node<CPythonTextTail::STextTail *,void *> > >::deallocate
PUBLIC	?max_size@?$_Default_allocator_traits@V?$allocator@U?$_List_node@PAUSTextTail@CPythonTextTail@@PAX@std@@@std@@@std@@SAIABV?$allocator@U?$_List_node@PAUSTextTail@CPythonTextTail@@PAX@std@@@2@@Z ; std::_Default_allocator_traits<std::allocator<std::_List_node<CPythonTextTail::STextTail *,void *> > >::max_size
PUBLIC	??D?$_List_unchecked_const_iterator@V?$_List_val@U?$_List_simple_types@PAUSTextTail@CPythonTextTail@@@std@@@std@@U_Iterator_base0@2@@std@@QBEABQAUSTextTail@CPythonTextTail@@XZ ; std::_List_unchecked_const_iterator<std::_List_val<std::_List_simple_types<CPythonTextTail::STextTail *> >,std::_Iterator_base0>::operator*
PUBLIC	??E?$_List_unchecked_const_iterator@V?$_List_val@U?$_List_simple_types@PAUSTextTail@CPythonTextTail@@@std@@@std@@U_Iterator_base0@2@@std@@QAEAAV01@XZ ; std::_List_unchecked_const_iterator<std::_List_val<std::_List_simple_types<CPythonTextTail::STextTail *> >,std::_Iterator_base0>::operator++
PUBLIC	??0?$_Vector_val@U?$_Simple_types@PAUSTextTail@CPythonTextTail@@@std@@@std@@QAE@XZ ; std::_Vector_val<std::_Simple_types<CPythonTextTail::STextTail *> >::_Vector_val<std::_Simple_types<CPythonTextTail::STextTail *> >
PUBLIC	?_Get_first@?$_Compressed_pair@V?$allocator@PAUSTextTail@CPythonTextTail@@@std@@V?$_Vector_val@U?$_Simple_types@PAUSTextTail@CPythonTextTail@@@std@@@2@$00@std@@QAEAAV?$allocator@PAUSTextTail@CPythonTextTail@@@2@XZ ; std::_Compressed_pair<std::allocator<CPythonTextTail::STextTail *>,std::_Vector_val<std::_Simple_types<CPythonTextTail::STextTail *> >,1>::_Get_first
PUBLIC	??0?$_Tree_temp_node_alloc@V?$allocator@U?$_Tree_node@U?$pair@$$CBKPAUSTextTail@CPythonTextTail@@@std@@PAX@std@@@std@@@std@@QAE@AAV?$allocator@U?$_Tree_node@U?$pair@$$CBKPAUSTextTail@CPythonTextTail@@@std@@PAX@std@@@1@@Z ; std::_Tree_temp_node_alloc<std::allocator<std::_Tree_node<std::pair<unsigned long const ,CPythonTextTail::STextTail *>,void *> > >::_Tree_temp_node_alloc<std::allocator<std::_Tree_node<std::pair<unsigned long const ,CPythonTextTail::STextTail *>,void *> > >
PUBLIC	??1?$_Alloc_construct_ptr@V?$allocator@U?$_Tree_node@U?$pair@$$CBKPAUSTextTail@CPythonTextTail@@@std@@PAX@std@@@std@@@std@@QAE@XZ ; std::_Alloc_construct_ptr<std::allocator<std::_Tree_node<std::pair<unsigned long const ,CPythonTextTail::STextTail *>,void *> > >::~_Alloc_construct_ptr<std::allocator<std::_Tree_node<std::pair<unsigned long const ,CPythonTextTail::STextTail *>,void *> > >
PUBLIC	??0?$_Alloc_construct_ptr@V?$allocator@U?$_List_node@PAUSTextTail@CPythonTextTail@@PAX@std@@@std@@@std@@QAE@AAV?$allocator@U?$_List_node@PAUSTextTail@CPythonTextTail@@PAX@std@@@1@@Z ; std::_Alloc_construct_ptr<std::allocator<std::_List_node<CPythonTextTail::STextTail *,void *> > >::_Alloc_construct_ptr<std::allocator<std::_List_node<CPythonTextTail::STextTail *,void *> > >
PUBLIC	?_Allocate@?$_Alloc_construct_ptr@V?$allocator@U?$_List_node@PAUSTextTail@CPythonTextTail@@PAX@std@@@std@@@std@@QAEXXZ ; std::_Alloc_construct_ptr<std::allocator<std::_List_node<CPythonTextTail::STextTail *,void *> > >::_Allocate
PUBLIC	??1?$_Alloc_construct_ptr@V?$allocator@U?$_List_node@PAUSTextTail@CPythonTextTail@@PAX@std@@@std@@@std@@QAE@XZ ; std::_Alloc_construct_ptr<std::allocator<std::_List_node<CPythonTextTail::STextTail *,void *> > >::~_Alloc_construct_ptr<std::allocator<std::_List_node<CPythonTextTail::STextTail *,void *> > >
PUBLIC	??$_Buyheadnode@V?$allocator@U?$_Tree_node@U?$pair@$$CBKPAUSTextTail@CPythonTextTail@@@std@@PAX@std@@@std@@@?$_Tree_node@U?$pair@$$CBKPAUSTextTail@CPythonTextTail@@@std@@PAX@std@@SAPAU01@AAV?$allocator@U?$_Tree_node@U?$pair@$$CBKPAUSTextTail@CPythonTextTail@@@std@@PAX@std@@@1@@Z ; std::_Tree_node<std::pair<unsigned long const ,CPythonTextTail::STextTail *>,void *>::_Buyheadnode<std::allocator<std::_Tree_node<std::pair<unsigned long const ,CPythonTextTail::STextTail *>,void *> > >
PUBLIC	??$_Unfancy_maybe_null@PAUSTextTail@CPythonTextTail@@@std@@YAPAPAUSTextTail@CPythonTextTail@@PAPAU12@@Z ; std::_Unfancy_maybe_null<CPythonTextTail::STextTail *>
PUBLIC	??$_Destroy_range@V?$allocator@PAUSTextTail@CPythonTextTail@@@std@@@std@@YAXPAPAUSTextTail@CPythonTextTail@@QAPAU12@AAV?$allocator@PAUSTextTail@CPythonTextTail@@@0@@Z ; std::_Destroy_range<std::allocator<CPythonTextTail::STextTail *> >
PUBLIC	??$exchange@PAU?$_Tree_node@U?$pair@$$CBKPAUSTextTail@CPythonTextTail@@@std@@PAX@std@@$$T@std@@YAPAU?$_Tree_node@U?$pair@$$CBKPAUSTextTail@CPythonTextTail@@@std@@PAX@0@AAPAU10@$$QA$$T@Z ; std::exchange<std::_Tree_node<std::pair<unsigned long const ,CPythonTextTail::STextTail *>,void *> *,std::nullptr_t>
PUBLIC	??$_Construct_in_place@PAU?$_List_node@PAUSTextTail@CPythonTextTail@@PAX@std@@ABQAU12@@std@@YAXAAPAU?$_List_node@PAUSTextTail@CPythonTextTail@@PAX@0@ABQAU10@@Z ; std::_Construct_in_place<std::_List_node<CPythonTextTail::STextTail *,void *> *,std::_List_node<CPythonTextTail::STextTail *,void *> * const &>
PUBLIC	??$_Destroy_in_place@PAU?$_List_node@PAUSTextTail@CPythonTextTail@@PAX@std@@@std@@YAXAAPAU?$_List_node@PAUSTextTail@CPythonTextTail@@PAX@0@@Z ; std::_Destroy_in_place<std::_List_node<CPythonTextTail::STextTail *,void *> *>
PUBLIC	??$construct_at@PAU?$_List_node@PAUSTextTail@CPythonTextTail@@PAX@std@@AAPAU12@@std@@YAPAPAU?$_List_node@PAUSTextTail@CPythonTextTail@@PAX@0@QAPAU10@AAPAU10@@Z ; std::construct_at<std::_List_node<CPythonTextTail::STextTail *,void *> *,std::_List_node<CPythonTextTail::STextTail *,void *> * &>
PUBLIC	??$forward@AAPAU?$_List_node@PAUSTextTail@CPythonTextTail@@PAX@std@@@std@@YAAAPAU?$_List_node@PAUSTextTail@CPythonTextTail@@PAX@0@AAPAU10@@Z ; std::forward<std::_List_node<CPythonTextTail::STextTail *,void *> * &>
PUBLIC	??$addressof@PAU?$_List_node@PAUSTextTail@CPythonTextTail@@PAX@std@@@std@@YAPAPAU?$_List_node@PAUSTextTail@CPythonTextTail@@PAX@0@AAPAU10@@Z ; std::addressof<std::_List_node<CPythonTextTail::STextTail *,void *> *>
PUBLIC	??$_Emplace_reallocate@ABQAUSTextTail@CPythonTextTail@@@?$vector@PAUSTextTail@CPythonTextTail@@V?$allocator@PAUSTextTail@CPythonTextTail@@@std@@@std@@AAEPAPAUSTextTail@CPythonTextTail@@QAPAU23@ABQAU23@@Z ; std::vector<CPythonTextTail::STextTail *,std::allocator<CPythonTextTail::STextTail *> >::_Emplace_reallocate<CPythonTextTail::STextTail * const &>
PUBLIC	??$_Emplace_back_with_unused_capacity@ABQAUSTextTail@CPythonTextTail@@@?$vector@PAUSTextTail@CPythonTextTail@@V?$allocator@PAUSTextTail@CPythonTextTail@@@std@@@std@@AAEAAPAUSTextTail@CPythonTextTail@@ABQAU23@@Z ; std::vector<CPythonTextTail::STextTail *,std::allocator<CPythonTextTail::STextTail *> >::_Emplace_back_with_unused_capacity<CPythonTextTail::STextTail * const &>
PUBLIC	??$destroy_at@PAUSTextTail@CPythonTextTail@@@std@@YAXQAPAUSTextTail@CPythonTextTail@@@Z ; std::destroy_at<CPythonTextTail::STextTail *>
PUBLIC	??$construct@PAUSTextTail@CPythonTextTail@@ABQAU12@@?$_Default_allocator_traits@V?$allocator@U?$_List_node@PAUSTextTail@CPythonTextTail@@PAX@std@@@std@@@std@@SAXAAV?$allocator@U?$_List_node@PAUSTextTail@CPythonTextTail@@PAX@std@@@1@QAPAUSTextTail@CPythonTextTail@@ABQAU34@@Z ; std::_Default_allocator_traits<std::allocator<std::_List_node<CPythonTextTail::STextTail *,void *> > >::construct<CPythonTextTail::STextTail *,CPythonTextTail::STextTail * const &>
PUBLIC	??$destroy@PAUSTextTail@CPythonTextTail@@@?$_Default_allocator_traits@V?$allocator@U?$_List_node@PAUSTextTail@CPythonTextTail@@PAX@std@@@std@@@std@@SAXAAV?$allocator@U?$_List_node@PAUSTextTail@CPythonTextTail@@PAX@std@@@1@QAPAUSTextTail@CPythonTextTail@@@Z ; std::_Default_allocator_traits<std::allocator<std::_List_node<CPythonTextTail::STextTail *,void *> > >::destroy<CPythonTextTail::STextTail *>
PUBLIC	??$addressof@PAUSTextTail@CPythonTextTail@@@std@@YAPAPAUSTextTail@CPythonTextTail@@AAPAU12@@Z ; std::addressof<CPythonTextTail::STextTail *>
PUBLIC	??$_Destroy_in_place@PAU?$_Tree_node@U?$pair@$$CBKPAUSTextTail@CPythonTextTail@@@std@@PAX@std@@@std@@YAXAAPAU?$_Tree_node@U?$pair@$$CBKPAUSTextTail@CPythonTextTail@@@std@@PAX@0@@Z ; std::_Destroy_in_place<std::_Tree_node<std::pair<unsigned long const ,CPythonTextTail::STextTail *>,void *> *>
PUBLIC	??$destroy@U?$pair@$$CBKPAUSTextTail@CPythonTextTail@@@std@@@?$_Default_allocator_traits@V?$allocator@U?$_Tree_node@U?$pair@$$CBKPAUSTextTail@CPythonTextTail@@@std@@PAX@std@@@std@@@std@@SAXAAV?$allocator@U?$_Tree_node@U?$pair@$$CBKPAUSTextTail@CPythonTextTail@@@std@@PAX@std@@@1@QAU?$pair@$$CBKPAUSTextTail@CPythonTextTail@@@1@@Z ; std::_Default_allocator_traits<std::allocator<std::_Tree_node<std::pair<unsigned long const ,CPythonTextTail::STextTail *>,void *> > >::destroy<std::pair<unsigned long const ,CPythonTextTail::STextTail *> >
PUBLIC	??$forward@PAU?$_Tree_node@U?$pair@$$CBKPAUSTextTail@CPythonTextTail@@@std@@PAX@std@@@std@@YA$$QAPAU?$_Tree_node@U?$pair@$$CBKPAUSTextTail@CPythonTextTail@@@std@@PAX@0@AAPAU10@@Z ; std::forward<std::_Tree_node<std::pair<unsigned long const ,CPythonTextTail::STextTail *>,void *> *>
PUBLIC	??$forward@AAPAU?$_Tree_node@U?$pair@$$CBKPAUSTextTail@CPythonTextTail@@@std@@PAX@std@@@std@@YAAAPAU?$_Tree_node@U?$pair@$$CBKPAUSTextTail@CPythonTextTail@@@std@@PAX@0@AAPAU10@@Z ; std::forward<std::_Tree_node<std::pair<unsigned long const ,CPythonTextTail::STextTail *>,void *> * &>
PUBLIC	??$_Construct_in_place@PAU?$_Tree_node@U?$pair@$$CBKPAUSTextTail@CPythonTextTail@@@std@@PAX@std@@AAPAU12@@std@@YAXAAPAU?$_Tree_node@U?$pair@$$CBKPAUSTextTail@CPythonTextTail@@@std@@PAX@0@0@Z ; std::_Construct_in_place<std::_Tree_node<std::pair<unsigned long const ,CPythonTextTail::STextTail *>,void *> *,std::_Tree_node<std::pair<unsigned long const ,CPythonTextTail::STextTail *>,void *> * &>
PUBLIC	??$construct@U?$pair@$$CBKPAUSTextTail@CPythonTextTail@@@std@@U12@@?$_Default_allocator_traits@V?$allocator@U?$_Tree_node@U?$pair@$$CBKPAUSTextTail@CPythonTextTail@@@std@@PAX@std@@@std@@@std@@SAXAAV?$allocator@U?$_Tree_node@U?$pair@$$CBKPAUSTextTail@CPythonTextTail@@@std@@PAX@std@@@1@QAU?$pair@$$CBKPAUSTextTail@CPythonTextTail@@@1@$$QAU31@@Z ; std::_Default_allocator_traits<std::allocator<std::_Tree_node<std::pair<unsigned long const ,CPythonTextTail::STextTail *>,void *> > >::construct<std::pair<unsigned long const ,CPythonTextTail::STextTail *>,std::pair<unsigned long const ,CPythonTextTail::STextTail *> >
PUBLIC	??$_Kfn@$$CBKPAUSTextTail@CPythonTextTail@@@?$_Tmap_traits@KPAUSTextTail@CPythonTextTail@@U?$less@K@std@@V?$allocator@U?$pair@$$CBKPAUSTextTail@CPythonTextTail@@@std@@@4@$0A@@std@@SAABKABU?$pair@$$CBKPAUSTextTail@CPythonTextTail@@@1@@Z ; std::_Tmap_traits<unsigned long,CPythonTextTail::STextTail *,std::less<unsigned long>,std::allocator<std::pair<unsigned long const ,CPythonTextTail::STextTail *> >,0>::_Kfn<unsigned long const ,CPythonTextTail::STextTail *>
PUBLIC	??$?0$$V@?$_Compressed_pair@V?$allocator@U?$_Tree_node@U?$pair@$$CBKPAUSTextTail@CPythonTextTail@@@std@@PAX@std@@@std@@V?$_Tree_val@U?$_Tree_simple_types@U?$pair@$$CBKPAUSTextTail@CPythonTextTail@@@std@@@std@@@2@$00@std@@QAE@U_Zero_then_variadic_args_t@1@@Z ; std::_Compressed_pair<std::allocator<std::_Tree_node<std::pair<unsigned long const ,CPythonTextTail::STextTail *>,void *> >,std::_Tree_val<std::_Tree_simple_types<std::pair<unsigned long const ,CPythonTextTail::STextTail *> > >,1>::_Compressed_pair<std::allocator<std::_Tree_node<std::pair<unsigned long const ,CPythonTextTail::STextTail *>,void *> >,std::_Tree_val<std::_Tree_simple_types<std::pair<unsigned long const ,CPythonTextTail::STextTail *> > >,1><>
PUBLIC	??1?$_Tree_temp_node_alloc@V?$allocator@U?$_Tree_node@U?$pair@$$CBKPAUSTextTail@CPythonTextTail@@@std@@PAX@std@@@std@@@std@@QAE@XZ ; std::_Tree_temp_node_alloc<std::allocator<std::_Tree_node<std::pair<unsigned long const ,CPythonTextTail::STextTail *>,void *> > >::~_Tree_temp_node_alloc<std::allocator<std::_Tree_node<std::pair<unsigned long const ,CPythonTextTail::STextTail *>,void *> > >
PUBLIC	?max_size@?$list@PAUSTextTail@CPythonTextTail@@V?$allocator@PAUSTextTail@CPythonTextTail@@@std@@@std@@QBEIXZ ; std::list<CPythonTextTail::STextTail *,std::allocator<CPythonTextTail::STextTail *> >::max_size
PUBLIC	?_Check_grow_by_1@?$_Tree@V?$_Tmap_traits@KPAUSTextTail@CPythonTextTail@@U?$less@K@std@@V?$allocator@U?$pair@$$CBKPAUSTextTail@CPythonTextTail@@@std@@@4@$0A@@std@@@std@@IAEXXZ ; std::_Tree<std::_Tmap_traits<unsigned long,CPythonTextTail::STextTail *,std::less<unsigned long>,std::allocator<std::pair<unsigned long const ,CPythonTextTail::STextTail *> >,0> >::_Check_grow_by_1
PUBLIC	?_Alloc_sentinel_and_proxy@?$_Tree@V?$_Tmap_traits@KPAUSTextTail@CPythonTextTail@@U?$less@K@std@@V?$allocator@U?$pair@$$CBKPAUSTextTail@CPythonTextTail@@@std@@@4@$0A@@std@@@std@@IAEXXZ ; std::_Tree<std::_Tmap_traits<unsigned long,CPythonTextTail::STextTail *,std::less<unsigned long>,std::allocator<std::pair<unsigned long const ,CPythonTextTail::STextTail *> >,0> >::_Alloc_sentinel_and_proxy
PUBLIC	?_Extract@?$_Tree_val@U?$_Tree_simple_types@U?$pair@$$CBKPAUSTextTail@CPythonTextTail@@@std@@@std@@@std@@QAEPAU?$_Tree_node@U?$pair@$$CBKPAUSTextTail@CPythonTextTail@@@std@@PAX@2@V?$_Tree_unchecked_const_iterator@V?$_Tree_val@U?$_Tree_simple_types@U?$pair@$$CBKPAUSTextTail@CPythonTextTail@@@std@@@std@@@std@@U_Iterator_base0@2@@2@@Z ; std::_Tree_val<std::_Tree_simple_types<std::pair<unsigned long const ,CPythonTextTail::STextTail *> > >::_Extract
PUBLIC	?_Insert_node@?$_Tree_val@U?$_Tree_simple_types@U?$pair@$$CBKPAUSTextTail@CPythonTextTail@@@std@@@std@@@std@@QAEPAU?$_Tree_node@U?$pair@$$CBKPAUSTextTail@CPythonTextTail@@@std@@PAX@2@U?$_Tree_id@PAU?$_Tree_node@U?$pair@$$CBKPAUSTextTail@CPythonTextTail@@@std@@PAX@std@@@2@QAU32@@Z ; std::_Tree_val<std::_Tree_simple_types<std::pair<unsigned long const ,CPythonTextTail::STextTail *> > >::_Insert_node
PUBLIC	??D?$_Tree_const_iterator@V?$_Tree_val@U?$_Tree_simple_types@U?$pair@$$CBKPAUSTextTail@CPythonTextTail@@@std@@@std@@@std@@@std@@QBEABU?$pair@$$CBKPAUSTextTail@CPythonTextTail@@@1@XZ ; std::_Tree_const_iterator<std::_Tree_val<std::_Tree_simple_types<std::pair<unsigned long const ,CPythonTextTail::STextTail *> > > >::operator*
PUBLIC	??E?$_Tree_unchecked_const_iterator@V?$_Tree_val@U?$_Tree_simple_types@U?$pair@$$CBKPAUSTextTail@CPythonTextTail@@@std@@@std@@@std@@U_Iterator_base0@2@@std@@QAEAAV01@XZ ; std::_Tree_unchecked_const_iterator<std::_Tree_val<std::_Tree_simple_types<std::pair<unsigned long const ,CPythonTextTail::STextTail *> > >,std::_Iterator_base0>::operator++
PUBLIC	?_Get_first@?$_Compressed_pair@V?$allocator@U?$_Tree_node@U?$pair@$$CBKPAUSTextTail@CPythonTextTail@@@std@@PAX@std@@@std@@V?$_Tree_val@U?$_Tree_simple_types@U?$pair@$$CBKPAUSTextTail@CPythonTextTail@@@std@@@std@@@2@$00@std@@QAEAAV?$allocator@U?$_Tree_node@U?$pair@$$CBKPAUSTextTail@CPythonTextTail@@@std@@PAX@std@@@2@XZ ; std::_Compressed_pair<std::allocator<std::_Tree_node<std::pair<unsigned long const ,CPythonTextTail::STextTail *>,void *> >,std::_Tree_val<std::_Tree_simple_types<std::pair<unsigned long const ,CPythonTextTail::STextTail *> > >,1>::_Get_first
PUBLIC	??0?$allocator@U?$_List_node@PAUSTextTail@CPythonTextTail@@PAX@std@@@std@@QAE@XZ ; std::allocator<std::_List_node<CPythonTextTail::STextTail *,void *> >::allocator<std::_List_node<CPythonTextTail::STextTail *,void *> >
PUBLIC	?allocate@?$allocator@U?$_List_node@PAUSTextTail@CPythonTextTail@@PAX@std@@@std@@QAEPAU?$_List_node@PAUSTextTail@CPythonTextTail@@PAX@2@I@Z ; std::allocator<std::_List_node<CPythonTextTail::STextTail *,void *> >::allocate
PUBLIC	??0?$_List_val@U?$_List_simple_types@PAUSTextTail@CPythonTextTail@@@std@@@std@@QAE@XZ ; std::_List_val<std::_List_simple_types<CPythonTextTail::STextTail *> >::_List_val<std::_List_simple_types<CPythonTextTail::STextTail *> >
PUBLIC	?_Seek_to@?$_List_const_iterator@V?$_List_val@U?$_List_simple_types@PAUSTextTail@CPythonTextTail@@@std@@@std@@@std@@QAEXV?$_List_unchecked_const_iterator@V?$_List_val@U?$_List_simple_types@PAUSTextTail@CPythonTextTail@@@std@@@std@@U_Iterator_base0@2@@2@@Z ; std::_List_const_iterator<std::_List_val<std::_List_simple_types<CPythonTextTail::STextTail *> > >::_Seek_to
PUBLIC	??D?$_List_unchecked_iterator@V?$_List_val@U?$_List_simple_types@PAUSTextTail@CPythonTextTail@@@std@@@std@@@std@@QBEAAPAUSTextTail@CPythonTextTail@@XZ ; std::_List_unchecked_iterator<std::_List_val<std::_List_simple_types<CPythonTextTail::STextTail *> > >::operator*
PUBLIC	??E?$_List_unchecked_iterator@V?$_List_val@U?$_List_simple_types@PAUSTextTail@CPythonTextTail@@@std@@@std@@@std@@QAEAAV01@XZ ; std::_List_unchecked_iterator<std::_List_val<std::_List_simple_types<CPythonTextTail::STextTail *> > >::operator++
PUBLIC	??8?$_List_unchecked_const_iterator@V?$_List_val@U?$_List_simple_types@PAUSTextTail@CPythonTextTail@@@std@@@std@@U_Iterator_base0@2@@std@@QBE_NABV01@@Z ; std::_List_unchecked_const_iterator<std::_List_val<std::_List_simple_types<CPythonTextTail::STextTail *> >,std::_Iterator_base0>::operator==
PUBLIC	?_Get_first@?$_Compressed_pair@V?$allocator@U?$_List_node@PAUSTextTail@CPythonTextTail@@PAX@std@@@std@@V?$_List_val@U?$_List_simple_types@PAUSTextTail@CPythonTextTail@@@std@@@2@$00@std@@QAEAAV?$allocator@U?$_List_node@PAUSTextTail@CPythonTextTail@@PAX@std@@@2@XZ ; std::_Compressed_pair<std::allocator<std::_List_node<CPythonTextTail::STextTail *,void *> >,std::_List_val<std::_List_simple_types<CPythonTextTail::STextTail *> >,1>::_Get_first
PUBLIC	?Delete@?$CDynamicPool@USTextTail@CPythonTextTail@@@@KAXPAUSTextTail@CPythonTextTail@@@Z ; CDynamicPool<CPythonTextTail::STextTail>::Delete
PUBLIC	?clear@?$vector@PAUSTextTail@CPythonTextTail@@V?$allocator@PAUSTextTail@CPythonTextTail@@@std@@@std@@QAEXXZ ; std::vector<CPythonTextTail::STextTail *,std::allocator<CPythonTextTail::STextTail *> >::clear
PUBLIC	?_Unchecked_begin@?$vector@PAUSTextTail@CPythonTextTail@@V?$allocator@PAUSTextTail@CPythonTextTail@@@std@@@std@@QAEPAPAUSTextTail@CPythonTextTail@@XZ ; std::vector<CPythonTextTail::STextTail *,std::allocator<CPythonTextTail::STextTail *> >::_Unchecked_begin
PUBLIC	?_Unchecked_end@?$vector@PAUSTextTail@CPythonTextTail@@V?$allocator@PAUSTextTail@CPythonTextTail@@@std@@@std@@QAEPAPAUSTextTail@CPythonTextTail@@XZ ; std::vector<CPythonTextTail::STextTail *,std::allocator<CPythonTextTail::STextTail *> >::_Unchecked_end
PUBLIC	?_Tidy@?$vector@PAUSTextTail@CPythonTextTail@@V?$allocator@PAUSTextTail@CPythonTextTail@@@std@@@std@@AAEXXZ ; std::vector<CPythonTextTail::STextTail *,std::allocator<CPythonTextTail::STextTail *> >::_Tidy
PUBLIC	?_Orphan_range@?$vector@PAUSTextTail@CPythonTextTail@@V?$allocator@PAUSTextTail@CPythonTextTail@@@std@@@std@@ABEXPAPAUSTextTail@CPythonTextTail@@0@Z ; std::vector<CPythonTextTail::STextTail *,std::allocator<CPythonTextTail::STextTail *> >::_Orphan_range
PUBLIC	?_Getal@?$vector@PAUSTextTail@CPythonTextTail@@V?$allocator@PAUSTextTail@CPythonTextTail@@@std@@@std@@AAEAAV?$allocator@PAUSTextTail@CPythonTextTail@@@2@XZ ; std::vector<CPythonTextTail::STextTail *,std::allocator<CPythonTextTail::STextTail *> >::_Getal
PUBLIC	?_Extract@?$_In_place_key_extract_map_impl@KU?$pair@$$CBKPAUSTextTail@CPythonTextTail@@@std@@@std@@SAABKABU?$pair@$$CBKPAUSTextTail@CPythonTextTail@@@2@@Z ; std::_In_place_key_extract_map_impl<unsigned long,std::pair<unsigned long const ,CPythonTextTail::STextTail *> >::_Extract
PUBLIC	??1?$_Tree_temp_node@V?$allocator@U?$_Tree_node@U?$pair@$$CBKPAUSTextTail@CPythonTextTail@@@std@@PAX@std@@@std@@@std@@QAE@XZ ; std::_Tree_temp_node<std::allocator<std::_Tree_node<std::pair<unsigned long const ,CPythonTextTail::STextTail *>,void *> > >::~_Tree_temp_node<std::allocator<std::_Tree_node<std::pair<unsigned long const ,CPythonTextTail::STextTail *>,void *> > >
PUBLIC	?_Release@?$_Alloc_construct_ptr@V?$allocator@U?$_Tree_node@U?$pair@$$CBKPAUSTextTail@CPythonTextTail@@@std@@PAX@std@@@std@@@std@@QAEPAU?$_Tree_node@U?$pair@$$CBKPAUSTextTail@CPythonTextTail@@@std@@PAX@2@XZ ; std::_Alloc_construct_ptr<std::allocator<std::_Tree_node<std::pair<unsigned long const ,CPythonTextTail::STextTail *>,void *> > >::_Release
PUBLIC	??1?$_List_node_emplace_op2@V?$allocator@U?$_List_node@PAUSTextTail@CPythonTextTail@@PAX@std@@@std@@@std@@QAE@XZ ; std::_List_node_emplace_op2<std::allocator<std::_List_node<CPythonTextTail::STextTail *,void *> > >::~_List_node_emplace_op2<std::allocator<std::_List_node<CPythonTextTail::STextTail *,void *> > >
PUBLIC	?_Transfer_before@?$_List_node_emplace_op2@V?$allocator@U?$_List_node@PAUSTextTail@CPythonTextTail@@PAX@std@@@std@@@std@@QAEPAU?$_List_node@PAUSTextTail@CPythonTextTail@@PAX@2@QAU32@@Z ; std::_List_node_emplace_op2<std::allocator<std::_List_node<CPythonTextTail::STextTail *,void *> > >::_Transfer_before
PUBLIC	??$_Freenode0@V?$allocator@U?$_List_node@PAUSTextTail@CPythonTextTail@@PAX@std@@@std@@@?$_List_node@PAUSTextTail@CPythonTextTail@@PAX@std@@SAXAAV?$allocator@U?$_List_node@PAUSTextTail@CPythonTextTail@@PAX@std@@@1@PAU01@@Z ; std::_List_node<CPythonTextTail::STextTail *,void *>::_Freenode0<std::allocator<std::_List_node<CPythonTextTail::STextTail *,void *> > >
PUBLIC	??$_Construct_in_place@PAU?$_List_node@PAUSTextTail@CPythonTextTail@@PAX@std@@AAPAU12@@std@@YAXAAPAU?$_List_node@PAUSTextTail@CPythonTextTail@@PAX@0@0@Z ; std::_Construct_in_place<std::_List_node<CPythonTextTail::STextTail *,void *> *,std::_List_node<CPythonTextTail::STextTail *,void *> * &>
PUBLIC	??$?0ABU?$less@K@std@@U_Zero_then_variadic_args_t@1@@?$_Compressed_pair@U?$less@K@std@@V?$_Compressed_pair@V?$allocator@U?$_Tree_node@U?$pair@$$CBKPAUSTextTail@CPythonTextTail@@@std@@PAX@std@@@std@@V?$_Tree_val@U?$_Tree_simple_types@U?$pair@$$CBKPAUSTextTail@CPythonTextTail@@@std@@@std@@@2@$00@2@$00@std@@QAE@U_One_then_variadic_args_t@1@ABU?$less@K@1@$$QAU_Zero_then_variadic_args_t@1@@Z ; std::_Compressed_pair<std::less<unsigned long>,std::_Compressed_pair<std::allocator<std::_Tree_node<std::pair<unsigned long const ,CPythonTextTail::STextTail *>,void *> >,std::_Tree_val<std::_Tree_simple_types<std::pair<unsigned long const ,CPythonTextTail::STextTail *> > >,1>,1>::_Compressed_pair<std::less<unsigned long>,std::_Compressed_pair<std::allocator<std::_Tree_node<std::pair<unsigned long const ,CPythonTextTail::STextTail *>,void *> >,std::_Tree_val<std::_Tree_simple_types<std::pair<unsigned long const ,CPythonTextTail::STextTail *> > >,1>,1><std::less<unsigned long> const &,std::_Zero_then_variadic_args_t>
PUBLIC	??$addressof@V?$_Tree_val@U?$_Tree_simple_types@U?$pair@$$CBKPAUSTextTail@CPythonTextTail@@@std@@@std@@@std@@@std@@YAPAV?$_Tree_val@U?$_Tree_simple_types@U?$pair@$$CBKPAUSTextTail@CPythonTextTail@@@std@@@std@@@0@AAV10@@Z ; std::addressof<std::_Tree_val<std::_Tree_simple_types<std::pair<unsigned long const ,CPythonTextTail::STextTail *> > > >
PUBLIC	??$addressof@$$CBV?$_Tree_val@U?$_Tree_simple_types@U?$pair@$$CBKPAUSTextTail@CPythonTextTail@@@std@@@std@@@std@@@std@@YAPBV?$_Tree_val@U?$_Tree_simple_types@U?$pair@$$CBKPAUSTextTail@CPythonTextTail@@@std@@@std@@@0@ABV10@@Z ; std::addressof<std::_Tree_val<std::_Tree_simple_types<std::pair<unsigned long const ,CPythonTextTail::STextTail *> > > const >
PUBLIC	??$?0$$V@?$_Compressed_pair@V?$allocator@PAUSTextTail@CPythonTextTail@@@std@@V?$_Vector_val@U?$_Simple_types@PAUSTextTail@CPythonTextTail@@@std@@@2@$00@std@@QAE@U_Zero_then_variadic_args_t@1@@Z ; std::_Compressed_pair<std::allocator<CPythonTextTail::STextTail *>,std::_Vector_val<std::_Simple_types<CPythonTextTail::STextTail *> >,1>::_Compressed_pair<std::allocator<CPythonTextTail::STextTail *>,std::_Vector_val<std::_Simple_types<CPythonTextTail::STextTail *> >,1><>
PUBLIC	??$_Emplace_one_at_back@ABQAUSTextTail@CPythonTextTail@@@?$vector@PAUSTextTail@CPythonTextTail@@V?$allocator@PAUSTextTail@CPythonTextTail@@@std@@@std@@AAEAAPAUSTextTail@CPythonTextTail@@ABQAU23@@Z ; std::vector<CPythonTextTail::STextTail *,std::allocator<CPythonTextTail::STextTail *> >::_Emplace_one_at_back<CPythonTextTail::STextTail * const &>
PUBLIC	??$destroy@PAUSTextTail@CPythonTextTail@@@?$_Default_allocator_traits@V?$allocator@PAUSTextTail@CPythonTextTail@@@std@@@std@@SAXAAV?$allocator@PAUSTextTail@CPythonTextTail@@@1@QAPAUSTextTail@CPythonTextTail@@@Z ; std::_Default_allocator_traits<std::allocator<CPythonTextTail::STextTail *> >::destroy<CPythonTextTail::STextTail *>
PUBLIC	??$_Unfancy@PAUSTextTail@CPythonTextTail@@@std@@YAPAPAUSTextTail@CPythonTextTail@@PAPAU12@@Z ; std::_Unfancy<CPythonTextTail::STextTail *>
PUBLIC	??$addressof@U?$pair@$$CBKPAUSTextTail@CPythonTextTail@@@std@@@std@@YAPAU?$pair@$$CBKPAUSTextTail@CPythonTextTail@@@0@AAU10@@Z ; std::addressof<std::pair<unsigned long const ,CPythonTextTail::STextTail *> >
PUBLIC	??$?0ABQAUSTextTail@CPythonTextTail@@@?$_List_node_emplace_op2@V?$allocator@U?$_List_node@PAUSTextTail@CPythonTextTail@@PAX@std@@@std@@@std@@QAE@AAV?$allocator@U?$_List_node@PAUSTextTail@CPythonTextTail@@PAX@std@@@1@ABQAUSTextTail@CPythonTextTail@@@Z ; std::_List_node_emplace_op2<std::allocator<std::_List_node<CPythonTextTail::STextTail *,void *> > >::_List_node_emplace_op2<std::allocator<std::_List_node<CPythonTextTail::STextTail *,void *> > ><CPythonTextTail::STextTail * const &>
PUBLIC	??$forward@ABQAUSTextTail@CPythonTextTail@@@std@@YAABQAUSTextTail@CPythonTextTail@@ABQAU12@@Z ; std::forward<CPythonTextTail::STextTail * const &>
PUBLIC	??$_Freenode@V?$allocator@U?$_List_node@PAUSTextTail@CPythonTextTail@@PAX@std@@@std@@@?$_List_node@PAUSTextTail@CPythonTextTail@@PAX@std@@SAXAAV?$allocator@U?$_List_node@PAUSTextTail@CPythonTextTail@@PAX@std@@@1@PAU01@@Z ; std::_List_node<CPythonTextTail::STextTail *,void *>::_Freenode<std::allocator<std::_List_node<CPythonTextTail::STextTail *,void *> > >
PUBLIC	??$_Freenode0@V?$allocator@U?$_Tree_node@U?$pair@$$CBKPAUSTextTail@CPythonTextTail@@@std@@PAX@std@@@std@@@?$_Tree_node@U?$pair@$$CBKPAUSTextTail@CPythonTextTail@@@std@@PAX@std@@SAXAAV?$allocator@U?$_Tree_node@U?$pair@$$CBKPAUSTextTail@CPythonTextTail@@@std@@PAX@std@@@1@PAU01@@Z ; std::_Tree_node<std::pair<unsigned long const ,CPythonTextTail::STextTail *>,void *>::_Freenode0<std::allocator<std::_Tree_node<std::pair<unsigned long const ,CPythonTextTail::STextTail *>,void *> > >
PUBLIC	??$_Freenode@V?$allocator@U?$_Tree_node@U?$pair@$$CBKPAUSTextTail@CPythonTextTail@@@std@@PAX@std@@@std@@@?$_Tree_node@U?$pair@$$CBKPAUSTextTail@CPythonTextTail@@@std@@PAX@std@@SAXAAV?$allocator@U?$_Tree_node@U?$pair@$$CBKPAUSTextTail@CPythonTextTail@@@std@@PAX@std@@@1@PAU01@@Z ; std::_Tree_node<std::pair<unsigned long const ,CPythonTextTail::STextTail *>,void *>::_Freenode<std::allocator<std::_Tree_node<std::pair<unsigned long const ,CPythonTextTail::STextTail *>,void *> > >
PUBLIC	??$exchange@PAU?$_Tree_node@U?$pair@$$CBKPAUSTextTail@CPythonTextTail@@@std@@PAX@std@@AAPAU12@@std@@YAPAU?$_Tree_node@U?$pair@$$CBKPAUSTextTail@CPythonTextTail@@@std@@PAX@0@AAPAU10@0@Z ; std::exchange<std::_Tree_node<std::pair<unsigned long const ,CPythonTextTail::STextTail *>,void *> *,std::_Tree_node<std::pair<unsigned long const ,CPythonTextTail::STextTail *>,void *> * &>
PUBLIC	??$forward@V?$_Tree_iterator@V?$_Tree_val@U?$_Tree_simple_types@U?$pair@$$CBKPAUSTextTail@CPythonTextTail@@@std@@@std@@@std@@@std@@@std@@YA$$QAV?$_Tree_iterator@V?$_Tree_val@U?$_Tree_simple_types@U?$pair@$$CBKPAUSTextTail@CPythonTextTail@@@std@@@std@@@std@@@0@AAV10@@Z ; std::forward<std::_Tree_iterator<std::_Tree_val<std::_Tree_simple_types<std::pair<unsigned long const ,CPythonTextTail::STextTail *> > > > >
PUBLIC	??$?0PAU?$_Tree_node@U?$pair@$$CBKPAUSTextTail@CPythonTextTail@@@std@@PAX@std@@_N$0A@@?$pair@PAU?$_Tree_node@U?$pair@$$CBKPAUSTextTail@CPythonTextTail@@@std@@PAX@std@@_N@std@@QAE@$$QAPAU?$_Tree_node@U?$pair@$$CBKPAUSTextTail@CPythonTextTail@@@std@@PAX@1@$$QA_N@Z ; std::pair<std::_Tree_node<std::pair<unsigned long const ,CPythonTextTail::STextTail *>,void *> *,bool>::pair<std::_Tree_node<std::pair<unsigned long const ,CPythonTextTail::STextTail *>,void *> *,bool><std::_Tree_node<std::pair<unsigned long const ,CPythonTextTail::STextTail *>,void *> *,bool,0>
PUBLIC	??$?0AAPAU?$_Tree_node@U?$pair@$$CBKPAUSTextTail@CPythonTextTail@@@std@@PAX@std@@_N$0A@@?$pair@PAU?$_Tree_node@U?$pair@$$CBKPAUSTextTail@CPythonTextTail@@@std@@PAX@std@@_N@std@@QAE@AAPAU?$_Tree_node@U?$pair@$$CBKPAUSTextTail@CPythonTextTail@@@std@@PAX@1@$$QA_N@Z ; std::pair<std::_Tree_node<std::pair<unsigned long const ,CPythonTextTail::STextTail *>,void *> *,bool>::pair<std::_Tree_node<std::pair<unsigned long const ,CPythonTextTail::STextTail *>,void *> *,bool><std::_Tree_node<std::pair<unsigned long const ,CPythonTextTail::STextTail *>,void *> * &,bool,0>
PUBLIC	??$?0U?$pair@$$CBKPAUSTextTail@CPythonTextTail@@@std@@@?$_Tree_temp_node@V?$allocator@U?$_Tree_node@U?$pair@$$CBKPAUSTextTail@CPythonTextTail@@@std@@PAX@std@@@std@@@std@@QAE@AAV?$allocator@U?$_Tree_node@U?$pair@$$CBKPAUSTextTail@CPythonTextTail@@@std@@PAX@std@@@1@PAU?$_Tree_node@U?$pair@$$CBKPAUSTextTail@CPythonTextTail@@@std@@PAX@1@$$QAU?$pair@$$CBKPAUSTextTail@CPythonTextTail@@@1@@Z ; std::_Tree_temp_node<std::allocator<std::_Tree_node<std::pair<unsigned long const ,CPythonTextTail::STextTail *>,void *> > >::_Tree_temp_node<std::allocator<std::_Tree_node<std::pair<unsigned long const ,CPythonTextTail::STextTail *>,void *> > ><std::pair<unsigned long const ,CPythonTextTail::STextTail *> >
PUBLIC	??$forward@U?$pair@$$CBKPAUSTextTail@CPythonTextTail@@@std@@@std@@YA$$QAU?$pair@$$CBKPAUSTextTail@CPythonTextTail@@@0@AAU10@@Z ; std::forward<std::pair<unsigned long const ,CPythonTextTail::STextTail *> >
PUBLIC	??$_Lower_bound_duplicate@K@?$_Tree@V?$_Tmap_traits@KPAUSTextTail@CPythonTextTail@@U?$less@K@std@@V?$allocator@U?$pair@$$CBKPAUSTextTail@CPythonTextTail@@@std@@@4@$0A@@std@@@std@@IBE_NQAU?$_Tree_node@U?$pair@$$CBKPAUSTextTail@CPythonTextTail@@@std@@PAX@1@ABK@Z ; std::_Tree<std::_Tmap_traits<unsigned long,CPythonTextTail::STextTail *,std::less<unsigned long>,std::allocator<std::pair<unsigned long const ,CPythonTextTail::STextTail *> >,0> >::_Lower_bound_duplicate<unsigned long>
PUBLIC	??$_Find_lower_bound@K@?$_Tree@V?$_Tmap_traits@KPAUSTextTail@CPythonTextTail@@U?$less@K@std@@V?$allocator@U?$pair@$$CBKPAUSTextTail@CPythonTextTail@@@std@@@4@$0A@@std@@@std@@IBE?AU?$_Tree_find_result@PAU?$_Tree_node@U?$pair@$$CBKPAUSTextTail@CPythonTextTail@@@std@@PAX@std@@@1@ABK@Z ; std::_Tree<std::_Tmap_traits<unsigned long,CPythonTextTail::STextTail *,std::less<unsigned long>,std::allocator<std::pair<unsigned long const ,CPythonTextTail::STextTail *> >,0> >::_Find_lower_bound<unsigned long>
PUBLIC	??$forward@V?$_List_unchecked_iterator@V?$_List_val@U?$_List_simple_types@PAUSTextTail@CPythonTextTail@@@std@@@std@@@std@@@std@@YA$$QAV?$_List_unchecked_iterator@V?$_List_val@U?$_List_simple_types@PAUSTextTail@CPythonTextTail@@@std@@@std@@@0@AAV10@@Z ; std::forward<std::_List_unchecked_iterator<std::_List_val<std::_List_simple_types<CPythonTextTail::STextTail *> > > >
PUBLIC	??$move@AAPAUSTextTail@CPythonTextTail@@@std@@YA$$QAPAUSTextTail@CPythonTextTail@@AAPAU12@@Z ; std::move<CPythonTextTail::STextTail * &>
PUBLIC	??0?$_Tree_unchecked_iterator@V?$_Tree_val@U?$_Tree_simple_types@U?$pair@$$CBKPAUSTextTail@CPythonTextTail@@@std@@@std@@@std@@@std@@QAE@PAU?$_Tree_node@U?$pair@$$CBKPAUSTextTail@CPythonTextTail@@@std@@PAX@1@PBV?$_Tree_val@U?$_Tree_simple_types@U?$pair@$$CBKPAUSTextTail@CPythonTextTail@@@std@@@std@@@1@@Z ; std::_Tree_unchecked_iterator<std::_Tree_val<std::_Tree_simple_types<std::pair<unsigned long const ,CPythonTextTail::STextTail *> > > >::_Tree_unchecked_iterator<std::_Tree_val<std::_Tree_simple_types<std::pair<unsigned long const ,CPythonTextTail::STextTail *> > > >
PUBLIC	??0?$_List_unchecked_iterator@V?$_List_val@U?$_List_simple_types@PAUSTextTail@CPythonTextTail@@@std@@@std@@@std@@QAE@PAU?$_List_node@PAUSTextTail@CPythonTextTail@@PAX@1@PBV?$_List_val@U?$_List_simple_types@PAUSTextTail@CPythonTextTail@@@std@@@1@@Z ; std::_List_unchecked_iterator<std::_List_val<std::_List_simple_types<CPythonTextTail::STextTail *> > >::_List_unchecked_iterator<std::_List_val<std::_List_simple_types<CPythonTextTail::STextTail *> > >
PUBLIC	?_Tidy@?$list@PAUSTextTail@CPythonTextTail@@V?$allocator@PAUSTextTail@CPythonTextTail@@@std@@@std@@AAEXXZ ; std::list<CPythonTextTail::STextTail *,std::allocator<CPythonTextTail::STextTail *> >::_Tidy
PUBLIC	?_Alloc_sentinel_and_proxy@?$list@PAUSTextTail@CPythonTextTail@@V?$allocator@PAUSTextTail@CPythonTextTail@@@std@@@std@@AAEXXZ ; std::list<CPythonTextTail::STextTail *,std::allocator<CPythonTextTail::STextTail *> >::_Alloc_sentinel_and_proxy
PUBLIC	?_Getal@?$list@PAUSTextTail@CPythonTextTail@@V?$allocator@PAUSTextTail@CPythonTextTail@@@std@@@std@@AAEAAV?$allocator@U?$_List_node@PAUSTextTail@CPythonTextTail@@PAX@std@@@2@XZ ; std::list<CPythonTextTail::STextTail *,std::allocator<CPythonTextTail::STextTail *> >::_Getal
PUBLIC	??0?$_Tree@V?$_Tmap_traits@KPAUSTextTail@CPythonTextTail@@U?$less@K@std@@V?$allocator@U?$pair@$$CBKPAUSTextTail@CPythonTextTail@@@std@@@4@$0A@@std@@@std@@QAE@ABU?$less@K@1@@Z ; std::_Tree<std::_Tmap_traits<unsigned long,CPythonTextTail::STextTail *,std::less<unsigned long>,std::allocator<std::pair<unsigned long const ,CPythonTextTail::STextTail *> >,0> >::_Tree<std::_Tmap_traits<unsigned long,CPythonTextTail::STextTail *,std::less<unsigned long>,std::allocator<std::pair<unsigned long const ,CPythonTextTail::STextTail *> >,0> >
PUBLIC	?_Erase_unchecked@?$_Tree@V?$_Tmap_traits@KPAUSTextTail@CPythonTextTail@@U?$less@K@std@@V?$allocator@U?$pair@$$CBKPAUSTextTail@CPythonTextTail@@@std@@@4@$0A@@std@@@std@@AAEPAU?$_Tree_node@U?$pair@$$CBKPAUSTextTail@CPythonTextTail@@@std@@PAX@2@V?$_Tree_unchecked_const_iterator@V?$_Tree_val@U?$_Tree_simple_types@U?$pair@$$CBKPAUSTextTail@CPythonTextTail@@@std@@@std@@@std@@U_Iterator_base0@2@@2@@Z ; std::_Tree<std::_Tmap_traits<unsigned long,CPythonTextTail::STextTail *,std::less<unsigned long>,std::allocator<std::pair<unsigned long const ,CPythonTextTail::STextTail *> >,0> >::_Erase_unchecked
PUBLIC	?_Getal@?$_Tree@V?$_Tmap_traits@KPAUSTextTail@CPythonTextTail@@U?$less@K@std@@V?$allocator@U?$pair@$$CBKPAUSTextTail@CPythonTextTail@@@std@@@4@$0A@@std@@@std@@IAEAAV?$allocator@U?$_Tree_node@U?$pair@$$CBKPAUSTextTail@CPythonTextTail@@@std@@PAX@std@@@2@XZ ; std::_Tree<std::_Tmap_traits<unsigned long,CPythonTextTail::STextTail *,std::less<unsigned long>,std::allocator<std::pair<unsigned long const ,CPythonTextTail::STextTail *> >,0> >::_Getal
PUBLIC	?_Get_scary@?$_Tree@V?$_Tmap_traits@KPAUSTextTail@CPythonTextTail@@U?$less@K@std@@V?$allocator@U?$pair@$$CBKPAUSTextTail@CPythonTextTail@@@std@@@4@$0A@@std@@@std@@IAEPAV?$_Tree_val@U?$_Tree_simple_types@U?$pair@$$CBKPAUSTextTail@CPythonTextTail@@@std@@@std@@@2@XZ ; std::_Tree<std::_Tmap_traits<unsigned long,CPythonTextTail::STextTail *,std::less<unsigned long>,std::allocator<std::pair<unsigned long const ,CPythonTextTail::STextTail *> >,0> >::_Get_scary
PUBLIC	?_Get_scary@?$_Tree@V?$_Tmap_traits@KPAUSTextTail@CPythonTextTail@@U?$less@K@std@@V?$allocator@U?$pair@$$CBKPAUSTextTail@CPythonTextTail@@@std@@@4@$0A@@std@@@std@@IBEPBV?$_Tree_val@U?$_Tree_simple_types@U?$pair@$$CBKPAUSTextTail@CPythonTextTail@@@std@@@std@@@2@XZ ; std::_Tree<std::_Tmap_traits<unsigned long,CPythonTextTail::STextTail *,std::less<unsigned long>,std::allocator<std::pair<unsigned long const ,CPythonTextTail::STextTail *> >,0> >::_Get_scary
PUBLIC	?_Orphan_ptr@?$_Tree_val@U?$_Tree_simple_types@U?$pair@$$CBKPAUSTextTail@CPythonTextTail@@@std@@@std@@@std@@QAEXQAU?$_Tree_node@U?$pair@$$CBKPAUSTextTail@CPythonTextTail@@@std@@PAX@2@@Z ; std::_Tree_val<std::_Tree_simple_types<std::pair<unsigned long const ,CPythonTextTail::STextTail *> > >::_Orphan_ptr
PUBLIC	??E?$_Tree_const_iterator@V?$_Tree_val@U?$_Tree_simple_types@U?$pair@$$CBKPAUSTextTail@CPythonTextTail@@@std@@@std@@@std@@@std@@QAEAAV01@XZ ; std::_Tree_const_iterator<std::_Tree_val<std::_Tree_simple_types<std::pair<unsigned long const ,CPythonTextTail::STextTail *> > > >::operator++
PUBLIC	??D?$_Tree_iterator@V?$_Tree_val@U?$_Tree_simple_types@U?$pair@$$CBKPAUSTextTail@CPythonTextTail@@@std@@@std@@@std@@@std@@QBEAAU?$pair@$$CBKPAUSTextTail@CPythonTextTail@@@1@XZ ; std::_Tree_iterator<std::_Tree_val<std::_Tree_simple_types<std::pair<unsigned long const ,CPythonTextTail::STextTail *> > > >::operator*
PUBLIC	?_Unwrapped@?$_Tree_iterator@V?$_Tree_val@U?$_Tree_simple_types@U?$pair@$$CBKPAUSTextTail@CPythonTextTail@@@std@@@std@@@std@@@std@@QBE?AV?$_Tree_unchecked_iterator@V?$_Tree_val@U?$_Tree_simple_types@U?$pair@$$CBKPAUSTextTail@CPythonTextTail@@@std@@@std@@@std@@@2@XZ ; std::_Tree_iterator<std::_Tree_val<std::_Tree_simple_types<std::pair<unsigned long const ,CPythonTextTail::STextTail *> > > >::_Unwrapped
PUBLIC	??0?$_Tree_unchecked_const_iterator@V?$_Tree_val@U?$_Tree_simple_types@U?$pair@$$CBKPAUSTextTail@CPythonTextTail@@@std@@@std@@@std@@U_Iterator_base0@2@@std@@QAE@PAU?$_Tree_node@U?$pair@$$CBKPAUSTextTail@CPythonTextTail@@@std@@PAX@1@PBV?$_Tree_val@U?$_Tree_simple_types@U?$pair@$$CBKPAUSTextTail@CPythonTextTail@@@std@@@std@@@1@@Z ; std::_Tree_unchecked_const_iterator<std::_Tree_val<std::_Tree_simple_types<std::pair<unsigned long const ,CPythonTextTail::STextTail *> > >,std::_Iterator_base0>::_Tree_unchecked_const_iterator<std::_Tree_val<std::_Tree_simple_types<std::pair<unsigned long const ,CPythonTextTail::STextTail *> > >,std::_Iterator_base0>
PUBLIC	?_Orphan_non_end@?$_List_val@U?$_List_simple_types@PAUSTextTail@CPythonTextTail@@@std@@@std@@QAEXXZ ; std::_List_val<std::_List_simple_types<CPythonTextTail::STextTail *> >::_Orphan_non_end
PUBLIC	?_Unwrapped@?$_List_iterator@V?$_List_val@U?$_List_simple_types@PAUSTextTail@CPythonTextTail@@@std@@@std@@@std@@QBE?AV?$_List_unchecked_iterator@V?$_List_val@U?$_List_simple_types@PAUSTextTail@CPythonTextTail@@@std@@@std@@@2@XZ ; std::_List_iterator<std::_List_val<std::_List_simple_types<CPythonTextTail::STextTail *> > >::_Unwrapped
PUBLIC	??D?$_List_const_iterator@V?$_List_val@U?$_List_simple_types@PAUSTextTail@CPythonTextTail@@@std@@@std@@@std@@QBEABQAUSTextTail@CPythonTextTail@@XZ ; std::_List_const_iterator<std::_List_val<std::_List_simple_types<CPythonTextTail::STextTail *> > >::operator*
PUBLIC	??E?$_List_const_iterator@V?$_List_val@U?$_List_simple_types@PAUSTextTail@CPythonTextTail@@@std@@@std@@@std@@QAEAAV01@XZ ; std::_List_const_iterator<std::_List_val<std::_List_simple_types<CPythonTextTail::STextTail *> > >::operator++
PUBLIC	??0?$_List_unchecked_const_iterator@V?$_List_val@U?$_List_simple_types@PAUSTextTail@CPythonTextTail@@@std@@@std@@U_Iterator_base0@2@@std@@QAE@PAU?$_List_node@PAUSTextTail@CPythonTextTail@@PAX@1@PBV?$_List_val@U?$_List_simple_types@PAUSTextTail@CPythonTextTail@@@std@@@1@@Z ; std::_List_unchecked_const_iterator<std::_List_val<std::_List_simple_types<CPythonTextTail::STextTail *> >,std::_Iterator_base0>::_List_unchecked_const_iterator<std::_List_val<std::_List_simple_types<CPythonTextTail::STextTail *> >,std::_Iterator_base0>
PUBLIC	?Destroy@?$CDynamicPool@USTextTail@CPythonTextTail@@@@QAEXXZ ; CDynamicPool<CPythonTextTail::STextTail>::Destroy
PUBLIC	??0?$vector@PAUSTextTail@CPythonTextTail@@V?$allocator@PAUSTextTail@CPythonTextTail@@@std@@@std@@QAE@XZ ; std::vector<CPythonTextTail::STextTail *,std::allocator<CPythonTextTail::STextTail *> >::vector<CPythonTextTail::STextTail *,std::allocator<CPythonTextTail::STextTail *> >
PUBLIC	??1?$vector@PAUSTextTail@CPythonTextTail@@V?$allocator@PAUSTextTail@CPythonTextTail@@@std@@@std@@QAE@XZ ; std::vector<CPythonTextTail::STextTail *,std::allocator<CPythonTextTail::STextTail *> >::~vector<CPythonTextTail::STextTail *,std::allocator<CPythonTextTail::STextTail *> >
PUBLIC	?push_back@?$vector@PAUSTextTail@CPythonTextTail@@V?$allocator@PAUSTextTail@CPythonTextTail@@@std@@@std@@QAEXABQAUSTextTail@CPythonTextTail@@@Z ; std::vector<CPythonTextTail::STextTail *,std::allocator<CPythonTextTail::STextTail *> >::push_back
PUBLIC	?pop_back@?$vector@PAUSTextTail@CPythonTextTail@@V?$allocator@PAUSTextTail@CPythonTextTail@@@std@@@std@@QAEXXZ ; std::vector<CPythonTextTail::STextTail *,std::allocator<CPythonTextTail::STextTail *> >::pop_back
PUBLIC	?empty@?$vector@PAUSTextTail@CPythonTextTail@@V?$allocator@PAUSTextTail@CPythonTextTail@@@std@@@std@@QBE_NXZ ; std::vector<CPythonTextTail::STextTail *,std::allocator<CPythonTextTail::STextTail *> >::empty
PUBLIC	?size@?$vector@PAUSTextTail@CPythonTextTail@@V?$allocator@PAUSTextTail@CPythonTextTail@@@std@@@std@@QBEIXZ ; std::vector<CPythonTextTail::STextTail *,std::allocator<CPythonTextTail::STextTail *> >::size
PUBLIC	?back@?$vector@PAUSTextTail@CPythonTextTail@@V?$allocator@PAUSTextTail@CPythonTextTail@@@std@@@std@@QAEAAPAUSTextTail@CPythonTextTail@@XZ ; std::vector<CPythonTextTail::STextTail *,std::allocator<CPythonTextTail::STextTail *> >::back
PUBLIC	?pointer_to@?$pointer_traits@PAU?$pair@$$CBKPAUSTextTail@CPythonTextTail@@@std@@@std@@SAPAU?$pair@$$CBKPAUSTextTail@CPythonTextTail@@@2@AAU32@@Z ; std::pointer_traits<std::pair<unsigned long const ,CPythonTextTail::STextTail *> *>::pointer_to
PUBLIC	??$?0$$V@?$_Compressed_pair@V?$allocator@U?$_List_node@PAUSTextTail@CPythonTextTail@@PAX@std@@@std@@V?$_List_val@U?$_List_simple_types@PAUSTextTail@CPythonTextTail@@@std@@@2@$00@std@@QAE@U_Zero_then_variadic_args_t@1@@Z ; std::_Compressed_pair<std::allocator<std::_List_node<CPythonTextTail::STextTail *,void *> >,std::_List_val<std::_List_simple_types<CPythonTextTail::STextTail *> >,1>::_Compressed_pair<std::allocator<std::_List_node<CPythonTextTail::STextTail *,void *> >,std::_List_val<std::_List_simple_types<CPythonTextTail::STextTail *> >,1><>
PUBLIC	??$addressof@V?$_List_val@U?$_List_simple_types@PAUSTextTail@CPythonTextTail@@@std@@@std@@@std@@YAPAV?$_List_val@U?$_List_simple_types@PAUSTextTail@CPythonTextTail@@@std@@@0@AAV10@@Z ; std::addressof<std::_List_val<std::_List_simple_types<CPythonTextTail::STextTail *> > >
PUBLIC	??$_Emplace@ABQAUSTextTail@CPythonTextTail@@@?$list@PAUSTextTail@CPythonTextTail@@V?$allocator@PAUSTextTail@CPythonTextTail@@@std@@@std@@QAEPAU?$_List_node@PAUSTextTail@CPythonTextTail@@PAX@1@QAU21@ABQAUSTextTail@CPythonTextTail@@@Z ; std::list<CPythonTextTail::STextTail *,std::allocator<CPythonTextTail::STextTail *> >::_Emplace<CPythonTextTail::STextTail * const &>
PUBLIC	??$_Free_non_head@V?$allocator@U?$_List_node@PAUSTextTail@CPythonTextTail@@PAX@std@@@std@@@?$_List_node@PAUSTextTail@CPythonTextTail@@PAX@std@@SAXAAV?$allocator@U?$_List_node@PAUSTextTail@CPythonTextTail@@PAX@std@@@1@PAU01@@Z ; std::_List_node<CPythonTextTail::STextTail *,void *>::_Free_non_head<std::allocator<std::_List_node<CPythonTextTail::STextTail *,void *> > >
PUBLIC	??$_Erase_head@V?$allocator@U?$_Tree_node@U?$pair@$$CBKPAUSTextTail@CPythonTextTail@@@std@@PAX@std@@@std@@@?$_Tree_val@U?$_Tree_simple_types@U?$pair@$$CBKPAUSTextTail@CPythonTextTail@@@std@@@std@@@std@@QAEXAAV?$allocator@U?$_Tree_node@U?$pair@$$CBKPAUSTextTail@CPythonTextTail@@@std@@PAX@std@@@1@@Z ; std::_Tree_val<std::_Tree_simple_types<std::pair<unsigned long const ,CPythonTextTail::STextTail *> > >::_Erase_head<std::allocator<std::_Tree_node<std::pair<unsigned long const ,CPythonTextTail::STextTail *>,void *> > >
PUBLIC	??$_Erase_tree@V?$allocator@U?$_Tree_node@U?$pair@$$CBKPAUSTextTail@CPythonTextTail@@@std@@PAX@std@@@std@@@?$_Tree_val@U?$_Tree_simple_types@U?$pair@$$CBKPAUSTextTail@CPythonTextTail@@@std@@@std@@@std@@QAEXAAV?$allocator@U?$_Tree_node@U?$pair@$$CBKPAUSTextTail@CPythonTextTail@@@std@@PAX@std@@@1@PAU?$_Tree_node@U?$pair@$$CBKPAUSTextTail@CPythonTextTail@@@std@@PAX@1@@Z ; std::_Tree_val<std::_Tree_simple_types<std::pair<unsigned long const ,CPythonTextTail::STextTail *> > >::_Erase_tree<std::allocator<std::_Tree_node<std::pair<unsigned long const ,CPythonTextTail::STextTail *>,void *> > >
PUBLIC	??$_Find@K@?$_Tree@V?$_Tmap_traits@KPAUSTextTail@CPythonTextTail@@U?$less@K@std@@V?$allocator@U?$pair@$$CBKPAUSTextTail@CPythonTextTail@@@std@@@4@$0A@@std@@@std@@ABEPAU?$_Tree_node@U?$pair@$$CBKPAUSTextTail@CPythonTextTail@@@std@@PAX@1@ABK@Z ; std::_Tree<std::_Tmap_traits<unsigned long,CPythonTextTail::STextTail *,std::less<unsigned long>,std::allocator<std::pair<unsigned long const ,CPythonTextTail::STextTail *> >,0> >::_Find<unsigned long>
PUBLIC	??$?0V?$_Tree_iterator@V?$_Tree_val@U?$_Tree_simple_types@U?$pair@$$CBKPAUSTextTail@CPythonTextTail@@@std@@@std@@@std@@@std@@AB_N$0A@@?$pair@V?$_Tree_iterator@V?$_Tree_val@U?$_Tree_simple_types@U?$pair@$$CBKPAUSTextTail@CPythonTextTail@@@std@@@std@@@std@@@std@@_N@std@@QAE@$$QAV?$_Tree_iterator@V?$_Tree_val@U?$_Tree_simple_types@U?$pair@$$CBKPAUSTextTail@CPythonTextTail@@@std@@@std@@@std@@@1@AB_N@Z ; std::pair<std::_Tree_iterator<std::_Tree_val<std::_Tree_simple_types<std::pair<unsigned long const ,CPythonTextTail::STextTail *> > > >,bool>::pair<std::_Tree_iterator<std::_Tree_val<std::_Tree_simple_types<std::pair<unsigned long const ,CPythonTextTail::STextTail *> > > >,bool><std::_Tree_iterator<std::_Tree_val<std::_Tree_simple_types<std::pair<unsigned long const ,CPythonTextTail::STextTail *> > > >,bool const &,0>
PUBLIC	??$_Emplace@U?$pair@$$CBKPAUSTextTail@CPythonTextTail@@@std@@@?$_Tree@V?$_Tmap_traits@KPAUSTextTail@CPythonTextTail@@U?$less@K@std@@V?$allocator@U?$pair@$$CBKPAUSTextTail@CPythonTextTail@@@std@@@4@$0A@@std@@@std@@IAE?AU?$pair@PAU?$_Tree_node@U?$pair@$$CBKPAUSTextTail@CPythonTextTail@@@std@@PAX@std@@_N@1@$$QAU?$pair@$$CBKPAUSTextTail@CPythonTextTail@@@1@@Z ; std::_Tree<std::_Tmap_traits<unsigned long,CPythonTextTail::STextTail *,std::less<unsigned long>,std::allocator<std::pair<unsigned long const ,CPythonTextTail::STextTail *> >,0> >::_Emplace<std::pair<unsigned long const ,CPythonTextTail::STextTail *> >
PUBLIC	??$move@AAU?$pair@$$CBKPAUSTextTail@CPythonTextTail@@@std@@@std@@YA$$QAU?$pair@$$CBKPAUSTextTail@CPythonTextTail@@@0@AAU10@@Z ; std::move<std::pair<unsigned long const ,CPythonTextTail::STextTail *> &>
PUBLIC	??$forward@AAPAUSTextTail@CPythonTextTail@@@std@@YAAAPAUSTextTail@CPythonTextTail@@AAPAU12@@Z ; std::forward<CPythonTextTail::STextTail * &>
PUBLIC	??$_Seek_wrapped@V?$_List_iterator@V?$_List_val@U?$_List_simple_types@PAUSTextTail@CPythonTextTail@@@std@@@std@@@std@@V?$_List_unchecked_iterator@V?$_List_val@U?$_List_simple_types@PAUSTextTail@CPythonTextTail@@@std@@@std@@@2@@std@@YAXAAV?$_List_iterator@V?$_List_val@U?$_List_simple_types@PAUSTextTail@CPythonTextTail@@@std@@@std@@@0@$$QAV?$_List_unchecked_iterator@V?$_List_val@U?$_List_simple_types@PAUSTextTail@CPythonTextTail@@@std@@@std@@@0@@Z ; std::_Seek_wrapped<std::_List_iterator<std::_List_val<std::_List_simple_types<CPythonTextTail::STextTail *> > >,std::_List_unchecked_iterator<std::_List_val<std::_List_simple_types<CPythonTextTail::STextTail *> > > >
PUBLIC	??$_Find_unchecked@V?$_List_unchecked_iterator@V?$_List_val@U?$_List_simple_types@PAUSTextTail@CPythonTextTail@@@std@@@std@@@std@@PAUSTextTail@CPythonTextTail@@@std@@YA?AV?$_List_unchecked_iterator@V?$_List_val@U?$_List_simple_types@PAUSTextTail@CPythonTextTail@@@std@@@std@@@0@V10@V10@ABQAUSTextTail@CPythonTextTail@@@Z ; std::_Find_unchecked<std::_List_unchecked_iterator<std::_List_val<std::_List_simple_types<CPythonTextTail::STextTail *> > >,CPythonTextTail::STextTail *>
PUBLIC	??$_Adl_verify_range@V?$_List_iterator@V?$_List_val@U?$_List_simple_types@PAUSTextTail@CPythonTextTail@@@std@@@std@@@std@@V12@@std@@YAXABV?$_List_iterator@V?$_List_val@U?$_List_simple_types@PAUSTextTail@CPythonTextTail@@@std@@@std@@@0@0@Z ; std::_Adl_verify_range<std::_List_iterator<std::_List_val<std::_List_simple_types<CPythonTextTail::STextTail *> > >,std::_List_iterator<std::_List_val<std::_List_simple_types<CPythonTextTail::STextTail *> > > >
PUBLIC	??0?$_List_const_iterator@V?$_List_val@U?$_List_simple_types@PAUSTextTail@CPythonTextTail@@@std@@@std@@@std@@QAE@PAU?$_List_node@PAUSTextTail@CPythonTextTail@@PAX@1@PBV?$_List_val@U?$_List_simple_types@PAUSTextTail@CPythonTextTail@@@std@@@1@@Z ; std::_List_const_iterator<std::_List_val<std::_List_simple_types<CPythonTextTail::STextTail *> > >::_List_const_iterator<std::_List_val<std::_List_simple_types<CPythonTextTail::STextTail *> > >
PUBLIC	??0?$_Tree_const_iterator@V?$_Tree_val@U?$_Tree_simple_types@U?$pair@$$CBKPAUSTextTail@CPythonTextTail@@@std@@@std@@@std@@@std@@QAE@PAU?$_Tree_node@U?$pair@$$CBKPAUSTextTail@CPythonTextTail@@@std@@PAX@1@PBV?$_Tree_val@U?$_Tree_simple_types@U?$pair@$$CBKPAUSTextTail@CPythonTextTail@@@std@@@std@@@1@@Z ; std::_Tree_const_iterator<std::_Tree_val<std::_Tree_simple_types<std::pair<unsigned long const ,CPythonTextTail::STextTail *> > > >::_Tree_const_iterator<std::_Tree_val<std::_Tree_simple_types<std::pair<unsigned long const ,CPythonTextTail::STextTail *> > > >
PUBLIC	??_G?$CSingleton@VCPythonTextTail@@@@UAEPAXI@Z	; CSingleton<CPythonTextTail>::`scalar deleting destructor'
PUBLIC	??0?$_List_iterator@V?$_List_val@U?$_List_simple_types@PAUSTextTail@CPythonTextTail@@@std@@@std@@@std@@QAE@PAU?$_List_node@PAUSTextTail@CPythonTextTail@@PAX@1@PBV?$_List_val@U?$_List_simple_types@PAUSTextTail@CPythonTextTail@@@std@@@1@@Z ; std::_List_iterator<std::_List_val<std::_List_simple_types<CPythonTextTail::STextTail *> > >::_List_iterator<std::_List_val<std::_List_simple_types<CPythonTextTail::STextTail *> > >
PUBLIC	??_G?$CDynamicPool@USTextTail@CPythonTextTail@@@@UAEPAXI@Z ; CDynamicPool<CPythonTextTail::STextTail>::`scalar deleting destructor'
PUBLIC	??0?$_Tree_iterator@V?$_Tree_val@U?$_Tree_simple_types@U?$pair@$$CBKPAUSTextTail@CPythonTextTail@@@std@@@std@@@std@@@std@@QAE@PAU?$_Tree_node@U?$pair@$$CBKPAUSTextTail@CPythonTextTail@@@std@@PAX@1@PBV?$_Tree_val@U?$_Tree_simple_types@U?$pair@$$CBKPAUSTextTail@CPythonTextTail@@@std@@@std@@@1@@Z ; std::_Tree_iterator<std::_Tree_val<std::_Tree_simple_types<std::pair<unsigned long const ,CPythonTextTail::STextTail *> > > >::_Tree_iterator<std::_Tree_val<std::_Tree_simple_types<std::pair<unsigned long const ,CPythonTextTail::STextTail *> > > >
PUBLIC	??0?$CSingleton@VCPythonTextTail@@@@QAE@XZ	; CSingleton<CPythonTextTail>::CSingleton<CPythonTextTail>
PUBLIC	??1?$CSingleton@VCPythonTextTail@@@@UAE@XZ	; CSingleton<CPythonTextTail>::~CSingleton<CPythonTextTail>
PUBLIC	??0?$map@KPAUSTextTail@CPythonTextTail@@U?$less@K@std@@V?$allocator@U?$pair@$$CBKPAUSTextTail@CPythonTextTail@@@std@@@4@@std@@QAE@XZ ; std::map<unsigned long,CPythonTextTail::STextTail *,std::less<unsigned long>,std::allocator<std::pair<unsigned long const ,CPythonTextTail::STextTail *> > >::map<unsigned long,CPythonTextTail::STextTail *,std::less<unsigned long>,std::allocator<std::pair<unsigned long const ,CPythonTextTail::STextTail *> > >
PUBLIC	??0?$list@PAUSTextTail@CPythonTextTail@@V?$allocator@PAUSTextTail@CPythonTextTail@@@std@@@std@@QAE@XZ ; std::list<CPythonTextTail::STextTail *,std::allocator<CPythonTextTail::STextTail *> >::list<CPythonTextTail::STextTail *,std::allocator<CPythonTextTail::STextTail *> >
PUBLIC	??1?$list@PAUSTextTail@CPythonTextTail@@V?$allocator@PAUSTextTail@CPythonTextTail@@@std@@@std@@QAE@XZ ; std::list<CPythonTextTail::STextTail *,std::allocator<CPythonTextTail::STextTail *> >::~list<CPythonTextTail::STextTail *,std::allocator<CPythonTextTail::STextTail *> >
PUBLIC	?begin@?$list@PAUSTextTail@CPythonTextTail@@V?$allocator@PAUSTextTail@CPythonTextTail@@@std@@@std@@QAE?AV?$_List_iterator@V?$_List_val@U?$_List_simple_types@PAUSTextTail@CPythonTextTail@@@std@@@std@@@2@XZ ; std::list<CPythonTextTail::STextTail *,std::allocator<CPythonTextTail::STextTail *> >::begin
PUBLIC	?end@?$list@PAUSTextTail@CPythonTextTail@@V?$allocator@PAUSTextTail@CPythonTextTail@@@std@@@std@@QAE?AV?$_List_iterator@V?$_List_val@U?$_List_simple_types@PAUSTextTail@CPythonTextTail@@@std@@@std@@@2@XZ ; std::list<CPythonTextTail::STextTail *,std::allocator<CPythonTextTail::STextTail *> >::end
PUBLIC	?size@?$list@PAUSTextTail@CPythonTextTail@@V?$allocator@PAUSTextTail@CPythonTextTail@@@std@@@std@@QBEIXZ ; std::list<CPythonTextTail::STextTail *,std::allocator<CPythonTextTail::STextTail *> >::size
PUBLIC	?push_back@?$list@PAUSTextTail@CPythonTextTail@@V?$allocator@PAUSTextTail@CPythonTextTail@@@std@@@std@@QAEXABQAUSTextTail@CPythonTextTail@@@Z ; std::list<CPythonTextTail::STextTail *,std::allocator<CPythonTextTail::STextTail *> >::push_back
PUBLIC	?clear@?$list@PAUSTextTail@CPythonTextTail@@V?$allocator@PAUSTextTail@CPythonTextTail@@@std@@@std@@QAEXXZ ; std::list<CPythonTextTail::STextTail *,std::allocator<CPythonTextTail::STextTail *> >::clear
PUBLIC	??1?$_Tree@V?$_Tmap_traits@KPAUSTextTail@CPythonTextTail@@U?$less@K@std@@V?$allocator@U?$pair@$$CBKPAUSTextTail@CPythonTextTail@@@std@@@4@$0A@@std@@@std@@QAE@XZ ; std::_Tree<std::_Tmap_traits<unsigned long,CPythonTextTail::STextTail *,std::less<unsigned long>,std::allocator<std::pair<unsigned long const ,CPythonTextTail::STextTail *> >,0> >::~_Tree<std::_Tmap_traits<unsigned long,CPythonTextTail::STextTail *,std::less<unsigned long>,std::allocator<std::pair<unsigned long const ,CPythonTextTail::STextTail *> >,0> >
PUBLIC	?begin@?$_Tree@V?$_Tmap_traits@KPAUSTextTail@CPythonTextTail@@U?$less@K@std@@V?$allocator@U?$pair@$$CBKPAUSTextTail@CPythonTextTail@@@std@@@4@$0A@@std@@@std@@QAE?AV?$_Tree_iterator@V?$_Tree_val@U?$_Tree_simple_types@U?$pair@$$CBKPAUSTextTail@CPythonTextTail@@@std@@@std@@@std@@@2@XZ ; std::_Tree<std::_Tmap_traits<unsigned long,CPythonTextTail::STextTail *,std::less<unsigned long>,std::allocator<std::pair<unsigned long const ,CPythonTextTail::STextTail *> >,0> >::begin
PUBLIC	?end@?$_Tree@V?$_Tmap_traits@KPAUSTextTail@CPythonTextTail@@U?$less@K@std@@V?$allocator@U?$pair@$$CBKPAUSTextTail@CPythonTextTail@@@std@@@4@$0A@@std@@@std@@QAE?AV?$_Tree_iterator@V?$_Tree_val@U?$_Tree_simple_types@U?$pair@$$CBKPAUSTextTail@CPythonTextTail@@@std@@@std@@@std@@@2@XZ ; std::_Tree<std::_Tmap_traits<unsigned long,CPythonTextTail::STextTail *,std::less<unsigned long>,std::allocator<std::pair<unsigned long const ,CPythonTextTail::STextTail *> >,0> >::end
PUBLIC	?size@?$_Tree@V?$_Tmap_traits@KPAUSTextTail@CPythonTextTail@@U?$less@K@std@@V?$allocator@U?$pair@$$CBKPAUSTextTail@CPythonTextTail@@@std@@@4@$0A@@std@@@std@@QBEIXZ ; std::_Tree<std::_Tmap_traits<unsigned long,CPythonTextTail::STextTail *,std::less<unsigned long>,std::allocator<std::pair<unsigned long const ,CPythonTextTail::STextTail *> >,0> >::size
PUBLIC	?clear@?$_Tree@V?$_Tmap_traits@KPAUSTextTail@CPythonTextTail@@U?$less@K@std@@V?$allocator@U?$pair@$$CBKPAUSTextTail@CPythonTextTail@@@std@@@4@$0A@@std@@@std@@QAEXXZ ; std::_Tree<std::_Tmap_traits<unsigned long,CPythonTextTail::STextTail *,std::less<unsigned long>,std::allocator<std::pair<unsigned long const ,CPythonTextTail::STextTail *> >,0> >::clear
PUBLIC	?find@?$_Tree@V?$_Tmap_traits@KPAUSTextTail@CPythonTextTail@@U?$less@K@std@@V?$allocator@U?$pair@$$CBKPAUSTextTail@CPythonTextTail@@@std@@@4@$0A@@std@@@std@@QAE?AV?$_Tree_iterator@V?$_Tree_val@U?$_Tree_simple_types@U?$pair@$$CBKPAUSTextTail@CPythonTextTail@@@std@@@std@@@std@@@2@ABK@Z ; std::_Tree<std::_Tmap_traits<unsigned long,CPythonTextTail::STextTail *,std::less<unsigned long>,std::allocator<std::pair<unsigned long const ,CPythonTextTail::STextTail *> >,0> >::find
PUBLIC	??8?$_Tree_const_iterator@V?$_Tree_val@U?$_Tree_simple_types@U?$pair@$$CBKPAUSTextTail@CPythonTextTail@@@std@@@std@@@std@@@std@@QBE_NABV01@@Z ; std::_Tree_const_iterator<std::_Tree_val<std::_Tree_simple_types<std::pair<unsigned long const ,CPythonTextTail::STextTail *> > > >::operator==
PUBLIC	??C?$_Tree_iterator@V?$_Tree_val@U?$_Tree_simple_types@U?$pair@$$CBKPAUSTextTail@CPythonTextTail@@@std@@@std@@@std@@@std@@QBEPAU?$pair@$$CBKPAUSTextTail@CPythonTextTail@@@1@XZ ; std::_Tree_iterator<std::_Tree_val<std::_Tree_simple_types<std::pair<unsigned long const ,CPythonTextTail::STextTail *> > > >::operator->
PUBLIC	??E?$_Tree_iterator@V?$_Tree_val@U?$_Tree_simple_types@U?$pair@$$CBKPAUSTextTail@CPythonTextTail@@@std@@@std@@@std@@@std@@QAEAAV01@XZ ; std::_Tree_iterator<std::_Tree_val<std::_Tree_simple_types<std::pair<unsigned long const ,CPythonTextTail::STextTail *> > > >::operator++
PUBLIC	??0?$_Tree_unchecked_const_iterator@V?$_Tree_val@U?$_Tree_simple_types@U?$pair@$$CBKPAUSTextTail@CPythonTextTail@@@std@@@std@@@std@@U_Iterator_base0@2@@std@@QAE@XZ ; std::_Tree_unchecked_const_iterator<std::_Tree_val<std::_Tree_simple_types<std::pair<unsigned long const ,CPythonTextTail::STextTail *> > >,std::_Iterator_base0>::_Tree_unchecked_const_iterator<std::_Tree_val<std::_Tree_simple_types<std::pair<unsigned long const ,CPythonTextTail::STextTail *> > >,std::_Iterator_base0>
PUBLIC	??D?$_List_iterator@V?$_List_val@U?$_List_simple_types@PAUSTextTail@CPythonTextTail@@@std@@@std@@@std@@QBEAAPAUSTextTail@CPythonTextTail@@XZ ; std::_List_iterator<std::_List_val<std::_List_simple_types<CPythonTextTail::STextTail *> > >::operator*
PUBLIC	??E?$_List_iterator@V?$_List_val@U?$_List_simple_types@PAUSTextTail@CPythonTextTail@@@std@@@std@@@std@@QAEAAV01@XZ ; std::_List_iterator<std::_List_val<std::_List_simple_types<CPythonTextTail::STextTail *> > >::operator++
PUBLIC	??8?$_List_const_iterator@V?$_List_val@U?$_List_simple_types@PAUSTextTail@CPythonTextTail@@@std@@@std@@@std@@QBE_NABV01@@Z ; std::_List_const_iterator<std::_List_val<std::_List_simple_types<CPythonTextTail::STextTail *> > >::operator==
PUBLIC	??0?$_List_unchecked_const_iterator@V?$_List_val@U?$_List_simple_types@PAUSTextTail@CPythonTextTail@@@std@@@std@@U_Iterator_base0@2@@std@@QAE@XZ ; std::_List_unchecked_const_iterator<std::_List_val<std::_List_simple_types<CPythonTextTail::STextTail *> >,std::_Iterator_base0>::_List_unchecked_const_iterator<std::_List_val<std::_List_simple_types<CPythonTextTail::STextTail *> >,std::_Iterator_base0>
PUBLIC	??0?$CDynamicPool@USTextTail@CPythonTextTail@@@@QAE@XZ ; CDynamicPool<CPythonTextTail::STextTail>::CDynamicPool<CPythonTextTail::STextTail>
PUBLIC	??1?$CDynamicPool@USTextTail@CPythonTextTail@@@@UAE@XZ ; CDynamicPool<CPythonTextTail::STextTail>::~CDynamicPool<CPythonTextTail::STextTail>
PUBLIC	?Clear@?$CDynamicPool@USTextTail@CPythonTextTail@@@@QAEXXZ ; CDynamicPool<CPythonTextTail::STextTail>::Clear
PUBLIC	?Alloc@?$CDynamicPool@USTextTail@CPythonTextTail@@@@QAEPAUSTextTail@CPythonTextTail@@XZ ; CDynamicPool<CPythonTextTail::STextTail>::Alloc
PUBLIC	?Free@?$CDynamicPool@USTextTail@CPythonTextTail@@@@QAEXPAUSTextTail@CPythonTextTail@@@Z ; CDynamicPool<CPythonTextTail::STextTail>::Free
PUBLIC	?GetCapacity@?$CDynamicPool@USTextTail@CPythonTextTail@@@@QAEKXZ ; CDynamicPool<CPythonTextTail::STextTail>::GetCapacity
PUBLIC	??$insert@$0A@$0A@@?$_Tree@V?$_Tmap_traits@KPAUSTextTail@CPythonTextTail@@U?$less@K@std@@V?$allocator@U?$pair@$$CBKPAUSTextTail@CPythonTextTail@@@std@@@4@$0A@@std@@@std@@QAE?AU?$pair@V?$_Tree_iterator@V?$_Tree_val@U?$_Tree_simple_types@U?$pair@$$CBKPAUSTextTail@CPythonTextTail@@@std@@@std@@@std@@@std@@_N@1@$$QAU?$pair@$$CBKPAUSTextTail@CPythonTextTail@@@1@@Z ; std::_Tree<std::_Tmap_traits<unsigned long,CPythonTextTail::STextTail *,std::less<unsigned long>,std::allocator<std::pair<unsigned long const ,CPythonTextTail::STextTail *> >,0> >::insert<0,0>
PUBLIC	??$?0AAKAAPAUSTextTail@CPythonTextTail@@$0A@@?$pair@$$CBKPAUSTextTail@CPythonTextTail@@@std@@QAE@AAKAAPAUSTextTail@CPythonTextTail@@@Z ; std::pair<unsigned long const ,CPythonTextTail::STextTail *>::pair<unsigned long const ,CPythonTextTail::STextTail *><unsigned long &,CPythonTextTail::STextTail * &,0>
PUBLIC	??$_Get_unwrapped@ABV?$_List_iterator@V?$_List_val@U?$_List_simple_types@PAUSTextTail@CPythonTextTail@@@std@@@std@@@std@@@std@@YA?A_TABV?$_List_iterator@V?$_List_val@U?$_List_simple_types@PAUSTextTail@CPythonTextTail@@@std@@@std@@@0@@Z ; std::_Get_unwrapped<std::_List_iterator<std::_List_val<std::_List_simple_types<CPythonTextTail::STextTail *> > > const &>
PUBLIC	??$_Get_unwrapped@AAV?$_List_iterator@V?$_List_val@U?$_List_simple_types@PAUSTextTail@CPythonTextTail@@@std@@@std@@@std@@@std@@YA?A_TAAV?$_List_iterator@V?$_List_val@U?$_List_simple_types@PAUSTextTail@CPythonTextTail@@@std@@@std@@@0@@Z ; std::_Get_unwrapped<std::_List_iterator<std::_List_val<std::_List_simple_types<CPythonTextTail::STextTail *> > > &>
PUBLIC	??$find@V?$_List_iterator@V?$_List_val@U?$_List_simple_types@PAUSTextTail@CPythonTextTail@@@std@@@std@@@std@@PAUSTextTail@CPythonTextTail@@@std@@YA?AV?$_List_iterator@V?$_List_val@U?$_List_simple_types@PAUSTextTail@CPythonTextTail@@@std@@@std@@@0@V10@V10@ABQAUSTextTail@CPythonTextTail@@@Z ; std::find<std::_List_iterator<std::_List_val<std::_List_simple_types<CPythonTextTail::STextTail *> > >,CPythonTextTail::STextTail *>
PUBLIC	??$erase@V?$_Tree_iterator@V?$_Tree_val@U?$_Tree_simple_types@U?$pair@$$CBKPAUSTextTail@CPythonTextTail@@@std@@@std@@@std@@@std@@$0A@@?$_Tree@V?$_Tmap_traits@KPAUSTextTail@CPythonTextTail@@U?$less@K@std@@V?$allocator@U?$pair@$$CBKPAUSTextTail@CPythonTextTail@@@std@@@4@$0A@@std@@@std@@QAE?AV?$_Tree_iterator@V?$_Tree_val@U?$_Tree_simple_types@U?$pair@$$CBKPAUSTextTail@CPythonTextTail@@@std@@@std@@@std@@@1@V21@@Z ; std::_Tree<std::_Tmap_traits<unsigned long,CPythonTextTail::STextTail *,std::less<unsigned long>,std::allocator<std::pair<unsigned long const ,CPythonTextTail::STextTail *> >,0> >::erase<std::_Tree_iterator<std::_Tree_val<std::_Tree_simple_types<std::pair<unsigned long const ,CPythonTextTail::STextTail *> > > >,0>
PUBLIC	??1?$map@KPAUSTextTail@CPythonTextTail@@U?$less@K@std@@V?$allocator@U?$pair@$$CBKPAUSTextTail@CPythonTextTail@@@std@@@4@@std@@QAE@XZ ; std::map<unsigned long,CPythonTextTail::STextTail *,std::less<unsigned long>,std::allocator<std::pair<unsigned long const ,CPythonTextTail::STextTail *> > >::~map<unsigned long,CPythonTextTail::STextTail *,std::less<unsigned long>,std::allocator<std::pair<unsigned long const ,CPythonTextTail::STextTail *> > >
PUBLIC	??_GCPythonTextTail@@UAEPAXI@Z			; CPythonTextTail::`scalar deleting destructor'
PUBLIC	?Clear@CPythonTextTail@@QAEXXZ			; CPythonTextTail::Clear
PUBLIC	?EnablePKTitle@CPythonTextTail@@QAEXH@Z		; CPythonTextTail::EnablePKTitle
PUBLIC	?SelectItemName@CPythonTextTail@@QAEXK@Z	; CPythonTextTail::SelectItemName
PUBLIC	?DeleteTextTail@CPythonTextTail@@IAEXPAUSTextTail@1@@Z ; CPythonTextTail::DeleteTextTail
PUBLIC	?RegisterTextTail@CPythonTextTail@@IAEPAUSTextTail@1@KPBDPAVCGraphicObjectInstance@@MABUD3DXCOLOR@@V?$basic_string@DU?$char_traits@D@std@@V?$allocator@D@2@@std@@@Z ; CPythonTextTail::RegisterTextTail
PUBLIC	?IsChatTextTail@CPythonTextTail@@QAE_NK@Z	; CPythonTextTail::IsChatTextTail
PUBLIC	?GetTextTailPosition@CPythonTextTail@@QAE_NKPAM00@Z ; CPythonTextTail::GetTextTailPosition
PUBLIC	?RegisterInfoTail@CPythonTextTail@@QAEXKPBD@Z	; CPythonTextTail::RegisterInfoTail
PUBLIC	?isIn@CPythonTextTail@@IAE_NPAUSTextTail@1@0@Z	; CPythonTextTail::isIn
PUBLIC	?ShowItemTextTail@CPythonTextTail@@QAEXK@Z	; CPythonTextTail::ShowItemTextTail
PUBLIC	?ShowCharacterTextTail@CPythonTextTail@@QAEXK@Z	; CPythonTextTail::ShowCharacterTextTail
PUBLIC	?ShowAllTextTail@CPythonTextTail@@QAEXXZ	; CPythonTextTail::ShowAllTextTail
PUBLIC	?UpdateDistance@CPythonTextTail@@IAEXABUD3DXVECTOR3@@PAUSTextTail@1@@Z ; CPythonTextTail::UpdateDistance
PUBLIC	?HideAllTextTail@CPythonTextTail@@QAEXXZ	; CPythonTextTail::HideAllTextTail
PUBLIC	?RenderTextTailName@CPythonTextTail@@IAEXPAUSTextTail@1@@Z ; CPythonTextTail::RenderTextTailName
PUBLIC	?RenderTextTailBox@CPythonTextTail@@IAEXPAUSTextTail@1@@Z ; CPythonTextTail::RenderTextTailBox
PUBLIC	?Render@CPythonTextTail@@QAEXXZ			; CPythonTextTail::Render
PUBLIC	?ArrangeTextTail@CPythonTextTail@@QAEXXZ	; CPythonTextTail::ArrangeTextTail
PUBLIC	?UpdateTextTail@CPythonTextTail@@IAEXPAUSTextTail@1@@Z ; CPythonTextTail::UpdateTextTail
PUBLIC	??0?$_List_const_iterator@V?$_List_val@U?$_List_simple_types@PAUSTextTail@CPythonTextTail@@@std@@@std@@@std@@QAE@XZ ; std::_List_const_iterator<std::_List_val<std::_List_simple_types<CPythonTextTail::STextTail *> > >::_List_const_iterator<std::_List_val<std::_List_simple_types<CPythonTextTail::STextTail *> > >
PUBLIC	??0?$_List_iterator@V?$_List_val@U?$_List_simple_types@PAUSTextTail@CPythonTextTail@@@std@@@std@@@std@@QAE@XZ ; std::_List_iterator<std::_List_val<std::_List_simple_types<CPythonTextTail::STextTail *> > >::_List_iterator<std::_List_val<std::_List_simple_types<CPythonTextTail::STextTail *> > >
PUBLIC	?UpdateShowingTextTail@CPythonTextTail@@QAEXXZ	; CPythonTextTail::UpdateShowingTextTail
PUBLIC	??0?$_Tree_const_iterator@V?$_Tree_val@U?$_Tree_simple_types@U?$pair@$$CBKPAUSTextTail@CPythonTextTail@@@std@@@std@@@std@@@std@@QAE@XZ ; std::_Tree_const_iterator<std::_Tree_val<std::_Tree_simple_types<std::pair<unsigned long const ,CPythonTextTail::STextTail *> > > >::_Tree_const_iterator<std::_Tree_val<std::_Tree_simple_types<std::pair<unsigned long const ,CPythonTextTail::STextTail *> > > >
PUBLIC	??0?$_Tree_iterator@V?$_Tree_val@U?$_Tree_simple_types@U?$pair@$$CBKPAUSTextTail@CPythonTextTail@@@std@@@std@@@std@@@std@@QAE@XZ ; std::_Tree_iterator<std::_Tree_val<std::_Tree_simple_types<std::pair<unsigned long const ,CPythonTextTail::STextTail *> > > >::_Tree_iterator<std::_Tree_val<std::_Tree_simple_types<std::pair<unsigned long const ,CPythonTextTail::STextTail *> > > >
PUBLIC	?UpdateAllTextTail@CPythonTextTail@@QAEXXZ	; CPythonTextTail::UpdateAllTextTail
PUBLIC	?TextTail_GetLivingTime@@YAJXZ			; TextTail_GetLivingTime
PUBLIC	??_GSTextTail@CPythonTextTail@@UAEPAXI@Z	; CPythonTextTail::STextTail::`scalar deleting destructor'
PUBLIC	??1STextTail@CPythonTextTail@@UAE@XZ		; CPythonTextTail::STextTail::~STextTail
PUBLIC	??0STextTail@CPythonTextTail@@QAE@XZ		; CPythonTextTail::STextTail::STextTail
PUBLIC	?GetLanguage2@CInstanceBase@@QAEEXZ		; CInstanceBase::GetLanguage2
PUBLIC	?GetLanguage@CInstanceBase@@QAEEXZ		; CInstanceBase::GetLanguage
PUBLIC	?RegisterChatTail@CPythonTextTail@@QAEXKPBD@Z	; CPythonTextTail::RegisterChatTail
PUBLIC	?RegisterItemTextTail@CPythonTextTail@@QAEXKPBDPAVCGraphicObjectInstance@@@Z ; CPythonTextTail::RegisterItemTextTail
PUBLIC	?SetItemTextTailOwner@CPythonTextTail@@QAEXKPBD@Z ; CPythonTextTail::SetItemTextTailOwner
PUBLIC	?DeleteItemTextTail@CPythonTextTail@@QAEXK@Z	; CPythonTextTail::DeleteItemTextTail
PUBLIC	?Pick@CPythonTextTail@@QAEHHH@Z			; CPythonTextTail::Pick
PUBLIC	?TextTail_SetLivingTime@@YAXJ@Z			; TextTail_SetLivingTime
PUBLIC	??0CPythonTextTail@@QAE@XZ			; CPythonTextTail::CPythonTextTail
PUBLIC	??1CPythonTextTail@@UAE@XZ			; CPythonTextTail::~CPythonTextTail
PUBLIC	?GetInfo@CPythonTextTail@@QAEXPAV?$basic_string@DU?$char_traits@D@std@@V?$allocator@D@2@@std@@@Z ; CPythonTextTail::GetInfo
PUBLIC	?Initialize@CPythonTextTail@@QAEXXZ		; CPythonTextTail::Initialize
PUBLIC	?Destroy@CPythonTextTail@@QAEXXZ		; CPythonTextTail::Destroy
PUBLIC	?RegisterCharacterTextTail@CPythonTextTail@@QAEXKEKABUD3DXCOLOR@@M@Z ; CPythonTextTail::RegisterCharacterTextTail
PUBLIC	?DeleteCharacterTextTail@CPythonTextTail@@QAEXK@Z ; CPythonTextTail::DeleteCharacterTextTail
PUBLIC	?AttachLevel@CPythonTextTail@@QAEXKPBDABUD3DXCOLOR@@@Z ; CPythonTextTail::AttachLevel
PUBLIC	?DetachLevel@CPythonTextTail@@QAEXK@Z		; CPythonTextTail::DetachLevel
PUBLIC	?SetCharacterTextTailColor@CPythonTextTail@@QAEXKABUD3DXCOLOR@@@Z ; CPythonTextTail::SetCharacterTextTailColor
PUBLIC	?DetachTitle@CPythonTextTail@@QAEXK@Z		; CPythonTextTail::DetachTitle
PUBLIC	?AttachTitle@CPythonTextTail@@QAEXKPBDABUD3DXCOLOR@@@Z ; CPythonTextTail::AttachTitle
PUBLIC	?DetachTitleSystem@CPythonTextTail@@QAEXK@Z	; CPythonTextTail::DetachTitleSystem
PUBLIC	?AttachTitleSystem@CPythonTextTail@@QAEXKPBDABUD3DXCOLOR@@@Z ; CPythonTextTail::AttachTitleSystem
EXTRN	??_ECPythonTextTail@@UAEPAXI@Z:PROC		; CPythonTextTail::`vector deleting destructor'
EXTRN	??_E?$CSingleton@VCPythonTextTail@@@@UAEPAXI@Z:PROC ; CSingleton<CPythonTextTail>::`vector deleting destructor'
EXTRN	??_ESTextTail@CPythonTextTail@@UAEPAXI@Z:PROC	; CPythonTextTail::STextTail::`vector deleting destructor'
EXTRN	??_E?$CDynamicPool@USTextTail@CPythonTextTail@@@@UAEPAXI@Z:PROC ; CDynamicPool<CPythonTextTail::STextTail>::`vector deleting destructor'
?vecDropSoundFileName@@3V?$array@U?$pair@KV?$basic_string@DU?$char_traits@D@std@@V?$allocator@D@2@@std@@@std@@$04@std@@B DB 08cH DUP (?) ; vecDropSoundFileName
?vecEffectList@@3V?$vector@V?$tuple@IPBDPBD_N@std@@V?$allocator@V?$tuple@IPBDPBD_N@std@@@2@@std@@B DB 0cH DUP (?) ; vecEffectList
?characterNameColors@@3V?$map@EV?$array@E$02@std@@U?$less@E@2@V?$allocator@U?$pair@$$CBEV?$array@E$02@std@@@std@@@2@@std@@B DQ 01H DUP (?) ; characterNameColors
?characterTitleColors@@3V?$map@EV?$array@E$02@std@@U?$less@E@2@V?$allocator@U?$pair@$$CBEV?$array@E$02@std@@@std@@@2@@std@@B DQ 01H DUP (?) ; characterTitleColors
?characterTitleSystemColors@@3V?$map@EV?$array@E$02@std@@U?$less@E@2@V?$allocator@U?$pair@$$CBEV?$array@E$02@std@@@std@@@2@@std@@B DQ 01H DUP (?) ; characterTitleSystemColors
?emotionIcons@@3V?$map@EPBDU?$less@E@std@@V?$allocator@U?$pair@$$CBEPBD@std@@@2@@std@@B DQ 01H DUP (?) ; emotionIcons
?skillIndexes@@3V?$map@EV?$map@EV?$vector@EV?$allocator@E@std@@@std@@U?$less@E@2@V?$allocator@U?$pair@$$CBEV?$vector@EV?$allocator@E@std@@@std@@@std@@@2@@std@@U?$less@E@2@V?$allocator@U?$pair@$$CBEV?$map@EV?$vector@EV?$allocator@E@std@@@std@@U?$less@E@2@V?$allocator@U?$pair@$$CBEV?$vector@EV?$allocator@E@std@@@std@@@std@@@2@@std@@@std@@@2@@std@@B DQ 01H DUP (?) ; skillIndexes
?guildSkills@@3V?$map@V?$basic_string@DU?$char_traits@D@std@@V?$allocator@D@2@@std@@V?$vector@EV?$allocator@E@std@@@2@U?$less@V?$basic_string@DU?$char_traits@D@std@@V?$allocator@D@2@@std@@@2@V?$allocator@U?$pair@$$CBV?$basic_string@DU?$char_traits@D@std@@V?$allocator@D@2@@std@@V?$vector@EV?$allocator@E@std@@@2@@std@@@2@@std@@B DQ 01H DUP (?) ; guildSkills
_BSS	ENDS
;	COMDAT ?$TSS0@?1??ShowCharacterTextTail@CPythonTextTail@@QAEXK@Z@4HA
_BSS	SEGMENT
?$TSS0@?1??ShowCharacterTextTail@CPythonTextTail@@QAEXK@Z@4HA DD 01H DUP (?) ; `CPythonTextTail::ShowCharacterTextTail'::`2'::$TSS0
_BSS	ENDS
;	COMDAT ?system@?1??ShowCharacterTextTail@CPythonTextTail@@QAEXK@Z@4AAVCPythonSystem@@A
_BSS	SEGMENT
?system@?1??ShowCharacterTextTail@CPythonTextTail@@QAEXK@Z@4AAVCPythonSystem@@A DD 01H DUP (?) ; `CPythonTextTail::ShowCharacterTextTail'::`2'::system
_BSS	ENDS
;	COMDAT ?$TSS0@?M@??ShowItemTextTail@CPythonTextTail@@QAEXK@Z@4HA
_BSS	SEGMENT
?$TSS0@?M@??ShowItemTextTail@CPythonTextTail@@QAEXK@Z@4HA DD 01H DUP (?) ; `CPythonTextTail::ShowItemTextTail'::`12'::$TSS0
_BSS	ENDS
;	COMDAT ?system@?M@??ShowItemTextTail@CPythonTextTail@@QAEXK@Z@4AAVCPythonSystem@@A
_BSS	SEGMENT
?system@?M@??ShowItemTextTail@CPythonTextTail@@QAEXK@Z@4AAVCPythonSystem@@A DD 01H DUP (?) ; `CPythonTextTail::ShowItemTextTail'::`12'::system
_BSS	ENDS
;	COMDAT xdata$x
xdata$x	SEGMENT
__ehfuncinfo$?RegisterCharacterTextTail@CPythonTextTail@@QAEXKEKABUD3DXCOLOR@@M@Z DD 019930522H
	DD	04H
	DD	FLAT:__unwindtable$?RegisterCharacterTextTail@CPythonTextTail@@QAEXKEKABUD3DXCOLOR@@M@Z
	DD	2 DUP(00H)
	DD	2 DUP(00H)
	DD	00H
	DD	01H
__unwindtable$?RegisterCharacterTextTail@CPythonTextTail@@QAEXKEKABUD3DXCOLOR@@M@Z DD 0ffffffffH
	DD	FLAT:__unwindfunclet$?RegisterCharacterTextTail@CPythonTextTail@@QAEXKEKABUD3DXCOLOR@@M@Z$1
	DD	0ffffffffH
	DD	FLAT:__unwindfunclet$?RegisterCharacterTextTail@CPythonTextTail@@QAEXKEKABUD3DXCOLOR@@M@Z$2
	DD	0ffffffffH
	DD	FLAT:__unwindfunclet$?RegisterCharacterTextTail@CPythonTextTail@@QAEXKEKABUD3DXCOLOR@@M@Z$3
	DD	0ffffffffH
	DD	FLAT:__unwindfunclet$?RegisterCharacterTextTail@CPythonTextTail@@QAEXKEKABUD3DXCOLOR@@M@Z$4
xdata$x	ENDS
;	COMDAT xdata$x
xdata$x	SEGMENT
__ehfuncinfo$??0CPythonTextTail@@QAE@XZ DQ 00000000519930522r ; 1.0822e-313
	DD	FLAT:__unwindtable$??0CPythonTextTail@@QAE@XZ
	DQ	00000000000000000r		; 0
	DQ	00000000000000000r		; 0
	DQ	00000000100000000r		; 2.122e-314
__unwindtable$??0CPythonTextTail@@QAE@XZ DD 0ffffffffH
	DD	FLAT:__unwindfunclet$??0CPythonTextTail@@QAE@XZ$0
	DD	00H
	DD	FLAT:__unwindfunclet$??0CPythonTextTail@@QAE@XZ$1
	DD	01H
	DD	FLAT:__unwindfunclet$??0CPythonTextTail@@QAE@XZ$2
	DD	02H
	DD	FLAT:__unwindfunclet$??0CPythonTextTail@@QAE@XZ$3
	DD	03H
	DD	FLAT:__unwindfunclet$??0CPythonTextTail@@QAE@XZ$4
xdata$x	ENDS
;	COMDAT xdata$x
xdata$x	SEGMENT
__ehfuncinfo$?SetItemTextTailOwner@CPythonTextTail@@QAEXKPBD@Z DQ 00000000119930522r ; 2.33398e-314
	DD	FLAT:__unwindtable$?SetItemTextTailOwner@CPythonTextTail@@QAEXKPBD@Z
	DQ	00000000000000000r		; 0
	DQ	00000000000000000r		; 0
	DQ	00000000100000000r		; 2.122e-314
__unwindtable$?SetItemTextTailOwner@CPythonTextTail@@QAEXKPBD@Z DD 0ffffffffH
	DD	FLAT:__unwindfunclet$?SetItemTextTailOwner@CPythonTextTail@@QAEXKPBD@Z$0
xdata$x	ENDS
;	COMDAT xdata$x
xdata$x	SEGMENT
__ehfuncinfo$??__EvecUseSoundFileName@@YAXXZ DD 019930522H
	DD	06H
	DD	FLAT:__unwindtable$??__EvecUseSoundFileName@@YAXXZ
	DD	2 DUP(00H)
	DD	2 DUP(00H)
	DD	00H
	DD	01H
__unwindtable$??__EvecUseSoundFileName@@YAXXZ DD 0ffffffffH
	DD	FLAT:__unwindfunclet$??__EvecUseSoundFileName@@YAXXZ$0
	DD	00H
	DD	FLAT:__unwindfunclet$??__EvecUseSoundFileName@@YAXXZ$1
	DD	01H
	DD	FLAT:__unwindfunclet$??__EvecUseSoundFileName@@YAXXZ$2
	DD	02H
	DD	FLAT:__unwindfunclet$??__EvecUseSoundFileName@@YAXXZ$3
	DD	03H
	DD	FLAT:__unwindfunclet$??__EvecUseSoundFileName@@YAXXZ$4
	DD	04H
	DD	FLAT:__unwindfunclet$??__EvecUseSoundFileName@@YAXXZ$5
xdata$x	ENDS
;	COMDAT xdata$x
xdata$x	SEGMENT
__ehfuncinfo$??__FvecUseSoundFileName@@YAXXZ DD 019930522H
	DD	01H
	DD	FLAT:__unwindtable$??__FvecUseSoundFileName@@YAXXZ
	DD	2 DUP(00H)
	DD	2 DUP(00H)
	DD	00H
	DD	01H
__unwindtable$??__FvecUseSoundFileName@@YAXXZ DD 0ffffffffH
	DD	FLAT:___std_terminate
xdata$x	ENDS
;	COMDAT xdata$x
xdata$x	SEGMENT
__ehfuncinfo$??__EvecDropSoundFileName@@YAXXZ DD 019930522H
	DD	04H
	DD	FLAT:__unwindtable$??__EvecDropSoundFileName@@YAXXZ
	DD	2 DUP(00H)
	DD	2 DUP(00H)
	DD	00H
	DD	01H
__unwindtable$??__EvecDropSoundFileName@@YAXXZ DD 0ffffffffH
	DD	FLAT:__unwindfunclet$??__EvecDropSoundFileName@@YAXXZ$0
	DD	00H
	DD	FLAT:__unwindfunclet$??__EvecDropSoundFileName@@YAXXZ$1
	DD	01H
	DD	FLAT:__unwindfunclet$??__EvecDropSoundFileName@@YAXXZ$2
	DD	02H
	DD	FLAT:__unwindfunclet$??__EvecDropSoundFileName@@YAXXZ$3
xdata$x	ENDS
;	COMDAT xdata$x
xdata$x	SEGMENT
__ehfuncinfo$??__FvecDropSoundFileName@@YAXXZ DD 019930522H
	DD	01H
	DD	FLAT:__unwindtable$??__FvecDropSoundFileName@@YAXXZ
	DD	2 DUP(00H)
	DD	2 DUP(00H)
	DD	00H
	DD	01H
__unwindtable$??__FvecDropSoundFileName@@YAXXZ DD 0ffffffffH
	DD	FLAT:___std_terminate
xdata$x	ENDS
;	COMDAT xdata$x
xdata$x	SEGMENT
__ehfuncinfo$??__EskillIndexes@@YAXXZ DD 019930522H
	DD	028H
	DD	FLAT:__unwindtable$??__EskillIndexes@@YAXXZ
	DD	2 DUP(00H)
	DD	2 DUP(00H)
	DD	00H
	DD	01H
	ORG $+4
__unwindtable$??__EskillIndexes@@YAXXZ DD 0ffffffffH
	DD	FLAT:__unwindfunclet$??__EskillIndexes@@YAXXZ$0
	DD	00H
	DD	FLAT:__unwindfunclet$??__EskillIndexes@@YAXXZ$1
	DD	01H
	DD	FLAT:__unwindfunclet$??__EskillIndexes@@YAXXZ$2
	DD	00H
	DD	FLAT:__unwindfunclet$??__EskillIndexes@@YAXXZ$2
	DD	03H
	DD	FLAT:__unwindfunclet$??__EskillIndexes@@YAXXZ$4
	DD	04H
	DD	FLAT:__unwindfunclet$??__EskillIndexes@@YAXXZ$5
	DD	05H
	DD	FLAT:__unwindfunclet$??__EskillIndexes@@YAXXZ$6
	DD	06H
	DD	FLAT:__unwindfunclet$??__EskillIndexes@@YAXXZ$7
	DD	07H
	DD	FLAT:__unwindfunclet$??__EskillIndexes@@YAXXZ$8
	DD	08H
	DD	FLAT:__unwindfunclet$??__EskillIndexes@@YAXXZ$9
	DD	07H
	DD	FLAT:__unwindfunclet$??__EskillIndexes@@YAXXZ$9
	DD	0aH
	DD	FLAT:__unwindfunclet$??__EskillIndexes@@YAXXZ$11
	DD	0bH
	DD	FLAT:__unwindfunclet$??__EskillIndexes@@YAXXZ$12
	DD	0cH
	DD	FLAT:__unwindfunclet$??__EskillIndexes@@YAXXZ$13
	DD	0dH
	DD	FLAT:__unwindfunclet$??__EskillIndexes@@YAXXZ$14
	DD	0eH
	DD	FLAT:__unwindfunclet$??__EskillIndexes@@YAXXZ$15
	DD	0fH
	DD	FLAT:__unwindfunclet$??__EskillIndexes@@YAXXZ$16
	DD	0eH
	DD	FLAT:__unwindfunclet$??__EskillIndexes@@YAXXZ$16
	DD	011H
	DD	FLAT:__unwindfunclet$??__EskillIndexes@@YAXXZ$18
	DD	012H
	DD	FLAT:__unwindfunclet$??__EskillIndexes@@YAXXZ$19
	DD	013H
	DD	FLAT:__unwindfunclet$??__EskillIndexes@@YAXXZ$20
	DD	014H
	DD	FLAT:__unwindfunclet$??__EskillIndexes@@YAXXZ$21
	DD	015H
	DD	FLAT:__unwindfunclet$??__EskillIndexes@@YAXXZ$22
	DD	016H
	DD	FLAT:__unwindfunclet$??__EskillIndexes@@YAXXZ$23
	DD	015H
	DD	FLAT:__unwindfunclet$??__EskillIndexes@@YAXXZ$23
	DD	018H
	DD	FLAT:__unwindfunclet$??__EskillIndexes@@YAXXZ$25
	DD	019H
	DD	FLAT:__unwindfunclet$??__EskillIndexes@@YAXXZ$26
	DD	05H
	DD	FLAT:__unwindfunclet$??__EskillIndexes@@YAXXZ$7
	DD	01bH
	DD	FLAT:__unwindfunclet$??__EskillIndexes@@YAXXZ$9
	DD	01cH
	DD	FLAT:__unwindfunclet$??__EskillIndexes@@YAXXZ$11
	DD	01dH
	DD	FLAT:__unwindfunclet$??__EskillIndexes@@YAXXZ$12
	DD	01eH
	DD	FLAT:__unwindfunclet$??__EskillIndexes@@YAXXZ$14
	DD	01fH
	DD	FLAT:__unwindfunclet$??__EskillIndexes@@YAXXZ$16
	DD	020H
	DD	FLAT:__unwindfunclet$??__EskillIndexes@@YAXXZ$18
	DD	021H
	DD	FLAT:__unwindfunclet$??__EskillIndexes@@YAXXZ$19
	DD	022H
	DD	FLAT:__unwindfunclet$??__EskillIndexes@@YAXXZ$21
	DD	023H
	DD	FLAT:__unwindfunclet$??__EskillIndexes@@YAXXZ$23
	DD	024H
	DD	FLAT:__unwindfunclet$??__EskillIndexes@@YAXXZ$25
	DD	025H
	DD	FLAT:__unwindfunclet$??__EskillIndexes@@YAXXZ$26
	DD	026H
	DD	FLAT:__unwindfunclet$??__EskillIndexes@@YAXXZ$28
xdata$x	ENDS
;	COMDAT xdata$x
xdata$x	SEGMENT
__ehfuncinfo$??__EguildSkills@@YAXXZ DD 019930522H
	DD	0aH
	DD	FLAT:__unwindtable$??__EguildSkills@@YAXXZ
	DD	2 DUP(00H)
	DD	2 DUP(00H)
	DD	00H
	DD	01H
	ORG $+4
__unwindtable$??__EguildSkills@@YAXXZ DD 0ffffffffH
	DD	FLAT:__unwindfunclet$??__EguildSkills@@YAXXZ$0
	DD	00H
	DD	FLAT:__unwindfunclet$??__EguildSkills@@YAXXZ$1
	DD	01H
	DD	FLAT:__unwindfunclet$??__EguildSkills@@YAXXZ$10
	DD	01H
	DD	FLAT:__unwindfunclet$??__EguildSkills@@YAXXZ$2
	DD	03H
	DD	FLAT:__unwindfunclet$??__EguildSkills@@YAXXZ$3
	DD	04H
	DD	FLAT:__unwindfunclet$??__EguildSkills@@YAXXZ$4
	DD	05H
	DD	FLAT:__unwindfunclet$??__EguildSkills@@YAXXZ$16
	DD	01H
	DD	FLAT:__unwindfunclet$??__EguildSkills@@YAXXZ$3
	DD	07H
	DD	FLAT:__unwindfunclet$??__EguildSkills@@YAXXZ$4
	DD	08H
	DD	FLAT:__unwindfunclet$??__EguildSkills@@YAXXZ$6
xdata$x	ENDS
;	COMDAT xdata$x
xdata$x	SEGMENT
__ehfuncinfo$?ShowCharacterTextTail@CPythonTextTail@@QAEXK@Z DD 019930522H
	DD	01H
	DD	FLAT:__unwindtable$?ShowCharacterTextTail@CPythonTextTail@@QAEXK@Z
	DD	2 DUP(00H)
	DD	2 DUP(00H)
	DD	00H
	DD	01H
__unwindtable$?ShowCharacterTextTail@CPythonTextTail@@QAEXK@Z DD 0ffffffffH
	DD	FLAT:__unwindfunclet$?ShowCharacterTextTail@CPythonTextTail@@QAEXK@Z$2
xdata$x	ENDS
;	COMDAT xdata$x
xdata$x	SEGMENT
__ehfuncinfo$?ShowItemTextTail@CPythonTextTail@@QAEXK@Z DQ 00000000119930522r ; 2.33398e-314
	DD	FLAT:__unwindtable$?ShowItemTextTail@CPythonTextTail@@QAEXK@Z
	DQ	00000000000000000r		; 0
	DQ	00000000000000000r		; 0
	DQ	00000000100000000r		; 2.122e-314
__unwindtable$?ShowItemTextTail@CPythonTextTail@@QAEXK@Z DD 0ffffffffH
	DD	FLAT:__unwindfunclet$?ShowItemTextTail@CPythonTextTail@@QAEXK@Z$2
xdata$x	ENDS
;	COMDAT xdata$x
xdata$x	SEGMENT
__ehfuncinfo$?RegisterTextTail@CPythonTextTail@@IAEPAUSTextTail@1@KPBDPAVCGraphicObjectInstance@@MABUD3DXCOLOR@@V?$basic_string@DU?$char_traits@D@std@@V?$allocator@D@2@@std@@@Z DQ 00000000119930522r ; 2.33398e-314
	DD	FLAT:__unwindtable$?RegisterTextTail@CPythonTextTail@@IAEPAUSTextTail@1@KPBDPAVCGraphicObjectInstance@@MABUD3DXCOLOR@@V?$basic_string@DU?$char_traits@D@std@@V?$allocator@D@2@@std@@@Z
	DQ	00000000000000000r		; 0
	DQ	00000000000000000r		; 0
	DQ	00000000100000000r		; 2.122e-314
__unwindtable$?RegisterTextTail@CPythonTextTail@@IAEPAUSTextTail@1@KPBDPAVCGraphicObjectInstance@@MABUD3DXCOLOR@@V?$basic_string@DU?$char_traits@D@std@@V?$allocator@D@2@@std@@@Z DD 0ffffffffH
	DD	FLAT:__unwindfunclet$?RegisterTextTail@CPythonTextTail@@IAEPAUSTextTail@1@KPBDPAVCGraphicObjectInstance@@MABUD3DXCOLOR@@V?$basic_string@DU?$char_traits@D@std@@V?$allocator@D@2@@std@@@Z$0
xdata$x	ENDS
;	COMDAT xdata$x
xdata$x	SEGMENT
__ehfuncinfo$??$insert@$0A@$0A@@?$_Tree@V?$_Tmap_traits@KPAUSTextTail@CPythonTextTail@@U?$less@K@std@@V?$allocator@U?$pair@$$CBKPAUSTextTail@CPythonTextTail@@@std@@@4@$0A@@std@@@std@@QAE?AU?$pair@V?$_Tree_iterator@V?$_Tree_val@U?$_Tree_simple_types@U?$pair@$$CBKPAUSTextTail@CPythonTextTail@@@std@@@std@@@std@@@std@@_N@1@$$QAU?$pair@$$CBKPAUSTextTail@CPythonTextTail@@@1@@Z DQ 00000000119930522r ; 2.33398e-314
	DD	FLAT:__unwindtable$??$insert@$0A@$0A@@?$_Tree@V?$_Tmap_traits@KPAUSTextTail@CPythonTextTail@@U?$less@K@std@@V?$allocator@U?$pair@$$CBKPAUSTextTail@CPythonTextTail@@@std@@@4@$0A@@std@@@std@@QAE?AU?$pair@V?$_Tree_iterator@V?$_Tree_val@U?$_Tree_simple_types@U?$pair@$$CBKPAUSTextTail@CPythonTextTail@@@std@@@std@@@std@@@std@@_N@1@$$QAU?$pair@$$CBKPAUSTextTail@CPythonTextTail@@@1@@Z
	DQ	00000000000000000r		; 0
	DQ	00000000000000000r		; 0
	DQ	00000000100000000r		; 2.122e-314
__unwindtable$??$insert@$0A@$0A@@?$_Tree@V?$_Tmap_traits@KPAUSTextTail@CPythonTextTail@@U?$less@K@std@@V?$allocator@U?$pair@$$CBKPAUSTextTail@CPythonTextTail@@@std@@@4@$0A@@std@@@std@@QAE?AU?$pair@V?$_Tree_iterator@V?$_Tree_val@U?$_Tree_simple_types@U?$pair@$$CBKPAUSTextTail@CPythonTextTail@@@std@@@std@@@std@@@std@@_N@1@$$QAU?$pair@$$CBKPAUSTextTail@CPythonTextTail@@@1@@Z DD 0ffffffffH
	DD	FLAT:__unwindfunclet$??$insert@$0A@$0A@@?$_Tree@V?$_Tmap_traits@KPAUSTextTail@CPythonTextTail@@U?$less@K@std@@V?$allocator@U?$pair@$$CBKPAUSTextTail@CPythonTextTail@@@std@@@4@$0A@@std@@@std@@QAE?AU?$pair@V?$_Tree_iterator@V?$_Tree_val@U?$_Tree_simple_types@U?$pair@$$CBKPAUSTextTail@CPythonTextTail@@@std@@@std@@@std@@@std@@_N@1@$$QAU?$pair@$$CBKPAUSTextTail@CPythonTextTail@@@1@@Z$2
xdata$x	ENDS
;	COMDAT xdata$x
xdata$x	SEGMENT
__ehfuncinfo$?push_back@?$list@PAUSTextTail@CPythonTextTail@@V?$allocator@PAUSTextTail@CPythonTextTail@@@std@@@std@@QAEXABQAUSTextTail@CPythonTextTail@@@Z DQ 00000000119930522r ; 2.33398e-314
	DD	FLAT:__unwindtable$?push_back@?$list@PAUSTextTail@CPythonTextTail@@V?$allocator@PAUSTextTail@CPythonTextTail@@@std@@@std@@QAEXABQAUSTextTail@CPythonTextTail@@@Z
	DQ	00000000000000000r		; 0
	DQ	00000000000000000r		; 0
	DQ	00000000100000000r		; 2.122e-314
__unwindtable$?push_back@?$list@PAUSTextTail@CPythonTextTail@@V?$allocator@PAUSTextTail@CPythonTextTail@@@std@@@std@@QAEXABQAUSTextTail@CPythonTextTail@@@Z DD 0ffffffffH
	DD	FLAT:__unwindfunclet$?push_back@?$list@PAUSTextTail@CPythonTextTail@@V?$allocator@PAUSTextTail@CPythonTextTail@@@std@@@std@@QAEXABQAUSTextTail@CPythonTextTail@@@Z$1
xdata$x	ENDS
;	COMDAT xdata$x
xdata$x	SEGMENT
__ehfuncinfo$??$_Emplace@U?$pair@$$CBKPAUSTextTail@CPythonTextTail@@@std@@@?$_Tree@V?$_Tmap_traits@KPAUSTextTail@CPythonTextTail@@U?$less@K@std@@V?$allocator@U?$pair@$$CBKPAUSTextTail@CPythonTextTail@@@std@@@4@$0A@@std@@@std@@IAE?AU?$pair@PAU?$_Tree_node@U?$pair@$$CBKPAUSTextTail@CPythonTextTail@@@std@@PAX@std@@_N@1@$$QAU?$pair@$$CBKPAUSTextTail@CPythonTextTail@@@1@@Z DQ 00000000119930522r ; 2.33398e-314
	DD	FLAT:__unwindtable$??$_Emplace@U?$pair@$$CBKPAUSTextTail@CPythonTextTail@@@std@@@?$_Tree@V?$_Tmap_traits@KPAUSTextTail@CPythonTextTail@@U?$less@K@std@@V?$allocator@U?$pair@$$CBKPAUSTextTail@CPythonTextTail@@@std@@@4@$0A@@std@@@std@@IAE?AU?$pair@PAU?$_Tree_node@U?$pair@$$CBKPAUSTextTail@CPythonTextTail@@@std@@PAX@std@@_N@1@$$QAU?$pair@$$CBKPAUSTextTail@CPythonTextTail@@@1@@Z
	DQ	00000000000000000r		; 0
	DQ	00000000000000000r		; 0
	DQ	00000000100000000r		; 2.122e-314
__unwindtable$??$_Emplace@U?$pair@$$CBKPAUSTextTail@CPythonTextTail@@@std@@@?$_Tree@V?$_Tmap_traits@KPAUSTextTail@CPythonTextTail@@U?$less@K@std@@V?$allocator@U?$pair@$$CBKPAUSTextTail@CPythonTextTail@@@std@@@4@$0A@@std@@@std@@IAE?AU?$pair@PAU?$_Tree_node@U?$pair@$$CBKPAUSTextTail@CPythonTextTail@@@std@@PAX@std@@_N@1@$$QAU?$pair@$$CBKPAUSTextTail@CPythonTextTail@@@1@@Z DD 0ffffffffH
	DD	FLAT:__unwindfunclet$??$_Emplace@U?$pair@$$CBKPAUSTextTail@CPythonTextTail@@@std@@@?$_Tree@V?$_Tmap_traits@KPAUSTextTail@CPythonTextTail@@U?$less@K@std@@V?$allocator@U?$pair@$$CBKPAUSTextTail@CPythonTextTail@@@std@@@4@$0A@@std@@@std@@IAE?AU?$pair@PAU?$_Tree_node@U?$pair@$$CBKPAUSTextTail@CPythonTextTail@@@std@@PAX@std@@_N@1@$$QAU?$pair@$$CBKPAUSTextTail@CPythonTextTail@@@1@@Z$2
xdata$x	ENDS
;	COMDAT xdata$x
xdata$x	SEGMENT
__ehfuncinfo$??$_Emplace@ABQAUSTextTail@CPythonTextTail@@@?$list@PAUSTextTail@CPythonTextTail@@V?$allocator@PAUSTextTail@CPythonTextTail@@@std@@@std@@QAEPAU?$_List_node@PAUSTextTail@CPythonTextTail@@PAX@1@QAU21@ABQAUSTextTail@CPythonTextTail@@@Z DQ 00000000119930522r ; 2.33398e-314
	DD	FLAT:__unwindtable$??$_Emplace@ABQAUSTextTail@CPythonTextTail@@@?$list@PAUSTextTail@CPythonTextTail@@V?$allocator@PAUSTextTail@CPythonTextTail@@@std@@@std@@QAEPAU?$_List_node@PAUSTextTail@CPythonTextTail@@PAX@1@QAU21@ABQAUSTextTail@CPythonTextTail@@@Z
	DQ	00000000000000000r		; 0
	DQ	00000000000000000r		; 0
	DQ	00000000100000000r		; 2.122e-314
__unwindtable$??$_Emplace@ABQAUSTextTail@CPythonTextTail@@@?$list@PAUSTextTail@CPythonTextTail@@V?$allocator@PAUSTextTail@CPythonTextTail@@@std@@@std@@QAEPAU?$_List_node@PAUSTextTail@CPythonTextTail@@PAX@1@QAU21@ABQAUSTextTail@CPythonTextTail@@@Z DD 0ffffffffH
	DD	FLAT:__unwindfunclet$??$_Emplace@ABQAUSTextTail@CPythonTextTail@@@?$list@PAUSTextTail@CPythonTextTail@@V?$allocator@PAUSTextTail@CPythonTextTail@@@std@@@std@@QAEPAU?$_List_node@PAUSTextTail@CPythonTextTail@@PAX@1@QAU21@ABQAUSTextTail@CPythonTextTail@@@Z$1
xdata$x	ENDS
;	COMDAT xdata$x
xdata$x	SEGMENT
__ehfuncinfo$??$?0U?$pair@$$CBKPAUSTextTail@CPythonTextTail@@@std@@@?$_Tree_temp_node@V?$allocator@U?$_Tree_node@U?$pair@$$CBKPAUSTextTail@CPythonTextTail@@@std@@PAX@std@@@std@@@std@@QAE@AAV?$allocator@U?$_Tree_node@U?$pair@$$CBKPAUSTextTail@CPythonTextTail@@@std@@PAX@std@@@1@PAU?$_Tree_node@U?$pair@$$CBKPAUSTextTail@CPythonTextTail@@@std@@PAX@1@$$QAU?$pair@$$CBKPAUSTextTail@CPythonTextTail@@@1@@Z DQ 00000000119930522r ; 2.33398e-314
	DD	FLAT:__unwindtable$??$?0U?$pair@$$CBKPAUSTextTail@CPythonTextTail@@@std@@@?$_Tree_temp_node@V?$allocator@U?$_Tree_node@U?$pair@$$CBKPAUSTextTail@CPythonTextTail@@@std@@PAX@std@@@std@@@std@@QAE@AAV?$allocator@U?$_Tree_node@U?$pair@$$CBKPAUSTextTail@CPythonTextTail@@@std@@PAX@std@@@1@PAU?$_Tree_node@U?$pair@$$CBKPAUSTextTail@CPythonTextTail@@@std@@PAX@1@$$QAU?$pair@$$CBKPAUSTextTail@CPythonTextTail@@@1@@Z
	DQ	00000000000000000r		; 0
	DQ	00000000000000000r		; 0
	DQ	00000000100000000r		; 2.122e-314
__unwindtable$??$?0U?$pair@$$CBKPAUSTextTail@CPythonTextTail@@@std@@@?$_Tree_temp_node@V?$allocator@U?$_Tree_node@U?$pair@$$CBKPAUSTextTail@CPythonTextTail@@@std@@PAX@std@@@std@@@std@@QAE@AAV?$allocator@U?$_Tree_node@U?$pair@$$CBKPAUSTextTail@CPythonTextTail@@@std@@PAX@std@@@1@PAU?$_Tree_node@U?$pair@$$CBKPAUSTextTail@CPythonTextTail@@@std@@PAX@1@$$QAU?$pair@$$CBKPAUSTextTail@CPythonTextTail@@@1@@Z DD 0ffffffffH
	DD	FLAT:__unwindfunclet$??$?0U?$pair@$$CBKPAUSTextTail@CPythonTextTail@@@std@@@?$_Tree_temp_node@V?$allocator@U?$_Tree_node@U?$pair@$$CBKPAUSTextTail@CPythonTextTail@@@std@@PAX@std@@@std@@@std@@QAE@AAV?$allocator@U?$_Tree_node@U?$pair@$$CBKPAUSTextTail@CPythonTextTail@@@std@@PAX@std@@@1@PAU?$_Tree_node@U?$pair@$$CBKPAUSTextTail@CPythonTextTail@@@std@@PAX@1@$$QAU?$pair@$$CBKPAUSTextTail@CPythonTextTail@@@1@@Z$1
xdata$x	ENDS
;	COMDAT xdata$x
xdata$x	SEGMENT
__ehfuncinfo$??$?0ABQAUSTextTail@CPythonTextTail@@@?$_List_node_emplace_op2@V?$allocator@U?$_List_node@PAUSTextTail@CPythonTextTail@@PAX@std@@@std@@@std@@QAE@AAV?$allocator@U?$_List_node@PAUSTextTail@CPythonTextTail@@PAX@std@@@1@ABQAUSTextTail@CPythonTextTail@@@Z DQ 00000000119930522r ; 2.33398e-314
	DD	FLAT:__unwindtable$??$?0ABQAUSTextTail@CPythonTextTail@@@?$_List_node_emplace_op2@V?$allocator@U?$_List_node@PAUSTextTail@CPythonTextTail@@PAX@std@@@std@@@std@@QAE@AAV?$allocator@U?$_List_node@PAUSTextTail@CPythonTextTail@@PAX@std@@@1@ABQAUSTextTail@CPythonTextTail@@@Z
	DQ	00000000000000000r		; 0
	DQ	00000000000000000r		; 0
	DQ	00000000100000000r		; 2.122e-314
__unwindtable$??$?0ABQAUSTextTail@CPythonTextTail@@@?$_List_node_emplace_op2@V?$allocator@U?$_List_node@PAUSTextTail@CPythonTextTail@@PAX@std@@@std@@@std@@QAE@AAV?$allocator@U?$_List_node@PAUSTextTail@CPythonTextTail@@PAX@std@@@1@ABQAUSTextTail@CPythonTextTail@@@Z DD 0ffffffffH
	DD	FLAT:__unwindfunclet$??$?0ABQAUSTextTail@CPythonTextTail@@@?$_List_node_emplace_op2@V?$allocator@U?$_List_node@PAUSTextTail@CPythonTextTail@@PAX@std@@@std@@@std@@QAE@AAV?$allocator@U?$_List_node@PAUSTextTail@CPythonTextTail@@PAX@std@@@1@ABQAUSTextTail@CPythonTextTail@@@Z$0
xdata$x	ENDS
;	COMDAT xdata$x
xdata$x	SEGMENT
__ehfuncinfo$??0?$_Tree_temp_node_alloc@V?$allocator@U?$_Tree_node@U?$pair@$$CBKPAUSTextTail@CPythonTextTail@@@std@@PAX@std@@@std@@@std@@QAE@AAV?$allocator@U?$_Tree_node@U?$pair@$$CBKPAUSTextTail@CPythonTextTail@@@std@@PAX@std@@@1@@Z DQ 00000000119930522r ; 2.33398e-314
	DD	FLAT:__unwindtable$??0?$_Tree_temp_node_alloc@V?$allocator@U?$_Tree_node@U?$pair@$$CBKPAUSTextTail@CPythonTextTail@@@std@@PAX@std@@@std@@@std@@QAE@AAV?$allocator@U?$_Tree_node@U?$pair@$$CBKPAUSTextTail@CPythonTextTail@@@std@@PAX@std@@@1@@Z
	DQ	00000000000000000r		; 0
	DQ	00000000000000000r		; 0
	DQ	00000000100000000r		; 2.122e-314
__unwindtable$??0?$_Tree_temp_node_alloc@V?$allocator@U?$_Tree_node@U?$pair@$$CBKPAUSTextTail@CPythonTextTail@@@std@@PAX@std@@@std@@@std@@QAE@AAV?$allocator@U?$_Tree_node@U?$pair@$$CBKPAUSTextTail@CPythonTextTail@@@std@@PAX@std@@@1@@Z DD 0ffffffffH
	DD	FLAT:__unwindfunclet$??0?$_Tree_temp_node_alloc@V?$allocator@U?$_Tree_node@U?$pair@$$CBKPAUSTextTail@CPythonTextTail@@@std@@PAX@std@@@std@@@std@@QAE@AAV?$allocator@U?$_Tree_node@U?$pair@$$CBKPAUSTextTail@CPythonTextTail@@@std@@PAX@std@@@1@@Z$0
	ORG $+1
?c_TextTail_Player_Color@@3UD3DXCOLOR@@B DD 03f800000r ; 1 ; c_TextTail_Player_Color
	DD	03f800000r			; 1
	DD	03f800000r			; 1
	DD	03f800000r			; 1
?c_TextTail_Monster_Color@@3UD3DXCOLOR@@B DD 03f800000r ; 1 ; c_TextTail_Monster_Color
	DD	000000000r			; 0
	DD	000000000r			; 0
	DD	03f800000r			; 1
?c_TextTail_Guild_Name_Color@@3UD3DXCOLOR@@B DD 03f6feff1r ; 0.937255 ; c_TextTail_Guild_Name_Color
	DD	03f53d3d5r			; 0.827451
	DD	03f800000r			; 1
	DD	03f800000r			; 1
	ORG $+172
?vecUseSoundFileName@@3V?$array@U?$pair@KV?$basic_string@DU?$char_traits@D@std@@V?$allocator@D@2@@std@@@std@@$06@std@@B DD 01H ; vecUseSoundFileName
	DB	16 DUP(00H)
	DD	00H
	DD	00H
	ORG $+168
?c_TextTail_Item_Color@@3UD3DXCOLOR@@B DD 03f800000r ; 1 ; c_TextTail_Item_Color
	DD	03f800000r			; 1
	DD	03f800000r			; 1
	DD	03f800000r			; 1
?c_TextTail_Chat_Color@@3UD3DXCOLOR@@B DD 03f800000r ; 1 ; c_TextTail_Chat_Color
	DD	03f800000r			; 1
	DD	03f800000r			; 1
	DD	03f800000r			; 1
?c_TextTail_Info_Color@@3UD3DXCOLOR@@B DD 03f800000r ; 1 ; c_TextTail_Info_Color
	DD	03f48f5c3r			; 0.785
	DD	03f48f5c3r			; 0.785
	DD	03f800000r			; 1
?vecUseSoundFileName$initializer$@@3P6AXXZA DD FLAT:??__EvecUseSoundFileName@@YAXXZ ; vecUseSoundFileName$initializer$
?vecDropSoundFileName$initializer$@@3P6AXXZA DD FLAT:??__EvecDropSoundFileName@@YAXXZ ; vecDropSoundFileName$initializer$
?vecEffectList$initializer$@@3P6AXXZA DD FLAT:??__EvecEffectList@@YAXXZ ; vecEffectList$initializer$
?characterNameColors$initializer$@@3P6AXXZA DD FLAT:??__EcharacterNameColors@@YAXXZ ; characterNameColors$initializer$
?characterTitleColors$initializer$@@3P6AXXZA DD FLAT:??__EcharacterTitleColors@@YAXXZ ; characterTitleColors$initializer$
?characterTitleSystemColors$initializer$@@3P6AXXZA DD FLAT:??__EcharacterTitleSystemColors@@YAXXZ ; characterTitleSystemColors$initializer$
?emotionIcons$initializer$@@3P6AXXZA DD FLAT:??__EemotionIcons@@YAXXZ ; emotionIcons$initializer$
?skillIndexes$initializer$@@3P6AXXZA DD FLAT:??__EskillIndexes@@YAXXZ ; skillIndexes$initializer$
?guildSkills$initializer$@@3P6AXXZA DD FLAT:??__EguildSkills@@YAXXZ ; guildSkills$initializer$
; Function compile flags: /Ogtp
; File C:\Anka2Project\Anka2Project\Source\Binary\source\UserInterface\PythonTextTail.cpp
; File C:\Anka2Project\Anka2Project\Source\Binary\source\eterBase\Singleton.h
; File C:\Anka2Project\Anka2Project\Source\Binary\source\UserInterface\PythonTextTail.cpp
; File C:\Anka2Project\Anka2Project\Source\Binary\source\eterBase\Singleton.h
; File C:\Anka2Project\Anka2Project\Source\Binary\source\UserInterface\PythonTextTail.cpp
; File C:\Program Files\Microsoft Visual Studio\2022\Community\VC\Tools\MSVC\14.44.35207\include\xstring
; File C:\Program Files\Microsoft Visual Studio\2022\Community\VC\Tools\MSVC\14.44.35207\include\__msvc_string_view.hpp
; File C:\Anka2Project\Anka2Project\Source\Binary\source\UserInterface\PythonTextTail.cpp
; File C:\Program Files\Microsoft Visual Studio\2022\Community\VC\Tools\MSVC\14.44.35207\include\__msvc_string_view.hpp
; File C:\Anka2Project\Anka2Project\Source\Binary\source\UserInterface\PythonTextTail.cpp
; File C:\Program Files\Microsoft Visual Studio\2022\Community\VC\Tools\MSVC\14.44.35207\include\__msvc_string_view.hpp
; File C:\Anka2Project\Anka2Project\Source\Binary\source\UserInterface\PythonTextTail.cpp
; File C:\Program Files\Microsoft Visual Studio\2022\Community\VC\Tools\MSVC\14.44.35207\include\xstring
; File C:\Anka2Project\Anka2Project\Source\Binary\source\UserInterface\PythonTextTail.cpp
; File C:\Anka2Project\Anka2Project\Source\Binary\source\eterBase\Singleton.h
; File C:\Anka2Project\Anka2Project\Source\Binary\source\UserInterface\PythonTextTail.cpp
; File C:\Anka2Project\Anka2Project\Source\Binary\source\eterBase\Singleton.h
; File C:\Anka2Project\Anka2Project\Source\Binary\source\UserInterface\PythonTextTail.cpp
; File C:\Program Files\Microsoft Visual Studio\2022\Community\VC\Tools\MSVC\14.44.35207\include\xstring
; File C:\Anka2Project\Anka2Project\Source\Binary\source\UserInterface\PythonTextTail.cpp
; File C:\Anka2Project\Anka2Project\Source\Binary\source\eterBase\Singleton.h
; File C:\Anka2Project\Anka2Project\Source\Binary\source\UserInterface\PythonTextTail.cpp
; File C:\Program Files\Microsoft Visual Studio\2022\Community\VC\Tools\MSVC\14.44.35207\include\xstring
; File C:\Anka2Project\Anka2Project\Source\Binary\source\UserInterface\PythonTextTail.cpp
; File C:\Program Files\Microsoft Visual Studio\2022\Community\VC\Tools\MSVC\14.44.35207\include\xstring
; File C:\Anka2Project\Anka2Project\Source\Binary\source\UserInterface\PythonTextTail.cpp
; File C:\Program Files\Microsoft Visual Studio\2022\Community\VC\Tools\MSVC\14.44.35207\include\xstring
; File C:\Program Files\Microsoft Visual Studio\2022\Community\VC\Tools\MSVC\14.44.35207\include\xmemory
; File C:\Program Files\Microsoft Visual Studio\2022\Community\VC\Tools\MSVC\14.44.35207\include\xstring
; File C:\Program Files\Microsoft Visual Studio\2022\Community\VC\Tools\MSVC\14.44.35207\include\xmemory
; File C:\Program Files\Microsoft Visual Studio\2022\Community\VC\Tools\MSVC\14.44.35207\include\xstring
; File C:\Anka2Project\Anka2Project\Source\Binary\source\UserInterface\PythonTextTail.cpp
; File C:\Anka2Project\Anka2Project\Source\Binary\source\eterBase\Singleton.h
; File C:\Anka2Project\Anka2Project\Source\Binary\source\UserInterface\PythonTextTail.cpp
; File C:\Program Files\Microsoft Visual Studio\2022\Community\VC\Tools\MSVC\14.44.35207\include\xstring
; File C:\Program Files\Microsoft Visual Studio\2022\Community\VC\Tools\MSVC\14.44.35207\include\__msvc_string_view.hpp
; File C:\Program Files\Microsoft Visual Studio\2022\Community\VC\Tools\MSVC\14.44.35207\include\xstring
; File C:\Program Files\Microsoft Visual Studio\2022\Community\VC\Tools\MSVC\14.44.35207\include\__msvc_string_view.hpp
; File C:\Program Files\Microsoft Visual Studio\2022\Community\VC\Tools\MSVC\14.44.35207\include\xstring
; File C:\Program Files\Microsoft Visual Studio\2022\Community\VC\Tools\MSVC\14.44.35207\include\xmemory
; File C:\Program Files\Microsoft Visual Studio\2022\Community\VC\Tools\MSVC\14.44.35207\include\xstring
; File C:\Program Files\Microsoft Visual Studio\2022\Community\VC\Tools\MSVC\14.44.35207\include\xmemory
; File C:\Program Files\Microsoft Visual Studio\2022\Community\VC\Tools\MSVC\14.44.35207\include\xstring
; File C:\Program Files\Microsoft Visual Studio\2022\Community\VC\Tools\MSVC\14.44.35207\include\__msvc_string_view.hpp
; File C:\Program Files\Microsoft Visual Studio\2022\Community\VC\Tools\MSVC\14.44.35207\include\xstring
; File C:\Program Files\Microsoft Visual Studio\2022\Community\VC\Tools\MSVC\14.44.35207\include\__msvc_string_view.hpp
; File C:\Program Files\Microsoft Visual Studio\2022\Community\VC\Tools\MSVC\14.44.35207\include\xstring
; File C:\Program Files\Microsoft Visual Studio\2022\Community\VC\Tools\MSVC\14.44.35207\include\xmemory
; File C:\Program Files\Microsoft Visual Studio\2022\Community\VC\Tools\MSVC\14.44.35207\include\xstring
; File C:\Program Files\Microsoft Visual Studio\2022\Community\VC\Tools\MSVC\14.44.35207\include\xmemory
; File C:\Anka2Project\Anka2Project\Source\Binary\source\UserInterface\PythonTextTail.cpp
; File C:\Program Files\Microsoft Visual Studio\2022\Community\VC\Tools\MSVC\14.44.35207\include\xstring
; File C:\Anka2Project\Anka2Project\Source\Binary\source\UserInterface\PythonTextTail.cpp
; File C:\Program Files\Microsoft Visual Studio\2022\Community\VC\Tools\MSVC\14.44.35207\include\xstring
; File C:\Anka2Project\Anka2Project\Source\Binary\source\UserInterface\PythonTextTail.cpp
; File C:\Program Files\Microsoft Visual Studio\2022\Community\VC\Tools\MSVC\14.44.35207\include\xstring
; File C:\Anka2Project\Anka2Project\Source\Binary\source\UserInterface\PythonTextTail.cpp
; File C:\Program Files\Microsoft Visual Studio\2022\Community\VC\Tools\MSVC\14.44.35207\include\xstring
; File C:\Anka2Project\Anka2Project\Source\Binary\source\UserInterface\PythonTextTail.cpp
; File C:\Program Files\Microsoft Visual Studio\2022\Community\VC\Tools\MSVC\14.44.35207\include\xstring
; File C:\Program Files\Microsoft Visual Studio\2022\Community\VC\Tools\MSVC\14.44.35207\include\xmemory
; File C:\Program Files\Microsoft Visual Studio\2022\Community\VC\Tools\MSVC\14.44.35207\include\xstring
; File C:\Program Files\Microsoft Visual Studio\2022\Community\VC\Tools\MSVC\14.44.35207\include\xmemory
; File C:\Anka2Project\Anka2Project\Source\Binary\source\UserInterface\PythonTextTail.cpp
; File C:\Program Files\Microsoft Visual Studio\2022\Community\VC\Tools\MSVC\14.44.35207\include\xstring
; File C:\Program Files\Microsoft Visual Studio\2022\Community\VC\Tools\MSVC\14.44.35207\include\__msvc_string_view.hpp
; File C:\Program Files\Microsoft Visual Studio\2022\Community\VC\Tools\MSVC\14.44.35207\include\xstring
; File C:\Program Files\Microsoft Visual Studio\2022\Community\VC\Tools\MSVC\14.44.35207\include\__msvc_string_view.hpp
; File C:\Program Files\Microsoft Visual Studio\2022\Community\VC\Tools\MSVC\14.44.35207\include\xstring
; File C:\Anka2Project\Anka2Project\Source\Binary\source\UserInterface\PythonTextTail.cpp
; File C:\Program Files\Microsoft Visual Studio\2022\Community\VC\Tools\MSVC\14.44.35207\include\__msvc_string_view.hpp
; File C:\Anka2Project\Anka2Project\Source\Binary\source\UserInterface\PythonTextTail.cpp
; File C:\Program Files\Microsoft Visual Studio\2022\Community\VC\Tools\MSVC\14.44.35207\include\__msvc_string_view.hpp
; File C:\Anka2Project\Anka2Project\Source\Binary\source\UserInterface\PythonTextTail.cpp
; File C:\Program Files\Microsoft Visual Studio\2022\Community\VC\Tools\MSVC\14.44.35207\include\__msvc_string_view.hpp
; File C:\Anka2Project\Anka2Project\Source\Binary\source\UserInterface\PythonTextTail.cpp
; File C:\Program Files\Microsoft Visual Studio\2022\Community\VC\Tools\MSVC\14.44.35207\include\__msvc_string_view.hpp
; File C:\Anka2Project\Anka2Project\Source\Binary\source\UserInterface\PythonTextTail.cpp
; File C:\Program Files\Microsoft Visual Studio\2022\Community\VC\Tools\MSVC\14.44.35207\include\__msvc_string_view.hpp
; File C:\Anka2Project\Anka2Project\Source\Binary\source\UserInterface\PythonTextTail.cpp
; File C:\Program Files\Microsoft Visual Studio\2022\Community\VC\Tools\MSVC\14.44.35207\include\__msvc_string_view.hpp
; File C:\Anka2Project\Anka2Project\Source\Binary\source\UserInterface\PythonTextTail.cpp
; File C:\Program Files\Microsoft Visual Studio\2022\Community\VC\Tools\MSVC\14.44.35207\include\__msvc_string_view.hpp
; File C:\Program Files\Microsoft Visual Studio\2022\Community\VC\Tools\MSVC\14.44.35207\include\xstring
; File C:\Anka2Project\Anka2Project\Source\Binary\source\UserInterface\PythonTextTail.cpp
; File C:\Anka2Project\Anka2Project\Source\Binary\source\eterBase\Singleton.h
; File C:\Anka2Project\Anka2Project\Source\Binary\source\UserInterface\PythonTextTail.cpp
; File C:\Anka2Project\Anka2Project\Source\Binary\source\eterBase\Singleton.h
; File C:\Anka2Project\Anka2Project\Source\Binary\source\UserInterface\PythonTextTail.cpp
; File C:\Anka2Project\Anka2Project\Source\Binary\source\eterBase\Singleton.h
; File C:\Anka2Project\Anka2Project\Source\Binary\source\UserInterface\PythonTextTail.cpp
; File C:\Program Files\Microsoft Visual Studio\2022\Community\VC\Tools\MSVC\14.44.35207\include\xstring
; File C:\Program Files\Microsoft Visual Studio\2022\Community\VC\Tools\MSVC\14.44.35207\include\xmemory
; File C:\Program Files\Microsoft Visual Studio\2022\Community\VC\Tools\MSVC\14.44.35207\include\xstring
; File C:\Program Files\Microsoft Visual Studio\2022\Community\VC\Tools\MSVC\14.44.35207\include\xmemory
; File C:\Anka2Project\Anka2Project\Source\Binary\source\UserInterface\PythonTextTail.cpp
; File C:\Program Files\Microsoft Visual Studio\2022\Community\VC\Tools\MSVC\14.44.35207\include\xstring
; File C:\Program Files\Microsoft Visual Studio\2022\Community\VC\Tools\MSVC\14.44.35207\include\__msvc_string_view.hpp
; File C:\Program Files\Microsoft Visual Studio\2022\Community\VC\Tools\MSVC\14.44.35207\include\xstring
; File C:\Program Files\Microsoft Visual Studio\2022\Community\VC\Tools\MSVC\14.44.35207\include\__msvc_string_view.hpp
; File C:\Program Files\Microsoft Visual Studio\2022\Community\VC\Tools\MSVC\14.44.35207\include\xstring
; File C:\Anka2Project\Anka2Project\Source\Binary\source\UserInterface\PythonTextTail.cpp
; File C:\Program Files\Microsoft Visual Studio\2022\Community\VC\Tools\MSVC\14.44.35207\include\__msvc_string_view.hpp
; File C:\Anka2Project\Anka2Project\Source\Binary\source\UserInterface\PythonTextTail.cpp
; File C:\Program Files\Microsoft Visual Studio\2022\Community\VC\Tools\MSVC\14.44.35207\include\__msvc_string_view.hpp
; File C:\Anka2Project\Anka2Project\Source\Binary\source\UserInterface\PythonTextTail.cpp
; File C:\Program Files\Microsoft Visual Studio\2022\Community\VC\Tools\MSVC\14.44.35207\include\__msvc_string_view.hpp
; File C:\Anka2Project\Anka2Project\Source\Binary\source\UserInterface\PythonTextTail.cpp
; File C:\Program Files\Microsoft Visual Studio\2022\Community\VC\Tools\MSVC\14.44.35207\include\__msvc_string_view.hpp
; File C:\Anka2Project\Anka2Project\Source\Binary\source\UserInterface\PythonTextTail.cpp
; File C:\Program Files\Microsoft Visual Studio\2022\Community\VC\Tools\MSVC\14.44.35207\include\__msvc_string_view.hpp
; File C:\Program Files\Microsoft Visual Studio\2022\Community\VC\Tools\MSVC\14.44.35207\include\xstring
; File C:\Anka2Project\Anka2Project\Source\Binary\source\UserInterface\PythonTextTail.cpp
; File C:\Anka2Project\Anka2Project\Source\Binary\source\eterBase\Singleton.h
; File C:\Anka2Project\Anka2Project\Source\Binary\source\UserInterface\PythonTextTail.cpp
; File C:\Anka2Project\Anka2Project\Source\Binary\source\eterBase\Singleton.h
; File C:\Anka2Project\Anka2Project\Source\Binary\source\UserInterface\PythonTextTail.cpp
; File C:\Anka2Project\Anka2Project\Source\Binary\source\eterBase\Singleton.h
; File C:\Anka2Project\Anka2Project\Source\Binary\source\UserInterface\PythonTextTail.cpp
; File C:\Program Files\Microsoft Visual Studio\2022\Community\VC\Tools\MSVC\14.44.35207\include\xstring
; File C:\Anka2Project\Anka2Project\Source\Binary\source\UserInterface\PythonTextTail.cpp
; File C:\Program Files\Microsoft Visual Studio\2022\Community\VC\Tools\MSVC\14.44.35207\include\xstring
; File C:\Anka2Project\Anka2Project\Source\Binary\source\UserInterface\PythonTextTail.cpp
; File C:\Program Files\Microsoft Visual Studio\2022\Community\VC\Tools\MSVC\14.44.35207\include\utility
; File C:\Anka2Project\Anka2Project\Source\Binary\source\UserInterface\PythonTextTail.cpp
; File C:\Program Files\Microsoft Visual Studio\2022\Community\VC\Tools\MSVC\14.44.35207\include\utility
; File C:\Anka2Project\Anka2Project\Source\Binary\source\UserInterface\PythonTextTail.cpp
; File C:\Program Files\Microsoft Visual Studio\2022\Community\VC\Tools\MSVC\14.44.35207\include\xmemory
; File C:\Anka2Project\Anka2Project\Source\Binary\source\UserInterface\PythonTextTail.cpp
;	COMDAT ?RegisterCharacterTextTail@CPythonTextTail@@QAEXKEKABUD3DXCOLOR@@M@Z
_TEXT	SEGMENT
_this$GSCopy$1$ = -360					; size = 4
$T449 = -356						; size = 8
_c_rColor$GSCopy$1$ = -352				; size = 4
$T451 = -348						; size = 8
_pCharacterInstance$1$ = -344				; size = 4
_pLanguageImage$1$ = -344				; size = 4
_pLanguageImage2$1$ = -344				; size = 4
tv152 = -340						; size = 4
tv8366 = -340						; size = 4
__Old_capacity$1$ = -340				; size = 4
_dwMarkID$1$ = -336					; size = 4
$T453 = -336						; size = 4
_bLanguage$1$ = -329					; size = 1
_bLanguage2$1$ = -329					; size = 1
_markImagePath$454 = -328				; size = 24
_strGuildName$455 = -304				; size = 24
_langName$456 = -304					; size = 24
_langName2$457 = -304					; size = 24
_szFileName$458 = -280					; size = 256
_szFileName$459 = -280					; size = 256
__$ArrayPad$ = -20					; size = 4
__$EHRec$ = -12						; size = 12
_dwGuildID$ = 8						; size = 4
_dwGuildLeader$ = 12					; size = 1
_dwVirtualID$ = 16					; size = 4
_c_rColor$ = 20						; size = 4
_fAddHeight$ = 24					; size = 4
?RegisterCharacterTextTail@CPythonTextTail@@QAEXKEKABUD3DXCOLOR@@M@Z PROC ; CPythonTextTail::RegisterCharacterTextTail, COMDAT
; _this$ = ecx

; 619  : {

  00000	53		 push	 ebx
  00001	8b dc		 mov	 ebx, esp
  00003	83 ec 08	 sub	 esp, 8
  00006	83 e4 f8	 and	 esp, -8			; fffffff8H
  00009	83 c4 04	 add	 esp, 4
  0000c	55		 push	 ebp
  0000d	8b 6b 04	 mov	 ebp, DWORD PTR [ebx+4]
  00010	89 6c 24 04	 mov	 DWORD PTR [esp+4], ebp
  00014	8b ec		 mov	 ebp, esp
  00016	6a ff		 push	 -1
  00018	68 00 00 00 00	 push	 __ehhandler$?RegisterCharacterTextTail@CPythonTextTail@@QAEXKEKABUD3DXCOLOR@@M@Z
  0001d	64 a1 00 00 00
	00		 mov	 eax, DWORD PTR fs:0
  00023	50		 push	 eax
  00024	53		 push	 ebx
  00025	81 ec 58 01 00
	00		 sub	 esp, 344		; 00000158H
  0002b	a1 00 00 00 00	 mov	 eax, DWORD PTR ___security_cookie
  00030	33 c5		 xor	 eax, ebp
  00032	89 45 ec	 mov	 DWORD PTR __$ArrayPad$[ebp], eax
  00035	56		 push	 esi
  00036	57		 push	 edi
  00037	50		 push	 eax
  00038	8d 45 f4	 lea	 eax, DWORD PTR __$EHRec$[ebp]
  0003b	64 a3 00 00 00
	00		 mov	 DWORD PTR fs:0, eax
  00041	89 8d 98 fe ff
	ff		 mov	 DWORD PTR _this$GSCopy$1$[ebp], ecx
; File C:\Anka2Project\Anka2Project\Source\Binary\source\eterBase\Singleton.h

; 26   : 		assert(ms_singleton);

  00047	8b 0d 00 00 00
	00		 mov	 ecx, DWORD PTR ?ms_singleton@?$CSingleton@VCPythonCharacterManager@@@@0PAVCPythonCharacterManager@@A ; CSingleton<CPythonCharacterManager>::ms_singleton
; File C:\Anka2Project\Anka2Project\Source\Binary\source\UserInterface\PythonTextTail.cpp

; 619  : {

  0004d	8b 43 14	 mov	 eax, DWORD PTR _c_rColor$[ebx]
  00050	89 85 a0 fe ff
	ff		 mov	 DWORD PTR _c_rColor$GSCopy$1$[ebp], eax
; File C:\Anka2Project\Anka2Project\Source\Binary\source\eterBase\Singleton.h

; 26   : 		assert(ms_singleton);

  00056	85 c9		 test	 ecx, ecx
  00058	75 1a		 jne	 SHORT $LN55@RegisterCh
  0005a	6a 1a		 push	 26			; 0000001aH
  0005c	68 00 00 00 00	 push	 OFFSET ??_C@_1IO@CAJLEEOI@?$AAC?$AA?3?$AA?2?$AAA?$AAn?$AAk?$AAa?$AA2?$AAP?$AAr?$AAo?$AAj?$AAe?$AAc?$AAt@
  00061	68 00 00 00 00	 push	 OFFSET ??_C@_1BK@FMEHPMFE@?$AAm?$AAs?$AA_?$AAs?$AAi?$AAn?$AAg?$AAl?$AAe?$AAt?$AAo?$AAn@
  00066	e8 00 00 00 00	 call	 __wassert
  0006b	8b 0d 00 00 00
	00		 mov	 ecx, DWORD PTR ?ms_singleton@?$CSingleton@VCPythonCharacterManager@@@@0PAVCPythonCharacterManager@@A ; CSingleton<CPythonCharacterManager>::ms_singleton
  00071	83 c4 0c	 add	 esp, 12			; 0000000cH
$LN55@RegisterCh:
; File C:\Anka2Project\Anka2Project\Source\Binary\source\UserInterface\PythonTextTail.cpp

; 620  : 	CInstanceBase* pCharacterInstance = CPythonCharacterManager::Instance().GetInstancePtr(dwVirtualID);

  00074	8b 41 04	 mov	 eax, DWORD PTR [ecx+4]
  00077	83 c1 04	 add	 ecx, 4
  0007a	ff 73 10	 push	 DWORD PTR _dwVirtualID$[ebx]
  0007d	8b 40 08	 mov	 eax, DWORD PTR [eax+8]
  00080	ff d0		 call	 eax
  00082	8b f8		 mov	 edi, eax
  00084	89 bd a8 fe ff
	ff		 mov	 DWORD PTR _pCharacterInstance$1$[ebp], edi

; 621  : 
; 622  : 	if (!pCharacterInstance)

  0008a	85 ff		 test	 edi, edi
  0008c	0f 84 9c 09 00
	00		 je	 $LN1@RegisterCh

; 625  : 	TTextTail* pTextTail = RegisterTextTail(dwVirtualID, pCharacterInstance->GetNameString(), pCharacterInstance->GetGraphicThingInstancePtr(), pCharacterInstance->GetGraphicThingInstanceRef().GetHeight() + fAddHeight, c_rColor);

  00092	8b cf		 mov	 ecx, edi
  00094	e8 00 00 00 00	 call	 ?GetGraphicThingInstanceRef@CInstanceBase@@QAEAAVCActorInstance@@XZ ; CInstanceBase::GetGraphicThingInstanceRef
  00099	8b c8		 mov	 ecx, eax
  0009b	e8 00 00 00 00	 call	 ?GetHeight@CActorInstance@@QAEMXZ ; CActorInstance::GetHeight
  000a0	d8 43 18	 fadd	 DWORD PTR _fAddHeight$[ebx]
  000a3	8b cf		 mov	 ecx, edi
  000a5	d9 9d ac fe ff
	ff		 fstp	 DWORD PTR tv152[ebp]
  000ab	e8 00 00 00 00	 call	 ?GetGraphicThingInstancePtr@CInstanceBase@@QAEPAVCActorInstance@@XZ ; CInstanceBase::GetGraphicThingInstancePtr
  000b0	8b cf		 mov	 ecx, edi
  000b2	8b f0		 mov	 esi, eax
  000b4	e8 00 00 00 00	 call	 ?GetNameString@CInstanceBase@@QAEPBDXZ ; CInstanceBase::GetNameString
  000b9	83 ec 18	 sub	 esp, 24			; 00000018H
  000bc	0f 57 c0	 xorps	 xmm0, xmm0
  000bf	8b cc		 mov	 ecx, esp
  000c1	8b d0		 mov	 edx, eax
  000c3	ff b5 a0 fe ff
	ff		 push	 DWORD PTR _c_rColor$GSCopy$1$[ebp]
; File C:\Program Files\Microsoft Visual Studio\2022\Community\VC\Tools\MSVC\14.44.35207\include\xstring

; 493  :         _CONSTEXPR20 _Bxty() noexcept : _Buf() {} // user-provided, for fancy pointers

  000c9	0f 11 01	 movups	 XMMWORD PTR [ecx], xmm0

; 890  :             _My_data._Mysize = _Count;

  000cc	c7 41 10 0d 00
	00 00		 mov	 DWORD PTR [ecx+16], 13	; 0000000dH

; 891  :             _My_data._Myres  = _Small_string_capacity;

  000d3	c7 41 14 0f 00
	00 00		 mov	 DWORD PTR [ecx+20], 15	; 0000000fH
; File C:\Program Files\Microsoft Visual Studio\2022\Community\VC\Tools\MSVC\14.44.35207\include\__msvc_string_view.hpp

; 121  :         _CSTD memcpy(_First1, _First2, _Count * sizeof(_Elem));

  000da	f3 0f 7e 05 00
	00 00 00	 movq	 xmm0, QWORD PTR ??_C@_0O@HLPIIHNN@Tahoma?312?4fnt@
  000e2	66 0f d6 01	 movq	 QWORD PTR [ecx], xmm0
  000e6	a1 08 00 00 00	 mov	 eax, DWORD PTR ??_C@_0O@HLPIIHNN@Tahoma?312?4fnt@+8
; File C:\Anka2Project\Anka2Project\Source\Binary\source\UserInterface\PythonTextTail.cpp

; 625  : 	TTextTail* pTextTail = RegisterTextTail(dwVirtualID, pCharacterInstance->GetNameString(), pCharacterInstance->GetGraphicThingInstancePtr(), pCharacterInstance->GetGraphicThingInstanceRef().GetHeight() + fAddHeight, c_rColor);

  000eb	f3 0f 10 85 ac
	fe ff ff	 movss	 xmm0, DWORD PTR tv152[ebp]
  000f3	51		 push	 ecx
; File C:\Program Files\Microsoft Visual Studio\2022\Community\VC\Tools\MSVC\14.44.35207\include\__msvc_string_view.hpp

; 121  :         _CSTD memcpy(_First1, _First2, _Count * sizeof(_Elem));

  000f4	89 41 08	 mov	 DWORD PTR [ecx+8], eax
  000f7	a0 0c 00 00 00	 mov	 al, BYTE PTR ??_C@_0O@HLPIIHNN@Tahoma?312?4fnt@+12
; File C:\Anka2Project\Anka2Project\Source\Binary\source\UserInterface\PythonTextTail.cpp

; 625  : 	TTextTail* pTextTail = RegisterTextTail(dwVirtualID, pCharacterInstance->GetNameString(), pCharacterInstance->GetGraphicThingInstancePtr(), pCharacterInstance->GetGraphicThingInstanceRef().GetHeight() + fAddHeight, c_rColor);

  000fc	f3 0f 11 04 24	 movss	 DWORD PTR [esp], xmm0
  00101	56		 push	 esi
; File C:\Program Files\Microsoft Visual Studio\2022\Community\VC\Tools\MSVC\14.44.35207\include\__msvc_string_view.hpp

; 121  :         _CSTD memcpy(_First1, _First2, _Count * sizeof(_Elem));

  00102	88 41 0c	 mov	 BYTE PTR [ecx+12], al
; File C:\Anka2Project\Anka2Project\Source\Binary\source\UserInterface\PythonTextTail.cpp

; 625  : 	TTextTail* pTextTail = RegisterTextTail(dwVirtualID, pCharacterInstance->GetNameString(), pCharacterInstance->GetGraphicThingInstancePtr(), pCharacterInstance->GetGraphicThingInstanceRef().GetHeight() + fAddHeight, c_rColor);

  00105	52		 push	 edx
  00106	ff 73 10	 push	 DWORD PTR _dwVirtualID$[ebx]
; File C:\Program Files\Microsoft Visual Studio\2022\Community\VC\Tools\MSVC\14.44.35207\include\xstring

; 898  :                 _Traits::assign(_My_data._Bx._Buf[_Count], _Elem());

  00109	c6 41 0d 00	 mov	 BYTE PTR [ecx+13], 0
; File C:\Anka2Project\Anka2Project\Source\Binary\source\UserInterface\PythonTextTail.cpp

; 625  : 	TTextTail* pTextTail = RegisterTextTail(dwVirtualID, pCharacterInstance->GetNameString(), pCharacterInstance->GetGraphicThingInstancePtr(), pCharacterInstance->GetGraphicThingInstanceRef().GetHeight() + fAddHeight, c_rColor);

  0010d	8b 8d 98 fe ff
	ff		 mov	 ecx, DWORD PTR _this$GSCopy$1$[ebp]
  00113	e8 00 00 00 00	 call	 ?RegisterTextTail@CPythonTextTail@@IAEPAUSTextTail@1@KPBDPAVCGraphicObjectInstance@@MABUD3DXCOLOR@@V?$basic_string@DU?$char_traits@D@std@@V?$allocator@D@2@@std@@@Z ; CPythonTextTail::RegisterTextTail
  00118	8b f8		 mov	 edi, eax

; 626  : 
; 627  : 	CGraphicTextInstance* pTextInstance = pTextTail->pTextInstance;
; 628  : 	pTextInstance->SetOutline(true);

  0011a	6a 01		 push	 1
  0011c	8b 77 04	 mov	 esi, DWORD PTR [edi+4]
  0011f	8b ce		 mov	 ecx, esi
  00121	e8 00 00 00 00	 call	 ?SetOutline@CGraphicTextInstance@@QAEX_N@Z ; CGraphicTextInstance::SetOutline

; 629  : 	pTextInstance->SetVerticalAlign(CGraphicTextInstance::VERTICAL_ALIGN_BOTTOM);

  00126	6a 30		 push	 48			; 00000030H
  00128	8b ce		 mov	 ecx, esi
  0012a	e8 00 00 00 00	 call	 ?SetVerticalAlign@CGraphicTextInstance@@QAEXH@Z ; CGraphicTextInstance::SetVerticalAlign

; 630  : 
; 631  : 	pTextTail->pMarkInstance = nullptr;
; 632  : 	pTextTail->pGuildNameTextInstance = nullptr;
; 633  : 	pTextTail->pTitleTextInstance = nullptr;
; 634  : 	pTextTail->pLevelTextInstance = nullptr;
; 635  : #ifdef ENABLE_MULTI_LANGUAGE_SYSTEM
; 636  : 	pTextTail->pLanguageInstance = nullptr;
; 637  : 	pTextTail->pLanguageInstance2 = nullptr;
; 638  : #endif
; 639  : #ifdef ENABLE_TITLE_SYSTEM
; 640  : 	pTextTail->pTitleSystemTextInstance = nullptr;
; 641  : #endif
; 642  : #ifdef ENABLE_SHOW_MOB_INFO
; 643  : 	pTextTail->pAIFlagTextInstance = nullptr;
; 644  : #endif
; 645  : 
; 646  : 	if (0 != dwGuildID)

  0012f	83 7b 08 00	 cmp	 DWORD PTR _dwGuildID$[ebx], 0
  00133	c7 47 0c 00 00
	00 00		 mov	 DWORD PTR [edi+12], 0
  0013a	c7 47 10 00 00
	00 00		 mov	 DWORD PTR [edi+16], 0
  00141	c7 47 14 00 00
	00 00		 mov	 DWORD PTR [edi+20], 0
  00148	c7 47 18 00 00
	00 00		 mov	 DWORD PTR [edi+24], 0
  0014f	c7 47 1c 00 00
	00 00		 mov	 DWORD PTR [edi+28], 0
  00156	c7 47 20 00 00
	00 00		 mov	 DWORD PTR [edi+32], 0
  0015d	c7 47 24 00 00
	00 00		 mov	 DWORD PTR [edi+36], 0
  00164	c7 47 28 00 00
	00 00		 mov	 DWORD PTR [edi+40], 0
  0016b	0f 84 c9 03 00
	00		 je	 $LN181@RegisterCh

; 648  : 		pTextTail->pMarkInstance = CGraphicMarkInstance::New();

  00171	e8 00 00 00 00	 call	 ?New@CGraphicMarkInstance@@SAPAV1@XZ ; CGraphicMarkInstance::New
; File C:\Anka2Project\Anka2Project\Source\Binary\source\eterBase\Singleton.h

; 67   : 		assert(ms_singleton);

  00176	8b 35 00 00 00
	00		 mov	 esi, DWORD PTR ?ms_singleton@?$singleton@VCGuildMarkManager@@@@0PAVCGuildMarkManager@@A ; singleton<CGuildMarkManager>::ms_singleton
; File C:\Anka2Project\Anka2Project\Source\Binary\source\UserInterface\PythonTextTail.cpp

; 648  : 		pTextTail->pMarkInstance = CGraphicMarkInstance::New();

  0017c	89 47 0c	 mov	 DWORD PTR [edi+12], eax
; File C:\Anka2Project\Anka2Project\Source\Binary\source\eterBase\Singleton.h

; 67   : 		assert(ms_singleton);

  0017f	85 f6		 test	 esi, esi
  00181	75 1a		 jne	 SHORT $LN129@RegisterCh
  00183	6a 43		 push	 67			; 00000043H
  00185	68 00 00 00 00	 push	 OFFSET ??_C@_1IO@CAJLEEOI@?$AAC?$AA?3?$AA?2?$AAA?$AAn?$AAk?$AAa?$AA2?$AAP?$AAr?$AAo?$AAj?$AAe?$AAc?$AAt@
  0018a	68 00 00 00 00	 push	 OFFSET ??_C@_1BK@FMEHPMFE@?$AAm?$AAs?$AA_?$AAs?$AAi?$AAn?$AAg?$AAl?$AAe?$AAt?$AAo?$AAn@
  0018f	e8 00 00 00 00	 call	 __wassert
  00194	8b 35 00 00 00
	00		 mov	 esi, DWORD PTR ?ms_singleton@?$singleton@VCGuildMarkManager@@@@0PAVCGuildMarkManager@@A ; singleton<CGuildMarkManager>::ms_singleton
  0019a	83 c4 0c	 add	 esp, 12			; 0000000cH
$LN129@RegisterCh:
; File C:\Anka2Project\Anka2Project\Source\Binary\source\UserInterface\PythonTextTail.cpp

; 650  : 		DWORD dwMarkID = CGuildMarkManager::Instance().GetMarkID(dwGuildID);

  0019d	ff 73 08	 push	 DWORD PTR _dwGuildID$[ebx]
  001a0	8b ce		 mov	 ecx, esi
  001a2	e8 00 00 00 00	 call	 ?GetMarkID@CGuildMarkManager@@QAEKK@Z ; CGuildMarkManager::GetMarkID
  001a7	89 85 b0 fe ff
	ff		 mov	 DWORD PTR _dwMarkID$1$[ebp], eax

; 651  : 
; 652  : 		if (dwMarkID != CGuildMarkManager::INVALID_MARK_ID)

  001ad	83 f8 ff	 cmp	 eax, -1
  001b0	0f 84 11 01 00
	00		 je	 $LN225@RegisterCh
  001b6	0f 57 c0	 xorps	 xmm0, xmm0
; File C:\Program Files\Microsoft Visual Studio\2022\Community\VC\Tools\MSVC\14.44.35207\include\xstring

; 860  :         _My_data._Mysize = 0;

  001b9	c7 85 c8 fe ff
	ff 00 00 00 00	 mov	 DWORD PTR _markImagePath$454[ebp+16], 0

; 493  :         _CONSTEXPR20 _Bxty() noexcept : _Buf() {} // user-provided, for fancy pointers

  001c3	0f 11 85 b8 fe
	ff ff		 movups	 XMMWORD PTR _markImagePath$454[ebp], xmm0

; 861  :         _My_data._Myres  = _Small_string_capacity;

  001ca	c7 85 cc fe ff
	ff 0f 00 00 00	 mov	 DWORD PTR _markImagePath$454[ebp+20], 15 ; 0000000fH

; 862  :         _My_data._Activate_SSO_buffer();
; 863  : 
; 864  :         // the _Traits::assign is last so the codegen doesn't think the char write can alias this
; 865  :         _Traits::assign(_My_data._Bx._Buf[0], _Elem());

  001d4	c6 85 b8 fe ff
	ff 00		 mov	 BYTE PTR _markImagePath$454[ebp], 0
; File C:\Anka2Project\Anka2Project\Source\Binary\source\UserInterface\PythonTextTail.cpp

; 654  : 			std::string markImagePath;

  001db	c7 45 fc 00 00
	00 00		 mov	 DWORD PTR __$EHRec$[ebp+8], 0
; File C:\Anka2Project\Anka2Project\Source\Binary\source\eterBase\Singleton.h

; 67   : 		assert(ms_singleton);

  001e2	85 f6		 test	 esi, esi
  001e4	75 1a		 jne	 SHORT $LN217@RegisterCh
  001e6	6a 43		 push	 67			; 00000043H
  001e8	68 00 00 00 00	 push	 OFFSET ??_C@_1IO@CAJLEEOI@?$AAC?$AA?3?$AA?2?$AAA?$AAn?$AAk?$AAa?$AA2?$AAP?$AAr?$AAo?$AAj?$AAe?$AAc?$AAt@
  001ed	68 00 00 00 00	 push	 OFFSET ??_C@_1BK@FMEHPMFE@?$AAm?$AAs?$AA_?$AAs?$AAi?$AAn?$AAg?$AAl?$AAe?$AAt?$AAo?$AAn@
  001f2	e8 00 00 00 00	 call	 __wassert
  001f7	8b 35 00 00 00
	00		 mov	 esi, DWORD PTR ?ms_singleton@?$singleton@VCGuildMarkManager@@@@0PAVCGuildMarkManager@@A ; singleton<CGuildMarkManager>::ms_singleton
  001fd	83 c4 0c	 add	 esp, 12			; 0000000cH
$LN217@RegisterCh:
; File C:\Anka2Project\Anka2Project\Source\Binary\source\UserInterface\PythonTextTail.cpp

; 656  : 			if (CGuildMarkManager::Instance().GetMarkImageFilename(dwMarkID / CGuildMarkImage::MARK_TOTAL_COUNT, markImagePath))

  00200	b8 cd cc cc cc	 mov	 eax, -858993459		; cccccccdH
  00205	8d 8d b8 fe ff
	ff		 lea	 ecx, DWORD PTR _markImagePath$454[ebp]
  0020b	f7 a5 b0 fe ff
	ff		 mul	 DWORD PTR _dwMarkID$1$[ebp]
  00211	51		 push	 ecx
  00212	8b c2		 mov	 eax, edx
  00214	8b ce		 mov	 ecx, esi
  00216	c1 e8 0a	 shr	 eax, 10			; 0000000aH
  00219	50		 push	 eax
  0021a	89 85 ac fe ff
	ff		 mov	 DWORD PTR tv8366[ebp], eax
  00220	e8 00 00 00 00	 call	 ?GetMarkImageFilename@CGuildMarkManager@@QBE_NKAAV?$basic_string@DU?$char_traits@D@std@@V?$allocator@D@2@@std@@@Z ; CGuildMarkManager::GetMarkImageFilename
  00225	84 c0		 test	 al, al
  00227	74 42		 je	 SHORT $LN9@RegisterCh
; File C:\Program Files\Microsoft Visual Studio\2022\Community\VC\Tools\MSVC\14.44.35207\include\xstring

; 453  :         return _Myres > _Small_string_capacity;

  00229	83 bd cc fe ff
	ff 0f		 cmp	 DWORD PTR _markImagePath$454[ebp+20], 15 ; 0000000fH

; 444  :         const value_type* _Result = _Bx._Buf;

  00230	8d 85 b8 fe ff
	ff		 lea	 eax, DWORD PTR _markImagePath$454[ebp]
; File C:\Anka2Project\Anka2Project\Source\Binary\source\UserInterface\PythonTextTail.cpp

; 658  : 				pTextTail->pMarkInstance->SetImageFileName(markImagePath.c_str());

  00236	8b 4f 0c	 mov	 ecx, DWORD PTR [edi+12]
; File C:\Program Files\Microsoft Visual Studio\2022\Community\VC\Tools\MSVC\14.44.35207\include\xstring

; 445  :         if (_Large_mode_engaged()) {

  00239	0f 47 85 b8 fe
	ff ff		 cmova	 eax, DWORD PTR _markImagePath$454[ebp]
; File C:\Anka2Project\Anka2Project\Source\Binary\source\UserInterface\PythonTextTail.cpp

; 658  : 				pTextTail->pMarkInstance->SetImageFileName(markImagePath.c_str());

  00240	50		 push	 eax
  00241	e8 00 00 00 00	 call	 ?SetImageFileName@CGraphicMarkInstance@@QAEXPBD@Z ; CGraphicMarkInstance::SetImageFileName

; 659  : 				pTextTail->pMarkInstance->Load();

  00246	8b 4f 0c	 mov	 ecx, DWORD PTR [edi+12]
  00249	e8 00 00 00 00	 call	 ?Load@CGraphicMarkInstance@@QAEXXZ ; CGraphicMarkInstance::Load

; 660  : 				pTextTail->pMarkInstance->SetIndex(dwMarkID % CGuildMarkImage::MARK_TOTAL_COUNT);

  0024e	8b 85 ac fe ff
	ff		 mov	 eax, DWORD PTR tv8366[ebp]
  00254	8b 8d b0 fe ff
	ff		 mov	 ecx, DWORD PTR _dwMarkID$1$[ebp]
  0025a	8d 04 80	 lea	 eax, DWORD PTR [eax+eax*4]
  0025d	c1 e0 08	 shl	 eax, 8
  00260	2b c8		 sub	 ecx, eax
  00262	51		 push	 ecx
  00263	8b 4f 0c	 mov	 ecx, DWORD PTR [edi+12]
  00266	e8 00 00 00 00	 call	 ?SetIndex@CGraphicMarkInstance@@QAEXI@Z ; CGraphicMarkInstance::SetIndex
$LN9@RegisterCh:

; 661  : 			}
; 662  : 		}

  0026b	c7 45 fc ff ff
	ff ff		 mov	 DWORD PTR __$EHRec$[ebp+8], -1
; File C:\Program Files\Microsoft Visual Studio\2022\Community\VC\Tools\MSVC\14.44.35207\include\xstring

; 453  :         return _Myres > _Small_string_capacity;

  00272	8b 8d cc fe ff
	ff		 mov	 ecx, DWORD PTR _markImagePath$454[ebp+20]
  00278	83 f9 0f	 cmp	 ecx, 15			; 0000000fH

; 3083 :         if (_My_data._Large_mode_engaged()) {

  0027b	76 2f		 jbe	 SHORT $LN236@RegisterCh
; File C:\Program Files\Microsoft Visual Studio\2022\Community\VC\Tools\MSVC\14.44.35207\include\xmemory

; 985  :         _STD _Deallocate<_New_alignof<_Ty>>(_Ptr, sizeof(_Ty) * _Count);

  0027d	8b 95 b8 fe ff
	ff		 mov	 edx, DWORD PTR _markImagePath$454[ebp]
; File C:\Program Files\Microsoft Visual Studio\2022\Community\VC\Tools\MSVC\14.44.35207\include\xstring

; 852  :         _Al.deallocate(_Old_ptr, _Capacity + 1); // +1 for null terminator

  00283	41		 inc	 ecx
; File C:\Program Files\Microsoft Visual Studio\2022\Community\VC\Tools\MSVC\14.44.35207\include\xmemory

; 985  :         _STD _Deallocate<_New_alignof<_Ty>>(_Ptr, sizeof(_Ty) * _Count);

  00284	8b c2		 mov	 eax, edx

; 284  :         if (_Bytes >= _Big_allocation_threshold) {

  00286	81 f9 00 10 00
	00		 cmp	 ecx, 4096		; 00001000H
  0028c	72 14		 jb	 SHORT $LN244@RegisterCh

; 205  :     const uintptr_t _Ptr_container   = _Ptr_user[-1];

  0028e	8b 50 fc	 mov	 edx, DWORD PTR [eax-4]
  00291	83 c1 23	 add	 ecx, 35			; 00000023H
  00294	2b c2		 sub	 eax, edx

; 219  :     _STL_VERIFY(_Back_shift >= _Min_back_shift && _Back_shift <= _Non_user_size, "invalid argument");

  00296	83 c0 fc	 add	 eax, -4			; fffffffcH
  00299	83 f8 1f	 cmp	 eax, 31			; 0000001fH
  0029c	0f 87 ac 07 00
	00		 ja	 $LN2372@RegisterCh
$LN244@RegisterCh:

; 289  :         ::operator delete(_Ptr, _Bytes);

  002a2	51		 push	 ecx
  002a3	52		 push	 edx
  002a4	e8 00 00 00 00	 call	 ??3@YAXPAXI@Z		; operator delete
  002a9	83 c4 08	 add	 esp, 8
$LN236@RegisterCh:
; File C:\Program Files\Microsoft Visual Studio\2022\Community\VC\Tools\MSVC\14.44.35207\include\xstring

; 3090 :         _My_data._Mysize = 0;

  002ac	c7 85 c8 fe ff
	ff 00 00 00 00	 mov	 DWORD PTR _markImagePath$454[ebp+16], 0

; 3091 :         _My_data._Myres  = _Small_string_capacity;

  002b6	c7 85 cc fe ff
	ff 0f 00 00 00	 mov	 DWORD PTR _markImagePath$454[ebp+20], 15 ; 0000000fH

; 3092 :         // the _Traits::assign is last so the codegen doesn't think the char write can alias this
; 3093 :         _Traits::assign(_My_data._Bx._Buf[0], _Elem());

  002c0	c6 85 b8 fe ff
	ff 00		 mov	 BYTE PTR _markImagePath$454[ebp], 0
$LN225@RegisterCh:
  002c7	0f 57 c0	 xorps	 xmm0, xmm0

; 860  :         _My_data._Mysize = 0;

  002ca	c7 85 e0 fe ff
	ff 00 00 00 00	 mov	 DWORD PTR _strGuildName$455[ebp+16], 0

; 493  :         _CONSTEXPR20 _Bxty() noexcept : _Buf() {} // user-provided, for fancy pointers

  002d4	0f 11 85 d0 fe
	ff ff		 movups	 XMMWORD PTR _strGuildName$455[ebp], xmm0

; 861  :         _My_data._Myres  = _Small_string_capacity;

  002db	c7 85 e4 fe ff
	ff 0f 00 00 00	 mov	 DWORD PTR _strGuildName$455[ebp+20], 15 ; 0000000fH

; 862  :         _My_data._Activate_SSO_buffer();
; 863  : 
; 864  :         // the _Traits::assign is last so the codegen doesn't think the char write can alias this
; 865  :         _Traits::assign(_My_data._Bx._Buf[0], _Elem());

  002e5	c6 85 d0 fe ff
	ff 00		 mov	 BYTE PTR _strGuildName$455[ebp], 0
; File C:\Anka2Project\Anka2Project\Source\Binary\source\UserInterface\PythonTextTail.cpp

; 664  : 		std::string strGuildName;

  002ec	c7 45 fc 01 00
	00 00		 mov	 DWORD PTR __$EHRec$[ebp+8], 1
; File C:\Anka2Project\Anka2Project\Source\Binary\source\eterBase\Singleton.h

; 26   : 		assert(ms_singleton);

  002f3	8b 0d 00 00 00
	00		 mov	 ecx, DWORD PTR ?ms_singleton@?$CSingleton@VCPythonGuild@@@@0PAVCPythonGuild@@A ; CSingleton<CPythonGuild>::ms_singleton
  002f9	85 c9		 test	 ecx, ecx
  002fb	75 1a		 jne	 SHORT $LN152@RegisterCh
  002fd	6a 1a		 push	 26			; 0000001aH
  002ff	68 00 00 00 00	 push	 OFFSET ??_C@_1IO@CAJLEEOI@?$AAC?$AA?3?$AA?2?$AAA?$AAn?$AAk?$AAa?$AA2?$AAP?$AAr?$AAo?$AAj?$AAe?$AAc?$AAt@
  00304	68 00 00 00 00	 push	 OFFSET ??_C@_1BK@FMEHPMFE@?$AAm?$AAs?$AA_?$AAs?$AAi?$AAn?$AAg?$AAl?$AAe?$AAt?$AAo?$AAn@
  00309	e8 00 00 00 00	 call	 __wassert
  0030e	8b 0d 00 00 00
	00		 mov	 ecx, DWORD PTR ?ms_singleton@?$CSingleton@VCPythonGuild@@@@0PAVCPythonGuild@@A ; CSingleton<CPythonGuild>::ms_singleton
  00314	83 c4 0c	 add	 esp, 12			; 0000000cH
$LN152@RegisterCh:
; File C:\Anka2Project\Anka2Project\Source\Binary\source\UserInterface\PythonTextTail.cpp

; 665  : 		if (!CPythonGuild::Instance().GetGuildName(dwGuildID, &strGuildName))

  00317	8d 85 d0 fe ff
	ff		 lea	 eax, DWORD PTR _strGuildName$455[ebp]
  0031d	50		 push	 eax
  0031e	ff 73 08	 push	 DWORD PTR _dwGuildID$[ebx]
  00321	e8 00 00 00 00	 call	 ?GetGuildName@CPythonGuild@@QAE_NKPAV?$basic_string@DU?$char_traits@D@std@@V?$allocator@D@2@@std@@@Z ; CPythonGuild::GetGuildName
  00326	84 c0		 test	 al, al
  00328	0f 85 0d 01 00
	00		 jne	 $LN286@RegisterCh
; File C:\Program Files\Microsoft Visual Studio\2022\Community\VC\Tools\MSVC\14.44.35207\include\xstring

; 1618 :         if (_Count <= _Mypair._Myval2._Myres) {

  0032e	8b 8d e4 fe ff
	ff		 mov	 ecx, DWORD PTR _strGuildName$455[ebp+20]
  00334	89 8d ac fe ff
	ff		 mov	 DWORD PTR __Old_capacity$1$[ebp], ecx
  0033a	83 f9 06	 cmp	 ecx, 6
  0033d	72 33		 jb	 SHORT $LN284@RegisterCh

; 453  :         return _Myres > _Small_string_capacity;

  0033f	83 f9 0f	 cmp	 ecx, 15			; 0000000fH

; 1621 :             _Mypair._Myval2._Mysize = _Count;

  00342	c7 85 e0 fe ff
	ff 06 00 00 00	 mov	 DWORD PTR _strGuildName$455[ebp+16], 6
; File C:\Program Files\Microsoft Visual Studio\2022\Community\VC\Tools\MSVC\14.44.35207\include\__msvc_string_view.hpp

; 174  :         _CSTD memmove(_First1, _First2, _Count * sizeof(_Elem));

  0034c	6a 06		 push	 6
; File C:\Program Files\Microsoft Visual Studio\2022\Community\VC\Tools\MSVC\14.44.35207\include\xstring

; 435  :         value_type* _Result = _Bx._Buf;

  0034e	8d b5 d0 fe ff
	ff		 lea	 esi, DWORD PTR _strGuildName$455[ebp]

; 436  :         if (_Large_mode_engaged()) {

  00354	0f 47 b5 d0 fe
	ff ff		 cmova	 esi, DWORD PTR _strGuildName$455[ebp]
; File C:\Program Files\Microsoft Visual Studio\2022\Community\VC\Tools\MSVC\14.44.35207\include\__msvc_string_view.hpp

; 174  :         _CSTD memmove(_First1, _First2, _Count * sizeof(_Elem));

  0035b	68 00 00 00 00	 push	 OFFSET ??_C@_06HCBIANPB@Noname@
  00360	56		 push	 esi
  00361	e8 00 00 00 00	 call	 _memmove
  00366	83 c4 0c	 add	 esp, 12			; 0000000cH
; File C:\Program Files\Microsoft Visual Studio\2022\Community\VC\Tools\MSVC\14.44.35207\include\xstring

; 1623 :             _Traits::assign(_Old_ptr[_Count], _Elem());

  00369	c6 46 06 00	 mov	 BYTE PTR [esi+6], 0

; 1624 :             _ASAN_STRING_CREATE(*this);
; 1625 :             return *this;

  0036d	e9 c9 00 00 00	 jmp	 $LN286@RegisterCh
$LN284@RegisterCh:

; 3002 :         const size_type _Old_capacity = _Mypair._Myval2._Myres;

  00372	8b d1		 mov	 edx, ecx

; 2983 :         if (_Old > _Max - _Old / 2) { // similarly, geometric overflows

  00374	b8 ff ff ff 7f	 mov	 eax, 2147483647		; 7fffffffH

; 3002 :         const size_type _Old_capacity = _Mypair._Myval2._Myres;

  00379	d1 ea		 shr	 edx, 1

; 2983 :         if (_Old > _Max - _Old / 2) { // similarly, geometric overflows

  0037b	2b c2		 sub	 eax, edx
  0037d	3b c8		 cmp	 ecx, eax
  0037f	76 17		 jbe	 SHORT $LN293@RegisterCh

; 2984 :             return _Max;

  00381	b8 00 00 00 80	 mov	 eax, -2147483648	; 80000000H
  00386	c7 85 b0 fe ff
	ff ff ff ff 7f	 mov	 DWORD PTR $T453[ebp], 2147483647 ; 7fffffffH
; File C:\Program Files\Microsoft Visual Studio\2022\Community\VC\Tools\MSVC\14.44.35207\include\xmemory

; 253  :             return _Allocate_manually_vector_aligned<_Traits>(_Bytes);

  00390	50		 push	 eax
  00391	e8 00 00 00 00	 call	 ??$_Allocate_manually_vector_aligned@U_Default_allocate_traits@std@@@std@@YAPAXI@Z ; std::_Allocate_manually_vector_aligned<std::_Default_allocate_traits>
  00396	eb 33		 jmp	 SHORT $LN2367@RegisterCh
$LN293@RegisterCh:
; File C:\Program Files\Microsoft Visual Studio\2022\Community\VC\Tools\MSVC\14.44.35207\include\xstring

; 2987 :         return (_STD max)(_Masked, _Old + _Old / 2);

  00398	8d 04 11	 lea	 eax, DWORD PTR [ecx+edx]
  0039b	ba 0f 00 00 00	 mov	 edx, 15			; 0000000fH
  003a0	3b c2		 cmp	 eax, edx
  003a2	0f 47 d0	 cmova	 edx, eax
  003a5	89 95 b0 fe ff
	ff		 mov	 DWORD PTR $T453[ebp], edx

; 825  :         ++_Capacity; // Take null terminator into consideration

  003ab	8d 42 01	 lea	 eax, DWORD PTR [edx+1]
; File C:\Program Files\Microsoft Visual Studio\2022\Community\VC\Tools\MSVC\14.44.35207\include\xmemory

; 227  :     if (_Bytes == 0) {

  003ae	85 c0		 test	 eax, eax
  003b0	75 04		 jne	 SHORT $LN310@RegisterCh

; 228  :         return nullptr;

  003b2	33 f6		 xor	 esi, esi
  003b4	eb 26		 jmp	 SHORT $LN309@RegisterCh
$LN310@RegisterCh:

; 229  :     }
; 230  : 
; 231  : #if _HAS_CXX20 // TRANSITION, GH-1532
; 232  :     if (_STD is_constant_evaluated()) {
; 233  :         return _Traits::_Allocate(_Bytes);
; 234  :     }
; 235  : #endif // _HAS_CXX20
; 236  : 
; 237  : #ifdef __cpp_aligned_new
; 238  :     if constexpr (_Align > __STDCPP_DEFAULT_NEW_ALIGNMENT__) {
; 239  :         size_t _Passed_align = _Align;
; 240  : #if defined(_M_IX86) || defined(_M_X64)
; 241  :         if (_Bytes >= _Big_allocation_threshold) {
; 242  :             // boost the alignment of big allocations to help autovectorization
; 243  :             _Passed_align = (_STD max)(_Align, _Big_allocation_alignment);
; 244  :         }
; 245  : #endif // defined(_M_IX86) || defined(_M_X64)
; 246  :         return _Traits::_Allocate_aligned(_Bytes, _Passed_align);
; 247  :     } else
; 248  : #endif // defined(__cpp_aligned_new)
; 249  :     {
; 250  : #if defined(_M_IX86) || defined(_M_X64)
; 251  :         if (_Bytes >= _Big_allocation_threshold) {

  003b6	3d 00 10 00 00	 cmp	 eax, 4096		; 00001000H
  003bb	72 08		 jb	 SHORT $LN312@RegisterCh

; 253  :             return _Allocate_manually_vector_aligned<_Traits>(_Bytes);

  003bd	50		 push	 eax
  003be	e8 00 00 00 00	 call	 ??$_Allocate_manually_vector_aligned@U_Default_allocate_traits@std@@@std@@YAPAXI@Z ; std::_Allocate_manually_vector_aligned<std::_Default_allocate_traits>
  003c3	eb 06		 jmp	 SHORT $LN2367@RegisterCh
$LN312@RegisterCh:

; 136  :         return ::operator new(_Bytes);

  003c5	50		 push	 eax
  003c6	e8 00 00 00 00	 call	 ??2@YAPAXI@Z		; operator new
$LN2367@RegisterCh:
; File C:\Program Files\Microsoft Visual Studio\2022\Community\VC\Tools\MSVC\14.44.35207\include\xstring

; 3009 :         _Mypair._Myval2._Mysize = _New_size;

  003cb	8b 95 b0 fe ff
	ff		 mov	 edx, DWORD PTR $T453[ebp]
  003d1	8b f0		 mov	 esi, eax
  003d3	8b 8d ac fe ff
	ff		 mov	 ecx, DWORD PTR __Old_capacity$1$[ebp]
  003d9	83 c4 04	 add	 esp, 4
$LN309@RegisterCh:
; File C:\Program Files\Microsoft Visual Studio\2022\Community\VC\Tools\MSVC\14.44.35207\include\__msvc_string_view.hpp

; 121  :         _CSTD memcpy(_First1, _First2, _Count * sizeof(_Elem));

  003dc	a1 00 00 00 00	 mov	 eax, DWORD PTR ??_C@_06HCBIANPB@Noname@
; File C:\Program Files\Microsoft Visual Studio\2022\Community\VC\Tools\MSVC\14.44.35207\include\xstring

; 3009 :         _Mypair._Myval2._Mysize = _New_size;

  003e1	c7 85 e0 fe ff
	ff 06 00 00 00	 mov	 DWORD PTR _strGuildName$455[ebp+16], 6

; 3010 :         _Mypair._Myval2._Myres  = _New_capacity;

  003eb	89 95 e4 fe ff
	ff		 mov	 DWORD PTR _strGuildName$455[ebp+20], edx
; File C:\Program Files\Microsoft Visual Studio\2022\Community\VC\Tools\MSVC\14.44.35207\include\__msvc_string_view.hpp

; 121  :         _CSTD memcpy(_First1, _First2, _Count * sizeof(_Elem));

  003f1	89 06		 mov	 DWORD PTR [esi], eax
  003f3	66 a1 04 00 00
	00		 mov	 ax, WORD PTR ??_C@_06HCBIANPB@Noname@+4
  003f9	66 89 46 04	 mov	 WORD PTR [esi+4], ax
; File C:\Program Files\Microsoft Visual Studio\2022\Community\VC\Tools\MSVC\14.44.35207\include\xstring

; 1632 :                 _Traits::assign(_New_ptr[_Count], _Elem());

  003fd	c6 46 06 00	 mov	 BYTE PTR [esi+6], 0

; 3012 :         if (_Old_capacity > _Small_string_capacity) {

  00401	83 f9 0f	 cmp	 ecx, 15			; 0000000fH
  00404	76 2f		 jbe	 SHORT $LN285@RegisterCh
; File C:\Program Files\Microsoft Visual Studio\2022\Community\VC\Tools\MSVC\14.44.35207\include\xmemory

; 985  :         _STD _Deallocate<_New_alignof<_Ty>>(_Ptr, sizeof(_Ty) * _Count);

  00406	8b 95 d0 fe ff
	ff		 mov	 edx, DWORD PTR _strGuildName$455[ebp]
; File C:\Program Files\Microsoft Visual Studio\2022\Community\VC\Tools\MSVC\14.44.35207\include\xstring

; 852  :         _Al.deallocate(_Old_ptr, _Capacity + 1); // +1 for null terminator

  0040c	41		 inc	 ecx
; File C:\Program Files\Microsoft Visual Studio\2022\Community\VC\Tools\MSVC\14.44.35207\include\xmemory

; 985  :         _STD _Deallocate<_New_alignof<_Ty>>(_Ptr, sizeof(_Ty) * _Count);

  0040d	8b c2		 mov	 eax, edx

; 284  :         if (_Bytes >= _Big_allocation_threshold) {

  0040f	81 f9 00 10 00
	00		 cmp	 ecx, 4096		; 00001000H
  00415	72 14		 jb	 SHORT $LN344@RegisterCh

; 205  :     const uintptr_t _Ptr_container   = _Ptr_user[-1];

  00417	8b 50 fc	 mov	 edx, DWORD PTR [eax-4]
  0041a	83 c1 23	 add	 ecx, 35			; 00000023H
  0041d	2b c2		 sub	 eax, edx

; 219  :     _STL_VERIFY(_Back_shift >= _Min_back_shift && _Back_shift <= _Non_user_size, "invalid argument");

  0041f	83 c0 fc	 add	 eax, -4			; fffffffcH
  00422	83 f8 1f	 cmp	 eax, 31			; 0000001fH
  00425	0f 87 32 06 00
	00		 ja	 $LN188@RegisterCh
$LN344@RegisterCh:

; 289  :         ::operator delete(_Ptr, _Bytes);

  0042b	51		 push	 ecx
  0042c	52		 push	 edx
  0042d	e8 00 00 00 00	 call	 ??3@YAXPAXI@Z		; operator delete
  00432	83 c4 08	 add	 esp, 8
$LN285@RegisterCh:
; File C:\Anka2Project\Anka2Project\Source\Binary\source\UserInterface\PythonTextTail.cpp

; 669  : 		if (dwGuildLeader == 3)

  00435	89 b5 d0 fe ff
	ff		 mov	 DWORD PTR _strGuildName$455[ebp], esi
$LN286@RegisterCh:
  0043b	8a 43 0c	 mov	 al, BYTE PTR _dwGuildLeader$[ebx]
  0043e	3c 03		 cmp	 al, 3
  00440	75 09		 jne	 SHORT $LN11@RegisterCh
; File C:\Program Files\Microsoft Visual Studio\2022\Community\VC\Tools\MSVC\14.44.35207\include\xstring

; 1780 :         return insert(_Off, _Ptr, _Convert_size<size_type>(_Traits::length(_Ptr)));

  00442	6a 11		 push	 17			; 00000011H
  00444	68 00 00 00 00	 push	 OFFSET ??_C@_0BC@IBMACGLG@?5?$HMcFFFF8C00?$FLL?$FN?$HMr?5@
; File C:\Anka2Project\Anka2Project\Source\Binary\source\UserInterface\PythonTextTail.cpp

; 671  : 			strGuildName.insert(0, " |cFFFF8C00[L]|r ");

  00449	eb 0b		 jmp	 SHORT $LN2368@RegisterCh
$LN11@RegisterCh:

; 672  : 		else if (dwGuildLeader == 2)

  0044b	3c 02		 cmp	 al, 2
  0044d	75 14		 jne	 SHORT $LN13@RegisterCh
; File C:\Program Files\Microsoft Visual Studio\2022\Community\VC\Tools\MSVC\14.44.35207\include\xstring

; 1780 :         return insert(_Off, _Ptr, _Convert_size<size_type>(_Traits::length(_Ptr)));

  0044f	6a 11		 push	 17			; 00000011H
  00451	68 00 00 00 00	 push	 OFFSET ??_C@_0BC@MKHCBNFN@?5?$HMcFF01796F?$FLG?$FN?$HMr?5@
$LN2368@RegisterCh:
; File C:\Anka2Project\Anka2Project\Source\Binary\source\UserInterface\PythonTextTail.cpp

; 679  : 		prGuildNameInstance = CGraphicTextInstance::New();

  00456	6a 00		 push	 0
  00458	8d 8d d0 fe ff
	ff		 lea	 ecx, DWORD PTR _strGuildName$455[ebp]
  0045e	e8 00 00 00 00	 call	 ?insert@?$basic_string@DU?$char_traits@D@std@@V?$allocator@D@2@@std@@QAEAAV12@IQBDI@Z ; std::basic_string<char,std::char_traits<char>,std::allocator<char> >::insert
$LN13@RegisterCh:
  00463	e8 00 00 00 00	 call	 ?New@CGraphicTextInstance@@SAPAV1@XZ ; CGraphicTextInstance::New

; 680  : 		prGuildNameInstance->SetTextPointer(ms_pFont);

  00468	ff 35 00 00 00
	00		 push	 DWORD PTR ?ms_pFont@@3PAVCGraphicText@@A ; ms_pFont
  0046e	8b c8		 mov	 ecx, eax
  00470	89 47 10	 mov	 DWORD PTR [edi+16], eax
  00473	e8 00 00 00 00	 call	 ?SetTextPointer@CGraphicTextInstance@@QAEXPAVCGraphicText@@@Z ; CGraphicTextInstance::SetTextPointer

; 681  : 		prGuildNameInstance->SetOutline(true);

  00478	8b 4f 10	 mov	 ecx, DWORD PTR [edi+16]
  0047b	6a 01		 push	 1
  0047d	e8 00 00 00 00	 call	 ?SetOutline@CGraphicTextInstance@@QAEX_N@Z ; CGraphicTextInstance::SetOutline

; 682  : 		prGuildNameInstance->SetHorizonalAlign(CGraphicTextInstance::HORIZONTAL_ALIGN_CENTER);

  00482	8b 4f 10	 mov	 ecx, DWORD PTR [edi+16]
  00485	6a 02		 push	 2
  00487	e8 00 00 00 00	 call	 ?SetHorizonalAlign@CGraphicTextInstance@@QAEXH@Z ; CGraphicTextInstance::SetHorizonalAlign

; 683  : 		prGuildNameInstance->SetVerticalAlign(CGraphicTextInstance::VERTICAL_ALIGN_BOTTOM);

  0048c	8b 4f 10	 mov	 ecx, DWORD PTR [edi+16]
  0048f	6a 30		 push	 48			; 00000030H
  00491	e8 00 00 00 00	 call	 ?SetVerticalAlign@CGraphicTextInstance@@QAEXH@Z ; CGraphicTextInstance::SetVerticalAlign
; File C:\Program Files\Microsoft Visual Studio\2022\Community\VC\Tools\MSVC\14.44.35207\include\xstring

; 453  :         return _Myres > _Small_string_capacity;

  00496	83 bd e4 fe ff
	ff 0f		 cmp	 DWORD PTR _strGuildName$455[ebp+20], 15 ; 0000000fH

; 444  :         const value_type* _Result = _Bx._Buf;

  0049d	8d 85 d0 fe ff
	ff		 lea	 eax, DWORD PTR _strGuildName$455[ebp]
; File C:\Anka2Project\Anka2Project\Source\Binary\source\UserInterface\PythonTextTail.cpp

; 684  : 		prGuildNameInstance->SetValue(strGuildName.c_str());

  004a3	8b 4f 10	 mov	 ecx, DWORD PTR [edi+16]
; File C:\Program Files\Microsoft Visual Studio\2022\Community\VC\Tools\MSVC\14.44.35207\include\xstring

; 445  :         if (_Large_mode_engaged()) {

  004a6	0f 47 85 d0 fe
	ff ff		 cmova	 eax, DWORD PTR _strGuildName$455[ebp]
; File C:\Anka2Project\Anka2Project\Source\Binary\source\UserInterface\PythonTextTail.cpp

; 684  : 		prGuildNameInstance->SetValue(strGuildName.c_str());

  004ad	6a ff		 push	 -1
  004af	50		 push	 eax
  004b0	e8 00 00 00 00	 call	 ?SetValue@CGraphicTextInstance@@QAEXPBDI@Z ; CGraphicTextInstance::SetValue

; 685  : 		prGuildNameInstance->SetColor(c_TextTail_Guild_Name_Color.r, c_TextTail_Guild_Name_Color.g, c_TextTail_Guild_Name_Color.b);

  004b5	f3 0f 10 05 08
	00 00 00	 movss	 xmm0, DWORD PTR ?c_TextTail_Guild_Name_Color@@3UD3DXCOLOR@@B+8
  004bd	83 ec 10	 sub	 esp, 16			; 00000010H
  004c0	8b 4f 10	 mov	 ecx, DWORD PTR [edi+16]
  004c3	c7 44 24 0c 00
	00 80 3f	 mov	 DWORD PTR [esp+12], 1065353216 ; 3f800000H
  004cb	f3 0f 11 44 24
	08		 movss	 DWORD PTR [esp+8], xmm0
  004d1	f3 0f 10 05 04
	00 00 00	 movss	 xmm0, DWORD PTR ?c_TextTail_Guild_Name_Color@@3UD3DXCOLOR@@B+4
  004d9	f3 0f 11 44 24
	04		 movss	 DWORD PTR [esp+4], xmm0
  004df	f3 0f 10 05 00
	00 00 00	 movss	 xmm0, DWORD PTR ?c_TextTail_Guild_Name_Color@@3UD3DXCOLOR@@B
  004e7	f3 0f 11 04 24	 movss	 DWORD PTR [esp], xmm0
  004ec	e8 00 00 00 00	 call	 ?SetColor@CGraphicTextInstance@@QAEXMMMM@Z ; CGraphicTextInstance::SetColor

; 686  : 		prGuildNameInstance->Update();

  004f1	8b 4f 10	 mov	 ecx, DWORD PTR [edi+16]
  004f4	e8 00 00 00 00	 call	 ?Update@CGraphicTextInstance@@QAEXXZ ; CGraphicTextInstance::Update

; 687  : 	}

  004f9	c7 45 fc ff ff
	ff ff		 mov	 DWORD PTR __$EHRec$[ebp+8], -1
; File C:\Program Files\Microsoft Visual Studio\2022\Community\VC\Tools\MSVC\14.44.35207\include\xstring

; 453  :         return _Myres > _Small_string_capacity;

  00500	8b 8d e4 fe ff
	ff		 mov	 ecx, DWORD PTR _strGuildName$455[ebp+20]
  00506	83 f9 0f	 cmp	 ecx, 15			; 0000000fH

; 3083 :         if (_My_data._Large_mode_engaged()) {

  00509	76 2f		 jbe	 SHORT $LN181@RegisterCh
; File C:\Program Files\Microsoft Visual Studio\2022\Community\VC\Tools\MSVC\14.44.35207\include\xmemory

; 985  :         _STD _Deallocate<_New_alignof<_Ty>>(_Ptr, sizeof(_Ty) * _Count);

  0050b	8b 95 d0 fe ff
	ff		 mov	 edx, DWORD PTR _strGuildName$455[ebp]
; File C:\Program Files\Microsoft Visual Studio\2022\Community\VC\Tools\MSVC\14.44.35207\include\xstring

; 852  :         _Al.deallocate(_Old_ptr, _Capacity + 1); // +1 for null terminator

  00511	41		 inc	 ecx
; File C:\Program Files\Microsoft Visual Studio\2022\Community\VC\Tools\MSVC\14.44.35207\include\xmemory

; 985  :         _STD _Deallocate<_New_alignof<_Ty>>(_Ptr, sizeof(_Ty) * _Count);

  00512	8b c2		 mov	 eax, edx

; 284  :         if (_Bytes >= _Big_allocation_threshold) {

  00514	81 f9 00 10 00
	00		 cmp	 ecx, 4096		; 00001000H
  0051a	72 14		 jb	 SHORT $LN189@RegisterCh

; 205  :     const uintptr_t _Ptr_container   = _Ptr_user[-1];

  0051c	8b 50 fc	 mov	 edx, DWORD PTR [eax-4]
  0051f	83 c1 23	 add	 ecx, 35			; 00000023H
  00522	2b c2		 sub	 eax, edx

; 219  :     _STL_VERIFY(_Back_shift >= _Min_back_shift && _Back_shift <= _Non_user_size, "invalid argument");

  00524	83 c0 fc	 add	 eax, -4			; fffffffcH
  00527	83 f8 1f	 cmp	 eax, 31			; 0000001fH
  0052a	0f 87 2d 05 00
	00		 ja	 $LN188@RegisterCh
$LN189@RegisterCh:

; 289  :         ::operator delete(_Ptr, _Bytes);

  00530	51		 push	 ecx
  00531	52		 push	 edx
  00532	e8 00 00 00 00	 call	 ??3@YAXPAXI@Z		; operator delete
  00537	83 c4 08	 add	 esp, 8
$LN181@RegisterCh:
; File C:\Anka2Project\Anka2Project\Source\Binary\source\UserInterface\PythonTextTail.cpp

; 693  : 	if (!prLanguage)

  0053a	83 7f 1c 00	 cmp	 DWORD PTR [edi+28], 0
  0053e	8b b5 a8 fe ff
	ff		 mov	 esi, DWORD PTR _pCharacterInstance$1$[ebp]
  00544	0f 85 19 02 00
	00		 jne	 $LN475@RegisterCh

; 694  : 	{
; 695  : 		BYTE bLanguage = pCharacterInstance->GetLanguage();

  0054a	8a 46 61	 mov	 al, BYTE PTR [esi+97]

; 696  : 		if(pCharacterInstance->IsPC() && bLanguage)

  0054d	8b ce		 mov	 ecx, esi
  0054f	88 85 b7 fe ff
	ff		 mov	 BYTE PTR _bLanguage$1$[ebp], al
  00555	e8 00 00 00 00	 call	 ?IsPC@CInstanceBase@@QAEHXZ ; CInstanceBase::IsPC
  0055a	85 c0		 test	 eax, eax
  0055c	0f 84 01 02 00
	00		 je	 $LN475@RegisterCh
  00562	8a 85 b7 fe ff
	ff		 mov	 al, BYTE PTR _bLanguage$1$[ebp]
  00568	84 c0		 test	 al, al
  0056a	0f 84 f3 01 00
	00		 je	 $LN475@RegisterCh
  00570	0f 57 c0	 xorps	 xmm0, xmm0
; File C:\Program Files\Microsoft Visual Studio\2022\Community\VC\Tools\MSVC\14.44.35207\include\xstring

; 890  :             _My_data._Mysize = _Count;

  00573	c7 85 e0 fe ff
	ff 02 00 00 00	 mov	 DWORD PTR _langName$456[ebp+16], 2

; 493  :         _CONSTEXPR20 _Bxty() noexcept : _Buf() {} // user-provided, for fancy pointers

  0057d	0f 11 85 d0 fe
	ff ff		 movups	 XMMWORD PTR _langName$456[ebp], xmm0
; File C:\Program Files\Microsoft Visual Studio\2022\Community\VC\Tools\MSVC\14.44.35207\include\__msvc_string_view.hpp

; 121  :         _CSTD memcpy(_First1, _First2, _Count * sizeof(_Elem));

  00584	b9 65 6e 00 00	 mov	 ecx, 28261		; 00006e65H
; File C:\Program Files\Microsoft Visual Studio\2022\Community\VC\Tools\MSVC\14.44.35207\include\xstring

; 891  :             _My_data._Myres  = _Small_string_capacity;

  00589	c7 85 e4 fe ff
	ff 0f 00 00 00	 mov	 DWORD PTR _langName$456[ebp+20], 15 ; 0000000fH
; File C:\Program Files\Microsoft Visual Studio\2022\Community\VC\Tools\MSVC\14.44.35207\include\__msvc_string_view.hpp

; 121  :         _CSTD memcpy(_First1, _First2, _Count * sizeof(_Elem));

  00593	66 89 8d d0 fe
	ff ff		 mov	 WORD PTR _langName$456[ebp], cx
; File C:\Program Files\Microsoft Visual Studio\2022\Community\VC\Tools\MSVC\14.44.35207\include\xstring

; 898  :                 _Traits::assign(_My_data._Bx._Buf[_Count], _Elem());

  0059a	c6 85 d2 fe ff
	ff 00		 mov	 BYTE PTR _langName$456[ebp+2], 0
; File C:\Anka2Project\Anka2Project\Source\Binary\source\UserInterface\PythonTextTail.cpp

; 700  : 			switch (bLanguage)

  005a1	0f b6 c0	 movzx	 eax, al
  005a4	48		 dec	 eax
  005a5	c7 45 fc 02 00
	00 00		 mov	 DWORD PTR __$EHRec$[ebp+8], 2
  005ac	83 f8 0a	 cmp	 eax, 10			; 0000000aH
  005af	0f 87 a9 00 00
	00		 ja	 $LN27@RegisterCh
  005b5	ff 24 85 00 00
	00 00		 jmp	 DWORD PTR $LN2362@RegisterCh[eax*4]
$LN17@RegisterCh:

; 701  : 			{
; 702  : 				case CPythonApplication::LOCALE_EN: langName = "en"; break;
; 703  : 				case CPythonApplication::LOCALE_RO: langName = "ro"; break;

  005bc	68 00 00 00 00	 push	 OFFSET ??_C@_02LFKOONLL@ro@
  005c1	8d 8d d0 fe ff
	ff		 lea	 ecx, DWORD PTR _langName$456[ebp]
  005c7	e8 00 00 00 00	 call	 ??4?$basic_string@DU?$char_traits@D@std@@V?$allocator@D@2@@std@@QAEAAV01@QBD@Z ; std::basic_string<char,std::char_traits<char>,std::allocator<char> >::operator=
  005cc	e9 a5 00 00 00	 jmp	 $LN605@RegisterCh
$LN18@RegisterCh:

; 704  : 				case CPythonApplication::LOCALE_PT: langName = "pt"; break;

  005d1	68 00 00 00 00	 push	 OFFSET ??_C@_02BPBMPCEP@pt@
  005d6	8d 8d d0 fe ff
	ff		 lea	 ecx, DWORD PTR _langName$456[ebp]
  005dc	e8 00 00 00 00	 call	 ??4?$basic_string@DU?$char_traits@D@std@@V?$allocator@D@2@@std@@QAEAAV01@QBD@Z ; std::basic_string<char,std::char_traits<char>,std::allocator<char> >::operator=
  005e1	e9 90 00 00 00	 jmp	 $LN605@RegisterCh
$LN19@RegisterCh:

; 705  : 				case CPythonApplication::LOCALE_ES: langName = "es"; break;

  005e6	68 00 00 00 00	 push	 OFFSET ??_C@_02EKLAAFBD@es@
  005eb	8d 8d d0 fe ff
	ff		 lea	 ecx, DWORD PTR _langName$456[ebp]
  005f1	e8 00 00 00 00	 call	 ??4?$basic_string@DU?$char_traits@D@std@@V?$allocator@D@2@@std@@QAEAAV01@QBD@Z ; std::basic_string<char,std::char_traits<char>,std::allocator<char> >::operator=
  005f6	eb 7e		 jmp	 SHORT $LN605@RegisterCh
$LN20@RegisterCh:
; File C:\Program Files\Microsoft Visual Studio\2022\Community\VC\Tools\MSVC\14.44.35207\include\__msvc_string_view.hpp

; 174  :         _CSTD memmove(_First1, _First2, _Count * sizeof(_Elem));

  005f8	b8 66 72 00 00	 mov	 eax, 29286		; 00007266H
  005fd	66 89 85 d0 fe
	ff ff		 mov	 WORD PTR _langName$456[ebp], ax
; File C:\Anka2Project\Anka2Project\Source\Binary\source\UserInterface\PythonTextTail.cpp

; 706  : 				case CPythonApplication::LOCALE_FR: langName = "fr"; break;

  00604	eb 5f		 jmp	 SHORT $LN2369@RegisterCh
$LN21@RegisterCh:
; File C:\Program Files\Microsoft Visual Studio\2022\Community\VC\Tools\MSVC\14.44.35207\include\__msvc_string_view.hpp

; 174  :         _CSTD memmove(_First1, _First2, _Count * sizeof(_Elem));

  00606	b8 64 65 00 00	 mov	 eax, 25956		; 00006564H
  0060b	66 89 85 d0 fe
	ff ff		 mov	 WORD PTR _langName$456[ebp], ax
; File C:\Anka2Project\Anka2Project\Source\Binary\source\UserInterface\PythonTextTail.cpp

; 707  : 				case CPythonApplication::LOCALE_DE: langName = "de"; break;

  00612	eb 51		 jmp	 SHORT $LN2369@RegisterCh
$LN22@RegisterCh:
; File C:\Program Files\Microsoft Visual Studio\2022\Community\VC\Tools\MSVC\14.44.35207\include\__msvc_string_view.hpp

; 174  :         _CSTD memmove(_First1, _First2, _Count * sizeof(_Elem));

  00614	b8 70 6c 00 00	 mov	 eax, 27760		; 00006c70H
  00619	66 89 85 d0 fe
	ff ff		 mov	 WORD PTR _langName$456[ebp], ax
; File C:\Anka2Project\Anka2Project\Source\Binary\source\UserInterface\PythonTextTail.cpp

; 708  : 				case CPythonApplication::LOCALE_PL: langName = "pl"; break;

  00620	eb 43		 jmp	 SHORT $LN2369@RegisterCh
$LN23@RegisterCh:
; File C:\Program Files\Microsoft Visual Studio\2022\Community\VC\Tools\MSVC\14.44.35207\include\__msvc_string_view.hpp

; 174  :         _CSTD memmove(_First1, _First2, _Count * sizeof(_Elem));

  00622	b8 69 74 00 00	 mov	 eax, 29801		; 00007469H
  00627	66 89 85 d0 fe
	ff ff		 mov	 WORD PTR _langName$456[ebp], ax
; File C:\Anka2Project\Anka2Project\Source\Binary\source\UserInterface\PythonTextTail.cpp

; 709  : 				case CPythonApplication::LOCALE_IT: langName = "it"; break;

  0062e	eb 35		 jmp	 SHORT $LN2369@RegisterCh
$LN24@RegisterCh:
; File C:\Program Files\Microsoft Visual Studio\2022\Community\VC\Tools\MSVC\14.44.35207\include\__msvc_string_view.hpp

; 174  :         _CSTD memmove(_First1, _First2, _Count * sizeof(_Elem));

  00630	b8 63 7a 00 00	 mov	 eax, 31331		; 00007a63H
  00635	66 89 85 d0 fe
	ff ff		 mov	 WORD PTR _langName$456[ebp], ax
; File C:\Anka2Project\Anka2Project\Source\Binary\source\UserInterface\PythonTextTail.cpp

; 710  : 				case CPythonApplication::LOCALE_CZ: langName = "cz"; break;

  0063c	eb 27		 jmp	 SHORT $LN2369@RegisterCh
$LN25@RegisterCh:
; File C:\Program Files\Microsoft Visual Studio\2022\Community\VC\Tools\MSVC\14.44.35207\include\__msvc_string_view.hpp

; 174  :         _CSTD memmove(_First1, _First2, _Count * sizeof(_Elem));

  0063e	b8 68 75 00 00	 mov	 eax, 30056		; 00007568H
  00643	66 89 85 d0 fe
	ff ff		 mov	 WORD PTR _langName$456[ebp], ax
; File C:\Anka2Project\Anka2Project\Source\Binary\source\UserInterface\PythonTextTail.cpp

; 711  : 				case CPythonApplication::LOCALE_HU: langName = "hu"; break;

  0064a	eb 19		 jmp	 SHORT $LN2369@RegisterCh
$LN26@RegisterCh:

; 712  : 				case CPythonApplication::LOCALE_TR: langName = "tr"; break;

  0064c	68 00 00 00 00	 push	 OFFSET ??_C@_02EOEPPNBF@tr@
  00651	8d 8d d0 fe ff
	ff		 lea	 ecx, DWORD PTR _langName$456[ebp]
  00657	e8 00 00 00 00	 call	 ??4?$basic_string@DU?$char_traits@D@std@@V?$allocator@D@2@@std@@QAEAAV01@QBD@Z ; std::basic_string<char,std::char_traits<char>,std::allocator<char> >::operator=
  0065c	eb 18		 jmp	 SHORT $LN605@RegisterCh
$LN27@RegisterCh:
; File C:\Program Files\Microsoft Visual Studio\2022\Community\VC\Tools\MSVC\14.44.35207\include\__msvc_string_view.hpp

; 174  :         _CSTD memmove(_First1, _First2, _Count * sizeof(_Elem));

  0065e	66 89 8d d0 fe
	ff ff		 mov	 WORD PTR _langName$456[ebp], cx
$LN2369@RegisterCh:
; File C:\Program Files\Microsoft Visual Studio\2022\Community\VC\Tools\MSVC\14.44.35207\include\xstring

; 444  :         const value_type* _Result = _Bx._Buf;

  00665	c7 85 e0 fe ff
	ff 02 00 00 00	 mov	 DWORD PTR _langName$456[ebp+16], 2
  0066f	c6 85 d2 fe ff
	ff 00		 mov	 BYTE PTR _langName$456[ebp+2], 0
$LN605@RegisterCh:

; 453  :         return _Myres > _Small_string_capacity;

  00676	83 bd e4 fe ff
	ff 0f		 cmp	 DWORD PTR _langName$456[ebp+20], 15 ; 0000000fH

; 444  :         const value_type* _Result = _Bx._Buf;

  0067d	8d 85 d0 fe ff
	ff		 lea	 eax, DWORD PTR _langName$456[ebp]

; 445  :         if (_Large_mode_engaged()) {

  00683	0f 47 85 d0 fe
	ff ff		 cmova	 eax, DWORD PTR _langName$456[ebp]
; File C:\Anka2Project\Anka2Project\Source\Binary\source\UserInterface\PythonTextTail.cpp

; 717  : 			sprintf(szFileName, "d:/ymir work/ui/game/emoji/flag/%s.tga", langName.c_str());

  0068a	50		 push	 eax
  0068b	8d 85 e8 fe ff
	ff		 lea	 eax, DWORD PTR _szFileName$458[ebp]
  00691	68 00 00 00 00	 push	 OFFSET ??_C@_0CH@FJLHMJJF@d?3?1ymir?5work?1ui?1game?1emoji?1flag@
  00696	50		 push	 eax
  00697	e8 00 00 00 00	 call	 _sprintf
; File C:\Anka2Project\Anka2Project\Source\Binary\source\eterBase\Singleton.h

; 26   : 		assert(ms_singleton);

  0069c	8b 0d 00 00 00
	00		 mov	 ecx, DWORD PTR ?ms_singleton@?$CSingleton@VCResourceManager@@@@0PAVCResourceManager@@A ; CSingleton<CResourceManager>::ms_singleton
; File C:\Anka2Project\Anka2Project\Source\Binary\source\UserInterface\PythonTextTail.cpp

; 717  : 			sprintf(szFileName, "d:/ymir work/ui/game/emoji/flag/%s.tga", langName.c_str());

  006a2	83 c4 0c	 add	 esp, 12			; 0000000cH
; File C:\Anka2Project\Anka2Project\Source\Binary\source\eterBase\Singleton.h

; 26   : 		assert(ms_singleton);

  006a5	85 c9		 test	 ecx, ecx
  006a7	75 1a		 jne	 SHORT $LN558@RegisterCh
  006a9	6a 1a		 push	 26			; 0000001aH
  006ab	68 00 00 00 00	 push	 OFFSET ??_C@_1IO@CAJLEEOI@?$AAC?$AA?3?$AA?2?$AAA?$AAn?$AAk?$AAa?$AA2?$AAP?$AAr?$AAo?$AAj?$AAe?$AAc?$AAt@
  006b0	68 00 00 00 00	 push	 OFFSET ??_C@_1BK@FMEHPMFE@?$AAm?$AAs?$AA_?$AAs?$AAi?$AAn?$AAg?$AAl?$AAe?$AAt?$AAo?$AAn@
  006b5	e8 00 00 00 00	 call	 __wassert
  006ba	8b 0d 00 00 00
	00		 mov	 ecx, DWORD PTR ?ms_singleton@?$CSingleton@VCResourceManager@@@@0PAVCResourceManager@@A ; CSingleton<CResourceManager>::ms_singleton
  006c0	83 c4 0c	 add	 esp, 12			; 0000000cH
$LN558@RegisterCh:
; File C:\Anka2Project\Anka2Project\Source\Binary\source\UserInterface\PythonTextTail.cpp

; 719  : 			if (CResourceManager::Instance().IsFileExist(szFileName))

  006c3	8d 85 e8 fe ff
	ff		 lea	 eax, DWORD PTR _szFileName$458[ebp]
  006c9	50		 push	 eax
  006ca	e8 00 00 00 00	 call	 ?IsFileExist@CResourceManager@@QAE_NPBD@Z ; CResourceManager::IsFileExist
  006cf	84 c0		 test	 al, al
  006d1	74 4f		 je	 SHORT $LN29@RegisterCh
; File C:\Anka2Project\Anka2Project\Source\Binary\source\eterBase\Singleton.h

; 26   : 		assert(ms_singleton);

  006d3	8b 0d 00 00 00
	00		 mov	 ecx, DWORD PTR ?ms_singleton@?$CSingleton@VCResourceManager@@@@0PAVCResourceManager@@A ; CSingleton<CResourceManager>::ms_singleton
  006d9	85 c9		 test	 ecx, ecx
  006db	75 1a		 jne	 SHORT $LN775@RegisterCh
  006dd	6a 1a		 push	 26			; 0000001aH
  006df	68 00 00 00 00	 push	 OFFSET ??_C@_1IO@CAJLEEOI@?$AAC?$AA?3?$AA?2?$AAA?$AAn?$AAk?$AAa?$AA2?$AAP?$AAr?$AAo?$AAj?$AAe?$AAc?$AAt@
  006e4	68 00 00 00 00	 push	 OFFSET ??_C@_1BK@FMEHPMFE@?$AAm?$AAs?$AA_?$AAs?$AAi?$AAn?$AAg?$AAl?$AAe?$AAt?$AAo?$AAn@
  006e9	e8 00 00 00 00	 call	 __wassert
  006ee	8b 0d 00 00 00
	00		 mov	 ecx, DWORD PTR ?ms_singleton@?$CSingleton@VCResourceManager@@@@0PAVCResourceManager@@A ; CSingleton<CResourceManager>::ms_singleton
  006f4	83 c4 0c	 add	 esp, 12			; 0000000cH
$LN775@RegisterCh:
; File C:\Anka2Project\Anka2Project\Source\Binary\source\UserInterface\PythonTextTail.cpp

; 721  : 				CGraphicImage* pLanguageImage = (CGraphicImage*)CResourceManager::Instance().GetResourcePointer(szFileName);

  006f7	8d 85 e8 fe ff
	ff		 lea	 eax, DWORD PTR _szFileName$458[ebp]
  006fd	50		 push	 eax
  006fe	e8 00 00 00 00	 call	 ?GetResourcePointer@CResourceManager@@QAEPAVCResource@@PBD@Z ; CResourceManager::GetResourcePointer
  00703	89 85 a8 fe ff
	ff		 mov	 DWORD PTR _pLanguageImage$1$[ebp], eax

; 722  : 				if (pLanguageImage)

  00709	85 c0		 test	 eax, eax
  0070b	74 15		 je	 SHORT $LN29@RegisterCh

; 723  : 				{
; 724  : 					prLanguage = CGraphicImageInstance::New();

  0070d	e8 00 00 00 00	 call	 ?New@CGraphicImageInstance@@SAPAV1@XZ ; CGraphicImageInstance::New

; 725  : 					prLanguage->SetImagePointer(pLanguageImage);

  00712	ff b5 a8 fe ff
	ff		 push	 DWORD PTR _pLanguageImage$1$[ebp]
  00718	8b c8		 mov	 ecx, eax
  0071a	89 47 1c	 mov	 DWORD PTR [edi+28], eax
  0071d	e8 00 00 00 00	 call	 ?SetImagePointer@CGraphicImageInstance@@QAEXPAVCGraphicImage@@@Z ; CGraphicImageInstance::SetImagePointer
$LN29@RegisterCh:

; 726  : 				}
; 727  : 			}
; 728  : 		}

  00722	c7 45 fc ff ff
	ff ff		 mov	 DWORD PTR __$EHRec$[ebp+8], -1
; File C:\Program Files\Microsoft Visual Studio\2022\Community\VC\Tools\MSVC\14.44.35207\include\xstring

; 453  :         return _Myres > _Small_string_capacity;

  00729	8b 8d e4 fe ff
	ff		 mov	 ecx, DWORD PTR _langName$456[ebp+20]
  0072f	83 f9 0f	 cmp	 ecx, 15			; 0000000fH

; 3083 :         if (_My_data._Large_mode_engaged()) {

  00732	76 2f		 jbe	 SHORT $LN475@RegisterCh
; File C:\Program Files\Microsoft Visual Studio\2022\Community\VC\Tools\MSVC\14.44.35207\include\xmemory

; 985  :         _STD _Deallocate<_New_alignof<_Ty>>(_Ptr, sizeof(_Ty) * _Count);

  00734	8b 95 d0 fe ff
	ff		 mov	 edx, DWORD PTR _langName$456[ebp]
; File C:\Program Files\Microsoft Visual Studio\2022\Community\VC\Tools\MSVC\14.44.35207\include\xstring

; 852  :         _Al.deallocate(_Old_ptr, _Capacity + 1); // +1 for null terminator

  0073a	41		 inc	 ecx
; File C:\Program Files\Microsoft Visual Studio\2022\Community\VC\Tools\MSVC\14.44.35207\include\xmemory

; 985  :         _STD _Deallocate<_New_alignof<_Ty>>(_Ptr, sizeof(_Ty) * _Count);

  0073b	8b c2		 mov	 eax, edx

; 284  :         if (_Bytes >= _Big_allocation_threshold) {

  0073d	81 f9 00 10 00
	00		 cmp	 ecx, 4096		; 00001000H
  00743	72 14		 jb	 SHORT $LN483@RegisterCh

; 205  :     const uintptr_t _Ptr_container   = _Ptr_user[-1];

  00745	8b 50 fc	 mov	 edx, DWORD PTR [eax-4]
  00748	83 c1 23	 add	 ecx, 35			; 00000023H
  0074b	2b c2		 sub	 eax, edx

; 219  :     _STL_VERIFY(_Back_shift >= _Min_back_shift && _Back_shift <= _Non_user_size, "invalid argument");

  0074d	83 c0 fc	 add	 eax, -4			; fffffffcH
  00750	83 f8 1f	 cmp	 eax, 31			; 0000001fH
  00753	0f 87 13 03 00
	00		 ja	 $LN2373@RegisterCh
$LN483@RegisterCh:

; 289  :         ::operator delete(_Ptr, _Bytes);

  00759	51		 push	 ecx
  0075a	52		 push	 edx
  0075b	e8 00 00 00 00	 call	 ??3@YAXPAXI@Z		; operator delete
  00760	83 c4 08	 add	 esp, 8
$LN475@RegisterCh:
; File C:\Anka2Project\Anka2Project\Source\Binary\source\UserInterface\PythonTextTail.cpp

; 731  : 	if (!prLanguage2)

  00763	83 7f 20 00	 cmp	 DWORD PTR [edi+32], 0
  00767	0f 85 f5 01 00
	00		 jne	 $LN440@RegisterCh

; 732  : 	{
; 733  : 		BYTE bLanguage2 = pCharacterInstance->GetLanguage2();

  0076d	8a 46 62	 mov	 al, BYTE PTR [esi+98]

; 734  : 		if(pCharacterInstance->IsPC() && bLanguage2)

  00770	8b ce		 mov	 ecx, esi
  00772	88 85 b7 fe ff
	ff		 mov	 BYTE PTR _bLanguage2$1$[ebp], al
  00778	e8 00 00 00 00	 call	 ?IsPC@CInstanceBase@@QAEHXZ ; CInstanceBase::IsPC
  0077d	85 c0		 test	 eax, eax
  0077f	0f 84 dd 01 00
	00		 je	 $LN440@RegisterCh
  00785	8a 85 b7 fe ff
	ff		 mov	 al, BYTE PTR _bLanguage2$1$[ebp]
  0078b	84 c0		 test	 al, al
  0078d	0f 84 cf 01 00
	00		 je	 $LN440@RegisterCh
  00793	0f 57 c0	 xorps	 xmm0, xmm0
; File C:\Program Files\Microsoft Visual Studio\2022\Community\VC\Tools\MSVC\14.44.35207\include\xstring

; 890  :             _My_data._Mysize = _Count;

  00796	c7 85 e0 fe ff
	ff 02 00 00 00	 mov	 DWORD PTR _langName2$457[ebp+16], 2

; 493  :         _CONSTEXPR20 _Bxty() noexcept : _Buf() {} // user-provided, for fancy pointers

  007a0	0f 11 85 d0 fe
	ff ff		 movups	 XMMWORD PTR _langName2$457[ebp], xmm0
; File C:\Program Files\Microsoft Visual Studio\2022\Community\VC\Tools\MSVC\14.44.35207\include\__msvc_string_view.hpp

; 121  :         _CSTD memcpy(_First1, _First2, _Count * sizeof(_Elem));

  007a7	b9 65 6e 00 00	 mov	 ecx, 28261		; 00006e65H
; File C:\Program Files\Microsoft Visual Studio\2022\Community\VC\Tools\MSVC\14.44.35207\include\xstring

; 891  :             _My_data._Myres  = _Small_string_capacity;

  007ac	c7 85 e4 fe ff
	ff 0f 00 00 00	 mov	 DWORD PTR _langName2$457[ebp+20], 15 ; 0000000fH
; File C:\Program Files\Microsoft Visual Studio\2022\Community\VC\Tools\MSVC\14.44.35207\include\__msvc_string_view.hpp

; 121  :         _CSTD memcpy(_First1, _First2, _Count * sizeof(_Elem));

  007b6	66 89 8d d0 fe
	ff ff		 mov	 WORD PTR _langName2$457[ebp], cx
; File C:\Program Files\Microsoft Visual Studio\2022\Community\VC\Tools\MSVC\14.44.35207\include\xstring

; 898  :                 _Traits::assign(_My_data._Bx._Buf[_Count], _Elem());

  007bd	c6 85 d2 fe ff
	ff 00		 mov	 BYTE PTR _langName2$457[ebp+2], 0
; File C:\Anka2Project\Anka2Project\Source\Binary\source\UserInterface\PythonTextTail.cpp

; 738  : 			switch (bLanguage2)

  007c4	0f b6 c0	 movzx	 eax, al
  007c7	48		 dec	 eax
  007c8	c7 45 fc 03 00
	00 00		 mov	 DWORD PTR __$EHRec$[ebp+8], 3
  007cf	83 f8 0a	 cmp	 eax, 10			; 0000000aH
  007d2	0f 87 b4 00 00
	00		 ja	 $LN43@RegisterCh
  007d8	ff 24 85 00 00
	00 00		 jmp	 DWORD PTR $LN2363@RegisterCh[eax*4]
$LN33@RegisterCh:
; File C:\Program Files\Microsoft Visual Studio\2022\Community\VC\Tools\MSVC\14.44.35207\include\__msvc_string_view.hpp

; 174  :         _CSTD memmove(_First1, _First2, _Count * sizeof(_Elem));

  007df	b8 72 6f 00 00	 mov	 eax, 28530		; 00006f72H
  007e4	66 89 85 d0 fe
	ff ff		 mov	 WORD PTR _langName2$457[ebp], ax
; File C:\Anka2Project\Anka2Project\Source\Binary\source\UserInterface\PythonTextTail.cpp

; 741  : 				case CPythonApplication::LOCALE_RO: langName2 = "ro"; break;

  007eb	e9 a3 00 00 00	 jmp	 $LN2370@RegisterCh
$LN34@RegisterCh:
; File C:\Program Files\Microsoft Visual Studio\2022\Community\VC\Tools\MSVC\14.44.35207\include\__msvc_string_view.hpp

; 174  :         _CSTD memmove(_First1, _First2, _Count * sizeof(_Elem));

  007f0	b8 70 74 00 00	 mov	 eax, 29808		; 00007470H
  007f5	66 89 85 d0 fe
	ff ff		 mov	 WORD PTR _langName2$457[ebp], ax
; File C:\Anka2Project\Anka2Project\Source\Binary\source\UserInterface\PythonTextTail.cpp

; 742  : 				case CPythonApplication::LOCALE_PT: langName2 = "pt"; break;

  007fc	e9 92 00 00 00	 jmp	 $LN2370@RegisterCh
$LN35@RegisterCh:
; File C:\Program Files\Microsoft Visual Studio\2022\Community\VC\Tools\MSVC\14.44.35207\include\__msvc_string_view.hpp

; 174  :         _CSTD memmove(_First1, _First2, _Count * sizeof(_Elem));

  00801	b8 65 73 00 00	 mov	 eax, 29541		; 00007365H
  00806	66 89 85 d0 fe
	ff ff		 mov	 WORD PTR _langName2$457[ebp], ax
; File C:\Anka2Project\Anka2Project\Source\Binary\source\UserInterface\PythonTextTail.cpp

; 743  : 				case CPythonApplication::LOCALE_ES: langName2 = "es"; break;

  0080d	e9 81 00 00 00	 jmp	 $LN2370@RegisterCh
$LN36@RegisterCh:
; File C:\Program Files\Microsoft Visual Studio\2022\Community\VC\Tools\MSVC\14.44.35207\include\__msvc_string_view.hpp

; 174  :         _CSTD memmove(_First1, _First2, _Count * sizeof(_Elem));

  00812	b8 66 72 00 00	 mov	 eax, 29286		; 00007266H
  00817	66 89 85 d0 fe
	ff ff		 mov	 WORD PTR _langName2$457[ebp], ax
; File C:\Anka2Project\Anka2Project\Source\Binary\source\UserInterface\PythonTextTail.cpp

; 744  : 				case CPythonApplication::LOCALE_FR: langName2 = "fr"; break;

  0081e	eb 73		 jmp	 SHORT $LN2370@RegisterCh
$LN37@RegisterCh:

; 745  : 				case CPythonApplication::LOCALE_DE: langName2 = "de"; break;

  00820	68 00 00 00 00	 push	 OFFSET ??_C@_02FHOKNKPD@de@
  00825	8d 8d d0 fe ff
	ff		 lea	 ecx, DWORD PTR _langName2$457[ebp]
  0082b	e8 00 00 00 00	 call	 ??4?$basic_string@DU?$char_traits@D@std@@V?$allocator@D@2@@std@@QAEAAV01@QBD@Z ; std::basic_string<char,std::char_traits<char>,std::allocator<char> >::operator=
  00830	eb 72		 jmp	 SHORT $LN707@RegisterCh
$LN38@RegisterCh:

; 746  : 				case CPythonApplication::LOCALE_PL: langName2 = "pl"; break;

  00832	68 00 00 00 00	 push	 OFFSET ??_C@_02JNAHGKBG@pl@
  00837	8d 8d d0 fe ff
	ff		 lea	 ecx, DWORD PTR _langName2$457[ebp]
  0083d	e8 00 00 00 00	 call	 ??4?$basic_string@DU?$char_traits@D@std@@V?$allocator@D@2@@std@@QAEAAV01@QBD@Z ; std::basic_string<char,std::char_traits<char>,std::allocator<char> >::operator=
  00842	eb 60		 jmp	 SHORT $LN707@RegisterCh
$LN39@RegisterCh:

; 747  : 				case CPythonApplication::LOCALE_IT: langName2 = "it"; break;

  00844	68 00 00 00 00	 push	 OFFSET ??_C@_02MOLGKLA@it@
  00849	8d 8d d0 fe ff
	ff		 lea	 ecx, DWORD PTR _langName2$457[ebp]
  0084f	e8 00 00 00 00	 call	 ??4?$basic_string@DU?$char_traits@D@std@@V?$allocator@D@2@@std@@QAEAAV01@QBD@Z ; std::basic_string<char,std::char_traits<char>,std::allocator<char> >::operator=
  00854	eb 4e		 jmp	 SHORT $LN707@RegisterCh
$LN40@RegisterCh:

; 748  : 				case CPythonApplication::LOCALE_CZ: langName2 = "cz"; break;

  00856	68 00 00 00 00	 push	 OFFSET ??_C@_02JPPPMCOI@cz@
  0085b	8d 8d d0 fe ff
	ff		 lea	 ecx, DWORD PTR _langName2$457[ebp]
  00861	e8 00 00 00 00	 call	 ??4?$basic_string@DU?$char_traits@D@std@@V?$allocator@D@2@@std@@QAEAAV01@QBD@Z ; std::basic_string<char,std::char_traits<char>,std::allocator<char> >::operator=
  00866	eb 3c		 jmp	 SHORT $LN707@RegisterCh
$LN41@RegisterCh:

; 749  : 				case CPythonApplication::LOCALE_HU: langName2 = "hu"; break;

  00868	68 00 00 00 00	 push	 OFFSET ??_C@_02BEDCDBMG@hu@
  0086d	8d 8d d0 fe ff
	ff		 lea	 ecx, DWORD PTR _langName2$457[ebp]
  00873	e8 00 00 00 00	 call	 ??4?$basic_string@DU?$char_traits@D@std@@V?$allocator@D@2@@std@@QAEAAV01@QBD@Z ; std::basic_string<char,std::char_traits<char>,std::allocator<char> >::operator=
  00878	eb 2a		 jmp	 SHORT $LN707@RegisterCh
$LN42@RegisterCh:

; 750  : 				case CPythonApplication::LOCALE_TR: langName2 = "tr"; break;

  0087a	68 00 00 00 00	 push	 OFFSET ??_C@_02EOEPPNBF@tr@
  0087f	8d 8d d0 fe ff
	ff		 lea	 ecx, DWORD PTR _langName2$457[ebp]
  00885	e8 00 00 00 00	 call	 ??4?$basic_string@DU?$char_traits@D@std@@V?$allocator@D@2@@std@@QAEAAV01@QBD@Z ; std::basic_string<char,std::char_traits<char>,std::allocator<char> >::operator=
  0088a	eb 18		 jmp	 SHORT $LN707@RegisterCh
$LN43@RegisterCh:
; File C:\Program Files\Microsoft Visual Studio\2022\Community\VC\Tools\MSVC\14.44.35207\include\__msvc_string_view.hpp

; 174  :         _CSTD memmove(_First1, _First2, _Count * sizeof(_Elem));

  0088c	66 89 8d d0 fe
	ff ff		 mov	 WORD PTR _langName2$457[ebp], cx
$LN2370@RegisterCh:
; File C:\Program Files\Microsoft Visual Studio\2022\Community\VC\Tools\MSVC\14.44.35207\include\xstring

; 444  :         const value_type* _Result = _Bx._Buf;

  00893	c7 85 e0 fe ff
	ff 02 00 00 00	 mov	 DWORD PTR _langName2$457[ebp+16], 2
  0089d	c6 85 d2 fe ff
	ff 00		 mov	 BYTE PTR _langName2$457[ebp+2], 0
$LN707@RegisterCh:

; 453  :         return _Myres > _Small_string_capacity;

  008a4	83 bd e4 fe ff
	ff 0f		 cmp	 DWORD PTR _langName2$457[ebp+20], 15 ; 0000000fH

; 444  :         const value_type* _Result = _Bx._Buf;

  008ab	8d 85 d0 fe ff
	ff		 lea	 eax, DWORD PTR _langName2$457[ebp]

; 445  :         if (_Large_mode_engaged()) {

  008b1	0f 47 85 d0 fe
	ff ff		 cmova	 eax, DWORD PTR _langName2$457[ebp]
; File C:\Anka2Project\Anka2Project\Source\Binary\source\UserInterface\PythonTextTail.cpp

; 755  : 			sprintf(szFileName, "d:/ymir work/ui/game/emoji/flag/%s.tga", langName2.c_str());

  008b8	50		 push	 eax
  008b9	8d 85 e8 fe ff
	ff		 lea	 eax, DWORD PTR _szFileName$459[ebp]
  008bf	68 00 00 00 00	 push	 OFFSET ??_C@_0CH@FJLHMJJF@d?3?1ymir?5work?1ui?1game?1emoji?1flag@
  008c4	50		 push	 eax
  008c5	e8 00 00 00 00	 call	 _sprintf
; File C:\Anka2Project\Anka2Project\Source\Binary\source\eterBase\Singleton.h

; 26   : 		assert(ms_singleton);

  008ca	8b 0d 00 00 00
	00		 mov	 ecx, DWORD PTR ?ms_singleton@?$CSingleton@VCResourceManager@@@@0PAVCResourceManager@@A ; CSingleton<CResourceManager>::ms_singleton
; File C:\Anka2Project\Anka2Project\Source\Binary\source\UserInterface\PythonTextTail.cpp

; 755  : 			sprintf(szFileName, "d:/ymir work/ui/game/emoji/flag/%s.tga", langName2.c_str());

  008d0	83 c4 0c	 add	 esp, 12			; 0000000cH
; File C:\Anka2Project\Anka2Project\Source\Binary\source\eterBase\Singleton.h

; 26   : 		assert(ms_singleton);

  008d3	85 c9		 test	 ecx, ecx
  008d5	75 1a		 jne	 SHORT $LN446@RegisterCh
  008d7	6a 1a		 push	 26			; 0000001aH
  008d9	68 00 00 00 00	 push	 OFFSET ??_C@_1IO@CAJLEEOI@?$AAC?$AA?3?$AA?2?$AAA?$AAn?$AAk?$AAa?$AA2?$AAP?$AAr?$AAo?$AAj?$AAe?$AAc?$AAt@
  008de	68 00 00 00 00	 push	 OFFSET ??_C@_1BK@FMEHPMFE@?$AAm?$AAs?$AA_?$AAs?$AAi?$AAn?$AAg?$AAl?$AAe?$AAt?$AAo?$AAn@
  008e3	e8 00 00 00 00	 call	 __wassert
  008e8	8b 0d 00 00 00
	00		 mov	 ecx, DWORD PTR ?ms_singleton@?$CSingleton@VCResourceManager@@@@0PAVCResourceManager@@A ; CSingleton<CResourceManager>::ms_singleton
  008ee	83 c4 0c	 add	 esp, 12			; 0000000cH
$LN446@RegisterCh:
; File C:\Anka2Project\Anka2Project\Source\Binary\source\UserInterface\PythonTextTail.cpp

; 757  : 			if (CResourceManager::Instance().IsFileExist(szFileName))

  008f1	8d 85 e8 fe ff
	ff		 lea	 eax, DWORD PTR _szFileName$459[ebp]
  008f7	50		 push	 eax
  008f8	e8 00 00 00 00	 call	 ?IsFileExist@CResourceManager@@QAE_NPBD@Z ; CResourceManager::IsFileExist
  008fd	84 c0		 test	 al, al
  008ff	74 4f		 je	 SHORT $LN45@RegisterCh
; File C:\Anka2Project\Anka2Project\Source\Binary\source\eterBase\Singleton.h

; 26   : 		assert(ms_singleton);

  00901	8b 0d 00 00 00
	00		 mov	 ecx, DWORD PTR ?ms_singleton@?$CSingleton@VCResourceManager@@@@0PAVCResourceManager@@A ; CSingleton<CResourceManager>::ms_singleton
  00907	85 c9		 test	 ecx, ecx
  00909	75 1a		 jne	 SHORT $LN778@RegisterCh
  0090b	6a 1a		 push	 26			; 0000001aH
  0090d	68 00 00 00 00	 push	 OFFSET ??_C@_1IO@CAJLEEOI@?$AAC?$AA?3?$AA?2?$AAA?$AAn?$AAk?$AAa?$AA2?$AAP?$AAr?$AAo?$AAj?$AAe?$AAc?$AAt@
  00912	68 00 00 00 00	 push	 OFFSET ??_C@_1BK@FMEHPMFE@?$AAm?$AAs?$AA_?$AAs?$AAi?$AAn?$AAg?$AAl?$AAe?$AAt?$AAo?$AAn@
  00917	e8 00 00 00 00	 call	 __wassert
  0091c	8b 0d 00 00 00
	00		 mov	 ecx, DWORD PTR ?ms_singleton@?$CSingleton@VCResourceManager@@@@0PAVCResourceManager@@A ; CSingleton<CResourceManager>::ms_singleton
  00922	83 c4 0c	 add	 esp, 12			; 0000000cH
$LN778@RegisterCh:
; File C:\Anka2Project\Anka2Project\Source\Binary\source\UserInterface\PythonTextTail.cpp

; 759  : 				CGraphicImage* pLanguageImage2 = (CGraphicImage*)CResourceManager::Instance().GetResourcePointer(szFileName);

  00925	8d 85 e8 fe ff
	ff		 lea	 eax, DWORD PTR _szFileName$459[ebp]
  0092b	50		 push	 eax
  0092c	e8 00 00 00 00	 call	 ?GetResourcePointer@CResourceManager@@QAEPAVCResource@@PBD@Z ; CResourceManager::GetResourcePointer
  00931	89 85 a8 fe ff
	ff		 mov	 DWORD PTR _pLanguageImage2$1$[ebp], eax

; 760  : 				if (pLanguageImage2)

  00937	85 c0		 test	 eax, eax
  00939	74 15		 je	 SHORT $LN45@RegisterCh

; 761  : 				{
; 762  : 					prLanguage2 = CGraphicImageInstance::New();

  0093b	e8 00 00 00 00	 call	 ?New@CGraphicImageInstance@@SAPAV1@XZ ; CGraphicImageInstance::New

; 763  : 					prLanguage2->SetImagePointer(pLanguageImage2);

  00940	ff b5 a8 fe ff
	ff		 push	 DWORD PTR _pLanguageImage2$1$[ebp]
  00946	8b c8		 mov	 ecx, eax
  00948	89 47 20	 mov	 DWORD PTR [edi+32], eax
  0094b	e8 00 00 00 00	 call	 ?SetImagePointer@CGraphicImageInstance@@QAEXPAVCGraphicImage@@@Z ; CGraphicImageInstance::SetImagePointer
$LN45@RegisterCh:
; File C:\Program Files\Microsoft Visual Studio\2022\Community\VC\Tools\MSVC\14.44.35207\include\xstring

; 1383 :         _Tidy_deallocate();

  00950	8d 8d d0 fe ff
	ff		 lea	 ecx, DWORD PTR _langName2$457[ebp]
; File C:\Anka2Project\Anka2Project\Source\Binary\source\UserInterface\PythonTextTail.cpp

; 766  : 		}

  00956	c7 45 fc ff ff
	ff ff		 mov	 DWORD PTR __$EHRec$[ebp+8], -1
; File C:\Program Files\Microsoft Visual Studio\2022\Community\VC\Tools\MSVC\14.44.35207\include\xstring

; 1383 :         _Tidy_deallocate();

  0095d	e8 00 00 00 00	 call	 ?_Tidy_deallocate@?$basic_string@DU?$char_traits@D@std@@V?$allocator@D@2@@std@@AAEXXZ ; std::basic_string<char,std::char_traits<char>,std::allocator<char> >::_Tidy_deallocate
$LN440@RegisterCh:
; File C:\Anka2Project\Anka2Project\Source\Binary\source\UserInterface\PythonTextTail.cpp

; 771  : 	if (IS_SET(pCharacterInstance->GetAIFlag(), CInstanceBase::AIFLAG_AGGRESSIVE))

  00962	8b ce		 mov	 ecx, esi
  00964	e8 00 00 00 00	 call	 ?GetAIFlag@CInstanceBase@@QAEKXZ ; CInstanceBase::GetAIFlag
  00969	a8 01		 test	 al, 1
  0096b	0f 84 82 00 00
	00		 je	 $LN46@RegisterCh

; 772  : 	{
; 773  : 		CGraphicTextInstance* & prAIFlagInstance = pTextTail->pAIFlagTextInstance;
; 774  : 		prAIFlagInstance = CGraphicTextInstance::New();

  00971	e8 00 00 00 00	 call	 ?New@CGraphicTextInstance@@SAPAV1@XZ ; CGraphicTextInstance::New

; 775  : 		prAIFlagInstance->SetTextPointer(ms_pFont);

  00976	ff 35 00 00 00
	00		 push	 DWORD PTR ?ms_pFont@@3PAVCGraphicText@@A ; ms_pFont
  0097c	8b c8		 mov	 ecx, eax
  0097e	89 47 28	 mov	 DWORD PTR [edi+40], eax
  00981	e8 00 00 00 00	 call	 ?SetTextPointer@CGraphicTextInstance@@QAEXPAVCGraphicText@@@Z ; CGraphicTextInstance::SetTextPointer

; 776  : 		prAIFlagInstance->SetHorizonalAlign(CGraphicTextInstance::HORIZONTAL_ALIGN_LEFT);

  00986	8b 4f 28	 mov	 ecx, DWORD PTR [edi+40]
  00989	6a 01		 push	 1
  0098b	e8 00 00 00 00	 call	 ?SetHorizonalAlign@CGraphicTextInstance@@QAEXH@Z ; CGraphicTextInstance::SetHorizonalAlign

; 777  : 		prAIFlagInstance->SetVerticalAlign(CGraphicTextInstance::VERTICAL_ALIGN_BOTTOM);

  00990	8b 4f 28	 mov	 ecx, DWORD PTR [edi+40]
  00993	6a 30		 push	 48			; 00000030H
  00995	e8 00 00 00 00	 call	 ?SetVerticalAlign@CGraphicTextInstance@@QAEXH@Z ; CGraphicTextInstance::SetVerticalAlign

; 778  : 		prAIFlagInstance->SetValue("*");

  0099a	8b 4f 28	 mov	 ecx, DWORD PTR [edi+40]
  0099d	6a ff		 push	 -1
  0099f	68 00 00 00 00	 push	 OFFSET ??_C@_01NBENCBCI@?$CK@
  009a4	e8 00 00 00 00	 call	 ?SetValue@CGraphicTextInstance@@QAEXPBDI@Z ; CGraphicTextInstance::SetValue

; 779  : 		prAIFlagInstance->SetOutline(true);

  009a9	8b 4f 28	 mov	 ecx, DWORD PTR [edi+40]
  009ac	6a 01		 push	 1
  009ae	e8 00 00 00 00	 call	 ?SetOutline@CGraphicTextInstance@@QAEX_N@Z ; CGraphicTextInstance::SetOutline

; 780  : 		prAIFlagInstance->SetColor(c_rColor.r, c_rColor.g, c_rColor.b);

  009b3	8b 85 a0 fe ff
	ff		 mov	 eax, DWORD PTR _c_rColor$GSCopy$1$[ebp]
  009b9	83 ec 10	 sub	 esp, 16			; 00000010H
  009bc	8b 4f 28	 mov	 ecx, DWORD PTR [edi+40]
  009bf	f3 0f 10 40 08	 movss	 xmm0, DWORD PTR [eax+8]
  009c4	c7 44 24 0c 00
	00 80 3f	 mov	 DWORD PTR [esp+12], 1065353216 ; 3f800000H
  009cc	f3 0f 11 44 24
	08		 movss	 DWORD PTR [esp+8], xmm0
  009d2	f3 0f 10 40 04	 movss	 xmm0, DWORD PTR [eax+4]
  009d7	f3 0f 11 44 24
	04		 movss	 DWORD PTR [esp+4], xmm0
  009dd	f3 0f 10 00	 movss	 xmm0, DWORD PTR [eax]
  009e1	f3 0f 11 04 24	 movss	 DWORD PTR [esp], xmm0
  009e6	e8 00 00 00 00	 call	 ?SetColor@CGraphicTextInstance@@QAEXMMMM@Z ; CGraphicTextInstance::SetColor

; 781  : 		prAIFlagInstance->Update();

  009eb	8b 4f 28	 mov	 ecx, DWORD PTR [edi+40]
  009ee	e8 00 00 00 00	 call	 ?Update@CGraphicTextInstance@@QAEXXZ ; CGraphicTextInstance::Update
$LN46@RegisterCh:

; 784  : 	pTextTail->bIsPC = pCharacterInstance->IsPC() != FALSE;

  009f3	8b ce		 mov	 ecx, esi
  009f5	e8 00 00 00 00	 call	 ?IsPC@CInstanceBase@@QAEHXZ ; CInstanceBase::IsPC

; 787  : 	m_CharacterTextTailMap.insert(TTextTailMap::value_type(dwVirtualID, pTextTail));

  009fa	8b 8d 98 fe ff
	ff		 mov	 ecx, DWORD PTR _this$GSCopy$1$[ebp]
  00a00	f7 d8		 neg	 eax
; File C:\Program Files\Microsoft Visual Studio\2022\Community\VC\Tools\MSVC\14.44.35207\include\utility

; 274  :         : first(_STD forward<_Other1>(_Val1)), second(_STD forward<_Other2>(_Val2)) {

  00a02	89 bd a0 fe ff
	ff		 mov	 DWORD PTR $T449[ebp+4], edi
; File C:\Anka2Project\Anka2Project\Source\Binary\source\UserInterface\PythonTextTail.cpp

; 784  : 	pTextTail->bIsPC = pCharacterInstance->IsPC() != FALSE;

  00a08	1b c0		 sbb	 eax, eax
  00a0a	f7 d8		 neg	 eax
  00a0c	89 47 70	 mov	 DWORD PTR [edi+112], eax

; 787  : 	m_CharacterTextTailMap.insert(TTextTailMap::value_type(dwVirtualID, pTextTail));

  00a0f	8d 49 04	 lea	 ecx, DWORD PTR [ecx+4]
; File C:\Program Files\Microsoft Visual Studio\2022\Community\VC\Tools\MSVC\14.44.35207\include\utility

; 274  :         : first(_STD forward<_Other1>(_Val1)), second(_STD forward<_Other2>(_Val2)) {

  00a12	8b 43 10	 mov	 eax, DWORD PTR _dwVirtualID$[ebx]
  00a15	89 85 9c fe ff
	ff		 mov	 DWORD PTR $T449[ebp], eax
; File C:\Anka2Project\Anka2Project\Source\Binary\source\UserInterface\PythonTextTail.cpp

; 787  : 	m_CharacterTextTailMap.insert(TTextTailMap::value_type(dwVirtualID, pTextTail));

  00a1b	8d 85 9c fe ff
	ff		 lea	 eax, DWORD PTR $T449[ebp]
  00a21	50		 push	 eax
  00a22	8d 85 a4 fe ff
	ff		 lea	 eax, DWORD PTR $T451[ebp]
  00a28	50		 push	 eax
  00a29	e8 00 00 00 00	 call	 ??$insert@$0A@$0A@@?$_Tree@V?$_Tmap_traits@KPAUSTextTail@CPythonTextTail@@U?$less@K@std@@V?$allocator@U?$pair@$$CBKPAUSTextTail@CPythonTextTail@@@std@@@4@$0A@@std@@@std@@QAE?AU?$pair@V?$_Tree_iterator@V?$_Tree_val@U?$_Tree_simple_types@U?$pair@$$CBKPAUSTextTail@CPythonTextTail@@@std@@@std@@@std@@@std@@_N@1@$$QAU?$pair@$$CBKPAUSTextTail@CPythonTextTail@@@1@@Z ; std::_Tree<std::_Tmap_traits<unsigned long,CPythonTextTail::STextTail *,std::less<unsigned long>,std::allocator<std::pair<unsigned long const ,CPythonTextTail::STextTail *> >,0> >::insert<0,0>
$LN1@RegisterCh:

; 788  : }

  00a2e	8b 4d f4	 mov	 ecx, DWORD PTR __$EHRec$[ebp]
  00a31	64 89 0d 00 00
	00 00		 mov	 DWORD PTR fs:0, ecx
  00a38	59		 pop	 ecx
  00a39	5f		 pop	 edi
  00a3a	5e		 pop	 esi
  00a3b	8b 4d ec	 mov	 ecx, DWORD PTR __$ArrayPad$[ebp]
  00a3e	33 cd		 xor	 ecx, ebp
  00a40	e8 00 00 00 00	 call	 @__security_check_cookie@4
  00a45	8b e5		 mov	 esp, ebp
  00a47	5d		 pop	 ebp
  00a48	8b e3		 mov	 esp, ebx
  00a4a	5b		 pop	 ebx
  00a4b	c2 14 00	 ret	 20			; 00000014H
$LN2372@RegisterCh:
; File C:\Program Files\Microsoft Visual Studio\2022\Community\VC\Tools\MSVC\14.44.35207\include\xmemory

; 219  :     _STL_VERIFY(_Back_shift >= _Min_back_shift && _Back_shift <= _Non_user_size, "invalid argument");

  00a4e	6a 00		 push	 0
  00a50	6a 00		 push	 0
  00a52	6a 00		 push	 0
  00a54	6a 00		 push	 0
  00a56	6a 00		 push	 0
  00a58	e8 00 00 00 00	 call	 __invoke_watson
$LN188@RegisterCh:
  00a5d	6a 00		 push	 0
  00a5f	6a 00		 push	 0
  00a61	6a 00		 push	 0
  00a63	6a 00		 push	 0
  00a65	6a 00		 push	 0
  00a67	e8 00 00 00 00	 call	 __invoke_watson
$LN2373@RegisterCh:
  00a6c	6a 00		 push	 0
  00a6e	6a 00		 push	 0
  00a70	6a 00		 push	 0
  00a72	6a 00		 push	 0
  00a74	6a 00		 push	 0
  00a76	e8 00 00 00 00	 call	 __invoke_watson
$LN2366@RegisterCh:
  00a7b	90		 npad	 1
$LN2362@RegisterCh:
; File C:\Anka2Project\Anka2Project\Source\Binary\source\UserInterface\PythonTextTail.cpp

; 788  : }

  00a7c	00 00 00 00	 DD	 $LN27@RegisterCh
  00a80	00 00 00 00	 DD	 $LN17@RegisterCh
  00a84	00 00 00 00	 DD	 $LN18@RegisterCh
  00a88	00 00 00 00	 DD	 $LN19@RegisterCh
  00a8c	00 00 00 00	 DD	 $LN20@RegisterCh
  00a90	00 00 00 00	 DD	 $LN21@RegisterCh
  00a94	00 00 00 00	 DD	 $LN22@RegisterCh
  00a98	00 00 00 00	 DD	 $LN23@RegisterCh
  00a9c	00 00 00 00	 DD	 $LN24@RegisterCh
  00aa0	00 00 00 00	 DD	 $LN25@RegisterCh
  00aa4	00 00 00 00	 DD	 $LN26@RegisterCh
$LN2363@RegisterCh:
  00aa8	00 00 00 00	 DD	 $LN43@RegisterCh
  00aac	00 00 00 00	 DD	 $LN33@RegisterCh
  00ab0	00 00 00 00	 DD	 $LN34@RegisterCh
  00ab4	00 00 00 00	 DD	 $LN35@RegisterCh
  00ab8	00 00 00 00	 DD	 $LN36@RegisterCh
  00abc	00 00 00 00	 DD	 $LN37@RegisterCh
  00ac0	00 00 00 00	 DD	 $LN38@RegisterCh
  00ac4	00 00 00 00	 DD	 $LN39@RegisterCh
  00ac8	00 00 00 00	 DD	 $LN40@RegisterCh
  00acc	00 00 00 00	 DD	 $LN41@RegisterCh
  00ad0	00 00 00 00	 DD	 $LN42@RegisterCh
_TEXT	ENDS
;	COMDAT text$x
text$x	SEGMENT
__unwindfunclet$?RegisterCharacterTextTail@CPythonTextTail@@QAEXKEKABUD3DXCOLOR@@M@Z$1:
  00000	8d 8d b8 fe ff
	ff		 lea	 ecx, DWORD PTR _markImagePath$454[ebp]
  00006	e9 00 00 00 00	 jmp	 ??1?$basic_string@DU?$char_traits@D@std@@V?$allocator@D@2@@std@@QAE@XZ ; std::basic_string<char,std::char_traits<char>,std::allocator<char> >::~basic_string<char,std::char_traits<char>,std::allocator<char> >
__unwindfunclet$?RegisterCharacterTextTail@CPythonTextTail@@QAEXKEKABUD3DXCOLOR@@M@Z$2:
  0000b	8d 8d d0 fe ff
	ff		 lea	 ecx, DWORD PTR _strGuildName$455[ebp]
  00011	e9 00 00 00 00	 jmp	 ??1?$basic_string@DU?$char_traits@D@std@@V?$allocator@D@2@@std@@QAE@XZ ; std::basic_string<char,std::char_traits<char>,std::allocator<char> >::~basic_string<char,std::char_traits<char>,std::allocator<char> >
__unwindfunclet$?RegisterCharacterTextTail@CPythonTextTail@@QAEXKEKABUD3DXCOLOR@@M@Z$3:
  00016	8d 8d d0 fe ff
	ff		 lea	 ecx, DWORD PTR _langName$456[ebp]
  0001c	e9 00 00 00 00	 jmp	 ??1?$basic_string@DU?$char_traits@D@std@@V?$allocator@D@2@@std@@QAE@XZ ; std::basic_string<char,std::char_traits<char>,std::allocator<char> >::~basic_string<char,std::char_traits<char>,std::allocator<char> >
__unwindfunclet$?RegisterCharacterTextTail@CPythonTextTail@@QAEXKEKABUD3DXCOLOR@@M@Z$4:
  00021	8d 8d d0 fe ff
	ff		 lea	 ecx, DWORD PTR _langName2$457[ebp]
  00027	e9 00 00 00 00	 jmp	 ??1?$basic_string@DU?$char_traits@D@std@@V?$allocator@D@2@@std@@QAE@XZ ; std::basic_string<char,std::char_traits<char>,std::allocator<char> >::~basic_string<char,std::char_traits<char>,std::allocator<char> >
  0002c	cc		 int	 3
  0002d	cc		 int	 3
  0002e	cc		 int	 3
  0002f	cc		 int	 3
  00030	cc		 int	 3
__ehhandler$?RegisterCharacterTextTail@CPythonTextTail@@QAEXKEKABUD3DXCOLOR@@M@Z:
  00031	90		 npad	 1
  00032	90		 npad	 1
  00033	8b 54 24 08	 mov	 edx, DWORD PTR [esp+8]
  00037	8d 42 0c	 lea	 eax, DWORD PTR [edx+12]
  0003a	8b 8a 98 fe ff
	ff		 mov	 ecx, DWORD PTR [edx-360]
  00040	33 c8		 xor	 ecx, eax
  00042	e8 00 00 00 00	 call	 @__security_check_cookie@4
  00047	8b 4a f8	 mov	 ecx, DWORD PTR [edx-8]
  0004a	33 c8		 xor	 ecx, eax
  0004c	e8 00 00 00 00	 call	 @__security_check_cookie@4
  00051	b8 00 00 00 00	 mov	 eax, OFFSET __ehfuncinfo$?RegisterCharacterTextTail@CPythonTextTail@@QAEXKEKABUD3DXCOLOR@@M@Z
  00056	e9 00 00 00 00	 jmp	 ___CxxFrameHandler3
text$x	ENDS
?RegisterCharacterTextTail@CPythonTextTail@@QAEXKEKABUD3DXCOLOR@@M@Z ENDP ; CPythonTextTail::RegisterCharacterTextTail
; Function compile flags: /Ogtp
; File C:\Anka2Project\Anka2Project\Source\Binary\source\UserInterface\PythonTextTail.cpp
; File C:\Anka2Project\Anka2Project\Source\Binary\source\eterBase\Singleton.h
; File C:\Anka2Project\Anka2Project\Source\Binary\source\UserInterface\PythonTextTail.cpp
; File C:\Anka2Project\Anka2Project\Source\Binary\source\eterBase\Singleton.h
; File C:\Anka2Project\Anka2Project\Source\Binary\source\UserInterface\PythonTextTail.cpp
; File C:\Program Files\Microsoft Visual Studio\2022\Community\VC\Tools\MSVC\14.44.35207\include\xtree
; File C:\Anka2Project\Anka2Project\Source\Binary\source\UserInterface\PythonTextTail.cpp
; File C:\Program Files\Microsoft Visual Studio\2022\Community\VC\Tools\MSVC\14.44.35207\include\xtree
; File C:\Program Files\Microsoft Visual Studio\2022\Community\VC\Tools\MSVC\14.44.35207\include\type_traits
; File C:\Program Files\Microsoft Visual Studio\2022\Community\VC\Tools\MSVC\14.44.35207\include\xtree
; File C:\Anka2Project\Anka2Project\Source\Binary\source\UserInterface\PythonTextTail.cpp
; File C:\Program Files\Microsoft Visual Studio\2022\Community\VC\Tools\MSVC\14.44.35207\include\xtree
; File C:\Program Files\Microsoft Visual Studio\2022\Community\VC\Tools\MSVC\14.44.35207\include\xmemory
; File C:\Anka2Project\Anka2Project\Source\Binary\source\UserInterface\PythonTextTail.cpp
; File C:\Program Files\Microsoft Visual Studio\2022\Community\VC\Tools\MSVC\14.44.35207\include\xstring
; File C:\Program Files\Microsoft Visual Studio\2022\Community\VC\Tools\MSVC\14.44.35207\include\__msvc_string_view.hpp
; File C:\Anka2Project\Anka2Project\Source\Binary\source\UserInterface\PythonTextTail.cpp
; File C:\Program Files\Microsoft Visual Studio\2022\Community\VC\Tools\MSVC\14.44.35207\include\__msvc_string_view.hpp
; File C:\Anka2Project\Anka2Project\Source\Binary\source\UserInterface\PythonTextTail.cpp
; File C:\Program Files\Microsoft Visual Studio\2022\Community\VC\Tools\MSVC\14.44.35207\include\__msvc_string_view.hpp
; File C:\Program Files\Microsoft Visual Studio\2022\Community\VC\Tools\MSVC\14.44.35207\include\xstring
; File C:\Anka2Project\Anka2Project\Source\Binary\source\UserInterface\PythonTextTail.cpp
; File C:\Anka2Project\Anka2Project\Source\Binary\source\eterBase\Singleton.h
; File C:\Anka2Project\Anka2Project\Source\Binary\source\UserInterface\PythonTextTail.cpp
; File C:\Anka2Project\Anka2Project\Source\Binary\source\eterBase\Singleton.h
; File C:\Anka2Project\Anka2Project\Source\Binary\source\UserInterface\PythonTextTail.cpp
; File C:\Program Files\Microsoft Visual Studio\2022\Community\VC\Tools\MSVC\14.44.35207\include\utility
; File C:\Anka2Project\Anka2Project\Source\Binary\source\UserInterface\PythonTextTail.cpp
; File C:\Program Files\Microsoft Visual Studio\2022\Community\VC\Tools\MSVC\14.44.35207\include\utility
; File C:\Anka2Project\Anka2Project\Source\Binary\source\UserInterface\PythonTextTail.cpp
; File C:\Program Files\Microsoft Visual Studio\2022\Community\VC\Tools\MSVC\14.44.35207\include\utility
; File C:\Anka2Project\Anka2Project\Source\Binary\source\UserInterface\PythonTextTail.cpp
;	COMDAT ?RegisterChatTail@CPythonTextTail@@QAEXKPBD@Z
_TEXT	SEGMENT
_this$1$ = -24						; size = 4
$T44 = -20						; size = 8
_pCharacterInstance$1$ = -20				; size = 4
tv945 = -20						; size = 4
$T42 = -12						; size = 8
__Loc$45 = -12						; size = 12
tv201 = -12						; size = 4
tv904 = -12						; size = 4
_VirtualID$ = 8						; size = 4
_c_szChat$ = 12						; size = 4
?RegisterChatTail@CPythonTextTail@@QAEXKPBD@Z PROC	; CPythonTextTail::RegisterChatTail, COMDAT
; _this$ = ecx

; 805  : {

  00000	55		 push	 ebp
  00001	8b ec		 mov	 ebp, esp
  00003	83 e4 f8	 and	 esp, -8			; fffffff8H
  00006	83 ec 1c	 sub	 esp, 28			; 0000001cH
  00009	53		 push	 ebx
  0000a	56		 push	 esi
  0000b	8b f1		 mov	 esi, ecx
; File C:\Anka2Project\Anka2Project\Source\Binary\source\eterBase\Singleton.h

; 26   : 		assert(ms_singleton);

  0000d	8b 0d 00 00 00
	00		 mov	 ecx, DWORD PTR ?ms_singleton@?$CSingleton@VCPythonCharacterManager@@@@0PAVCPythonCharacterManager@@A ; CSingleton<CPythonCharacterManager>::ms_singleton
; File C:\Anka2Project\Anka2Project\Source\Binary\source\UserInterface\PythonTextTail.cpp

; 805  : {

  00013	89 74 24 0c	 mov	 DWORD PTR _this$1$[esp+36], esi
  00017	57		 push	 edi
; File C:\Anka2Project\Anka2Project\Source\Binary\source\eterBase\Singleton.h

; 26   : 		assert(ms_singleton);

  00018	85 c9		 test	 ecx, ecx
  0001a	75 1a		 jne	 SHORT $LN8@RegisterCh
  0001c	6a 1a		 push	 26			; 0000001aH
  0001e	68 00 00 00 00	 push	 OFFSET ??_C@_1IO@CAJLEEOI@?$AAC?$AA?3?$AA?2?$AAA?$AAn?$AAk?$AAa?$AA2?$AAP?$AAr?$AAo?$AAj?$AAe?$AAc?$AAt@
  00023	68 00 00 00 00	 push	 OFFSET ??_C@_1BK@FMEHPMFE@?$AAm?$AAs?$AA_?$AAs?$AAi?$AAn?$AAg?$AAl?$AAe?$AAt?$AAo?$AAn@
  00028	e8 00 00 00 00	 call	 __wassert
  0002d	8b 0d 00 00 00
	00		 mov	 ecx, DWORD PTR ?ms_singleton@?$CSingleton@VCPythonCharacterManager@@@@0PAVCPythonCharacterManager@@A ; CSingleton<CPythonCharacterManager>::ms_singleton
  00033	83 c4 0c	 add	 esp, 12			; 0000000cH
$LN8@RegisterCh:
; File C:\Anka2Project\Anka2Project\Source\Binary\source\UserInterface\PythonTextTail.cpp

; 806  : 	CInstanceBase* pCharacterInstance = CPythonCharacterManager::Instance().GetInstancePtr(VirtualID);

  00036	8b 41 04	 mov	 eax, DWORD PTR [ecx+4]
  00039	83 c1 04	 add	 ecx, 4
  0003c	8b 5d 08	 mov	 ebx, DWORD PTR _VirtualID$[ebp]
  0003f	53		 push	 ebx
  00040	ff 50 08	 call	 DWORD PTR [eax+8]
  00043	89 44 24 14	 mov	 DWORD PTR _pCharacterInstance$1$[esp+40], eax

; 807  : 
; 808  : 	if (!pCharacterInstance)

  00047	85 c0		 test	 eax, eax
  00049	0f 84 49 01 00
	00		 je	 $LN1@RegisterCh
; File C:\Program Files\Microsoft Visual Studio\2022\Community\VC\Tools\MSVC\14.44.35207\include\xtree

; 1384 :         const _Tree_find_result<_Nodeptr> _Loc = _Find_lower_bound(_Keyval);

  0004f	8d 45 08	 lea	 eax, DWORD PTR _VirtualID$[ebp]
  00052	50		 push	 eax
  00053	8d 44 24 20	 lea	 eax, DWORD PTR __Loc$45[esp+44]
; File C:\Anka2Project\Anka2Project\Source\Binary\source\UserInterface\PythonTextTail.cpp

; 811  : 	TChatTailMap::iterator itor = m_ChatTailMap.find(VirtualID);

  00057	8d 7e 14	 lea	 edi, DWORD PTR [esi+20]
; File C:\Program Files\Microsoft Visual Studio\2022\Community\VC\Tools\MSVC\14.44.35207\include\xtree

; 1384 :         const _Tree_find_result<_Nodeptr> _Loc = _Find_lower_bound(_Keyval);

  0005a	50		 push	 eax
  0005b	8b cf		 mov	 ecx, edi
  0005d	e8 00 00 00 00	 call	 ??$_Find_lower_bound@K@?$_Tree@V?$_Tmap_traits@KPAUSTextTail@CPythonTextTail@@U?$less@K@std@@V?$allocator@U?$pair@$$CBKPAUSTextTail@CPythonTextTail@@@std@@@4@$0A@@std@@@std@@IBE?AU?$_Tree_find_result@PAU?$_Tree_node@U?$pair@$$CBKPAUSTextTail@CPythonTextTail@@@std@@PAX@std@@@1@ABK@Z ; std::_Tree<std::_Tmap_traits<unsigned long,CPythonTextTail::STextTail *,std::less<unsigned long>,std::allocator<std::pair<unsigned long const ,CPythonTextTail::STextTail *> >,0> >::_Find_lower_bound<unsigned long>

; 1624 :         return !_Bound->_Isnil && !_DEBUG_LT_PRED(_Getcomp(), _Keyval, _Traits::_Kfn(_Bound->_Myval));

  00062	8b 74 24 24	 mov	 esi, DWORD PTR __Loc$45[esp+48]
  00066	80 7e 0d 00	 cmp	 BYTE PTR [esi+13], 0
  0006a	75 28		 jne	 SHORT $LN95@RegisterCh
; File C:\Program Files\Microsoft Visual Studio\2022\Community\VC\Tools\MSVC\14.44.35207\include\type_traits

; 2380 :         return _Left < _Right;

  0006c	3b 5e 10	 cmp	 ebx, DWORD PTR [esi+16]
; File C:\Program Files\Microsoft Visual Studio\2022\Community\VC\Tools\MSVC\14.44.35207\include\xtree

; 1624 :         return !_Bound->_Isnil && !_DEBUG_LT_PRED(_Getcomp(), _Keyval, _Traits::_Kfn(_Bound->_Myval));

  0006f	72 23		 jb	 SHORT $LN95@RegisterCh

; 37   :     _Tree_unchecked_const_iterator(_Nodeptr _Pnode, const _Mytree* _Plist) noexcept : _Ptr(_Pnode) {

  00071	39 37		 cmp	 DWORD PTR [edi], esi
; File C:\Anka2Project\Anka2Project\Source\Binary\source\UserInterface\PythonTextTail.cpp

; 813  : 	if (m_ChatTailMap.end() != itor)

  00073	74 1f		 je	 SHORT $LN95@RegisterCh

; 814  : 	{
; 815  : 		TTextTail* pTextTail = itor->second;
; 816  : 
; 817  : #ifdef ENABLE_EMOTICONS_SYSTEM
; 818  : 		DeleteTextTail (pTextTail);

  00075	ff 76 14	 push	 DWORD PTR [esi+20]
  00078	8b 4c 24 14	 mov	 ecx, DWORD PTR _this$1$[esp+44]
  0007c	e8 00 00 00 00	 call	 ?DeleteTextTail@CPythonTextTail@@IAEXPAUSTextTail@1@@Z ; CPythonTextTail::DeleteTextTail
; File C:\Program Files\Microsoft Visual Studio\2022\Community\VC\Tools\MSVC\14.44.35207\include\xtree

; 1303 :         _Nodeptr _Erasednode = _Scary->_Extract(_Where); // node to erase

  00081	56		 push	 esi
  00082	8b cf		 mov	 ecx, edi
  00084	e8 00 00 00 00	 call	 ?_Extract@?$_Tree_val@U?$_Tree_simple_types@U?$pair@$$CBKPAUSTextTail@CPythonTextTail@@@std@@@std@@@std@@QAEPAU?$_Tree_node@U?$pair@$$CBKPAUSTextTail@CPythonTextTail@@@std@@PAX@2@V?$_Tree_unchecked_const_iterator@V?$_Tree_val@U?$_Tree_simple_types@U?$pair@$$CBKPAUSTextTail@CPythonTextTail@@@std@@@std@@@std@@U_Iterator_base0@2@@2@@Z ; std::_Tree_val<std::_Tree_simple_types<std::pair<unsigned long const ,CPythonTextTail::STextTail *> > >::_Extract
; File C:\Program Files\Microsoft Visual Studio\2022\Community\VC\Tools\MSVC\14.44.35207\include\xmemory

; 289  :         ::operator delete(_Ptr, _Bytes);

  00089	6a 18		 push	 24			; 00000018H
  0008b	50		 push	 eax
  0008c	e8 00 00 00 00	 call	 ??3@YAXPAXI@Z		; operator delete
  00091	83 c4 08	 add	 esp, 8
$LN95@RegisterCh:
; File C:\Anka2Project\Anka2Project\Source\Binary\source\UserInterface\PythonTextTail.cpp

; 831  : 	TTextTail* pTextTail = RegisterTextTail(VirtualID,

  00094	8b 74 24 14	 mov	 esi, DWORD PTR _pCharacterInstance$1$[esp+40]
  00098	8b ce		 mov	 ecx, esi
  0009a	e8 00 00 00 00	 call	 ?GetGraphicThingInstanceRef@CInstanceBase@@QAEAAVCActorInstance@@XZ ; CInstanceBase::GetGraphicThingInstanceRef
  0009f	8b c8		 mov	 ecx, eax
  000a1	e8 00 00 00 00	 call	 ?GetHeight@CActorInstance@@QAEMXZ ; CActorInstance::GetHeight
  000a6	8b ce		 mov	 ecx, esi
  000a8	d9 5c 24 1c	 fstp	 DWORD PTR tv904[esp+40]
  000ac	e8 00 00 00 00	 call	 ?GetBaseHeight@CInstanceBase@@QAEMXZ ; CInstanceBase::GetBaseHeight
  000b1	f3 0f 11 44 24
	14		 movss	 DWORD PTR tv945[esp+40], xmm0
  000b7	8b ce		 mov	 ecx, esi
  000b9	d9 44 24 14	 fld	 DWORD PTR tv945[esp+40]
  000bd	d8 44 24 1c	 fadd	 DWORD PTR tv904[esp+40]
  000c1	d8 05 00 00 00
	00		 fadd	 DWORD PTR __real@41200000
  000c7	d9 5c 24 1c	 fstp	 DWORD PTR tv201[esp+40]
  000cb	e8 00 00 00 00	 call	 ?GetGraphicThingInstancePtr@CInstanceBase@@QAEPAVCActorInstance@@XZ ; CInstanceBase::GetGraphicThingInstancePtr
  000d0	83 ec 18	 sub	 esp, 24			; 00000018H
  000d3	0f 57 c0	 xorps	 xmm0, xmm0
  000d6	8b cc		 mov	 ecx, esp
  000d8	8b d0		 mov	 edx, eax
  000da	68 00 00 00 00	 push	 OFFSET ?c_TextTail_Chat_Color@@3UD3DXCOLOR@@B
; File C:\Program Files\Microsoft Visual Studio\2022\Community\VC\Tools\MSVC\14.44.35207\include\xstring

; 493  :         _CONSTEXPR20 _Bxty() noexcept : _Buf() {} // user-provided, for fancy pointers

  000df	0f 11 01	 movups	 XMMWORD PTR [ecx], xmm0

; 890  :             _My_data._Mysize = _Count;

  000e2	c7 41 10 0d 00
	00 00		 mov	 DWORD PTR [ecx+16], 13	; 0000000dH

; 891  :             _My_data._Myres  = _Small_string_capacity;

  000e9	c7 41 14 0f 00
	00 00		 mov	 DWORD PTR [ecx+20], 15	; 0000000fH
; File C:\Program Files\Microsoft Visual Studio\2022\Community\VC\Tools\MSVC\14.44.35207\include\__msvc_string_view.hpp

; 121  :         _CSTD memcpy(_First1, _First2, _Count * sizeof(_Elem));

  000f0	f3 0f 7e 05 00
	00 00 00	 movq	 xmm0, QWORD PTR ??_C@_0O@HLPIIHNN@Tahoma?312?4fnt@
  000f8	66 0f d6 01	 movq	 QWORD PTR [ecx], xmm0
  000fc	a1 08 00 00 00	 mov	 eax, DWORD PTR ??_C@_0O@HLPIIHNN@Tahoma?312?4fnt@+8
; File C:\Anka2Project\Anka2Project\Source\Binary\source\UserInterface\PythonTextTail.cpp

; 831  : 	TTextTail* pTextTail = RegisterTextTail(VirtualID,

  00101	f3 0f 10 44 24
	38		 movss	 xmm0, DWORD PTR tv201[esp+68]
  00107	51		 push	 ecx
; File C:\Program Files\Microsoft Visual Studio\2022\Community\VC\Tools\MSVC\14.44.35207\include\__msvc_string_view.hpp

; 121  :         _CSTD memcpy(_First1, _First2, _Count * sizeof(_Elem));

  00108	89 41 08	 mov	 DWORD PTR [ecx+8], eax
  0010b	a0 0c 00 00 00	 mov	 al, BYTE PTR ??_C@_0O@HLPIIHNN@Tahoma?312?4fnt@+12
; File C:\Anka2Project\Anka2Project\Source\Binary\source\UserInterface\PythonTextTail.cpp

; 831  : 	TTextTail* pTextTail = RegisterTextTail(VirtualID,

  00110	f3 0f 11 04 24	 movss	 DWORD PTR [esp], xmm0
  00115	52		 push	 edx
  00116	ff 75 0c	 push	 DWORD PTR _c_szChat$[ebp]
; File C:\Program Files\Microsoft Visual Studio\2022\Community\VC\Tools\MSVC\14.44.35207\include\__msvc_string_view.hpp

; 121  :         _CSTD memcpy(_First1, _First2, _Count * sizeof(_Elem));

  00119	88 41 0c	 mov	 BYTE PTR [ecx+12], al
; File C:\Program Files\Microsoft Visual Studio\2022\Community\VC\Tools\MSVC\14.44.35207\include\xstring

; 898  :                 _Traits::assign(_My_data._Bx._Buf[_Count], _Elem());

  0011c	c6 41 0d 00	 mov	 BYTE PTR [ecx+13], 0
; File C:\Anka2Project\Anka2Project\Source\Binary\source\UserInterface\PythonTextTail.cpp

; 831  : 	TTextTail* pTextTail = RegisterTextTail(VirtualID,

  00120	8b 4c 24 38	 mov	 ecx, DWORD PTR _this$1$[esp+80]
  00124	53		 push	 ebx
  00125	e8 00 00 00 00	 call	 ?RegisterTextTail@CPythonTextTail@@IAEPAUSTextTail@1@KPBDPAVCGraphicObjectInstance@@MABUD3DXCOLOR@@V?$basic_string@DU?$char_traits@D@std@@V?$allocator@D@2@@std@@@Z ; CPythonTextTail::RegisterTextTail
; File C:\Anka2Project\Anka2Project\Source\Binary\source\eterBase\Singleton.h

; 26   : 		assert(ms_singleton);

  0012a	8b 0d 00 00 00
	00		 mov	 ecx, DWORD PTR ?ms_singleton@?$CSingleton@VCTimer@@@@0PAVCTimer@@A ; CSingleton<CTimer>::ms_singleton
; File C:\Anka2Project\Anka2Project\Source\Binary\source\UserInterface\PythonTextTail.cpp

; 831  : 	TTextTail* pTextTail = RegisterTextTail(VirtualID,

  00130	8b d8		 mov	 ebx, eax
; File C:\Anka2Project\Anka2Project\Source\Binary\source\eterBase\Singleton.h

; 26   : 		assert(ms_singleton);

  00132	85 c9		 test	 ecx, ecx
  00134	75 1a		 jne	 SHORT $LN188@RegisterCh
  00136	6a 1a		 push	 26			; 0000001aH
  00138	68 00 00 00 00	 push	 OFFSET ??_C@_1IO@CAJLEEOI@?$AAC?$AA?3?$AA?2?$AAA?$AAn?$AAk?$AAa?$AA2?$AAP?$AAr?$AAo?$AAj?$AAe?$AAc?$AAt@
  0013d	68 00 00 00 00	 push	 OFFSET ??_C@_1BK@FMEHPMFE@?$AAm?$AAs?$AA_?$AAs?$AAi?$AAn?$AAg?$AAl?$AAe?$AAt?$AAo?$AAn@
  00142	e8 00 00 00 00	 call	 __wassert
  00147	8b 0d 00 00 00
	00		 mov	 ecx, DWORD PTR ?ms_singleton@?$CSingleton@VCTimer@@@@0PAVCTimer@@A ; CSingleton<CTimer>::ms_singleton
  0014d	83 c4 0c	 add	 esp, 12			; 0000000cH
$LN188@RegisterCh:
; File C:\Anka2Project\Anka2Project\Source\Binary\source\UserInterface\PythonTextTail.cpp

; 841  : 	pTextTail->LivingTime = CTimer::Instance().GetCurrentMillisecond() + TextTail_GetLivingTime();

  00150	e8 00 00 00 00	 call	 ?GetCurrentMillisecond@CTimer@@QAEKXZ ; CTimer::GetCurrentMillisecond
  00155	8b f0		 mov	 esi, eax
  00157	e8 00 00 00 00	 call	 ?TextTail_GetLivingTime@@YAJXZ ; TextTail_GetLivingTime

; 842  : 
; 843  : 	pTextTail->bNameFlag = TRUE;
; 844  : 	pTextTail->pTextInstance->SetOutline(true);

  0015c	8b 4b 04	 mov	 ecx, DWORD PTR [ebx+4]
  0015f	03 f0		 add	 esi, eax
  00161	6a 01		 push	 1
  00163	89 73 68	 mov	 DWORD PTR [ebx+104], esi
  00166	c7 43 54 01 00
	00 00		 mov	 DWORD PTR [ebx+84], 1
  0016d	e8 00 00 00 00	 call	 ?SetOutline@CGraphicTextInstance@@QAEX_N@Z ; CGraphicTextInstance::SetOutline

; 845  : 	pTextTail->pTextInstance->SetVerticalAlign(CGraphicTextInstance::VERTICAL_ALIGN_BOTTOM);

  00172	8b 4b 04	 mov	 ecx, DWORD PTR [ebx+4]
  00175	6a 30		 push	 48			; 00000030H
  00177	e8 00 00 00 00	 call	 ?SetVerticalAlign@CGraphicTextInstance@@QAEXH@Z ; CGraphicTextInstance::SetVerticalAlign
; File C:\Program Files\Microsoft Visual Studio\2022\Community\VC\Tools\MSVC\14.44.35207\include\utility

; 274  :         : first(_STD forward<_Other1>(_Val1)), second(_STD forward<_Other2>(_Val2)) {

  0017c	8b 45 08	 mov	 eax, DWORD PTR _VirtualID$[ebp]
; File C:\Anka2Project\Anka2Project\Source\Binary\source\UserInterface\PythonTextTail.cpp

; 846  : 	m_ChatTailMap.insert(TTextTailMap::value_type(VirtualID, pTextTail));

  0017f	8b cf		 mov	 ecx, edi
; File C:\Program Files\Microsoft Visual Studio\2022\Community\VC\Tools\MSVC\14.44.35207\include\utility

; 274  :         : first(_STD forward<_Other1>(_Val1)), second(_STD forward<_Other2>(_Val2)) {

  00181	89 44 24 1c	 mov	 DWORD PTR $T42[esp+40], eax
; File C:\Anka2Project\Anka2Project\Source\Binary\source\UserInterface\PythonTextTail.cpp

; 846  : 	m_ChatTailMap.insert(TTextTailMap::value_type(VirtualID, pTextTail));

  00185	8d 44 24 1c	 lea	 eax, DWORD PTR $T42[esp+40]
  00189	50		 push	 eax
  0018a	8d 44 24 18	 lea	 eax, DWORD PTR $T44[esp+44]
; File C:\Program Files\Microsoft Visual Studio\2022\Community\VC\Tools\MSVC\14.44.35207\include\utility

; 274  :         : first(_STD forward<_Other1>(_Val1)), second(_STD forward<_Other2>(_Val2)) {

  0018e	89 5c 24 24	 mov	 DWORD PTR $T42[esp+48], ebx
; File C:\Anka2Project\Anka2Project\Source\Binary\source\UserInterface\PythonTextTail.cpp

; 846  : 	m_ChatTailMap.insert(TTextTailMap::value_type(VirtualID, pTextTail));

  00192	50		 push	 eax
  00193	e8 00 00 00 00	 call	 ??$insert@$0A@$0A@@?$_Tree@V?$_Tmap_traits@KPAUSTextTail@CPythonTextTail@@U?$less@K@std@@V?$allocator@U?$pair@$$CBKPAUSTextTail@CPythonTextTail@@@std@@@4@$0A@@std@@@std@@QAE?AU?$pair@V?$_Tree_iterator@V?$_Tree_val@U?$_Tree_simple_types@U?$pair@$$CBKPAUSTextTail@CPythonTextTail@@@std@@@std@@@std@@@std@@_N@1@$$QAU?$pair@$$CBKPAUSTextTail@CPythonTextTail@@@1@@Z ; std::_Tree<std::_Tmap_traits<unsigned long,CPythonTextTail::STextTail *,std::less<unsigned long>,std::allocator<std::pair<unsigned long const ,CPythonTextTail::STextTail *> >,0> >::insert<0,0>
$LN1@RegisterCh:

; 847  : }

  00198	5f		 pop	 edi
  00199	5e		 pop	 esi
  0019a	5b		 pop	 ebx
  0019b	8b e5		 mov	 esp, ebp
  0019d	5d		 pop	 ebp
  0019e	c2 08 00	 ret	 8
?RegisterChatTail@CPythonTextTail@@QAEXKPBD@Z ENDP	; CPythonTextTail::RegisterChatTail
_TEXT	ENDS
; Function compile flags: /Ogtp
; File C:\Anka2Project\Anka2Project\Source\Binary\source\UserInterface\PythonPlayerSettingsModule.h
; File C:\Program Files\Microsoft Visual Studio\2022\Community\VC\Tools\MSVC\14.44.35207\include\xmemory
; File C:\Program Files\Microsoft Visual Studio\2022\Community\VC\Tools\MSVC\14.44.35207\include\__msvc_string_view.hpp
; File C:\Program Files\Microsoft Visual Studio\2022\Community\VC\Tools\MSVC\14.44.35207\include\xstring
; File C:\Program Files\Microsoft Visual Studio\2022\Community\VC\Tools\MSVC\14.44.35207\include\__msvc_string_view.hpp
; File C:\Program Files\Microsoft Visual Studio\2022\Community\VC\Tools\MSVC\14.44.35207\include\xstring
; File C:\Anka2Project\Anka2Project\Source\Binary\source\UserInterface\PythonPlayerSettingsModule.h
; File C:\Program Files\Microsoft Visual Studio\2022\Community\VC\Tools\MSVC\14.44.35207\include\xmemory
; File C:\Program Files\Microsoft Visual Studio\2022\Community\VC\Tools\MSVC\14.44.35207\include\utility
; File C:\Program Files\Microsoft Visual Studio\2022\Community\VC\Tools\MSVC\14.44.35207\include\xstring
; File C:\Program Files\Microsoft Visual Studio\2022\Community\VC\Tools\MSVC\14.44.35207\include\xmemory
; File C:\Program Files\Microsoft Visual Studio\2022\Community\VC\Tools\MSVC\14.44.35207\include\__msvc_string_view.hpp
; File C:\Program Files\Microsoft Visual Studio\2022\Community\VC\Tools\MSVC\14.44.35207\include\xmemory
; File C:\Program Files\Microsoft Visual Studio\2022\Community\VC\Tools\MSVC\14.44.35207\include\xstring
; File C:\Program Files\Microsoft Visual Studio\2022\Community\VC\Tools\MSVC\14.44.35207\include\__msvc_string_view.hpp
; File C:\Program Files\Microsoft Visual Studio\2022\Community\VC\Tools\MSVC\14.44.35207\include\xstring
; File C:\Anka2Project\Anka2Project\Source\Binary\source\UserInterface\PythonPlayerSettingsModule.h
; File C:\Program Files\Microsoft Visual Studio\2022\Community\VC\Tools\MSVC\14.44.35207\include\xmemory
; File C:\Program Files\Microsoft Visual Studio\2022\Community\VC\Tools\MSVC\14.44.35207\include\utility
; File C:\Program Files\Microsoft Visual Studio\2022\Community\VC\Tools\MSVC\14.44.35207\include\xstring
; File C:\Program Files\Microsoft Visual Studio\2022\Community\VC\Tools\MSVC\14.44.35207\include\xmemory
; File C:\Program Files\Microsoft Visual Studio\2022\Community\VC\Tools\MSVC\14.44.35207\include\__msvc_string_view.hpp
; File C:\Program Files\Microsoft Visual Studio\2022\Community\VC\Tools\MSVC\14.44.35207\include\xmemory
; File C:\Program Files\Microsoft Visual Studio\2022\Community\VC\Tools\MSVC\14.44.35207\include\xstring
; File C:\Program Files\Microsoft Visual Studio\2022\Community\VC\Tools\MSVC\14.44.35207\include\__msvc_string_view.hpp
; File C:\Program Files\Microsoft Visual Studio\2022\Community\VC\Tools\MSVC\14.44.35207\include\xstring
; File C:\Anka2Project\Anka2Project\Source\Binary\source\UserInterface\PythonPlayerSettingsModule.h
; File C:\Program Files\Microsoft Visual Studio\2022\Community\VC\Tools\MSVC\14.44.35207\include\xmemory
; File C:\Program Files\Microsoft Visual Studio\2022\Community\VC\Tools\MSVC\14.44.35207\include\utility
; File C:\Program Files\Microsoft Visual Studio\2022\Community\VC\Tools\MSVC\14.44.35207\include\xstring
; File C:\Program Files\Microsoft Visual Studio\2022\Community\VC\Tools\MSVC\14.44.35207\include\xmemory
; File C:\Program Files\Microsoft Visual Studio\2022\Community\VC\Tools\MSVC\14.44.35207\include\__msvc_string_view.hpp
; File C:\Program Files\Microsoft Visual Studio\2022\Community\VC\Tools\MSVC\14.44.35207\include\xstring
; File C:\Program Files\Microsoft Visual Studio\2022\Community\VC\Tools\MSVC\14.44.35207\include\__msvc_string_view.hpp
; File C:\Program Files\Microsoft Visual Studio\2022\Community\VC\Tools\MSVC\14.44.35207\include\xstring
; File C:\Anka2Project\Anka2Project\Source\Binary\source\UserInterface\PythonPlayerSettingsModule.h
; File C:\Program Files\Microsoft Visual Studio\2022\Community\VC\Tools\MSVC\14.44.35207\include\utility
; File C:\Program Files\Microsoft Visual Studio\2022\Community\VC\Tools\MSVC\14.44.35207\include\xstring
; File C:\Program Files\Microsoft Visual Studio\2022\Community\VC\Tools\MSVC\14.44.35207\include\xmemory
; File C:\Program Files\Microsoft Visual Studio\2022\Community\VC\Tools\MSVC\14.44.35207\include\__msvc_string_view.hpp
; File C:\Program Files\Microsoft Visual Studio\2022\Community\VC\Tools\MSVC\14.44.35207\include\xmemory
; File C:\Program Files\Microsoft Visual Studio\2022\Community\VC\Tools\MSVC\14.44.35207\include\xstring
; File C:\Program Files\Microsoft Visual Studio\2022\Community\VC\Tools\MSVC\14.44.35207\include\__msvc_string_view.hpp
; File C:\Program Files\Microsoft Visual Studio\2022\Community\VC\Tools\MSVC\14.44.35207\include\xstring
; File C:\Anka2Project\Anka2Project\Source\Binary\source\UserInterface\PythonPlayerSettingsModule.h
; File C:\Program Files\Microsoft Visual Studio\2022\Community\VC\Tools\MSVC\14.44.35207\include\xmemory
; File C:\Program Files\Microsoft Visual Studio\2022\Community\VC\Tools\MSVC\14.44.35207\include\utility
; File C:\Program Files\Microsoft Visual Studio\2022\Community\VC\Tools\MSVC\14.44.35207\include\xstring
; File C:\Program Files\Microsoft Visual Studio\2022\Community\VC\Tools\MSVC\14.44.35207\include\xmemory
; File C:\Program Files\Microsoft Visual Studio\2022\Community\VC\Tools\MSVC\14.44.35207\include\__msvc_string_view.hpp
; File C:\Program Files\Microsoft Visual Studio\2022\Community\VC\Tools\MSVC\14.44.35207\include\xmemory
; File C:\Program Files\Microsoft Visual Studio\2022\Community\VC\Tools\MSVC\14.44.35207\include\xstring
; File C:\Program Files\Microsoft Visual Studio\2022\Community\VC\Tools\MSVC\14.44.35207\include\__msvc_string_view.hpp
; File C:\Program Files\Microsoft Visual Studio\2022\Community\VC\Tools\MSVC\14.44.35207\include\xstring
; File C:\Anka2Project\Anka2Project\Source\Binary\source\UserInterface\PythonPlayerSettingsModule.h
; File C:\Program Files\Microsoft Visual Studio\2022\Community\VC\Tools\MSVC\14.44.35207\include\xmemory
; File C:\Program Files\Microsoft Visual Studio\2022\Community\VC\Tools\MSVC\14.44.35207\include\utility
; File C:\Program Files\Microsoft Visual Studio\2022\Community\VC\Tools\MSVC\14.44.35207\include\xstring
; File C:\Program Files\Microsoft Visual Studio\2022\Community\VC\Tools\MSVC\14.44.35207\include\xmemory
; File C:\Program Files\Microsoft Visual Studio\2022\Community\VC\Tools\MSVC\14.44.35207\include\__msvc_string_view.hpp
; File C:\Program Files\Microsoft Visual Studio\2022\Community\VC\Tools\MSVC\14.44.35207\include\xstring
; File C:\Program Files\Microsoft Visual Studio\2022\Community\VC\Tools\MSVC\14.44.35207\include\__msvc_string_view.hpp
; File C:\Anka2Project\Anka2Project\Source\Binary\source\UserInterface\PythonPlayerSettingsModule.h
; File C:\Program Files\Microsoft Visual Studio\2022\Community\VC\Tools\MSVC\14.44.35207\include\__msvc_string_view.hpp
; File C:\Program Files\Microsoft Visual Studio\2022\Community\VC\Tools\MSVC\14.44.35207\include\xstring
; File C:\Anka2Project\Anka2Project\Source\Binary\source\UserInterface\PythonPlayerSettingsModule.h
;	COMDAT ??__EvecUseSoundFileName@@YAXXZ
text$di	SEGMENT
__$EHRec$ = -12						; size = 12
??__EvecUseSoundFileName@@YAXXZ PROC			; `dynamic initializer for 'vecUseSoundFileName'', COMDAT

; 142  : } };

  00000	55		 push	 ebp
  00001	8b ec		 mov	 ebp, esp
  00003	6a ff		 push	 -1
  00005	68 00 00 00 00	 push	 __ehhandler$??__EvecUseSoundFileName@@YAXXZ
  0000a	64 a1 00 00 00
	00		 mov	 eax, DWORD PTR fs:0
  00010	50		 push	 eax
  00011	a1 00 00 00 00	 mov	 eax, DWORD PTR ___security_cookie
  00016	33 c5		 xor	 eax, ebp
  00018	50		 push	 eax
  00019	8d 45 f4	 lea	 eax, DWORD PTR __$EHRec$[ebp]
  0001c	64 a3 00 00 00
	00		 mov	 DWORD PTR fs:0, eax
; File C:\Program Files\Microsoft Visual Studio\2022\Community\VC\Tools\MSVC\14.44.35207\include\xmemory

; 136  :         return ::operator new(_Bytes);

  00022	6a 20		 push	 32			; 00000020H
  00024	e8 00 00 00 00	 call	 ??2@YAPAXI@Z		; operator new
; File C:\Program Files\Microsoft Visual Studio\2022\Community\VC\Tools\MSVC\14.44.35207\include\__msvc_string_view.hpp

; 121  :         _CSTD memcpy(_First1, _First2, _Count * sizeof(_Elem));

  00029	0f 10 05 00 00
	00 00		 movups	 xmm0, XMMWORD PTR ??_C@_0BC@NAJLHID@sound?1ui?1drop?4wav@
; File C:\Program Files\Microsoft Visual Studio\2022\Community\VC\Tools\MSVC\14.44.35207\include\xstring

; 913  :         _Construct_in_place(_My_data._Bx._Ptr, _New_ptr);

  00030	a3 04 00 00 00	 mov	 DWORD PTR ?vecUseSoundFileName@@3V?$array@U?$pair@KV?$basic_string@DU?$char_traits@D@std@@V?$allocator@D@2@@std@@@std@@$06@std@@B+4, eax

; 915  :         _My_data._Mysize = _Count;

  00035	c7 05 14 00 00
	00 11 00 00 00	 mov	 DWORD PTR ?vecUseSoundFileName@@3V?$array@U?$pair@KV?$basic_string@DU?$char_traits@D@std@@V?$allocator@D@2@@std@@@std@@$06@std@@B+20, 17 ; 00000011H

; 916  :         _My_data._Myres  = _New_capacity;

  0003f	c7 05 18 00 00
	00 1f 00 00 00	 mov	 DWORD PTR ?vecUseSoundFileName@@3V?$array@U?$pair@KV?$basic_string@DU?$char_traits@D@std@@V?$allocator@D@2@@std@@@std@@$06@std@@B+24, 31 ; 0000001fH
; File C:\Program Files\Microsoft Visual Studio\2022\Community\VC\Tools\MSVC\14.44.35207\include\__msvc_string_view.hpp

; 121  :         _CSTD memcpy(_First1, _First2, _Count * sizeof(_Elem));

  00049	0f 11 00	 movups	 XMMWORD PTR [eax], xmm0
  0004c	0f b6 0d 10 00
	00 00		 movzx	 ecx, BYTE PTR ??_C@_0BC@NAJLHID@sound?1ui?1drop?4wav@+16
  00053	88 48 10	 mov	 BYTE PTR [eax+16], cl
; File C:\Program Files\Microsoft Visual Studio\2022\Community\VC\Tools\MSVC\14.44.35207\include\xstring

; 922  :             _Traits::assign(_Unfancy(_New_ptr)[_Count], _Elem());

  00056	c6 40 11 00	 mov	 BYTE PTR [eax+17], 0
; File C:\Anka2Project\Anka2Project\Source\Binary\source\UserInterface\PythonPlayerSettingsModule.h

; 135  : 	{CPythonItem::USESOUND_DEFAULT, "sound/ui/drop.wav"},

  0005a	c7 45 fc 00 00
	00 00		 mov	 DWORD PTR __$EHRec$[ebp+8], 0
  00061	0f 57 c0	 xorps	 xmm0, xmm0
; File C:\Program Files\Microsoft Visual Studio\2022\Community\VC\Tools\MSVC\14.44.35207\include\xmemory

; 136  :         return ::operator new(_Bytes);

  00064	6a 20		 push	 32			; 00000020H
; File C:\Program Files\Microsoft Visual Studio\2022\Community\VC\Tools\MSVC\14.44.35207\include\utility

; 274  :         : first(_STD forward<_Other1>(_Val1)), second(_STD forward<_Other2>(_Val2)) {

  00066	c7 05 1c 00 00
	00 05 00 00 00	 mov	 DWORD PTR ?vecUseSoundFileName@@3V?$array@U?$pair@KV?$basic_string@DU?$char_traits@D@std@@V?$allocator@D@2@@std@@@std@@$06@std@@B+28, 5
; File C:\Program Files\Microsoft Visual Studio\2022\Community\VC\Tools\MSVC\14.44.35207\include\xstring

; 493  :         _CONSTEXPR20 _Bxty() noexcept : _Buf() {} // user-provided, for fancy pointers

  00070	0f 11 05 20 00
	00 00		 movups	 XMMWORD PTR ?vecUseSoundFileName@@3V?$array@U?$pair@KV?$basic_string@DU?$char_traits@D@std@@V?$allocator@D@2@@std@@@std@@$06@std@@B+32, xmm0

; 517  :     size_type _Mysize = 0; // current length of string (size)

  00077	c7 05 30 00 00
	00 00 00 00 00	 mov	 DWORD PTR ?vecUseSoundFileName@@3V?$array@U?$pair@KV?$basic_string@DU?$char_traits@D@std@@V?$allocator@D@2@@std@@@std@@$06@std@@B+48, 0

; 518  :     size_type _Myres  = 0; // current storage reserved for string (capacity)

  00081	c7 05 34 00 00
	00 00 00 00 00	 mov	 DWORD PTR ?vecUseSoundFileName@@3V?$array@U?$pair@KV?$basic_string@DU?$char_traits@D@std@@V?$allocator@D@2@@std@@@std@@$06@std@@B+52, 0
; File C:\Program Files\Microsoft Visual Studio\2022\Community\VC\Tools\MSVC\14.44.35207\include\xmemory

; 136  :         return ::operator new(_Bytes);

  0008b	e8 00 00 00 00	 call	 ??2@YAPAXI@Z		; operator new
; File C:\Program Files\Microsoft Visual Studio\2022\Community\VC\Tools\MSVC\14.44.35207\include\__msvc_string_view.hpp

; 121  :         _CSTD memcpy(_First1, _First2, _Count * sizeof(_Elem));

  00090	0f 10 05 00 00
	00 00		 movups	 xmm0, XMMWORD PTR ??_C@_0BP@BMHKPOHF@sound?1ui?1equip_ring_amulet?4wav@
; File C:\Program Files\Microsoft Visual Studio\2022\Community\VC\Tools\MSVC\14.44.35207\include\xmemory

; 256  :         return _Traits::_Allocate(_Bytes);

  00097	8b d0		 mov	 edx, eax
; File C:\Program Files\Microsoft Visual Studio\2022\Community\VC\Tools\MSVC\14.44.35207\include\xstring

; 915  :         _My_data._Mysize = _Count;

  00099	c7 05 30 00 00
	00 1e 00 00 00	 mov	 DWORD PTR ?vecUseSoundFileName@@3V?$array@U?$pair@KV?$basic_string@DU?$char_traits@D@std@@V?$allocator@D@2@@std@@@std@@$06@std@@B+48, 30 ; 0000001eH
  000a3	89 15 20 00 00
	00		 mov	 DWORD PTR ?vecUseSoundFileName@@3V?$array@U?$pair@KV?$basic_string@DU?$char_traits@D@std@@V?$allocator@D@2@@std@@@std@@$06@std@@B+32, edx

; 916  :         _My_data._Myres  = _New_capacity;

  000a9	c7 05 34 00 00
	00 1f 00 00 00	 mov	 DWORD PTR ?vecUseSoundFileName@@3V?$array@U?$pair@KV?$basic_string@DU?$char_traits@D@std@@V?$allocator@D@2@@std@@@std@@$06@std@@B+52, 31 ; 0000001fH
; File C:\Program Files\Microsoft Visual Studio\2022\Community\VC\Tools\MSVC\14.44.35207\include\__msvc_string_view.hpp

; 121  :         _CSTD memcpy(_First1, _First2, _Count * sizeof(_Elem));

  000b3	0f 11 02	 movups	 XMMWORD PTR [edx], xmm0
  000b6	f3 0f 7e 05 10
	00 00 00	 movq	 xmm0, QWORD PTR ??_C@_0BP@BMHKPOHF@sound?1ui?1equip_ring_amulet?4wav@+16
  000be	66 0f d6 42 10	 movq	 QWORD PTR [edx+16], xmm0
  000c3	8b 0d 18 00 00
	00		 mov	 ecx, DWORD PTR ??_C@_0BP@BMHKPOHF@sound?1ui?1equip_ring_amulet?4wav@+24
  000c9	89 4a 18	 mov	 DWORD PTR [edx+24], ecx
  000cc	0f b7 05 1c 00
	00 00		 movzx	 eax, WORD PTR ??_C@_0BP@BMHKPOHF@sound?1ui?1equip_ring_amulet?4wav@+28
  000d3	66 89 42 1c	 mov	 WORD PTR [edx+28], ax
; File C:\Program Files\Microsoft Visual Studio\2022\Community\VC\Tools\MSVC\14.44.35207\include\xstring

; 922  :             _Traits::assign(_Unfancy(_New_ptr)[_Count], _Elem());

  000d7	c6 42 1e 00	 mov	 BYTE PTR [edx+30], 0
; File C:\Anka2Project\Anka2Project\Source\Binary\source\UserInterface\PythonPlayerSettingsModule.h

; 136  : 	{CPythonItem::USESOUND_ACCESSORY, "sound/ui/equip_ring_amulet.wav"},

  000db	c6 45 fc 01	 mov	 BYTE PTR __$EHRec$[ebp+8], 1
  000df	0f 57 c0	 xorps	 xmm0, xmm0
; File C:\Program Files\Microsoft Visual Studio\2022\Community\VC\Tools\MSVC\14.44.35207\include\xmemory

; 136  :         return ::operator new(_Bytes);

  000e2	6a 20		 push	 32			; 00000020H
; File C:\Program Files\Microsoft Visual Studio\2022\Community\VC\Tools\MSVC\14.44.35207\include\utility

; 274  :         : first(_STD forward<_Other1>(_Val1)), second(_STD forward<_Other2>(_Val2)) {

  000e4	c7 05 38 00 00
	00 02 00 00 00	 mov	 DWORD PTR ?vecUseSoundFileName@@3V?$array@U?$pair@KV?$basic_string@DU?$char_traits@D@std@@V?$allocator@D@2@@std@@@std@@$06@std@@B+56, 2
; File C:\Program Files\Microsoft Visual Studio\2022\Community\VC\Tools\MSVC\14.44.35207\include\xstring

; 493  :         _CONSTEXPR20 _Bxty() noexcept : _Buf() {} // user-provided, for fancy pointers

  000ee	0f 11 05 3c 00
	00 00		 movups	 XMMWORD PTR ?vecUseSoundFileName@@3V?$array@U?$pair@KV?$basic_string@DU?$char_traits@D@std@@V?$allocator@D@2@@std@@@std@@$06@std@@B+60, xmm0

; 517  :     size_type _Mysize = 0; // current length of string (size)

  000f5	c7 05 4c 00 00
	00 00 00 00 00	 mov	 DWORD PTR ?vecUseSoundFileName@@3V?$array@U?$pair@KV?$basic_string@DU?$char_traits@D@std@@V?$allocator@D@2@@std@@@std@@$06@std@@B+76, 0

; 518  :     size_type _Myres  = 0; // current storage reserved for string (capacity)

  000ff	c7 05 50 00 00
	00 00 00 00 00	 mov	 DWORD PTR ?vecUseSoundFileName@@3V?$array@U?$pair@KV?$basic_string@DU?$char_traits@D@std@@V?$allocator@D@2@@std@@@std@@$06@std@@B+80, 0
; File C:\Program Files\Microsoft Visual Studio\2022\Community\VC\Tools\MSVC\14.44.35207\include\xmemory

; 136  :         return ::operator new(_Bytes);

  00109	e8 00 00 00 00	 call	 ??2@YAPAXI@Z		; operator new
; File C:\Program Files\Microsoft Visual Studio\2022\Community\VC\Tools\MSVC\14.44.35207\include\__msvc_string_view.hpp

; 121  :         _CSTD memcpy(_First1, _First2, _Count * sizeof(_Elem));

  0010e	0f 10 05 00 00
	00 00		 movups	 xmm0, XMMWORD PTR ??_C@_0BP@PMFHICHL@sound?1ui?1equip_metal_armor?4wav@
; File C:\Program Files\Microsoft Visual Studio\2022\Community\VC\Tools\MSVC\14.44.35207\include\xmemory

; 256  :         return _Traits::_Allocate(_Bytes);

  00115	8b d0		 mov	 edx, eax
; File C:\Program Files\Microsoft Visual Studio\2022\Community\VC\Tools\MSVC\14.44.35207\include\xstring

; 915  :         _My_data._Mysize = _Count;

  00117	c7 05 4c 00 00
	00 1e 00 00 00	 mov	 DWORD PTR ?vecUseSoundFileName@@3V?$array@U?$pair@KV?$basic_string@DU?$char_traits@D@std@@V?$allocator@D@2@@std@@@std@@$06@std@@B+76, 30 ; 0000001eH
  00121	89 15 3c 00 00
	00		 mov	 DWORD PTR ?vecUseSoundFileName@@3V?$array@U?$pair@KV?$basic_string@DU?$char_traits@D@std@@V?$allocator@D@2@@std@@@std@@$06@std@@B+60, edx

; 916  :         _My_data._Myres  = _New_capacity;

  00127	c7 05 50 00 00
	00 1f 00 00 00	 mov	 DWORD PTR ?vecUseSoundFileName@@3V?$array@U?$pair@KV?$basic_string@DU?$char_traits@D@std@@V?$allocator@D@2@@std@@@std@@$06@std@@B+80, 31 ; 0000001fH
; File C:\Program Files\Microsoft Visual Studio\2022\Community\VC\Tools\MSVC\14.44.35207\include\__msvc_string_view.hpp

; 121  :         _CSTD memcpy(_First1, _First2, _Count * sizeof(_Elem));

  00131	0f 11 02	 movups	 XMMWORD PTR [edx], xmm0
  00134	f3 0f 7e 05 10
	00 00 00	 movq	 xmm0, QWORD PTR ??_C@_0BP@PMFHICHL@sound?1ui?1equip_metal_armor?4wav@+16
  0013c	66 0f d6 42 10	 movq	 QWORD PTR [edx+16], xmm0
  00141	8b 0d 18 00 00
	00		 mov	 ecx, DWORD PTR ??_C@_0BP@PMFHICHL@sound?1ui?1equip_metal_armor?4wav@+24
  00147	89 4a 18	 mov	 DWORD PTR [edx+24], ecx
  0014a	0f b7 05 1c 00
	00 00		 movzx	 eax, WORD PTR ??_C@_0BP@PMFHICHL@sound?1ui?1equip_metal_armor?4wav@+28
  00151	66 89 42 1c	 mov	 WORD PTR [edx+28], ax
; File C:\Program Files\Microsoft Visual Studio\2022\Community\VC\Tools\MSVC\14.44.35207\include\xstring

; 922  :             _Traits::assign(_Unfancy(_New_ptr)[_Count], _Elem());

  00155	c6 42 1e 00	 mov	 BYTE PTR [edx+30], 0
; File C:\Anka2Project\Anka2Project\Source\Binary\source\UserInterface\PythonPlayerSettingsModule.h

; 137  : 	{CPythonItem::USESOUND_ARMOR, "sound/ui/equip_metal_armor.wav"},

  00159	c6 45 fc 02	 mov	 BYTE PTR __$EHRec$[ebp+8], 2
  0015d	0f 57 c0	 xorps	 xmm0, xmm0
; File C:\Program Files\Microsoft Visual Studio\2022\Community\VC\Tools\MSVC\14.44.35207\include\xmemory

; 136  :         return ::operator new(_Bytes);

  00160	6a 20		 push	 32			; 00000020H
; File C:\Program Files\Microsoft Visual Studio\2022\Community\VC\Tools\MSVC\14.44.35207\include\utility

; 274  :         : first(_STD forward<_Other1>(_Val1)), second(_STD forward<_Other2>(_Val2)) {

  00162	c7 05 54 00 00
	00 04 00 00 00	 mov	 DWORD PTR ?vecUseSoundFileName@@3V?$array@U?$pair@KV?$basic_string@DU?$char_traits@D@std@@V?$allocator@D@2@@std@@@std@@$06@std@@B+84, 4
; File C:\Program Files\Microsoft Visual Studio\2022\Community\VC\Tools\MSVC\14.44.35207\include\xstring

; 493  :         _CONSTEXPR20 _Bxty() noexcept : _Buf() {} // user-provided, for fancy pointers

  0016c	0f 11 05 58 00
	00 00		 movups	 XMMWORD PTR ?vecUseSoundFileName@@3V?$array@U?$pair@KV?$basic_string@DU?$char_traits@D@std@@V?$allocator@D@2@@std@@@std@@$06@std@@B+88, xmm0

; 517  :     size_type _Mysize = 0; // current length of string (size)

  00173	c7 05 68 00 00
	00 00 00 00 00	 mov	 DWORD PTR ?vecUseSoundFileName@@3V?$array@U?$pair@KV?$basic_string@DU?$char_traits@D@std@@V?$allocator@D@2@@std@@@std@@$06@std@@B+104, 0

; 518  :     size_type _Myres  = 0; // current storage reserved for string (capacity)

  0017d	c7 05 6c 00 00
	00 00 00 00 00	 mov	 DWORD PTR ?vecUseSoundFileName@@3V?$array@U?$pair@KV?$basic_string@DU?$char_traits@D@std@@V?$allocator@D@2@@std@@@std@@$06@std@@B+108, 0
; File C:\Program Files\Microsoft Visual Studio\2022\Community\VC\Tools\MSVC\14.44.35207\include\xmemory

; 136  :         return ::operator new(_Bytes);

  00187	e8 00 00 00 00	 call	 ??2@YAPAXI@Z		; operator new
; File C:\Program Files\Microsoft Visual Studio\2022\Community\VC\Tools\MSVC\14.44.35207\include\__msvc_string_view.hpp

; 121  :         _CSTD memcpy(_First1, _First2, _Count * sizeof(_Elem));

  0018c	0f 10 05 00 00
	00 00		 movups	 xmm0, XMMWORD PTR ??_C@_0BH@JDLOIICI@sound?1ui?1equip_bow?4wav@
; File C:\Program Files\Microsoft Visual Studio\2022\Community\VC\Tools\MSVC\14.44.35207\include\xstring

; 913  :         _Construct_in_place(_My_data._Bx._Ptr, _New_ptr);

  00193	a3 58 00 00 00	 mov	 DWORD PTR ?vecUseSoundFileName@@3V?$array@U?$pair@KV?$basic_string@DU?$char_traits@D@std@@V?$allocator@D@2@@std@@@std@@$06@std@@B+88, eax

; 915  :         _My_data._Mysize = _Count;

  00198	c7 05 68 00 00
	00 16 00 00 00	 mov	 DWORD PTR ?vecUseSoundFileName@@3V?$array@U?$pair@KV?$basic_string@DU?$char_traits@D@std@@V?$allocator@D@2@@std@@@std@@$06@std@@B+104, 22 ; 00000016H

; 916  :         _My_data._Myres  = _New_capacity;

  001a2	c7 05 6c 00 00
	00 1f 00 00 00	 mov	 DWORD PTR ?vecUseSoundFileName@@3V?$array@U?$pair@KV?$basic_string@DU?$char_traits@D@std@@V?$allocator@D@2@@std@@@std@@$06@std@@B+108, 31 ; 0000001fH
; File C:\Program Files\Microsoft Visual Studio\2022\Community\VC\Tools\MSVC\14.44.35207\include\__msvc_string_view.hpp

; 121  :         _CSTD memcpy(_First1, _First2, _Count * sizeof(_Elem));

  001ac	0f 11 00	 movups	 XMMWORD PTR [eax], xmm0
  001af	8b 0d 10 00 00
	00		 mov	 ecx, DWORD PTR ??_C@_0BH@JDLOIICI@sound?1ui?1equip_bow?4wav@+16
  001b5	89 48 10	 mov	 DWORD PTR [eax+16], ecx
  001b8	0f b7 0d 14 00
	00 00		 movzx	 ecx, WORD PTR ??_C@_0BH@JDLOIICI@sound?1ui?1equip_bow?4wav@+20
  001bf	66 89 48 14	 mov	 WORD PTR [eax+20], cx
; File C:\Program Files\Microsoft Visual Studio\2022\Community\VC\Tools\MSVC\14.44.35207\include\xstring

; 922  :             _Traits::assign(_Unfancy(_New_ptr)[_Count], _Elem());

  001c3	c6 40 16 00	 mov	 BYTE PTR [eax+22], 0
; File C:\Anka2Project\Anka2Project\Source\Binary\source\UserInterface\PythonPlayerSettingsModule.h

; 138  : 	{CPythonItem::USESOUND_BOW, "sound/ui/equip_bow.wav"},

  001c7	c6 45 fc 03	 mov	 BYTE PTR __$EHRec$[ebp+8], 3
  001cb	0f 57 c0	 xorps	 xmm0, xmm0
; File C:\Program Files\Microsoft Visual Studio\2022\Community\VC\Tools\MSVC\14.44.35207\include\utility

; 274  :         : first(_STD forward<_Other1>(_Val1)), second(_STD forward<_Other2>(_Val2)) {

  001ce	c7 05 70 00 00
	00 03 00 00 00	 mov	 DWORD PTR ?vecUseSoundFileName@@3V?$array@U?$pair@KV?$basic_string@DU?$char_traits@D@std@@V?$allocator@D@2@@std@@@std@@$06@std@@B+112, 3
; File C:\Program Files\Microsoft Visual Studio\2022\Community\VC\Tools\MSVC\14.44.35207\include\xstring

; 493  :         _CONSTEXPR20 _Bxty() noexcept : _Buf() {} // user-provided, for fancy pointers

  001d8	0f 11 05 74 00
	00 00		 movups	 XMMWORD PTR ?vecUseSoundFileName@@3V?$array@U?$pair@KV?$basic_string@DU?$char_traits@D@std@@V?$allocator@D@2@@std@@@std@@$06@std@@B+116, xmm0

; 517  :     size_type _Mysize = 0; // current length of string (size)

  001df	c7 05 84 00 00
	00 00 00 00 00	 mov	 DWORD PTR ?vecUseSoundFileName@@3V?$array@U?$pair@KV?$basic_string@DU?$char_traits@D@std@@V?$allocator@D@2@@std@@@std@@$06@std@@B+132, 0

; 518  :     size_type _Myres  = 0; // current storage reserved for string (capacity)

  001e9	c7 05 88 00 00
	00 00 00 00 00	 mov	 DWORD PTR ?vecUseSoundFileName@@3V?$array@U?$pair@KV?$basic_string@DU?$char_traits@D@std@@V?$allocator@D@2@@std@@@std@@$06@std@@B+136, 0
; File C:\Program Files\Microsoft Visual Studio\2022\Community\VC\Tools\MSVC\14.44.35207\include\xmemory

; 136  :         return ::operator new(_Bytes);

  001f3	6a 20		 push	 32			; 00000020H
  001f5	e8 00 00 00 00	 call	 ??2@YAPAXI@Z		; operator new
; File C:\Program Files\Microsoft Visual Studio\2022\Community\VC\Tools\MSVC\14.44.35207\include\__msvc_string_view.hpp

; 121  :         _CSTD memcpy(_First1, _First2, _Count * sizeof(_Elem));

  001fa	0f 10 05 00 00
	00 00		 movups	 xmm0, XMMWORD PTR ??_C@_0CA@COJJICKC@sound?1ui?1equip_metal_weapon?4wav@
; File C:\Program Files\Microsoft Visual Studio\2022\Community\VC\Tools\MSVC\14.44.35207\include\xmemory

; 256  :         return _Traits::_Allocate(_Bytes);

  00201	8b d0		 mov	 edx, eax
; File C:\Program Files\Microsoft Visual Studio\2022\Community\VC\Tools\MSVC\14.44.35207\include\xstring

; 915  :         _My_data._Mysize = _Count;

  00203	c7 05 84 00 00
	00 1f 00 00 00	 mov	 DWORD PTR ?vecUseSoundFileName@@3V?$array@U?$pair@KV?$basic_string@DU?$char_traits@D@std@@V?$allocator@D@2@@std@@@std@@$06@std@@B+132, 31 ; 0000001fH
  0020d	89 15 74 00 00
	00		 mov	 DWORD PTR ?vecUseSoundFileName@@3V?$array@U?$pair@KV?$basic_string@DU?$char_traits@D@std@@V?$allocator@D@2@@std@@@std@@$06@std@@B+116, edx

; 916  :         _My_data._Myres  = _New_capacity;

  00213	c7 05 88 00 00
	00 1f 00 00 00	 mov	 DWORD PTR ?vecUseSoundFileName@@3V?$array@U?$pair@KV?$basic_string@DU?$char_traits@D@std@@V?$allocator@D@2@@std@@@std@@$06@std@@B+136, 31 ; 0000001fH
; File C:\Program Files\Microsoft Visual Studio\2022\Community\VC\Tools\MSVC\14.44.35207\include\__msvc_string_view.hpp

; 121  :         _CSTD memcpy(_First1, _First2, _Count * sizeof(_Elem));

  0021d	0f 11 02	 movups	 XMMWORD PTR [edx], xmm0
  00220	f3 0f 7e 05 10
	00 00 00	 movq	 xmm0, QWORD PTR ??_C@_0CA@COJJICKC@sound?1ui?1equip_metal_weapon?4wav@+16
  00228	66 0f d6 42 10	 movq	 QWORD PTR [edx+16], xmm0
  0022d	8b 0d 18 00 00
	00		 mov	 ecx, DWORD PTR ??_C@_0CA@COJJICKC@sound?1ui?1equip_metal_weapon?4wav@+24
  00233	89 4a 18	 mov	 DWORD PTR [edx+24], ecx
  00236	0f b7 05 1c 00
	00 00		 movzx	 eax, WORD PTR ??_C@_0CA@COJJICKC@sound?1ui?1equip_metal_weapon?4wav@+28
  0023d	66 89 42 1c	 mov	 WORD PTR [edx+28], ax
  00241	0f b6 05 1e 00
	00 00		 movzx	 eax, BYTE PTR ??_C@_0CA@COJJICKC@sound?1ui?1equip_metal_weapon?4wav@+30
  00248	88 42 1e	 mov	 BYTE PTR [edx+30], al
; File C:\Program Files\Microsoft Visual Studio\2022\Community\VC\Tools\MSVC\14.44.35207\include\xstring

; 922  :             _Traits::assign(_Unfancy(_New_ptr)[_Count], _Elem());

  0024b	c6 42 1f 00	 mov	 BYTE PTR [edx+31], 0
; File C:\Anka2Project\Anka2Project\Source\Binary\source\UserInterface\PythonPlayerSettingsModule.h

; 139  : 	{CPythonItem::USESOUND_WEAPON, "sound/ui/equip_metal_weapon.wav"},

  0024f	c6 45 fc 04	 mov	 BYTE PTR __$EHRec$[ebp+8], 4
  00253	0f 57 c0	 xorps	 xmm0, xmm0
; File C:\Program Files\Microsoft Visual Studio\2022\Community\VC\Tools\MSVC\14.44.35207\include\xmemory

; 136  :         return ::operator new(_Bytes);

  00256	6a 20		 push	 32			; 00000020H
; File C:\Program Files\Microsoft Visual Studio\2022\Community\VC\Tools\MSVC\14.44.35207\include\utility

; 274  :         : first(_STD forward<_Other1>(_Val1)), second(_STD forward<_Other2>(_Val2)) {

  00258	c7 05 8c 00 00
	00 06 00 00 00	 mov	 DWORD PTR ?vecUseSoundFileName@@3V?$array@U?$pair@KV?$basic_string@DU?$char_traits@D@std@@V?$allocator@D@2@@std@@@std@@$06@std@@B+140, 6
; File C:\Program Files\Microsoft Visual Studio\2022\Community\VC\Tools\MSVC\14.44.35207\include\xstring

; 493  :         _CONSTEXPR20 _Bxty() noexcept : _Buf() {} // user-provided, for fancy pointers

  00262	0f 11 05 90 00
	00 00		 movups	 XMMWORD PTR ?vecUseSoundFileName@@3V?$array@U?$pair@KV?$basic_string@DU?$char_traits@D@std@@V?$allocator@D@2@@std@@@std@@$06@std@@B+144, xmm0

; 517  :     size_type _Mysize = 0; // current length of string (size)

  00269	c7 05 a0 00 00
	00 00 00 00 00	 mov	 DWORD PTR ?vecUseSoundFileName@@3V?$array@U?$pair@KV?$basic_string@DU?$char_traits@D@std@@V?$allocator@D@2@@std@@@std@@$06@std@@B+160, 0

; 518  :     size_type _Myres  = 0; // current storage reserved for string (capacity)

  00273	c7 05 a4 00 00
	00 00 00 00 00	 mov	 DWORD PTR ?vecUseSoundFileName@@3V?$array@U?$pair@KV?$basic_string@DU?$char_traits@D@std@@V?$allocator@D@2@@std@@@std@@$06@std@@B+164, 0
; File C:\Program Files\Microsoft Visual Studio\2022\Community\VC\Tools\MSVC\14.44.35207\include\xmemory

; 136  :         return ::operator new(_Bytes);

  0027d	e8 00 00 00 00	 call	 ??2@YAPAXI@Z		; operator new
; File C:\Program Files\Microsoft Visual Studio\2022\Community\VC\Tools\MSVC\14.44.35207\include\__msvc_string_view.hpp

; 121  :         _CSTD memcpy(_First1, _First2, _Count * sizeof(_Elem));

  00282	0f 10 05 00 00
	00 00		 movups	 xmm0, XMMWORD PTR ??_C@_0BI@HPEEMGIC@sound?1ui?1eat_potion?4wav@
; File C:\Program Files\Microsoft Visual Studio\2022\Community\VC\Tools\MSVC\14.44.35207\include\xmemory

; 256  :         return _Traits::_Allocate(_Bytes);

  00289	8b d0		 mov	 edx, eax
; File C:\Program Files\Microsoft Visual Studio\2022\Community\VC\Tools\MSVC\14.44.35207\include\xstring

; 915  :         _My_data._Mysize = _Count;

  0028b	c7 05 a0 00 00
	00 17 00 00 00	 mov	 DWORD PTR ?vecUseSoundFileName@@3V?$array@U?$pair@KV?$basic_string@DU?$char_traits@D@std@@V?$allocator@D@2@@std@@@std@@$06@std@@B+160, 23 ; 00000017H
  00295	89 15 90 00 00
	00		 mov	 DWORD PTR ?vecUseSoundFileName@@3V?$array@U?$pair@KV?$basic_string@DU?$char_traits@D@std@@V?$allocator@D@2@@std@@@std@@$06@std@@B+144, edx

; 916  :         _My_data._Myres  = _New_capacity;

  0029b	c7 05 a4 00 00
	00 1f 00 00 00	 mov	 DWORD PTR ?vecUseSoundFileName@@3V?$array@U?$pair@KV?$basic_string@DU?$char_traits@D@std@@V?$allocator@D@2@@std@@@std@@$06@std@@B+164, 31 ; 0000001fH
; File C:\Program Files\Microsoft Visual Studio\2022\Community\VC\Tools\MSVC\14.44.35207\include\__msvc_string_view.hpp

; 121  :         _CSTD memcpy(_First1, _First2, _Count * sizeof(_Elem));

  002a5	0f 11 02	 movups	 XMMWORD PTR [edx], xmm0
  002a8	8b 0d 10 00 00
	00		 mov	 ecx, DWORD PTR ??_C@_0BI@HPEEMGIC@sound?1ui?1eat_potion?4wav@+16
  002ae	89 4a 10	 mov	 DWORD PTR [edx+16], ecx
  002b1	0f b7 0d 14 00
	00 00		 movzx	 ecx, WORD PTR ??_C@_0BI@HPEEMGIC@sound?1ui?1eat_potion?4wav@+20
  002b8	66 89 4a 14	 mov	 WORD PTR [edx+20], cx
  002bc	0f b6 05 16 00
	00 00		 movzx	 eax, BYTE PTR ??_C@_0BI@HPEEMGIC@sound?1ui?1eat_potion?4wav@+22
  002c3	88 42 16	 mov	 BYTE PTR [edx+22], al
; File C:\Program Files\Microsoft Visual Studio\2022\Community\VC\Tools\MSVC\14.44.35207\include\xstring

; 922  :             _Traits::assign(_Unfancy(_New_ptr)[_Count], _Elem());

  002c6	c6 42 17 00	 mov	 BYTE PTR [edx+23], 0
; File C:\Anka2Project\Anka2Project\Source\Binary\source\UserInterface\PythonPlayerSettingsModule.h

; 140  : 	{CPythonItem::USESOUND_POTION, "sound/ui/eat_potion.wav"},

  002ca	c6 45 fc 05	 mov	 BYTE PTR __$EHRec$[ebp+8], 5
  002ce	0f 57 c0	 xorps	 xmm0, xmm0
; File C:\Program Files\Microsoft Visual Studio\2022\Community\VC\Tools\MSVC\14.44.35207\include\xmemory

; 136  :         return ::operator new(_Bytes);

  002d1	6a 20		 push	 32			; 00000020H
; File C:\Program Files\Microsoft Visual Studio\2022\Community\VC\Tools\MSVC\14.44.35207\include\utility

; 274  :         : first(_STD forward<_Other1>(_Val1)), second(_STD forward<_Other2>(_Val2)) {

  002d3	c7 05 a8 00 00
	00 07 00 00 00	 mov	 DWORD PTR ?vecUseSoundFileName@@3V?$array@U?$pair@KV?$basic_string@DU?$char_traits@D@std@@V?$allocator@D@2@@std@@@std@@$06@std@@B+168, 7
; File C:\Program Files\Microsoft Visual Studio\2022\Community\VC\Tools\MSVC\14.44.35207\include\xstring

; 493  :         _CONSTEXPR20 _Bxty() noexcept : _Buf() {} // user-provided, for fancy pointers

  002dd	0f 11 05 ac 00
	00 00		 movups	 XMMWORD PTR ?vecUseSoundFileName@@3V?$array@U?$pair@KV?$basic_string@DU?$char_traits@D@std@@V?$allocator@D@2@@std@@@std@@$06@std@@B+172, xmm0

; 517  :     size_type _Mysize = 0; // current length of string (size)

  002e4	c7 05 bc 00 00
	00 00 00 00 00	 mov	 DWORD PTR ?vecUseSoundFileName@@3V?$array@U?$pair@KV?$basic_string@DU?$char_traits@D@std@@V?$allocator@D@2@@std@@@std@@$06@std@@B+188, 0

; 518  :     size_type _Myres  = 0; // current storage reserved for string (capacity)

  002ee	c7 05 c0 00 00
	00 00 00 00 00	 mov	 DWORD PTR ?vecUseSoundFileName@@3V?$array@U?$pair@KV?$basic_string@DU?$char_traits@D@std@@V?$allocator@D@2@@std@@@std@@$06@std@@B+192, 0
; File C:\Program Files\Microsoft Visual Studio\2022\Community\VC\Tools\MSVC\14.44.35207\include\xmemory

; 136  :         return ::operator new(_Bytes);

  002f8	e8 00 00 00 00	 call	 ??2@YAPAXI@Z		; operator new
; File C:\Program Files\Microsoft Visual Studio\2022\Community\VC\Tools\MSVC\14.44.35207\include\__msvc_string_view.hpp

; 121  :         _CSTD memcpy(_First1, _First2, _Count * sizeof(_Elem));

  002fd	0f 10 05 00 00
	00 00		 movups	 xmm0, XMMWORD PTR ??_C@_0BK@KFMADICD@sound?1ui?1potal_scroll?4wav@
; File C:\Program Files\Microsoft Visual Studio\2022\Community\VC\Tools\MSVC\14.44.35207\include\xstring

; 913  :         _Construct_in_place(_My_data._Bx._Ptr, _New_ptr);

  00304	a3 ac 00 00 00	 mov	 DWORD PTR ?vecUseSoundFileName@@3V?$array@U?$pair@KV?$basic_string@DU?$char_traits@D@std@@V?$allocator@D@2@@std@@@std@@$06@std@@B+172, eax

; 915  :         _My_data._Mysize = _Count;

  00309	c7 05 bc 00 00
	00 19 00 00 00	 mov	 DWORD PTR ?vecUseSoundFileName@@3V?$array@U?$pair@KV?$basic_string@DU?$char_traits@D@std@@V?$allocator@D@2@@std@@@std@@$06@std@@B+188, 25 ; 00000019H

; 916  :         _My_data._Myres  = _New_capacity;

  00313	c7 05 c0 00 00
	00 1f 00 00 00	 mov	 DWORD PTR ?vecUseSoundFileName@@3V?$array@U?$pair@KV?$basic_string@DU?$char_traits@D@std@@V?$allocator@D@2@@std@@@std@@$06@std@@B+192, 31 ; 0000001fH
; File C:\Program Files\Microsoft Visual Studio\2022\Community\VC\Tools\MSVC\14.44.35207\include\__msvc_string_view.hpp

; 121  :         _CSTD memcpy(_First1, _First2, _Count * sizeof(_Elem));

  0031d	0f 11 00	 movups	 XMMWORD PTR [eax], xmm0
; File C:\Anka2Project\Anka2Project\Source\Binary\source\UserInterface\PythonPlayerSettingsModule.h

; 133  : static const std::array<TSoundFileName, CPythonItem::USESOUND_NUM - 1> vecUseSoundFileName =

  00320	68 00 00 00 00	 push	 OFFSET ??__FvecUseSoundFileName@@YAXXZ ; `dynamic atexit destructor for 'vecUseSoundFileName''
; File C:\Program Files\Microsoft Visual Studio\2022\Community\VC\Tools\MSVC\14.44.35207\include\__msvc_string_view.hpp

; 121  :         _CSTD memcpy(_First1, _First2, _Count * sizeof(_Elem));

  00325	f3 0f 7e 05 10
	00 00 00	 movq	 xmm0, QWORD PTR ??_C@_0BK@KFMADICD@sound?1ui?1potal_scroll?4wav@+16
  0032d	66 0f d6 40 10	 movq	 QWORD PTR [eax+16], xmm0
  00332	0f b6 0d 18 00
	00 00		 movzx	 ecx, BYTE PTR ??_C@_0BK@KFMADICD@sound?1ui?1potal_scroll?4wav@+24
  00339	88 48 18	 mov	 BYTE PTR [eax+24], cl
; File C:\Program Files\Microsoft Visual Studio\2022\Community\VC\Tools\MSVC\14.44.35207\include\xstring

; 922  :             _Traits::assign(_Unfancy(_New_ptr)[_Count], _Elem());

  0033c	c6 40 19 00	 mov	 BYTE PTR [eax+25], 0
; File C:\Anka2Project\Anka2Project\Source\Binary\source\UserInterface\PythonPlayerSettingsModule.h

; 133  : static const std::array<TSoundFileName, CPythonItem::USESOUND_NUM - 1> vecUseSoundFileName =

  00340	e8 00 00 00 00	 call	 _atexit
  00345	83 c4 20	 add	 esp, 32			; 00000020H
  00348	8b 4d f4	 mov	 ecx, DWORD PTR __$EHRec$[ebp]
  0034b	64 89 0d 00 00
	00 00		 mov	 DWORD PTR fs:0, ecx
  00352	59		 pop	 ecx
  00353	8b e5		 mov	 esp, ebp
  00355	5d		 pop	 ebp
  00356	c3		 ret	 0
text$di	ENDS
;	COMDAT text$x
text$x	SEGMENT
__unwindfunclet$??__EvecUseSoundFileName@@YAXXZ$0:
  00000	b9 00 00 00 00	 mov	 ecx, OFFSET ?vecUseSoundFileName@@3V?$array@U?$pair@KV?$basic_string@DU?$char_traits@D@std@@V?$allocator@D@2@@std@@@std@@$06@std@@B
  00005	e9 00 00 00 00	 jmp	 ??1?$pair@KV?$basic_string@DU?$char_traits@D@std@@V?$allocator@D@2@@std@@@std@@QAE@XZ
__unwindfunclet$??__EvecUseSoundFileName@@YAXXZ$1:
  0000a	b9 1c 00 00 00	 mov	 ecx, OFFSET ?vecUseSoundFileName@@3V?$array@U?$pair@KV?$basic_string@DU?$char_traits@D@std@@V?$allocator@D@2@@std@@@std@@$06@std@@B+28
  0000f	e9 00 00 00 00	 jmp	 ??1?$pair@KV?$basic_string@DU?$char_traits@D@std@@V?$allocator@D@2@@std@@@std@@QAE@XZ
__unwindfunclet$??__EvecUseSoundFileName@@YAXXZ$2:
  00014	b9 38 00 00 00	 mov	 ecx, OFFSET ?vecUseSoundFileName@@3V?$array@U?$pair@KV?$basic_string@DU?$char_traits@D@std@@V?$allocator@D@2@@std@@@std@@$06@std@@B+56
  00019	e9 00 00 00 00	 jmp	 ??1?$pair@KV?$basic_string@DU?$char_traits@D@std@@V?$allocator@D@2@@std@@@std@@QAE@XZ
__unwindfunclet$??__EvecUseSoundFileName@@YAXXZ$3:
  0001e	b9 54 00 00 00	 mov	 ecx, OFFSET ?vecUseSoundFileName@@3V?$array@U?$pair@KV?$basic_string@DU?$char_traits@D@std@@V?$allocator@D@2@@std@@@std@@$06@std@@B+84
  00023	e9 00 00 00 00	 jmp	 ??1?$pair@KV?$basic_string@DU?$char_traits@D@std@@V?$allocator@D@2@@std@@@std@@QAE@XZ
__unwindfunclet$??__EvecUseSoundFileName@@YAXXZ$4:
  00028	b9 70 00 00 00	 mov	 ecx, OFFSET ?vecUseSoundFileName@@3V?$array@U?$pair@KV?$basic_string@DU?$char_traits@D@std@@V?$allocator@D@2@@std@@@std@@$06@std@@B+112
  0002d	e9 00 00 00 00	 jmp	 ??1?$pair@KV?$basic_string@DU?$char_traits@D@std@@V?$allocator@D@2@@std@@@std@@QAE@XZ
__unwindfunclet$??__EvecUseSoundFileName@@YAXXZ$5:
  00032	b9 8c 00 00 00	 mov	 ecx, OFFSET ?vecUseSoundFileName@@3V?$array@U?$pair@KV?$basic_string@DU?$char_traits@D@std@@V?$allocator@D@2@@std@@@std@@$06@std@@B+140
  00037	e9 00 00 00 00	 jmp	 ??1?$pair@KV?$basic_string@DU?$char_traits@D@std@@V?$allocator@D@2@@std@@@std@@QAE@XZ
  0003c	cc		 int	 3
  0003d	cc		 int	 3
  0003e	cc		 int	 3
  0003f	cc		 int	 3
  00040	cc		 int	 3
__ehhandler$??__EvecUseSoundFileName@@YAXXZ:
  00041	90		 npad	 1
  00042	90		 npad	 1
  00043	8b 54 24 08	 mov	 edx, DWORD PTR [esp+8]
  00047	8d 42 0c	 lea	 eax, DWORD PTR [edx+12]
  0004a	8b 4a fc	 mov	 ecx, DWORD PTR [edx-4]
  0004d	33 c8		 xor	 ecx, eax
  0004f	e8 00 00 00 00	 call	 @__security_check_cookie@4
  00054	b8 00 00 00 00	 mov	 eax, OFFSET __ehfuncinfo$??__EvecUseSoundFileName@@YAXXZ
  00059	e9 00 00 00 00	 jmp	 ___CxxFrameHandler3
text$x	ENDS
??__EvecUseSoundFileName@@YAXXZ ENDP			; `dynamic initializer for 'vecUseSoundFileName''
; Function compile flags: /Ogtp
;	COMDAT ??__FvecUseSoundFileName@@YAXXZ
text$yd	SEGMENT
__$EHRec$ = -12						; size = 12
??__FvecUseSoundFileName@@YAXXZ PROC			; `dynamic atexit destructor for 'vecUseSoundFileName'', COMDAT
  00000	55		 push	 ebp
  00001	8b ec		 mov	 ebp, esp
  00003	6a ff		 push	 -1
  00005	68 00 00 00 00	 push	 __ehhandler$??__FvecUseSoundFileName@@YAXXZ
  0000a	64 a1 00 00 00
	00		 mov	 eax, DWORD PTR fs:0
  00010	50		 push	 eax
  00011	a1 00 00 00 00	 mov	 eax, DWORD PTR ___security_cookie
  00016	33 c5		 xor	 eax, ebp
  00018	50		 push	 eax
  00019	8d 45 f4	 lea	 eax, DWORD PTR __$EHRec$[ebp]
  0001c	64 a3 00 00 00
	00		 mov	 DWORD PTR fs:0, eax
  00022	68 00 00 00 00	 push	 OFFSET ??1?$pair@KV?$basic_string@DU?$char_traits@D@std@@V?$allocator@D@2@@std@@@std@@QAE@XZ
  00027	6a 07		 push	 7
  00029	6a 1c		 push	 28			; 0000001cH
  0002b	68 00 00 00 00	 push	 OFFSET ?vecUseSoundFileName@@3V?$array@U?$pair@KV?$basic_string@DU?$char_traits@D@std@@V?$allocator@D@2@@std@@@std@@$06@std@@B
  00030	c7 45 fc 00 00
	00 00		 mov	 DWORD PTR __$EHRec$[ebp+8], 0
  00037	e8 00 00 00 00	 call	 ??_M@YGXPAXIIP6EX0@Z@Z
  0003c	8b 4d f4	 mov	 ecx, DWORD PTR __$EHRec$[ebp]
  0003f	64 89 0d 00 00
	00 00		 mov	 DWORD PTR fs:0, ecx
  00046	59		 pop	 ecx
  00047	8b e5		 mov	 esp, ebp
  00049	5d		 pop	 ebp
  0004a	c3		 ret	 0
  0004b	cc		 int	 3
  0004c	cc		 int	 3
  0004d	cc		 int	 3
  0004e	cc		 int	 3
  0004f	cc		 int	 3
text$yd	ENDS
;	COMDAT text$x
text$x	SEGMENT
__ehhandler$??__FvecUseSoundFileName@@YAXXZ:
  00000	90		 npad	 1
  00001	90		 npad	 1
  00002	8b 54 24 08	 mov	 edx, DWORD PTR [esp+8]
  00006	8d 42 0c	 lea	 eax, DWORD PTR [edx+12]
  00009	8b 4a fc	 mov	 ecx, DWORD PTR [edx-4]
  0000c	33 c8		 xor	 ecx, eax
  0000e	e8 00 00 00 00	 call	 @__security_check_cookie@4
  00013	b8 00 00 00 00	 mov	 eax, OFFSET __ehfuncinfo$??__FvecUseSoundFileName@@YAXXZ
  00018	e9 00 00 00 00	 jmp	 ___CxxFrameHandler3
text$x	ENDS
??__FvecUseSoundFileName@@YAXXZ ENDP			; `dynamic atexit destructor for 'vecUseSoundFileName''
; Function compile flags: /Ogtp
; File C:\Anka2Project\Anka2Project\Source\Binary\source\UserInterface\PythonPlayerSettingsModule.h
; File C:\Program Files\Microsoft Visual Studio\2022\Community\VC\Tools\MSVC\14.44.35207\include\xmemory
; File C:\Program Files\Microsoft Visual Studio\2022\Community\VC\Tools\MSVC\14.44.35207\include\__msvc_string_view.hpp
; File C:\Program Files\Microsoft Visual Studio\2022\Community\VC\Tools\MSVC\14.44.35207\include\xstring
; File C:\Program Files\Microsoft Visual Studio\2022\Community\VC\Tools\MSVC\14.44.35207\include\__msvc_string_view.hpp
; File C:\Program Files\Microsoft Visual Studio\2022\Community\VC\Tools\MSVC\14.44.35207\include\xstring
; File C:\Anka2Project\Anka2Project\Source\Binary\source\UserInterface\PythonPlayerSettingsModule.h
; File C:\Program Files\Microsoft Visual Studio\2022\Community\VC\Tools\MSVC\14.44.35207\include\xmemory
; File C:\Program Files\Microsoft Visual Studio\2022\Community\VC\Tools\MSVC\14.44.35207\include\utility
; File C:\Program Files\Microsoft Visual Studio\2022\Community\VC\Tools\MSVC\14.44.35207\include\xstring
; File C:\Program Files\Microsoft Visual Studio\2022\Community\VC\Tools\MSVC\14.44.35207\include\xmemory
; File C:\Program Files\Microsoft Visual Studio\2022\Community\VC\Tools\MSVC\14.44.35207\include\__msvc_string_view.hpp
; File C:\Program Files\Microsoft Visual Studio\2022\Community\VC\Tools\MSVC\14.44.35207\include\xmemory
; File C:\Program Files\Microsoft Visual Studio\2022\Community\VC\Tools\MSVC\14.44.35207\include\xstring
; File C:\Program Files\Microsoft Visual Studio\2022\Community\VC\Tools\MSVC\14.44.35207\include\__msvc_string_view.hpp
; File C:\Program Files\Microsoft Visual Studio\2022\Community\VC\Tools\MSVC\14.44.35207\include\xstring
; File C:\Anka2Project\Anka2Project\Source\Binary\source\UserInterface\PythonPlayerSettingsModule.h
; File C:\Program Files\Microsoft Visual Studio\2022\Community\VC\Tools\MSVC\14.44.35207\include\xmemory
; File C:\Program Files\Microsoft Visual Studio\2022\Community\VC\Tools\MSVC\14.44.35207\include\utility
; File C:\Program Files\Microsoft Visual Studio\2022\Community\VC\Tools\MSVC\14.44.35207\include\xstring
; File C:\Program Files\Microsoft Visual Studio\2022\Community\VC\Tools\MSVC\14.44.35207\include\xmemory
; File C:\Program Files\Microsoft Visual Studio\2022\Community\VC\Tools\MSVC\14.44.35207\include\__msvc_string_view.hpp
; File C:\Program Files\Microsoft Visual Studio\2022\Community\VC\Tools\MSVC\14.44.35207\include\xmemory
; File C:\Program Files\Microsoft Visual Studio\2022\Community\VC\Tools\MSVC\14.44.35207\include\xstring
; File C:\Program Files\Microsoft Visual Studio\2022\Community\VC\Tools\MSVC\14.44.35207\include\__msvc_string_view.hpp
; File C:\Program Files\Microsoft Visual Studio\2022\Community\VC\Tools\MSVC\14.44.35207\include\xstring
; File C:\Anka2Project\Anka2Project\Source\Binary\source\UserInterface\PythonPlayerSettingsModule.h
; File C:\Program Files\Microsoft Visual Studio\2022\Community\VC\Tools\MSVC\14.44.35207\include\xmemory
; File C:\Program Files\Microsoft Visual Studio\2022\Community\VC\Tools\MSVC\14.44.35207\include\utility
; File C:\Program Files\Microsoft Visual Studio\2022\Community\VC\Tools\MSVC\14.44.35207\include\xstring
; File C:\Program Files\Microsoft Visual Studio\2022\Community\VC\Tools\MSVC\14.44.35207\include\xmemory
; File C:\Program Files\Microsoft Visual Studio\2022\Community\VC\Tools\MSVC\14.44.35207\include\__msvc_string_view.hpp
; File C:\Program Files\Microsoft Visual Studio\2022\Community\VC\Tools\MSVC\14.44.35207\include\xstring
; File C:\Program Files\Microsoft Visual Studio\2022\Community\VC\Tools\MSVC\14.44.35207\include\__msvc_string_view.hpp
; File C:\Program Files\Microsoft Visual Studio\2022\Community\VC\Tools\MSVC\14.44.35207\include\xstring
; File C:\Anka2Project\Anka2Project\Source\Binary\source\UserInterface\PythonPlayerSettingsModule.h
; File C:\Program Files\Microsoft Visual Studio\2022\Community\VC\Tools\MSVC\14.44.35207\include\utility
; File C:\Program Files\Microsoft Visual Studio\2022\Community\VC\Tools\MSVC\14.44.35207\include\xstring
; File C:\Program Files\Microsoft Visual Studio\2022\Community\VC\Tools\MSVC\14.44.35207\include\xmemory
; File C:\Program Files\Microsoft Visual Studio\2022\Community\VC\Tools\MSVC\14.44.35207\include\__msvc_string_view.hpp
; File C:\Program Files\Microsoft Visual Studio\2022\Community\VC\Tools\MSVC\14.44.35207\include\xmemory
; File C:\Program Files\Microsoft Visual Studio\2022\Community\VC\Tools\MSVC\14.44.35207\include\xstring
; File C:\Anka2Project\Anka2Project\Source\Binary\source\UserInterface\PythonPlayerSettingsModule.h
; File C:\Program Files\Microsoft Visual Studio\2022\Community\VC\Tools\MSVC\14.44.35207\include\__msvc_string_view.hpp
; File C:\Program Files\Microsoft Visual Studio\2022\Community\VC\Tools\MSVC\14.44.35207\include\xstring
; File C:\Anka2Project\Anka2Project\Source\Binary\source\UserInterface\PythonPlayerSettingsModule.h
;	COMDAT ??__EvecDropSoundFileName@@YAXXZ
text$di	SEGMENT
__$EHRec$ = -12						; size = 12
??__EvecDropSoundFileName@@YAXXZ PROC			; `dynamic initializer for 'vecDropSoundFileName'', COMDAT

; 151  : } };

  00000	55		 push	 ebp
  00001	8b ec		 mov	 ebp, esp
  00003	6a ff		 push	 -1
  00005	68 00 00 00 00	 push	 __ehhandler$??__EvecDropSoundFileName@@YAXXZ
  0000a	64 a1 00 00 00
	00		 mov	 eax, DWORD PTR fs:0
  00010	50		 push	 eax
  00011	a1 00 00 00 00	 mov	 eax, DWORD PTR ___security_cookie
  00016	33 c5		 xor	 eax, ebp
  00018	50		 push	 eax
  00019	8d 45 f4	 lea	 eax, DWORD PTR __$EHRec$[ebp]
  0001c	64 a3 00 00 00
	00		 mov	 DWORD PTR fs:0, eax
; File C:\Program Files\Microsoft Visual Studio\2022\Community\VC\Tools\MSVC\14.44.35207\include\xmemory

; 136  :         return ::operator new(_Bytes);

  00022	6a 20		 push	 32			; 00000020H
  00024	e8 00 00 00 00	 call	 ??2@YAPAXI@Z		; operator new
; File C:\Program Files\Microsoft Visual Studio\2022\Community\VC\Tools\MSVC\14.44.35207\include\__msvc_string_view.hpp

; 121  :         _CSTD memcpy(_First1, _First2, _Count * sizeof(_Elem));

  00029	0f 10 05 00 00
	00 00		 movups	 xmm0, XMMWORD PTR ??_C@_0BC@NAJLHID@sound?1ui?1drop?4wav@
; File C:\Program Files\Microsoft Visual Studio\2022\Community\VC\Tools\MSVC\14.44.35207\include\xstring

; 913  :         _Construct_in_place(_My_data._Bx._Ptr, _New_ptr);

  00030	a3 04 00 00 00	 mov	 DWORD PTR ?vecDropSoundFileName@@3V?$array@U?$pair@KV?$basic_string@DU?$char_traits@D@std@@V?$allocator@D@2@@std@@@std@@$04@std@@B+4, eax

; 915  :         _My_data._Mysize = _Count;

  00035	c7 05 14 00 00
	00 11 00 00 00	 mov	 DWORD PTR ?vecDropSoundFileName@@3V?$array@U?$pair@KV?$basic_string@DU?$char_traits@D@std@@V?$allocator@D@2@@std@@@std@@$04@std@@B+20, 17 ; 00000011H

; 916  :         _My_data._Myres  = _New_capacity;

  0003f	c7 05 18 00 00
	00 1f 00 00 00	 mov	 DWORD PTR ?vecDropSoundFileName@@3V?$array@U?$pair@KV?$basic_string@DU?$char_traits@D@std@@V?$allocator@D@2@@std@@@std@@$04@std@@B+24, 31 ; 0000001fH
; File C:\Program Files\Microsoft Visual Studio\2022\Community\VC\Tools\MSVC\14.44.35207\include\__msvc_string_view.hpp

; 121  :         _CSTD memcpy(_First1, _First2, _Count * sizeof(_Elem));

  00049	0f 11 00	 movups	 XMMWORD PTR [eax], xmm0
  0004c	8a 0d 10 00 00
	00		 mov	 cl, BYTE PTR ??_C@_0BC@NAJLHID@sound?1ui?1drop?4wav@+16
  00052	88 48 10	 mov	 BYTE PTR [eax+16], cl
; File C:\Program Files\Microsoft Visual Studio\2022\Community\VC\Tools\MSVC\14.44.35207\include\xstring

; 922  :             _Traits::assign(_Unfancy(_New_ptr)[_Count], _Elem());

  00055	c6 40 11 00	 mov	 BYTE PTR [eax+17], 0
; File C:\Anka2Project\Anka2Project\Source\Binary\source\UserInterface\PythonPlayerSettingsModule.h

; 146  : 		{CPythonItem::DROPSOUND_DEFAULT, "sound/ui/drop.wav"},

  00059	c7 45 fc 00 00
	00 00		 mov	 DWORD PTR __$EHRec$[ebp+8], 0
  00060	0f 57 c0	 xorps	 xmm0, xmm0
; File C:\Program Files\Microsoft Visual Studio\2022\Community\VC\Tools\MSVC\14.44.35207\include\xmemory

; 136  :         return ::operator new(_Bytes);

  00063	6a 20		 push	 32			; 00000020H
; File C:\Program Files\Microsoft Visual Studio\2022\Community\VC\Tools\MSVC\14.44.35207\include\utility

; 274  :         : first(_STD forward<_Other1>(_Val1)), second(_STD forward<_Other2>(_Val2)) {

  00065	c7 05 1c 00 00
	00 04 00 00 00	 mov	 DWORD PTR ?vecDropSoundFileName@@3V?$array@U?$pair@KV?$basic_string@DU?$char_traits@D@std@@V?$allocator@D@2@@std@@@std@@$04@std@@B+28, 4
; File C:\Program Files\Microsoft Visual Studio\2022\Community\VC\Tools\MSVC\14.44.35207\include\xstring

; 493  :         _CONSTEXPR20 _Bxty() noexcept : _Buf() {} // user-provided, for fancy pointers

  0006f	0f 11 05 20 00
	00 00		 movups	 XMMWORD PTR ?vecDropSoundFileName@@3V?$array@U?$pair@KV?$basic_string@DU?$char_traits@D@std@@V?$allocator@D@2@@std@@@std@@$04@std@@B+32, xmm0

; 517  :     size_type _Mysize = 0; // current length of string (size)

  00076	c7 05 30 00 00
	00 00 00 00 00	 mov	 DWORD PTR ?vecDropSoundFileName@@3V?$array@U?$pair@KV?$basic_string@DU?$char_traits@D@std@@V?$allocator@D@2@@std@@@std@@$04@std@@B+48, 0

; 518  :     size_type _Myres  = 0; // current storage reserved for string (capacity)

  00080	c7 05 34 00 00
	00 00 00 00 00	 mov	 DWORD PTR ?vecDropSoundFileName@@3V?$array@U?$pair@KV?$basic_string@DU?$char_traits@D@std@@V?$allocator@D@2@@std@@@std@@$04@std@@B+52, 0
; File C:\Program Files\Microsoft Visual Studio\2022\Community\VC\Tools\MSVC\14.44.35207\include\xmemory

; 136  :         return ::operator new(_Bytes);

  0008a	e8 00 00 00 00	 call	 ??2@YAPAXI@Z		; operator new
; File C:\Program Files\Microsoft Visual Studio\2022\Community\VC\Tools\MSVC\14.44.35207\include\__msvc_string_view.hpp

; 121  :         _CSTD memcpy(_First1, _First2, _Count * sizeof(_Elem));

  0008f	0f 10 05 00 00
	00 00		 movups	 xmm0, XMMWORD PTR ??_C@_0BP@BMHKPOHF@sound?1ui?1equip_ring_amulet?4wav@
; File C:\Program Files\Microsoft Visual Studio\2022\Community\VC\Tools\MSVC\14.44.35207\include\xmemory

; 256  :         return _Traits::_Allocate(_Bytes);

  00096	8b d0		 mov	 edx, eax
; File C:\Program Files\Microsoft Visual Studio\2022\Community\VC\Tools\MSVC\14.44.35207\include\xstring

; 915  :         _My_data._Mysize = _Count;

  00098	c7 05 30 00 00
	00 1e 00 00 00	 mov	 DWORD PTR ?vecDropSoundFileName@@3V?$array@U?$pair@KV?$basic_string@DU?$char_traits@D@std@@V?$allocator@D@2@@std@@@std@@$04@std@@B+48, 30 ; 0000001eH
  000a2	89 15 20 00 00
	00		 mov	 DWORD PTR ?vecDropSoundFileName@@3V?$array@U?$pair@KV?$basic_string@DU?$char_traits@D@std@@V?$allocator@D@2@@std@@@std@@$04@std@@B+32, edx

; 916  :         _My_data._Myres  = _New_capacity;

  000a8	c7 05 34 00 00
	00 1f 00 00 00	 mov	 DWORD PTR ?vecDropSoundFileName@@3V?$array@U?$pair@KV?$basic_string@DU?$char_traits@D@std@@V?$allocator@D@2@@std@@@std@@$04@std@@B+52, 31 ; 0000001fH
; File C:\Program Files\Microsoft Visual Studio\2022\Community\VC\Tools\MSVC\14.44.35207\include\__msvc_string_view.hpp

; 121  :         _CSTD memcpy(_First1, _First2, _Count * sizeof(_Elem));

  000b2	0f 11 02	 movups	 XMMWORD PTR [edx], xmm0
  000b5	f3 0f 7e 05 10
	00 00 00	 movq	 xmm0, QWORD PTR ??_C@_0BP@BMHKPOHF@sound?1ui?1equip_ring_amulet?4wav@+16
  000bd	66 0f d6 42 10	 movq	 QWORD PTR [edx+16], xmm0
  000c2	8b 0d 18 00 00
	00		 mov	 ecx, DWORD PTR ??_C@_0BP@BMHKPOHF@sound?1ui?1equip_ring_amulet?4wav@+24
  000c8	89 4a 18	 mov	 DWORD PTR [edx+24], ecx
  000cb	0f b7 05 1c 00
	00 00		 movzx	 eax, WORD PTR ??_C@_0BP@BMHKPOHF@sound?1ui?1equip_ring_amulet?4wav@+28
  000d2	66 89 42 1c	 mov	 WORD PTR [edx+28], ax
; File C:\Program Files\Microsoft Visual Studio\2022\Community\VC\Tools\MSVC\14.44.35207\include\xstring

; 922  :             _Traits::assign(_Unfancy(_New_ptr)[_Count], _Elem());

  000d6	c6 42 1e 00	 mov	 BYTE PTR [edx+30], 0
; File C:\Anka2Project\Anka2Project\Source\Binary\source\UserInterface\PythonPlayerSettingsModule.h

; 147  : 		{CPythonItem::DROPSOUND_ACCESSORY, "sound/ui/equip_ring_amulet.wav"},

  000da	c6 45 fc 01	 mov	 BYTE PTR __$EHRec$[ebp+8], 1
  000de	0f 57 c0	 xorps	 xmm0, xmm0
; File C:\Program Files\Microsoft Visual Studio\2022\Community\VC\Tools\MSVC\14.44.35207\include\xmemory

; 136  :         return ::operator new(_Bytes);

  000e1	6a 20		 push	 32			; 00000020H
; File C:\Program Files\Microsoft Visual Studio\2022\Community\VC\Tools\MSVC\14.44.35207\include\utility

; 274  :         : first(_STD forward<_Other1>(_Val1)), second(_STD forward<_Other2>(_Val2)) {

  000e3	c7 05 38 00 00
	00 01 00 00 00	 mov	 DWORD PTR ?vecDropSoundFileName@@3V?$array@U?$pair@KV?$basic_string@DU?$char_traits@D@std@@V?$allocator@D@2@@std@@@std@@$04@std@@B+56, 1
; File C:\Program Files\Microsoft Visual Studio\2022\Community\VC\Tools\MSVC\14.44.35207\include\xstring

; 493  :         _CONSTEXPR20 _Bxty() noexcept : _Buf() {} // user-provided, for fancy pointers

  000ed	0f 11 05 3c 00
	00 00		 movups	 XMMWORD PTR ?vecDropSoundFileName@@3V?$array@U?$pair@KV?$basic_string@DU?$char_traits@D@std@@V?$allocator@D@2@@std@@@std@@$04@std@@B+60, xmm0

; 517  :     size_type _Mysize = 0; // current length of string (size)

  000f4	c7 05 4c 00 00
	00 00 00 00 00	 mov	 DWORD PTR ?vecDropSoundFileName@@3V?$array@U?$pair@KV?$basic_string@DU?$char_traits@D@std@@V?$allocator@D@2@@std@@@std@@$04@std@@B+76, 0

; 518  :     size_type _Myres  = 0; // current storage reserved for string (capacity)

  000fe	c7 05 50 00 00
	00 00 00 00 00	 mov	 DWORD PTR ?vecDropSoundFileName@@3V?$array@U?$pair@KV?$basic_string@DU?$char_traits@D@std@@V?$allocator@D@2@@std@@@std@@$04@std@@B+80, 0
; File C:\Program Files\Microsoft Visual Studio\2022\Community\VC\Tools\MSVC\14.44.35207\include\xmemory

; 136  :         return ::operator new(_Bytes);

  00108	e8 00 00 00 00	 call	 ??2@YAPAXI@Z		; operator new
; File C:\Program Files\Microsoft Visual Studio\2022\Community\VC\Tools\MSVC\14.44.35207\include\__msvc_string_view.hpp

; 121  :         _CSTD memcpy(_First1, _First2, _Count * sizeof(_Elem));

  0010d	0f 10 05 00 00
	00 00		 movups	 xmm0, XMMWORD PTR ??_C@_0BP@PMFHICHL@sound?1ui?1equip_metal_armor?4wav@
; File C:\Program Files\Microsoft Visual Studio\2022\Community\VC\Tools\MSVC\14.44.35207\include\xmemory

; 256  :         return _Traits::_Allocate(_Bytes);

  00114	8b d0		 mov	 edx, eax
; File C:\Program Files\Microsoft Visual Studio\2022\Community\VC\Tools\MSVC\14.44.35207\include\xstring

; 915  :         _My_data._Mysize = _Count;

  00116	c7 05 4c 00 00
	00 1e 00 00 00	 mov	 DWORD PTR ?vecDropSoundFileName@@3V?$array@U?$pair@KV?$basic_string@DU?$char_traits@D@std@@V?$allocator@D@2@@std@@@std@@$04@std@@B+76, 30 ; 0000001eH
  00120	89 15 3c 00 00
	00		 mov	 DWORD PTR ?vecDropSoundFileName@@3V?$array@U?$pair@KV?$basic_string@DU?$char_traits@D@std@@V?$allocator@D@2@@std@@@std@@$04@std@@B+60, edx

; 916  :         _My_data._Myres  = _New_capacity;

  00126	c7 05 50 00 00
	00 1f 00 00 00	 mov	 DWORD PTR ?vecDropSoundFileName@@3V?$array@U?$pair@KV?$basic_string@DU?$char_traits@D@std@@V?$allocator@D@2@@std@@@std@@$04@std@@B+80, 31 ; 0000001fH
; File C:\Program Files\Microsoft Visual Studio\2022\Community\VC\Tools\MSVC\14.44.35207\include\__msvc_string_view.hpp

; 121  :         _CSTD memcpy(_First1, _First2, _Count * sizeof(_Elem));

  00130	0f 11 02	 movups	 XMMWORD PTR [edx], xmm0
  00133	f3 0f 7e 05 10
	00 00 00	 movq	 xmm0, QWORD PTR ??_C@_0BP@PMFHICHL@sound?1ui?1equip_metal_armor?4wav@+16
  0013b	66 0f d6 42 10	 movq	 QWORD PTR [edx+16], xmm0
  00140	8b 0d 18 00 00
	00		 mov	 ecx, DWORD PTR ??_C@_0BP@PMFHICHL@sound?1ui?1equip_metal_armor?4wav@+24
  00146	89 4a 18	 mov	 DWORD PTR [edx+24], ecx
  00149	0f b7 05 1c 00
	00 00		 movzx	 eax, WORD PTR ??_C@_0BP@PMFHICHL@sound?1ui?1equip_metal_armor?4wav@+28
  00150	66 89 42 1c	 mov	 WORD PTR [edx+28], ax
; File C:\Program Files\Microsoft Visual Studio\2022\Community\VC\Tools\MSVC\14.44.35207\include\xstring

; 922  :             _Traits::assign(_Unfancy(_New_ptr)[_Count], _Elem());

  00154	c6 42 1e 00	 mov	 BYTE PTR [edx+30], 0
; File C:\Anka2Project\Anka2Project\Source\Binary\source\UserInterface\PythonPlayerSettingsModule.h

; 148  : 		{CPythonItem::DROPSOUND_ARMOR, "sound/ui/equip_metal_armor.wav"},

  00158	c6 45 fc 02	 mov	 BYTE PTR __$EHRec$[ebp+8], 2
  0015c	0f 57 c0	 xorps	 xmm0, xmm0
; File C:\Program Files\Microsoft Visual Studio\2022\Community\VC\Tools\MSVC\14.44.35207\include\xmemory

; 136  :         return ::operator new(_Bytes);

  0015f	6a 20		 push	 32			; 00000020H
; File C:\Program Files\Microsoft Visual Studio\2022\Community\VC\Tools\MSVC\14.44.35207\include\utility

; 274  :         : first(_STD forward<_Other1>(_Val1)), second(_STD forward<_Other2>(_Val2)) {

  00161	c7 05 54 00 00
	00 03 00 00 00	 mov	 DWORD PTR ?vecDropSoundFileName@@3V?$array@U?$pair@KV?$basic_string@DU?$char_traits@D@std@@V?$allocator@D@2@@std@@@std@@$04@std@@B+84, 3
; File C:\Program Files\Microsoft Visual Studio\2022\Community\VC\Tools\MSVC\14.44.35207\include\xstring

; 493  :         _CONSTEXPR20 _Bxty() noexcept : _Buf() {} // user-provided, for fancy pointers

  0016b	0f 11 05 58 00
	00 00		 movups	 XMMWORD PTR ?vecDropSoundFileName@@3V?$array@U?$pair@KV?$basic_string@DU?$char_traits@D@std@@V?$allocator@D@2@@std@@@std@@$04@std@@B+88, xmm0

; 517  :     size_type _Mysize = 0; // current length of string (size)

  00172	c7 05 68 00 00
	00 00 00 00 00	 mov	 DWORD PTR ?vecDropSoundFileName@@3V?$array@U?$pair@KV?$basic_string@DU?$char_traits@D@std@@V?$allocator@D@2@@std@@@std@@$04@std@@B+104, 0

; 518  :     size_type _Myres  = 0; // current storage reserved for string (capacity)

  0017c	c7 05 6c 00 00
	00 00 00 00 00	 mov	 DWORD PTR ?vecDropSoundFileName@@3V?$array@U?$pair@KV?$basic_string@DU?$char_traits@D@std@@V?$allocator@D@2@@std@@@std@@$04@std@@B+108, 0
; File C:\Program Files\Microsoft Visual Studio\2022\Community\VC\Tools\MSVC\14.44.35207\include\xmemory

; 136  :         return ::operator new(_Bytes);

  00186	e8 00 00 00 00	 call	 ??2@YAPAXI@Z		; operator new
; File C:\Program Files\Microsoft Visual Studio\2022\Community\VC\Tools\MSVC\14.44.35207\include\__msvc_string_view.hpp

; 121  :         _CSTD memcpy(_First1, _First2, _Count * sizeof(_Elem));

  0018b	0f 10 05 00 00
	00 00		 movups	 xmm0, XMMWORD PTR ??_C@_0BH@JDLOIICI@sound?1ui?1equip_bow?4wav@
; File C:\Program Files\Microsoft Visual Studio\2022\Community\VC\Tools\MSVC\14.44.35207\include\xstring

; 913  :         _Construct_in_place(_My_data._Bx._Ptr, _New_ptr);

  00192	a3 58 00 00 00	 mov	 DWORD PTR ?vecDropSoundFileName@@3V?$array@U?$pair@KV?$basic_string@DU?$char_traits@D@std@@V?$allocator@D@2@@std@@@std@@$04@std@@B+88, eax

; 915  :         _My_data._Mysize = _Count;

  00197	c7 05 68 00 00
	00 16 00 00 00	 mov	 DWORD PTR ?vecDropSoundFileName@@3V?$array@U?$pair@KV?$basic_string@DU?$char_traits@D@std@@V?$allocator@D@2@@std@@@std@@$04@std@@B+104, 22 ; 00000016H

; 916  :         _My_data._Myres  = _New_capacity;

  001a1	c7 05 6c 00 00
	00 1f 00 00 00	 mov	 DWORD PTR ?vecDropSoundFileName@@3V?$array@U?$pair@KV?$basic_string@DU?$char_traits@D@std@@V?$allocator@D@2@@std@@@std@@$04@std@@B+108, 31 ; 0000001fH
; File C:\Program Files\Microsoft Visual Studio\2022\Community\VC\Tools\MSVC\14.44.35207\include\__msvc_string_view.hpp

; 121  :         _CSTD memcpy(_First1, _First2, _Count * sizeof(_Elem));

  001ab	0f 11 00	 movups	 XMMWORD PTR [eax], xmm0
  001ae	8b 0d 10 00 00
	00		 mov	 ecx, DWORD PTR ??_C@_0BH@JDLOIICI@sound?1ui?1equip_bow?4wav@+16
  001b4	89 48 10	 mov	 DWORD PTR [eax+16], ecx
  001b7	66 8b 0d 14 00
	00 00		 mov	 cx, WORD PTR ??_C@_0BH@JDLOIICI@sound?1ui?1equip_bow?4wav@+20
  001be	66 89 48 14	 mov	 WORD PTR [eax+20], cx
; File C:\Program Files\Microsoft Visual Studio\2022\Community\VC\Tools\MSVC\14.44.35207\include\xstring

; 922  :             _Traits::assign(_Unfancy(_New_ptr)[_Count], _Elem());

  001c2	c6 40 16 00	 mov	 BYTE PTR [eax+22], 0
; File C:\Anka2Project\Anka2Project\Source\Binary\source\UserInterface\PythonPlayerSettingsModule.h

; 149  : 		{CPythonItem::DROPSOUND_BOW, "sound/ui/equip_bow.wav"},

  001c6	c6 45 fc 03	 mov	 BYTE PTR __$EHRec$[ebp+8], 3
  001ca	0f 57 c0	 xorps	 xmm0, xmm0
; File C:\Program Files\Microsoft Visual Studio\2022\Community\VC\Tools\MSVC\14.44.35207\include\utility

; 274  :         : first(_STD forward<_Other1>(_Val1)), second(_STD forward<_Other2>(_Val2)) {

  001cd	c7 05 70 00 00
	00 02 00 00 00	 mov	 DWORD PTR ?vecDropSoundFileName@@3V?$array@U?$pair@KV?$basic_string@DU?$char_traits@D@std@@V?$allocator@D@2@@std@@@std@@$04@std@@B+112, 2
; File C:\Program Files\Microsoft Visual Studio\2022\Community\VC\Tools\MSVC\14.44.35207\include\xstring

; 493  :         _CONSTEXPR20 _Bxty() noexcept : _Buf() {} // user-provided, for fancy pointers

  001d7	0f 11 05 74 00
	00 00		 movups	 XMMWORD PTR ?vecDropSoundFileName@@3V?$array@U?$pair@KV?$basic_string@DU?$char_traits@D@std@@V?$allocator@D@2@@std@@@std@@$04@std@@B+116, xmm0

; 517  :     size_type _Mysize = 0; // current length of string (size)

  001de	c7 05 84 00 00
	00 00 00 00 00	 mov	 DWORD PTR ?vecDropSoundFileName@@3V?$array@U?$pair@KV?$basic_string@DU?$char_traits@D@std@@V?$allocator@D@2@@std@@@std@@$04@std@@B+132, 0

; 518  :     size_type _Myres  = 0; // current storage reserved for string (capacity)

  001e8	c7 05 88 00 00
	00 00 00 00 00	 mov	 DWORD PTR ?vecDropSoundFileName@@3V?$array@U?$pair@KV?$basic_string@DU?$char_traits@D@std@@V?$allocator@D@2@@std@@@std@@$04@std@@B+136, 0
; File C:\Program Files\Microsoft Visual Studio\2022\Community\VC\Tools\MSVC\14.44.35207\include\xmemory

; 136  :         return ::operator new(_Bytes);

  001f2	6a 20		 push	 32			; 00000020H
  001f4	e8 00 00 00 00	 call	 ??2@YAPAXI@Z		; operator new
; File C:\Program Files\Microsoft Visual Studio\2022\Community\VC\Tools\MSVC\14.44.35207\include\__msvc_string_view.hpp

; 121  :         _CSTD memcpy(_First1, _First2, _Count * sizeof(_Elem));

  001f9	0f 10 05 00 00
	00 00		 movups	 xmm0, XMMWORD PTR ??_C@_0CA@COJJICKC@sound?1ui?1equip_metal_weapon?4wav@
; File C:\Program Files\Microsoft Visual Studio\2022\Community\VC\Tools\MSVC\14.44.35207\include\xmemory

; 256  :         return _Traits::_Allocate(_Bytes);

  00200	8b d0		 mov	 edx, eax
; File C:\Program Files\Microsoft Visual Studio\2022\Community\VC\Tools\MSVC\14.44.35207\include\xstring

; 915  :         _My_data._Mysize = _Count;

  00202	c7 05 84 00 00
	00 1f 00 00 00	 mov	 DWORD PTR ?vecDropSoundFileName@@3V?$array@U?$pair@KV?$basic_string@DU?$char_traits@D@std@@V?$allocator@D@2@@std@@@std@@$04@std@@B+132, 31 ; 0000001fH
  0020c	89 15 74 00 00
	00		 mov	 DWORD PTR ?vecDropSoundFileName@@3V?$array@U?$pair@KV?$basic_string@DU?$char_traits@D@std@@V?$allocator@D@2@@std@@@std@@$04@std@@B+116, edx

; 916  :         _My_data._Myres  = _New_capacity;

  00212	c7 05 88 00 00
	00 1f 00 00 00	 mov	 DWORD PTR ?vecDropSoundFileName@@3V?$array@U?$pair@KV?$basic_string@DU?$char_traits@D@std@@V?$allocator@D@2@@std@@@std@@$04@std@@B+136, 31 ; 0000001fH
; File C:\Anka2Project\Anka2Project\Source\Binary\source\UserInterface\PythonPlayerSettingsModule.h

; 144  : static const std::array<TSoundFileName, CPythonItem::DROPSOUND_NUM> vecDropSoundFileName =

  0021c	68 00 00 00 00	 push	 OFFSET ??__FvecDropSoundFileName@@YAXXZ ; `dynamic atexit destructor for 'vecDropSoundFileName''
; File C:\Program Files\Microsoft Visual Studio\2022\Community\VC\Tools\MSVC\14.44.35207\include\__msvc_string_view.hpp

; 121  :         _CSTD memcpy(_First1, _First2, _Count * sizeof(_Elem));

  00221	0f 11 02	 movups	 XMMWORD PTR [edx], xmm0
  00224	f3 0f 7e 05 10
	00 00 00	 movq	 xmm0, QWORD PTR ??_C@_0CA@COJJICKC@sound?1ui?1equip_metal_weapon?4wav@+16
  0022c	66 0f d6 42 10	 movq	 QWORD PTR [edx+16], xmm0
  00231	8b 0d 18 00 00
	00		 mov	 ecx, DWORD PTR ??_C@_0CA@COJJICKC@sound?1ui?1equip_metal_weapon?4wav@+24
  00237	89 4a 18	 mov	 DWORD PTR [edx+24], ecx
  0023a	0f b7 05 1c 00
	00 00		 movzx	 eax, WORD PTR ??_C@_0CA@COJJICKC@sound?1ui?1equip_metal_weapon?4wav@+28
  00241	66 89 42 1c	 mov	 WORD PTR [edx+28], ax
  00245	a0 1e 00 00 00	 mov	 al, BYTE PTR ??_C@_0CA@COJJICKC@sound?1ui?1equip_metal_weapon?4wav@+30
  0024a	88 42 1e	 mov	 BYTE PTR [edx+30], al
; File C:\Program Files\Microsoft Visual Studio\2022\Community\VC\Tools\MSVC\14.44.35207\include\xstring

; 922  :             _Traits::assign(_Unfancy(_New_ptr)[_Count], _Elem());

  0024d	c6 42 1f 00	 mov	 BYTE PTR [edx+31], 0
; File C:\Anka2Project\Anka2Project\Source\Binary\source\UserInterface\PythonPlayerSettingsModule.h

; 144  : static const std::array<TSoundFileName, CPythonItem::DROPSOUND_NUM> vecDropSoundFileName =

  00251	e8 00 00 00 00	 call	 _atexit
  00256	83 c4 18	 add	 esp, 24			; 00000018H
  00259	8b 4d f4	 mov	 ecx, DWORD PTR __$EHRec$[ebp]
  0025c	64 89 0d 00 00
	00 00		 mov	 DWORD PTR fs:0, ecx
  00263	59		 pop	 ecx
  00264	8b e5		 mov	 esp, ebp
  00266	5d		 pop	 ebp
  00267	c3		 ret	 0
text$di	ENDS
;	COMDAT text$x
text$x	SEGMENT
__unwindfunclet$??__EvecDropSoundFileName@@YAXXZ$0:
  00000	b9 00 00 00 00	 mov	 ecx, OFFSET ?vecDropSoundFileName@@3V?$array@U?$pair@KV?$basic_string@DU?$char_traits@D@std@@V?$allocator@D@2@@std@@@std@@$04@std@@B
  00005	e9 00 00 00 00	 jmp	 ??1?$pair@KV?$basic_string@DU?$char_traits@D@std@@V?$allocator@D@2@@std@@@std@@QAE@XZ
__unwindfunclet$??__EvecDropSoundFileName@@YAXXZ$1:
  0000a	b9 1c 00 00 00	 mov	 ecx, OFFSET ?vecDropSoundFileName@@3V?$array@U?$pair@KV?$basic_string@DU?$char_traits@D@std@@V?$allocator@D@2@@std@@@std@@$04@std@@B+28
  0000f	e9 00 00 00 00	 jmp	 ??1?$pair@KV?$basic_string@DU?$char_traits@D@std@@V?$allocator@D@2@@std@@@std@@QAE@XZ
__unwindfunclet$??__EvecDropSoundFileName@@YAXXZ$2:
  00014	b9 38 00 00 00	 mov	 ecx, OFFSET ?vecDropSoundFileName@@3V?$array@U?$pair@KV?$basic_string@DU?$char_traits@D@std@@V?$allocator@D@2@@std@@@std@@$04@std@@B+56
  00019	e9 00 00 00 00	 jmp	 ??1?$pair@KV?$basic_string@DU?$char_traits@D@std@@V?$allocator@D@2@@std@@@std@@QAE@XZ
__unwindfunclet$??__EvecDropSoundFileName@@YAXXZ$3:
  0001e	b9 54 00 00 00	 mov	 ecx, OFFSET ?vecDropSoundFileName@@3V?$array@U?$pair@KV?$basic_string@DU?$char_traits@D@std@@V?$allocator@D@2@@std@@@std@@$04@std@@B+84
  00023	e9 00 00 00 00	 jmp	 ??1?$pair@KV?$basic_string@DU?$char_traits@D@std@@V?$allocator@D@2@@std@@@std@@QAE@XZ
  00028	cc		 int	 3
  00029	cc		 int	 3
  0002a	cc		 int	 3
  0002b	cc		 int	 3
  0002c	cc		 int	 3
__ehhandler$??__EvecDropSoundFileName@@YAXXZ:
  0002d	90		 npad	 1
  0002e	90		 npad	 1
  0002f	8b 54 24 08	 mov	 edx, DWORD PTR [esp+8]
  00033	8d 42 0c	 lea	 eax, DWORD PTR [edx+12]
  00036	8b 4a fc	 mov	 ecx, DWORD PTR [edx-4]
  00039	33 c8		 xor	 ecx, eax
  0003b	e8 00 00 00 00	 call	 @__security_check_cookie@4
  00040	b8 00 00 00 00	 mov	 eax, OFFSET __ehfuncinfo$??__EvecDropSoundFileName@@YAXXZ
  00045	e9 00 00 00 00	 jmp	 ___CxxFrameHandler3
text$x	ENDS
??__EvecDropSoundFileName@@YAXXZ ENDP			; `dynamic initializer for 'vecDropSoundFileName''
; Function compile flags: /Ogtp
;	COMDAT ??__FvecDropSoundFileName@@YAXXZ
text$yd	SEGMENT
__$EHRec$ = -12						; size = 12
??__FvecDropSoundFileName@@YAXXZ PROC			; `dynamic atexit destructor for 'vecDropSoundFileName'', COMDAT
  00000	55		 push	 ebp
  00001	8b ec		 mov	 ebp, esp
  00003	6a ff		 push	 -1
  00005	68 00 00 00 00	 push	 __ehhandler$??__FvecDropSoundFileName@@YAXXZ
  0000a	64 a1 00 00 00
	00		 mov	 eax, DWORD PTR fs:0
  00010	50		 push	 eax
  00011	a1 00 00 00 00	 mov	 eax, DWORD PTR ___security_cookie
  00016	33 c5		 xor	 eax, ebp
  00018	50		 push	 eax
  00019	8d 45 f4	 lea	 eax, DWORD PTR __$EHRec$[ebp]
  0001c	64 a3 00 00 00
	00		 mov	 DWORD PTR fs:0, eax
  00022	68 00 00 00 00	 push	 OFFSET ??1?$pair@KV?$basic_string@DU?$char_traits@D@std@@V?$allocator@D@2@@std@@@std@@QAE@XZ
  00027	6a 05		 push	 5
  00029	6a 1c		 push	 28			; 0000001cH
  0002b	68 00 00 00 00	 push	 OFFSET ?vecDropSoundFileName@@3V?$array@U?$pair@KV?$basic_string@DU?$char_traits@D@std@@V?$allocator@D@2@@std@@@std@@$04@std@@B
  00030	c7 45 fc 00 00
	00 00		 mov	 DWORD PTR __$EHRec$[ebp+8], 0
  00037	e8 00 00 00 00	 call	 ??_M@YGXPAXIIP6EX0@Z@Z
  0003c	8b 4d f4	 mov	 ecx, DWORD PTR __$EHRec$[ebp]
  0003f	64 89 0d 00 00
	00 00		 mov	 DWORD PTR fs:0, ecx
  00046	59		 pop	 ecx
  00047	8b e5		 mov	 esp, ebp
  00049	5d		 pop	 ebp
  0004a	c3		 ret	 0
  0004b	cc		 int	 3
  0004c	cc		 int	 3
  0004d	cc		 int	 3
  0004e	cc		 int	 3
  0004f	cc		 int	 3
text$yd	ENDS
;	COMDAT text$x
text$x	SEGMENT
__ehhandler$??__FvecDropSoundFileName@@YAXXZ:
  00000	90		 npad	 1
  00001	90		 npad	 1
  00002	8b 54 24 08	 mov	 edx, DWORD PTR [esp+8]
  00006	8d 42 0c	 lea	 eax, DWORD PTR [edx+12]
  00009	8b 4a fc	 mov	 ecx, DWORD PTR [edx-4]
  0000c	33 c8		 xor	 ecx, eax
  0000e	e8 00 00 00 00	 call	 @__security_check_cookie@4
  00013	b8 00 00 00 00	 mov	 eax, OFFSET __ehfuncinfo$??__FvecDropSoundFileName@@YAXXZ
  00018	e9 00 00 00 00	 jmp	 ___CxxFrameHandler3
text$x	ENDS
??__FvecDropSoundFileName@@YAXXZ ENDP			; `dynamic atexit destructor for 'vecDropSoundFileName''
; Function compile flags: /Ogtp
; File C:\Anka2Project\Anka2Project\Source\Binary\source\UserInterface\PythonPlayerSettingsModule.h
; File C:\Program Files\Microsoft Visual Studio\2022\Community\VC\Tools\MSVC\14.44.35207\include\tuple
; File C:\Anka2Project\Anka2Project\Source\Binary\source\UserInterface\PythonPlayerSettingsModule.h
; File C:\Program Files\Microsoft Visual Studio\2022\Community\VC\Tools\MSVC\14.44.35207\include\tuple
; File C:\Anka2Project\Anka2Project\Source\Binary\source\UserInterface\PythonPlayerSettingsModule.h
; File C:\Program Files\Microsoft Visual Studio\2022\Community\VC\Tools\MSVC\14.44.35207\include\tuple
; File C:\Anka2Project\Anka2Project\Source\Binary\source\UserInterface\PythonPlayerSettingsModule.h
; File C:\Program Files\Microsoft Visual Studio\2022\Community\VC\Tools\MSVC\14.44.35207\include\tuple
; File C:\Anka2Project\Anka2Project\Source\Binary\source\UserInterface\PythonPlayerSettingsModule.h
; File C:\Program Files\Microsoft Visual Studio\2022\Community\VC\Tools\MSVC\14.44.35207\include\initializer_list
; File C:\Anka2Project\Anka2Project\Source\Binary\source\UserInterface\PythonPlayerSettingsModule.h
; File C:\Program Files\Microsoft Visual Studio\2022\Community\VC\Tools\MSVC\14.44.35207\include\initializer_list
; File C:\Anka2Project\Anka2Project\Source\Binary\source\UserInterface\PythonPlayerSettingsModule.h
;	COMDAT ??__EvecEffectList@@YAXXZ
text$di	SEGMENT
$T742 = -2040						; size = 1
$T744 = -2039						; size = 1
$T746 = -2038						; size = 1
$T1 = -2037						; size = 1
$T741 = -2036						; size = 4
$T743 = -2032						; size = 4
$T745 = -2028						; size = 4
$T4 = -2024						; size = 2016
__$ArrayPad$ = -4					; size = 4
??__EvecEffectList@@YAXXZ PROC				; `dynamic initializer for 'vecEffectList'', COMDAT

; 403  : };

  00000	55		 push	 ebp
  00001	8b ec		 mov	 ebp, esp
  00003	83 e4 f8	 and	 esp, -8			; fffffff8H
  00006	81 ec f8 07 00
	00		 sub	 esp, 2040		; 000007f8H
  0000c	a1 00 00 00 00	 mov	 eax, DWORD PTR ___security_cookie
  00011	33 c4		 xor	 eax, esp
  00013	89 84 24 f4 07
	00 00		 mov	 DWORD PTR __$ArrayPad$[esp+2040], eax
; File C:\Program Files\Microsoft Visual Studio\2022\Community\VC\Tools\MSVC\14.44.35207\include\tuple

; 132  :     constexpr _Tuple_val(_Other&& _Arg) : _Val(_STD forward<_Other>(_Arg)) {}

  0001a	c6 44 24 10 01	 mov	 BYTE PTR $T4[esp+2040], 1
  0001f	c7 44 24 14 00
	00 00 00	 mov	 DWORD PTR $T4[esp+2044], OFFSET ??_C@_0DG@MNIDINPI@d?3?1ymir?5work?1effect?1etc?1appear_@
  00027	c7 44 24 18 00
	00 00 00	 mov	 DWORD PTR $T4[esp+2048], OFFSET ??_C@_05BBIGKCLJ@Bip01@
  0002f	c7 44 24 1c 09
	00 00 00	 mov	 DWORD PTR $T4[esp+2052], 9
  00037	c6 44 24 20 01	 mov	 BYTE PTR $T4[esp+2056], 1
  0003c	c7 44 24 24 00
	00 00 00	 mov	 DWORD PTR $T4[esp+2060], OFFSET ??_C@_0DD@JEPOMPGJ@d?3?1ymir?5work?1effect?1etc?1appear_@
  00044	c7 44 24 28 00
	00 00 00	 mov	 DWORD PTR $T4[esp+2064], OFFSET ??_C@_05BBIGKCLJ@Bip01@
  0004c	c7 44 24 2c 0a
	00 00 00	 mov	 DWORD PTR $T4[esp+2068], 10 ; 0000000aH
  00054	c6 44 24 30 01	 mov	 BYTE PTR $T4[esp+2072], 1
  00059	c7 44 24 34 00
	00 00 00	 mov	 DWORD PTR $T4[esp+2076], OFFSET ??_C@_0DG@KJDCFPII@d?3?1ymir?5work?1effect?1hit?1blow_fl@
  00061	c7 44 24 38 00
	00 00 00	 mov	 DWORD PTR $T4[esp+2080], OFFSET ??_C@_0BB@BPFBADGN@equip_right_hand@
  00069	c7 44 24 3c 03
	00 00 00	 mov	 DWORD PTR $T4[esp+2084], 3
  00071	c6 44 24 40 01	 mov	 BYTE PTR $T4[esp+2088], 1
  00076	c7 44 24 44 00
	00 00 00	 mov	 DWORD PTR $T4[esp+2092], OFFSET ??_C@_0DE@OJIBILHC@d?3?1ymir?5work?1effect?1hit?1blow_fl@
  0007e	c7 44 24 48 00
	00 00 00	 mov	 DWORD PTR $T4[esp+2096], OFFSET ??_C@_00CNPNBAHC@@
  00086	c7 44 24 4c 04
	00 00 00	 mov	 DWORD PTR $T4[esp+2100], 4
  0008e	c6 44 24 50 01	 mov	 BYTE PTR $T4[esp+2104], 1
  00093	c7 44 24 54 00
	00 00 00	 mov	 DWORD PTR $T4[esp+2108], OFFSET ??_C@_0DE@FPADLJBL@d?3?1ymir?5work?1effect?1hit?1blow_fl@
  0009b	c7 44 24 58 00
	00 00 00	 mov	 DWORD PTR $T4[esp+2112], OFFSET ??_C@_00CNPNBAHC@@
  000a3	c7 44 24 5c 05
	00 00 00	 mov	 DWORD PTR $T4[esp+2116], 5
  000ab	c6 44 24 60 01	 mov	 BYTE PTR $T4[esp+2120], 1
  000b0	c7 44 24 64 00
	00 00 00	 mov	 DWORD PTR $T4[esp+2124], OFFSET ??_C@_0DJ@JDHCNJPF@d?3?1ymir?5work?1effect?1hit?1blow_el@
  000b8	c7 44 24 68 00
	00 00 00	 mov	 DWORD PTR $T4[esp+2128], OFFSET ??_C@_0M@OLLEIOHA@equip_right@
  000c0	c7 44 24 6c 06
	00 00 00	 mov	 DWORD PTR $T4[esp+2132], 6
  000c8	c6 44 24 70 01	 mov	 BYTE PTR $T4[esp+2136], 1
  000cd	c7 44 24 74 00
	00 00 00	 mov	 DWORD PTR $T4[esp+2140], OFFSET ??_C@_0DH@DBPGLNCF@d?3?1ymir?5work?1effect?1hit?1blow_el@
  000d5	c7 44 24 78 00
	00 00 00	 mov	 DWORD PTR $T4[esp+2144], OFFSET ??_C@_00CNPNBAHC@@
  000dd	c7 44 24 7c 07
	00 00 00	 mov	 DWORD PTR $T4[esp+2148], 7
  000e5	c6 84 24 80 00
	00 00 01	 mov	 BYTE PTR $T4[esp+2152], 1
  000ed	c7 84 24 84 00
	00 00 00 00 00
	00		 mov	 DWORD PTR $T4[esp+2156], OFFSET ??_C@_0DH@IHHEIPEM@d?3?1ymir?5work?1effect?1hit?1blow_el@
  000f8	c7 84 24 88 00
	00 00 00 00 00
	00		 mov	 DWORD PTR $T4[esp+2160], OFFSET ??_C@_00CNPNBAHC@@
  00103	c7 84 24 8c 00
	00 00 08 00 00
	00		 mov	 DWORD PTR $T4[esp+2164], 8
  0010e	c6 84 24 90 00
	00 00 01	 mov	 BYTE PTR $T4[esp+2168], 1
  00116	c7 84 24 94 00
	00 00 00 00 00
	00		 mov	 DWORD PTR $T4[esp+2172], OFFSET ??_C@_0CN@NIGJEOKG@d?3?1ymir?5work?1effect?1etc?1boss_ef@
  00121	c7 84 24 98 00
	00 00 00 00 00
	00		 mov	 DWORD PTR $T4[esp+2176], OFFSET ??_C@_00CNPNBAHC@@
  0012c	c7 84 24 9c 00
	00 00 2c 01 00
	00		 mov	 DWORD PTR $T4[esp+2180], 300 ; 0000012cH
  00137	c6 84 24 a0 00
	00 00 01	 mov	 BYTE PTR $T4[esp+2184], 1
  0013f	c7 84 24 a4 00
	00 00 00 00 00
	00		 mov	 DWORD PTR $T4[esp+2188], OFFSET ??_C@_0CP@IEGOOEJL@d?3?1ymir?5work?1effect?1etc?1levelup@
  0014a	c7 84 24 a8 00
	00 00 00 00 00
	00		 mov	 DWORD PTR $T4[esp+2192], OFFSET ??_C@_00CNPNBAHC@@
  00155	c7 84 24 ac 00
	00 00 0b 00 00
	00		 mov	 DWORD PTR $T4[esp+2196], 11 ; 0000000bH
  00160	c6 84 24 b0 00
	00 00 01	 mov	 BYTE PTR $T4[esp+2200], 1
  00168	c7 84 24 b4 00
	00 00 00 00 00
	00		 mov	 DWORD PTR $T4[esp+2204], OFFSET ??_C@_0CO@BGKHBBGO@d?3?1ymir?5work?1effect?1etc?1skillup@
  00173	c7 84 24 b8 00
	00 00 00 00 00
	00		 mov	 DWORD PTR $T4[esp+2208], OFFSET ??_C@_00CNPNBAHC@@
  0017e	c7 84 24 bc 00
	00 00 0c 00 00
	00		 mov	 DWORD PTR $T4[esp+2212], 12 ; 0000000cH
  00189	c6 84 24 c0 00
	00 00 01	 mov	 BYTE PTR $T4[esp+2216], 1
  00191	c7 84 24 c4 00
	00 00 00 00 00
	00		 mov	 DWORD PTR $T4[esp+2220], OFFSET ??_C@_0CM@IHKFDKKE@d?3?1ymir?5work?1effect?1etc?1empire?1@
  0019c	c7 84 24 c8 00
	00 00 00 00 00
	00		 mov	 DWORD PTR $T4[esp+2224], OFFSET ??_C@_05BBIGKCLJ@Bip01@
  001a7	c7 84 24 cc 00
	00 00 e0 00 00
	00		 mov	 DWORD PTR $T4[esp+2228], 224 ; 000000e0H
  001b2	c6 84 24 d0 00
	00 00 01	 mov	 BYTE PTR $T4[esp+2232], 1
  001ba	c7 84 24 d4 00
	00 00 00 00 00
	00		 mov	 DWORD PTR $T4[esp+2236], OFFSET ??_C@_0CM@BDBEIAK@d?3?1ymir?5work?1effect?1etc?1empire?1@
  001c5	c7 84 24 d8 00
	00 00 00 00 00
	00		 mov	 DWORD PTR $T4[esp+2240], OFFSET ??_C@_05BBIGKCLJ@Bip01@
  001d0	c7 84 24 dc 00
	00 00 e1 00 00
	00		 mov	 DWORD PTR $T4[esp+2244], 225 ; 000000e1H
  001db	c6 84 24 e0 00
	00 00 01	 mov	 BYTE PTR $T4[esp+2248], 1
  001e3	c7 84 24 e4 00
	00 00 00 00 00
	00		 mov	 DWORD PTR $T4[esp+2252], OFFSET ??_C@_0CM@MKGNJLKP@d?3?1ymir?5work?1effect?1etc?1empire?1@
  001ee	c7 84 24 e8 00
	00 00 00 00 00
	00		 mov	 DWORD PTR $T4[esp+2256], OFFSET ??_C@_05BBIGKCLJ@Bip01@
  001f9	c7 84 24 ec 00
	00 00 e2 00 00
	00		 mov	 DWORD PTR $T4[esp+2260], 226 ; 000000e2H
  00204	c6 84 24 f0 00
	00 00 01	 mov	 BYTE PTR $T4[esp+2264], 1
  0020c	c7 84 24 f4 00
	00 00 00 00 00
	00		 mov	 DWORD PTR $T4[esp+2268], OFFSET ??_C@_0DD@EOBPHODL@d?3?1ymir?5work?1pc?1warrior?1effect?1@
  00217	c7 84 24 f8 00
	00 00 00 00 00
	00		 mov	 DWORD PTR $T4[esp+2272], OFFSET ??_C@_0BB@BPFBADGN@equip_right_hand@
  00222	c7 84 24 fc 00
	00 00 18 00 00
	00		 mov	 DWORD PTR $T4[esp+2276], 24 ; 00000018H
  0022d	c6 84 24 00 01
	00 00 01	 mov	 BYTE PTR $T4[esp+2280], 1
  00235	c7 84 24 04 01
	00 00 00 00 00
	00		 mov	 DWORD PTR $T4[esp+2284], OFFSET ??_C@_0DD@CMEIIDFJ@d?3?1ymir?5work?1pc?1warrior?1effect?1@
  00240	c7 84 24 08 01
	00 00 00 00 00
	00		 mov	 DWORD PTR $T4[esp+2288], OFFSET ??_C@_0BB@BPFBADGN@equip_right_hand@
  0024b	c7 84 24 0c 01
	00 00 19 00 00
	00		 mov	 DWORD PTR $T4[esp+2292], 25 ; 00000019H
  00256	c6 84 24 10 01
	00 00 01	 mov	 BYTE PTR $T4[esp+2296], 1
  0025e	c7 84 24 14 01
	00 00 00 00 00
	00		 mov	 DWORD PTR $T4[esp+2300], OFFSET ??_C@_0DE@KJMEEODN@d?3?1ymir?5work?1effect?1hit?1blow_po@
  00269	c7 84 24 18 01
	00 00 00 00 00
	00		 mov	 DWORD PTR $T4[esp+2304], OFFSET ??_C@_05BBIGKCLJ@Bip01@
  00274	c7 84 24 1c 01
	00 00 1e 00 00
	00		 mov	 DWORD PTR $T4[esp+2308], 30 ; 0000001eH
  0027f	c6 84 24 20 01
	00 00 01	 mov	 BYTE PTR $T4[esp+2312], 1
  00287	c7 84 24 24 01
	00 00 00 00 00
	00		 mov	 DWORD PTR $T4[esp+2316], OFFSET ??_C@_0CE@FPDCDHKE@d?3?1ymir?5work?1effect?1affect?1slow@
  00292	c7 84 24 28 01
	00 00 00 00 00
	00		 mov	 DWORD PTR $T4[esp+2320], OFFSET ??_C@_00CNPNBAHC@@
  0029d	c7 84 24 2c 01
	00 00 1f 00 00
	00		 mov	 DWORD PTR $T4[esp+2324], 31 ; 0000001fH
  002a8	c6 84 24 30 01
	00 00 01	 mov	 BYTE PTR $T4[esp+2328], 1
  002b0	c7 84 24 34 01
	00 00 00 00 00
	00		 mov	 DWORD PTR $T4[esp+2332], OFFSET ??_C@_0CL@IPGAJMDP@d?3?1ymir?5work?1effect?1etc?1stun?1st@
  002bb	c7 84 24 38 01
	00 00 00 00 00
	00		 mov	 DWORD PTR $T4[esp+2336], OFFSET ??_C@_0L@GHIHOBPC@Bip01?5Head@
  002c6	c7 84 24 3c 01
	00 00 20 00 00
	00		 mov	 DWORD PTR $T4[esp+2340], 32 ; 00000020H
  002d1	c6 84 24 40 01
	00 00 01	 mov	 BYTE PTR $T4[esp+2344], 1
  002d9	c7 84 24 44 01
	00 00 00 00 00
	00		 mov	 DWORD PTR $T4[esp+2348], OFFSET ??_C@_0CI@CBNNNGMC@d?3?1ymir?5work?1effect?1etc?1ready?1r@
  002e4	c7 84 24 48 01
	00 00 00 00 00
	00		 mov	 DWORD PTR $T4[esp+2352], OFFSET ??_C@_00CNPNBAHC@@
  002ef	c7 84 24 4c 01
	00 00 21 00 00
	00		 mov	 DWORD PTR $T4[esp+2356], 33 ; 00000021H
  002fa	c6 84 24 50 01
	00 00 01	 mov	 BYTE PTR $T4[esp+2360], 1
  00302	c7 84 24 54 01
	00 00 00 00 00
	00		 mov	 DWORD PTR $T4[esp+2364], OFFSET ??_C@_0DG@JMJLCJCB@d?3?1ymir?5work?1pc?1warrior?1effect?1@
  0030d	c7 84 24 58 01
	00 00 00 00 00
	00		 mov	 DWORD PTR $T4[esp+2368], OFFSET ??_C@_00CNPNBAHC@@
  00318	c7 84 24 5c 01
	00 00 2b 00 00
	00		 mov	 DWORD PTR $T4[esp+2372], 43 ; 0000002bH
  00323	c6 84 24 60 01
	00 00 01	 mov	 BYTE PTR $T4[esp+2376], 1
  0032b	c7 84 24 64 01
	00 00 00 00 00
	00		 mov	 DWORD PTR $T4[esp+2380], OFFSET ??_C@_0DE@JCKMOOOL@d?3?1ymir?5work?1pc?1assassin?1effect@
  00336	c7 84 24 68 01
	00 00 00 00 00
	00		 mov	 DWORD PTR $T4[esp+2384], OFFSET ??_C@_00CNPNBAHC@@
  00341	c7 84 24 6c 01
	00 00 2c 00 00
	00		 mov	 DWORD PTR $T4[esp+2388], 44 ; 0000002cH
  0034c	c6 84 24 70 01
	00 00 01	 mov	 BYTE PTR $T4[esp+2392], 1
  00354	c7 84 24 74 01
	00 00 00 00 00
	00		 mov	 DWORD PTR $T4[esp+2396], OFFSET ??_C@_0CN@LGPPPMOM@d?3?1ymir?5work?1pc?1sura?1effect?1gwi@
  0035f	c7 84 24 78 01
	00 00 00 00 00
	00		 mov	 DWORD PTR $T4[esp+2400], OFFSET ??_C@_0BA@LANKCOK@Bip01?5R?5Finger2@
  0036a	c7 84 24 7c 01
	00 00 2e 00 00
	00		 mov	 DWORD PTR $T4[esp+2404], 46 ; 0000002eH
  00375	c6 84 24 80 01
	00 00 01	 mov	 BYTE PTR $T4[esp+2408], 1
  0037d	c7 84 24 84 01
	00 00 00 00 00
	00		 mov	 DWORD PTR $T4[esp+2412], OFFSET ??_C@_0CK@CIALJCLA@d?3?1ymir?5work?1pc?1sura?1effect?1fea@
  00388	c7 84 24 88 01
	00 00 00 00 00
	00		 mov	 DWORD PTR $T4[esp+2416], OFFSET ??_C@_00CNPNBAHC@@
  00393	c7 84 24 8c 01
	00 00 2f 00 00
	00		 mov	 DWORD PTR $T4[esp+2420], 47 ; 0000002fH
  0039e	c6 84 24 90 01
	00 00 01	 mov	 BYTE PTR $T4[esp+2424], 1
  003a6	c7 84 24 94 01
	00 00 00 00 00
	00		 mov	 DWORD PTR $T4[esp+2428], OFFSET ??_C@_0CN@LNFALLNB@d?3?1ymir?5work?1pc?1sura?1effect?1jum@
  003b1	c7 84 24 98 01
	00 00 00 00 00
	00		 mov	 DWORD PTR $T4[esp+2432], OFFSET ??_C@_00CNPNBAHC@@
  003bc	c7 84 24 9c 01
	00 00 30 00 00
	00		 mov	 DWORD PTR $T4[esp+2436], 48 ; 00000030H
  003c7	c6 84 24 a0 01
	00 00 01	 mov	 BYTE PTR $T4[esp+2440], 1
  003cf	c7 84 24 a4 01
	00 00 00 00 00
	00		 mov	 DWORD PTR $T4[esp+2444], OFFSET ??_C@_0CO@IDBDIMLN@d?3?1ymir?5work?1pc?1shaman?1effect?13@
  003da	c7 84 24 a8 01
	00 00 00 00 00
	00		 mov	 DWORD PTR $T4[esp+2448], OFFSET ??_C@_00CNPNBAHC@@
  003e5	c7 84 24 ac 01
	00 00 31 00 00
	00		 mov	 DWORD PTR $T4[esp+2452], 49 ; 00000031H
  003f0	c6 84 24 b0 01
	00 00 01	 mov	 BYTE PTR $T4[esp+2456], 1
  003f8	c7 84 24 b4 01
	00 00 00 00 00
	00		 mov	 DWORD PTR $T4[esp+2460], OFFSET ??_C@_0CM@LPKODKL@d?3?1ymir?5work?1pc?1shaman?1effect?1b@
  00403	c7 84 24 b8 01
	00 00 00 00 00
	00		 mov	 DWORD PTR $T4[esp+2464], OFFSET ??_C@_00CNPNBAHC@@
  0040e	c7 84 24 bc 01
	00 00 32 00 00
	00		 mov	 DWORD PTR $T4[esp+2468], 50 ; 00000032H
  00419	c6 84 24 c0 01
	00 00 01	 mov	 BYTE PTR $T4[esp+2472], 1
  00421	c7 84 24 c4 01
	00 00 00 00 00
	00		 mov	 DWORD PTR $T4[esp+2476], OFFSET ??_C@_0DB@JOKHCNEG@d?3?1ymir?5work?1pc?1shaman?1effect?11@
  0042c	c7 84 24 c8 01
	00 00 00 00 00
	00		 mov	 DWORD PTR $T4[esp+2480], OFFSET ??_C@_00CNPNBAHC@@
  00437	c7 84 24 cc 01
	00 00 33 00 00
	00		 mov	 DWORD PTR $T4[esp+2484], 51 ; 00000033H
  00442	c6 84 24 d0 01
	00 00 01	 mov	 BYTE PTR $T4[esp+2488], 1
  0044a	c7 84 24 d4 01
	00 00 00 00 00
	00		 mov	 DWORD PTR $T4[esp+2492], OFFSET ??_C@_0CN@FIKFMJKE@d?3?1ymir?5work?1pc?1sura?1effect?1heu@
  00455	c7 84 24 d8 01
	00 00 00 00 00
	00		 mov	 DWORD PTR $T4[esp+2496], OFFSET ??_C@_00CNPNBAHC@@
  00460	c7 84 24 dc 01
	00 00 34 00 00
	00		 mov	 DWORD PTR $T4[esp+2500], 52 ; 00000034H
  0046b	c6 84 24 e0 01
	00 00 01	 mov	 BYTE PTR $T4[esp+2504], 1
  00473	c7 84 24 e4 01
	00 00 00 00 00
	00		 mov	 DWORD PTR $T4[esp+2508], OFFSET ??_C@_0CN@OFCKCPPJ@d?3?1ymir?5work?1pc?1sura?1effect?1muy@
  0047e	c7 84 24 e8 01
	00 00 00 00 00
	00		 mov	 DWORD PTR $T4[esp+2512], OFFSET ??_C@_00CNPNBAHC@@
  00489	c7 84 24 ec 01
	00 00 35 00 00
	00		 mov	 DWORD PTR $T4[esp+2516], 53 ; 00000035H
  00494	c6 84 24 f0 01
	00 00 01	 mov	 BYTE PTR $T4[esp+2520], 1
  0049c	c7 84 24 f4 01
	00 00 00 00 00
	00		 mov	 DWORD PTR $T4[esp+2524], OFFSET ??_C@_0DC@JEFOLNDJ@d?3?1ymir?5work?1effect?1hit?1blow_fl@
  004a7	c7 84 24 f8 01
	00 00 00 00 00
	00		 mov	 DWORD PTR $T4[esp+2528], OFFSET ??_C@_05BBIGKCLJ@Bip01@
  004b2	c7 84 24 fc 01
	00 00 37 00 00
	00		 mov	 DWORD PTR $T4[esp+2532], 55 ; 00000037H
  004bd	c6 84 24 00 02
	00 00 01	 mov	 BYTE PTR $T4[esp+2536], 1
  004c5	c7 84 24 04 02
	00 00 00 00 00
	00		 mov	 DWORD PTR $T4[esp+2540], OFFSET ??_C@_0DA@CCOAHJOP@d?3?1ymir?5work?1pc?1shaman?1effect?16@
  004d0	c7 84 24 08 02
	00 00 00 00 00
	00		 mov	 DWORD PTR $T4[esp+2544], OFFSET ??_C@_0N@NFGLJLMH@Bip01?5R?5Hand@
  004db	c7 84 24 0c 02
	00 00 38 00 00
	00		 mov	 DWORD PTR $T4[esp+2548], 56 ; 00000038H
  004e6	c6 84 24 10 02
	00 00 01	 mov	 BYTE PTR $T4[esp+2552], 1
  004ee	c7 84 24 14 02
	00 00 00 00 00
	00		 mov	 DWORD PTR $T4[esp+2556], OFFSET ??_C@_0DC@GCFCFGML@d?3?1ymir?5work?1pc?1shaman?1effect?1j@
  004f9	c7 84 24 18 02
	00 00 00 00 00
	00		 mov	 DWORD PTR $T4[esp+2560], OFFSET ??_C@_0N@OCIKHMFE@Bip01?5L?5Hand@
  00504	c7 84 24 1c 02
	00 00 39 00 00
	00		 mov	 DWORD PTR $T4[esp+2564], 57 ; 00000039H
  0050f	c6 84 24 20 02
	00 00 01	 mov	 BYTE PTR $T4[esp+2568], 1
  00517	c7 84 24 24 02
	00 00 00 00 00
	00		 mov	 DWORD PTR $T4[esp+2572], OFFSET ??_C@_0CM@CCAFDLBP@d?3?1ymir?5work?1pc?1sura?1effect?1pab@
  00522	c7 84 24 28 02
	00 00 00 00 00
	00		 mov	 DWORD PTR $T4[esp+2576], OFFSET ??_C@_0L@GHIHOBPC@Bip01?5Head@
  0052d	c7 84 24 2c 02
	00 00 3b 00 00
	00		 mov	 DWORD PTR $T4[esp+2580], 59 ; 0000003bH
  00538	c6 84 24 30 02
	00 00 01	 mov	 BYTE PTR $T4[esp+2584], 1
  00540	c7 84 24 34 02
	00 00 00 00 00
	00		 mov	 DWORD PTR $T4[esp+2588], OFFSET ??_C@_0DG@JMJLCJCB@d?3?1ymir?5work?1pc?1warrior?1effect?1@
  0054b	c7 84 24 38 02
	00 00 00 00 00
	00		 mov	 DWORD PTR $T4[esp+2592], OFFSET ??_C@_00CNPNBAHC@@
  00556	c7 84 24 3c 02
	00 00 3c 00 00
	00		 mov	 DWORD PTR $T4[esp+2596], 60 ; 0000003cH
  00561	c6 84 24 40 02
	00 00 01	 mov	 BYTE PTR $T4[esp+2600], 1
  00569	c7 84 24 44 02
	00 00 00 00 00
	00		 mov	 DWORD PTR $T4[esp+2604], OFFSET ??_C@_0DE@OPIDGJBC@d?3?1ymir?5work?1effect?1etc?1guild_w@
  00574	c7 84 24 48 02
	00 00 00 00 00
	00		 mov	 DWORD PTR $T4[esp+2608], OFFSET ??_C@_00CNPNBAHC@@
  0057f	c7 84 24 4c 02
	00 00 3e 00 00
	00		 mov	 DWORD PTR $T4[esp+2612], 62 ; 0000003eH
  0058a	c6 84 24 50 02
	00 00 01	 mov	 BYTE PTR $T4[esp+2616], 1
  00592	c7 84 24 54 02
	00 00 00 00 00
	00		 mov	 DWORD PTR $T4[esp+2620], OFFSET ??_C@_0DF@ELFLIELL@d?3?1ymir?5work?1effect?1etc?1guild_w@
  0059d	c7 84 24 58 02
	00 00 00 00 00
	00		 mov	 DWORD PTR $T4[esp+2624], OFFSET ??_C@_00CNPNBAHC@@
  005a8	c7 84 24 5c 02
	00 00 3f 00 00
	00		 mov	 DWORD PTR $T4[esp+2628], 63 ; 0000003fH
  005b3	c6 84 24 60 02
	00 00 01	 mov	 BYTE PTR $T4[esp+2632], 1
  005bb	c7 84 24 64 02
	00 00 00 00 00
	00		 mov	 DWORD PTR $T4[esp+2636], OFFSET ??_C@_0DH@IIDBMJBL@d?3?1ymir?5work?1effect?1etc?1guild_w@
  005c6	c7 84 24 68 02
	00 00 00 00 00
	00		 mov	 DWORD PTR $T4[esp+2640], OFFSET ??_C@_00CNPNBAHC@@
  005d1	c7 84 24 6c 02
	00 00 40 00 00
	00		 mov	 DWORD PTR $T4[esp+2644], 64 ; 00000040H
  005dc	c6 84 24 70 02
	00 00 01	 mov	 BYTE PTR $T4[esp+2648], 1
  005e4	c7 84 24 74 02
	00 00 00 00 00
	00		 mov	 DWORD PTR $T4[esp+2652], OFFSET ??_C@_0CL@OEFHPFHK@d?3?1ymir?5work?1effect?1autohunt?1au@
  005ef	c7 84 24 78 02
	00 00 00 00 00
	00		 mov	 DWORD PTR $T4[esp+2656], OFFSET ??_C@_05BBIGKCLJ@Bip01@
  005fa	c7 84 24 7c 02
	00 00 41 00 00
	00		 mov	 DWORD PTR $T4[esp+2660], 65 ; 00000041H
  00605	c6 84 24 80 02
	00 00 01	 mov	 BYTE PTR $T4[esp+2664], 1
  0060d	c7 84 24 84 02
	00 00 00 00 00
	00		 mov	 DWORD PTR $T4[esp+2668], OFFSET ??_C@_0CM@GNEGOGBH@d?3?1ymir?5work?1ui?1game?1staff_effe@
  00618	c7 84 24 88 02
	00 00 00 00 00
	00		 mov	 DWORD PTR $T4[esp+2672], OFFSET ??_C@_05BBIGKCLJ@Bip01@
  00623	c7 84 24 8c 02
	00 00 45 00 00
	00		 mov	 DWORD PTR $T4[esp+2676], 69 ; 00000045H
  0062e	c6 84 24 90 02
	00 00 01	 mov	 BYTE PTR $T4[esp+2680], 1
  00636	c7 84 24 94 02
	00 00 00 00 00
	00		 mov	 DWORD PTR $T4[esp+2684], OFFSET ??_C@_0CM@NAJCHPFI@d?3?1ymir?5work?1ui?1game?1staff_effe@
  00641	c7 84 24 98 02
	00 00 00 00 00
	00		 mov	 DWORD PTR $T4[esp+2688], OFFSET ??_C@_05BBIGKCLJ@Bip01@
  0064c	c7 84 24 9c 02
	00 00 46 00 00
	00		 mov	 DWORD PTR $T4[esp+2692], 70 ; 00000046H
  00657	c6 84 24 a0 02
	00 00 01	 mov	 BYTE PTR $T4[esp+2696], 1
  0065f	c7 84 24 a4 02
	00 00 00 00 00
	00		 mov	 DWORD PTR $T4[esp+2700], OFFSET ??_C@_0CM@EBGEEMDH@d?3?1ymir?5work?1ui?1game?1staff_effe@
  0066a	c7 84 24 a8 02
	00 00 00 00 00
	00		 mov	 DWORD PTR $T4[esp+2704], OFFSET ??_C@_05BBIGKCLJ@Bip01@
  00675	c7 84 24 ac 02
	00 00 47 00 00
	00		 mov	 DWORD PTR $T4[esp+2708], 71 ; 00000047H
  00680	c6 84 24 b0 02
	00 00 01	 mov	 BYTE PTR $T4[esp+2712], 1
  00688	c7 84 24 b4 02
	00 00 00 00 00
	00		 mov	 DWORD PTR $T4[esp+2716], OFFSET ??_C@_0CO@HACMINDF@d?3?1ymir?5work?1ui?1game?1staff_effe@
  00693	c7 84 24 b8 02
	00 00 00 00 00
	00		 mov	 DWORD PTR $T4[esp+2720], OFFSET ??_C@_05BBIGKCLJ@Bip01@
  0069e	c7 84 24 bc 02
	00 00 48 00 00
	00		 mov	 DWORD PTR $T4[esp+2724], 72 ; 00000048H
  006a9	c6 84 24 c0 02
	00 00 01	 mov	 BYTE PTR $T4[esp+2728], 1
  006b1	c7 84 24 c4 02
	00 00 00 00 00
	00		 mov	 DWORD PTR $T4[esp+2732], OFFSET ??_C@_0DA@GECHCBE@D?3?1ymir?5work?1pc?1common?1effect?1s@
  006bc	c7 84 24 c8 02
	00 00 00 00 00
	00		 mov	 DWORD PTR $T4[esp+2736], OFFSET ??_C@_0M@LDILJIBN@PART_WEAPON@
  006c7	c7 84 24 cc 02
	00 00 e6 00 00
	00		 mov	 DWORD PTR $T4[esp+2740], 230 ; 000000e6H
  006d2	c6 84 24 d0 02
	00 00 01	 mov	 BYTE PTR $T4[esp+2744], 1
  006da	c7 84 24 d4 02
	00 00 00 00 00
	00		 mov	 DWORD PTR $T4[esp+2748], OFFSET ??_C@_0DA@PHBEMAMB@D?3?1ymir?5work?1pc?1common?1effect?1s@
  006e5	c7 84 24 d8 02
	00 00 00 00 00
	00		 mov	 DWORD PTR $T4[esp+2752], OFFSET ??_C@_0M@LDILJIBN@PART_WEAPON@
  006f0	c7 84 24 dc 02
	00 00 e7 00 00
	00		 mov	 DWORD PTR $T4[esp+2756], 231 ; 000000e7H
  006fb	c6 84 24 e0 02
	00 00 01	 mov	 BYTE PTR $T4[esp+2760], 1
  00703	c7 84 24 e4 02
	00 00 00 00 00
	00		 mov	 DWORD PTR $T4[esp+2764], OFFSET ??_C@_0DA@DMEIBDGE@D?3?1ymir?5work?1pc?1common?1effect?1s@
  0070e	c7 84 24 e8 02
	00 00 00 00 00
	00		 mov	 DWORD PTR $T4[esp+2768], OFFSET ??_C@_0M@LDILJIBN@PART_WEAPON@
  00719	c7 84 24 ec 02
	00 00 e8 00 00
	00		 mov	 DWORD PTR $T4[esp+2772], 232 ; 000000e8H
  00724	c6 84 24 f0 02
	00 00 01	 mov	 BYTE PTR $T4[esp+2776], 1
  0072c	c7 84 24 f4 02
	00 00 00 00 00
	00		 mov	 DWORD PTR $T4[esp+2780], OFFSET ??_C@_0DC@GAOGMCDD@D?3?1ymir?5work?1pc?1common?1effect?1s@
  00737	c7 84 24 f8 02
	00 00 00 00 00
	00		 mov	 DWORD PTR $T4[esp+2784], OFFSET ??_C@_0BB@KENNFNCF@PART_WEAPON_LEFT@
  00742	c7 84 24 fc 02
	00 00 e9 00 00
	00		 mov	 DWORD PTR $T4[esp+2788], 233 ; 000000e9H
  0074d	c6 84 24 00 03
	00 00 01	 mov	 BYTE PTR $T4[esp+2792], 1
  00755	c7 84 24 04 03
	00 00 00 00 00
	00		 mov	 DWORD PTR $T4[esp+2796], OFFSET ??_C@_0DC@LJMGNAJP@D?3?1ymir?5work?1pc?1common?1effect?1s@
  00760	c7 84 24 08 03
	00 00 00 00 00
	00		 mov	 DWORD PTR $T4[esp+2800], OFFSET ??_C@_0BB@KENNFNCF@PART_WEAPON_LEFT@
  0076b	c7 84 24 0c 03
	00 00 ea 00 00
	00		 mov	 DWORD PTR $T4[esp+2804], 234 ; 000000eaH
  00776	c6 84 24 10 03
	00 00 01	 mov	 BYTE PTR $T4[esp+2808], 1
  0077e	c7 84 24 14 03
	00 00 00 00 00
	00		 mov	 DWORD PTR $T4[esp+2812], OFFSET ??_C@_0DC@HFGMNAAB@D?3?1ymir?5work?1pc?1common?1effect?1s@
  00789	c7 84 24 18 03
	00 00 00 00 00
	00		 mov	 DWORD PTR $T4[esp+2816], OFFSET ??_C@_0BB@KENNFNCF@PART_WEAPON_LEFT@
  00794	c7 84 24 1c 03
	00 00 eb 00 00
	00		 mov	 DWORD PTR $T4[esp+2820], 235 ; 000000ebH
  0079f	c6 84 24 20 03
	00 00 01	 mov	 BYTE PTR $T4[esp+2824], 1
  007a7	c7 84 24 24 03
	00 00 00 00 00
	00		 mov	 DWORD PTR $T4[esp+2828], OFFSET ??_C@_0DC@PLHHIACF@D?3?1ymir?5work?1pc?1common?1effect?1s@
  007b2	c7 84 24 28 03
	00 00 00 00 00
	00		 mov	 DWORD PTR $T4[esp+2832], OFFSET ??_C@_0M@LDILJIBN@PART_WEAPON@
  007bd	c7 84 24 2c 03
	00 00 ec 00 00
	00		 mov	 DWORD PTR $T4[esp+2836], 236 ; 000000ecH
  007c8	c6 84 24 30 03
	00 00 01	 mov	 BYTE PTR $T4[esp+2840], 1
  007d0	c7 84 24 34 03
	00 00 00 00 00
	00		 mov	 DWORD PTR $T4[esp+2844], OFFSET ??_C@_0DC@CCFHJCIJ@D?3?1ymir?5work?1pc?1common?1effect?1s@
  007db	c7 84 24 38 03
	00 00 00 00 00
	00		 mov	 DWORD PTR $T4[esp+2848], OFFSET ??_C@_0M@LDILJIBN@PART_WEAPON@
  007e6	c7 84 24 3c 03
	00 00 ed 00 00
	00		 mov	 DWORD PTR $T4[esp+2852], 237 ; 000000edH
  007f1	c6 84 24 40 03
	00 00 01	 mov	 BYTE PTR $T4[esp+2856], 1
  007f9	c7 84 24 44 03
	00 00 00 00 00
	00		 mov	 DWORD PTR $T4[esp+2860], OFFSET ??_C@_0DC@OOPNJCBH@D?3?1ymir?5work?1pc?1common?1effect?1s@
  00804	c7 84 24 48 03
	00 00 00 00 00
	00		 mov	 DWORD PTR $T4[esp+2864], OFFSET ??_C@_0M@LDILJIBN@PART_WEAPON@
  0080f	c7 84 24 4c 03
	00 00 ee 00 00
	00		 mov	 DWORD PTR $T4[esp+2868], 238 ; 000000eeH
  0081a	c6 84 24 50 03
	00 00 01	 mov	 BYTE PTR $T4[esp+2872], 1
  00822	c7 84 24 54 03
	00 00 00 00 00
	00		 mov	 DWORD PTR $T4[esp+2876], OFFSET ??_C@_0DC@KIGMBDAN@D?3?1ymir?5work?1pc?1common?1effect?1s@
  0082d	c7 84 24 58 03
	00 00 00 00 00
	00		 mov	 DWORD PTR $T4[esp+2880], OFFSET ??_C@_0M@LDILJIBN@PART_WEAPON@
  00838	c7 84 24 5c 03
	00 00 ef 00 00
	00		 mov	 DWORD PTR $T4[esp+2884], 239 ; 000000efH
  00843	c6 84 24 60 03
	00 00 01	 mov	 BYTE PTR $T4[esp+2888], 1
  0084b	c7 84 24 64 03
	00 00 00 00 00
	00		 mov	 DWORD PTR $T4[esp+2892], OFFSET ??_C@_0DC@HBEMABKB@D?3?1ymir?5work?1pc?1common?1effect?1s@
  00856	c7 84 24 68 03
	00 00 00 00 00
	00		 mov	 DWORD PTR $T4[esp+2896], OFFSET ??_C@_0M@LDILJIBN@PART_WEAPON@
  00861	c7 84 24 6c 03
	00 00 f0 00 00
	00		 mov	 DWORD PTR $T4[esp+2900], 240 ; 000000f0H
  0086c	c6 84 24 70 03
	00 00 01	 mov	 BYTE PTR $T4[esp+2904], 1
  00874	c7 84 24 74 03
	00 00 00 00 00
	00		 mov	 DWORD PTR $T4[esp+2908], OFFSET ??_C@_0DC@LNOGABDP@D?3?1ymir?5work?1pc?1common?1effect?1s@
  0087f	c7 84 24 78 03
	00 00 00 00 00
	00		 mov	 DWORD PTR $T4[esp+2912], OFFSET ??_C@_0M@LDILJIBN@PART_WEAPON@
  0088a	c7 84 24 7c 03
	00 00 f1 00 00
	00		 mov	 DWORD PTR $T4[esp+2916], 241 ; 000000f1H
  00895	c6 84 24 80 03
	00 00 01	 mov	 BYTE PTR $T4[esp+2920], 1
  0089d	c7 84 24 84 03
	00 00 00 00 00
	00		 mov	 DWORD PTR $T4[esp+2924], OFFSET ??_C@_0DC@KIGMBDAN@D?3?1ymir?5work?1pc?1common?1effect?1s@
  008a8	c7 84 24 88 03
	00 00 00 00 00
	00		 mov	 DWORD PTR $T4[esp+2928], OFFSET ??_C@_0BB@KENNFNCF@PART_WEAPON_LEFT@
  008b3	c7 84 24 8c 03
	00 00 f2 00 00
	00		 mov	 DWORD PTR $T4[esp+2932], 242 ; 000000f2H
  008be	c6 84 24 90 03
	00 00 01	 mov	 BYTE PTR $T4[esp+2936], 1
  008c6	c7 84 24 94 03
	00 00 00 00 00
	00		 mov	 DWORD PTR $T4[esp+2940], OFFSET ??_C@_0DC@HBEMABKB@D?3?1ymir?5work?1pc?1common?1effect?1s@
  008d1	c7 84 24 98 03
	00 00 00 00 00
	00		 mov	 DWORD PTR $T4[esp+2944], OFFSET ??_C@_0BB@KENNFNCF@PART_WEAPON_LEFT@
  008dc	c7 84 24 9c 03
	00 00 f3 00 00
	00		 mov	 DWORD PTR $T4[esp+2948], 243 ; 000000f3H
  008e7	c6 84 24 a0 03
	00 00 01	 mov	 BYTE PTR $T4[esp+2952], 1
  008ef	c7 84 24 a4 03
	00 00 00 00 00
	00		 mov	 DWORD PTR $T4[esp+2956], OFFSET ??_C@_0DC@LNOGABDP@D?3?1ymir?5work?1pc?1common?1effect?1s@
  008fa	c7 84 24 a8 03
	00 00 00 00 00
	00		 mov	 DWORD PTR $T4[esp+2960], OFFSET ??_C@_0BB@KENNFNCF@PART_WEAPON_LEFT@
  00905	c7 84 24 ac 03
	00 00 f4 00 00
	00		 mov	 DWORD PTR $T4[esp+2964], 244 ; 000000f4H
  00910	c6 84 24 b0 03
	00 00 01	 mov	 BYTE PTR $T4[esp+2968], 1
  00918	c7 84 24 b4 03
	00 00 00 00 00
	00		 mov	 DWORD PTR $T4[esp+2972], OFFSET ??_C@_0DA@KPNIEGP@D?3?1ymir?5work?1pc?1common?1effect?1a@
  00923	c7 84 24 b8 03
	00 00 00 00 00
	00		 mov	 DWORD PTR $T4[esp+2976], OFFSET ??_C@_05BBIGKCLJ@Bip01@
  0092e	c7 84 24 bc 03
	00 00 f5 00 00
	00		 mov	 DWORD PTR $T4[esp+2980], 245 ; 000000f5H
  00939	c6 84 24 c0 03
	00 00 01	 mov	 BYTE PTR $T4[esp+2984], 1
  00941	c7 84 24 c4 03
	00 00 00 00 00
	00		 mov	 DWORD PTR $T4[esp+2988], OFFSET ??_C@_0DA@PLKLDGLK@D?3?1ymir?5work?1pc?1common?1effect?1a@
  0094c	c7 84 24 c8 03
	00 00 00 00 00
	00		 mov	 DWORD PTR $T4[esp+2992], OFFSET ??_C@_05BBIGKCLJ@Bip01@
  00957	c7 84 24 cc 03
	00 00 f6 00 00
	00		 mov	 DWORD PTR $T4[esp+2996], 246 ; 000000f6H
  00962	c6 84 24 d0 03
	00 00 01	 mov	 BYTE PTR $T4[esp+3000], 1
  0096a	c7 84 24 d4 03
	00 00 00 00 00
	00		 mov	 DWORD PTR $T4[esp+3004], OFFSET ??_C@_0DA@DAPHOFBP@D?3?1ymir?5work?1pc?1common?1effect?1a@
  00975	c7 84 24 d8 03
	00 00 00 00 00
	00		 mov	 DWORD PTR $T4[esp+3008], OFFSET ??_C@_05BBIGKCLJ@Bip01@
  00980	c7 84 24 dc 03
	00 00 f7 00 00
	00		 mov	 DWORD PTR $T4[esp+3012], 247 ; 000000f7H
  0098b	c6 84 24 e0 03
	00 00 01	 mov	 BYTE PTR $T4[esp+3016], 1
  00993	c7 84 24 e4 03
	00 00 00 00 00
	00		 mov	 DWORD PTR $T4[esp+3020], OFFSET ??_C@_0DE@CBDJIACC@D?3?1ymir?5work?1pc?1common?1effect?1a@
  0099e	c7 84 24 e8 03
	00 00 00 00 00
	00		 mov	 DWORD PTR $T4[esp+3024], OFFSET ??_C@_05BBIGKCLJ@Bip01@
  009a9	c7 84 24 ec 03
	00 00 f8 00 00
	00		 mov	 DWORD PTR $T4[esp+3028], 248 ; 000000f8H
  009b4	c6 84 24 f0 03
	00 00 01	 mov	 BYTE PTR $T4[esp+3032], 1
  009bc	c7 84 24 f4 03
	00 00 00 00 00
	00		 mov	 DWORD PTR $T4[esp+3036], OFFSET ??_C@_0DE@KHKNPCIM@D?3?1ymir?5work?1pc?1common?1effect?1a@
  009c7	c7 84 24 f8 03
	00 00 00 00 00
	00		 mov	 DWORD PTR $T4[esp+3040], OFFSET ??_C@_05BBIGKCLJ@Bip01@
  009d2	c7 84 24 fc 03
	00 00 f9 00 00
	00		 mov	 DWORD PTR $T4[esp+3044], 249 ; 000000f9H
  009dd	c6 84 24 00 04
	00 00 01	 mov	 BYTE PTR $T4[esp+3048], 1
  009e5	c7 84 24 04 04
	00 00 00 00 00
	00		 mov	 DWORD PTR $T4[esp+3052], OFFSET ??_C@_0CP@IMBNOLN@d?3?1ymir?5work?1pc?1common?1effect?1a@
  009f0	c7 84 24 08 04
	00 00 00 00 00
	00		 mov	 DWORD PTR $T4[esp+3056], OFFSET ??_C@_05BBIGKCLJ@Bip01@
  009fb	c7 84 24 0c 04
	00 00 fa 00 00
	00		 mov	 DWORD PTR $T4[esp+3060], 250 ; 000000faH
  00a06	c6 84 24 10 04
	00 00 01	 mov	 BYTE PTR $T4[esp+3064], 1
  00a0e	c7 84 24 14 04
	00 00 00 00 00
	00		 mov	 DWORD PTR $T4[esp+3068], OFFSET ??_C@_0CC@GDMANCJ@D?3?1ymir?5work?1effect?1sword?1fms?4m@
  00a19	c7 84 24 18 04
	00 00 00 00 00
	00		 mov	 DWORD PTR $T4[esp+3072], OFFSET ??_C@_0M@LDILJIBN@PART_WEAPON@
  00a24	c7 84 24 1c 04
	00 00 fb 00 00
	00		 mov	 DWORD PTR $T4[esp+3076], 251 ; 000000fbH
  00a2f	c6 84 24 20 04
	00 00 01	 mov	 BYTE PTR $T4[esp+3080], 1
  00a37	c7 84 24 24 04
	00 00 00 00 00
	00		 mov	 DWORD PTR $T4[esp+3084], OFFSET ??_C@_0CF@FMCPLCFN@D?3?1ymir?5work?1effect?1sword?1tryto@
  00a42	c7 84 24 28 04
	00 00 00 00 00
	00		 mov	 DWORD PTR $T4[esp+3088], OFFSET ??_C@_0M@LDILJIBN@PART_WEAPON@
  00a4d	c7 84 24 2c 04
	00 00 fc 00 00
	00		 mov	 DWORD PTR $T4[esp+3092], 252 ; 000000fcH
  00a58	c6 84 24 30 04
	00 00 01	 mov	 BYTE PTR $T4[esp+3096], 1
  00a60	c7 84 24 34 04
	00 00 00 00 00
	00		 mov	 DWORD PTR $T4[esp+3100], OFFSET ??_C@_0CH@OJKFEBAD@D?3?1ymir?5work?1effect?1sword?1zatru@
  00a6b	c7 84 24 38 04
	00 00 00 00 00
	00		 mov	 DWORD PTR $T4[esp+3104], OFFSET ??_C@_0M@LDILJIBN@PART_WEAPON@
  00a76	c7 84 24 3c 04
	00 00 fd 00 00
	00		 mov	 DWORD PTR $T4[esp+3108], 253 ; 000000fdH
  00a81	c6 84 24 40 04
	00 00 01	 mov	 BYTE PTR $T4[esp+3112], 1
  00a89	c7 84 24 44 04
	00 00 00 00 00
	00		 mov	 DWORD PTR $T4[esp+3116], OFFSET ??_C@_0CC@PGBPPDJM@D?3?1ymir?5work?1effect?1sword?1lwi?4m@
  00a94	c7 84 24 48 04
	00 00 00 00 00
	00		 mov	 DWORD PTR $T4[esp+3120], OFFSET ??_C@_0M@LDILJIBN@PART_WEAPON@
  00a9f	c7 84 24 4c 04
	00 00 fe 00 00
	00		 mov	 DWORD PTR $T4[esp+3124], 254 ; 000000feH
  00aaa	c6 84 24 50 04
	00 00 01	 mov	 BYTE PTR $T4[esp+3128], 1
  00ab2	c7 84 24 54 04
	00 00 00 00 00
	00		 mov	 DWORD PTR $T4[esp+3132], OFFSET ??_C@_0CH@JHALOLH@D?3?1ymir?5work?1effect?1sword?1brzeg@
  00abd	c7 84 24 58 04
	00 00 00 00 00
	00		 mov	 DWORD PTR $T4[esp+3136], OFFSET ??_C@_0M@LDILJIBN@PART_WEAPON@
  00ac8	c7 84 24 5c 04
	00 00 ff 00 00
	00		 mov	 DWORD PTR $T4[esp+3140], 255 ; 000000ffH
  00ad3	c6 84 24 60 04
	00 00 01	 mov	 BYTE PTR $T4[esp+3144], 1
  00adb	c7 84 24 64 04
	00 00 00 00 00
	00		 mov	 DWORD PTR $T4[esp+3148], OFFSET ??_C@_0CF@PEOGOFEJ@D?3?1ymir?5work?1effect?1sword?1swiet@
  00ae6	c7 84 24 68 04
	00 00 00 00 00
	00		 mov	 DWORD PTR $T4[esp+3152], OFFSET ??_C@_0M@LDILJIBN@PART_WEAPON@
  00af1	c7 84 24 6c 04
	00 00 00 01 00
	00		 mov	 DWORD PTR $T4[esp+3156], 256 ; 00000100H
  00afc	c6 84 24 70 04
	00 00 01	 mov	 BYTE PTR $T4[esp+3160], 1
  00b04	c7 84 24 74 04
	00 00 00 00 00
	00		 mov	 DWORD PTR $T4[esp+3164], OFFSET ??_C@_0CC@MCAIMHNF@D?3?1ymir?5work?1effect?1sword?1rib?4m@
  00b0f	c7 84 24 78 04
	00 00 00 00 00
	00		 mov	 DWORD PTR $T4[esp+3168], OFFSET ??_C@_0M@LDILJIBN@PART_WEAPON@
  00b1a	c7 84 24 7c 04
	00 00 01 01 00
	00		 mov	 DWORD PTR $T4[esp+3172], 257 ; 00000101H
  00b25	c6 84 24 80 04
	00 00 01	 mov	 BYTE PTR $T4[esp+3176], 1
  00b2d	c7 84 24 84 04
	00 00 00 00 00
	00		 mov	 DWORD PTR $T4[esp+3180], OFFSET ??_C@_0CC@BIAIPDHH@D?3?1ymir?5work?1effect?1sword?1zal?4m@
  00b38	c7 84 24 88 04
	00 00 00 00 00
	00		 mov	 DWORD PTR $T4[esp+3184], OFFSET ??_C@_0M@LDILJIBN@PART_WEAPON@
  00b43	c7 84 24 8c 04
	00 00 02 01 00
	00		 mov	 DWORD PTR $T4[esp+3188], 258 ; 00000102H
  00b4e	c6 84 24 90 04
	00 00 01	 mov	 BYTE PTR $T4[esp+3192], 1
  00b56	c7 84 24 94 04
	00 00 00 00 00
	00		 mov	 DWORD PTR $T4[esp+3196], OFFSET ??_C@_0CG@KGPMPGPP@D?3?1ymir?5work?1effect?1sword?1jelon@
  00b61	c7 84 24 98 04
	00 00 00 00 00
	00		 mov	 DWORD PTR $T4[esp+3200], OFFSET ??_C@_0BB@KENNFNCF@PART_WEAPON_LEFT@
  00b6c	c7 84 24 9c 04
	00 00 03 01 00
	00		 mov	 DWORD PTR $T4[esp+3204], 259 ; 00000103H
  00b77	c6 84 24 a0 04
	00 00 01	 mov	 BYTE PTR $T4[esp+3208], 1
  00b7f	c7 84 24 a4 04
	00 00 00 00 00
	00		 mov	 DWORD PTR $T4[esp+3212], OFFSET ??_C@_0CD@IFJBIMEB@D?3?1ymir?5work?1effect?1sword?1kruk?4@
  00b8a	c7 84 24 a8 04
	00 00 00 00 00
	00		 mov	 DWORD PTR $T4[esp+3216], OFFSET ??_C@_0BB@KENNFNCF@PART_WEAPON_LEFT@
  00b95	c7 84 24 ac 04
	00 00 04 01 00
	00		 mov	 DWORD PTR $T4[esp+3220], 260 ; 00000104H
  00ba0	c6 84 24 b0 04
	00 00 01	 mov	 BYTE PTR $T4[esp+3224], 1
  00ba8	c7 84 24 b4 04
	00 00 00 00 00
	00		 mov	 DWORD PTR $T4[esp+3228], OFFSET ??_C@_0CH@PHJGNKLC@D?3?1ymir?5work?1effect?1sword?1diabl@
  00bb3	c7 84 24 b8 04
	00 00 00 00 00
	00		 mov	 DWORD PTR $T4[esp+3232], OFFSET ??_C@_0BB@KENNFNCF@PART_WEAPON_LEFT@
  00bbe	c7 84 24 bc 04
	00 00 05 01 00
	00		 mov	 DWORD PTR $T4[esp+3236], 261 ; 00000105H
  00bc9	c6 84 24 c0 04
	00 00 01	 mov	 BYTE PTR $T4[esp+3240], 1
  00bd1	c7 84 24 c4 04
	00 00 00 00 00
	00		 mov	 DWORD PTR $T4[esp+3244], OFFSET ??_C@_0CE@JAECJFJF@D?3?1ymir?5work?1effect?1sword?1antyk@
  00bdc	c7 84 24 c8 04
	00 00 00 00 00
	00		 mov	 DWORD PTR $T4[esp+3248], OFFSET ??_C@_0M@LDILJIBN@PART_WEAPON@
  00be7	c7 84 24 cc 04
	00 00 06 01 00
	00		 mov	 DWORD PTR $T4[esp+3252], 262 ; 00000106H
  00bf2	c6 84 24 d0 04
	00 00 01	 mov	 BYTE PTR $T4[esp+3256], 1
  00bfa	c7 84 24 d4 04
	00 00 00 00 00
	00		 mov	 DWORD PTR $T4[esp+3260], OFFSET ??_C@_0CF@OBOLHPCK@D?3?1ymir?5work?1effect?1sword?1bambu@
  00c05	c7 84 24 d8 04
	00 00 00 00 00
	00		 mov	 DWORD PTR $T4[esp+3264], OFFSET ??_C@_0M@LDILJIBN@PART_WEAPON@
  00c10	c7 84 24 dc 04
	00 00 07 01 00
	00		 mov	 DWORD PTR $T4[esp+3268], 263 ; 00000107H
  00c1b	c6 84 24 e0 04
	00 00 01	 mov	 BYTE PTR $T4[esp+3272], 1
  00c23	c7 84 24 e4 04
	00 00 00 00 00
	00		 mov	 DWORD PTR $T4[esp+3276], OFFSET ??_C@_0CG@FNICILCM@D?3?1ymir?5work?1effect?1sword?1szcze@
  00c2e	c7 84 24 e8 04
	00 00 00 00 00
	00		 mov	 DWORD PTR $T4[esp+3280], OFFSET ??_C@_0M@LDILJIBN@PART_WEAPON@
  00c39	c7 84 24 ec 04
	00 00 08 01 00
	00		 mov	 DWORD PTR $T4[esp+3284], 264 ; 00000108H
  00c44	c6 84 24 f0 04
	00 00 01	 mov	 BYTE PTR $T4[esp+3288], 1
  00c4c	c7 84 24 f4 04
	00 00 00 00 00
	00		 mov	 DWORD PTR $T4[esp+3292], OFFSET ??_C@_0CE@OCEPJPOD@D?3?1ymir?5work?1effect?1sword?1kozik@
  00c57	c7 84 24 f8 04
	00 00 00 00 00
	00		 mov	 DWORD PTR $T4[esp+3296], OFFSET ??_C@_0M@LDILJIBN@PART_WEAPON@
  00c62	c7 84 24 fc 04
	00 00 09 01 00
	00		 mov	 DWORD PTR $T4[esp+3300], 265 ; 00000109H
  00c6d	c6 84 24 00 05
	00 00 01	 mov	 BYTE PTR $T4[esp+3304], 1
  00c75	c7 84 24 04 05
	00 00 00 00 00
	00		 mov	 DWORD PTR $T4[esp+3308], OFFSET ??_C@_0CE@OCEPJPOD@D?3?1ymir?5work?1effect?1sword?1kozik@
  00c80	c7 84 24 08 05
	00 00 00 00 00
	00		 mov	 DWORD PTR $T4[esp+3312], OFFSET ??_C@_0BB@KENNFNCF@PART_WEAPON_LEFT@
  00c8b	c7 84 24 0c 05
	00 00 0a 01 00
	00		 mov	 DWORD PTR $T4[esp+3316], 266 ; 0000010aH
  00c96	c6 84 24 10 05
	00 00 01	 mov	 BYTE PTR $T4[esp+3320], 1
  00c9e	c7 84 24 14 05
	00 00 00 00 00
	00		 mov	 DWORD PTR $T4[esp+3324], OFFSET ??_C@_0CH@FKBGCCDC@D?3?1ymir?5work?1effect?1sword?1skrzy@
  00ca9	c7 84 24 18 05
	00 00 00 00 00
	00		 mov	 DWORD PTR $T4[esp+3328], OFFSET ??_C@_0M@LDILJIBN@PART_WEAPON@
  00cb4	c7 84 24 1c 05
	00 00 0b 01 00
	00		 mov	 DWORD PTR $T4[esp+3332], 267 ; 0000010bH
  00cbf	c6 84 24 20 05
	00 00 01	 mov	 BYTE PTR $T4[esp+3336], 1
  00cc7	c7 84 24 24 05
	00 00 00 00 00
	00		 mov	 DWORD PTR $T4[esp+3340], OFFSET ??_C@_0CH@FKBGCCDC@D?3?1ymir?5work?1effect?1sword?1skrzy@
  00cd2	c7 84 24 28 05
	00 00 00 00 00
	00		 mov	 DWORD PTR $T4[esp+3344], OFFSET ??_C@_0BB@KENNFNCF@PART_WEAPON_LEFT@
  00cdd	c7 84 24 2c 05
	00 00 0c 01 00
	00		 mov	 DWORD PTR $T4[esp+3348], 268 ; 0000010cH
  00ce8	c6 84 24 30 05
	00 00 01	 mov	 BYTE PTR $T4[esp+3352], 1
  00cf0	c7 84 24 34 05
	00 00 00 00 00
	00		 mov	 DWORD PTR $T4[esp+3356], OFFSET ??_C@_0CI@GHHADAPC@D?3?1ymir?5work?1effect?1sword?1bezdu@
  00cfb	c7 84 24 38 05
	00 00 00 00 00
	00		 mov	 DWORD PTR $T4[esp+3360], OFFSET ??_C@_0M@LDILJIBN@PART_WEAPON@
  00d06	c7 84 24 3c 05
	00 00 0d 01 00
	00		 mov	 DWORD PTR $T4[esp+3364], 269 ; 0000010dH
  00d11	c6 84 24 40 05
	00 00 01	 mov	 BYTE PTR $T4[esp+3368], 1
  00d19	c7 84 24 44 05
	00 00 00 00 00
	00		 mov	 DWORD PTR $T4[esp+3372], OFFSET ??_C@_0CI@GHHADAPC@D?3?1ymir?5work?1effect?1sword?1bezdu@
  00d24	c7 84 24 48 05
	00 00 00 00 00
	00		 mov	 DWORD PTR $T4[esp+3376], OFFSET ??_C@_0BB@KENNFNCF@PART_WEAPON_LEFT@
  00d2f	c7 84 24 4c 05
	00 00 0e 01 00
	00		 mov	 DWORD PTR $T4[esp+3380], 270 ; 0000010eH
  00d3a	c6 84 24 50 05
	00 00 01	 mov	 BYTE PTR $T4[esp+3384], 1
  00d42	c7 84 24 54 05
	00 00 00 00 00
	00		 mov	 DWORD PTR $T4[esp+3388], OFFSET ??_C@_0CF@BHENGJGF@D?3?1ymir?5work?1effect?1sword?1jesio@
  00d4d	c7 84 24 58 05
	00 00 00 00 00
	00		 mov	 DWORD PTR $T4[esp+3392], OFFSET ??_C@_0M@LDILJIBN@PART_WEAPON@
  00d58	c7 84 24 5c 05
	00 00 0f 01 00
	00		 mov	 DWORD PTR $T4[esp+3396], 271 ; 0000010fH
  00d63	c6 84 24 60 05
	00 00 01	 mov	 BYTE PTR $T4[esp+3400], 1
  00d6b	c7 84 24 64 05
	00 00 00 00 00
	00		 mov	 DWORD PTR $T4[esp+3404], OFFSET ??_C@_0CF@BHENGJGF@D?3?1ymir?5work?1effect?1sword?1jesio@
  00d76	c7 84 24 68 05
	00 00 00 00 00
	00		 mov	 DWORD PTR $T4[esp+3408], OFFSET ??_C@_0BB@KENNFNCF@PART_WEAPON_LEFT@
  00d81	c7 84 24 6c 05
	00 00 10 01 00
	00		 mov	 DWORD PTR $T4[esp+3412], 272 ; 00000110H
  00d8c	c6 84 24 70 05
	00 00 01	 mov	 BYTE PTR $T4[esp+3416], 1
  00d94	c7 84 24 74 05
	00 00 00 00 00
	00		 mov	 DWORD PTR $T4[esp+3420], OFFSET ??_C@_0CH@JOIHCIOK@D?3?1ymir?5work?1effect?1sword?1diabl@
  00d9f	c7 84 24 78 05
	00 00 00 00 00
	00		 mov	 DWORD PTR $T4[esp+3424], OFFSET ??_C@_0M@LDILJIBN@PART_WEAPON@
  00daa	c7 84 24 7c 05
	00 00 11 01 00
	00		 mov	 DWORD PTR $T4[esp+3428], 273 ; 00000111H
  00db5	c6 84 24 80 05
	00 00 01	 mov	 BYTE PTR $T4[esp+3432], 1
  00dbd	c7 84 24 84 05
	00 00 00 00 00
	00		 mov	 DWORD PTR $T4[esp+3436], OFFSET ??_C@_0CH@JOIHCIOK@D?3?1ymir?5work?1effect?1sword?1diabl@
  00dc8	c7 84 24 88 05
	00 00 00 00 00
	00		 mov	 DWORD PTR $T4[esp+3440], OFFSET ??_C@_0BB@KENNFNCF@PART_WEAPON_LEFT@
  00dd3	c7 84 24 8c 05
	00 00 12 01 00
	00		 mov	 DWORD PTR $T4[esp+3444], 274 ; 00000112H
  00dde	c6 84 24 90 05
	00 00 01	 mov	 BYTE PTR $T4[esp+3448], 1
  00de6	c7 84 24 94 05
	00 00 00 00 00
	00		 mov	 DWORD PTR $T4[esp+3452], OFFSET ??_C@_0CI@MPPOJFLC@D?3?1ymir?5work?1effect?1sword?1pieki@
  00df1	c7 84 24 98 05
	00 00 00 00 00
	00		 mov	 DWORD PTR $T4[esp+3456], OFFSET ??_C@_0M@LDILJIBN@PART_WEAPON@
  00dfc	c7 84 24 9c 05
	00 00 13 01 00
	00		 mov	 DWORD PTR $T4[esp+3460], 275 ; 00000113H
  00e07	c6 84 24 a0 05
	00 00 01	 mov	 BYTE PTR $T4[esp+3464], 1
  00e0f	c7 84 24 a4 05
	00 00 00 00 00
	00		 mov	 DWORD PTR $T4[esp+3468], OFFSET ??_C@_0CG@FNIDGDAD@d?3?1ymir?5work?1effect?1etc?1dust?1du@
  00e1a	c7 84 24 a8 05
	00 00 00 00 00
	00		 mov	 DWORD PTR $T4[esp+3472], OFFSET ??_C@_00CNPNBAHC@@
  00e25	c7 84 24 ac 05
	00 00 00 00 00
	00		 mov	 DWORD PTR $T4[esp+3476], 0
  00e30	c6 84 24 b0 05
	00 00 01	 mov	 BYTE PTR $T4[esp+3480], 1
  00e38	c7 84 24 b4 05
	00 00 00 00 00
	00		 mov	 DWORD PTR $T4[esp+3484], OFFSET ??_C@_0CO@FHOIMEIA@d?3?1ymir?5work?1effect?1etc?1dust?1ru@
  00e43	c7 84 24 b8 05
	00 00 00 00 00
	00		 mov	 DWORD PTR $T4[esp+3488], OFFSET ??_C@_00CNPNBAHC@@
  00e4e	c7 84 24 bc 05
	00 00 e4 00 00
	00		 mov	 DWORD PTR $T4[esp+3492], 228 ; 000000e4H
  00e59	c6 84 24 c0 05
	00 00 01	 mov	 BYTE PTR $T4[esp+3496], 1
  00e61	c7 84 24 c4 05
	00 00 00 00 00
	00		 mov	 DWORD PTR $T4[esp+3500], OFFSET ??_C@_0CO@GCOGPOPI@d?3?1ymir?5work?1effect?1hit?1blow_1?1@
  00e6c	c7 84 24 c8 05
	00 00 00 00 00
	00		 mov	 DWORD PTR $T4[esp+3504], OFFSET ??_C@_00CNPNBAHC@@
  00e77	c7 84 24 cc 05
	00 00 02 00 00
	00		 mov	 DWORD PTR $T4[esp+3508], 2
  00e82	c6 84 24 d0 05
	00 00 01	 mov	 BYTE PTR $T4[esp+3512], 1
  00e8a	c7 84 24 d4 05
	00 00 00 00 00
	00		 mov	 DWORD PTR $T4[esp+3516], OFFSET ??_C@_0DE@KDBGJFJN@d?3?1ymir?5work?1effect?1etc?1recuper@
  00e95	c7 84 24 d8 05
	00 00 00 00 00
	00		 mov	 DWORD PTR $T4[esp+3520], OFFSET ??_C@_00CNPNBAHC@@
  00ea0	c7 84 24 dc 05
	00 00 0d 00 00
	00		 mov	 DWORD PTR $T4[esp+3524], 13 ; 0000000dH
  00eab	c6 84 24 e0 05
	00 00 01	 mov	 BYTE PTR $T4[esp+3528], 1
  00eb3	c7 84 24 e4 05
	00 00 00 00 00
	00		 mov	 DWORD PTR $T4[esp+3532], OFFSET ??_C@_0DF@DGBAIPPG@d?3?1ymir?5work?1effect?1etc?1recuper@
  00ebe	c7 84 24 e8 05
	00 00 00 00 00
	00		 mov	 DWORD PTR $T4[esp+3536], OFFSET ??_C@_00CNPNBAHC@@
  00ec9	c7 84 24 ec 05
	00 00 0e 00 00
	00		 mov	 DWORD PTR $T4[esp+3540], 14 ; 0000000eH
  00ed4	c6 84 24 f0 05
	00 00 01	 mov	 BYTE PTR $T4[esp+3544], 1
  00edc	c7 84 24 f4 05
	00 00 00 00 00
	00		 mov	 DWORD PTR $T4[esp+3548], OFFSET ??_C@_0DG@KJEGMFD@d?3?1ymir?5work?1effect?1etc?1recuper@
  00ee7	c7 84 24 f8 05
	00 00 00 00 00
	00		 mov	 DWORD PTR $T4[esp+3552], OFFSET ??_C@_00CNPNBAHC@@
  00ef2	c7 84 24 fc 05
	00 00 0f 00 00
	00		 mov	 DWORD PTR $T4[esp+3556], 15 ; 0000000fH
  00efd	c6 84 24 00 06
	00 00 01	 mov	 BYTE PTR $T4[esp+3560], 1
  00f05	c7 84 24 04 06
	00 00 00 00 00
	00		 mov	 DWORD PTR $T4[esp+3564], OFFSET ??_C@_0DH@DGDHOHHH@d?3?1ymir?5work?1effect?1etc?1recuper@
  00f10	c7 84 24 08 06
	00 00 00 00 00
	00		 mov	 DWORD PTR $T4[esp+3568], OFFSET ??_C@_00CNPNBAHC@@
  00f1b	c7 84 24 0c 06
	00 00 10 00 00
	00		 mov	 DWORD PTR $T4[esp+3572], 16 ; 00000010H
  00f26	c6 84 24 10 06
	00 00 01	 mov	 BYTE PTR $T4[esp+3576], 1
  00f2e	c7 84 24 14 06
	00 00 00 00 00
	00		 mov	 DWORD PTR $T4[esp+3580], OFFSET ??_C@_0DI@DJOLHMEJ@d?3?1ymir?5work?1effect?1etc?1recuper@
  00f39	c7 84 24 18 06
	00 00 00 00 00
	00		 mov	 DWORD PTR $T4[esp+3584], OFFSET ??_C@_00CNPNBAHC@@
  00f44	c7 84 24 1c 06
	00 00 23 01 00
	00		 mov	 DWORD PTR $T4[esp+3588], 291 ; 00000123H
  00f4f	c6 84 24 20 06
	00 00 01	 mov	 BYTE PTR $T4[esp+3592], 1
  00f57	c7 84 24 24 06
	00 00 00 00 00
	00		 mov	 DWORD PTR $T4[esp+3596], OFFSET ??_C@_0DJ@LHDEGENC@d?3?1ymir?5work?1effect?1etc?1recuper@
  00f62	c7 84 24 28 06
	00 00 00 00 00
	00		 mov	 DWORD PTR $T4[esp+3600], OFFSET ??_C@_00CNPNBAHC@@
  00f6d	c7 84 24 2c 06
	00 00 24 01 00
	00		 mov	 DWORD PTR $T4[esp+3604], 292 ; 00000124H
  00f78	c6 84 24 30 06
	00 00 01	 mov	 BYTE PTR $T4[esp+3608], 1
  00f80	c7 84 24 34 06
	00 00 00 00 00
	00		 mov	 DWORD PTR $T4[esp+3612], OFFSET ??_C@_0CM@KLIJIODA@d?3?1ymir?5work?1effect?1etc?1buff?1bu@
  00f8b	c7 84 24 38 06
	00 00 00 00 00
	00		 mov	 DWORD PTR $T4[esp+3616], OFFSET ??_C@_00CNPNBAHC@@
  00f96	c7 84 24 3c 06
	00 00 25 01 00
	00		 mov	 DWORD PTR $T4[esp+3620], 293 ; 00000125H
  00fa1	c6 84 24 40 06
	00 00 01	 mov	 BYTE PTR $T4[esp+3624], 1
  00fa9	c7 84 24 44 06
	00 00 00 00 00
	00		 mov	 DWORD PTR $T4[esp+3628], OFFSET ??_C@_0CM@CNBNPMJO@d?3?1ymir?5work?1effect?1etc?1buff?1bu@
  00fb4	c7 84 24 48 06
	00 00 00 00 00
	00		 mov	 DWORD PTR $T4[esp+3632], OFFSET ??_C@_00CNPNBAHC@@
  00fbf	c7 84 24 4c 06
	00 00 26 01 00
	00		 mov	 DWORD PTR $T4[esp+3636], 294 ; 00000126H
  00fca	c6 84 24 50 06
	00 00 01	 mov	 BYTE PTR $T4[esp+3640], 1
  00fd2	c7 84 24 54 06
	00 00 00 00 00
	00		 mov	 DWORD PTR $T4[esp+3644], OFFSET ??_C@_0CM@OGEBCPDL@d?3?1ymir?5work?1effect?1etc?1buff?1bu@
  00fdd	c7 84 24 58 06
	00 00 00 00 00
	00		 mov	 DWORD PTR $T4[esp+3648], OFFSET ??_C@_00CNPNBAHC@@
  00fe8	c7 84 24 5c 06
	00 00 27 01 00
	00		 mov	 DWORD PTR $T4[esp+3652], 295 ; 00000127H
  00ff3	c6 84 24 60 06
	00 00 01	 mov	 BYTE PTR $T4[esp+3656], 1
  00ffb	c7 84 24 64 06
	00 00 00 00 00
	00		 mov	 DWORD PTR $T4[esp+3660], OFFSET ??_C@_0CM@PLEEBPID@d?3?1ymir?5work?1effect?1etc?1buff?1bu@
  01006	c7 84 24 68 06
	00 00 00 00 00
	00		 mov	 DWORD PTR $T4[esp+3664], OFFSET ??_C@_00CNPNBAHC@@
  01011	c7 84 24 6c 06
	00 00 28 01 00
	00		 mov	 DWORD PTR $T4[esp+3668], 296 ; 00000128H
  0101c	c6 84 24 70 06
	00 00 01	 mov	 BYTE PTR $T4[esp+3672], 1
  01024	c7 84 24 74 06
	00 00 00 00 00
	00		 mov	 DWORD PTR $T4[esp+3676], OFFSET ??_C@_0CM@LGIMLOII@d?3?1ymir?5work?1effect?1etc?1buff?1bu@
  0102f	c7 84 24 78 06
	00 00 00 00 00
	00		 mov	 DWORD PTR $T4[esp+3680], OFFSET ??_C@_00CNPNBAHC@@
  0103a	c7 84 24 7c 06
	00 00 2a 01 00
	00		 mov	 DWORD PTR $T4[esp+3684], 298 ; 0000012aH
  01045	c6 84 24 80 06
	00 00 01	 mov	 BYTE PTR $T4[esp+3688], 1
  0104d	c7 84 24 84 06
	00 00 00 00 00
	00		 mov	 DWORD PTR $T4[esp+3692], OFFSET ??_C@_0CM@HNNAGNCN@d?3?1ymir?5work?1effect?1etc?1buff?1bu@
  01058	c7 84 24 88 06
	00 00 00 00 00
	00		 mov	 DWORD PTR $T4[esp+3696], OFFSET ??_C@_00CNPNBAHC@@
  01063	c7 84 24 8c 06
	00 00 2b 01 00
	00		 mov	 DWORD PTR $T4[esp+3700], 299 ; 0000012bH
  0106e	c6 84 24 90 06
	00 00 01	 mov	 BYTE PTR $T4[esp+3704], 1
  01076	c7 84 24 94 06
	00 00 00 00 00
	00		 mov	 DWORD PTR $T4[esp+3708], OFFSET ??_C@_0CF@MCCGBFIH@d?3?1ymir?5work?1effect?1hit?1gwanton@
  01081	c7 84 24 98 06
	00 00 00 00 00
	00		 mov	 DWORD PTR $T4[esp+3712], OFFSET ??_C@_05BBIGKCLJ@Bip01@
  0108c	c7 84 24 9c 06
	00 00 12 00 00
	00		 mov	 DWORD PTR $T4[esp+3716], 18 ; 00000012H
  01097	c6 84 24 a0 06
	00 00 01	 mov	 BYTE PTR $T4[esp+3720], 1
  0109f	c7 84 24 a4 06
	00 00 00 00 00
	00		 mov	 DWORD PTR $T4[esp+3724], OFFSET ??_C@_0DM@LMNPCMLO@d?3?1ymir?5work?1effect?1etc?1firecra@
  010aa	c7 84 24 a8 06
	00 00 00 00 00
	00		 mov	 DWORD PTR $T4[esp+3728], OFFSET ??_C@_00CNPNBAHC@@
  010b5	c7 84 24 ac 06
	00 00 15 00 00
	00		 mov	 DWORD PTR $T4[esp+3732], 21 ; 00000015H
  010c0	c6 84 24 b0 06
	00 00 01	 mov	 BYTE PTR $T4[esp+3736], 1
  010c8	c7 84 24 b4 06
	00 00 00 00 00
	00		 mov	 DWORD PTR $T4[esp+3740], OFFSET ??_C@_0DA@OKHBFDHO@d?3?1ymir?5work?1effect?1etc?1firecra@
  010d3	c7 84 24 b8 06
	00 00 00 00 00
	00		 mov	 DWORD PTR $T4[esp+3744], OFFSET ??_C@_00CNPNBAHC@@
  010de	c7 84 24 bc 06
	00 00 16 00 00
	00		 mov	 DWORD PTR $T4[esp+3748], 22 ; 00000016H
  010e9	c6 84 24 c0 06
	00 00 01	 mov	 BYTE PTR $T4[esp+3752], 1
  010f1	c7 84 24 c4 06
	00 00 00 00 00
	00		 mov	 DWORD PTR $T4[esp+3756], OFFSET ??_C@_0CP@NMKNLCNB@d?3?1ymir?5work?1effect?1etc?1click?1c@
  010fc	c7 84 24 c8 06
	00 00 00 00 00
	00		 mov	 DWORD PTR $T4[esp+3760], OFFSET ??_C@_00CNPNBAHC@@
  01107	c7 84 24 cc 06
	00 00 dd 00 00
	00		 mov	 DWORD PTR $T4[esp+3764], 221 ; 000000ddH
  01112	c6 84 24 d0 06
	00 00 01	 mov	 BYTE PTR $T4[esp+3768], 1
  0111a	c7 84 24 d4 06
	00 00 00 00 00
	00		 mov	 DWORD PTR $T4[esp+3772], OFFSET ??_C@_0DE@OKJDPEOH@d?3?1ymir?5work?1effect?1etc?1click?1c@
  01125	c7 84 24 d8 06
	00 00 00 00 00
	00		 mov	 DWORD PTR $T4[esp+3776], OFFSET ??_C@_00CNPNBAHC@@
  01130	c7 84 24 dc 06
	00 00 de 00 00
	00		 mov	 DWORD PTR $T4[esp+3780], 222 ; 000000deH
  0113b	c6 84 24 e0 06
	00 00 01	 mov	 BYTE PTR $T4[esp+3784], 1
  01143	c7 84 24 e4 06
	00 00 00 00 00
	00		 mov	 DWORD PTR $T4[esp+3788], OFFSET ??_C@_0CG@OFJICOGE@d?3?1ymir?5work?1effect?1etc?1stun?1st@
  0114e	c7 84 24 e8 06
	00 00 00 00 00
	00		 mov	 DWORD PTR $T4[esp+3792], OFFSET ??_C@_0L@GHIHOBPC@Bip01?5Head@
  01159	c7 84 24 ec 06
	00 00 01 00 00
	00		 mov	 DWORD PTR $T4[esp+3796], 1
  01164	c6 84 24 f0 06
	00 00 01	 mov	 BYTE PTR $T4[esp+3800], 1
  0116c	c7 84 24 f4 06
	00 00 00 00 00
	00		 mov	 DWORD PTR $T4[esp+3804], OFFSET ??_C@_0CF@IGNMMICG@d?3?1ymir?5work?1effect?1hit?1critica@
  01177	c7 84 24 f8 06
	00 00 00 00 00
	00		 mov	 DWORD PTR $T4[esp+3808], OFFSET ??_C@_0N@NFGLJLMH@Bip01?5R?5Hand@
  01182	c7 84 24 fc 06
	00 00 11 00 00
	00		 mov	 DWORD PTR $T4[esp+3812], 17 ; 00000011H
  0118d	c6 84 24 00 07
	00 00 01	 mov	 BYTE PTR $T4[esp+3816], 1
  01195	c7 84 24 04 07
	00 00 00 00 00
	00		 mov	 DWORD PTR $T4[esp+3820], OFFSET ??_C@_0DC@ELCGDOJC@d?3?1ymir?5work?1effect?1affect?1dama@
  011a0	c7 84 24 08 07
	00 00 00 00 00
	00		 mov	 DWORD PTR $T4[esp+3824], OFFSET ??_C@_00CNPNBAHC@@
  011ab	c7 84 24 0c 07
	00 00 15 01 00
	00		 mov	 DWORD PTR $T4[esp+3828], 277 ; 00000115H
  011b6	c6 84 24 10 07
	00 00 01	 mov	 BYTE PTR $T4[esp+3832], 1
  011be	c7 84 24 14 07
	00 00 00 00 00
	00		 mov	 DWORD PTR $T4[esp+3836], OFFSET ??_C@_0DF@NHKBGLCB@d?3?1ymir?5work?1effect?1affect?1dama@
  011c9	c7 84 24 18 07
	00 00 00 00 00
	00		 mov	 DWORD PTR $T4[esp+3840], OFFSET ??_C@_00CNPNBAHC@@
  011d4	c7 84 24 1c 07
	00 00 16 01 00
	00		 mov	 DWORD PTR $T4[esp+3844], 278 ; 00000116H
  011df	c6 84 24 20 07
	00 00 01	 mov	 BYTE PTR $T4[esp+3848], 1
  011e7	c7 84 24 24 07
	00 00 00 00 00
	00		 mov	 DWORD PTR $T4[esp+3852], OFFSET ??_C@_0DC@PNDLOGJ@d?3?1ymir?5work?1effect?1affect?1dama@
  011f2	c7 84 24 28 07
	00 00 00 00 00
	00		 mov	 DWORD PTR $T4[esp+3856], OFFSET ??_C@_00CNPNBAHC@@
  011fd	c7 84 24 2c 07
	00 00 17 01 00
	00		 mov	 DWORD PTR $T4[esp+3860], 279 ; 00000117H
  01208	c6 84 24 30 07
	00 00 01	 mov	 BYTE PTR $T4[esp+3864], 1
  01210	c7 84 24 34 07
	00 00 00 00 00
	00		 mov	 DWORD PTR $T4[esp+3868], OFFSET ??_C@_0DE@OCLPDINL@d?3?1ymir?5work?1effect?1affect?1dama@
  0121b	c7 84 24 38 07
	00 00 00 00 00
	00		 mov	 DWORD PTR $T4[esp+3872], OFFSET ??_C@_00CNPNBAHC@@
  01226	c7 84 24 3c 07
	00 00 18 01 00
	00		 mov	 DWORD PTR $T4[esp+3876], 280 ; 00000118H
  01231	c6 84 24 40 07
	00 00 01	 mov	 BYTE PTR $T4[esp+3880], 1
  01239	c7 84 24 44 07
	00 00 00 00 00
	00		 mov	 DWORD PTR $T4[esp+3884], OFFSET ??_C@_0DC@DFGPOAGN@d?3?1ymir?5work?1effect?1affect?1dama@
  01244	c7 84 24 48 07
	00 00 00 00 00
	00		 mov	 DWORD PTR $T4[esp+3888], OFFSET ??_C@_00CNPNBAHC@@
  0124f	c7 84 24 4c 07
	00 00 19 01 00
	00		 mov	 DWORD PTR $T4[esp+3892], 281 ; 00000119H
  0125a	c6 84 24 50 07
	00 00 01	 mov	 BYTE PTR $T4[esp+3896], 1
  01262	c7 84 24 54 07
	00 00 00 00 00
	00		 mov	 DWORD PTR $T4[esp+3900], OFFSET ??_C@_0DA@GCPGFOFF@d?3?1ymir?5work?1effect?1affect?1dama@
  0126d	c7 84 24 58 07
	00 00 00 00 00
	00		 mov	 DWORD PTR $T4[esp+3904], OFFSET ??_C@_00CNPNBAHC@@
  01278	c7 84 24 5c 07
	00 00 1a 01 00
	00		 mov	 DWORD PTR $T4[esp+3908], 282 ; 0000011aH
  01283	c6 84 24 60 07
	00 00 01	 mov	 BYTE PTR $T4[esp+3912], 1
  0128b	c7 84 24 64 07
	00 00 00 00 00
	00		 mov	 DWORD PTR $T4[esp+3916], OFFSET ??_C@_0DH@BALHLFPA@d?3?1ymir?5work?1effect?1affect?1dama@
  01296	c7 84 24 68 07
	00 00 00 00 00
	00		 mov	 DWORD PTR $T4[esp+3920], OFFSET ??_C@_00CNPNBAHC@@
  012a1	c7 84 24 6c 07
	00 00 1b 01 00
	00		 mov	 DWORD PTR $T4[esp+3924], 283 ; 0000011bH
  012ac	c6 84 24 70 07
	00 00 01	 mov	 BYTE PTR $T4[esp+3928], 1
  012b4	c7 84 24 74 07
	00 00 00 00 00
	00		 mov	 DWORD PTR $T4[esp+3932], OFFSET ??_C@_0CM@KFAIMBLD@d?3?1ymir?5work?1effect?1hit?1percent@
  012bf	c7 84 24 78 07
	00 00 00 00 00
	00		 mov	 DWORD PTR $T4[esp+3936], OFFSET ??_C@_00CNPNBAHC@@
  012ca	c7 84 24 7c 07
	00 00 20 01 00
	00		 mov	 DWORD PTR $T4[esp+3940], 288 ; 00000120H
  012d5	c6 84 24 80 07
	00 00 01	 mov	 BYTE PTR $T4[esp+3944], 1
  012dd	c7 84 24 84 07
	00 00 00 00 00
	00		 mov	 DWORD PTR $T4[esp+3948], OFFSET ??_C@_0CM@CDJMLDBN@d?3?1ymir?5work?1effect?1hit?1percent@
  012e8	c7 84 24 88 07
	00 00 00 00 00
	00		 mov	 DWORD PTR $T4[esp+3952], OFFSET ??_C@_00CNPNBAHC@@
  012f3	c7 84 24 8c 07
	00 00 21 01 00
	00		 mov	 DWORD PTR $T4[esp+3956], 289 ; 00000121H
  012fe	c6 84 24 90 07
	00 00 01	 mov	 BYTE PTR $T4[esp+3960], 1
  01306	c7 84 24 94 07
	00 00 00 00 00
	00		 mov	 DWORD PTR $T4[esp+3964], OFFSET ??_C@_0CM@OIMAGALI@d?3?1ymir?5work?1effect?1hit?1percent@
  01311	c7 84 24 98 07
	00 00 00 00 00
	00		 mov	 DWORD PTR $T4[esp+3968], OFFSET ??_C@_00CNPNBAHC@@
  0131c	c7 84 24 9c 07
	00 00 22 01 00
	00		 mov	 DWORD PTR $T4[esp+3972], 290 ; 00000122H
  01327	c6 84 24 a0 07
	00 00 01	 mov	 BYTE PTR $T4[esp+3976], 1
  0132f	c7 84 24 a4 07
	00 00 00 00 00
	00		 mov	 DWORD PTR $T4[esp+3980], OFFSET ??_C@_0DL@JAMGHMDJ@d?3?1ymir?5work?1effect?1battlepass?1@
; File C:\Anka2Project\Anka2Project\Source\Binary\source\UserInterface\PythonPlayerSettingsModule.h

; 249  : {

  0133a	8d 04 24	 lea	 eax, DWORD PTR $T742[esp+2040]
; File C:\Program Files\Microsoft Visual Studio\2022\Community\VC\Tools\MSVC\14.44.35207\include\tuple

; 132  :     constexpr _Tuple_val(_Other&& _Arg) : _Val(_STD forward<_Other>(_Arg)) {}

  0133d	c7 84 24 a8 07
	00 00 00 00 00
	00		 mov	 DWORD PTR $T4[esp+3984], OFFSET ??_C@_00CNPNBAHC@@
; File C:\Anka2Project\Anka2Project\Source\Binary\source\UserInterface\PythonPlayerSettingsModule.h

; 249  : {

  01348	50		 push	 eax
  01349	68 00 00 00 00	 push	 OFFSET ??_C@_0DO@BLNOCHAN@d?3?1ymir?5work?1effect?1battlepass?1@
  0134e	68 00 00 00 00	 push	 OFFSET ??_C@_00CNPNBAHC@@
  01353	8d 44 24 10	 lea	 eax, DWORD PTR $T741[esp+2052]
; File C:\Program Files\Microsoft Visual Studio\2022\Community\VC\Tools\MSVC\14.44.35207\include\tuple

; 132  :     constexpr _Tuple_val(_Other&& _Arg) : _Val(_STD forward<_Other>(_Arg)) {}

  01357	c7 84 24 b8 07
	00 00 2d 01 00
	00		 mov	 DWORD PTR $T4[esp+4000], 301 ; 0000012dH
; File C:\Anka2Project\Anka2Project\Source\Binary\source\UserInterface\PythonPlayerSettingsModule.h

; 249  : {

  01362	50		 push	 eax
  01363	8d 8c 24 d0 07
	00 00		 lea	 ecx, DWORD PTR $T4[esp+4024]
; File C:\Program Files\Microsoft Visual Studio\2022\Community\VC\Tools\MSVC\14.44.35207\include\tuple

; 132  :     constexpr _Tuple_val(_Other&& _Arg) : _Val(_STD forward<_Other>(_Arg)) {}

  0136a	c6 84 24 c0 07
	00 00 01	 mov	 BYTE PTR $T4[esp+4008], 1
  01372	c7 84 24 c4 07
	00 00 00 00 00
	00		 mov	 DWORD PTR $T4[esp+4012], OFFSET ??_C@_0DM@MHMMIOAK@d?3?1ymir?5work?1effect?1battlepass?1@
  0137d	c7 84 24 c8 07
	00 00 00 00 00
	00		 mov	 DWORD PTR $T4[esp+4016], OFFSET ??_C@_00CNPNBAHC@@
  01388	c7 84 24 cc 07
	00 00 2e 01 00
	00		 mov	 DWORD PTR $T4[esp+4020], 302 ; 0000012eH
; File C:\Anka2Project\Anka2Project\Source\Binary\source\UserInterface\PythonPlayerSettingsModule.h

; 249  : {

  01393	c7 44 24 14 2f
	01 00 00	 mov	 DWORD PTR $T741[esp+2056], 303 ; 0000012fH
  0139b	c6 44 24 10 01	 mov	 BYTE PTR $T742[esp+2056], 1
  013a0	e8 00 00 00 00	 call	 ??$?0W4<unnamed-enum-EFFECT_DUST>@CInstanceBase@@AAY00$$CBDAAY0DO@$$CBD_N$0A@@?$tuple@IPBDPBD_N@std@@QAE@$$QAW4<unnamed-enum-EFFECT_DUST>@CInstanceBase@@AAY00$$CBDAAY0DO@$$CBD$$QA_N@Z ; std::tuple<unsigned int,char const *,char const *,bool>::tuple<unsigned int,char const *,char const *,bool><enum CInstanceBase::<unnamed-enum-EFFECT_DUST>,char const (&)[1],char const (&)[62],bool,0>
  013a5	8d 44 24 01	 lea	 eax, DWORD PTR $T744[esp+2040]
  013a9	c7 44 24 08 30
	01 00 00	 mov	 DWORD PTR $T743[esp+2040], 304 ; 00000130H
  013b1	50		 push	 eax
  013b2	68 00 00 00 00	 push	 OFFSET ??_C@_0DP@PLKMBGLC@d?3?1ymir?5work?1effect?1battlepass?1@
  013b7	68 00 00 00 00	 push	 OFFSET ??_C@_00CNPNBAHC@@
  013bc	8d 44 24 14	 lea	 eax, DWORD PTR $T743[esp+2052]
  013c0	c6 44 24 0d 01	 mov	 BYTE PTR $T744[esp+2052], 1
  013c5	50		 push	 eax
  013c6	8d 8c 24 e0 07
	00 00		 lea	 ecx, DWORD PTR $T4[esp+4040]
  013cd	e8 00 00 00 00	 call	 ??$?0W4<unnamed-enum-EFFECT_DUST>@CInstanceBase@@AAY00$$CBDAAY0DP@$$CBD_N$0A@@?$tuple@IPBDPBD_N@std@@QAE@$$QAW4<unnamed-enum-EFFECT_DUST>@CInstanceBase@@AAY00$$CBDAAY0DP@$$CBD$$QA_N@Z ; std::tuple<unsigned int,char const *,char const *,bool>::tuple<unsigned int,char const *,char const *,bool><enum CInstanceBase::<unnamed-enum-EFFECT_DUST>,char const (&)[1],char const (&)[63],bool,0>
  013d2	8d 44 24 02	 lea	 eax, DWORD PTR $T746[esp+2040]
  013d6	c7 44 24 0c 31
	01 00 00	 mov	 DWORD PTR $T745[esp+2040], 305 ; 00000131H
  013de	50		 push	 eax
  013df	68 00 00 00 00	 push	 OFFSET ??_C@_0CM@GHEHNBJK@d?3?1ymir?5work?1effect?1hit?1gyeongg@
  013e4	68 00 00 00 00	 push	 OFFSET ??_C@_00CNPNBAHC@@
  013e9	8d 44 24 18	 lea	 eax, DWORD PTR $T745[esp+2052]
  013ed	c6 44 24 0e 01	 mov	 BYTE PTR $T746[esp+2052], 1
  013f2	50		 push	 eax
  013f3	8d 8c 24 f0 07
	00 00		 lea	 ecx, DWORD PTR $T4[esp+4056]
  013fa	e8 00 00 00 00	 call	 ??$?0W4<unnamed-enum-EFFECT_DUST>@CInstanceBase@@AAY00$$CBDAAY0CM@$$CBD_N$0A@@?$tuple@IPBDPBD_N@std@@QAE@$$QAW4<unnamed-enum-EFFECT_DUST>@CInstanceBase@@AAY00$$CBDAAY0CM@$$CBD$$QA_N@Z ; std::tuple<unsigned int,char const *,char const *,bool>::tuple<unsigned int,char const *,char const *,bool><enum CInstanceBase::<unnamed-enum-EFFECT_DUST>,char const (&)[1],char const (&)[44],bool,0>
  013ff	8d 44 24 03	 lea	 eax, DWORD PTR $T1[esp+2040]
  01403	50		 push	 eax
; File C:\Program Files\Microsoft Visual Studio\2022\Community\VC\Tools\MSVC\14.44.35207\include\initializer_list

; 34   :         : _First(_First_arg), _Last(_Last_arg) {}

  01404	8d 8c 24 f4 07
	00 00		 lea	 ecx, DWORD PTR $T4[esp+4060]
; File C:\Anka2Project\Anka2Project\Source\Binary\source\UserInterface\PythonPlayerSettingsModule.h

; 249  : {

  0140b	51		 push	 ecx
; File C:\Program Files\Microsoft Visual Studio\2022\Community\VC\Tools\MSVC\14.44.35207\include\initializer_list

; 34   :         : _First(_First_arg), _Last(_Last_arg) {}

  0140c	8d 54 24 18	 lea	 edx, DWORD PTR $T4[esp+2048]
; File C:\Anka2Project\Anka2Project\Source\Binary\source\UserInterface\PythonPlayerSettingsModule.h

; 249  : {

  01410	b9 00 00 00 00	 mov	 ecx, OFFSET ?vecEffectList@@3V?$vector@V?$tuple@IPBDPBD_N@std@@V?$allocator@V?$tuple@IPBDPBD_N@std@@@2@@std@@B
  01415	52		 push	 edx
  01416	e8 00 00 00 00	 call	 ??0?$vector@V?$tuple@IPBDPBD_N@std@@V?$allocator@V?$tuple@IPBDPBD_N@std@@@2@@std@@QAE@V?$initializer_list@V?$tuple@IPBDPBD_N@std@@@1@ABV?$allocator@V?$tuple@IPBDPBD_N@std@@@1@@Z ; std::vector<std::tuple<unsigned int,char const *,char const *,bool>,std::allocator<std::tuple<unsigned int,char const *,char const *,bool> > >::vector<std::tuple<unsigned int,char const *,char const *,bool>,std::allocator<std::tuple<unsigned int,char const *,char const *,bool> > >
  0141b	68 00 00 00 00	 push	 OFFSET ??__FvecEffectList@@YAXXZ ; `dynamic atexit destructor for 'vecEffectList''
  01420	e8 00 00 00 00	 call	 _atexit
  01425	8b 8c 24 f8 07
	00 00		 mov	 ecx, DWORD PTR __$ArrayPad$[esp+2044]
  0142c	83 c4 04	 add	 esp, 4
  0142f	33 cc		 xor	 ecx, esp
  01431	e8 00 00 00 00	 call	 @__security_check_cookie@4

; 248  : static const std::vector<TEffectList> vecEffectList =

  01436	8b e5		 mov	 esp, ebp
  01438	5d		 pop	 ebp
  01439	c3		 ret	 0
??__EvecEffectList@@YAXXZ ENDP				; `dynamic initializer for 'vecEffectList''
text$di	ENDS
; Function compile flags: /Ogtp
; File C:\Program Files\Microsoft Visual Studio\2022\Community\VC\Tools\MSVC\14.44.35207\include\vector
;	COMDAT ??__FvecEffectList@@YAXXZ
text$yd	SEGMENT
??__FvecEffectList@@YAXXZ PROC				; `dynamic atexit destructor for 'vecEffectList'', COMDAT

; 830  :         _Tidy();

  00000	b9 00 00 00 00	 mov	 ecx, OFFSET ?vecEffectList@@3V?$vector@V?$tuple@IPBDPBD_N@std@@V?$allocator@V?$tuple@IPBDPBD_N@std@@@2@@std@@B
  00005	e9 00 00 00 00	 jmp	 ?_Tidy@?$vector@V?$tuple@IPBDPBD_N@std@@V?$allocator@V?$tuple@IPBDPBD_N@std@@@2@@std@@AAEXXZ ; std::vector<std::tuple<unsigned int,char const *,char const *,bool>,std::allocator<std::tuple<unsigned int,char const *,char const *,bool> > >::_Tidy
??__FvecEffectList@@YAXXZ ENDP				; `dynamic atexit destructor for 'vecEffectList''
text$yd	ENDS
; Function compile flags: /Ogtp
; File C:\Anka2Project\Anka2Project\Source\Binary\source\UserInterface\PythonPlayerSettingsModule.h
; File C:\Program Files\Microsoft Visual Studio\2022\Community\VC\Tools\MSVC\14.44.35207\include\initializer_list
; File C:\Program Files\Microsoft Visual Studio\2022\Community\VC\Tools\MSVC\14.44.35207\include\utility
; File C:\Program Files\Microsoft Visual Studio\2022\Community\VC\Tools\MSVC\14.44.35207\include\initializer_list
; File C:\Program Files\Microsoft Visual Studio\2022\Community\VC\Tools\MSVC\14.44.35207\include\utility
; File C:\Anka2Project\Anka2Project\Source\Binary\source\UserInterface\PythonPlayerSettingsModule.h
; File C:\Program Files\Microsoft Visual Studio\2022\Community\VC\Tools\MSVC\14.44.35207\include\utility
; File C:\Anka2Project\Anka2Project\Source\Binary\source\UserInterface\PythonPlayerSettingsModule.h
;	COMDAT ??__EcharacterNameColors@@YAXXZ
text$di	SEGMENT
$T3 = -64						; size = 60
__$ArrayPad$ = -4					; size = 4
??__EcharacterNameColors@@YAXXZ PROC			; `dynamic initializer for 'characterNameColors'', COMDAT

; 523  : };

  00000	55		 push	 ebp
  00001	8b ec		 mov	 ebp, esp
  00003	83 e4 f8	 and	 esp, -8			; fffffff8H
  00006	83 ec 40	 sub	 esp, 64			; 00000040H
  00009	a1 00 00 00 00	 mov	 eax, DWORD PTR ___security_cookie
  0000e	33 c4		 xor	 eax, esp
  00010	89 44 24 3c	 mov	 DWORD PTR __$ArrayPad$[esp+64], eax
; File C:\Program Files\Microsoft Visual Studio\2022\Community\VC\Tools\MSVC\14.44.35207\include\initializer_list

; 34   :         : _First(_First_arg), _Last(_Last_arg) {}

  00014	8d 44 24 3c	 lea	 eax, DWORD PTR $T3[esp+124]
; File C:\Program Files\Microsoft Visual Studio\2022\Community\VC\Tools\MSVC\14.44.35207\include\utility

; 263  :         : first(_Val1), second(_Val2) {}

  00018	c7 04 24 09 ff
	d7 4c		 mov	 DWORD PTR $T3[esp+64], 1289223945 ; 4cd7ff09H
; File C:\Program Files\Microsoft Visual Studio\2022\Community\VC\Tools\MSVC\14.44.35207\include\initializer_list

; 34   :         : _First(_First_arg), _Last(_Last_arg) {}

  0001f	8d 0c 24	 lea	 ecx, DWORD PTR $T3[esp+64]
; File C:\Program Files\Microsoft Visual Studio\2022\Community\VC\Tools\MSVC\14.44.35207\include\utility

; 263  :         : first(_Val1), second(_Val2) {}

  00022	c7 44 24 04 08
	7a e7 5d	 mov	 DWORD PTR $T3[esp+68], 1575451144 ; 5de77a08H
; File C:\Anka2Project\Anka2Project\Source\Binary\source\UserInterface\PythonPlayerSettingsModule.h

; 503  : {

  0002a	50		 push	 eax
  0002b	51		 push	 ecx
  0002c	b9 00 00 00 00	 mov	 ecx, OFFSET ?characterNameColors@@3V?$map@EV?$array@E$02@std@@U?$less@E@2@V?$allocator@U?$pair@$$CBEV?$array@E$02@std@@@std@@@2@@std@@B
; File C:\Program Files\Microsoft Visual Studio\2022\Community\VC\Tools\MSVC\14.44.35207\include\utility

; 263  :         : first(_Val1), second(_Val2) {}

  00031	c7 44 24 10 07
	eb 16 09	 mov	 DWORD PTR $T3[esp+80], 152496903 ; 0916eb07H
  00039	c7 44 24 14 17
	ee 36 df	 mov	 DWORD PTR $T3[esp+84], -550048233 ; df36ee17H
  00041	c7 44 24 18 16
	b4 64 00	 mov	 DWORD PTR $T3[esp+88], 6599702 ; 0064b416H
  00049	c7 44 24 1c 18
	80 c0 ff	 mov	 DWORD PTR $T3[esp+92], -4161512 ; ffc08018H
  00051	c7 44 24 20 19
	88 da f1	 mov	 DWORD PTR $T3[esp+96], -237336551 ; f1da8819H
  00059	c7 44 24 24 1a
	ff ff ff	 mov	 DWORD PTR $T3[esp+100], -230 ; ffffff1aH
  00061	c7 44 24 28 0e
	eb 16 09	 mov	 DWORD PTR $T3[esp+104], 152496910 ; 0916eb0eH
  00069	c7 44 24 2c 0f
	7a e7 5d	 mov	 DWORD PTR $T3[esp+108], 1575451151 ; 5de77a0fH
  00071	c7 44 24 30 11
	9d 00 00	 mov	 DWORD PTR $T3[esp+112], 40209 ; 00009d11H
  00079	c7 44 24 34 12
	de a0 2f	 mov	 DWORD PTR $T3[esp+116], 799071762 ; 2fa0de12H
  00081	c7 44 24 38 13
	17 1e 8a	 mov	 DWORD PTR $T3[esp+120], -1977739501 ; 8a1e1713H
  00089	c7 44 24 3c 1b
	f0 ff ff	 mov	 DWORD PTR $T3[esp+124], -4069 ; fffff01bH
  00091	c7 44 24 40 1c
	ff d7 4c	 mov	 DWORD PTR $T3[esp+128], 1289223964 ; 4cd7ff1cH
; File C:\Anka2Project\Anka2Project\Source\Binary\source\UserInterface\PythonPlayerSettingsModule.h

; 503  : {

  00099	e8 00 00 00 00	 call	 ??0?$map@EV?$array@E$02@std@@U?$less@E@2@V?$allocator@U?$pair@$$CBEV?$array@E$02@std@@@std@@@2@@std@@QAE@V?$initializer_list@U?$pair@$$CBEV?$array@E$02@std@@@std@@@1@@Z ; std::map<unsigned char,std::array<unsigned char,3>,std::less<unsigned char>,std::allocator<std::pair<unsigned char const ,std::array<unsigned char,3> > > >::map<unsigned char,std::array<unsigned char,3>,std::less<unsigned char>,std::allocator<std::pair<unsigned char const ,std::array<unsigned char,3> > > >
  0009e	68 00 00 00 00	 push	 OFFSET ??__FcharacterNameColors@@YAXXZ ; `dynamic atexit destructor for 'characterNameColors''
  000a3	e8 00 00 00 00	 call	 _atexit
  000a8	8b 4c 24 40	 mov	 ecx, DWORD PTR __$ArrayPad$[esp+68]
  000ac	83 c4 04	 add	 esp, 4
  000af	33 cc		 xor	 ecx, esp
  000b1	e8 00 00 00 00	 call	 @__security_check_cookie@4

; 502  : static const TCharacterColorMap characterNameColors

  000b6	8b e5		 mov	 esp, ebp
  000b8	5d		 pop	 ebp
  000b9	c3		 ret	 0
??__EcharacterNameColors@@YAXXZ ENDP			; `dynamic initializer for 'characterNameColors''
text$di	ENDS
; Function compile flags: /Ogtp
;	COMDAT ??__FcharacterNameColors@@YAXXZ
text$yd	SEGMENT
??__FcharacterNameColors@@YAXXZ PROC			; `dynamic atexit destructor for 'characterNameColors'', COMDAT
  00000	b9 00 00 00 00	 mov	 ecx, OFFSET ?characterNameColors@@3V?$map@EV?$array@E$02@std@@U?$less@E@2@V?$allocator@U?$pair@$$CBEV?$array@E$02@std@@@std@@@2@@std@@B
  00005	e9 00 00 00 00	 jmp	 ??1?$_Tree@V?$_Tmap_traits@EV?$array@E$02@std@@U?$less@E@2@V?$allocator@U?$pair@$$CBEV?$array@E$02@std@@@std@@@2@$0A@@std@@@std@@QAE@XZ ; std::_Tree<std::_Tmap_traits<unsigned char,std::array<unsigned char,3>,std::less<unsigned char>,std::allocator<std::pair<unsigned char const ,std::array<unsigned char,3> > >,0> >::~_Tree<std::_Tmap_traits<unsigned char,std::array<unsigned char,3>,std::less<unsigned char>,std::allocator<std::pair<unsigned char const ,std::array<unsigned char,3> > >,0> >
??__FcharacterNameColors@@YAXXZ ENDP			; `dynamic atexit destructor for 'characterNameColors''
text$yd	ENDS
; Function compile flags: /Ogtp
; File C:\Anka2Project\Anka2Project\Source\Binary\source\UserInterface\PythonPlayerSettingsModule.h
; File C:\Program Files\Microsoft Visual Studio\2022\Community\VC\Tools\MSVC\14.44.35207\include\initializer_list
; File C:\Program Files\Microsoft Visual Studio\2022\Community\VC\Tools\MSVC\14.44.35207\include\utility
; File C:\Program Files\Microsoft Visual Studio\2022\Community\VC\Tools\MSVC\14.44.35207\include\initializer_list
; File C:\Program Files\Microsoft Visual Studio\2022\Community\VC\Tools\MSVC\14.44.35207\include\utility
; File C:\Anka2Project\Anka2Project\Source\Binary\source\UserInterface\PythonPlayerSettingsModule.h
; File C:\Program Files\Microsoft Visual Studio\2022\Community\VC\Tools\MSVC\14.44.35207\include\utility
; File C:\Anka2Project\Anka2Project\Source\Binary\source\UserInterface\PythonPlayerSettingsModule.h
;	COMDAT ??__EcharacterTitleColors@@YAXXZ
text$di	SEGMENT
$T3 = -40						; size = 36
__$ArrayPad$ = -4					; size = 4
??__EcharacterTitleColors@@YAXXZ PROC			; `dynamic initializer for 'characterTitleColors'', COMDAT

; 536  : };

  00000	55		 push	 ebp
  00001	8b ec		 mov	 ebp, esp
  00003	83 e4 f8	 and	 esp, -8			; fffffff8H
  00006	83 ec 28	 sub	 esp, 40			; 00000028H
  00009	a1 00 00 00 00	 mov	 eax, DWORD PTR ___security_cookie
  0000e	33 c4		 xor	 eax, esp
  00010	89 44 24 24	 mov	 DWORD PTR __$ArrayPad$[esp+40], eax
; File C:\Program Files\Microsoft Visual Studio\2022\Community\VC\Tools\MSVC\14.44.35207\include\initializer_list

; 34   :         : _First(_First_arg), _Last(_Last_arg) {}

  00014	8d 44 24 24	 lea	 eax, DWORD PTR $T3[esp+76]
; File C:\Program Files\Microsoft Visual Studio\2022\Community\VC\Tools\MSVC\14.44.35207\include\utility

; 263  :         : first(_Val1), second(_Val2) {}

  00018	c7 04 24 00 00
	cc ff		 mov	 DWORD PTR $T3[esp+40], -3407872 ; ffcc0000H
; File C:\Program Files\Microsoft Visual Studio\2022\Community\VC\Tools\MSVC\14.44.35207\include\initializer_list

; 34   :         : _First(_First_arg), _Last(_Last_arg) {}

  0001f	8d 0c 24	 lea	 ecx, DWORD PTR $T3[esp+40]
; File C:\Program Files\Microsoft Visual Studio\2022\Community\VC\Tools\MSVC\14.44.35207\include\utility

; 263  :         : first(_Val1), second(_Val2) {}

  00022	c7 44 24 04 01
	00 90 ff	 mov	 DWORD PTR $T3[esp+44], -7340031 ; ff900001H
; File C:\Anka2Project\Anka2Project\Source\Binary\source\UserInterface\PythonPlayerSettingsModule.h

; 526  : {

  0002a	50		 push	 eax
  0002b	51		 push	 ecx
  0002c	b9 00 00 00 00	 mov	 ecx, OFFSET ?characterTitleColors@@3V?$map@EV?$array@E$02@std@@U?$less@E@2@V?$allocator@U?$pair@$$CBEV?$array@E$02@std@@@std@@@2@@std@@B
; File C:\Program Files\Microsoft Visual Studio\2022\Community\VC\Tools\MSVC\14.44.35207\include\utility

; 263  :         : first(_Val1), second(_Val2) {}

  00031	c7 44 24 10 02
	5c 6e ff	 mov	 DWORD PTR $T3[esp+56], -9544702 ; ff6e5c02H
  00039	c7 44 24 14 03
	9b 9b ff	 mov	 DWORD PTR $T3[esp+60], -6579453 ; ff9b9b03H
  00041	c7 44 24 18 04
	ff ff ff	 mov	 DWORD PTR $T3[esp+64], -252 ; ffffff04H
  00049	c7 44 24 1c 05
	cf 75 00	 mov	 DWORD PTR $T3[esp+68], 7720709 ; 0075cf05H
  00051	c7 44 24 20 06
	eb 53 00	 mov	 DWORD PTR $T3[esp+72], 5499654 ; 0053eb06H
  00059	c7 44 24 24 07
	e3 00 00	 mov	 DWORD PTR $T3[esp+76], 58119 ; 0000e307H
  00061	c7 44 24 28 08
	ff 00 00	 mov	 DWORD PTR $T3[esp+80], 65288 ; 0000ff08H
; File C:\Anka2Project\Anka2Project\Source\Binary\source\UserInterface\PythonPlayerSettingsModule.h

; 526  : {

  00069	e8 00 00 00 00	 call	 ??0?$map@EV?$array@E$02@std@@U?$less@E@2@V?$allocator@U?$pair@$$CBEV?$array@E$02@std@@@std@@@2@@std@@QAE@V?$initializer_list@U?$pair@$$CBEV?$array@E$02@std@@@std@@@1@@Z ; std::map<unsigned char,std::array<unsigned char,3>,std::less<unsigned char>,std::allocator<std::pair<unsigned char const ,std::array<unsigned char,3> > > >::map<unsigned char,std::array<unsigned char,3>,std::less<unsigned char>,std::allocator<std::pair<unsigned char const ,std::array<unsigned char,3> > > >
  0006e	68 00 00 00 00	 push	 OFFSET ??__FcharacterTitleColors@@YAXXZ ; `dynamic atexit destructor for 'characterTitleColors''
  00073	e8 00 00 00 00	 call	 _atexit
  00078	8b 4c 24 28	 mov	 ecx, DWORD PTR __$ArrayPad$[esp+44]
  0007c	83 c4 04	 add	 esp, 4
  0007f	33 cc		 xor	 ecx, esp
  00081	e8 00 00 00 00	 call	 @__security_check_cookie@4

; 525  : static const TCharacterColorMap characterTitleColors

  00086	8b e5		 mov	 esp, ebp
  00088	5d		 pop	 ebp
  00089	c3		 ret	 0
??__EcharacterTitleColors@@YAXXZ ENDP			; `dynamic initializer for 'characterTitleColors''
text$di	ENDS
; Function compile flags: /Ogtp
;	COMDAT ??__FcharacterTitleColors@@YAXXZ
text$yd	SEGMENT
??__FcharacterTitleColors@@YAXXZ PROC			; `dynamic atexit destructor for 'characterTitleColors'', COMDAT
  00000	b9 00 00 00 00	 mov	 ecx, OFFSET ?characterTitleColors@@3V?$map@EV?$array@E$02@std@@U?$less@E@2@V?$allocator@U?$pair@$$CBEV?$array@E$02@std@@@std@@@2@@std@@B
  00005	e9 00 00 00 00	 jmp	 ??1?$_Tree@V?$_Tmap_traits@EV?$array@E$02@std@@U?$less@E@2@V?$allocator@U?$pair@$$CBEV?$array@E$02@std@@@std@@@2@$0A@@std@@@std@@QAE@XZ ; std::_Tree<std::_Tmap_traits<unsigned char,std::array<unsigned char,3>,std::less<unsigned char>,std::allocator<std::pair<unsigned char const ,std::array<unsigned char,3> > >,0> >::~_Tree<std::_Tmap_traits<unsigned char,std::array<unsigned char,3>,std::less<unsigned char>,std::allocator<std::pair<unsigned char const ,std::array<unsigned char,3> > >,0> >
??__FcharacterTitleColors@@YAXXZ ENDP			; `dynamic atexit destructor for 'characterTitleColors''
text$yd	ENDS
; Function compile flags: /Ogtp
; File C:\Anka2Project\Anka2Project\Source\Binary\source\UserInterface\PythonPlayerSettingsModule.h
; File C:\Program Files\Microsoft Visual Studio\2022\Community\VC\Tools\MSVC\14.44.35207\include\initializer_list
; File C:\Program Files\Microsoft Visual Studio\2022\Community\VC\Tools\MSVC\14.44.35207\include\utility
; File C:\Program Files\Microsoft Visual Studio\2022\Community\VC\Tools\MSVC\14.44.35207\include\initializer_list
; File C:\Program Files\Microsoft Visual Studio\2022\Community\VC\Tools\MSVC\14.44.35207\include\utility
; File C:\Anka2Project\Anka2Project\Source\Binary\source\UserInterface\PythonPlayerSettingsModule.h
; File C:\Program Files\Microsoft Visual Studio\2022\Community\VC\Tools\MSVC\14.44.35207\include\utility
; File C:\Anka2Project\Anka2Project\Source\Binary\source\UserInterface\PythonPlayerSettingsModule.h
;	COMDAT ??__EcharacterTitleSystemColors@@YAXXZ
text$di	SEGMENT
$T3 = -96						; size = 84
__$ArrayPad$ = -4					; size = 4
??__EcharacterTitleSystemColors@@YAXXZ PROC		; `dynamic initializer for 'characterTitleSystemColors'', COMDAT

; 562  : };

  00000	55		 push	 ebp
  00001	8b ec		 mov	 ebp, esp
  00003	83 e4 f8	 and	 esp, -8			; fffffff8H
  00006	83 ec 60	 sub	 esp, 96			; 00000060H
  00009	a1 00 00 00 00	 mov	 eax, DWORD PTR ___security_cookie
  0000e	33 c4		 xor	 eax, esp
  00010	89 44 24 5c	 mov	 DWORD PTR __$ArrayPad$[esp+96], eax
; File C:\Program Files\Microsoft Visual Studio\2022\Community\VC\Tools\MSVC\14.44.35207\include\initializer_list

; 34   :         : _First(_First_arg), _Last(_Last_arg) {}

  00014	8d 44 24 54	 lea	 eax, DWORD PTR $T3[esp+180]
; File C:\Program Files\Microsoft Visual Studio\2022\Community\VC\Tools\MSVC\14.44.35207\include\utility

; 263  :         : first(_Val1), second(_Val2) {}

  00018	c7 04 24 00 ff
	e6 ba		 mov	 DWORD PTR $T3[esp+96], -1159266560 ; bae6ff00H
; File C:\Program Files\Microsoft Visual Studio\2022\Community\VC\Tools\MSVC\14.44.35207\include\initializer_list

; 34   :         : _First(_First_arg), _Last(_Last_arg) {}

  0001f	8d 0c 24	 lea	 ecx, DWORD PTR $T3[esp+96]
; File C:\Program Files\Microsoft Visual Studio\2022\Community\VC\Tools\MSVC\14.44.35207\include\utility

; 263  :         : first(_Val1), second(_Val2) {}

  00022	c7 44 24 04 01
	ff e6 ba	 mov	 DWORD PTR $T3[esp+100], -1159266559 ; bae6ff01H
; File C:\Anka2Project\Anka2Project\Source\Binary\source\UserInterface\PythonPlayerSettingsModule.h

; 540  : {

  0002a	50		 push	 eax
  0002b	51		 push	 ecx
  0002c	b9 00 00 00 00	 mov	 ecx, OFFSET ?characterTitleSystemColors@@3V?$map@EV?$array@E$02@std@@U?$less@E@2@V?$allocator@U?$pair@$$CBEV?$array@E$02@std@@@std@@@2@@std@@B
; File C:\Program Files\Microsoft Visual Studio\2022\Community\VC\Tools\MSVC\14.44.35207\include\utility

; 263  :         : first(_Val1), second(_Val2) {}

  00031	c7 44 24 10 02
	ff e6 ba	 mov	 DWORD PTR $T3[esp+112], -1159266558 ; bae6ff02H
  00039	c7 44 24 14 03
	ff e6 ba	 mov	 DWORD PTR $T3[esp+116], -1159266557 ; bae6ff03H
  00041	c7 44 24 18 04
	ff e6 ba	 mov	 DWORD PTR $T3[esp+120], -1159266556 ; bae6ff04H
  00049	c7 44 24 1c 05
	ff e6 ba	 mov	 DWORD PTR $T3[esp+124], -1159266555 ; bae6ff05H
  00051	c7 44 24 20 06
	ff e6 ba	 mov	 DWORD PTR $T3[esp+128], -1159266554 ; bae6ff06H
  00059	c7 44 24 24 07
	ff e6 ba	 mov	 DWORD PTR $T3[esp+132], -1159266553 ; bae6ff07H
  00061	c7 44 24 28 08
	ff e6 ba	 mov	 DWORD PTR $T3[esp+136], -1159266552 ; bae6ff08H
  00069	c7 44 24 2c 09
	ff e6 ba	 mov	 DWORD PTR $T3[esp+140], -1159266551 ; bae6ff09H
  00071	c7 44 24 30 0a
	ff e6 ba	 mov	 DWORD PTR $T3[esp+144], -1159266550 ; bae6ff0aH
  00079	c7 44 24 34 0b
	ff e6 ba	 mov	 DWORD PTR $T3[esp+148], -1159266549 ; bae6ff0bH
  00081	c7 44 24 38 0c
	ff e6 ba	 mov	 DWORD PTR $T3[esp+152], -1159266548 ; bae6ff0cH
  00089	c7 44 24 3c 0d
	ff e6 ba	 mov	 DWORD PTR $T3[esp+156], -1159266547 ; bae6ff0dH
  00091	c7 44 24 40 0e
	ff e6 ba	 mov	 DWORD PTR $T3[esp+160], -1159266546 ; bae6ff0eH
  00099	c7 44 24 44 0f
	ff e6 ba	 mov	 DWORD PTR $T3[esp+164], -1159266545 ; bae6ff0fH
  000a1	c7 44 24 48 10
	ff e6 ba	 mov	 DWORD PTR $T3[esp+168], -1159266544 ; bae6ff10H
  000a9	c7 44 24 4c 11
	ff e6 ba	 mov	 DWORD PTR $T3[esp+172], -1159266543 ; bae6ff11H
  000b1	c7 44 24 50 12
	ff e6 ba	 mov	 DWORD PTR $T3[esp+176], -1159266542 ; bae6ff12H
  000b9	c7 44 24 54 13
	ff e6 ba	 mov	 DWORD PTR $T3[esp+180], -1159266541 ; bae6ff13H
  000c1	c7 44 24 58 14
	ff e6 ba	 mov	 DWORD PTR $T3[esp+184], -1159266540 ; bae6ff14H
; File C:\Anka2Project\Anka2Project\Source\Binary\source\UserInterface\PythonPlayerSettingsModule.h

; 540  : {

  000c9	e8 00 00 00 00	 call	 ??0?$map@EV?$array@E$02@std@@U?$less@E@2@V?$allocator@U?$pair@$$CBEV?$array@E$02@std@@@std@@@2@@std@@QAE@V?$initializer_list@U?$pair@$$CBEV?$array@E$02@std@@@std@@@1@@Z ; std::map<unsigned char,std::array<unsigned char,3>,std::less<unsigned char>,std::allocator<std::pair<unsigned char const ,std::array<unsigned char,3> > > >::map<unsigned char,std::array<unsigned char,3>,std::less<unsigned char>,std::allocator<std::pair<unsigned char const ,std::array<unsigned char,3> > > >
  000ce	68 00 00 00 00	 push	 OFFSET ??__FcharacterTitleSystemColors@@YAXXZ ; `dynamic atexit destructor for 'characterTitleSystemColors''
  000d3	e8 00 00 00 00	 call	 _atexit
  000d8	8b 4c 24 60	 mov	 ecx, DWORD PTR __$ArrayPad$[esp+100]
  000dc	83 c4 04	 add	 esp, 4
  000df	33 cc		 xor	 ecx, esp
  000e1	e8 00 00 00 00	 call	 @__security_check_cookie@4

; 539  : static const TCharacterColorMap characterTitleSystemColors

  000e6	8b e5		 mov	 esp, ebp
  000e8	5d		 pop	 ebp
  000e9	c3		 ret	 0
??__EcharacterTitleSystemColors@@YAXXZ ENDP		; `dynamic initializer for 'characterTitleSystemColors''
text$di	ENDS
; Function compile flags: /Ogtp
;	COMDAT ??__FcharacterTitleSystemColors@@YAXXZ
text$yd	SEGMENT
??__FcharacterTitleSystemColors@@YAXXZ PROC		; `dynamic atexit destructor for 'characterTitleSystemColors'', COMDAT
  00000	b9 00 00 00 00	 mov	 ecx, OFFSET ?characterTitleSystemColors@@3V?$map@EV?$array@E$02@std@@U?$less@E@2@V?$allocator@U?$pair@$$CBEV?$array@E$02@std@@@std@@@2@@std@@B
  00005	e9 00 00 00 00	 jmp	 ??1?$_Tree@V?$_Tmap_traits@EV?$array@E$02@std@@U?$less@E@2@V?$allocator@U?$pair@$$CBEV?$array@E$02@std@@@std@@@2@$0A@@std@@@std@@QAE@XZ ; std::_Tree<std::_Tmap_traits<unsigned char,std::array<unsigned char,3>,std::less<unsigned char>,std::allocator<std::pair<unsigned char const ,std::array<unsigned char,3> > >,0> >::~_Tree<std::_Tmap_traits<unsigned char,std::array<unsigned char,3>,std::less<unsigned char>,std::allocator<std::pair<unsigned char const ,std::array<unsigned char,3> > >,0> >
??__FcharacterTitleSystemColors@@YAXXZ ENDP		; `dynamic atexit destructor for 'characterTitleSystemColors''
text$yd	ENDS
; Function compile flags: /Ogtp
; File C:\Anka2Project\Anka2Project\Source\Binary\source\UserInterface\PythonPlayerSettingsModule.h
; File C:\Program Files\Microsoft Visual Studio\2022\Community\VC\Tools\MSVC\14.44.35207\include\utility
; File C:\Program Files\Microsoft Visual Studio\2022\Community\VC\Tools\MSVC\14.44.35207\include\initializer_list
; File C:\Program Files\Microsoft Visual Studio\2022\Community\VC\Tools\MSVC\14.44.35207\include\utility
; File C:\Program Files\Microsoft Visual Studio\2022\Community\VC\Tools\MSVC\14.44.35207\include\initializer_list
; File C:\Program Files\Microsoft Visual Studio\2022\Community\VC\Tools\MSVC\14.44.35207\include\utility
; File C:\Anka2Project\Anka2Project\Source\Binary\source\UserInterface\PythonPlayerSettingsModule.h
; File C:\Program Files\Microsoft Visual Studio\2022\Community\VC\Tools\MSVC\14.44.35207\include\utility
; File C:\Anka2Project\Anka2Project\Source\Binary\source\UserInterface\PythonPlayerSettingsModule.h
;	COMDAT ??__EemotionIcons@@YAXXZ
text$di	SEGMENT
$T2 = -400						; size = 392
__$ArrayPad$ = -4					; size = 4
??__EemotionIcons@@YAXXZ PROC				; `dynamic initializer for 'emotionIcons'', COMDAT

; 616  : };

  00000	55		 push	 ebp
  00001	8b ec		 mov	 ebp, esp
  00003	83 e4 f8	 and	 esp, -8			; fffffff8H
  00006	81 ec 90 01 00
	00		 sub	 esp, 400		; 00000190H
  0000c	a1 00 00 00 00	 mov	 eax, DWORD PTR ___security_cookie
  00011	33 c4		 xor	 eax, esp
  00013	89 84 24 8c 01
	00 00		 mov	 DWORD PTR __$ArrayPad$[esp+400], eax
; File C:\Program Files\Microsoft Visual Studio\2022\Community\VC\Tools\MSVC\14.44.35207\include\utility

; 274  :         : first(_STD forward<_Other1>(_Val1)), second(_STD forward<_Other2>(_Val2)) {

  0001a	c6 04 24 01	 mov	 BYTE PTR $T2[esp+400], 1
  0001e	c7 44 24 04 00
	00 00 00	 mov	 DWORD PTR $T2[esp+404], OFFSET ??_C@_0CO@MFCEALPI@d?3?1ymir?5work?1ui?1game?1windows?1em@
  00026	c6 44 24 08 0b	 mov	 BYTE PTR $T2[esp+408], 11 ; 0000000bH
  0002b	c7 44 24 0c 00
	00 00 00	 mov	 DWORD PTR $T2[esp+412], OFFSET ??_C@_0DC@FAACJHAB@d?3?1ymir?5work?1ui?1game?1windows?1em@
  00033	c6 44 24 10 0c	 mov	 BYTE PTR $T2[esp+416], 12 ; 0000000cH
  00038	c7 44 24 14 00
	00 00 00	 mov	 DWORD PTR $T2[esp+420], OFFSET ??_C@_0DC@NGJGOFKP@d?3?1ymir?5work?1ui?1game?1windows?1em@
  00040	c6 44 24 18 0d	 mov	 BYTE PTR $T2[esp+424], 13 ; 0000000dH
  00045	c7 44 24 1c 00
	00 00 00	 mov	 DWORD PTR $T2[esp+428], OFFSET ??_C@_0BH@OMFLFAKO@icon?1action?1dance1?4tga@
  0004d	c6 44 24 20 0e	 mov	 BYTE PTR $T2[esp+432], 14 ; 0000000eH
  00052	c7 44 24 24 00
	00 00 00	 mov	 DWORD PTR $T2[esp+436], OFFSET ??_C@_0BH@GKMPCCAA@icon?1action?1dance2?4tga@
  0005a	c6 44 24 28 02	 mov	 BYTE PTR $T2[esp+440], 2
  0005f	c7 44 24 2c 00
	00 00 00	 mov	 DWORD PTR $T2[esp+444], OFFSET ??_C@_0BP@GFFNIAJA@icon?1action?1congratulation?4tga@
  00067	c6 44 24 30 03	 mov	 BYTE PTR $T2[esp+448], 3
  0006c	c7 44 24 34 00
	00 00 00	 mov	 DWORD PTR $T2[esp+452], OFFSET ??_C@_0BI@BEEJPNBE@icon?1action?1forgive?4tga@
  00074	c6 44 24 38 04	 mov	 BYTE PTR $T2[esp+456], 4
  00079	c7 44 24 3c 00
	00 00 00	 mov	 DWORD PTR $T2[esp+460], OFFSET ??_C@_0BG@JPEPMGBB@icon?1action?1angry?4tga@
  00081	c6 44 24 40 05	 mov	 BYTE PTR $T2[esp+464], 5
  00086	c7 44 24 44 00
	00 00 00	 mov	 DWORD PTR $T2[esp+468], OFFSET ??_C@_0BL@FJINJML@icon?1action?1attractive?4tga@
  0008e	c6 44 24 48 06	 mov	 BYTE PTR $T2[esp+472], 6
  00093	c7 44 24 4c 00
	00 00 00	 mov	 DWORD PTR $T2[esp+476], OFFSET ??_C@_0BE@PHMEGIFH@icon?1action?1sad?4tga@
  0009b	c6 44 24 50 07	 mov	 BYTE PTR $T2[esp+480], 7
  000a0	c7 44 24 54 00
	00 00 00	 mov	 DWORD PTR $T2[esp+484], OFFSET ??_C@_0BE@NNBEDMMB@icon?1action?1shy?4tga@
  000a8	c6 44 24 58 08	 mov	 BYTE PTR $T2[esp+488], 8
  000ad	c7 44 24 5c 00
	00 00 00	 mov	 DWORD PTR $T2[esp+492], OFFSET ??_C@_0BI@NHHIJFI@icon?1action?1cheerup?4tga@
  000b5	c6 44 24 60 09	 mov	 BYTE PTR $T2[esp+496], 9
  000ba	c7 44 24 64 00
	00 00 00	 mov	 DWORD PTR $T2[esp+500], OFFSET ??_C@_0BH@PLFMNKBN@icon?1action?1banter?4tga@
  000c2	c6 44 24 68 0a	 mov	 BYTE PTR $T2[esp+504], 10 ; 0000000aH
  000c7	c7 44 24 6c 00
	00 00 00	 mov	 DWORD PTR $T2[esp+508], OFFSET ??_C@_0BE@HLEHCIEP@icon?1action?1joy?4tga@
  000cf	c6 44 24 70 0d	 mov	 BYTE PTR $T2[esp+512], 13 ; 0000000dH
  000d4	c7 44 24 74 00
	00 00 00	 mov	 DWORD PTR $T2[esp+516], OFFSET ??_C@_0BH@OMFLFAKO@icon?1action?1dance1?4tga@
  000dc	c6 44 24 78 0e	 mov	 BYTE PTR $T2[esp+520], 14 ; 0000000eH
  000e1	c7 44 24 7c 00
	00 00 00	 mov	 DWORD PTR $T2[esp+524], OFFSET ??_C@_0BH@GKMPCCAA@icon?1action?1dance2?4tga@
  000e9	c6 84 24 80 00
	00 00 0f	 mov	 BYTE PTR $T2[esp+528], 15 ; 0000000fH
  000f1	c7 84 24 84 00
	00 00 00 00 00
	00		 mov	 DWORD PTR $T2[esp+532], OFFSET ??_C@_0BH@KBJDPBKF@icon?1action?1dance3?4tga@
  000fc	c6 84 24 88 00
	00 00 10	 mov	 BYTE PTR $T2[esp+536], 16 ; 00000010H
  00104	c7 84 24 8c 00
	00 00 00 00 00
	00		 mov	 DWORD PTR $T2[esp+540], OFFSET ??_C@_0BH@LMJGMBBN@icon?1action?1dance4?4tga@
  0010f	c6 84 24 90 00
	00 00 11	 mov	 BYTE PTR $T2[esp+544], 17 ; 00000011H
  00117	c7 84 24 94 00
	00 00 00 00 00
	00		 mov	 DWORD PTR $T2[esp+548], OFFSET ??_C@_0BH@HHMKBCLI@icon?1action?1dance5?4tga@
  00122	c6 84 24 98 00
	00 00 12	 mov	 BYTE PTR $T2[esp+552], 18 ; 00000012H
  0012a	c7 84 24 9c 00
	00 00 00 00 00
	00		 mov	 DWORD PTR $T2[esp+556], OFFSET ??_C@_0BH@PBFOGABG@icon?1action?1dance6?4tga@
  00135	c6 84 24 a0 00
	00 00 13	 mov	 BYTE PTR $T2[esp+560], 19 ; 00000013H
  0013d	c7 84 24 a4 00
	00 00 00 00 00
	00		 mov	 DWORD PTR $T2[esp+564], OFFSET ??_C@_0BH@DKACLDLD@icon?1action?1dance7?4tga@
  00148	c6 84 24 a8 00
	00 00 14	 mov	 BYTE PTR $T2[esp+568], 20 ; 00000014H
  00150	c7 84 24 ac 00
	00 00 00 00 00
	00		 mov	 DWORD PTR $T2[esp+572], OFFSET ??_C@_0BH@FENECHOL@icon?1action?1selfie?4tga@
  0015b	c6 84 24 b0 00
	00 00 15	 mov	 BYTE PTR $T2[esp+576], 21 ; 00000015H
  00163	c7 84 24 b4 00
	00 00 00 00 00
	00		 mov	 DWORD PTR $T2[esp+580], OFFSET ??_C@_0BF@DCMJCJMG@icon?1action?1doze?4tga@
  0016e	c6 84 24 b8 00
	00 00 16	 mov	 BYTE PTR $T2[esp+584], 22 ; 00000016H
  00176	c7 84 24 bc 00
	00 00 00 00 00
	00		 mov	 DWORD PTR $T2[esp+588], OFFSET ??_C@_0BJ@IAIOJNNE@icon?1action?1exercise?4tga@
  00181	c6 84 24 c0 00
	00 00 17	 mov	 BYTE PTR $T2[esp+592], 23 ; 00000017H
  00189	c7 84 24 c4 00
	00 00 00 00 00
	00		 mov	 DWORD PTR $T2[esp+596], OFFSET ??_C@_0BH@HPAODKAC@icon?1action?1pushup?4tga@
  00194	c6 84 24 c8 00
	00 00 3d	 mov	 BYTE PTR $T2[esp+600], 61 ; 0000003dH
  0019c	c7 84 24 cc 00
	00 00 00 00 00
	00		 mov	 DWORD PTR $T2[esp+604], OFFSET ??_C@_0BK@BPOFCBBP@icon?1action?1emotion_1?4tga@
  001a7	c6 84 24 d0 00
	00 00 3e	 mov	 BYTE PTR $T2[esp+608], 62 ; 0000003eH
  001af	c7 84 24 d4 00
	00 00 00 00 00
	00		 mov	 DWORD PTR $T2[esp+612], OFFSET ??_C@_0BK@JJHBFDLB@icon?1action?1emotion_2?4tga@
  001ba	c6 84 24 d8 00
	00 00 3f	 mov	 BYTE PTR $T2[esp+616], 63 ; 0000003fH
  001c2	c7 84 24 dc 00
	00 00 00 00 00
	00		 mov	 DWORD PTR $T2[esp+620], OFFSET ??_C@_0BK@FCCNIABE@icon?1action?1emotion_3?4tga@
  001cd	c6 84 24 e0 00
	00 00 40	 mov	 BYTE PTR $T2[esp+624], 64 ; 00000040H
  001d5	c7 84 24 e4 00
	00 00 00 00 00
	00		 mov	 DWORD PTR $T2[esp+628], OFFSET ??_C@_0BK@EPCILAKM@icon?1action?1emotion_4?4tga@
  001e0	c6 84 24 e8 00
	00 00 41	 mov	 BYTE PTR $T2[esp+632], 65 ; 00000041H
  001e8	c7 84 24 ec 00
	00 00 00 00 00
	00		 mov	 DWORD PTR $T2[esp+636], OFFSET ??_C@_0BK@IEHEGDAJ@icon?1action?1emotion_5?4tga@
  001f3	c6 84 24 f0 00
	00 00 42	 mov	 BYTE PTR $T2[esp+640], 66 ; 00000042H
  001fb	c7 84 24 f4 00
	00 00 00 00 00
	00		 mov	 DWORD PTR $T2[esp+644], OFFSET ??_C@_0BK@COABBKH@icon?1action?1emotion_6?4tga@
  00206	c6 84 24 f8 00
	00 00 43	 mov	 BYTE PTR $T2[esp+648], 67 ; 00000043H
  0020e	c7 84 24 fc 00
	00 00 00 00 00
	00		 mov	 DWORD PTR $T2[esp+652], OFFSET ??_C@_0BK@MJLMMCAC@icon?1action?1emotion_7?4tga@
  00219	c6 84 24 00 01
	00 00 44	 mov	 BYTE PTR $T2[esp+656], 68 ; 00000044H
  00221	c7 84 24 04 01
	00 00 00 00 00
	00		 mov	 DWORD PTR $T2[esp+660], OFFSET ??_C@_0BK@DIOKHANH@icon?1action?1emotion_8?4tga@
  0022c	c6 84 24 08 01
	00 00 45	 mov	 BYTE PTR $T2[esp+664], 69 ; 00000045H
  00234	c7 84 24 0c 01
	00 00 00 00 00
	00		 mov	 DWORD PTR $T2[esp+668], OFFSET ??_C@_0BK@PDLGKDHC@icon?1action?1emotion_9?4tga@
  0023f	c6 84 24 10 01
	00 00 46	 mov	 BYTE PTR $T2[esp+672], 70 ; 00000046H
  00247	c7 84 24 14 01
	00 00 00 00 00
	00		 mov	 DWORD PTR $T2[esp+676], OFFSET ??_C@_0BL@PMKPICHA@icon?1action?1emotion_10?4tga@
  00252	c6 84 24 18 01
	00 00 47	 mov	 BYTE PTR $T2[esp+680], 71 ; 00000047H
  0025a	c7 84 24 1c 01
	00 00 00 00 00
	00		 mov	 DWORD PTR $T2[esp+684], OFFSET ??_C@_0BL@DHPDFBNF@icon?1action?1emotion_11?4tga@
  00265	c6 84 24 20 01
	00 00 48	 mov	 BYTE PTR $T2[esp+688], 72 ; 00000048H
  0026d	c7 84 24 24 01
	00 00 00 00 00
	00		 mov	 DWORD PTR $T2[esp+692], OFFSET ??_C@_0BL@LBGHCDHL@icon?1action?1emotion_12?4tga@
  00278	c6 84 24 28 01
	00 00 49	 mov	 BYTE PTR $T2[esp+696], 73 ; 00000049H
  00280	c7 84 24 2c 01
	00 00 00 00 00
	00		 mov	 DWORD PTR $T2[esp+700], OFFSET ??_C@_0BF@LAAKDKNI@icon?1action?1bani?4tga@
  0028b	c6 84 24 30 01
	00 00 4a	 mov	 BYTE PTR $T2[esp+704], 74 ; 0000004aH
  00293	c7 84 24 34 01
	00 00 00 00 00
	00		 mov	 DWORD PTR $T2[esp+708], OFFSET ??_C@_0BF@LAAKDKNI@icon?1action?1bani?4tga@
  0029e	c6 84 24 38 01
	00 00 4b	 mov	 BYTE PTR $T2[esp+712], 75 ; 0000004bH
  002a6	c7 84 24 3c 01
	00 00 00 00 00
	00		 mov	 DWORD PTR $T2[esp+716], OFFSET ??_C@_0BF@LAAKDKNI@icon?1action?1bani?4tga@
  002b1	c6 84 24 40 01
	00 00 4c	 mov	 BYTE PTR $T2[esp+720], 76 ; 0000004cH
; File C:\Program Files\Microsoft Visual Studio\2022\Community\VC\Tools\MSVC\14.44.35207\include\initializer_list

; 34   :         : _First(_First_arg), _Last(_Last_arg) {}

  002b9	8d 84 24 88 01
	00 00		 lea	 eax, DWORD PTR $T2[esp+792]
; File C:\Program Files\Microsoft Visual Studio\2022\Community\VC\Tools\MSVC\14.44.35207\include\utility

; 274  :         : first(_STD forward<_Other1>(_Val1)), second(_STD forward<_Other2>(_Val2)) {

  002c0	c7 84 24 44 01
	00 00 00 00 00
	00		 mov	 DWORD PTR $T2[esp+724], OFFSET ??_C@_0BK@ELOIPPLP@icon?1action?1bestmates?4tga@
; File C:\Program Files\Microsoft Visual Studio\2022\Community\VC\Tools\MSVC\14.44.35207\include\initializer_list

; 34   :         : _First(_First_arg), _Last(_Last_arg) {}

  002cb	8d 0c 24	 lea	 ecx, DWORD PTR $T2[esp+400]
; File C:\Program Files\Microsoft Visual Studio\2022\Community\VC\Tools\MSVC\14.44.35207\include\utility

; 274  :         : first(_STD forward<_Other1>(_Val1)), second(_STD forward<_Other2>(_Val2)) {

  002ce	c6 84 24 48 01
	00 00 4d	 mov	 BYTE PTR $T2[esp+728], 77 ; 0000004dH
; File C:\Anka2Project\Anka2Project\Source\Binary\source\UserInterface\PythonPlayerSettingsModule.h

; 566  : {

  002d6	50		 push	 eax
  002d7	51		 push	 ecx
  002d8	b9 00 00 00 00	 mov	 ecx, OFFSET ?emotionIcons@@3V?$map@EPBDU?$less@E@std@@V?$allocator@U?$pair@$$CBEPBD@std@@@2@@std@@B
; File C:\Program Files\Microsoft Visual Studio\2022\Community\VC\Tools\MSVC\14.44.35207\include\utility

; 274  :         : first(_STD forward<_Other1>(_Val1)), second(_STD forward<_Other2>(_Val2)) {

  002dd	c7 84 24 54 01
	00 00 00 00 00
	00		 mov	 DWORD PTR $T2[esp+740], OFFSET ??_C@_0BG@JKBEMEJO@icon?1action?1flair?4tga@
  002e8	c6 84 24 58 01
	00 00 4e	 mov	 BYTE PTR $T2[esp+744], 78 ; 0000004eH
  002f0	c7 84 24 5c 01
	00 00 00 00 00
	00		 mov	 DWORD PTR $T2[esp+748], OFFSET ??_C@_0BG@FIKAAJPK@icon?1action?1horon?4tga@
  002fb	c6 84 24 60 01
	00 00 4f	 mov	 BYTE PTR $T2[esp+752], 79 ; 0000004fH
  00303	c7 84 24 64 01
	00 00 00 00 00
	00		 mov	 DWORD PTR $T2[esp+756], OFFSET ??_C@_0BL@BLFBHANH@icon?1action?1robotdance?4tga@
  0030e	c6 84 24 68 01
	00 00 50	 mov	 BYTE PTR $T2[esp+760], 80 ; 00000050H
  00316	c7 84 24 6c 01
	00 00 00 00 00
	00		 mov	 DWORD PTR $T2[esp+764], OFFSET ??_C@_0BJ@BMIINBG@icon?1action?1snowball?4tga@
  00321	c6 84 24 70 01
	00 00 51	 mov	 BYTE PTR $T2[esp+768], 81 ; 00000051H
  00329	c7 84 24 74 01
	00 00 00 00 00
	00		 mov	 DWORD PTR $T2[esp+772], OFFSET ??_C@_0BL@MKJPKIAM@icon?1action?1surprised2?4tga@
  00334	c6 84 24 78 01
	00 00 33	 mov	 BYTE PTR $T2[esp+776], 51 ; 00000033H
  0033c	c7 84 24 7c 01
	00 00 00 00 00
	00		 mov	 DWORD PTR $T2[esp+780], OFFSET ??_C@_0CO@EAMJFIMN@d?3?1ymir?5work?1ui?1game?1windows?1em@
  00347	c6 84 24 80 01
	00 00 34	 mov	 BYTE PTR $T2[esp+784], 52 ; 00000034H
  0034f	c7 84 24 84 01
	00 00 00 00 00
	00		 mov	 DWORD PTR $T2[esp+788], OFFSET ??_C@_0DF@IGFOIPMD@d?3?1ymir?5work?1ui?1game?1windows?1em@
  0035a	c6 84 24 88 01
	00 00 35	 mov	 BYTE PTR $T2[esp+792], 53 ; 00000035H
  00362	c7 84 24 8c 01
	00 00 00 00 00
	00		 mov	 DWORD PTR $T2[esp+796], OFFSET ??_C@_0CO@GJOEEJIJ@d?3?1ymir?5work?1ui?1game?1windows?1em@
; File C:\Anka2Project\Anka2Project\Source\Binary\source\UserInterface\PythonPlayerSettingsModule.h

; 566  : {

  0036d	e8 00 00 00 00	 call	 ??0?$map@EPBDU?$less@E@std@@V?$allocator@U?$pair@$$CBEPBD@std@@@2@@std@@QAE@V?$initializer_list@U?$pair@$$CBEPBD@std@@@1@@Z ; std::map<unsigned char,char const *,std::less<unsigned char>,std::allocator<std::pair<unsigned char const ,char const *> > >::map<unsigned char,char const *,std::less<unsigned char>,std::allocator<std::pair<unsigned char const ,char const *> > >
  00372	68 00 00 00 00	 push	 OFFSET ??__FemotionIcons@@YAXXZ ; `dynamic atexit destructor for 'emotionIcons''
  00377	e8 00 00 00 00	 call	 _atexit
  0037c	8b 8c 24 90 01
	00 00		 mov	 ecx, DWORD PTR __$ArrayPad$[esp+404]
  00383	83 c4 04	 add	 esp, 4
  00386	33 cc		 xor	 ecx, esp
  00388	e8 00 00 00 00	 call	 @__security_check_cookie@4

; 565  : static const std::map<uint8_t, const char*> emotionIcons =

  0038d	8b e5		 mov	 esp, ebp
  0038f	5d		 pop	 ebp
  00390	c3		 ret	 0
??__EemotionIcons@@YAXXZ ENDP				; `dynamic initializer for 'emotionIcons''
text$di	ENDS
; Function compile flags: /Ogtp
;	COMDAT ??__FemotionIcons@@YAXXZ
text$yd	SEGMENT
??__FemotionIcons@@YAXXZ PROC				; `dynamic atexit destructor for 'emotionIcons'', COMDAT
  00000	b9 00 00 00 00	 mov	 ecx, OFFSET ?emotionIcons@@3V?$map@EPBDU?$less@E@std@@V?$allocator@U?$pair@$$CBEPBD@std@@@2@@std@@B
  00005	e9 00 00 00 00	 jmp	 ??1?$_Tree@V?$_Tmap_traits@EPBDU?$less@E@std@@V?$allocator@U?$pair@$$CBEPBD@std@@@2@$0A@@std@@@std@@QAE@XZ ; std::_Tree<std::_Tmap_traits<unsigned char,char const *,std::less<unsigned char>,std::allocator<std::pair<unsigned char const ,char const *> >,0> >::~_Tree<std::_Tmap_traits<unsigned char,char const *,std::less<unsigned char>,std::allocator<std::pair<unsigned char const ,char const *> >,0> >
??__FemotionIcons@@YAXXZ ENDP				; `dynamic atexit destructor for 'emotionIcons''
text$yd	ENDS
; Function compile flags: /Ogtp
; File C:\Anka2Project\Anka2Project\Source\Binary\source\UserInterface\PythonPlayerSettingsModule.h
; File C:\Program Files\Microsoft Visual Studio\2022\Community\VC\Tools\MSVC\14.44.35207\include\vector
; File C:\Anka2Project\Anka2Project\Source\Binary\source\UserInterface\PythonPlayerSettingsModule.h
; File C:\Program Files\Microsoft Visual Studio\2022\Community\VC\Tools\MSVC\14.44.35207\include\initializer_list
; File C:\Anka2Project\Anka2Project\Source\Binary\source\UserInterface\PythonPlayerSettingsModule.h
; File C:\Program Files\Microsoft Visual Studio\2022\Community\VC\Tools\MSVC\14.44.35207\include\initializer_list
; File C:\Anka2Project\Anka2Project\Source\Binary\source\UserInterface\PythonPlayerSettingsModule.h
; File C:\Program Files\Microsoft Visual Studio\2022\Community\VC\Tools\MSVC\14.44.35207\include\vector
; File C:\Anka2Project\Anka2Project\Source\Binary\source\UserInterface\PythonPlayerSettingsModule.h
; File C:\Program Files\Microsoft Visual Studio\2022\Community\VC\Tools\MSVC\14.44.35207\include\vector
; File C:\Program Files\Microsoft Visual Studio\2022\Community\VC\Tools\MSVC\14.44.35207\include\xmemory
; File C:\Program Files\Microsoft Visual Studio\2022\Community\VC\Tools\MSVC\14.44.35207\include\vector
; File C:\Program Files\Microsoft Visual Studio\2022\Community\VC\Tools\MSVC\14.44.35207\include\xmemory
; File C:\Program Files\Microsoft Visual Studio\2022\Community\VC\Tools\MSVC\14.44.35207\include\vector
; File C:\Anka2Project\Anka2Project\Source\Binary\source\UserInterface\PythonPlayerSettingsModule.h
; File C:\Program Files\Microsoft Visual Studio\2022\Community\VC\Tools\MSVC\14.44.35207\include\utility
; File C:\Program Files\Microsoft Visual Studio\2022\Community\VC\Tools\MSVC\14.44.35207\include\vector
; File C:\Program Files\Microsoft Visual Studio\2022\Community\VC\Tools\MSVC\14.44.35207\include\xmemory
; File C:\Program Files\Microsoft Visual Studio\2022\Community\VC\Tools\MSVC\14.44.35207\include\vector
; File C:\Program Files\Microsoft Visual Studio\2022\Community\VC\Tools\MSVC\14.44.35207\include\xmemory
; File C:\Program Files\Microsoft Visual Studio\2022\Community\VC\Tools\MSVC\14.44.35207\include\vector
; File C:\Program Files\Microsoft Visual Studio\2022\Community\VC\Tools\MSVC\14.44.35207\include\xmemory
; File C:\Program Files\Microsoft Visual Studio\2022\Community\VC\Tools\MSVC\14.44.35207\include\vector
; File C:\Anka2Project\Anka2Project\Source\Binary\source\UserInterface\PythonPlayerSettingsModule.h
; File C:\Program Files\Microsoft Visual Studio\2022\Community\VC\Tools\MSVC\14.44.35207\include\initializer_list
; File C:\Program Files\Microsoft Visual Studio\2022\Community\VC\Tools\MSVC\14.44.35207\include\vector
; File C:\Anka2Project\Anka2Project\Source\Binary\source\UserInterface\PythonPlayerSettingsModule.h
; File C:\Program Files\Microsoft Visual Studio\2022\Community\VC\Tools\MSVC\14.44.35207\include\initializer_list
; File C:\Anka2Project\Anka2Project\Source\Binary\source\UserInterface\PythonPlayerSettingsModule.h
; File C:\Program Files\Microsoft Visual Studio\2022\Community\VC\Tools\MSVC\14.44.35207\include\vector
; File C:\Anka2Project\Anka2Project\Source\Binary\source\UserInterface\PythonPlayerSettingsModule.h
; File C:\Program Files\Microsoft Visual Studio\2022\Community\VC\Tools\MSVC\14.44.35207\include\vector
; File C:\Program Files\Microsoft Visual Studio\2022\Community\VC\Tools\MSVC\14.44.35207\include\xmemory
; File C:\Program Files\Microsoft Visual Studio\2022\Community\VC\Tools\MSVC\14.44.35207\include\vector
; File C:\Program Files\Microsoft Visual Studio\2022\Community\VC\Tools\MSVC\14.44.35207\include\xmemory
; File C:\Program Files\Microsoft Visual Studio\2022\Community\VC\Tools\MSVC\14.44.35207\include\vector
; File C:\Anka2Project\Anka2Project\Source\Binary\source\UserInterface\PythonPlayerSettingsModule.h
; File C:\Program Files\Microsoft Visual Studio\2022\Community\VC\Tools\MSVC\14.44.35207\include\utility
; File C:\Program Files\Microsoft Visual Studio\2022\Community\VC\Tools\MSVC\14.44.35207\include\vector
; File C:\Program Files\Microsoft Visual Studio\2022\Community\VC\Tools\MSVC\14.44.35207\include\xmemory
; File C:\Program Files\Microsoft Visual Studio\2022\Community\VC\Tools\MSVC\14.44.35207\include\vector
; File C:\Program Files\Microsoft Visual Studio\2022\Community\VC\Tools\MSVC\14.44.35207\include\xmemory
; File C:\Program Files\Microsoft Visual Studio\2022\Community\VC\Tools\MSVC\14.44.35207\include\vector
; File C:\Program Files\Microsoft Visual Studio\2022\Community\VC\Tools\MSVC\14.44.35207\include\xmemory
; File C:\Program Files\Microsoft Visual Studio\2022\Community\VC\Tools\MSVC\14.44.35207\include\vector
; File C:\Program Files\Microsoft Visual Studio\2022\Community\VC\Tools\MSVC\14.44.35207\include\initializer_list
; File C:\Anka2Project\Anka2Project\Source\Binary\source\UserInterface\PythonPlayerSettingsModule.h
; File C:\Program Files\Microsoft Visual Studio\2022\Community\VC\Tools\MSVC\14.44.35207\include\initializer_list
; File C:\Anka2Project\Anka2Project\Source\Binary\source\UserInterface\PythonPlayerSettingsModule.h
; File C:\Program Files\Microsoft Visual Studio\2022\Community\VC\Tools\MSVC\14.44.35207\include\utility
; File C:\Anka2Project\Anka2Project\Source\Binary\source\UserInterface\PythonPlayerSettingsModule.h
; File C:\Program Files\Microsoft Visual Studio\2022\Community\VC\Tools\MSVC\14.44.35207\include\utility
; File C:\Anka2Project\Anka2Project\Source\Binary\source\UserInterface\PythonPlayerSettingsModule.h
; File C:\Program Files\Microsoft Visual Studio\2022\Community\VC\Tools\MSVC\14.44.35207\include\initializer_list
; File C:\Program Files\Microsoft Visual Studio\2022\Community\VC\Tools\MSVC\14.44.35207\include\vector
; File C:\Anka2Project\Anka2Project\Source\Binary\source\UserInterface\PythonPlayerSettingsModule.h
; File C:\Program Files\Microsoft Visual Studio\2022\Community\VC\Tools\MSVC\14.44.35207\include\initializer_list
; File C:\Anka2Project\Anka2Project\Source\Binary\source\UserInterface\PythonPlayerSettingsModule.h
; File C:\Program Files\Microsoft Visual Studio\2022\Community\VC\Tools\MSVC\14.44.35207\include\vector
; File C:\Anka2Project\Anka2Project\Source\Binary\source\UserInterface\PythonPlayerSettingsModule.h
; File C:\Program Files\Microsoft Visual Studio\2022\Community\VC\Tools\MSVC\14.44.35207\include\vector
; File C:\Program Files\Microsoft Visual Studio\2022\Community\VC\Tools\MSVC\14.44.35207\include\xmemory
; File C:\Program Files\Microsoft Visual Studio\2022\Community\VC\Tools\MSVC\14.44.35207\include\vector
; File C:\Program Files\Microsoft Visual Studio\2022\Community\VC\Tools\MSVC\14.44.35207\include\xmemory
; File C:\Program Files\Microsoft Visual Studio\2022\Community\VC\Tools\MSVC\14.44.35207\include\vector
; File C:\Anka2Project\Anka2Project\Source\Binary\source\UserInterface\PythonPlayerSettingsModule.h
; File C:\Program Files\Microsoft Visual Studio\2022\Community\VC\Tools\MSVC\14.44.35207\include\utility
; File C:\Program Files\Microsoft Visual Studio\2022\Community\VC\Tools\MSVC\14.44.35207\include\vector
; File C:\Program Files\Microsoft Visual Studio\2022\Community\VC\Tools\MSVC\14.44.35207\include\xmemory
; File C:\Program Files\Microsoft Visual Studio\2022\Community\VC\Tools\MSVC\14.44.35207\include\vector
; File C:\Program Files\Microsoft Visual Studio\2022\Community\VC\Tools\MSVC\14.44.35207\include\xmemory
; File C:\Program Files\Microsoft Visual Studio\2022\Community\VC\Tools\MSVC\14.44.35207\include\vector
; File C:\Program Files\Microsoft Visual Studio\2022\Community\VC\Tools\MSVC\14.44.35207\include\xmemory
; File C:\Program Files\Microsoft Visual Studio\2022\Community\VC\Tools\MSVC\14.44.35207\include\vector
; File C:\Anka2Project\Anka2Project\Source\Binary\source\UserInterface\PythonPlayerSettingsModule.h
; File C:\Program Files\Microsoft Visual Studio\2022\Community\VC\Tools\MSVC\14.44.35207\include\initializer_list
; File C:\Program Files\Microsoft Visual Studio\2022\Community\VC\Tools\MSVC\14.44.35207\include\vector
; File C:\Anka2Project\Anka2Project\Source\Binary\source\UserInterface\PythonPlayerSettingsModule.h
; File C:\Program Files\Microsoft Visual Studio\2022\Community\VC\Tools\MSVC\14.44.35207\include\initializer_list
; File C:\Anka2Project\Anka2Project\Source\Binary\source\UserInterface\PythonPlayerSettingsModule.h
; File C:\Program Files\Microsoft Visual Studio\2022\Community\VC\Tools\MSVC\14.44.35207\include\vector
; File C:\Anka2Project\Anka2Project\Source\Binary\source\UserInterface\PythonPlayerSettingsModule.h
; File C:\Program Files\Microsoft Visual Studio\2022\Community\VC\Tools\MSVC\14.44.35207\include\vector
; File C:\Program Files\Microsoft Visual Studio\2022\Community\VC\Tools\MSVC\14.44.35207\include\xmemory
; File C:\Program Files\Microsoft Visual Studio\2022\Community\VC\Tools\MSVC\14.44.35207\include\vector
; File C:\Program Files\Microsoft Visual Studio\2022\Community\VC\Tools\MSVC\14.44.35207\include\xmemory
; File C:\Program Files\Microsoft Visual Studio\2022\Community\VC\Tools\MSVC\14.44.35207\include\vector
; File C:\Anka2Project\Anka2Project\Source\Binary\source\UserInterface\PythonPlayerSettingsModule.h
; File C:\Program Files\Microsoft Visual Studio\2022\Community\VC\Tools\MSVC\14.44.35207\include\utility
; File C:\Program Files\Microsoft Visual Studio\2022\Community\VC\Tools\MSVC\14.44.35207\include\vector
; File C:\Program Files\Microsoft Visual Studio\2022\Community\VC\Tools\MSVC\14.44.35207\include\xmemory
; File C:\Program Files\Microsoft Visual Studio\2022\Community\VC\Tools\MSVC\14.44.35207\include\vector
; File C:\Program Files\Microsoft Visual Studio\2022\Community\VC\Tools\MSVC\14.44.35207\include\xmemory
; File C:\Program Files\Microsoft Visual Studio\2022\Community\VC\Tools\MSVC\14.44.35207\include\vector
; File C:\Program Files\Microsoft Visual Studio\2022\Community\VC\Tools\MSVC\14.44.35207\include\xmemory
; File C:\Program Files\Microsoft Visual Studio\2022\Community\VC\Tools\MSVC\14.44.35207\include\vector
; File C:\Program Files\Microsoft Visual Studio\2022\Community\VC\Tools\MSVC\14.44.35207\include\initializer_list
; File C:\Anka2Project\Anka2Project\Source\Binary\source\UserInterface\PythonPlayerSettingsModule.h
; File C:\Program Files\Microsoft Visual Studio\2022\Community\VC\Tools\MSVC\14.44.35207\include\initializer_list
; File C:\Anka2Project\Anka2Project\Source\Binary\source\UserInterface\PythonPlayerSettingsModule.h
; File C:\Program Files\Microsoft Visual Studio\2022\Community\VC\Tools\MSVC\14.44.35207\include\utility
; File C:\Anka2Project\Anka2Project\Source\Binary\source\UserInterface\PythonPlayerSettingsModule.h
; File C:\Program Files\Microsoft Visual Studio\2022\Community\VC\Tools\MSVC\14.44.35207\include\utility
; File C:\Anka2Project\Anka2Project\Source\Binary\source\UserInterface\PythonPlayerSettingsModule.h
; File C:\Program Files\Microsoft Visual Studio\2022\Community\VC\Tools\MSVC\14.44.35207\include\initializer_list
; File C:\Program Files\Microsoft Visual Studio\2022\Community\VC\Tools\MSVC\14.44.35207\include\vector
; File C:\Anka2Project\Anka2Project\Source\Binary\source\UserInterface\PythonPlayerSettingsModule.h
; File C:\Program Files\Microsoft Visual Studio\2022\Community\VC\Tools\MSVC\14.44.35207\include\initializer_list
; File C:\Anka2Project\Anka2Project\Source\Binary\source\UserInterface\PythonPlayerSettingsModule.h
; File C:\Program Files\Microsoft Visual Studio\2022\Community\VC\Tools\MSVC\14.44.35207\include\vector
; File C:\Anka2Project\Anka2Project\Source\Binary\source\UserInterface\PythonPlayerSettingsModule.h
; File C:\Program Files\Microsoft Visual Studio\2022\Community\VC\Tools\MSVC\14.44.35207\include\vector
; File C:\Program Files\Microsoft Visual Studio\2022\Community\VC\Tools\MSVC\14.44.35207\include\xmemory
; File C:\Program Files\Microsoft Visual Studio\2022\Community\VC\Tools\MSVC\14.44.35207\include\vector
; File C:\Program Files\Microsoft Visual Studio\2022\Community\VC\Tools\MSVC\14.44.35207\include\xmemory
; File C:\Program Files\Microsoft Visual Studio\2022\Community\VC\Tools\MSVC\14.44.35207\include\vector
; File C:\Anka2Project\Anka2Project\Source\Binary\source\UserInterface\PythonPlayerSettingsModule.h
; File C:\Program Files\Microsoft Visual Studio\2022\Community\VC\Tools\MSVC\14.44.35207\include\utility
; File C:\Program Files\Microsoft Visual Studio\2022\Community\VC\Tools\MSVC\14.44.35207\include\vector
; File C:\Program Files\Microsoft Visual Studio\2022\Community\VC\Tools\MSVC\14.44.35207\include\xmemory
; File C:\Program Files\Microsoft Visual Studio\2022\Community\VC\Tools\MSVC\14.44.35207\include\vector
; File C:\Program Files\Microsoft Visual Studio\2022\Community\VC\Tools\MSVC\14.44.35207\include\xmemory
; File C:\Program Files\Microsoft Visual Studio\2022\Community\VC\Tools\MSVC\14.44.35207\include\vector
; File C:\Program Files\Microsoft Visual Studio\2022\Community\VC\Tools\MSVC\14.44.35207\include\xmemory
; File C:\Program Files\Microsoft Visual Studio\2022\Community\VC\Tools\MSVC\14.44.35207\include\vector
; File C:\Anka2Project\Anka2Project\Source\Binary\source\UserInterface\PythonPlayerSettingsModule.h
; File C:\Program Files\Microsoft Visual Studio\2022\Community\VC\Tools\MSVC\14.44.35207\include\initializer_list
; File C:\Program Files\Microsoft Visual Studio\2022\Community\VC\Tools\MSVC\14.44.35207\include\vector
; File C:\Anka2Project\Anka2Project\Source\Binary\source\UserInterface\PythonPlayerSettingsModule.h
; File C:\Program Files\Microsoft Visual Studio\2022\Community\VC\Tools\MSVC\14.44.35207\include\initializer_list
; File C:\Anka2Project\Anka2Project\Source\Binary\source\UserInterface\PythonPlayerSettingsModule.h
; File C:\Program Files\Microsoft Visual Studio\2022\Community\VC\Tools\MSVC\14.44.35207\include\vector
; File C:\Anka2Project\Anka2Project\Source\Binary\source\UserInterface\PythonPlayerSettingsModule.h
; File C:\Program Files\Microsoft Visual Studio\2022\Community\VC\Tools\MSVC\14.44.35207\include\vector
; File C:\Program Files\Microsoft Visual Studio\2022\Community\VC\Tools\MSVC\14.44.35207\include\xmemory
; File C:\Program Files\Microsoft Visual Studio\2022\Community\VC\Tools\MSVC\14.44.35207\include\vector
; File C:\Program Files\Microsoft Visual Studio\2022\Community\VC\Tools\MSVC\14.44.35207\include\xmemory
; File C:\Program Files\Microsoft Visual Studio\2022\Community\VC\Tools\MSVC\14.44.35207\include\vector
; File C:\Anka2Project\Anka2Project\Source\Binary\source\UserInterface\PythonPlayerSettingsModule.h
; File C:\Program Files\Microsoft Visual Studio\2022\Community\VC\Tools\MSVC\14.44.35207\include\utility
; File C:\Program Files\Microsoft Visual Studio\2022\Community\VC\Tools\MSVC\14.44.35207\include\vector
; File C:\Program Files\Microsoft Visual Studio\2022\Community\VC\Tools\MSVC\14.44.35207\include\xmemory
; File C:\Program Files\Microsoft Visual Studio\2022\Community\VC\Tools\MSVC\14.44.35207\include\vector
; File C:\Program Files\Microsoft Visual Studio\2022\Community\VC\Tools\MSVC\14.44.35207\include\xmemory
; File C:\Program Files\Microsoft Visual Studio\2022\Community\VC\Tools\MSVC\14.44.35207\include\vector
; File C:\Program Files\Microsoft Visual Studio\2022\Community\VC\Tools\MSVC\14.44.35207\include\xmemory
; File C:\Program Files\Microsoft Visual Studio\2022\Community\VC\Tools\MSVC\14.44.35207\include\vector
; File C:\Program Files\Microsoft Visual Studio\2022\Community\VC\Tools\MSVC\14.44.35207\include\initializer_list
; File C:\Anka2Project\Anka2Project\Source\Binary\source\UserInterface\PythonPlayerSettingsModule.h
; File C:\Program Files\Microsoft Visual Studio\2022\Community\VC\Tools\MSVC\14.44.35207\include\initializer_list
; File C:\Anka2Project\Anka2Project\Source\Binary\source\UserInterface\PythonPlayerSettingsModule.h
; File C:\Program Files\Microsoft Visual Studio\2022\Community\VC\Tools\MSVC\14.44.35207\include\utility
; File C:\Anka2Project\Anka2Project\Source\Binary\source\UserInterface\PythonPlayerSettingsModule.h
; File C:\Program Files\Microsoft Visual Studio\2022\Community\VC\Tools\MSVC\14.44.35207\include\utility
; File C:\Anka2Project\Anka2Project\Source\Binary\source\UserInterface\PythonPlayerSettingsModule.h
; File C:\Program Files\Microsoft Visual Studio\2022\Community\VC\Tools\MSVC\14.44.35207\include\initializer_list
; File C:\Program Files\Microsoft Visual Studio\2022\Community\VC\Tools\MSVC\14.44.35207\include\vector
; File C:\Anka2Project\Anka2Project\Source\Binary\source\UserInterface\PythonPlayerSettingsModule.h
; File C:\Program Files\Microsoft Visual Studio\2022\Community\VC\Tools\MSVC\14.44.35207\include\initializer_list
; File C:\Anka2Project\Anka2Project\Source\Binary\source\UserInterface\PythonPlayerSettingsModule.h
; File C:\Program Files\Microsoft Visual Studio\2022\Community\VC\Tools\MSVC\14.44.35207\include\vector
; File C:\Anka2Project\Anka2Project\Source\Binary\source\UserInterface\PythonPlayerSettingsModule.h
; File C:\Program Files\Microsoft Visual Studio\2022\Community\VC\Tools\MSVC\14.44.35207\include\vector
; File C:\Program Files\Microsoft Visual Studio\2022\Community\VC\Tools\MSVC\14.44.35207\include\xmemory
; File C:\Program Files\Microsoft Visual Studio\2022\Community\VC\Tools\MSVC\14.44.35207\include\vector
; File C:\Program Files\Microsoft Visual Studio\2022\Community\VC\Tools\MSVC\14.44.35207\include\xmemory
; File C:\Program Files\Microsoft Visual Studio\2022\Community\VC\Tools\MSVC\14.44.35207\include\vector
; File C:\Anka2Project\Anka2Project\Source\Binary\source\UserInterface\PythonPlayerSettingsModule.h
; File C:\Program Files\Microsoft Visual Studio\2022\Community\VC\Tools\MSVC\14.44.35207\include\utility
; File C:\Program Files\Microsoft Visual Studio\2022\Community\VC\Tools\MSVC\14.44.35207\include\vector
; File C:\Program Files\Microsoft Visual Studio\2022\Community\VC\Tools\MSVC\14.44.35207\include\xmemory
; File C:\Program Files\Microsoft Visual Studio\2022\Community\VC\Tools\MSVC\14.44.35207\include\vector
; File C:\Program Files\Microsoft Visual Studio\2022\Community\VC\Tools\MSVC\14.44.35207\include\xmemory
; File C:\Program Files\Microsoft Visual Studio\2022\Community\VC\Tools\MSVC\14.44.35207\include\vector
; File C:\Program Files\Microsoft Visual Studio\2022\Community\VC\Tools\MSVC\14.44.35207\include\xmemory
; File C:\Program Files\Microsoft Visual Studio\2022\Community\VC\Tools\MSVC\14.44.35207\include\vector
; File C:\Anka2Project\Anka2Project\Source\Binary\source\UserInterface\PythonPlayerSettingsModule.h
; File C:\Program Files\Microsoft Visual Studio\2022\Community\VC\Tools\MSVC\14.44.35207\include\initializer_list
; File C:\Program Files\Microsoft Visual Studio\2022\Community\VC\Tools\MSVC\14.44.35207\include\vector
; File C:\Anka2Project\Anka2Project\Source\Binary\source\UserInterface\PythonPlayerSettingsModule.h
; File C:\Program Files\Microsoft Visual Studio\2022\Community\VC\Tools\MSVC\14.44.35207\include\initializer_list
; File C:\Anka2Project\Anka2Project\Source\Binary\source\UserInterface\PythonPlayerSettingsModule.h
; File C:\Program Files\Microsoft Visual Studio\2022\Community\VC\Tools\MSVC\14.44.35207\include\vector
; File C:\Anka2Project\Anka2Project\Source\Binary\source\UserInterface\PythonPlayerSettingsModule.h
; File C:\Program Files\Microsoft Visual Studio\2022\Community\VC\Tools\MSVC\14.44.35207\include\vector
; File C:\Program Files\Microsoft Visual Studio\2022\Community\VC\Tools\MSVC\14.44.35207\include\xmemory
; File C:\Program Files\Microsoft Visual Studio\2022\Community\VC\Tools\MSVC\14.44.35207\include\vector
; File C:\Program Files\Microsoft Visual Studio\2022\Community\VC\Tools\MSVC\14.44.35207\include\xmemory
; File C:\Program Files\Microsoft Visual Studio\2022\Community\VC\Tools\MSVC\14.44.35207\include\vector
; File C:\Anka2Project\Anka2Project\Source\Binary\source\UserInterface\PythonPlayerSettingsModule.h
; File C:\Program Files\Microsoft Visual Studio\2022\Community\VC\Tools\MSVC\14.44.35207\include\utility
; File C:\Program Files\Microsoft Visual Studio\2022\Community\VC\Tools\MSVC\14.44.35207\include\vector
; File C:\Program Files\Microsoft Visual Studio\2022\Community\VC\Tools\MSVC\14.44.35207\include\xmemory
; File C:\Program Files\Microsoft Visual Studio\2022\Community\VC\Tools\MSVC\14.44.35207\include\vector
; File C:\Program Files\Microsoft Visual Studio\2022\Community\VC\Tools\MSVC\14.44.35207\include\xmemory
; File C:\Program Files\Microsoft Visual Studio\2022\Community\VC\Tools\MSVC\14.44.35207\include\vector
; File C:\Program Files\Microsoft Visual Studio\2022\Community\VC\Tools\MSVC\14.44.35207\include\xmemory
; File C:\Program Files\Microsoft Visual Studio\2022\Community\VC\Tools\MSVC\14.44.35207\include\vector
; File C:\Program Files\Microsoft Visual Studio\2022\Community\VC\Tools\MSVC\14.44.35207\include\initializer_list
; File C:\Anka2Project\Anka2Project\Source\Binary\source\UserInterface\PythonPlayerSettingsModule.h
; File C:\Program Files\Microsoft Visual Studio\2022\Community\VC\Tools\MSVC\14.44.35207\include\initializer_list
; File C:\Anka2Project\Anka2Project\Source\Binary\source\UserInterface\PythonPlayerSettingsModule.h
; File C:\Program Files\Microsoft Visual Studio\2022\Community\VC\Tools\MSVC\14.44.35207\include\utility
; File C:\Anka2Project\Anka2Project\Source\Binary\source\UserInterface\PythonPlayerSettingsModule.h
; File C:\Program Files\Microsoft Visual Studio\2022\Community\VC\Tools\MSVC\14.44.35207\include\utility
; File C:\Program Files\Microsoft Visual Studio\2022\Community\VC\Tools\MSVC\14.44.35207\include\initializer_list
; File C:\Anka2Project\Anka2Project\Source\Binary\source\UserInterface\PythonPlayerSettingsModule.h
; File C:\Program Files\Microsoft Visual Studio\2022\Community\VC\Tools\MSVC\14.44.35207\include\initializer_list
; File C:\Anka2Project\Anka2Project\Source\Binary\source\UserInterface\PythonPlayerSettingsModule.h
; File C:\Program Files\Microsoft Visual Studio\2022\Community\VC\Tools\MSVC\14.44.35207\include\xtree
; File C:\Program Files\Microsoft Visual Studio\2022\Community\VC\Tools\MSVC\14.44.35207\include\xmemory
; File C:\Anka2Project\Anka2Project\Source\Binary\source\UserInterface\PythonPlayerSettingsModule.h
; File C:\Program Files\Microsoft Visual Studio\2022\Community\VC\Tools\MSVC\14.44.35207\include\vector
; File C:\Program Files\Microsoft Visual Studio\2022\Community\VC\Tools\MSVC\14.44.35207\include\xmemory
; File C:\Program Files\Microsoft Visual Studio\2022\Community\VC\Tools\MSVC\14.44.35207\include\vector
; File C:\Program Files\Microsoft Visual Studio\2022\Community\VC\Tools\MSVC\14.44.35207\include\xmemory
; File C:\Program Files\Microsoft Visual Studio\2022\Community\VC\Tools\MSVC\14.44.35207\include\vector
; File C:\Anka2Project\Anka2Project\Source\Binary\source\UserInterface\PythonPlayerSettingsModule.h
; File C:\Program Files\Microsoft Visual Studio\2022\Community\VC\Tools\MSVC\14.44.35207\include\vector
; File C:\Program Files\Microsoft Visual Studio\2022\Community\VC\Tools\MSVC\14.44.35207\include\xmemory
; File C:\Program Files\Microsoft Visual Studio\2022\Community\VC\Tools\MSVC\14.44.35207\include\vector
; File C:\Program Files\Microsoft Visual Studio\2022\Community\VC\Tools\MSVC\14.44.35207\include\xmemory
; File C:\Program Files\Microsoft Visual Studio\2022\Community\VC\Tools\MSVC\14.44.35207\include\vector
; File C:\Program Files\Microsoft Visual Studio\2022\Community\VC\Tools\MSVC\14.44.35207\include\xtree
; File C:\Program Files\Microsoft Visual Studio\2022\Community\VC\Tools\MSVC\14.44.35207\include\xmemory
; File C:\Anka2Project\Anka2Project\Source\Binary\source\UserInterface\PythonPlayerSettingsModule.h
; File C:\Program Files\Microsoft Visual Studio\2022\Community\VC\Tools\MSVC\14.44.35207\include\vector
; File C:\Program Files\Microsoft Visual Studio\2022\Community\VC\Tools\MSVC\14.44.35207\include\xmemory
; File C:\Program Files\Microsoft Visual Studio\2022\Community\VC\Tools\MSVC\14.44.35207\include\vector
; File C:\Program Files\Microsoft Visual Studio\2022\Community\VC\Tools\MSVC\14.44.35207\include\xmemory
; File C:\Program Files\Microsoft Visual Studio\2022\Community\VC\Tools\MSVC\14.44.35207\include\vector
; File C:\Anka2Project\Anka2Project\Source\Binary\source\UserInterface\PythonPlayerSettingsModule.h
; File C:\Program Files\Microsoft Visual Studio\2022\Community\VC\Tools\MSVC\14.44.35207\include\vector
; File C:\Program Files\Microsoft Visual Studio\2022\Community\VC\Tools\MSVC\14.44.35207\include\xmemory
; File C:\Program Files\Microsoft Visual Studio\2022\Community\VC\Tools\MSVC\14.44.35207\include\vector
; File C:\Program Files\Microsoft Visual Studio\2022\Community\VC\Tools\MSVC\14.44.35207\include\xmemory
; File C:\Program Files\Microsoft Visual Studio\2022\Community\VC\Tools\MSVC\14.44.35207\include\vector
; File C:\Program Files\Microsoft Visual Studio\2022\Community\VC\Tools\MSVC\14.44.35207\include\xtree
; File C:\Program Files\Microsoft Visual Studio\2022\Community\VC\Tools\MSVC\14.44.35207\include\xmemory
; File C:\Anka2Project\Anka2Project\Source\Binary\source\UserInterface\PythonPlayerSettingsModule.h
; File C:\Program Files\Microsoft Visual Studio\2022\Community\VC\Tools\MSVC\14.44.35207\include\vector
; File C:\Program Files\Microsoft Visual Studio\2022\Community\VC\Tools\MSVC\14.44.35207\include\xmemory
; File C:\Program Files\Microsoft Visual Studio\2022\Community\VC\Tools\MSVC\14.44.35207\include\vector
; File C:\Program Files\Microsoft Visual Studio\2022\Community\VC\Tools\MSVC\14.44.35207\include\xmemory
; File C:\Program Files\Microsoft Visual Studio\2022\Community\VC\Tools\MSVC\14.44.35207\include\vector
; File C:\Anka2Project\Anka2Project\Source\Binary\source\UserInterface\PythonPlayerSettingsModule.h
; File C:\Program Files\Microsoft Visual Studio\2022\Community\VC\Tools\MSVC\14.44.35207\include\vector
; File C:\Program Files\Microsoft Visual Studio\2022\Community\VC\Tools\MSVC\14.44.35207\include\xmemory
; File C:\Program Files\Microsoft Visual Studio\2022\Community\VC\Tools\MSVC\14.44.35207\include\vector
; File C:\Program Files\Microsoft Visual Studio\2022\Community\VC\Tools\MSVC\14.44.35207\include\xmemory
; File C:\Program Files\Microsoft Visual Studio\2022\Community\VC\Tools\MSVC\14.44.35207\include\vector
; File C:\Program Files\Microsoft Visual Studio\2022\Community\VC\Tools\MSVC\14.44.35207\include\xtree
; File C:\Program Files\Microsoft Visual Studio\2022\Community\VC\Tools\MSVC\14.44.35207\include\xmemory
; File C:\Anka2Project\Anka2Project\Source\Binary\source\UserInterface\PythonPlayerSettingsModule.h
; File C:\Program Files\Microsoft Visual Studio\2022\Community\VC\Tools\MSVC\14.44.35207\include\vector
; File C:\Program Files\Microsoft Visual Studio\2022\Community\VC\Tools\MSVC\14.44.35207\include\xmemory
; File C:\Program Files\Microsoft Visual Studio\2022\Community\VC\Tools\MSVC\14.44.35207\include\vector
; File C:\Program Files\Microsoft Visual Studio\2022\Community\VC\Tools\MSVC\14.44.35207\include\xmemory
; File C:\Program Files\Microsoft Visual Studio\2022\Community\VC\Tools\MSVC\14.44.35207\include\vector
; File C:\Program Files\Microsoft Visual Studio\2022\Community\VC\Tools\MSVC\14.44.35207\include\xmemory
; File C:\Program Files\Microsoft Visual Studio\2022\Community\VC\Tools\MSVC\14.44.35207\include\vector
; File C:\Program Files\Microsoft Visual Studio\2022\Community\VC\Tools\MSVC\14.44.35207\include\xmemory
; File C:\Anka2Project\Anka2Project\Source\Binary\source\UserInterface\PythonPlayerSettingsModule.h
; File C:\Program Files\Microsoft Visual Studio\2022\Community\VC\Tools\MSVC\14.44.35207\include\xmemory
; File C:\Anka2Project\Anka2Project\Source\Binary\source\UserInterface\PythonPlayerSettingsModule.h
;	COMDAT ??__EskillIndexes@@YAXXZ
text$di	SEGMENT
$T17 = -452						; size = 32
$T74 = -420						; size = 32
$T130 = -388						; size = 32
$T186 = -356						; size = 32
$T55 = -324						; size = 8
$T112 = -316						; size = 8
$T168 = -308						; size = 8
$T224 = -300						; size = 8
$T8 = -292						; size = 12
$T34 = -280						; size = 12
$T65 = -268						; size = 12
$T91 = -256						; size = 12
$T121 = -244						; size = 12
$T147 = -232						; size = 12
$T177 = -220						; size = 12
$T203 = -208						; size = 12
__Dest$1$ = -196					; size = 4
__Dest$1$ = -196					; size = 4
__Dest$1$ = -196					; size = 4
__Dest$1$ = -196					; size = 4
__Dest$1$ = -196					; size = 4
__Dest$1$ = -196					; size = 4
__Dest$1$ = -196					; size = 4
__Dest$1$ = -196					; size = 4
$T56 = -192						; size = 48
$T87 = -144						; size = 15
$T61 = -128						; size = 15
$T199 = -112						; size = 14
$T173 = -96						; size = 14
$T143 = -80						; size = 14
$T117 = -64						; size = 14
$T30 = -48						; size = 14
$T4 = -32						; size = 14
__$ArrayPad$ = -16					; size = 4
__$EHRec$ = -12						; size = 12
??__EskillIndexes@@YAXXZ PROC				; `dynamic initializer for 'skillIndexes'', COMDAT

; 635  : };

  00000	55		 push	 ebp
  00001	8b ec		 mov	 ebp, esp
  00003	6a ff		 push	 -1
  00005	68 00 00 00 00	 push	 __ehhandler$??__EskillIndexes@@YAXXZ
  0000a	64 a1 00 00 00
	00		 mov	 eax, DWORD PTR fs:0
  00010	50		 push	 eax
  00011	81 ec b8 01 00
	00		 sub	 esp, 440		; 000001b8H
  00017	a1 00 00 00 00	 mov	 eax, DWORD PTR ___security_cookie
  0001c	33 c5		 xor	 eax, ebp
  0001e	89 45 f0	 mov	 DWORD PTR __$ArrayPad$[ebp], eax
  00021	56		 push	 esi
  00022	57		 push	 edi
  00023	50		 push	 eax
  00024	8d 45 f4	 lea	 eax, DWORD PTR __$EHRec$[ebp]
  00027	64 a3 00 00 00
	00		 mov	 DWORD PTR fs:0, eax
; File C:\Program Files\Microsoft Visual Studio\2022\Community\VC\Tools\MSVC\14.44.35207\include\vector

; 400  :     _CONSTEXPR20 _Vector_val() noexcept : _Myfirst(), _Mylast(), _Myend() {}

  0002d	33 c0		 xor	 eax, eax
; File C:\Anka2Project\Anka2Project\Source\Binary\source\UserInterface\PythonPlayerSettingsModule.h

; 618  : static const std::map<uint8_t, std::map<uint8_t, std::vector<uint8_t>>> skillIndexes{

  0002f	c7 45 e0 01 02
	03 04		 mov	 DWORD PTR $T4[ebp], 67305985 ; 04030201H
; File C:\Program Files\Microsoft Visual Studio\2022\Community\VC\Tools\MSVC\14.44.35207\include\initializer_list

; 34   :         : _First(_First_arg), _Last(_Last_arg) {}

  00036	8d 55 e0	 lea	 edx, DWORD PTR $T4[ebp]
; File C:\Anka2Project\Anka2Project\Source\Binary\source\UserInterface\PythonPlayerSettingsModule.h

; 618  : static const std::map<uint8_t, std::map<uint8_t, std::vector<uint8_t>>> skillIndexes{

  00039	c7 45 e4 05 00
	00 00		 mov	 DWORD PTR $T4[ebp+4], 5
; File C:\Program Files\Microsoft Visual Studio\2022\Community\VC\Tools\MSVC\14.44.35207\include\initializer_list

; 34   :         : _First(_First_arg), _Last(_Last_arg) {}

  00040	8d 7d ee	 lea	 edi, DWORD PTR $T4[ebp+14]
; File C:\Anka2Project\Anka2Project\Source\Binary\source\UserInterface\PythonPlayerSettingsModule.h

; 618  : static const std::map<uint8_t, std::map<uint8_t, std::vector<uint8_t>>> skillIndexes{

  00043	c7 45 e8 89 00
	8a 00		 mov	 DWORD PTR $T4[ebp+8], 9044105 ; 008a0089H
; File C:\Program Files\Microsoft Visual Studio\2022\Community\VC\Tools\MSVC\14.44.35207\include\vector

; 400  :     _CONSTEXPR20 _Vector_val() noexcept : _Myfirst(), _Mylast(), _Myend() {}

  0004a	33 c9		 xor	 ecx, ecx
; File C:\Anka2Project\Anka2Project\Source\Binary\source\UserInterface\PythonPlayerSettingsModule.h

; 618  : static const std::map<uint8_t, std::map<uint8_t, std::vector<uint8_t>>> skillIndexes{

  0004c	66 c7 45 ec 8b
	00		 mov	 WORD PTR $T4[ebp+12], 139 ; 0000008bH
; File C:\Program Files\Microsoft Visual Studio\2022\Community\VC\Tools\MSVC\14.44.35207\include\vector

; 400  :     _CONSTEXPR20 _Vector_val() noexcept : _Myfirst(), _Mylast(), _Myend() {}

  00052	89 8d dc fe ff
	ff		 mov	 DWORD PTR $T8[ebp], ecx
  00058	89 85 e0 fe ff
	ff		 mov	 DWORD PTR $T8[ebp+4], eax
  0005e	89 85 e4 fe ff
	ff		 mov	 DWORD PTR $T8[ebp+8], eax

; 721  :         _Construct_n(_Convert_size<size_type>(_Ilist.size()), _Ilist.begin(), _Ilist.end());

  00064	2b fa		 sub	 edi, edx

; 2111 :         if (_Count != 0) {

  00066	74 32		 je	 SHORT $LN63@dynamic

; 2112 :             _Buy_nonzero(_Count);

  00068	57		 push	 edi
  00069	8d 8d dc fe ff
	ff		 lea	 ecx, DWORD PTR $T8[ebp]
  0006f	e8 00 00 00 00	 call	 ?_Buy_nonzero@?$vector@EV?$allocator@E@std@@@std@@AAEXI@Z ; std::vector<unsigned char,std::allocator<unsigned char> >::_Buy_nonzero

; 2120 :                 _My_data._Mylast = _STD _Uninitialized_copy(_STD forward<_Valty>(_Val)..., _My_data._Myfirst, _Al);

  00074	8b b5 dc fe ff
	ff		 mov	 esi, DWORD PTR $T8[ebp]
; File C:\Program Files\Microsoft Visual Studio\2022\Community\VC\Tools\MSVC\14.44.35207\include\xmemory

; 1889 :                 _STD _Copy_memmove(_STD _To_address(_UFirst), _STD _To_address(_ULast), _STD _Unfancy(_Dest));

  0007a	8d 45 ee	 lea	 eax, DWORD PTR $T4[ebp+14]
  0007d	56		 push	 esi
  0007e	50		 push	 eax
  0007f	8d 45 e0	 lea	 eax, DWORD PTR $T4[ebp]
  00082	50		 push	 eax
  00083	e8 00 00 00 00	 call	 ??$_Copy_memmove@PBEPAE@std@@YAPAEPBE0PAE@Z ; std::_Copy_memmove<unsigned char const *,unsigned char *>
; File C:\Program Files\Microsoft Visual Studio\2022\Community\VC\Tools\MSVC\14.44.35207\include\vector

; 2120 :                 _My_data._Mylast = _STD _Uninitialized_copy(_STD forward<_Valty>(_Val)..., _My_data._Myfirst, _Al);

  00088	8b 8d dc fe ff
	ff		 mov	 ecx, DWORD PTR $T8[ebp]
; File C:\Program Files\Microsoft Visual Studio\2022\Community\VC\Tools\MSVC\14.44.35207\include\xmemory

; 1890 :                 _Dest += _ULast - _UFirst;

  0008e	8d 04 37	 lea	 eax, DWORD PTR [edi+esi]
  00091	83 c4 0c	 add	 esp, 12			; 0000000cH
; File C:\Program Files\Microsoft Visual Studio\2022\Community\VC\Tools\MSVC\14.44.35207\include\vector

; 2120 :                 _My_data._Mylast = _STD _Uninitialized_copy(_STD forward<_Valty>(_Val)..., _My_data._Myfirst, _Al);

  00094	89 85 e0 fe ff
	ff		 mov	 DWORD PTR $T8[ebp+4], eax
$LN63@dynamic:
; File C:\Anka2Project\Anka2Project\Source\Binary\source\UserInterface\PythonPlayerSettingsModule.h

; 618  : static const std::map<uint8_t, std::map<uint8_t, std::vector<uint8_t>>> skillIndexes{

  0009a	c7 45 fc 00 00
	00 00		 mov	 DWORD PTR __$EHRec$[ebp+8], 0
; File C:\Program Files\Microsoft Visual Studio\2022\Community\VC\Tools\MSVC\14.44.35207\include\utility

; 263  :         : first(_Val1), second(_Val2) {}

  000a1	c6 85 3c fe ff
	ff 01		 mov	 BYTE PTR $T17[ebp], 1
; File C:\Program Files\Microsoft Visual Studio\2022\Community\VC\Tools\MSVC\14.44.35207\include\vector

; 400  :     _CONSTEXPR20 _Vector_val() noexcept : _Myfirst(), _Mylast(), _Myend() {}

  000a8	c7 85 40 fe ff
	ff 00 00 00 00	 mov	 DWORD PTR $T17[ebp+4], 0
  000b2	c7 85 44 fe ff
	ff 00 00 00 00	 mov	 DWORD PTR $T17[ebp+8], 0
  000bc	c7 85 48 fe ff
	ff 00 00 00 00	 mov	 DWORD PTR $T17[ebp+12], 0

; 748  :         const auto _Count       = static_cast<size_type>(_Right_data._Mylast - _Right_data._Myfirst);

  000c6	2b c1		 sub	 eax, ecx

; 2111 :         if (_Count != 0) {

  000c8	74 3d		 je	 SHORT $LN94@dynamic

; 2112 :             _Buy_nonzero(_Count);

  000ca	50		 push	 eax
  000cb	8d 8d 40 fe ff
	ff		 lea	 ecx, DWORD PTR $T17[ebp+4]
  000d1	e8 00 00 00 00	 call	 ?_Buy_nonzero@?$vector@EV?$allocator@E@std@@@std@@AAEXI@Z ; std::vector<unsigned char,std::allocator<unsigned char> >::_Buy_nonzero

; 2120 :                 _My_data._Mylast = _STD _Uninitialized_copy(_STD forward<_Valty>(_Val)..., _My_data._Myfirst, _Al);

  000d6	8b 85 40 fe ff
	ff		 mov	 eax, DWORD PTR $T17[ebp+4]
; File C:\Program Files\Microsoft Visual Studio\2022\Community\VC\Tools\MSVC\14.44.35207\include\xmemory

; 1872 :     auto _ULast  = _RANGES _Unwrap_sent<_InIt>(_STD move(_Last));

  000dc	8b bd e0 fe ff
	ff		 mov	 edi, DWORD PTR $T8[ebp+4]
  000e2	8b b5 dc fe ff
	ff		 mov	 esi, DWORD PTR $T8[ebp]

; 1889 :                 _STD _Copy_memmove(_STD _To_address(_UFirst), _STD _To_address(_ULast), _STD _Unfancy(_Dest));

  000e8	50		 push	 eax
  000e9	57		 push	 edi
  000ea	56		 push	 esi
; File C:\Program Files\Microsoft Visual Studio\2022\Community\VC\Tools\MSVC\14.44.35207\include\vector

; 2120 :                 _My_data._Mylast = _STD _Uninitialized_copy(_STD forward<_Valty>(_Val)..., _My_data._Myfirst, _Al);

  000eb	89 85 3c ff ff
	ff		 mov	 DWORD PTR __Dest$1$[ebp], eax
; File C:\Program Files\Microsoft Visual Studio\2022\Community\VC\Tools\MSVC\14.44.35207\include\xmemory

; 1889 :                 _STD _Copy_memmove(_STD _To_address(_UFirst), _STD _To_address(_ULast), _STD _Unfancy(_Dest));

  000f1	e8 00 00 00 00	 call	 ??$_Copy_memmove@PAEPAE@std@@YAPAEPAE00@Z ; std::_Copy_memmove<unsigned char *,unsigned char *>
; File C:\Program Files\Microsoft Visual Studio\2022\Community\VC\Tools\MSVC\14.44.35207\include\vector

; 2120 :                 _My_data._Mylast = _STD _Uninitialized_copy(_STD forward<_Valty>(_Val)..., _My_data._Myfirst, _Al);

  000f6	2b fe		 sub	 edi, esi
; File C:\Program Files\Microsoft Visual Studio\2022\Community\VC\Tools\MSVC\14.44.35207\include\xmemory

; 1889 :                 _STD _Copy_memmove(_STD _To_address(_UFirst), _STD _To_address(_ULast), _STD _Unfancy(_Dest));

  000f8	83 c4 0c	 add	 esp, 12			; 0000000cH

; 1890 :                 _Dest += _ULast - _UFirst;

  000fb	03 bd 3c ff ff
	ff		 add	 edi, DWORD PTR __Dest$1$[ebp]
; File C:\Program Files\Microsoft Visual Studio\2022\Community\VC\Tools\MSVC\14.44.35207\include\vector

; 2120 :                 _My_data._Mylast = _STD _Uninitialized_copy(_STD forward<_Valty>(_Val)..., _My_data._Myfirst, _Al);

  00101	89 bd 44 fe ff
	ff		 mov	 DWORD PTR $T17[ebp+8], edi
$LN94@dynamic:
; File C:\Anka2Project\Anka2Project\Source\Binary\source\UserInterface\PythonPlayerSettingsModule.h

; 618  : static const std::map<uint8_t, std::map<uint8_t, std::vector<uint8_t>>> skillIndexes{

  00107	c6 45 fc 01	 mov	 BYTE PTR __$EHRec$[ebp+8], 1
; File C:\Program Files\Microsoft Visual Studio\2022\Community\VC\Tools\MSVC\14.44.35207\include\initializer_list

; 34   :         : _First(_First_arg), _Last(_Last_arg) {}

  0010b	8d 55 d0	 lea	 edx, DWORD PTR $T30[ebp]
; File C:\Program Files\Microsoft Visual Studio\2022\Community\VC\Tools\MSVC\14.44.35207\include\vector

; 400  :     _CONSTEXPR20 _Vector_val() noexcept : _Myfirst(), _Mylast(), _Myend() {}

  0010e	33 c0		 xor	 eax, eax
; File C:\Anka2Project\Anka2Project\Source\Binary\source\UserInterface\PythonPlayerSettingsModule.h

; 618  : static const std::map<uint8_t, std::map<uint8_t, std::vector<uint8_t>>> skillIndexes{

  00110	c7 45 d0 10 11
	12 13		 mov	 DWORD PTR $T30[ebp], 319951120 ; 13121110H
; File C:\Program Files\Microsoft Visual Studio\2022\Community\VC\Tools\MSVC\14.44.35207\include\initializer_list

; 34   :         : _First(_First_arg), _Last(_Last_arg) {}

  00117	8d 7d de	 lea	 edi, DWORD PTR $T30[ebp+14]
; File C:\Anka2Project\Anka2Project\Source\Binary\source\UserInterface\PythonPlayerSettingsModule.h

; 618  : static const std::map<uint8_t, std::map<uint8_t, std::vector<uint8_t>>> skillIndexes{

  0011a	c7 45 d4 14 00
	00 00		 mov	 DWORD PTR $T30[ebp+4], 20 ; 00000014H
; File C:\Program Files\Microsoft Visual Studio\2022\Community\VC\Tools\MSVC\14.44.35207\include\vector

; 400  :     _CONSTEXPR20 _Vector_val() noexcept : _Myfirst(), _Mylast(), _Myend() {}

  00121	33 c9		 xor	 ecx, ecx
; File C:\Anka2Project\Anka2Project\Source\Binary\source\UserInterface\PythonPlayerSettingsModule.h

; 618  : static const std::map<uint8_t, std::map<uint8_t, std::vector<uint8_t>>> skillIndexes{

  00123	c7 45 d8 89 00
	8a 00		 mov	 DWORD PTR $T30[ebp+8], 9044105 ; 008a0089H
  0012a	66 c7 45 dc 8b
	00		 mov	 WORD PTR $T30[ebp+12], 139 ; 0000008bH
; File C:\Program Files\Microsoft Visual Studio\2022\Community\VC\Tools\MSVC\14.44.35207\include\vector

; 400  :     _CONSTEXPR20 _Vector_val() noexcept : _Myfirst(), _Mylast(), _Myend() {}

  00130	89 8d e8 fe ff
	ff		 mov	 DWORD PTR $T34[ebp], ecx
  00136	89 85 ec fe ff
	ff		 mov	 DWORD PTR $T34[ebp+4], eax
  0013c	89 85 f0 fe ff
	ff		 mov	 DWORD PTR $T34[ebp+8], eax

; 721  :         _Construct_n(_Convert_size<size_type>(_Ilist.size()), _Ilist.begin(), _Ilist.end());

  00142	2b fa		 sub	 edi, edx

; 2111 :         if (_Count != 0) {

  00144	74 32		 je	 SHORT $LN128@dynamic

; 2112 :             _Buy_nonzero(_Count);

  00146	57		 push	 edi
  00147	8d 8d e8 fe ff
	ff		 lea	 ecx, DWORD PTR $T34[ebp]
  0014d	e8 00 00 00 00	 call	 ?_Buy_nonzero@?$vector@EV?$allocator@E@std@@@std@@AAEXI@Z ; std::vector<unsigned char,std::allocator<unsigned char> >::_Buy_nonzero

; 2120 :                 _My_data._Mylast = _STD _Uninitialized_copy(_STD forward<_Valty>(_Val)..., _My_data._Myfirst, _Al);

  00152	8b b5 e8 fe ff
	ff		 mov	 esi, DWORD PTR $T34[ebp]
; File C:\Program Files\Microsoft Visual Studio\2022\Community\VC\Tools\MSVC\14.44.35207\include\xmemory

; 1889 :                 _STD _Copy_memmove(_STD _To_address(_UFirst), _STD _To_address(_ULast), _STD _Unfancy(_Dest));

  00158	8d 45 de	 lea	 eax, DWORD PTR $T30[ebp+14]
  0015b	56		 push	 esi
  0015c	50		 push	 eax
  0015d	8d 45 d0	 lea	 eax, DWORD PTR $T30[ebp]
  00160	50		 push	 eax
  00161	e8 00 00 00 00	 call	 ??$_Copy_memmove@PBEPAE@std@@YAPAEPBE0PAE@Z ; std::_Copy_memmove<unsigned char const *,unsigned char *>
; File C:\Program Files\Microsoft Visual Studio\2022\Community\VC\Tools\MSVC\14.44.35207\include\vector

; 2120 :                 _My_data._Mylast = _STD _Uninitialized_copy(_STD forward<_Valty>(_Val)..., _My_data._Myfirst, _Al);

  00166	8b 8d e8 fe ff
	ff		 mov	 ecx, DWORD PTR $T34[ebp]
; File C:\Program Files\Microsoft Visual Studio\2022\Community\VC\Tools\MSVC\14.44.35207\include\xmemory

; 1890 :                 _Dest += _ULast - _UFirst;

  0016c	8d 04 37	 lea	 eax, DWORD PTR [edi+esi]
  0016f	83 c4 0c	 add	 esp, 12			; 0000000cH
; File C:\Program Files\Microsoft Visual Studio\2022\Community\VC\Tools\MSVC\14.44.35207\include\vector

; 2120 :                 _My_data._Mylast = _STD _Uninitialized_copy(_STD forward<_Valty>(_Val)..., _My_data._Myfirst, _Al);

  00172	89 85 ec fe ff
	ff		 mov	 DWORD PTR $T34[ebp+4], eax
$LN128@dynamic:
; File C:\Anka2Project\Anka2Project\Source\Binary\source\UserInterface\PythonPlayerSettingsModule.h

; 618  : static const std::map<uint8_t, std::map<uint8_t, std::vector<uint8_t>>> skillIndexes{

  00178	c6 45 fc 02	 mov	 BYTE PTR __$EHRec$[ebp+8], 2
; File C:\Program Files\Microsoft Visual Studio\2022\Community\VC\Tools\MSVC\14.44.35207\include\utility

; 263  :         : first(_Val1), second(_Val2) {}

  0017c	c6 85 4c fe ff
	ff 02		 mov	 BYTE PTR $T17[ebp+16], 2
; File C:\Program Files\Microsoft Visual Studio\2022\Community\VC\Tools\MSVC\14.44.35207\include\vector

; 400  :     _CONSTEXPR20 _Vector_val() noexcept : _Myfirst(), _Mylast(), _Myend() {}

  00183	c7 85 50 fe ff
	ff 00 00 00 00	 mov	 DWORD PTR $T17[ebp+20], 0
  0018d	c7 85 54 fe ff
	ff 00 00 00 00	 mov	 DWORD PTR $T17[ebp+24], 0
  00197	c7 85 58 fe ff
	ff 00 00 00 00	 mov	 DWORD PTR $T17[ebp+28], 0

; 748  :         const auto _Count       = static_cast<size_type>(_Right_data._Mylast - _Right_data._Myfirst);

  001a1	2b c1		 sub	 eax, ecx

; 2111 :         if (_Count != 0) {

  001a3	74 3d		 je	 SHORT $LN159@dynamic

; 2112 :             _Buy_nonzero(_Count);

  001a5	50		 push	 eax
  001a6	8d 8d 50 fe ff
	ff		 lea	 ecx, DWORD PTR $T17[ebp+20]
  001ac	e8 00 00 00 00	 call	 ?_Buy_nonzero@?$vector@EV?$allocator@E@std@@@std@@AAEXI@Z ; std::vector<unsigned char,std::allocator<unsigned char> >::_Buy_nonzero

; 2120 :                 _My_data._Mylast = _STD _Uninitialized_copy(_STD forward<_Valty>(_Val)..., _My_data._Myfirst, _Al);

  001b1	8b 85 50 fe ff
	ff		 mov	 eax, DWORD PTR $T17[ebp+20]
; File C:\Program Files\Microsoft Visual Studio\2022\Community\VC\Tools\MSVC\14.44.35207\include\xmemory

; 1872 :     auto _ULast  = _RANGES _Unwrap_sent<_InIt>(_STD move(_Last));

  001b7	8b bd ec fe ff
	ff		 mov	 edi, DWORD PTR $T34[ebp+4]
  001bd	8b b5 e8 fe ff
	ff		 mov	 esi, DWORD PTR $T34[ebp]

; 1889 :                 _STD _Copy_memmove(_STD _To_address(_UFirst), _STD _To_address(_ULast), _STD _Unfancy(_Dest));

  001c3	50		 push	 eax
  001c4	57		 push	 edi
  001c5	56		 push	 esi
; File C:\Program Files\Microsoft Visual Studio\2022\Community\VC\Tools\MSVC\14.44.35207\include\vector

; 2120 :                 _My_data._Mylast = _STD _Uninitialized_copy(_STD forward<_Valty>(_Val)..., _My_data._Myfirst, _Al);

  001c6	89 85 3c ff ff
	ff		 mov	 DWORD PTR __Dest$1$[ebp], eax
; File C:\Program Files\Microsoft Visual Studio\2022\Community\VC\Tools\MSVC\14.44.35207\include\xmemory

; 1889 :                 _STD _Copy_memmove(_STD _To_address(_UFirst), _STD _To_address(_ULast), _STD _Unfancy(_Dest));

  001cc	e8 00 00 00 00	 call	 ??$_Copy_memmove@PAEPAE@std@@YAPAEPAE00@Z ; std::_Copy_memmove<unsigned char *,unsigned char *>
; File C:\Program Files\Microsoft Visual Studio\2022\Community\VC\Tools\MSVC\14.44.35207\include\vector

; 2120 :                 _My_data._Mylast = _STD _Uninitialized_copy(_STD forward<_Valty>(_Val)..., _My_data._Myfirst, _Al);

  001d1	2b fe		 sub	 edi, esi
; File C:\Program Files\Microsoft Visual Studio\2022\Community\VC\Tools\MSVC\14.44.35207\include\xmemory

; 1889 :                 _STD _Copy_memmove(_STD _To_address(_UFirst), _STD _To_address(_ULast), _STD _Unfancy(_Dest));

  001d3	83 c4 0c	 add	 esp, 12			; 0000000cH

; 1890 :                 _Dest += _ULast - _UFirst;

  001d6	03 bd 3c ff ff
	ff		 add	 edi, DWORD PTR __Dest$1$[ebp]
; File C:\Program Files\Microsoft Visual Studio\2022\Community\VC\Tools\MSVC\14.44.35207\include\vector

; 2120 :                 _My_data._Mylast = _STD _Uninitialized_copy(_STD forward<_Valty>(_Val)..., _My_data._Myfirst, _Al);

  001dc	89 bd 54 fe ff
	ff		 mov	 DWORD PTR $T17[ebp+24], edi
$LN159@dynamic:
; File C:\Program Files\Microsoft Visual Studio\2022\Community\VC\Tools\MSVC\14.44.35207\include\initializer_list

; 34   :         : _First(_First_arg), _Last(_Last_arg) {}

  001e2	8d 85 5c fe ff
	ff		 lea	 eax, DWORD PTR $T17[ebp+32]
; File C:\Anka2Project\Anka2Project\Source\Binary\source\UserInterface\PythonPlayerSettingsModule.h

; 618  : static const std::map<uint8_t, std::map<uint8_t, std::vector<uint8_t>>> skillIndexes{

  001e8	c6 45 fc 04	 mov	 BYTE PTR __$EHRec$[ebp+8], 4
; File C:\Program Files\Microsoft Visual Studio\2022\Community\VC\Tools\MSVC\14.44.35207\include\initializer_list

; 34   :         : _First(_First_arg), _Last(_Last_arg) {}

  001ec	8d 8d 3c fe ff
	ff		 lea	 ecx, DWORD PTR $T17[ebp]
; File C:\Anka2Project\Anka2Project\Source\Binary\source\UserInterface\PythonPlayerSettingsModule.h

; 618  : static const std::map<uint8_t, std::map<uint8_t, std::vector<uint8_t>>> skillIndexes{

  001f2	50		 push	 eax
  001f3	51		 push	 ecx
  001f4	8d 8d bc fe ff
	ff		 lea	 ecx, DWORD PTR $T55[ebp]
  001fa	e8 00 00 00 00	 call	 ??0?$map@EV?$vector@EV?$allocator@E@std@@@std@@U?$less@E@2@V?$allocator@U?$pair@$$CBEV?$vector@EV?$allocator@E@std@@@std@@@std@@@2@@std@@QAE@V?$initializer_list@U?$pair@$$CBEV?$vector@EV?$allocator@E@std@@@std@@@std@@@1@@Z ; std::map<unsigned char,std::vector<unsigned char,std::allocator<unsigned char> >,std::less<unsigned char>,std::allocator<std::pair<unsigned char const ,std::vector<unsigned char,std::allocator<unsigned char> > > > >::map<unsigned char,std::vector<unsigned char,std::allocator<unsigned char> >,std::less<unsigned char>,std::allocator<std::pair<unsigned char const ,std::vector<unsigned char,std::allocator<unsigned char> > > > >
; File C:\Program Files\Microsoft Visual Studio\2022\Community\VC\Tools\MSVC\14.44.35207\include\utility

; 263  :         : first(_Val1), second(_Val2) {}

  001ff	8d 85 bc fe ff
	ff		 lea	 eax, DWORD PTR $T55[ebp]
; File C:\Anka2Project\Anka2Project\Source\Binary\source\UserInterface\PythonPlayerSettingsModule.h

; 618  : static const std::map<uint8_t, std::map<uint8_t, std::vector<uint8_t>>> skillIndexes{

  00205	c6 45 fc 05	 mov	 BYTE PTR __$EHRec$[ebp+8], 5
; File C:\Program Files\Microsoft Visual Studio\2022\Community\VC\Tools\MSVC\14.44.35207\include\utility

; 263  :         : first(_Val1), second(_Val2) {}

  00209	50		 push	 eax
  0020a	8d 8d 44 ff ff
	ff		 lea	 ecx, DWORD PTR $T56[ebp+4]
  00210	c6 85 40 ff ff
	ff 00		 mov	 BYTE PTR $T56[ebp], 0
  00217	e8 00 00 00 00	 call	 ??0?$map@EV?$vector@EV?$allocator@E@std@@@std@@U?$less@E@2@V?$allocator@U?$pair@$$CBEV?$vector@EV?$allocator@E@std@@@std@@@std@@@2@@std@@QAE@ABV01@@Z ; std::map<unsigned char,std::vector<unsigned char,std::allocator<unsigned char> >,std::less<unsigned char>,std::allocator<std::pair<unsigned char const ,std::vector<unsigned char,std::allocator<unsigned char> > > > >::map<unsigned char,std::vector<unsigned char,std::allocator<unsigned char> >,std::less<unsigned char>,std::allocator<std::pair<unsigned char const ,std::vector<unsigned char,std::allocator<unsigned char> > > > >
; File C:\Anka2Project\Anka2Project\Source\Binary\source\UserInterface\PythonPlayerSettingsModule.h

; 618  : static const std::map<uint8_t, std::map<uint8_t, std::vector<uint8_t>>> skillIndexes{

  0021c	c6 45 fc 06	 mov	 BYTE PTR __$EHRec$[ebp+8], 6
; File C:\Program Files\Microsoft Visual Studio\2022\Community\VC\Tools\MSVC\14.44.35207\include\initializer_list

; 34   :         : _First(_First_arg), _Last(_Last_arg) {}

  00220	8d 55 80	 lea	 edx, DWORD PTR $T61[ebp]
; File C:\Program Files\Microsoft Visual Studio\2022\Community\VC\Tools\MSVC\14.44.35207\include\vector

; 400  :     _CONSTEXPR20 _Vector_val() noexcept : _Myfirst(), _Mylast(), _Myend() {}

  00223	33 c0		 xor	 eax, eax
; File C:\Anka2Project\Anka2Project\Source\Binary\source\UserInterface\PythonPlayerSettingsModule.h

; 618  : static const std::map<uint8_t, std::map<uint8_t, std::vector<uint8_t>>> skillIndexes{

  00225	c7 45 80 1f 20
	21 22		 mov	 DWORD PTR $T61[ebp], 572596255 ; 2221201fH
; File C:\Program Files\Microsoft Visual Studio\2022\Community\VC\Tools\MSVC\14.44.35207\include\initializer_list

; 34   :         : _First(_First_arg), _Last(_Last_arg) {}

  0022c	8d 7d 8f	 lea	 edi, DWORD PTR $T61[ebp+15]
; File C:\Anka2Project\Anka2Project\Source\Binary\source\UserInterface\PythonPlayerSettingsModule.h

; 618  : static const std::map<uint8_t, std::map<uint8_t, std::vector<uint8_t>>> skillIndexes{

  0022f	c7 45 84 23 00
	00 00		 mov	 DWORD PTR $T61[ebp+4], 35 ; 00000023H
; File C:\Program Files\Microsoft Visual Studio\2022\Community\VC\Tools\MSVC\14.44.35207\include\vector

; 400  :     _CONSTEXPR20 _Vector_val() noexcept : _Myfirst(), _Mylast(), _Myend() {}

  00236	33 c9		 xor	 ecx, ecx
; File C:\Anka2Project\Anka2Project\Source\Binary\source\UserInterface\PythonPlayerSettingsModule.h

; 618  : static const std::map<uint8_t, std::map<uint8_t, std::vector<uint8_t>>> skillIndexes{

  00238	c7 45 88 89 00
	8a 00		 mov	 DWORD PTR $T61[ebp+8], 9044105 ; 008a0089H
  0023f	66 c7 45 8c 8b
	00		 mov	 WORD PTR $T61[ebp+12], 139 ; 0000008bH
  00245	c6 45 8e 8c	 mov	 BYTE PTR $T61[ebp+14], 140 ; 0000008cH
; File C:\Program Files\Microsoft Visual Studio\2022\Community\VC\Tools\MSVC\14.44.35207\include\vector

; 400  :     _CONSTEXPR20 _Vector_val() noexcept : _Myfirst(), _Mylast(), _Myend() {}

  00249	89 8d f4 fe ff
	ff		 mov	 DWORD PTR $T65[ebp], ecx
  0024f	89 85 f8 fe ff
	ff		 mov	 DWORD PTR $T65[ebp+4], eax
  00255	89 85 fc fe ff
	ff		 mov	 DWORD PTR $T65[ebp+8], eax

; 721  :         _Construct_n(_Convert_size<size_type>(_Ilist.size()), _Ilist.begin(), _Ilist.end());

  0025b	2b fa		 sub	 edi, edx

; 2111 :         if (_Count != 0) {

  0025d	74 32		 je	 SHORT $LN199@dynamic

; 2112 :             _Buy_nonzero(_Count);

  0025f	57		 push	 edi
  00260	8d 8d f4 fe ff
	ff		 lea	 ecx, DWORD PTR $T65[ebp]
  00266	e8 00 00 00 00	 call	 ?_Buy_nonzero@?$vector@EV?$allocator@E@std@@@std@@AAEXI@Z ; std::vector<unsigned char,std::allocator<unsigned char> >::_Buy_nonzero

; 2120 :                 _My_data._Mylast = _STD _Uninitialized_copy(_STD forward<_Valty>(_Val)..., _My_data._Myfirst, _Al);

  0026b	8b b5 f4 fe ff
	ff		 mov	 esi, DWORD PTR $T65[ebp]
; File C:\Program Files\Microsoft Visual Studio\2022\Community\VC\Tools\MSVC\14.44.35207\include\xmemory

; 1889 :                 _STD _Copy_memmove(_STD _To_address(_UFirst), _STD _To_address(_ULast), _STD _Unfancy(_Dest));

  00271	8d 45 8f	 lea	 eax, DWORD PTR $T61[ebp+15]
  00274	56		 push	 esi
  00275	50		 push	 eax
  00276	8d 45 80	 lea	 eax, DWORD PTR $T61[ebp]
  00279	50		 push	 eax
  0027a	e8 00 00 00 00	 call	 ??$_Copy_memmove@PBEPAE@std@@YAPAEPBE0PAE@Z ; std::_Copy_memmove<unsigned char const *,unsigned char *>
; File C:\Program Files\Microsoft Visual Studio\2022\Community\VC\Tools\MSVC\14.44.35207\include\vector

; 2120 :                 _My_data._Mylast = _STD _Uninitialized_copy(_STD forward<_Valty>(_Val)..., _My_data._Myfirst, _Al);

  0027f	8b 8d f4 fe ff
	ff		 mov	 ecx, DWORD PTR $T65[ebp]
; File C:\Program Files\Microsoft Visual Studio\2022\Community\VC\Tools\MSVC\14.44.35207\include\xmemory

; 1890 :                 _Dest += _ULast - _UFirst;

  00285	8d 04 3e	 lea	 eax, DWORD PTR [esi+edi]
  00288	83 c4 0c	 add	 esp, 12			; 0000000cH
; File C:\Program Files\Microsoft Visual Studio\2022\Community\VC\Tools\MSVC\14.44.35207\include\vector

; 2120 :                 _My_data._Mylast = _STD _Uninitialized_copy(_STD forward<_Valty>(_Val)..., _My_data._Myfirst, _Al);

  0028b	89 85 f8 fe ff
	ff		 mov	 DWORD PTR $T65[ebp+4], eax
$LN199@dynamic:
; File C:\Anka2Project\Anka2Project\Source\Binary\source\UserInterface\PythonPlayerSettingsModule.h

; 618  : static const std::map<uint8_t, std::map<uint8_t, std::vector<uint8_t>>> skillIndexes{

  00291	c6 45 fc 07	 mov	 BYTE PTR __$EHRec$[ebp+8], 7
; File C:\Program Files\Microsoft Visual Studio\2022\Community\VC\Tools\MSVC\14.44.35207\include\utility

; 263  :         : first(_Val1), second(_Val2) {}

  00295	c6 85 5c fe ff
	ff 01		 mov	 BYTE PTR $T74[ebp], 1
; File C:\Program Files\Microsoft Visual Studio\2022\Community\VC\Tools\MSVC\14.44.35207\include\vector

; 400  :     _CONSTEXPR20 _Vector_val() noexcept : _Myfirst(), _Mylast(), _Myend() {}

  0029c	c7 85 60 fe ff
	ff 00 00 00 00	 mov	 DWORD PTR $T74[ebp+4], 0
  002a6	c7 85 64 fe ff
	ff 00 00 00 00	 mov	 DWORD PTR $T74[ebp+8], 0
  002b0	c7 85 68 fe ff
	ff 00 00 00 00	 mov	 DWORD PTR $T74[ebp+12], 0

; 748  :         const auto _Count       = static_cast<size_type>(_Right_data._Mylast - _Right_data._Myfirst);

  002ba	2b c1		 sub	 eax, ecx

; 2111 :         if (_Count != 0) {

  002bc	74 3d		 je	 SHORT $LN230@dynamic

; 2112 :             _Buy_nonzero(_Count);

  002be	50		 push	 eax
  002bf	8d 8d 60 fe ff
	ff		 lea	 ecx, DWORD PTR $T74[ebp+4]
  002c5	e8 00 00 00 00	 call	 ?_Buy_nonzero@?$vector@EV?$allocator@E@std@@@std@@AAEXI@Z ; std::vector<unsigned char,std::allocator<unsigned char> >::_Buy_nonzero

; 2120 :                 _My_data._Mylast = _STD _Uninitialized_copy(_STD forward<_Valty>(_Val)..., _My_data._Myfirst, _Al);

  002ca	8b 85 60 fe ff
	ff		 mov	 eax, DWORD PTR $T74[ebp+4]
; File C:\Program Files\Microsoft Visual Studio\2022\Community\VC\Tools\MSVC\14.44.35207\include\xmemory

; 1872 :     auto _ULast  = _RANGES _Unwrap_sent<_InIt>(_STD move(_Last));

  002d0	8b bd f8 fe ff
	ff		 mov	 edi, DWORD PTR $T65[ebp+4]
  002d6	8b b5 f4 fe ff
	ff		 mov	 esi, DWORD PTR $T65[ebp]

; 1889 :                 _STD _Copy_memmove(_STD _To_address(_UFirst), _STD _To_address(_ULast), _STD _Unfancy(_Dest));

  002dc	50		 push	 eax
  002dd	57		 push	 edi
  002de	56		 push	 esi
; File C:\Program Files\Microsoft Visual Studio\2022\Community\VC\Tools\MSVC\14.44.35207\include\vector

; 2120 :                 _My_data._Mylast = _STD _Uninitialized_copy(_STD forward<_Valty>(_Val)..., _My_data._Myfirst, _Al);

  002df	89 85 3c ff ff
	ff		 mov	 DWORD PTR __Dest$1$[ebp], eax
; File C:\Program Files\Microsoft Visual Studio\2022\Community\VC\Tools\MSVC\14.44.35207\include\xmemory

; 1889 :                 _STD _Copy_memmove(_STD _To_address(_UFirst), _STD _To_address(_ULast), _STD _Unfancy(_Dest));

  002e5	e8 00 00 00 00	 call	 ??$_Copy_memmove@PAEPAE@std@@YAPAEPAE00@Z ; std::_Copy_memmove<unsigned char *,unsigned char *>
; File C:\Program Files\Microsoft Visual Studio\2022\Community\VC\Tools\MSVC\14.44.35207\include\vector

; 2120 :                 _My_data._Mylast = _STD _Uninitialized_copy(_STD forward<_Valty>(_Val)..., _My_data._Myfirst, _Al);

  002ea	2b fe		 sub	 edi, esi
; File C:\Program Files\Microsoft Visual Studio\2022\Community\VC\Tools\MSVC\14.44.35207\include\xmemory

; 1889 :                 _STD _Copy_memmove(_STD _To_address(_UFirst), _STD _To_address(_ULast), _STD _Unfancy(_Dest));

  002ec	83 c4 0c	 add	 esp, 12			; 0000000cH

; 1890 :                 _Dest += _ULast - _UFirst;

  002ef	03 bd 3c ff ff
	ff		 add	 edi, DWORD PTR __Dest$1$[ebp]
; File C:\Program Files\Microsoft Visual Studio\2022\Community\VC\Tools\MSVC\14.44.35207\include\vector

; 2120 :                 _My_data._Mylast = _STD _Uninitialized_copy(_STD forward<_Valty>(_Val)..., _My_data._Myfirst, _Al);

  002f5	89 bd 64 fe ff
	ff		 mov	 DWORD PTR $T74[ebp+8], edi
$LN230@dynamic:
; File C:\Anka2Project\Anka2Project\Source\Binary\source\UserInterface\PythonPlayerSettingsModule.h

; 618  : static const std::map<uint8_t, std::map<uint8_t, std::vector<uint8_t>>> skillIndexes{

  002fb	c6 45 fc 08	 mov	 BYTE PTR __$EHRec$[ebp+8], 8
; File C:\Program Files\Microsoft Visual Studio\2022\Community\VC\Tools\MSVC\14.44.35207\include\initializer_list

; 34   :         : _First(_First_arg), _Last(_Last_arg) {}

  002ff	8d 95 70 ff ff
	ff		 lea	 edx, DWORD PTR $T87[ebp]
; File C:\Program Files\Microsoft Visual Studio\2022\Community\VC\Tools\MSVC\14.44.35207\include\vector

; 400  :     _CONSTEXPR20 _Vector_val() noexcept : _Myfirst(), _Mylast(), _Myend() {}

  00305	33 c0		 xor	 eax, eax
; File C:\Anka2Project\Anka2Project\Source\Binary\source\UserInterface\PythonPlayerSettingsModule.h

; 618  : static const std::map<uint8_t, std::map<uint8_t, std::vector<uint8_t>>> skillIndexes{

  00307	c7 85 70 ff ff
	ff 2e 2f 30 31	 mov	 DWORD PTR $T87[ebp], 825241390 ; 31302f2eH
; File C:\Program Files\Microsoft Visual Studio\2022\Community\VC\Tools\MSVC\14.44.35207\include\initializer_list

; 34   :         : _First(_First_arg), _Last(_Last_arg) {}

  00311	8d bd 7f ff ff
	ff		 lea	 edi, DWORD PTR $T87[ebp+15]
; File C:\Anka2Project\Anka2Project\Source\Binary\source\UserInterface\PythonPlayerSettingsModule.h

; 618  : static const std::map<uint8_t, std::map<uint8_t, std::vector<uint8_t>>> skillIndexes{

  00317	c7 85 74 ff ff
	ff 32 00 00 00	 mov	 DWORD PTR $T87[ebp+4], 50 ; 00000032H
; File C:\Program Files\Microsoft Visual Studio\2022\Community\VC\Tools\MSVC\14.44.35207\include\vector

; 400  :     _CONSTEXPR20 _Vector_val() noexcept : _Myfirst(), _Mylast(), _Myend() {}

  00321	33 c9		 xor	 ecx, ecx
; File C:\Anka2Project\Anka2Project\Source\Binary\source\UserInterface\PythonPlayerSettingsModule.h

; 618  : static const std::map<uint8_t, std::map<uint8_t, std::vector<uint8_t>>> skillIndexes{

  00323	c7 85 78 ff ff
	ff 89 00 8a 00	 mov	 DWORD PTR $T87[ebp+8], 9044105 ; 008a0089H
  0032d	66 c7 85 7c ff
	ff ff 8b 00	 mov	 WORD PTR $T87[ebp+12], 139 ; 0000008bH
  00336	c6 85 7e ff ff
	ff 8c		 mov	 BYTE PTR $T87[ebp+14], 140 ; 0000008cH
; File C:\Program Files\Microsoft Visual Studio\2022\Community\VC\Tools\MSVC\14.44.35207\include\vector

; 400  :     _CONSTEXPR20 _Vector_val() noexcept : _Myfirst(), _Mylast(), _Myend() {}

  0033d	89 8d 00 ff ff
	ff		 mov	 DWORD PTR $T91[ebp], ecx
  00343	89 85 04 ff ff
	ff		 mov	 DWORD PTR $T91[ebp+4], eax
  00349	89 85 08 ff ff
	ff		 mov	 DWORD PTR $T91[ebp+8], eax

; 721  :         _Construct_n(_Convert_size<size_type>(_Ilist.size()), _Ilist.begin(), _Ilist.end());

  0034f	2b fa		 sub	 edi, edx

; 2111 :         if (_Count != 0) {

  00351	74 38		 je	 SHORT $LN264@dynamic

; 2112 :             _Buy_nonzero(_Count);

  00353	57		 push	 edi
  00354	8d 8d 00 ff ff
	ff		 lea	 ecx, DWORD PTR $T91[ebp]
  0035a	e8 00 00 00 00	 call	 ?_Buy_nonzero@?$vector@EV?$allocator@E@std@@@std@@AAEXI@Z ; std::vector<unsigned char,std::allocator<unsigned char> >::_Buy_nonzero

; 2120 :                 _My_data._Mylast = _STD _Uninitialized_copy(_STD forward<_Valty>(_Val)..., _My_data._Myfirst, _Al);

  0035f	8b b5 00 ff ff
	ff		 mov	 esi, DWORD PTR $T91[ebp]
; File C:\Program Files\Microsoft Visual Studio\2022\Community\VC\Tools\MSVC\14.44.35207\include\xmemory

; 1889 :                 _STD _Copy_memmove(_STD _To_address(_UFirst), _STD _To_address(_ULast), _STD _Unfancy(_Dest));

  00365	8d 85 7f ff ff
	ff		 lea	 eax, DWORD PTR $T87[ebp+15]
  0036b	56		 push	 esi
  0036c	50		 push	 eax
  0036d	8d 85 70 ff ff
	ff		 lea	 eax, DWORD PTR $T87[ebp]
  00373	50		 push	 eax
  00374	e8 00 00 00 00	 call	 ??$_Copy_memmove@PBEPAE@std@@YAPAEPBE0PAE@Z ; std::_Copy_memmove<unsigned char const *,unsigned char *>
; File C:\Program Files\Microsoft Visual Studio\2022\Community\VC\Tools\MSVC\14.44.35207\include\vector

; 2120 :                 _My_data._Mylast = _STD _Uninitialized_copy(_STD forward<_Valty>(_Val)..., _My_data._Myfirst, _Al);

  00379	8b 8d 00 ff ff
	ff		 mov	 ecx, DWORD PTR $T91[ebp]
; File C:\Program Files\Microsoft Visual Studio\2022\Community\VC\Tools\MSVC\14.44.35207\include\xmemory

; 1890 :                 _Dest += _ULast - _UFirst;

  0037f	8d 04 3e	 lea	 eax, DWORD PTR [esi+edi]
  00382	83 c4 0c	 add	 esp, 12			; 0000000cH
; File C:\Program Files\Microsoft Visual Studio\2022\Community\VC\Tools\MSVC\14.44.35207\include\vector

; 2120 :                 _My_data._Mylast = _STD _Uninitialized_copy(_STD forward<_Valty>(_Val)..., _My_data._Myfirst, _Al);

  00385	89 85 04 ff ff
	ff		 mov	 DWORD PTR $T91[ebp+4], eax
$LN264@dynamic:
; File C:\Anka2Project\Anka2Project\Source\Binary\source\UserInterface\PythonPlayerSettingsModule.h

; 618  : static const std::map<uint8_t, std::map<uint8_t, std::vector<uint8_t>>> skillIndexes{

  0038b	c6 45 fc 09	 mov	 BYTE PTR __$EHRec$[ebp+8], 9
; File C:\Program Files\Microsoft Visual Studio\2022\Community\VC\Tools\MSVC\14.44.35207\include\utility

; 263  :         : first(_Val1), second(_Val2) {}

  0038f	c6 85 6c fe ff
	ff 02		 mov	 BYTE PTR $T74[ebp+16], 2
; File C:\Program Files\Microsoft Visual Studio\2022\Community\VC\Tools\MSVC\14.44.35207\include\vector

; 400  :     _CONSTEXPR20 _Vector_val() noexcept : _Myfirst(), _Mylast(), _Myend() {}

  00396	c7 85 70 fe ff
	ff 00 00 00 00	 mov	 DWORD PTR $T74[ebp+20], 0
  003a0	c7 85 74 fe ff
	ff 00 00 00 00	 mov	 DWORD PTR $T74[ebp+24], 0
  003aa	c7 85 78 fe ff
	ff 00 00 00 00	 mov	 DWORD PTR $T74[ebp+28], 0

; 748  :         const auto _Count       = static_cast<size_type>(_Right_data._Mylast - _Right_data._Myfirst);

  003b4	2b c1		 sub	 eax, ecx

; 2111 :         if (_Count != 0) {

  003b6	74 3d		 je	 SHORT $LN295@dynamic

; 2112 :             _Buy_nonzero(_Count);

  003b8	50		 push	 eax
  003b9	8d 8d 70 fe ff
	ff		 lea	 ecx, DWORD PTR $T74[ebp+20]
  003bf	e8 00 00 00 00	 call	 ?_Buy_nonzero@?$vector@EV?$allocator@E@std@@@std@@AAEXI@Z ; std::vector<unsigned char,std::allocator<unsigned char> >::_Buy_nonzero

; 2120 :                 _My_data._Mylast = _STD _Uninitialized_copy(_STD forward<_Valty>(_Val)..., _My_data._Myfirst, _Al);

  003c4	8b 85 70 fe ff
	ff		 mov	 eax, DWORD PTR $T74[ebp+20]
; File C:\Program Files\Microsoft Visual Studio\2022\Community\VC\Tools\MSVC\14.44.35207\include\xmemory

; 1872 :     auto _ULast  = _RANGES _Unwrap_sent<_InIt>(_STD move(_Last));

  003ca	8b bd 04 ff ff
	ff		 mov	 edi, DWORD PTR $T91[ebp+4]
  003d0	8b b5 00 ff ff
	ff		 mov	 esi, DWORD PTR $T91[ebp]

; 1889 :                 _STD _Copy_memmove(_STD _To_address(_UFirst), _STD _To_address(_ULast), _STD _Unfancy(_Dest));

  003d6	50		 push	 eax
  003d7	57		 push	 edi
  003d8	56		 push	 esi
; File C:\Program Files\Microsoft Visual Studio\2022\Community\VC\Tools\MSVC\14.44.35207\include\vector

; 2120 :                 _My_data._Mylast = _STD _Uninitialized_copy(_STD forward<_Valty>(_Val)..., _My_data._Myfirst, _Al);

  003d9	89 85 3c ff ff
	ff		 mov	 DWORD PTR __Dest$1$[ebp], eax
; File C:\Program Files\Microsoft Visual Studio\2022\Community\VC\Tools\MSVC\14.44.35207\include\xmemory

; 1889 :                 _STD _Copy_memmove(_STD _To_address(_UFirst), _STD _To_address(_ULast), _STD _Unfancy(_Dest));

  003df	e8 00 00 00 00	 call	 ??$_Copy_memmove@PAEPAE@std@@YAPAEPAE00@Z ; std::_Copy_memmove<unsigned char *,unsigned char *>
; File C:\Program Files\Microsoft Visual Studio\2022\Community\VC\Tools\MSVC\14.44.35207\include\vector

; 2120 :                 _My_data._Mylast = _STD _Uninitialized_copy(_STD forward<_Valty>(_Val)..., _My_data._Myfirst, _Al);

  003e4	2b fe		 sub	 edi, esi
; File C:\Program Files\Microsoft Visual Studio\2022\Community\VC\Tools\MSVC\14.44.35207\include\xmemory

; 1889 :                 _STD _Copy_memmove(_STD _To_address(_UFirst), _STD _To_address(_ULast), _STD _Unfancy(_Dest));

  003e6	83 c4 0c	 add	 esp, 12			; 0000000cH

; 1890 :                 _Dest += _ULast - _UFirst;

  003e9	03 bd 3c ff ff
	ff		 add	 edi, DWORD PTR __Dest$1$[ebp]
; File C:\Program Files\Microsoft Visual Studio\2022\Community\VC\Tools\MSVC\14.44.35207\include\vector

; 2120 :                 _My_data._Mylast = _STD _Uninitialized_copy(_STD forward<_Valty>(_Val)..., _My_data._Myfirst, _Al);

  003ef	89 bd 74 fe ff
	ff		 mov	 DWORD PTR $T74[ebp+24], edi
$LN295@dynamic:
; File C:\Program Files\Microsoft Visual Studio\2022\Community\VC\Tools\MSVC\14.44.35207\include\initializer_list

; 34   :         : _First(_First_arg), _Last(_Last_arg) {}

  003f5	8d 85 7c fe ff
	ff		 lea	 eax, DWORD PTR $T74[ebp+32]
; File C:\Anka2Project\Anka2Project\Source\Binary\source\UserInterface\PythonPlayerSettingsModule.h

; 618  : static const std::map<uint8_t, std::map<uint8_t, std::vector<uint8_t>>> skillIndexes{

  003fb	c6 45 fc 0b	 mov	 BYTE PTR __$EHRec$[ebp+8], 11 ; 0000000bH
; File C:\Program Files\Microsoft Visual Studio\2022\Community\VC\Tools\MSVC\14.44.35207\include\initializer_list

; 34   :         : _First(_First_arg), _Last(_Last_arg) {}

  003ff	8d 8d 5c fe ff
	ff		 lea	 ecx, DWORD PTR $T74[ebp]
; File C:\Anka2Project\Anka2Project\Source\Binary\source\UserInterface\PythonPlayerSettingsModule.h

; 618  : static const std::map<uint8_t, std::map<uint8_t, std::vector<uint8_t>>> skillIndexes{

  00405	50		 push	 eax
  00406	51		 push	 ecx
  00407	8d 8d c4 fe ff
	ff		 lea	 ecx, DWORD PTR $T112[ebp]
  0040d	e8 00 00 00 00	 call	 ??0?$map@EV?$vector@EV?$allocator@E@std@@@std@@U?$less@E@2@V?$allocator@U?$pair@$$CBEV?$vector@EV?$allocator@E@std@@@std@@@std@@@2@@std@@QAE@V?$initializer_list@U?$pair@$$CBEV?$vector@EV?$allocator@E@std@@@std@@@std@@@1@@Z ; std::map<unsigned char,std::vector<unsigned char,std::allocator<unsigned char> >,std::less<unsigned char>,std::allocator<std::pair<unsigned char const ,std::vector<unsigned char,std::allocator<unsigned char> > > > >::map<unsigned char,std::vector<unsigned char,std::allocator<unsigned char> >,std::less<unsigned char>,std::allocator<std::pair<unsigned char const ,std::vector<unsigned char,std::allocator<unsigned char> > > > >
; File C:\Program Files\Microsoft Visual Studio\2022\Community\VC\Tools\MSVC\14.44.35207\include\utility

; 263  :         : first(_Val1), second(_Val2) {}

  00412	8d 85 c4 fe ff
	ff		 lea	 eax, DWORD PTR $T112[ebp]
; File C:\Anka2Project\Anka2Project\Source\Binary\source\UserInterface\PythonPlayerSettingsModule.h

; 618  : static const std::map<uint8_t, std::map<uint8_t, std::vector<uint8_t>>> skillIndexes{

  00418	c6 45 fc 0c	 mov	 BYTE PTR __$EHRec$[ebp+8], 12 ; 0000000cH
; File C:\Program Files\Microsoft Visual Studio\2022\Community\VC\Tools\MSVC\14.44.35207\include\utility

; 263  :         : first(_Val1), second(_Val2) {}

  0041c	50		 push	 eax
  0041d	8d 8d 50 ff ff
	ff		 lea	 ecx, DWORD PTR $T56[ebp+16]
  00423	c6 85 4c ff ff
	ff 01		 mov	 BYTE PTR $T56[ebp+12], 1
  0042a	e8 00 00 00 00	 call	 ??0?$map@EV?$vector@EV?$allocator@E@std@@@std@@U?$less@E@2@V?$allocator@U?$pair@$$CBEV?$vector@EV?$allocator@E@std@@@std@@@std@@@2@@std@@QAE@ABV01@@Z ; std::map<unsigned char,std::vector<unsigned char,std::allocator<unsigned char> >,std::less<unsigned char>,std::allocator<std::pair<unsigned char const ,std::vector<unsigned char,std::allocator<unsigned char> > > > >::map<unsigned char,std::vector<unsigned char,std::allocator<unsigned char> >,std::less<unsigned char>,std::allocator<std::pair<unsigned char const ,std::vector<unsigned char,std::allocator<unsigned char> > > > >
; File C:\Anka2Project\Anka2Project\Source\Binary\source\UserInterface\PythonPlayerSettingsModule.h

; 618  : static const std::map<uint8_t, std::map<uint8_t, std::vector<uint8_t>>> skillIndexes{

  0042f	c6 45 fc 0d	 mov	 BYTE PTR __$EHRec$[ebp+8], 13 ; 0000000dH
; File C:\Program Files\Microsoft Visual Studio\2022\Community\VC\Tools\MSVC\14.44.35207\include\initializer_list

; 34   :         : _First(_First_arg), _Last(_Last_arg) {}

  00433	8d 55 c0	 lea	 edx, DWORD PTR $T117[ebp]
; File C:\Program Files\Microsoft Visual Studio\2022\Community\VC\Tools\MSVC\14.44.35207\include\vector

; 400  :     _CONSTEXPR20 _Vector_val() noexcept : _Myfirst(), _Mylast(), _Myend() {}

  00436	33 c0		 xor	 eax, eax
; File C:\Anka2Project\Anka2Project\Source\Binary\source\UserInterface\PythonPlayerSettingsModule.h

; 618  : static const std::map<uint8_t, std::map<uint8_t, std::vector<uint8_t>>> skillIndexes{

  00438	c7 45 c0 3d 3e
	3f 40		 mov	 DWORD PTR $T117[ebp], 1077886525 ; 403f3e3dH
; File C:\Program Files\Microsoft Visual Studio\2022\Community\VC\Tools\MSVC\14.44.35207\include\initializer_list

; 34   :         : _First(_First_arg), _Last(_Last_arg) {}

  0043f	8d 7d ce	 lea	 edi, DWORD PTR $T117[ebp+14]
; File C:\Anka2Project\Anka2Project\Source\Binary\source\UserInterface\PythonPlayerSettingsModule.h

; 618  : static const std::map<uint8_t, std::map<uint8_t, std::vector<uint8_t>>> skillIndexes{

  00442	c7 45 c4 41 42
	00 00		 mov	 DWORD PTR $T117[ebp+4], 16961 ; 00004241H
; File C:\Program Files\Microsoft Visual Studio\2022\Community\VC\Tools\MSVC\14.44.35207\include\vector

; 400  :     _CONSTEXPR20 _Vector_val() noexcept : _Myfirst(), _Mylast(), _Myend() {}

  00449	33 c9		 xor	 ecx, ecx
; File C:\Anka2Project\Anka2Project\Source\Binary\source\UserInterface\PythonPlayerSettingsModule.h

; 618  : static const std::map<uint8_t, std::map<uint8_t, std::vector<uint8_t>>> skillIndexes{

  0044b	c7 45 c8 89 00
	8a 00		 mov	 DWORD PTR $T117[ebp+8], 9044105 ; 008a0089H
  00452	66 c7 45 cc 8b
	00		 mov	 WORD PTR $T117[ebp+12], 139 ; 0000008bH
; File C:\Program Files\Microsoft Visual Studio\2022\Community\VC\Tools\MSVC\14.44.35207\include\vector

; 400  :     _CONSTEXPR20 _Vector_val() noexcept : _Myfirst(), _Mylast(), _Myend() {}

  00458	89 8d 0c ff ff
	ff		 mov	 DWORD PTR $T121[ebp], ecx
  0045e	89 85 10 ff ff
	ff		 mov	 DWORD PTR $T121[ebp+4], eax
  00464	89 85 14 ff ff
	ff		 mov	 DWORD PTR $T121[ebp+8], eax

; 721  :         _Construct_n(_Convert_size<size_type>(_Ilist.size()), _Ilist.begin(), _Ilist.end());

  0046a	2b fa		 sub	 edi, edx

; 2111 :         if (_Count != 0) {

  0046c	74 32		 je	 SHORT $LN335@dynamic

; 2112 :             _Buy_nonzero(_Count);

  0046e	57		 push	 edi
  0046f	8d 8d 0c ff ff
	ff		 lea	 ecx, DWORD PTR $T121[ebp]
  00475	e8 00 00 00 00	 call	 ?_Buy_nonzero@?$vector@EV?$allocator@E@std@@@std@@AAEXI@Z ; std::vector<unsigned char,std::allocator<unsigned char> >::_Buy_nonzero

; 2120 :                 _My_data._Mylast = _STD _Uninitialized_copy(_STD forward<_Valty>(_Val)..., _My_data._Myfirst, _Al);

  0047a	8b b5 0c ff ff
	ff		 mov	 esi, DWORD PTR $T121[ebp]
; File C:\Program Files\Microsoft Visual Studio\2022\Community\VC\Tools\MSVC\14.44.35207\include\xmemory

; 1889 :                 _STD _Copy_memmove(_STD _To_address(_UFirst), _STD _To_address(_ULast), _STD _Unfancy(_Dest));

  00480	8d 45 ce	 lea	 eax, DWORD PTR $T117[ebp+14]
  00483	56		 push	 esi
  00484	50		 push	 eax
  00485	8d 45 c0	 lea	 eax, DWORD PTR $T117[ebp]
  00488	50		 push	 eax
  00489	e8 00 00 00 00	 call	 ??$_Copy_memmove@PBEPAE@std@@YAPAEPBE0PAE@Z ; std::_Copy_memmove<unsigned char const *,unsigned char *>
; File C:\Program Files\Microsoft Visual Studio\2022\Community\VC\Tools\MSVC\14.44.35207\include\vector

; 2120 :                 _My_data._Mylast = _STD _Uninitialized_copy(_STD forward<_Valty>(_Val)..., _My_data._Myfirst, _Al);

  0048e	8b 8d 0c ff ff
	ff		 mov	 ecx, DWORD PTR $T121[ebp]
; File C:\Program Files\Microsoft Visual Studio\2022\Community\VC\Tools\MSVC\14.44.35207\include\xmemory

; 1890 :                 _Dest += _ULast - _UFirst;

  00494	8d 04 3e	 lea	 eax, DWORD PTR [esi+edi]
  00497	83 c4 0c	 add	 esp, 12			; 0000000cH
; File C:\Program Files\Microsoft Visual Studio\2022\Community\VC\Tools\MSVC\14.44.35207\include\vector

; 2120 :                 _My_data._Mylast = _STD _Uninitialized_copy(_STD forward<_Valty>(_Val)..., _My_data._Myfirst, _Al);

  0049a	89 85 10 ff ff
	ff		 mov	 DWORD PTR $T121[ebp+4], eax
$LN335@dynamic:
; File C:\Anka2Project\Anka2Project\Source\Binary\source\UserInterface\PythonPlayerSettingsModule.h

; 618  : static const std::map<uint8_t, std::map<uint8_t, std::vector<uint8_t>>> skillIndexes{

  004a0	c6 45 fc 0e	 mov	 BYTE PTR __$EHRec$[ebp+8], 14 ; 0000000eH
; File C:\Program Files\Microsoft Visual Studio\2022\Community\VC\Tools\MSVC\14.44.35207\include\utility

; 263  :         : first(_Val1), second(_Val2) {}

  004a4	c6 85 7c fe ff
	ff 01		 mov	 BYTE PTR $T130[ebp], 1
; File C:\Program Files\Microsoft Visual Studio\2022\Community\VC\Tools\MSVC\14.44.35207\include\vector

; 400  :     _CONSTEXPR20 _Vector_val() noexcept : _Myfirst(), _Mylast(), _Myend() {}

  004ab	c7 85 80 fe ff
	ff 00 00 00 00	 mov	 DWORD PTR $T130[ebp+4], 0
  004b5	c7 85 84 fe ff
	ff 00 00 00 00	 mov	 DWORD PTR $T130[ebp+8], 0
  004bf	c7 85 88 fe ff
	ff 00 00 00 00	 mov	 DWORD PTR $T130[ebp+12], 0

; 748  :         const auto _Count       = static_cast<size_type>(_Right_data._Mylast - _Right_data._Myfirst);

  004c9	2b c1		 sub	 eax, ecx

; 2111 :         if (_Count != 0) {

  004cb	74 3d		 je	 SHORT $LN366@dynamic

; 2112 :             _Buy_nonzero(_Count);

  004cd	50		 push	 eax
  004ce	8d 8d 80 fe ff
	ff		 lea	 ecx, DWORD PTR $T130[ebp+4]
  004d4	e8 00 00 00 00	 call	 ?_Buy_nonzero@?$vector@EV?$allocator@E@std@@@std@@AAEXI@Z ; std::vector<unsigned char,std::allocator<unsigned char> >::_Buy_nonzero

; 2120 :                 _My_data._Mylast = _STD _Uninitialized_copy(_STD forward<_Valty>(_Val)..., _My_data._Myfirst, _Al);

  004d9	8b 85 80 fe ff
	ff		 mov	 eax, DWORD PTR $T130[ebp+4]
; File C:\Program Files\Microsoft Visual Studio\2022\Community\VC\Tools\MSVC\14.44.35207\include\xmemory

; 1872 :     auto _ULast  = _RANGES _Unwrap_sent<_InIt>(_STD move(_Last));

  004df	8b bd 10 ff ff
	ff		 mov	 edi, DWORD PTR $T121[ebp+4]
  004e5	8b b5 0c ff ff
	ff		 mov	 esi, DWORD PTR $T121[ebp]

; 1889 :                 _STD _Copy_memmove(_STD _To_address(_UFirst), _STD _To_address(_ULast), _STD _Unfancy(_Dest));

  004eb	50		 push	 eax
  004ec	57		 push	 edi
  004ed	56		 push	 esi
; File C:\Program Files\Microsoft Visual Studio\2022\Community\VC\Tools\MSVC\14.44.35207\include\vector

; 2120 :                 _My_data._Mylast = _STD _Uninitialized_copy(_STD forward<_Valty>(_Val)..., _My_data._Myfirst, _Al);

  004ee	89 85 3c ff ff
	ff		 mov	 DWORD PTR __Dest$1$[ebp], eax
; File C:\Program Files\Microsoft Visual Studio\2022\Community\VC\Tools\MSVC\14.44.35207\include\xmemory

; 1889 :                 _STD _Copy_memmove(_STD _To_address(_UFirst), _STD _To_address(_ULast), _STD _Unfancy(_Dest));

  004f4	e8 00 00 00 00	 call	 ??$_Copy_memmove@PAEPAE@std@@YAPAEPAE00@Z ; std::_Copy_memmove<unsigned char *,unsigned char *>
; File C:\Program Files\Microsoft Visual Studio\2022\Community\VC\Tools\MSVC\14.44.35207\include\vector

; 2120 :                 _My_data._Mylast = _STD _Uninitialized_copy(_STD forward<_Valty>(_Val)..., _My_data._Myfirst, _Al);

  004f9	2b fe		 sub	 edi, esi
; File C:\Program Files\Microsoft Visual Studio\2022\Community\VC\Tools\MSVC\14.44.35207\include\xmemory

; 1889 :                 _STD _Copy_memmove(_STD _To_address(_UFirst), _STD _To_address(_ULast), _STD _Unfancy(_Dest));

  004fb	83 c4 0c	 add	 esp, 12			; 0000000cH

; 1890 :                 _Dest += _ULast - _UFirst;

  004fe	03 bd 3c ff ff
	ff		 add	 edi, DWORD PTR __Dest$1$[ebp]
; File C:\Program Files\Microsoft Visual Studio\2022\Community\VC\Tools\MSVC\14.44.35207\include\vector

; 2120 :                 _My_data._Mylast = _STD _Uninitialized_copy(_STD forward<_Valty>(_Val)..., _My_data._Myfirst, _Al);

  00504	89 bd 84 fe ff
	ff		 mov	 DWORD PTR $T130[ebp+8], edi
$LN366@dynamic:
; File C:\Anka2Project\Anka2Project\Source\Binary\source\UserInterface\PythonPlayerSettingsModule.h

; 618  : static const std::map<uint8_t, std::map<uint8_t, std::vector<uint8_t>>> skillIndexes{

  0050a	c6 45 fc 0f	 mov	 BYTE PTR __$EHRec$[ebp+8], 15 ; 0000000fH
; File C:\Program Files\Microsoft Visual Studio\2022\Community\VC\Tools\MSVC\14.44.35207\include\initializer_list

; 34   :         : _First(_First_arg), _Last(_Last_arg) {}

  0050e	8d 55 b0	 lea	 edx, DWORD PTR $T143[ebp]
; File C:\Program Files\Microsoft Visual Studio\2022\Community\VC\Tools\MSVC\14.44.35207\include\vector

; 400  :     _CONSTEXPR20 _Vector_val() noexcept : _Myfirst(), _Mylast(), _Myend() {}

  00511	33 c0		 xor	 eax, eax
; File C:\Anka2Project\Anka2Project\Source\Binary\source\UserInterface\PythonPlayerSettingsModule.h

; 618  : static const std::map<uint8_t, std::map<uint8_t, std::vector<uint8_t>>> skillIndexes{

  00513	c7 45 b0 4c 4d
	4e 4f		 mov	 DWORD PTR $T143[ebp], 1330531660 ; 4f4e4d4cH
; File C:\Program Files\Microsoft Visual Studio\2022\Community\VC\Tools\MSVC\14.44.35207\include\initializer_list

; 34   :         : _First(_First_arg), _Last(_Last_arg) {}

  0051a	8d 7d be	 lea	 edi, DWORD PTR $T143[ebp+14]
; File C:\Anka2Project\Anka2Project\Source\Binary\source\UserInterface\PythonPlayerSettingsModule.h

; 618  : static const std::map<uint8_t, std::map<uint8_t, std::vector<uint8_t>>> skillIndexes{

  0051d	c7 45 b4 50 51
	00 00		 mov	 DWORD PTR $T143[ebp+4], 20816 ; 00005150H
; File C:\Program Files\Microsoft Visual Studio\2022\Community\VC\Tools\MSVC\14.44.35207\include\vector

; 400  :     _CONSTEXPR20 _Vector_val() noexcept : _Myfirst(), _Mylast(), _Myend() {}

  00524	33 c9		 xor	 ecx, ecx
; File C:\Anka2Project\Anka2Project\Source\Binary\source\UserInterface\PythonPlayerSettingsModule.h

; 618  : static const std::map<uint8_t, std::map<uint8_t, std::vector<uint8_t>>> skillIndexes{

  00526	c7 45 b8 89 00
	8a 00		 mov	 DWORD PTR $T143[ebp+8], 9044105 ; 008a0089H
  0052d	66 c7 45 bc 8b
	00		 mov	 WORD PTR $T143[ebp+12], 139 ; 0000008bH
; File C:\Program Files\Microsoft Visual Studio\2022\Community\VC\Tools\MSVC\14.44.35207\include\vector

; 400  :     _CONSTEXPR20 _Vector_val() noexcept : _Myfirst(), _Mylast(), _Myend() {}

  00533	89 8d 18 ff ff
	ff		 mov	 DWORD PTR $T147[ebp], ecx
  00539	89 85 1c ff ff
	ff		 mov	 DWORD PTR $T147[ebp+4], eax
  0053f	89 85 20 ff ff
	ff		 mov	 DWORD PTR $T147[ebp+8], eax

; 721  :         _Construct_n(_Convert_size<size_type>(_Ilist.size()), _Ilist.begin(), _Ilist.end());

  00545	2b fa		 sub	 edi, edx

; 2111 :         if (_Count != 0) {

  00547	74 32		 je	 SHORT $LN400@dynamic

; 2112 :             _Buy_nonzero(_Count);

  00549	57		 push	 edi
  0054a	8d 8d 18 ff ff
	ff		 lea	 ecx, DWORD PTR $T147[ebp]
  00550	e8 00 00 00 00	 call	 ?_Buy_nonzero@?$vector@EV?$allocator@E@std@@@std@@AAEXI@Z ; std::vector<unsigned char,std::allocator<unsigned char> >::_Buy_nonzero

; 2120 :                 _My_data._Mylast = _STD _Uninitialized_copy(_STD forward<_Valty>(_Val)..., _My_data._Myfirst, _Al);

  00555	8b b5 18 ff ff
	ff		 mov	 esi, DWORD PTR $T147[ebp]
; File C:\Program Files\Microsoft Visual Studio\2022\Community\VC\Tools\MSVC\14.44.35207\include\xmemory

; 1889 :                 _STD _Copy_memmove(_STD _To_address(_UFirst), _STD _To_address(_ULast), _STD _Unfancy(_Dest));

  0055b	8d 45 be	 lea	 eax, DWORD PTR $T143[ebp+14]
  0055e	56		 push	 esi
  0055f	50		 push	 eax
  00560	8d 45 b0	 lea	 eax, DWORD PTR $T143[ebp]
  00563	50		 push	 eax
  00564	e8 00 00 00 00	 call	 ??$_Copy_memmove@PBEPAE@std@@YAPAEPBE0PAE@Z ; std::_Copy_memmove<unsigned char const *,unsigned char *>
; File C:\Program Files\Microsoft Visual Studio\2022\Community\VC\Tools\MSVC\14.44.35207\include\vector

; 2120 :                 _My_data._Mylast = _STD _Uninitialized_copy(_STD forward<_Valty>(_Val)..., _My_data._Myfirst, _Al);

  00569	8b 8d 18 ff ff
	ff		 mov	 ecx, DWORD PTR $T147[ebp]
; File C:\Program Files\Microsoft Visual Studio\2022\Community\VC\Tools\MSVC\14.44.35207\include\xmemory

; 1890 :                 _Dest += _ULast - _UFirst;

  0056f	8d 04 37	 lea	 eax, DWORD PTR [edi+esi]
  00572	83 c4 0c	 add	 esp, 12			; 0000000cH
; File C:\Program Files\Microsoft Visual Studio\2022\Community\VC\Tools\MSVC\14.44.35207\include\vector

; 2120 :                 _My_data._Mylast = _STD _Uninitialized_copy(_STD forward<_Valty>(_Val)..., _My_data._Myfirst, _Al);

  00575	89 85 1c ff ff
	ff		 mov	 DWORD PTR $T147[ebp+4], eax
$LN400@dynamic:
; File C:\Anka2Project\Anka2Project\Source\Binary\source\UserInterface\PythonPlayerSettingsModule.h

; 618  : static const std::map<uint8_t, std::map<uint8_t, std::vector<uint8_t>>> skillIndexes{

  0057b	c6 45 fc 10	 mov	 BYTE PTR __$EHRec$[ebp+8], 16 ; 00000010H
; File C:\Program Files\Microsoft Visual Studio\2022\Community\VC\Tools\MSVC\14.44.35207\include\utility

; 263  :         : first(_Val1), second(_Val2) {}

  0057f	c6 85 8c fe ff
	ff 02		 mov	 BYTE PTR $T130[ebp+16], 2
; File C:\Program Files\Microsoft Visual Studio\2022\Community\VC\Tools\MSVC\14.44.35207\include\vector

; 400  :     _CONSTEXPR20 _Vector_val() noexcept : _Myfirst(), _Mylast(), _Myend() {}

  00586	c7 85 90 fe ff
	ff 00 00 00 00	 mov	 DWORD PTR $T130[ebp+20], 0
  00590	c7 85 94 fe ff
	ff 00 00 00 00	 mov	 DWORD PTR $T130[ebp+24], 0
  0059a	c7 85 98 fe ff
	ff 00 00 00 00	 mov	 DWORD PTR $T130[ebp+28], 0

; 748  :         const auto _Count       = static_cast<size_type>(_Right_data._Mylast - _Right_data._Myfirst);

  005a4	2b c1		 sub	 eax, ecx

; 2111 :         if (_Count != 0) {

  005a6	74 3d		 je	 SHORT $LN431@dynamic

; 2112 :             _Buy_nonzero(_Count);

  005a8	50		 push	 eax
  005a9	8d 8d 90 fe ff
	ff		 lea	 ecx, DWORD PTR $T130[ebp+20]
  005af	e8 00 00 00 00	 call	 ?_Buy_nonzero@?$vector@EV?$allocator@E@std@@@std@@AAEXI@Z ; std::vector<unsigned char,std::allocator<unsigned char> >::_Buy_nonzero

; 2120 :                 _My_data._Mylast = _STD _Uninitialized_copy(_STD forward<_Valty>(_Val)..., _My_data._Myfirst, _Al);

  005b4	8b 85 90 fe ff
	ff		 mov	 eax, DWORD PTR $T130[ebp+20]
; File C:\Program Files\Microsoft Visual Studio\2022\Community\VC\Tools\MSVC\14.44.35207\include\xmemory

; 1872 :     auto _ULast  = _RANGES _Unwrap_sent<_InIt>(_STD move(_Last));

  005ba	8b bd 1c ff ff
	ff		 mov	 edi, DWORD PTR $T147[ebp+4]
  005c0	8b b5 18 ff ff
	ff		 mov	 esi, DWORD PTR $T147[ebp]

; 1889 :                 _STD _Copy_memmove(_STD _To_address(_UFirst), _STD _To_address(_ULast), _STD _Unfancy(_Dest));

  005c6	50		 push	 eax
  005c7	57		 push	 edi
  005c8	56		 push	 esi
; File C:\Program Files\Microsoft Visual Studio\2022\Community\VC\Tools\MSVC\14.44.35207\include\vector

; 2120 :                 _My_data._Mylast = _STD _Uninitialized_copy(_STD forward<_Valty>(_Val)..., _My_data._Myfirst, _Al);

  005c9	89 85 3c ff ff
	ff		 mov	 DWORD PTR __Dest$1$[ebp], eax
; File C:\Program Files\Microsoft Visual Studio\2022\Community\VC\Tools\MSVC\14.44.35207\include\xmemory

; 1889 :                 _STD _Copy_memmove(_STD _To_address(_UFirst), _STD _To_address(_ULast), _STD _Unfancy(_Dest));

  005cf	e8 00 00 00 00	 call	 ??$_Copy_memmove@PAEPAE@std@@YAPAEPAE00@Z ; std::_Copy_memmove<unsigned char *,unsigned char *>
; File C:\Program Files\Microsoft Visual Studio\2022\Community\VC\Tools\MSVC\14.44.35207\include\vector

; 2120 :                 _My_data._Mylast = _STD _Uninitialized_copy(_STD forward<_Valty>(_Val)..., _My_data._Myfirst, _Al);

  005d4	2b fe		 sub	 edi, esi
; File C:\Program Files\Microsoft Visual Studio\2022\Community\VC\Tools\MSVC\14.44.35207\include\xmemory

; 1889 :                 _STD _Copy_memmove(_STD _To_address(_UFirst), _STD _To_address(_ULast), _STD _Unfancy(_Dest));

  005d6	83 c4 0c	 add	 esp, 12			; 0000000cH

; 1890 :                 _Dest += _ULast - _UFirst;

  005d9	03 bd 3c ff ff
	ff		 add	 edi, DWORD PTR __Dest$1$[ebp]
; File C:\Program Files\Microsoft Visual Studio\2022\Community\VC\Tools\MSVC\14.44.35207\include\vector

; 2120 :                 _My_data._Mylast = _STD _Uninitialized_copy(_STD forward<_Valty>(_Val)..., _My_data._Myfirst, _Al);

  005df	89 bd 94 fe ff
	ff		 mov	 DWORD PTR $T130[ebp+24], edi
$LN431@dynamic:
; File C:\Program Files\Microsoft Visual Studio\2022\Community\VC\Tools\MSVC\14.44.35207\include\initializer_list

; 34   :         : _First(_First_arg), _Last(_Last_arg) {}

  005e5	8d 85 9c fe ff
	ff		 lea	 eax, DWORD PTR $T130[ebp+32]
; File C:\Anka2Project\Anka2Project\Source\Binary\source\UserInterface\PythonPlayerSettingsModule.h

; 618  : static const std::map<uint8_t, std::map<uint8_t, std::vector<uint8_t>>> skillIndexes{

  005eb	c6 45 fc 12	 mov	 BYTE PTR __$EHRec$[ebp+8], 18 ; 00000012H
; File C:\Program Files\Microsoft Visual Studio\2022\Community\VC\Tools\MSVC\14.44.35207\include\initializer_list

; 34   :         : _First(_First_arg), _Last(_Last_arg) {}

  005ef	8d 8d 7c fe ff
	ff		 lea	 ecx, DWORD PTR $T130[ebp]
; File C:\Anka2Project\Anka2Project\Source\Binary\source\UserInterface\PythonPlayerSettingsModule.h

; 618  : static const std::map<uint8_t, std::map<uint8_t, std::vector<uint8_t>>> skillIndexes{

  005f5	50		 push	 eax
  005f6	51		 push	 ecx
  005f7	8d 8d cc fe ff
	ff		 lea	 ecx, DWORD PTR $T168[ebp]
  005fd	e8 00 00 00 00	 call	 ??0?$map@EV?$vector@EV?$allocator@E@std@@@std@@U?$less@E@2@V?$allocator@U?$pair@$$CBEV?$vector@EV?$allocator@E@std@@@std@@@std@@@2@@std@@QAE@V?$initializer_list@U?$pair@$$CBEV?$vector@EV?$allocator@E@std@@@std@@@std@@@1@@Z ; std::map<unsigned char,std::vector<unsigned char,std::allocator<unsigned char> >,std::less<unsigned char>,std::allocator<std::pair<unsigned char const ,std::vector<unsigned char,std::allocator<unsigned char> > > > >::map<unsigned char,std::vector<unsigned char,std::allocator<unsigned char> >,std::less<unsigned char>,std::allocator<std::pair<unsigned char const ,std::vector<unsigned char,std::allocator<unsigned char> > > > >
; File C:\Program Files\Microsoft Visual Studio\2022\Community\VC\Tools\MSVC\14.44.35207\include\utility

; 263  :         : first(_Val1), second(_Val2) {}

  00602	8d 85 cc fe ff
	ff		 lea	 eax, DWORD PTR $T168[ebp]
; File C:\Anka2Project\Anka2Project\Source\Binary\source\UserInterface\PythonPlayerSettingsModule.h

; 618  : static const std::map<uint8_t, std::map<uint8_t, std::vector<uint8_t>>> skillIndexes{

  00608	c6 45 fc 13	 mov	 BYTE PTR __$EHRec$[ebp+8], 19 ; 00000013H
; File C:\Program Files\Microsoft Visual Studio\2022\Community\VC\Tools\MSVC\14.44.35207\include\utility

; 263  :         : first(_Val1), second(_Val2) {}

  0060c	50		 push	 eax
  0060d	8d 8d 5c ff ff
	ff		 lea	 ecx, DWORD PTR $T56[ebp+28]
  00613	c6 85 58 ff ff
	ff 02		 mov	 BYTE PTR $T56[ebp+24], 2
  0061a	e8 00 00 00 00	 call	 ??0?$map@EV?$vector@EV?$allocator@E@std@@@std@@U?$less@E@2@V?$allocator@U?$pair@$$CBEV?$vector@EV?$allocator@E@std@@@std@@@std@@@2@@std@@QAE@ABV01@@Z ; std::map<unsigned char,std::vector<unsigned char,std::allocator<unsigned char> >,std::less<unsigned char>,std::allocator<std::pair<unsigned char const ,std::vector<unsigned char,std::allocator<unsigned char> > > > >::map<unsigned char,std::vector<unsigned char,std::allocator<unsigned char> >,std::less<unsigned char>,std::allocator<std::pair<unsigned char const ,std::vector<unsigned char,std::allocator<unsigned char> > > > >
; File C:\Anka2Project\Anka2Project\Source\Binary\source\UserInterface\PythonPlayerSettingsModule.h

; 618  : static const std::map<uint8_t, std::map<uint8_t, std::vector<uint8_t>>> skillIndexes{

  0061f	c6 45 fc 14	 mov	 BYTE PTR __$EHRec$[ebp+8], 20 ; 00000014H
; File C:\Program Files\Microsoft Visual Studio\2022\Community\VC\Tools\MSVC\14.44.35207\include\initializer_list

; 34   :         : _First(_First_arg), _Last(_Last_arg) {}

  00623	8d 55 a0	 lea	 edx, DWORD PTR $T173[ebp]
; File C:\Program Files\Microsoft Visual Studio\2022\Community\VC\Tools\MSVC\14.44.35207\include\vector

; 400  :     _CONSTEXPR20 _Vector_val() noexcept : _Myfirst(), _Mylast(), _Myend() {}

  00626	33 c0		 xor	 eax, eax
; File C:\Anka2Project\Anka2Project\Source\Binary\source\UserInterface\PythonPlayerSettingsModule.h

; 618  : static const std::map<uint8_t, std::map<uint8_t, std::vector<uint8_t>>> skillIndexes{

  00628	c7 45 a0 5b 5c
	5d 5e		 mov	 DWORD PTR $T173[ebp], 1583176795 ; 5e5d5c5bH
; File C:\Program Files\Microsoft Visual Studio\2022\Community\VC\Tools\MSVC\14.44.35207\include\initializer_list

; 34   :         : _First(_First_arg), _Last(_Last_arg) {}

  0062f	8d 7d ae	 lea	 edi, DWORD PTR $T173[ebp+14]
; File C:\Anka2Project\Anka2Project\Source\Binary\source\UserInterface\PythonPlayerSettingsModule.h

; 618  : static const std::map<uint8_t, std::map<uint8_t, std::vector<uint8_t>>> skillIndexes{

  00632	c7 45 a4 5f 60
	00 00		 mov	 DWORD PTR $T173[ebp+4], 24671 ; 0000605fH
; File C:\Program Files\Microsoft Visual Studio\2022\Community\VC\Tools\MSVC\14.44.35207\include\vector

; 400  :     _CONSTEXPR20 _Vector_val() noexcept : _Myfirst(), _Mylast(), _Myend() {}

  00639	33 c9		 xor	 ecx, ecx
; File C:\Anka2Project\Anka2Project\Source\Binary\source\UserInterface\PythonPlayerSettingsModule.h

; 618  : static const std::map<uint8_t, std::map<uint8_t, std::vector<uint8_t>>> skillIndexes{

  0063b	c7 45 a8 89 00
	8a 00		 mov	 DWORD PTR $T173[ebp+8], 9044105 ; 008a0089H
  00642	66 c7 45 ac 8b
	00		 mov	 WORD PTR $T173[ebp+12], 139 ; 0000008bH
; File C:\Program Files\Microsoft Visual Studio\2022\Community\VC\Tools\MSVC\14.44.35207\include\vector

; 400  :     _CONSTEXPR20 _Vector_val() noexcept : _Myfirst(), _Mylast(), _Myend() {}

  00648	89 8d 24 ff ff
	ff		 mov	 DWORD PTR $T177[ebp], ecx
  0064e	89 85 28 ff ff
	ff		 mov	 DWORD PTR $T177[ebp+4], eax
  00654	89 85 2c ff ff
	ff		 mov	 DWORD PTR $T177[ebp+8], eax

; 721  :         _Construct_n(_Convert_size<size_type>(_Ilist.size()), _Ilist.begin(), _Ilist.end());

  0065a	2b fa		 sub	 edi, edx

; 2111 :         if (_Count != 0) {

  0065c	74 32		 je	 SHORT $LN471@dynamic

; 2112 :             _Buy_nonzero(_Count);

  0065e	57		 push	 edi
  0065f	8d 8d 24 ff ff
	ff		 lea	 ecx, DWORD PTR $T177[ebp]
  00665	e8 00 00 00 00	 call	 ?_Buy_nonzero@?$vector@EV?$allocator@E@std@@@std@@AAEXI@Z ; std::vector<unsigned char,std::allocator<unsigned char> >::_Buy_nonzero

; 2120 :                 _My_data._Mylast = _STD _Uninitialized_copy(_STD forward<_Valty>(_Val)..., _My_data._Myfirst, _Al);

  0066a	8b b5 24 ff ff
	ff		 mov	 esi, DWORD PTR $T177[ebp]
; File C:\Program Files\Microsoft Visual Studio\2022\Community\VC\Tools\MSVC\14.44.35207\include\xmemory

; 1889 :                 _STD _Copy_memmove(_STD _To_address(_UFirst), _STD _To_address(_ULast), _STD _Unfancy(_Dest));

  00670	8d 45 ae	 lea	 eax, DWORD PTR $T173[ebp+14]
  00673	56		 push	 esi
  00674	50		 push	 eax
  00675	8d 45 a0	 lea	 eax, DWORD PTR $T173[ebp]
  00678	50		 push	 eax
  00679	e8 00 00 00 00	 call	 ??$_Copy_memmove@PBEPAE@std@@YAPAEPBE0PAE@Z ; std::_Copy_memmove<unsigned char const *,unsigned char *>
; File C:\Program Files\Microsoft Visual Studio\2022\Community\VC\Tools\MSVC\14.44.35207\include\vector

; 2120 :                 _My_data._Mylast = _STD _Uninitialized_copy(_STD forward<_Valty>(_Val)..., _My_data._Myfirst, _Al);

  0067e	8b 8d 24 ff ff
	ff		 mov	 ecx, DWORD PTR $T177[ebp]
; File C:\Program Files\Microsoft Visual Studio\2022\Community\VC\Tools\MSVC\14.44.35207\include\xmemory

; 1890 :                 _Dest += _ULast - _UFirst;

  00684	8d 04 3e	 lea	 eax, DWORD PTR [esi+edi]
  00687	83 c4 0c	 add	 esp, 12			; 0000000cH
; File C:\Program Files\Microsoft Visual Studio\2022\Community\VC\Tools\MSVC\14.44.35207\include\vector

; 2120 :                 _My_data._Mylast = _STD _Uninitialized_copy(_STD forward<_Valty>(_Val)..., _My_data._Myfirst, _Al);

  0068a	89 85 28 ff ff
	ff		 mov	 DWORD PTR $T177[ebp+4], eax
$LN471@dynamic:
; File C:\Anka2Project\Anka2Project\Source\Binary\source\UserInterface\PythonPlayerSettingsModule.h

; 618  : static const std::map<uint8_t, std::map<uint8_t, std::vector<uint8_t>>> skillIndexes{

  00690	c6 45 fc 15	 mov	 BYTE PTR __$EHRec$[ebp+8], 21 ; 00000015H
; File C:\Program Files\Microsoft Visual Studio\2022\Community\VC\Tools\MSVC\14.44.35207\include\utility

; 263  :         : first(_Val1), second(_Val2) {}

  00694	c6 85 9c fe ff
	ff 01		 mov	 BYTE PTR $T186[ebp], 1
; File C:\Program Files\Microsoft Visual Studio\2022\Community\VC\Tools\MSVC\14.44.35207\include\vector

; 400  :     _CONSTEXPR20 _Vector_val() noexcept : _Myfirst(), _Mylast(), _Myend() {}

  0069b	c7 85 a0 fe ff
	ff 00 00 00 00	 mov	 DWORD PTR $T186[ebp+4], 0
  006a5	c7 85 a4 fe ff
	ff 00 00 00 00	 mov	 DWORD PTR $T186[ebp+8], 0
  006af	c7 85 a8 fe ff
	ff 00 00 00 00	 mov	 DWORD PTR $T186[ebp+12], 0

; 748  :         const auto _Count       = static_cast<size_type>(_Right_data._Mylast - _Right_data._Myfirst);

  006b9	2b c1		 sub	 eax, ecx

; 2111 :         if (_Count != 0) {

  006bb	74 3d		 je	 SHORT $LN502@dynamic

; 2112 :             _Buy_nonzero(_Count);

  006bd	50		 push	 eax
  006be	8d 8d a0 fe ff
	ff		 lea	 ecx, DWORD PTR $T186[ebp+4]
  006c4	e8 00 00 00 00	 call	 ?_Buy_nonzero@?$vector@EV?$allocator@E@std@@@std@@AAEXI@Z ; std::vector<unsigned char,std::allocator<unsigned char> >::_Buy_nonzero

; 2120 :                 _My_data._Mylast = _STD _Uninitialized_copy(_STD forward<_Valty>(_Val)..., _My_data._Myfirst, _Al);

  006c9	8b 85 a0 fe ff
	ff		 mov	 eax, DWORD PTR $T186[ebp+4]
; File C:\Program Files\Microsoft Visual Studio\2022\Community\VC\Tools\MSVC\14.44.35207\include\xmemory

; 1872 :     auto _ULast  = _RANGES _Unwrap_sent<_InIt>(_STD move(_Last));

  006cf	8b bd 28 ff ff
	ff		 mov	 edi, DWORD PTR $T177[ebp+4]
  006d5	8b b5 24 ff ff
	ff		 mov	 esi, DWORD PTR $T177[ebp]

; 1889 :                 _STD _Copy_memmove(_STD _To_address(_UFirst), _STD _To_address(_ULast), _STD _Unfancy(_Dest));

  006db	50		 push	 eax
  006dc	57		 push	 edi
  006dd	56		 push	 esi
; File C:\Program Files\Microsoft Visual Studio\2022\Community\VC\Tools\MSVC\14.44.35207\include\vector

; 2120 :                 _My_data._Mylast = _STD _Uninitialized_copy(_STD forward<_Valty>(_Val)..., _My_data._Myfirst, _Al);

  006de	89 85 3c ff ff
	ff		 mov	 DWORD PTR __Dest$1$[ebp], eax
; File C:\Program Files\Microsoft Visual Studio\2022\Community\VC\Tools\MSVC\14.44.35207\include\xmemory

; 1889 :                 _STD _Copy_memmove(_STD _To_address(_UFirst), _STD _To_address(_ULast), _STD _Unfancy(_Dest));

  006e4	e8 00 00 00 00	 call	 ??$_Copy_memmove@PAEPAE@std@@YAPAEPAE00@Z ; std::_Copy_memmove<unsigned char *,unsigned char *>
; File C:\Program Files\Microsoft Visual Studio\2022\Community\VC\Tools\MSVC\14.44.35207\include\vector

; 2120 :                 _My_data._Mylast = _STD _Uninitialized_copy(_STD forward<_Valty>(_Val)..., _My_data._Myfirst, _Al);

  006e9	2b fe		 sub	 edi, esi
; File C:\Program Files\Microsoft Visual Studio\2022\Community\VC\Tools\MSVC\14.44.35207\include\xmemory

; 1889 :                 _STD _Copy_memmove(_STD _To_address(_UFirst), _STD _To_address(_ULast), _STD _Unfancy(_Dest));

  006eb	83 c4 0c	 add	 esp, 12			; 0000000cH

; 1890 :                 _Dest += _ULast - _UFirst;

  006ee	03 bd 3c ff ff
	ff		 add	 edi, DWORD PTR __Dest$1$[ebp]
; File C:\Program Files\Microsoft Visual Studio\2022\Community\VC\Tools\MSVC\14.44.35207\include\vector

; 2120 :                 _My_data._Mylast = _STD _Uninitialized_copy(_STD forward<_Valty>(_Val)..., _My_data._Myfirst, _Al);

  006f4	89 bd a4 fe ff
	ff		 mov	 DWORD PTR $T186[ebp+8], edi
$LN502@dynamic:
; File C:\Anka2Project\Anka2Project\Source\Binary\source\UserInterface\PythonPlayerSettingsModule.h

; 618  : static const std::map<uint8_t, std::map<uint8_t, std::vector<uint8_t>>> skillIndexes{

  006fa	c6 45 fc 16	 mov	 BYTE PTR __$EHRec$[ebp+8], 22 ; 00000016H
; File C:\Program Files\Microsoft Visual Studio\2022\Community\VC\Tools\MSVC\14.44.35207\include\initializer_list

; 34   :         : _First(_First_arg), _Last(_Last_arg) {}

  006fe	8d 55 90	 lea	 edx, DWORD PTR $T199[ebp]
; File C:\Program Files\Microsoft Visual Studio\2022\Community\VC\Tools\MSVC\14.44.35207\include\vector

; 400  :     _CONSTEXPR20 _Vector_val() noexcept : _Myfirst(), _Mylast(), _Myend() {}

  00701	33 c0		 xor	 eax, eax
; File C:\Anka2Project\Anka2Project\Source\Binary\source\UserInterface\PythonPlayerSettingsModule.h

; 618  : static const std::map<uint8_t, std::map<uint8_t, std::vector<uint8_t>>> skillIndexes{

  00703	c7 45 90 6a 6b
	6c 6d		 mov	 DWORD PTR $T199[ebp], 1835821930 ; 6d6c6b6aH
; File C:\Program Files\Microsoft Visual Studio\2022\Community\VC\Tools\MSVC\14.44.35207\include\initializer_list

; 34   :         : _First(_First_arg), _Last(_Last_arg) {}

  0070a	8d 7d 9e	 lea	 edi, DWORD PTR $T199[ebp+14]
; File C:\Anka2Project\Anka2Project\Source\Binary\source\UserInterface\PythonPlayerSettingsModule.h

; 618  : static const std::map<uint8_t, std::map<uint8_t, std::vector<uint8_t>>> skillIndexes{

  0070d	c7 45 94 6e 6f
	00 00		 mov	 DWORD PTR $T199[ebp+4], 28526 ; 00006f6eH
; File C:\Program Files\Microsoft Visual Studio\2022\Community\VC\Tools\MSVC\14.44.35207\include\vector

; 400  :     _CONSTEXPR20 _Vector_val() noexcept : _Myfirst(), _Mylast(), _Myend() {}

  00714	33 c9		 xor	 ecx, ecx
; File C:\Anka2Project\Anka2Project\Source\Binary\source\UserInterface\PythonPlayerSettingsModule.h

; 618  : static const std::map<uint8_t, std::map<uint8_t, std::vector<uint8_t>>> skillIndexes{

  00716	c7 45 98 89 00
	8a 00		 mov	 DWORD PTR $T199[ebp+8], 9044105 ; 008a0089H
  0071d	66 c7 45 9c 8b
	00		 mov	 WORD PTR $T199[ebp+12], 139 ; 0000008bH
; File C:\Program Files\Microsoft Visual Studio\2022\Community\VC\Tools\MSVC\14.44.35207\include\vector

; 400  :     _CONSTEXPR20 _Vector_val() noexcept : _Myfirst(), _Mylast(), _Myend() {}

  00723	89 8d 30 ff ff
	ff		 mov	 DWORD PTR $T203[ebp], ecx
  00729	89 85 34 ff ff
	ff		 mov	 DWORD PTR $T203[ebp+4], eax
  0072f	89 85 38 ff ff
	ff		 mov	 DWORD PTR $T203[ebp+8], eax

; 721  :         _Construct_n(_Convert_size<size_type>(_Ilist.size()), _Ilist.begin(), _Ilist.end());

  00735	2b fa		 sub	 edi, edx

; 2111 :         if (_Count != 0) {

  00737	74 32		 je	 SHORT $LN536@dynamic

; 2112 :             _Buy_nonzero(_Count);

  00739	57		 push	 edi
  0073a	8d 8d 30 ff ff
	ff		 lea	 ecx, DWORD PTR $T203[ebp]
  00740	e8 00 00 00 00	 call	 ?_Buy_nonzero@?$vector@EV?$allocator@E@std@@@std@@AAEXI@Z ; std::vector<unsigned char,std::allocator<unsigned char> >::_Buy_nonzero

; 2120 :                 _My_data._Mylast = _STD _Uninitialized_copy(_STD forward<_Valty>(_Val)..., _My_data._Myfirst, _Al);

  00745	8b b5 30 ff ff
	ff		 mov	 esi, DWORD PTR $T203[ebp]
; File C:\Program Files\Microsoft Visual Studio\2022\Community\VC\Tools\MSVC\14.44.35207\include\xmemory

; 1889 :                 _STD _Copy_memmove(_STD _To_address(_UFirst), _STD _To_address(_ULast), _STD _Unfancy(_Dest));

  0074b	8d 45 9e	 lea	 eax, DWORD PTR $T199[ebp+14]
  0074e	56		 push	 esi
  0074f	50		 push	 eax
  00750	8d 45 90	 lea	 eax, DWORD PTR $T199[ebp]
  00753	50		 push	 eax
  00754	e8 00 00 00 00	 call	 ??$_Copy_memmove@PBEPAE@std@@YAPAEPBE0PAE@Z ; std::_Copy_memmove<unsigned char const *,unsigned char *>
; File C:\Program Files\Microsoft Visual Studio\2022\Community\VC\Tools\MSVC\14.44.35207\include\vector

; 2120 :                 _My_data._Mylast = _STD _Uninitialized_copy(_STD forward<_Valty>(_Val)..., _My_data._Myfirst, _Al);

  00759	8b 8d 30 ff ff
	ff		 mov	 ecx, DWORD PTR $T203[ebp]
; File C:\Program Files\Microsoft Visual Studio\2022\Community\VC\Tools\MSVC\14.44.35207\include\xmemory

; 1890 :                 _Dest += _ULast - _UFirst;

  0075f	8d 04 3e	 lea	 eax, DWORD PTR [esi+edi]
  00762	83 c4 0c	 add	 esp, 12			; 0000000cH
; File C:\Program Files\Microsoft Visual Studio\2022\Community\VC\Tools\MSVC\14.44.35207\include\vector

; 2120 :                 _My_data._Mylast = _STD _Uninitialized_copy(_STD forward<_Valty>(_Val)..., _My_data._Myfirst, _Al);

  00765	89 85 34 ff ff
	ff		 mov	 DWORD PTR $T203[ebp+4], eax
$LN536@dynamic:
; File C:\Anka2Project\Anka2Project\Source\Binary\source\UserInterface\PythonPlayerSettingsModule.h

; 618  : static const std::map<uint8_t, std::map<uint8_t, std::vector<uint8_t>>> skillIndexes{

  0076b	c6 45 fc 17	 mov	 BYTE PTR __$EHRec$[ebp+8], 23 ; 00000017H
; File C:\Program Files\Microsoft Visual Studio\2022\Community\VC\Tools\MSVC\14.44.35207\include\utility

; 263  :         : first(_Val1), second(_Val2) {}

  0076f	c6 85 ac fe ff
	ff 02		 mov	 BYTE PTR $T186[ebp+16], 2
; File C:\Program Files\Microsoft Visual Studio\2022\Community\VC\Tools\MSVC\14.44.35207\include\vector

; 400  :     _CONSTEXPR20 _Vector_val() noexcept : _Myfirst(), _Mylast(), _Myend() {}

  00776	c7 85 b0 fe ff
	ff 00 00 00 00	 mov	 DWORD PTR $T186[ebp+20], 0
  00780	c7 85 b4 fe ff
	ff 00 00 00 00	 mov	 DWORD PTR $T186[ebp+24], 0
  0078a	c7 85 b8 fe ff
	ff 00 00 00 00	 mov	 DWORD PTR $T186[ebp+28], 0

; 748  :         const auto _Count       = static_cast<size_type>(_Right_data._Mylast - _Right_data._Myfirst);

  00794	2b c1		 sub	 eax, ecx

; 2111 :         if (_Count != 0) {

  00796	74 3d		 je	 SHORT $LN567@dynamic

; 2112 :             _Buy_nonzero(_Count);

  00798	50		 push	 eax
  00799	8d 8d b0 fe ff
	ff		 lea	 ecx, DWORD PTR $T186[ebp+20]
  0079f	e8 00 00 00 00	 call	 ?_Buy_nonzero@?$vector@EV?$allocator@E@std@@@std@@AAEXI@Z ; std::vector<unsigned char,std::allocator<unsigned char> >::_Buy_nonzero

; 2120 :                 _My_data._Mylast = _STD _Uninitialized_copy(_STD forward<_Valty>(_Val)..., _My_data._Myfirst, _Al);

  007a4	8b 85 b0 fe ff
	ff		 mov	 eax, DWORD PTR $T186[ebp+20]
; File C:\Program Files\Microsoft Visual Studio\2022\Community\VC\Tools\MSVC\14.44.35207\include\xmemory

; 1872 :     auto _ULast  = _RANGES _Unwrap_sent<_InIt>(_STD move(_Last));

  007aa	8b bd 34 ff ff
	ff		 mov	 edi, DWORD PTR $T203[ebp+4]
  007b0	8b b5 30 ff ff
	ff		 mov	 esi, DWORD PTR $T203[ebp]

; 1889 :                 _STD _Copy_memmove(_STD _To_address(_UFirst), _STD _To_address(_ULast), _STD _Unfancy(_Dest));

  007b6	50		 push	 eax
  007b7	57		 push	 edi
  007b8	56		 push	 esi
; File C:\Program Files\Microsoft Visual Studio\2022\Community\VC\Tools\MSVC\14.44.35207\include\vector

; 2120 :                 _My_data._Mylast = _STD _Uninitialized_copy(_STD forward<_Valty>(_Val)..., _My_data._Myfirst, _Al);

  007b9	89 85 3c ff ff
	ff		 mov	 DWORD PTR __Dest$1$[ebp], eax
; File C:\Program Files\Microsoft Visual Studio\2022\Community\VC\Tools\MSVC\14.44.35207\include\xmemory

; 1889 :                 _STD _Copy_memmove(_STD _To_address(_UFirst), _STD _To_address(_ULast), _STD _Unfancy(_Dest));

  007bf	e8 00 00 00 00	 call	 ??$_Copy_memmove@PAEPAE@std@@YAPAEPAE00@Z ; std::_Copy_memmove<unsigned char *,unsigned char *>
; File C:\Program Files\Microsoft Visual Studio\2022\Community\VC\Tools\MSVC\14.44.35207\include\vector

; 2120 :                 _My_data._Mylast = _STD _Uninitialized_copy(_STD forward<_Valty>(_Val)..., _My_data._Myfirst, _Al);

  007c4	2b fe		 sub	 edi, esi
; File C:\Program Files\Microsoft Visual Studio\2022\Community\VC\Tools\MSVC\14.44.35207\include\xmemory

; 1889 :                 _STD _Copy_memmove(_STD _To_address(_UFirst), _STD _To_address(_ULast), _STD _Unfancy(_Dest));

  007c6	83 c4 0c	 add	 esp, 12			; 0000000cH

; 1890 :                 _Dest += _ULast - _UFirst;

  007c9	03 bd 3c ff ff
	ff		 add	 edi, DWORD PTR __Dest$1$[ebp]
; File C:\Program Files\Microsoft Visual Studio\2022\Community\VC\Tools\MSVC\14.44.35207\include\vector

; 2120 :                 _My_data._Mylast = _STD _Uninitialized_copy(_STD forward<_Valty>(_Val)..., _My_data._Myfirst, _Al);

  007cf	89 bd b4 fe ff
	ff		 mov	 DWORD PTR $T186[ebp+24], edi
$LN567@dynamic:
; File C:\Program Files\Microsoft Visual Studio\2022\Community\VC\Tools\MSVC\14.44.35207\include\initializer_list

; 34   :         : _First(_First_arg), _Last(_Last_arg) {}

  007d5	8d 85 bc fe ff
	ff		 lea	 eax, DWORD PTR $T186[ebp+32]
; File C:\Anka2Project\Anka2Project\Source\Binary\source\UserInterface\PythonPlayerSettingsModule.h

; 618  : static const std::map<uint8_t, std::map<uint8_t, std::vector<uint8_t>>> skillIndexes{

  007db	c6 45 fc 19	 mov	 BYTE PTR __$EHRec$[ebp+8], 25 ; 00000019H
; File C:\Program Files\Microsoft Visual Studio\2022\Community\VC\Tools\MSVC\14.44.35207\include\initializer_list

; 34   :         : _First(_First_arg), _Last(_Last_arg) {}

  007df	8d 8d 9c fe ff
	ff		 lea	 ecx, DWORD PTR $T186[ebp]
; File C:\Anka2Project\Anka2Project\Source\Binary\source\UserInterface\PythonPlayerSettingsModule.h

; 618  : static const std::map<uint8_t, std::map<uint8_t, std::vector<uint8_t>>> skillIndexes{

  007e5	50		 push	 eax
  007e6	51		 push	 ecx
  007e7	8d 8d d4 fe ff
	ff		 lea	 ecx, DWORD PTR $T224[ebp]
  007ed	e8 00 00 00 00	 call	 ??0?$map@EV?$vector@EV?$allocator@E@std@@@std@@U?$less@E@2@V?$allocator@U?$pair@$$CBEV?$vector@EV?$allocator@E@std@@@std@@@std@@@2@@std@@QAE@V?$initializer_list@U?$pair@$$CBEV?$vector@EV?$allocator@E@std@@@std@@@std@@@1@@Z ; std::map<unsigned char,std::vector<unsigned char,std::allocator<unsigned char> >,std::less<unsigned char>,std::allocator<std::pair<unsigned char const ,std::vector<unsigned char,std::allocator<unsigned char> > > > >::map<unsigned char,std::vector<unsigned char,std::allocator<unsigned char> >,std::less<unsigned char>,std::allocator<std::pair<unsigned char const ,std::vector<unsigned char,std::allocator<unsigned char> > > > >
; File C:\Program Files\Microsoft Visual Studio\2022\Community\VC\Tools\MSVC\14.44.35207\include\utility

; 263  :         : first(_Val1), second(_Val2) {}

  007f2	8d 85 d4 fe ff
	ff		 lea	 eax, DWORD PTR $T224[ebp]
; File C:\Anka2Project\Anka2Project\Source\Binary\source\UserInterface\PythonPlayerSettingsModule.h

; 618  : static const std::map<uint8_t, std::map<uint8_t, std::vector<uint8_t>>> skillIndexes{

  007f8	c6 45 fc 1a	 mov	 BYTE PTR __$EHRec$[ebp+8], 26 ; 0000001aH
; File C:\Program Files\Microsoft Visual Studio\2022\Community\VC\Tools\MSVC\14.44.35207\include\utility

; 263  :         : first(_Val1), second(_Val2) {}

  007fc	50		 push	 eax
  007fd	8d 8d 68 ff ff
	ff		 lea	 ecx, DWORD PTR $T56[ebp+40]
  00803	c6 85 64 ff ff
	ff 03		 mov	 BYTE PTR $T56[ebp+36], 3
  0080a	e8 00 00 00 00	 call	 ??0?$map@EV?$vector@EV?$allocator@E@std@@@std@@U?$less@E@2@V?$allocator@U?$pair@$$CBEV?$vector@EV?$allocator@E@std@@@std@@@std@@@2@@std@@QAE@ABV01@@Z ; std::map<unsigned char,std::vector<unsigned char,std::allocator<unsigned char> >,std::less<unsigned char>,std::allocator<std::pair<unsigned char const ,std::vector<unsigned char,std::allocator<unsigned char> > > > >::map<unsigned char,std::vector<unsigned char,std::allocator<unsigned char> >,std::less<unsigned char>,std::allocator<std::pair<unsigned char const ,std::vector<unsigned char,std::allocator<unsigned char> > > > >
; File C:\Program Files\Microsoft Visual Studio\2022\Community\VC\Tools\MSVC\14.44.35207\include\initializer_list

; 34   :         : _First(_First_arg), _Last(_Last_arg) {}

  0080f	8d 85 70 ff ff
	ff		 lea	 eax, DWORD PTR $T56[ebp+48]
; File C:\Anka2Project\Anka2Project\Source\Binary\source\UserInterface\PythonPlayerSettingsModule.h

; 618  : static const std::map<uint8_t, std::map<uint8_t, std::vector<uint8_t>>> skillIndexes{

  00815	c6 45 fc 27	 mov	 BYTE PTR __$EHRec$[ebp+8], 39 ; 00000027H
; File C:\Program Files\Microsoft Visual Studio\2022\Community\VC\Tools\MSVC\14.44.35207\include\initializer_list

; 34   :         : _First(_First_arg), _Last(_Last_arg) {}

  00819	8d 8d 40 ff ff
	ff		 lea	 ecx, DWORD PTR $T56[ebp]
; File C:\Anka2Project\Anka2Project\Source\Binary\source\UserInterface\PythonPlayerSettingsModule.h

; 618  : static const std::map<uint8_t, std::map<uint8_t, std::vector<uint8_t>>> skillIndexes{

  0081f	50		 push	 eax
  00820	51		 push	 ecx
  00821	b9 00 00 00 00	 mov	 ecx, OFFSET ?skillIndexes@@3V?$map@EV?$map@EV?$vector@EV?$allocator@E@std@@@std@@U?$less@E@2@V?$allocator@U?$pair@$$CBEV?$vector@EV?$allocator@E@std@@@std@@@std@@@2@@std@@U?$less@E@2@V?$allocator@U?$pair@$$CBEV?$map@EV?$vector@EV?$allocator@E@std@@@std@@U?$less@E@2@V?$allocator@U?$pair@$$CBEV?$vector@EV?$allocator@E@std@@@std@@@std@@@2@@std@@@std@@@2@@std@@B
  00826	e8 00 00 00 00	 call	 ??0?$map@EV?$map@EV?$vector@EV?$allocator@E@std@@@std@@U?$less@E@2@V?$allocator@U?$pair@$$CBEV?$vector@EV?$allocator@E@std@@@std@@@std@@@2@@std@@U?$less@E@2@V?$allocator@U?$pair@$$CBEV?$map@EV?$vector@EV?$allocator@E@std@@@std@@U?$less@E@2@V?$allocator@U?$pair@$$CBEV?$vector@EV?$allocator@E@std@@@std@@@std@@@2@@std@@@std@@@2@@std@@QAE@V?$initializer_list@U?$pair@$$CBEV?$map@EV?$vector@EV?$allocator@E@std@@@std@@U?$less@E@2@V?$allocator@U?$pair@$$CBEV?$vector@EV?$allocator@E@std@@@std@@@std@@@2@@std@@@std@@@1@@Z ; std::map<unsigned char,std::map<unsigned char,std::vector<unsigned char,std::allocator<unsigned char> >,std::less<unsigned char>,std::allocator<std::pair<unsigned char const ,std::vector<unsigned char,std::allocator<unsigned char> > > > >,std::less<unsigned char>,std::allocator<std::pair<unsigned char const ,std::map<unsigned char,std::vector<unsigned char,std::allocator<unsigned char> >,std::less<unsigned char>,std::allocator<std::pair<unsigned char const ,std::vector<unsigned char,std::allocator<unsigned char> > > > > > > >::map<unsigned char,std::map<unsigned char,std::vector<unsigned char,std::allocator<unsigned char> >,std::less<unsigned char>,std::allocator<std::pair<unsigned char const ,std::vector<unsigned char,std::allocator<unsigned char> > > > >,std::less<unsigned char>,std::allocator<std::pair<unsigned char const ,std::map<unsigned char,std::vector<unsigned char,std::allocator<unsigned char> >,std::less<unsigned char>,std::allocator<std::pair<unsigned char const ,std::vector<unsigned char,std::allocator<unsigned char> > > > > > > >
  0082b	68 00 00 00 00	 push	 OFFSET ??1?$pair@$$CBEV?$map@EV?$vector@EV?$allocator@E@std@@@std@@U?$less@E@2@V?$allocator@U?$pair@$$CBEV?$vector@EV?$allocator@E@std@@@std@@@std@@@2@@std@@@std@@QAE@XZ
  00830	6a 04		 push	 4
  00832	6a 0c		 push	 12			; 0000000cH
  00834	8d 85 40 ff ff
	ff		 lea	 eax, DWORD PTR $T56[ebp]
  0083a	c6 45 fc 26	 mov	 BYTE PTR __$EHRec$[ebp+8], 38 ; 00000026H
  0083e	50		 push	 eax
  0083f	e8 00 00 00 00	 call	 ??_M@YGXPAXIIP6EX0@Z@Z
; File C:\Program Files\Microsoft Visual Studio\2022\Community\VC\Tools\MSVC\14.44.35207\include\xtree

; 777  :         _Erase_tree(_Al, _Myhead->_Parent);

  00844	8b 85 d4 fe ff
	ff		 mov	 eax, DWORD PTR $T224[ebp]
  0084a	ff 70 04	 push	 DWORD PTR [eax+4]
  0084d	8d 85 d4 fe ff
	ff		 lea	 eax, DWORD PTR $T224[ebp]
  00853	50		 push	 eax
  00854	8b c8		 mov	 ecx, eax
  00856	e8 00 00 00 00	 call	 ??$_Erase_tree@V?$allocator@U?$_Tree_node@U?$pair@$$CBEV?$vector@EV?$allocator@E@std@@@std@@@std@@PAX@std@@@std@@@?$_Tree_val@U?$_Tree_simple_types@U?$pair@$$CBEV?$vector@EV?$allocator@E@std@@@std@@@std@@@std@@@std@@QAEXAAV?$allocator@U?$_Tree_node@U?$pair@$$CBEV?$vector@EV?$allocator@E@std@@@std@@@std@@PAX@std@@@1@PAU?$_Tree_node@U?$pair@$$CBEV?$vector@EV?$allocator@E@std@@@std@@@std@@PAX@1@@Z ; std::_Tree_val<std::_Tree_simple_types<std::pair<unsigned char const ,std::vector<unsigned char,std::allocator<unsigned char> > > > >::_Erase_tree<std::allocator<std::_Tree_node<std::pair<unsigned char const ,std::vector<unsigned char,std::allocator<unsigned char> > >,void *> > >
; File C:\Program Files\Microsoft Visual Studio\2022\Community\VC\Tools\MSVC\14.44.35207\include\xmemory

; 289  :         ::operator delete(_Ptr, _Bytes);

  0085b	6a 20		 push	 32			; 00000020H
  0085d	ff b5 d4 fe ff
	ff		 push	 DWORD PTR $T224[ebp]
  00863	e8 00 00 00 00	 call	 ??3@YAXPAXI@Z		; operator delete
  00868	83 c4 08	 add	 esp, 8
; File C:\Anka2Project\Anka2Project\Source\Binary\source\UserInterface\PythonPlayerSettingsModule.h

; 618  : static const std::map<uint8_t, std::map<uint8_t, std::vector<uint8_t>>> skillIndexes{

  0086b	c6 45 fc 24	 mov	 BYTE PTR __$EHRec$[ebp+8], 36 ; 00000024H
  0086f	8d 85 9c fe ff
	ff		 lea	 eax, DWORD PTR $T186[ebp]
  00875	68 00 00 00 00	 push	 OFFSET ??1?$pair@$$CBEV?$vector@EV?$allocator@E@std@@@std@@@std@@QAE@XZ
  0087a	6a 02		 push	 2
  0087c	6a 10		 push	 16			; 00000010H
  0087e	50		 push	 eax
  0087f	e8 00 00 00 00	 call	 ??_M@YGXPAXIIP6EX0@Z@Z
  00884	c6 45 fc 23	 mov	 BYTE PTR __$EHRec$[ebp+8], 35 ; 00000023H
; File C:\Program Files\Microsoft Visual Studio\2022\Community\VC\Tools\MSVC\14.44.35207\include\vector

; 2090 :         if (_Myfirst) { // destroy and deallocate old array

  00888	8b 95 30 ff ff
	ff		 mov	 edx, DWORD PTR $T203[ebp]
  0088e	85 d2		 test	 edx, edx
  00890	74 4e		 je	 SHORT $LN632@dynamic

; 2093 :             _Al.deallocate(_Myfirst, static_cast<size_type>(_Myend - _Myfirst));

  00892	8b 8d 38 ff ff
	ff		 mov	 ecx, DWORD PTR $T203[ebp+8]
; File C:\Program Files\Microsoft Visual Studio\2022\Community\VC\Tools\MSVC\14.44.35207\include\xmemory

; 985  :         _STD _Deallocate<_New_alignof<_Ty>>(_Ptr, sizeof(_Ty) * _Count);

  00898	8b c2		 mov	 eax, edx
; File C:\Program Files\Microsoft Visual Studio\2022\Community\VC\Tools\MSVC\14.44.35207\include\vector

; 2093 :             _Al.deallocate(_Myfirst, static_cast<size_type>(_Myend - _Myfirst));

  0089a	2b ca		 sub	 ecx, edx
; File C:\Program Files\Microsoft Visual Studio\2022\Community\VC\Tools\MSVC\14.44.35207\include\xmemory

; 284  :         if (_Bytes >= _Big_allocation_threshold) {

  0089c	81 f9 00 10 00
	00		 cmp	 ecx, 4096		; 00001000H
  008a2	72 14		 jb	 SHORT $LN646@dynamic

; 205  :     const uintptr_t _Ptr_container   = _Ptr_user[-1];

  008a4	8b 50 fc	 mov	 edx, DWORD PTR [eax-4]
  008a7	83 c1 23	 add	 ecx, 35			; 00000023H
  008aa	2b c2		 sub	 eax, edx

; 219  :     _STL_VERIFY(_Back_shift >= _Min_back_shift && _Back_shift <= _Non_user_size, "invalid argument");

  008ac	83 c0 fc	 add	 eax, -4			; fffffffcH
  008af	83 f8 1f	 cmp	 eax, 31			; 0000001fH
  008b2	0f 87 6a 03 00
	00		 ja	 $LN950@dynamic
$LN646@dynamic:

; 289  :         ::operator delete(_Ptr, _Bytes);

  008b8	51		 push	 ecx
  008b9	52		 push	 edx
  008ba	e8 00 00 00 00	 call	 ??3@YAXPAXI@Z		; operator delete
  008bf	83 c4 08	 add	 esp, 8
; File C:\Program Files\Microsoft Visual Studio\2022\Community\VC\Tools\MSVC\14.44.35207\include\vector

; 2095 :             _Myfirst = nullptr;

  008c2	c7 85 30 ff ff
	ff 00 00 00 00	 mov	 DWORD PTR $T203[ebp], 0

; 2096 :             _Mylast  = nullptr;

  008cc	c7 85 34 ff ff
	ff 00 00 00 00	 mov	 DWORD PTR $T203[ebp+4], 0

; 2097 :             _Myend   = nullptr;

  008d6	c7 85 38 ff ff
	ff 00 00 00 00	 mov	 DWORD PTR $T203[ebp+8], 0
$LN632@dynamic:
; File C:\Anka2Project\Anka2Project\Source\Binary\source\UserInterface\PythonPlayerSettingsModule.h

; 618  : static const std::map<uint8_t, std::map<uint8_t, std::vector<uint8_t>>> skillIndexes{

  008e0	c6 45 fc 22	 mov	 BYTE PTR __$EHRec$[ebp+8], 34 ; 00000022H
; File C:\Program Files\Microsoft Visual Studio\2022\Community\VC\Tools\MSVC\14.44.35207\include\vector

; 2090 :         if (_Myfirst) { // destroy and deallocate old array

  008e4	8b 8d 24 ff ff
	ff		 mov	 ecx, DWORD PTR $T177[ebp]
  008ea	85 c9		 test	 ecx, ecx
  008ec	74 4e		 je	 SHORT $LN655@dynamic

; 2093 :             _Al.deallocate(_Myfirst, static_cast<size_type>(_Myend - _Myfirst));

  008ee	8b 95 2c ff ff
	ff		 mov	 edx, DWORD PTR $T177[ebp+8]
; File C:\Program Files\Microsoft Visual Studio\2022\Community\VC\Tools\MSVC\14.44.35207\include\xmemory

; 985  :         _STD _Deallocate<_New_alignof<_Ty>>(_Ptr, sizeof(_Ty) * _Count);

  008f4	8b c1		 mov	 eax, ecx
; File C:\Program Files\Microsoft Visual Studio\2022\Community\VC\Tools\MSVC\14.44.35207\include\vector

; 2093 :             _Al.deallocate(_Myfirst, static_cast<size_type>(_Myend - _Myfirst));

  008f6	2b d1		 sub	 edx, ecx
; File C:\Program Files\Microsoft Visual Studio\2022\Community\VC\Tools\MSVC\14.44.35207\include\xmemory

; 284  :         if (_Bytes >= _Big_allocation_threshold) {

  008f8	81 fa 00 10 00
	00		 cmp	 edx, 4096		; 00001000H
  008fe	72 14		 jb	 SHORT $LN669@dynamic

; 205  :     const uintptr_t _Ptr_container   = _Ptr_user[-1];

  00900	8b 48 fc	 mov	 ecx, DWORD PTR [eax-4]
  00903	83 c2 23	 add	 edx, 35			; 00000023H
  00906	2b c1		 sub	 eax, ecx

; 219  :     _STL_VERIFY(_Back_shift >= _Min_back_shift && _Back_shift <= _Non_user_size, "invalid argument");

  00908	83 c0 fc	 add	 eax, -4			; fffffffcH
  0090b	83 f8 1f	 cmp	 eax, 31			; 0000001fH
  0090e	0f 87 0e 03 00
	00		 ja	 $LN950@dynamic
$LN669@dynamic:

; 289  :         ::operator delete(_Ptr, _Bytes);

  00914	52		 push	 edx
  00915	51		 push	 ecx
  00916	e8 00 00 00 00	 call	 ??3@YAXPAXI@Z		; operator delete
  0091b	83 c4 08	 add	 esp, 8
; File C:\Program Files\Microsoft Visual Studio\2022\Community\VC\Tools\MSVC\14.44.35207\include\vector

; 2095 :             _Myfirst = nullptr;

  0091e	c7 85 24 ff ff
	ff 00 00 00 00	 mov	 DWORD PTR $T177[ebp], 0

; 2096 :             _Mylast  = nullptr;

  00928	c7 85 28 ff ff
	ff 00 00 00 00	 mov	 DWORD PTR $T177[ebp+4], 0

; 2097 :             _Myend   = nullptr;

  00932	c7 85 2c ff ff
	ff 00 00 00 00	 mov	 DWORD PTR $T177[ebp+8], 0
$LN655@dynamic:
; File C:\Program Files\Microsoft Visual Studio\2022\Community\VC\Tools\MSVC\14.44.35207\include\xtree

; 777  :         _Erase_tree(_Al, _Myhead->_Parent);

  0093c	8b 85 cc fe ff
	ff		 mov	 eax, DWORD PTR $T168[ebp]
  00942	ff 70 04	 push	 DWORD PTR [eax+4]
  00945	8d 85 cc fe ff
	ff		 lea	 eax, DWORD PTR $T168[ebp]
  0094b	50		 push	 eax
  0094c	8b c8		 mov	 ecx, eax
  0094e	e8 00 00 00 00	 call	 ??$_Erase_tree@V?$allocator@U?$_Tree_node@U?$pair@$$CBEV?$vector@EV?$allocator@E@std@@@std@@@std@@PAX@std@@@std@@@?$_Tree_val@U?$_Tree_simple_types@U?$pair@$$CBEV?$vector@EV?$allocator@E@std@@@std@@@std@@@std@@@std@@QAEXAAV?$allocator@U?$_Tree_node@U?$pair@$$CBEV?$vector@EV?$allocator@E@std@@@std@@@std@@PAX@std@@@1@PAU?$_Tree_node@U?$pair@$$CBEV?$vector@EV?$allocator@E@std@@@std@@@std@@PAX@1@@Z ; std::_Tree_val<std::_Tree_simple_types<std::pair<unsigned char const ,std::vector<unsigned char,std::allocator<unsigned char> > > > >::_Erase_tree<std::allocator<std::_Tree_node<std::pair<unsigned char const ,std::vector<unsigned char,std::allocator<unsigned char> > >,void *> > >
; File C:\Program Files\Microsoft Visual Studio\2022\Community\VC\Tools\MSVC\14.44.35207\include\xmemory

; 289  :         ::operator delete(_Ptr, _Bytes);

  00953	6a 20		 push	 32			; 00000020H
  00955	ff b5 cc fe ff
	ff		 push	 DWORD PTR $T168[ebp]
  0095b	e8 00 00 00 00	 call	 ??3@YAXPAXI@Z		; operator delete
  00960	83 c4 08	 add	 esp, 8
; File C:\Anka2Project\Anka2Project\Source\Binary\source\UserInterface\PythonPlayerSettingsModule.h

; 618  : static const std::map<uint8_t, std::map<uint8_t, std::vector<uint8_t>>> skillIndexes{

  00963	c6 45 fc 20	 mov	 BYTE PTR __$EHRec$[ebp+8], 32 ; 00000020H
  00967	8d 85 7c fe ff
	ff		 lea	 eax, DWORD PTR $T130[ebp]
  0096d	68 00 00 00 00	 push	 OFFSET ??1?$pair@$$CBEV?$vector@EV?$allocator@E@std@@@std@@@std@@QAE@XZ
  00972	6a 02		 push	 2
  00974	6a 10		 push	 16			; 00000010H
  00976	50		 push	 eax
  00977	e8 00 00 00 00	 call	 ??_M@YGXPAXIIP6EX0@Z@Z
  0097c	c6 45 fc 1f	 mov	 BYTE PTR __$EHRec$[ebp+8], 31 ; 0000001fH
; File C:\Program Files\Microsoft Visual Studio\2022\Community\VC\Tools\MSVC\14.44.35207\include\vector

; 2090 :         if (_Myfirst) { // destroy and deallocate old array

  00980	8b 95 18 ff ff
	ff		 mov	 edx, DWORD PTR $T147[ebp]
  00986	85 d2		 test	 edx, edx
  00988	74 4e		 je	 SHORT $LN726@dynamic

; 2093 :             _Al.deallocate(_Myfirst, static_cast<size_type>(_Myend - _Myfirst));

  0098a	8b 8d 20 ff ff
	ff		 mov	 ecx, DWORD PTR $T147[ebp+8]
; File C:\Program Files\Microsoft Visual Studio\2022\Community\VC\Tools\MSVC\14.44.35207\include\xmemory

; 985  :         _STD _Deallocate<_New_alignof<_Ty>>(_Ptr, sizeof(_Ty) * _Count);

  00990	8b c2		 mov	 eax, edx
; File C:\Program Files\Microsoft Visual Studio\2022\Community\VC\Tools\MSVC\14.44.35207\include\vector

; 2093 :             _Al.deallocate(_Myfirst, static_cast<size_type>(_Myend - _Myfirst));

  00992	2b ca		 sub	 ecx, edx
; File C:\Program Files\Microsoft Visual Studio\2022\Community\VC\Tools\MSVC\14.44.35207\include\xmemory

; 284  :         if (_Bytes >= _Big_allocation_threshold) {

  00994	81 f9 00 10 00
	00		 cmp	 ecx, 4096		; 00001000H
  0099a	72 14		 jb	 SHORT $LN740@dynamic

; 205  :     const uintptr_t _Ptr_container   = _Ptr_user[-1];

  0099c	8b 50 fc	 mov	 edx, DWORD PTR [eax-4]
  0099f	83 c1 23	 add	 ecx, 35			; 00000023H
  009a2	2b c2		 sub	 eax, edx

; 219  :     _STL_VERIFY(_Back_shift >= _Min_back_shift && _Back_shift <= _Non_user_size, "invalid argument");

  009a4	83 c0 fc	 add	 eax, -4			; fffffffcH
  009a7	83 f8 1f	 cmp	 eax, 31			; 0000001fH
  009aa	0f 87 72 02 00
	00		 ja	 $LN950@dynamic
$LN740@dynamic:

; 289  :         ::operator delete(_Ptr, _Bytes);

  009b0	51		 push	 ecx
  009b1	52		 push	 edx
  009b2	e8 00 00 00 00	 call	 ??3@YAXPAXI@Z		; operator delete
  009b7	83 c4 08	 add	 esp, 8
; File C:\Program Files\Microsoft Visual Studio\2022\Community\VC\Tools\MSVC\14.44.35207\include\vector

; 2095 :             _Myfirst = nullptr;

  009ba	c7 85 18 ff ff
	ff 00 00 00 00	 mov	 DWORD PTR $T147[ebp], 0

; 2096 :             _Mylast  = nullptr;

  009c4	c7 85 1c ff ff
	ff 00 00 00 00	 mov	 DWORD PTR $T147[ebp+4], 0

; 2097 :             _Myend   = nullptr;

  009ce	c7 85 20 ff ff
	ff 00 00 00 00	 mov	 DWORD PTR $T147[ebp+8], 0
$LN726@dynamic:
; File C:\Anka2Project\Anka2Project\Source\Binary\source\UserInterface\PythonPlayerSettingsModule.h

; 618  : static const std::map<uint8_t, std::map<uint8_t, std::vector<uint8_t>>> skillIndexes{

  009d8	c6 45 fc 1e	 mov	 BYTE PTR __$EHRec$[ebp+8], 30 ; 0000001eH
; File C:\Program Files\Microsoft Visual Studio\2022\Community\VC\Tools\MSVC\14.44.35207\include\vector

; 2090 :         if (_Myfirst) { // destroy and deallocate old array

  009dc	8b 8d 0c ff ff
	ff		 mov	 ecx, DWORD PTR $T121[ebp]
  009e2	85 c9		 test	 ecx, ecx
  009e4	74 4e		 je	 SHORT $LN749@dynamic

; 2093 :             _Al.deallocate(_Myfirst, static_cast<size_type>(_Myend - _Myfirst));

  009e6	8b 95 14 ff ff
	ff		 mov	 edx, DWORD PTR $T121[ebp+8]
; File C:\Program Files\Microsoft Visual Studio\2022\Community\VC\Tools\MSVC\14.44.35207\include\xmemory

; 985  :         _STD _Deallocate<_New_alignof<_Ty>>(_Ptr, sizeof(_Ty) * _Count);

  009ec	8b c1		 mov	 eax, ecx
; File C:\Program Files\Microsoft Visual Studio\2022\Community\VC\Tools\MSVC\14.44.35207\include\vector

; 2093 :             _Al.deallocate(_Myfirst, static_cast<size_type>(_Myend - _Myfirst));

  009ee	2b d1		 sub	 edx, ecx
; File C:\Program Files\Microsoft Visual Studio\2022\Community\VC\Tools\MSVC\14.44.35207\include\xmemory

; 284  :         if (_Bytes >= _Big_allocation_threshold) {

  009f0	81 fa 00 10 00
	00		 cmp	 edx, 4096		; 00001000H
  009f6	72 14		 jb	 SHORT $LN763@dynamic

; 205  :     const uintptr_t _Ptr_container   = _Ptr_user[-1];

  009f8	8b 48 fc	 mov	 ecx, DWORD PTR [eax-4]
  009fb	83 c2 23	 add	 edx, 35			; 00000023H
  009fe	2b c1		 sub	 eax, ecx

; 219  :     _STL_VERIFY(_Back_shift >= _Min_back_shift && _Back_shift <= _Non_user_size, "invalid argument");

  00a00	83 c0 fc	 add	 eax, -4			; fffffffcH
  00a03	83 f8 1f	 cmp	 eax, 31			; 0000001fH
  00a06	0f 87 16 02 00
	00		 ja	 $LN950@dynamic
$LN763@dynamic:

; 289  :         ::operator delete(_Ptr, _Bytes);

  00a0c	52		 push	 edx
  00a0d	51		 push	 ecx
  00a0e	e8 00 00 00 00	 call	 ??3@YAXPAXI@Z		; operator delete
  00a13	83 c4 08	 add	 esp, 8
; File C:\Program Files\Microsoft Visual Studio\2022\Community\VC\Tools\MSVC\14.44.35207\include\vector

; 2095 :             _Myfirst = nullptr;

  00a16	c7 85 0c ff ff
	ff 00 00 00 00	 mov	 DWORD PTR $T121[ebp], 0

; 2096 :             _Mylast  = nullptr;

  00a20	c7 85 10 ff ff
	ff 00 00 00 00	 mov	 DWORD PTR $T121[ebp+4], 0

; 2097 :             _Myend   = nullptr;

  00a2a	c7 85 14 ff ff
	ff 00 00 00 00	 mov	 DWORD PTR $T121[ebp+8], 0
$LN749@dynamic:
; File C:\Program Files\Microsoft Visual Studio\2022\Community\VC\Tools\MSVC\14.44.35207\include\xtree

; 777  :         _Erase_tree(_Al, _Myhead->_Parent);

  00a34	8b 85 c4 fe ff
	ff		 mov	 eax, DWORD PTR $T112[ebp]
  00a3a	ff 70 04	 push	 DWORD PTR [eax+4]
  00a3d	8d 85 c4 fe ff
	ff		 lea	 eax, DWORD PTR $T112[ebp]
  00a43	50		 push	 eax
  00a44	8b c8		 mov	 ecx, eax
  00a46	e8 00 00 00 00	 call	 ??$_Erase_tree@V?$allocator@U?$_Tree_node@U?$pair@$$CBEV?$vector@EV?$allocator@E@std@@@std@@@std@@PAX@std@@@std@@@?$_Tree_val@U?$_Tree_simple_types@U?$pair@$$CBEV?$vector@EV?$allocator@E@std@@@std@@@std@@@std@@@std@@QAEXAAV?$allocator@U?$_Tree_node@U?$pair@$$CBEV?$vector@EV?$allocator@E@std@@@std@@@std@@PAX@std@@@1@PAU?$_Tree_node@U?$pair@$$CBEV?$vector@EV?$allocator@E@std@@@std@@@std@@PAX@1@@Z ; std::_Tree_val<std::_Tree_simple_types<std::pair<unsigned char const ,std::vector<unsigned char,std::allocator<unsigned char> > > > >::_Erase_tree<std::allocator<std::_Tree_node<std::pair<unsigned char const ,std::vector<unsigned char,std::allocator<unsigned char> > >,void *> > >
; File C:\Program Files\Microsoft Visual Studio\2022\Community\VC\Tools\MSVC\14.44.35207\include\xmemory

; 289  :         ::operator delete(_Ptr, _Bytes);

  00a4b	6a 20		 push	 32			; 00000020H
  00a4d	ff b5 c4 fe ff
	ff		 push	 DWORD PTR $T112[ebp]
  00a53	e8 00 00 00 00	 call	 ??3@YAXPAXI@Z		; operator delete
  00a58	83 c4 08	 add	 esp, 8
; File C:\Anka2Project\Anka2Project\Source\Binary\source\UserInterface\PythonPlayerSettingsModule.h

; 618  : static const std::map<uint8_t, std::map<uint8_t, std::vector<uint8_t>>> skillIndexes{

  00a5b	c6 45 fc 1c	 mov	 BYTE PTR __$EHRec$[ebp+8], 28 ; 0000001cH
  00a5f	8d 85 5c fe ff
	ff		 lea	 eax, DWORD PTR $T74[ebp]
  00a65	68 00 00 00 00	 push	 OFFSET ??1?$pair@$$CBEV?$vector@EV?$allocator@E@std@@@std@@@std@@QAE@XZ
  00a6a	6a 02		 push	 2
  00a6c	6a 10		 push	 16			; 00000010H
  00a6e	50		 push	 eax
  00a6f	e8 00 00 00 00	 call	 ??_M@YGXPAXIIP6EX0@Z@Z
  00a74	c6 45 fc 1b	 mov	 BYTE PTR __$EHRec$[ebp+8], 27 ; 0000001bH
; File C:\Program Files\Microsoft Visual Studio\2022\Community\VC\Tools\MSVC\14.44.35207\include\vector

; 2090 :         if (_Myfirst) { // destroy and deallocate old array

  00a78	8b 95 00 ff ff
	ff		 mov	 edx, DWORD PTR $T91[ebp]
  00a7e	85 d2		 test	 edx, edx
  00a80	74 4e		 je	 SHORT $LN820@dynamic

; 2093 :             _Al.deallocate(_Myfirst, static_cast<size_type>(_Myend - _Myfirst));

  00a82	8b 8d 08 ff ff
	ff		 mov	 ecx, DWORD PTR $T91[ebp+8]
; File C:\Program Files\Microsoft Visual Studio\2022\Community\VC\Tools\MSVC\14.44.35207\include\xmemory

; 985  :         _STD _Deallocate<_New_alignof<_Ty>>(_Ptr, sizeof(_Ty) * _Count);

  00a88	8b c2		 mov	 eax, edx
; File C:\Program Files\Microsoft Visual Studio\2022\Community\VC\Tools\MSVC\14.44.35207\include\vector

; 2093 :             _Al.deallocate(_Myfirst, static_cast<size_type>(_Myend - _Myfirst));

  00a8a	2b ca		 sub	 ecx, edx
; File C:\Program Files\Microsoft Visual Studio\2022\Community\VC\Tools\MSVC\14.44.35207\include\xmemory

; 284  :         if (_Bytes >= _Big_allocation_threshold) {

  00a8c	81 f9 00 10 00
	00		 cmp	 ecx, 4096		; 00001000H
  00a92	72 14		 jb	 SHORT $LN834@dynamic

; 205  :     const uintptr_t _Ptr_container   = _Ptr_user[-1];

  00a94	8b 50 fc	 mov	 edx, DWORD PTR [eax-4]
  00a97	83 c1 23	 add	 ecx, 35			; 00000023H
  00a9a	2b c2		 sub	 eax, edx

; 219  :     _STL_VERIFY(_Back_shift >= _Min_back_shift && _Back_shift <= _Non_user_size, "invalid argument");

  00a9c	83 c0 fc	 add	 eax, -4			; fffffffcH
  00a9f	83 f8 1f	 cmp	 eax, 31			; 0000001fH
  00aa2	0f 87 7a 01 00
	00		 ja	 $LN950@dynamic
$LN834@dynamic:

; 289  :         ::operator delete(_Ptr, _Bytes);

  00aa8	51		 push	 ecx
  00aa9	52		 push	 edx
  00aaa	e8 00 00 00 00	 call	 ??3@YAXPAXI@Z		; operator delete
  00aaf	83 c4 08	 add	 esp, 8
; File C:\Program Files\Microsoft Visual Studio\2022\Community\VC\Tools\MSVC\14.44.35207\include\vector

; 2095 :             _Myfirst = nullptr;

  00ab2	c7 85 00 ff ff
	ff 00 00 00 00	 mov	 DWORD PTR $T91[ebp], 0

; 2096 :             _Mylast  = nullptr;

  00abc	c7 85 04 ff ff
	ff 00 00 00 00	 mov	 DWORD PTR $T91[ebp+4], 0

; 2097 :             _Myend   = nullptr;

  00ac6	c7 85 08 ff ff
	ff 00 00 00 00	 mov	 DWORD PTR $T91[ebp+8], 0
$LN820@dynamic:
; File C:\Anka2Project\Anka2Project\Source\Binary\source\UserInterface\PythonPlayerSettingsModule.h

; 618  : static const std::map<uint8_t, std::map<uint8_t, std::vector<uint8_t>>> skillIndexes{

  00ad0	c6 45 fc 05	 mov	 BYTE PTR __$EHRec$[ebp+8], 5
; File C:\Program Files\Microsoft Visual Studio\2022\Community\VC\Tools\MSVC\14.44.35207\include\vector

; 2090 :         if (_Myfirst) { // destroy and deallocate old array

  00ad4	8b 8d f4 fe ff
	ff		 mov	 ecx, DWORD PTR $T65[ebp]
  00ada	85 c9		 test	 ecx, ecx
  00adc	74 4e		 je	 SHORT $LN843@dynamic

; 2093 :             _Al.deallocate(_Myfirst, static_cast<size_type>(_Myend - _Myfirst));

  00ade	8b 95 fc fe ff
	ff		 mov	 edx, DWORD PTR $T65[ebp+8]
; File C:\Program Files\Microsoft Visual Studio\2022\Community\VC\Tools\MSVC\14.44.35207\include\xmemory

; 985  :         _STD _Deallocate<_New_alignof<_Ty>>(_Ptr, sizeof(_Ty) * _Count);

  00ae4	8b c1		 mov	 eax, ecx
; File C:\Program Files\Microsoft Visual Studio\2022\Community\VC\Tools\MSVC\14.44.35207\include\vector

; 2093 :             _Al.deallocate(_Myfirst, static_cast<size_type>(_Myend - _Myfirst));

  00ae6	2b d1		 sub	 edx, ecx
; File C:\Program Files\Microsoft Visual Studio\2022\Community\VC\Tools\MSVC\14.44.35207\include\xmemory

; 284  :         if (_Bytes >= _Big_allocation_threshold) {

  00ae8	81 fa 00 10 00
	00		 cmp	 edx, 4096		; 00001000H
  00aee	72 14		 jb	 SHORT $LN857@dynamic

; 205  :     const uintptr_t _Ptr_container   = _Ptr_user[-1];

  00af0	8b 48 fc	 mov	 ecx, DWORD PTR [eax-4]
  00af3	83 c2 23	 add	 edx, 35			; 00000023H
  00af6	2b c1		 sub	 eax, ecx

; 219  :     _STL_VERIFY(_Back_shift >= _Min_back_shift && _Back_shift <= _Non_user_size, "invalid argument");

  00af8	83 c0 fc	 add	 eax, -4			; fffffffcH
  00afb	83 f8 1f	 cmp	 eax, 31			; 0000001fH
  00afe	0f 87 1e 01 00
	00		 ja	 $LN950@dynamic
$LN857@dynamic:

; 289  :         ::operator delete(_Ptr, _Bytes);

  00b04	52		 push	 edx
  00b05	51		 push	 ecx
  00b06	e8 00 00 00 00	 call	 ??3@YAXPAXI@Z		; operator delete
  00b0b	83 c4 08	 add	 esp, 8
; File C:\Program Files\Microsoft Visual Studio\2022\Community\VC\Tools\MSVC\14.44.35207\include\vector

; 2095 :             _Myfirst = nullptr;

  00b0e	c7 85 f4 fe ff
	ff 00 00 00 00	 mov	 DWORD PTR $T65[ebp], 0

; 2096 :             _Mylast  = nullptr;

  00b18	c7 85 f8 fe ff
	ff 00 00 00 00	 mov	 DWORD PTR $T65[ebp+4], 0

; 2097 :             _Myend   = nullptr;

  00b22	c7 85 fc fe ff
	ff 00 00 00 00	 mov	 DWORD PTR $T65[ebp+8], 0
$LN843@dynamic:
; File C:\Program Files\Microsoft Visual Studio\2022\Community\VC\Tools\MSVC\14.44.35207\include\xtree

; 777  :         _Erase_tree(_Al, _Myhead->_Parent);

  00b2c	8b 85 bc fe ff
	ff		 mov	 eax, DWORD PTR $T55[ebp]
  00b32	ff 70 04	 push	 DWORD PTR [eax+4]
  00b35	8d 85 bc fe ff
	ff		 lea	 eax, DWORD PTR $T55[ebp]
  00b3b	50		 push	 eax
  00b3c	8b c8		 mov	 ecx, eax
  00b3e	e8 00 00 00 00	 call	 ??$_Erase_tree@V?$allocator@U?$_Tree_node@U?$pair@$$CBEV?$vector@EV?$allocator@E@std@@@std@@@std@@PAX@std@@@std@@@?$_Tree_val@U?$_Tree_simple_types@U?$pair@$$CBEV?$vector@EV?$allocator@E@std@@@std@@@std@@@std@@@std@@QAEXAAV?$allocator@U?$_Tree_node@U?$pair@$$CBEV?$vector@EV?$allocator@E@std@@@std@@@std@@PAX@std@@@1@PAU?$_Tree_node@U?$pair@$$CBEV?$vector@EV?$allocator@E@std@@@std@@@std@@PAX@1@@Z ; std::_Tree_val<std::_Tree_simple_types<std::pair<unsigned char const ,std::vector<unsigned char,std::allocator<unsigned char> > > > >::_Erase_tree<std::allocator<std::_Tree_node<std::pair<unsigned char const ,std::vector<unsigned char,std::allocator<unsigned char> > >,void *> > >
; File C:\Program Files\Microsoft Visual Studio\2022\Community\VC\Tools\MSVC\14.44.35207\include\xmemory

; 289  :         ::operator delete(_Ptr, _Bytes);

  00b43	6a 20		 push	 32			; 00000020H
  00b45	ff b5 bc fe ff
	ff		 push	 DWORD PTR $T55[ebp]
  00b4b	e8 00 00 00 00	 call	 ??3@YAXPAXI@Z		; operator delete
  00b50	83 c4 08	 add	 esp, 8
; File C:\Anka2Project\Anka2Project\Source\Binary\source\UserInterface\PythonPlayerSettingsModule.h

; 618  : static const std::map<uint8_t, std::map<uint8_t, std::vector<uint8_t>>> skillIndexes{

  00b53	c6 45 fc 03	 mov	 BYTE PTR __$EHRec$[ebp+8], 3
  00b57	8d 85 3c fe ff
	ff		 lea	 eax, DWORD PTR $T17[ebp]
  00b5d	68 00 00 00 00	 push	 OFFSET ??1?$pair@$$CBEV?$vector@EV?$allocator@E@std@@@std@@@std@@QAE@XZ
  00b62	6a 02		 push	 2
  00b64	6a 10		 push	 16			; 00000010H
  00b66	50		 push	 eax
  00b67	e8 00 00 00 00	 call	 ??_M@YGXPAXIIP6EX0@Z@Z
; File C:\Program Files\Microsoft Visual Studio\2022\Community\VC\Tools\MSVC\14.44.35207\include\vector

; 2090 :         if (_Myfirst) { // destroy and deallocate old array

  00b6c	8b 95 e8 fe ff
	ff		 mov	 edx, DWORD PTR $T34[ebp]
  00b72	85 d2		 test	 edx, edx
  00b74	74 4e		 je	 SHORT $LN914@dynamic

; 2093 :             _Al.deallocate(_Myfirst, static_cast<size_type>(_Myend - _Myfirst));

  00b76	8b 8d f0 fe ff
	ff		 mov	 ecx, DWORD PTR $T34[ebp+8]
; File C:\Program Files\Microsoft Visual Studio\2022\Community\VC\Tools\MSVC\14.44.35207\include\xmemory

; 985  :         _STD _Deallocate<_New_alignof<_Ty>>(_Ptr, sizeof(_Ty) * _Count);

  00b7c	8b c2		 mov	 eax, edx
; File C:\Program Files\Microsoft Visual Studio\2022\Community\VC\Tools\MSVC\14.44.35207\include\vector

; 2093 :             _Al.deallocate(_Myfirst, static_cast<size_type>(_Myend - _Myfirst));

  00b7e	2b ca		 sub	 ecx, edx
; File C:\Program Files\Microsoft Visual Studio\2022\Community\VC\Tools\MSVC\14.44.35207\include\xmemory

; 284  :         if (_Bytes >= _Big_allocation_threshold) {

  00b80	81 f9 00 10 00
	00		 cmp	 ecx, 4096		; 00001000H
  00b86	72 14		 jb	 SHORT $LN928@dynamic

; 205  :     const uintptr_t _Ptr_container   = _Ptr_user[-1];

  00b88	8b 50 fc	 mov	 edx, DWORD PTR [eax-4]
  00b8b	83 c1 23	 add	 ecx, 35			; 00000023H
  00b8e	2b c2		 sub	 eax, edx

; 219  :     _STL_VERIFY(_Back_shift >= _Min_back_shift && _Back_shift <= _Non_user_size, "invalid argument");

  00b90	83 c0 fc	 add	 eax, -4			; fffffffcH
  00b93	83 f8 1f	 cmp	 eax, 31			; 0000001fH
  00b96	0f 87 86 00 00
	00		 ja	 $LN950@dynamic
$LN928@dynamic:

; 289  :         ::operator delete(_Ptr, _Bytes);

  00b9c	51		 push	 ecx
  00b9d	52		 push	 edx
  00b9e	e8 00 00 00 00	 call	 ??3@YAXPAXI@Z		; operator delete
  00ba3	83 c4 08	 add	 esp, 8
; File C:\Program Files\Microsoft Visual Studio\2022\Community\VC\Tools\MSVC\14.44.35207\include\vector

; 2095 :             _Myfirst = nullptr;

  00ba6	c7 85 e8 fe ff
	ff 00 00 00 00	 mov	 DWORD PTR $T34[ebp], 0

; 2096 :             _Mylast  = nullptr;

  00bb0	c7 85 ec fe ff
	ff 00 00 00 00	 mov	 DWORD PTR $T34[ebp+4], 0

; 2097 :             _Myend   = nullptr;

  00bba	c7 85 f0 fe ff
	ff 00 00 00 00	 mov	 DWORD PTR $T34[ebp+8], 0
$LN914@dynamic:

; 2090 :         if (_Myfirst) { // destroy and deallocate old array

  00bc4	8b 8d dc fe ff
	ff		 mov	 ecx, DWORD PTR $T8[ebp]
  00bca	85 c9		 test	 ecx, ecx
  00bcc	74 2c		 je	 SHORT $LN943@dynamic

; 2093 :             _Al.deallocate(_Myfirst, static_cast<size_type>(_Myend - _Myfirst));

  00bce	8b 95 e4 fe ff
	ff		 mov	 edx, DWORD PTR $T8[ebp+8]
; File C:\Program Files\Microsoft Visual Studio\2022\Community\VC\Tools\MSVC\14.44.35207\include\xmemory

; 985  :         _STD _Deallocate<_New_alignof<_Ty>>(_Ptr, sizeof(_Ty) * _Count);

  00bd4	8b c1		 mov	 eax, ecx
; File C:\Program Files\Microsoft Visual Studio\2022\Community\VC\Tools\MSVC\14.44.35207\include\vector

; 2093 :             _Al.deallocate(_Myfirst, static_cast<size_type>(_Myend - _Myfirst));

  00bd6	2b d1		 sub	 edx, ecx
; File C:\Program Files\Microsoft Visual Studio\2022\Community\VC\Tools\MSVC\14.44.35207\include\xmemory

; 284  :         if (_Bytes >= _Big_allocation_threshold) {

  00bd8	81 fa 00 10 00
	00		 cmp	 edx, 4096		; 00001000H
  00bde	72 10		 jb	 SHORT $LN951@dynamic

; 205  :     const uintptr_t _Ptr_container   = _Ptr_user[-1];

  00be0	8b 48 fc	 mov	 ecx, DWORD PTR [eax-4]
  00be3	83 c2 23	 add	 edx, 35			; 00000023H
  00be6	2b c1		 sub	 eax, ecx

; 219  :     _STL_VERIFY(_Back_shift >= _Min_back_shift && _Back_shift <= _Non_user_size, "invalid argument");

  00be8	83 c0 fc	 add	 eax, -4			; fffffffcH
  00beb	83 f8 1f	 cmp	 eax, 31			; 0000001fH
  00bee	77 32		 ja	 SHORT $LN950@dynamic
$LN951@dynamic:

; 289  :         ::operator delete(_Ptr, _Bytes);

  00bf0	52		 push	 edx
  00bf1	51		 push	 ecx
  00bf2	e8 00 00 00 00	 call	 ??3@YAXPAXI@Z		; operator delete
  00bf7	83 c4 08	 add	 esp, 8
$LN943@dynamic:
; File C:\Anka2Project\Anka2Project\Source\Binary\source\UserInterface\PythonPlayerSettingsModule.h

; 618  : static const std::map<uint8_t, std::map<uint8_t, std::vector<uint8_t>>> skillIndexes{

  00bfa	68 00 00 00 00	 push	 OFFSET ??__FskillIndexes@@YAXXZ ; `dynamic atexit destructor for 'skillIndexes''
  00bff	e8 00 00 00 00	 call	 _atexit
  00c04	83 c4 04	 add	 esp, 4
  00c07	8b 4d f4	 mov	 ecx, DWORD PTR __$EHRec$[ebp]
  00c0a	64 89 0d 00 00
	00 00		 mov	 DWORD PTR fs:0, ecx
  00c11	59		 pop	 ecx
  00c12	5f		 pop	 edi
  00c13	5e		 pop	 esi
  00c14	8b 4d f0	 mov	 ecx, DWORD PTR __$ArrayPad$[ebp]
  00c17	33 cd		 xor	 ecx, ebp
  00c19	e8 00 00 00 00	 call	 @__security_check_cookie@4
  00c1e	8b e5		 mov	 esp, ebp
  00c20	5d		 pop	 ebp
  00c21	c3		 ret	 0
$LN950@dynamic:
; File C:\Program Files\Microsoft Visual Studio\2022\Community\VC\Tools\MSVC\14.44.35207\include\xmemory

; 219  :     _STL_VERIFY(_Back_shift >= _Min_back_shift && _Back_shift <= _Non_user_size, "invalid argument");

  00c22	6a 00		 push	 0
  00c24	6a 00		 push	 0
  00c26	6a 00		 push	 0
  00c28	6a 00		 push	 0
  00c2a	6a 00		 push	 0
  00c2c	e8 00 00 00 00	 call	 __invoke_watson
$LN1021@dynamic:
  00c31	cc		 int	 3
text$di	ENDS
;	COMDAT text$x
text$x	SEGMENT
__unwindfunclet$??__EskillIndexes@@YAXXZ$0:
  00000	8d 8d dc fe ff
	ff		 lea	 ecx, DWORD PTR $T8[ebp]
  00006	e9 00 00 00 00	 jmp	 ??1?$vector@EV?$allocator@E@std@@@std@@QAE@XZ ; std::vector<unsigned char,std::allocator<unsigned char> >::~vector<unsigned char,std::allocator<unsigned char> >
__unwindfunclet$??__EskillIndexes@@YAXXZ$1:
  0000b	8d 8d 3c fe ff
	ff		 lea	 ecx, DWORD PTR $T17[ebp]
  00011	e9 00 00 00 00	 jmp	 ??1?$pair@$$CBEV?$vector@EV?$allocator@E@std@@@std@@@std@@QAE@XZ
__unwindfunclet$??__EskillIndexes@@YAXXZ$2:
  00016	8d 8d e8 fe ff
	ff		 lea	 ecx, DWORD PTR $T34[ebp]
  0001c	e9 00 00 00 00	 jmp	 ??1?$vector@EV?$allocator@E@std@@@std@@QAE@XZ ; std::vector<unsigned char,std::allocator<unsigned char> >::~vector<unsigned char,std::allocator<unsigned char> >
__unwindfunclet$??__EskillIndexes@@YAXXZ$4:
  00021	68 00 00 00 00	 push	 OFFSET ??1?$pair@$$CBEV?$vector@EV?$allocator@E@std@@@std@@@std@@QAE@XZ
  00026	6a 02		 push	 2
  00028	6a 10		 push	 16			; 00000010H
  0002a	8d 85 3c fe ff
	ff		 lea	 eax, DWORD PTR $T17[ebp]
  00030	50		 push	 eax
  00031	e8 00 00 00 00	 call	 ??_M@YGXPAXIIP6EX0@Z@Z
  00036	c3		 ret	 0
__unwindfunclet$??__EskillIndexes@@YAXXZ$5:
  00037	8d 8d bc fe ff
	ff		 lea	 ecx, DWORD PTR $T55[ebp]
  0003d	e9 00 00 00 00	 jmp	 ??1?$map@EV?$vector@EV?$allocator@E@std@@@std@@U?$less@E@2@V?$allocator@U?$pair@$$CBEV?$vector@EV?$allocator@E@std@@@std@@@std@@@2@@std@@QAE@XZ
__unwindfunclet$??__EskillIndexes@@YAXXZ$6:
  00042	8d 8d 40 ff ff
	ff		 lea	 ecx, DWORD PTR $T56[ebp]
  00048	e9 00 00 00 00	 jmp	 ??1?$pair@$$CBEV?$map@EV?$vector@EV?$allocator@E@std@@@std@@U?$less@E@2@V?$allocator@U?$pair@$$CBEV?$vector@EV?$allocator@E@std@@@std@@@std@@@2@@std@@@std@@QAE@XZ
__unwindfunclet$??__EskillIndexes@@YAXXZ$7:
  0004d	8d 8d f4 fe ff
	ff		 lea	 ecx, DWORD PTR $T65[ebp]
  00053	e9 00 00 00 00	 jmp	 ??1?$vector@EV?$allocator@E@std@@@std@@QAE@XZ ; std::vector<unsigned char,std::allocator<unsigned char> >::~vector<unsigned char,std::allocator<unsigned char> >
__unwindfunclet$??__EskillIndexes@@YAXXZ$8:
  00058	8d 8d 5c fe ff
	ff		 lea	 ecx, DWORD PTR $T74[ebp]
  0005e	e9 00 00 00 00	 jmp	 ??1?$pair@$$CBEV?$vector@EV?$allocator@E@std@@@std@@@std@@QAE@XZ
__unwindfunclet$??__EskillIndexes@@YAXXZ$9:
  00063	8d 8d 00 ff ff
	ff		 lea	 ecx, DWORD PTR $T91[ebp]
  00069	e9 00 00 00 00	 jmp	 ??1?$vector@EV?$allocator@E@std@@@std@@QAE@XZ ; std::vector<unsigned char,std::allocator<unsigned char> >::~vector<unsigned char,std::allocator<unsigned char> >
__unwindfunclet$??__EskillIndexes@@YAXXZ$11:
  0006e	68 00 00 00 00	 push	 OFFSET ??1?$pair@$$CBEV?$vector@EV?$allocator@E@std@@@std@@@std@@QAE@XZ
  00073	6a 02		 push	 2
  00075	6a 10		 push	 16			; 00000010H
  00077	8d 85 5c fe ff
	ff		 lea	 eax, DWORD PTR $T74[ebp]
  0007d	50		 push	 eax
  0007e	e8 00 00 00 00	 call	 ??_M@YGXPAXIIP6EX0@Z@Z
  00083	c3		 ret	 0
__unwindfunclet$??__EskillIndexes@@YAXXZ$12:
  00084	8d 8d c4 fe ff
	ff		 lea	 ecx, DWORD PTR $T112[ebp]
  0008a	e9 00 00 00 00	 jmp	 ??1?$map@EV?$vector@EV?$allocator@E@std@@@std@@U?$less@E@2@V?$allocator@U?$pair@$$CBEV?$vector@EV?$allocator@E@std@@@std@@@std@@@2@@std@@QAE@XZ
__unwindfunclet$??__EskillIndexes@@YAXXZ$13:
  0008f	8d 8d 4c ff ff
	ff		 lea	 ecx, DWORD PTR $T56[ebp+12]
  00095	e9 00 00 00 00	 jmp	 ??1?$pair@$$CBEV?$map@EV?$vector@EV?$allocator@E@std@@@std@@U?$less@E@2@V?$allocator@U?$pair@$$CBEV?$vector@EV?$allocator@E@std@@@std@@@std@@@2@@std@@@std@@QAE@XZ
__unwindfunclet$??__EskillIndexes@@YAXXZ$14:
  0009a	8d 8d 0c ff ff
	ff		 lea	 ecx, DWORD PTR $T121[ebp]
  000a0	e9 00 00 00 00	 jmp	 ??1?$vector@EV?$allocator@E@std@@@std@@QAE@XZ ; std::vector<unsigned char,std::allocator<unsigned char> >::~vector<unsigned char,std::allocator<unsigned char> >
__unwindfunclet$??__EskillIndexes@@YAXXZ$15:
  000a5	8d 8d 7c fe ff
	ff		 lea	 ecx, DWORD PTR $T130[ebp]
  000ab	e9 00 00 00 00	 jmp	 ??1?$pair@$$CBEV?$vector@EV?$allocator@E@std@@@std@@@std@@QAE@XZ
__unwindfunclet$??__EskillIndexes@@YAXXZ$16:
  000b0	8d 8d 18 ff ff
	ff		 lea	 ecx, DWORD PTR $T147[ebp]
  000b6	e9 00 00 00 00	 jmp	 ??1?$vector@EV?$allocator@E@std@@@std@@QAE@XZ ; std::vector<unsigned char,std::allocator<unsigned char> >::~vector<unsigned char,std::allocator<unsigned char> >
__unwindfunclet$??__EskillIndexes@@YAXXZ$18:
  000bb	68 00 00 00 00	 push	 OFFSET ??1?$pair@$$CBEV?$vector@EV?$allocator@E@std@@@std@@@std@@QAE@XZ
  000c0	6a 02		 push	 2
  000c2	6a 10		 push	 16			; 00000010H
  000c4	8d 85 7c fe ff
	ff		 lea	 eax, DWORD PTR $T130[ebp]
  000ca	50		 push	 eax
  000cb	e8 00 00 00 00	 call	 ??_M@YGXPAXIIP6EX0@Z@Z
  000d0	c3		 ret	 0
__unwindfunclet$??__EskillIndexes@@YAXXZ$19:
  000d1	8d 8d cc fe ff
	ff		 lea	 ecx, DWORD PTR $T168[ebp]
  000d7	e9 00 00 00 00	 jmp	 ??1?$map@EV?$vector@EV?$allocator@E@std@@@std@@U?$less@E@2@V?$allocator@U?$pair@$$CBEV?$vector@EV?$allocator@E@std@@@std@@@std@@@2@@std@@QAE@XZ
__unwindfunclet$??__EskillIndexes@@YAXXZ$20:
  000dc	8d 8d 58 ff ff
	ff		 lea	 ecx, DWORD PTR $T56[ebp+24]
  000e2	e9 00 00 00 00	 jmp	 ??1?$pair@$$CBEV?$map@EV?$vector@EV?$allocator@E@std@@@std@@U?$less@E@2@V?$allocator@U?$pair@$$CBEV?$vector@EV?$allocator@E@std@@@std@@@std@@@2@@std@@@std@@QAE@XZ
__unwindfunclet$??__EskillIndexes@@YAXXZ$21:
  000e7	8d 8d 24 ff ff
	ff		 lea	 ecx, DWORD PTR $T177[ebp]
  000ed	e9 00 00 00 00	 jmp	 ??1?$vector@EV?$allocator@E@std@@@std@@QAE@XZ ; std::vector<unsigned char,std::allocator<unsigned char> >::~vector<unsigned char,std::allocator<unsigned char> >
__unwindfunclet$??__EskillIndexes@@YAXXZ$22:
  000f2	8d 8d 9c fe ff
	ff		 lea	 ecx, DWORD PTR $T186[ebp]
  000f8	e9 00 00 00 00	 jmp	 ??1?$pair@$$CBEV?$vector@EV?$allocator@E@std@@@std@@@std@@QAE@XZ
__unwindfunclet$??__EskillIndexes@@YAXXZ$23:
  000fd	8d 8d 30 ff ff
	ff		 lea	 ecx, DWORD PTR $T203[ebp]
  00103	e9 00 00 00 00	 jmp	 ??1?$vector@EV?$allocator@E@std@@@std@@QAE@XZ ; std::vector<unsigned char,std::allocator<unsigned char> >::~vector<unsigned char,std::allocator<unsigned char> >
__unwindfunclet$??__EskillIndexes@@YAXXZ$25:
  00108	68 00 00 00 00	 push	 OFFSET ??1?$pair@$$CBEV?$vector@EV?$allocator@E@std@@@std@@@std@@QAE@XZ
  0010d	6a 02		 push	 2
  0010f	6a 10		 push	 16			; 00000010H
  00111	8d 85 9c fe ff
	ff		 lea	 eax, DWORD PTR $T186[ebp]
  00117	50		 push	 eax
  00118	e8 00 00 00 00	 call	 ??_M@YGXPAXIIP6EX0@Z@Z
  0011d	c3		 ret	 0
__unwindfunclet$??__EskillIndexes@@YAXXZ$26:
  0011e	8d 8d d4 fe ff
	ff		 lea	 ecx, DWORD PTR $T224[ebp]
  00124	e9 00 00 00 00	 jmp	 ??1?$map@EV?$vector@EV?$allocator@E@std@@@std@@U?$less@E@2@V?$allocator@U?$pair@$$CBEV?$vector@EV?$allocator@E@std@@@std@@@std@@@2@@std@@QAE@XZ
__unwindfunclet$??__EskillIndexes@@YAXXZ$28:
  00129	68 00 00 00 00	 push	 OFFSET ??1?$pair@$$CBEV?$map@EV?$vector@EV?$allocator@E@std@@@std@@U?$less@E@2@V?$allocator@U?$pair@$$CBEV?$vector@EV?$allocator@E@std@@@std@@@std@@@2@@std@@@std@@QAE@XZ
  0012e	6a 04		 push	 4
  00130	6a 0c		 push	 12			; 0000000cH
  00132	8d 85 40 ff ff
	ff		 lea	 eax, DWORD PTR $T56[ebp]
  00138	50		 push	 eax
  00139	e8 00 00 00 00	 call	 ??_M@YGXPAXIIP6EX0@Z@Z
  0013e	c3		 ret	 0
  0013f	cc		 int	 3
  00140	cc		 int	 3
  00141	cc		 int	 3
  00142	cc		 int	 3
  00143	cc		 int	 3
__ehhandler$??__EskillIndexes@@YAXXZ:
  00144	90		 npad	 1
  00145	90		 npad	 1
  00146	8b 54 24 08	 mov	 edx, DWORD PTR [esp+8]
  0014a	8d 42 0c	 lea	 eax, DWORD PTR [edx+12]
  0014d	8b 8a 3c fe ff
	ff		 mov	 ecx, DWORD PTR [edx-452]
  00153	33 c8		 xor	 ecx, eax
  00155	e8 00 00 00 00	 call	 @__security_check_cookie@4
  0015a	8b 4a fc	 mov	 ecx, DWORD PTR [edx-4]
  0015d	33 c8		 xor	 ecx, eax
  0015f	e8 00 00 00 00	 call	 @__security_check_cookie@4
  00164	b8 00 00 00 00	 mov	 eax, OFFSET __ehfuncinfo$??__EskillIndexes@@YAXXZ
  00169	e9 00 00 00 00	 jmp	 ___CxxFrameHandler3
text$x	ENDS
??__EskillIndexes@@YAXXZ ENDP				; `dynamic initializer for 'skillIndexes''
; Function compile flags: /Ogtp
; File C:\Program Files\Microsoft Visual Studio\2022\Community\VC\Tools\MSVC\14.44.35207\include\xtree
; File C:\Program Files\Microsoft Visual Studio\2022\Community\VC\Tools\MSVC\14.44.35207\include\xmemory
;	COMDAT ??__FskillIndexes@@YAXXZ
text$yd	SEGMENT
??__FskillIndexes@@YAXXZ PROC				; `dynamic atexit destructor for 'skillIndexes'', COMDAT
; File C:\Program Files\Microsoft Visual Studio\2022\Community\VC\Tools\MSVC\14.44.35207\include\xtree

; 777  :         _Erase_tree(_Al, _Myhead->_Parent);

  00000	a1 00 00 00 00	 mov	 eax, DWORD PTR ?skillIndexes@@3V?$map@EV?$map@EV?$vector@EV?$allocator@E@std@@@std@@U?$less@E@2@V?$allocator@U?$pair@$$CBEV?$vector@EV?$allocator@E@std@@@std@@@std@@@2@@std@@U?$less@E@2@V?$allocator@U?$pair@$$CBEV?$map@EV?$vector@EV?$allocator@E@std@@@std@@U?$less@E@2@V?$allocator@U?$pair@$$CBEV?$vector@EV?$allocator@E@std@@@std@@@std@@@2@@std@@@std@@@2@@std@@B
  00005	b9 00 00 00 00	 mov	 ecx, OFFSET ?skillIndexes@@3V?$map@EV?$map@EV?$vector@EV?$allocator@E@std@@@std@@U?$less@E@2@V?$allocator@U?$pair@$$CBEV?$vector@EV?$allocator@E@std@@@std@@@std@@@2@@std@@U?$less@E@2@V?$allocator@U?$pair@$$CBEV?$map@EV?$vector@EV?$allocator@E@std@@@std@@U?$less@E@2@V?$allocator@U?$pair@$$CBEV?$vector@EV?$allocator@E@std@@@std@@@std@@@2@@std@@@std@@@2@@std@@B
  0000a	ff 70 04	 push	 DWORD PTR [eax+4]
  0000d	68 00 00 00 00	 push	 OFFSET ?skillIndexes@@3V?$map@EV?$map@EV?$vector@EV?$allocator@E@std@@@std@@U?$less@E@2@V?$allocator@U?$pair@$$CBEV?$vector@EV?$allocator@E@std@@@std@@@std@@@2@@std@@U?$less@E@2@V?$allocator@U?$pair@$$CBEV?$map@EV?$vector@EV?$allocator@E@std@@@std@@U?$less@E@2@V?$allocator@U?$pair@$$CBEV?$vector@EV?$allocator@E@std@@@std@@@std@@@2@@std@@@std@@@2@@std@@B
  00012	e8 00 00 00 00	 call	 ??$_Erase_tree@V?$allocator@U?$_Tree_node@U?$pair@$$CBEV?$map@EV?$vector@EV?$allocator@E@std@@@std@@U?$less@E@2@V?$allocator@U?$pair@$$CBEV?$vector@EV?$allocator@E@std@@@std@@@std@@@2@@std@@@std@@PAX@std@@@std@@@?$_Tree_val@U?$_Tree_simple_types@U?$pair@$$CBEV?$map@EV?$vector@EV?$allocator@E@std@@@std@@U?$less@E@2@V?$allocator@U?$pair@$$CBEV?$vector@EV?$allocator@E@std@@@std@@@std@@@2@@std@@@std@@@std@@@std@@QAEXAAV?$allocator@U?$_Tree_node@U?$pair@$$CBEV?$map@EV?$vector@EV?$allocator@E@std@@@std@@U?$less@E@2@V?$allocator@U?$pair@$$CBEV?$vector@EV?$allocator@E@std@@@std@@@std@@@2@@std@@@std@@PAX@std@@@1@PAU?$_Tree_node@U?$pair@$$CBEV?$map@EV?$vector@EV?$allocator@E@std@@@std@@U?$less@E@2@V?$allocator@U?$pair@$$CBEV?$vector@EV?$allocator@E@std@@@std@@@std@@@2@@std@@@std@@PAX@1@@Z ; std::_Tree_val<std::_Tree_simple_types<std::pair<unsigned char const ,std::map<unsigned char,std::vector<unsigned char,std::allocator<unsigned char> >,std::less<unsigned char>,std::allocator<std::pair<unsigned char const ,std::vector<unsigned char,std::allocator<unsigned char> > > > > > > >::_Erase_tree<std::allocator<std::_Tree_node<std::pair<unsigned char const ,std::map<unsigned char,std::vector<unsigned char,std::allocator<unsigned char> >,std::less<unsigned char>,std::allocator<std::pair<unsigned char const ,std::vector<unsigned char,std::allocator<unsigned char> > > > > >,void *> > >
; File C:\Program Files\Microsoft Visual Studio\2022\Community\VC\Tools\MSVC\14.44.35207\include\xmemory

; 289  :         ::operator delete(_Ptr, _Bytes);

  00017	6a 1c		 push	 28			; 0000001cH
  00019	ff 35 00 00 00
	00		 push	 DWORD PTR ?skillIndexes@@3V?$map@EV?$map@EV?$vector@EV?$allocator@E@std@@@std@@U?$less@E@2@V?$allocator@U?$pair@$$CBEV?$vector@EV?$allocator@E@std@@@std@@@std@@@2@@std@@U?$less@E@2@V?$allocator@U?$pair@$$CBEV?$map@EV?$vector@EV?$allocator@E@std@@@std@@U?$less@E@2@V?$allocator@U?$pair@$$CBEV?$vector@EV?$allocator@E@std@@@std@@@std@@@2@@std@@@std@@@2@@std@@B
  0001f	e8 00 00 00 00	 call	 ??3@YAXPAXI@Z		; operator delete
  00024	83 c4 08	 add	 esp, 8
  00027	c3		 ret	 0
??__FskillIndexes@@YAXXZ ENDP				; `dynamic atexit destructor for 'skillIndexes''
text$yd	ENDS
; Function compile flags: /Ogtp
; File C:\Anka2Project\Anka2Project\Source\Binary\source\UserInterface\PythonPlayerSettingsModule.h
; File C:\Program Files\Microsoft Visual Studio\2022\Community\VC\Tools\MSVC\14.44.35207\include\__msvc_string_view.hpp
; File C:\Program Files\Microsoft Visual Studio\2022\Community\VC\Tools\MSVC\14.44.35207\include\xstring
; File C:\Program Files\Microsoft Visual Studio\2022\Community\VC\Tools\MSVC\14.44.35207\include\__msvc_string_view.hpp
; File C:\Program Files\Microsoft Visual Studio\2022\Community\VC\Tools\MSVC\14.44.35207\include\xstring
; File C:\Program Files\Microsoft Visual Studio\2022\Community\VC\Tools\MSVC\14.44.35207\include\__msvc_string_view.hpp
; File C:\Program Files\Microsoft Visual Studio\2022\Community\VC\Tools\MSVC\14.44.35207\include\xstring
; File C:\Anka2Project\Anka2Project\Source\Binary\source\UserInterface\PythonPlayerSettingsModule.h
; File C:\Program Files\Microsoft Visual Studio\2022\Community\VC\Tools\MSVC\14.44.35207\include\initializer_list
; File C:\Anka2Project\Anka2Project\Source\Binary\source\UserInterface\PythonPlayerSettingsModule.h
; File C:\Program Files\Microsoft Visual Studio\2022\Community\VC\Tools\MSVC\14.44.35207\include\vector
; File C:\Program Files\Microsoft Visual Studio\2022\Community\VC\Tools\MSVC\14.44.35207\include\xmemory
; File C:\Program Files\Microsoft Visual Studio\2022\Community\VC\Tools\MSVC\14.44.35207\include\vector
; File C:\Program Files\Microsoft Visual Studio\2022\Community\VC\Tools\MSVC\14.44.35207\include\utility
; File C:\Anka2Project\Anka2Project\Source\Binary\source\UserInterface\PythonPlayerSettingsModule.h
; File C:\Program Files\Microsoft Visual Studio\2022\Community\VC\Tools\MSVC\14.44.35207\include\utility
; File C:\Program Files\Microsoft Visual Studio\2022\Community\VC\Tools\MSVC\14.44.35207\include\vector
; File C:\Program Files\Microsoft Visual Studio\2022\Community\VC\Tools\MSVC\14.44.35207\include\xmemory
; File C:\Program Files\Microsoft Visual Studio\2022\Community\VC\Tools\MSVC\14.44.35207\include\vector
; File C:\Program Files\Microsoft Visual Studio\2022\Community\VC\Tools\MSVC\14.44.35207\include\xmemory
; File C:\Program Files\Microsoft Visual Studio\2022\Community\VC\Tools\MSVC\14.44.35207\include\vector
; File C:\Program Files\Microsoft Visual Studio\2022\Community\VC\Tools\MSVC\14.44.35207\include\__msvc_string_view.hpp
; File C:\Program Files\Microsoft Visual Studio\2022\Community\VC\Tools\MSVC\14.44.35207\include\xstring
; File C:\Program Files\Microsoft Visual Studio\2022\Community\VC\Tools\MSVC\14.44.35207\include\__msvc_string_view.hpp
; File C:\Program Files\Microsoft Visual Studio\2022\Community\VC\Tools\MSVC\14.44.35207\include\xstring
; File C:\Program Files\Microsoft Visual Studio\2022\Community\VC\Tools\MSVC\14.44.35207\include\__msvc_string_view.hpp
; File C:\Program Files\Microsoft Visual Studio\2022\Community\VC\Tools\MSVC\14.44.35207\include\xstring
; File C:\Anka2Project\Anka2Project\Source\Binary\source\UserInterface\PythonPlayerSettingsModule.h
; File C:\Program Files\Microsoft Visual Studio\2022\Community\VC\Tools\MSVC\14.44.35207\include\initializer_list
; File C:\Anka2Project\Anka2Project\Source\Binary\source\UserInterface\PythonPlayerSettingsModule.h
; File C:\Program Files\Microsoft Visual Studio\2022\Community\VC\Tools\MSVC\14.44.35207\include\vector
; File C:\Program Files\Microsoft Visual Studio\2022\Community\VC\Tools\MSVC\14.44.35207\include\xmemory
; File C:\Program Files\Microsoft Visual Studio\2022\Community\VC\Tools\MSVC\14.44.35207\include\vector
; File C:\Program Files\Microsoft Visual Studio\2022\Community\VC\Tools\MSVC\14.44.35207\include\utility
; File C:\Anka2Project\Anka2Project\Source\Binary\source\UserInterface\PythonPlayerSettingsModule.h
; File C:\Program Files\Microsoft Visual Studio\2022\Community\VC\Tools\MSVC\14.44.35207\include\utility
; File C:\Program Files\Microsoft Visual Studio\2022\Community\VC\Tools\MSVC\14.44.35207\include\vector
; File C:\Program Files\Microsoft Visual Studio\2022\Community\VC\Tools\MSVC\14.44.35207\include\xmemory
; File C:\Program Files\Microsoft Visual Studio\2022\Community\VC\Tools\MSVC\14.44.35207\include\vector
; File C:\Program Files\Microsoft Visual Studio\2022\Community\VC\Tools\MSVC\14.44.35207\include\xmemory
; File C:\Program Files\Microsoft Visual Studio\2022\Community\VC\Tools\MSVC\14.44.35207\include\vector
; File C:\Program Files\Microsoft Visual Studio\2022\Community\VC\Tools\MSVC\14.44.35207\include\initializer_list
; File C:\Anka2Project\Anka2Project\Source\Binary\source\UserInterface\PythonPlayerSettingsModule.h
; File C:\Program Files\Microsoft Visual Studio\2022\Community\VC\Tools\MSVC\14.44.35207\include\initializer_list
; File C:\Anka2Project\Anka2Project\Source\Binary\source\UserInterface\PythonPlayerSettingsModule.h
; File C:\Program Files\Microsoft Visual Studio\2022\Community\VC\Tools\MSVC\14.44.35207\include\vector
; File C:\Program Files\Microsoft Visual Studio\2022\Community\VC\Tools\MSVC\14.44.35207\include\xmemory
; File C:\Program Files\Microsoft Visual Studio\2022\Community\VC\Tools\MSVC\14.44.35207\include\vector
; File C:\Program Files\Microsoft Visual Studio\2022\Community\VC\Tools\MSVC\14.44.35207\include\xmemory
; File C:\Program Files\Microsoft Visual Studio\2022\Community\VC\Tools\MSVC\14.44.35207\include\vector
; File C:\Program Files\Microsoft Visual Studio\2022\Community\VC\Tools\MSVC\14.44.35207\include\xstring
; File C:\Program Files\Microsoft Visual Studio\2022\Community\VC\Tools\MSVC\14.44.35207\include\xmemory
; File C:\Program Files\Microsoft Visual Studio\2022\Community\VC\Tools\MSVC\14.44.35207\include\xstring
; File C:\Program Files\Microsoft Visual Studio\2022\Community\VC\Tools\MSVC\14.44.35207\include\xmemory
; File C:\Program Files\Microsoft Visual Studio\2022\Community\VC\Tools\MSVC\14.44.35207\include\vector
; File C:\Program Files\Microsoft Visual Studio\2022\Community\VC\Tools\MSVC\14.44.35207\include\xstring
; File C:\Program Files\Microsoft Visual Studio\2022\Community\VC\Tools\MSVC\14.44.35207\include\vector
; File C:\Program Files\Microsoft Visual Studio\2022\Community\VC\Tools\MSVC\14.44.35207\include\xmemory
; File C:\Program Files\Microsoft Visual Studio\2022\Community\VC\Tools\MSVC\14.44.35207\include\vector
; File C:\Program Files\Microsoft Visual Studio\2022\Community\VC\Tools\MSVC\14.44.35207\include\xmemory
; File C:\Program Files\Microsoft Visual Studio\2022\Community\VC\Tools\MSVC\14.44.35207\include\vector
; File C:\Program Files\Microsoft Visual Studio\2022\Community\VC\Tools\MSVC\14.44.35207\include\xstring
; File C:\Program Files\Microsoft Visual Studio\2022\Community\VC\Tools\MSVC\14.44.35207\include\xmemory
; File C:\Program Files\Microsoft Visual Studio\2022\Community\VC\Tools\MSVC\14.44.35207\include\xstring
; File C:\Program Files\Microsoft Visual Studio\2022\Community\VC\Tools\MSVC\14.44.35207\include\xmemory
; File C:\Anka2Project\Anka2Project\Source\Binary\source\UserInterface\PythonPlayerSettingsModule.h
; File C:\Program Files\Microsoft Visual Studio\2022\Community\VC\Tools\MSVC\14.44.35207\include\xmemory
; File C:\Anka2Project\Anka2Project\Source\Binary\source\UserInterface\PythonPlayerSettingsModule.h
;	COMDAT ??__EguildSkills@@YAXXZ
text$di	SEGMENT
__Dest$1$ = -176					; size = 4
__Dest$1$ = -176					; size = 4
$T24 = -172						; size = 12
$T67 = -160						; size = 12
$T20 = -145						; size = 1
$T33 = -144						; size = 72
$T1 = -72						; size = 24
$T44 = -48						; size = 24
$T63 = -24						; size = 6
__$ArrayPad$ = -16					; size = 4
__$EHRec$ = -12						; size = 12
??__EguildSkills@@YAXXZ PROC				; `dynamic initializer for 'guildSkills'', COMDAT

; 647  : };

  00000	55		 push	 ebp
  00001	8b ec		 mov	 ebp, esp
  00003	6a ff		 push	 -1
  00005	68 00 00 00 00	 push	 __ehhandler$??__EguildSkills@@YAXXZ
  0000a	64 a1 00 00 00
	00		 mov	 eax, DWORD PTR fs:0
  00010	50		 push	 eax
  00011	81 ec a4 00 00
	00		 sub	 esp, 164		; 000000a4H
  00017	a1 00 00 00 00	 mov	 eax, DWORD PTR ___security_cookie
  0001c	33 c5		 xor	 eax, ebp
  0001e	89 45 f0	 mov	 DWORD PTR __$ArrayPad$[ebp], eax
  00021	56		 push	 esi
  00022	57		 push	 edi
  00023	50		 push	 eax
  00024	8d 45 f4	 lea	 eax, DWORD PTR __$EHRec$[ebp]
  00027	64 a3 00 00 00
	00		 mov	 DWORD PTR fs:0, eax
; File C:\Program Files\Microsoft Visual Studio\2022\Community\VC\Tools\MSVC\14.44.35207\include\__msvc_string_view.hpp

; 121  :         _CSTD memcpy(_First1, _First2, _Count * sizeof(_Elem));

  0002d	a1 00 00 00 00	 mov	 eax, DWORD PTR ??_C@_07NLANJMCK@PASSIVE@
  00032	0f 57 c0	 xorps	 xmm0, xmm0
; File C:\Program Files\Microsoft Visual Studio\2022\Community\VC\Tools\MSVC\14.44.35207\include\xstring

; 493  :         _CONSTEXPR20 _Bxty() noexcept : _Buf() {} // user-provided, for fancy pointers

  00035	0f 11 45 b8	 movups	 XMMWORD PTR $T1[ebp], xmm0
; File C:\Program Files\Microsoft Visual Studio\2022\Community\VC\Tools\MSVC\14.44.35207\include\__msvc_string_view.hpp

; 121  :         _CSTD memcpy(_First1, _First2, _Count * sizeof(_Elem));

  00039	89 45 b8	 mov	 DWORD PTR $T1[ebp], eax
  0003c	66 a1 04 00 00
	00		 mov	 ax, WORD PTR ??_C@_07NLANJMCK@PASSIVE@+4
  00042	66 89 45 bc	 mov	 WORD PTR $T1[ebp+4], ax
  00046	a0 06 00 00 00	 mov	 al, BYTE PTR ??_C@_07NLANJMCK@PASSIVE@+6
; File C:\Program Files\Microsoft Visual Studio\2022\Community\VC\Tools\MSVC\14.44.35207\include\xstring

; 890  :             _My_data._Mysize = _Count;

  0004b	c7 45 c8 07 00
	00 00		 mov	 DWORD PTR $T1[ebp+16], 7

; 891  :             _My_data._Myres  = _Small_string_capacity;

  00052	c7 45 cc 0f 00
	00 00		 mov	 DWORD PTR $T1[ebp+20], 15 ; 0000000fH
; File C:\Program Files\Microsoft Visual Studio\2022\Community\VC\Tools\MSVC\14.44.35207\include\__msvc_string_view.hpp

; 121  :         _CSTD memcpy(_First1, _First2, _Count * sizeof(_Elem));

  00059	88 45 be	 mov	 BYTE PTR $T1[ebp+6], al
; File C:\Program Files\Microsoft Visual Studio\2022\Community\VC\Tools\MSVC\14.44.35207\include\xstring

; 898  :                 _Traits::assign(_My_data._Bx._Buf[_Count], _Elem());

  0005c	c6 45 bf 00	 mov	 BYTE PTR $T1[ebp+7], 0
; File C:\Anka2Project\Anka2Project\Source\Binary\source\UserInterface\PythonPlayerSettingsModule.h

; 644  : {

  00060	c7 45 fc 00 00
	00 00		 mov	 DWORD PTR __$EHRec$[ebp+8], 0
; File C:\Program Files\Microsoft Visual Studio\2022\Community\VC\Tools\MSVC\14.44.35207\include\initializer_list

; 34   :         : _First(_First_arg), _Last(_Last_arg) {}

  00067	8d 85 6f ff ff
	ff		 lea	 eax, DWORD PTR $T20[ebp]
  0006d	8d bd 70 ff ff
	ff		 lea	 edi, DWORD PTR $T20[ebp+1]
; File C:\Anka2Project\Anka2Project\Source\Binary\source\UserInterface\PythonPlayerSettingsModule.h

; 644  : {

  00073	c6 85 6f ff ff
	ff 97		 mov	 BYTE PTR $T20[ebp], 151	; 00000097H
; File C:\Program Files\Microsoft Visual Studio\2022\Community\VC\Tools\MSVC\14.44.35207\include\vector

; 400  :     _CONSTEXPR20 _Vector_val() noexcept : _Myfirst(), _Mylast(), _Myend() {}

  0007a	c7 85 54 ff ff
	ff 00 00 00 00	 mov	 DWORD PTR $T24[ebp], 0
  00084	c7 85 58 ff ff
	ff 00 00 00 00	 mov	 DWORD PTR $T24[ebp+4], 0
  0008e	c7 85 5c ff ff
	ff 00 00 00 00	 mov	 DWORD PTR $T24[ebp+8], 0

; 721  :         _Construct_n(_Convert_size<size_type>(_Ilist.size()), _Ilist.begin(), _Ilist.end());

  00098	2b f8		 sub	 edi, eax

; 2111 :         if (_Count != 0) {

  0009a	74 32		 je	 SHORT $LN109@dynamic

; 2112 :             _Buy_nonzero(_Count);

  0009c	57		 push	 edi
  0009d	8d 8d 54 ff ff
	ff		 lea	 ecx, DWORD PTR $T24[ebp]
  000a3	e8 00 00 00 00	 call	 ?_Buy_nonzero@?$vector@EV?$allocator@E@std@@@std@@AAEXI@Z ; std::vector<unsigned char,std::allocator<unsigned char> >::_Buy_nonzero

; 2120 :                 _My_data._Mylast = _STD _Uninitialized_copy(_STD forward<_Valty>(_Val)..., _My_data._Myfirst, _Al);

  000a8	8b b5 54 ff ff
	ff		 mov	 esi, DWORD PTR $T24[ebp]
; File C:\Program Files\Microsoft Visual Studio\2022\Community\VC\Tools\MSVC\14.44.35207\include\xmemory

; 1889 :                 _STD _Copy_memmove(_STD _To_address(_UFirst), _STD _To_address(_ULast), _STD _Unfancy(_Dest));

  000ae	8d 85 70 ff ff
	ff		 lea	 eax, DWORD PTR $T20[ebp+1]
  000b4	56		 push	 esi
  000b5	50		 push	 eax
  000b6	8d 85 6f ff ff
	ff		 lea	 eax, DWORD PTR $T20[ebp]
  000bc	50		 push	 eax
  000bd	e8 00 00 00 00	 call	 ??$_Copy_memmove@PBEPAE@std@@YAPAEPBE0PAE@Z ; std::_Copy_memmove<unsigned char const *,unsigned char *>

; 1890 :                 _Dest += _ULast - _UFirst;

  000c2	8d 04 3e	 lea	 eax, DWORD PTR [esi+edi]
  000c5	83 c4 0c	 add	 esp, 12			; 0000000cH
; File C:\Program Files\Microsoft Visual Studio\2022\Community\VC\Tools\MSVC\14.44.35207\include\vector

; 2120 :                 _My_data._Mylast = _STD _Uninitialized_copy(_STD forward<_Valty>(_Val)..., _My_data._Myfirst, _Al);

  000c8	89 85 58 ff ff
	ff		 mov	 DWORD PTR $T24[ebp+4], eax
$LN109@dynamic:
; File C:\Program Files\Microsoft Visual Studio\2022\Community\VC\Tools\MSVC\14.44.35207\include\utility

; 263  :         : first(_Val1), second(_Val2) {}

  000ce	8d 45 b8	 lea	 eax, DWORD PTR $T1[ebp]
; File C:\Anka2Project\Anka2Project\Source\Binary\source\UserInterface\PythonPlayerSettingsModule.h

; 644  : {

  000d1	c6 45 fc 01	 mov	 BYTE PTR __$EHRec$[ebp+8], 1
; File C:\Program Files\Microsoft Visual Studio\2022\Community\VC\Tools\MSVC\14.44.35207\include\utility

; 263  :         : first(_Val1), second(_Val2) {}

  000d5	50		 push	 eax
  000d6	8d 8d 70 ff ff
	ff		 lea	 ecx, DWORD PTR $T33[ebp]
  000dc	e8 00 00 00 00	 call	 ??0?$basic_string@DU?$char_traits@D@std@@V?$allocator@D@2@@std@@QAE@ABV01@@Z ; std::basic_string<char,std::char_traits<char>,std::allocator<char> >::basic_string<char,std::char_traits<char>,std::allocator<char> >
  000e1	c6 45 fc 02	 mov	 BYTE PTR __$EHRec$[ebp+8], 2
; File C:\Program Files\Microsoft Visual Studio\2022\Community\VC\Tools\MSVC\14.44.35207\include\vector

; 748  :         const auto _Count       = static_cast<size_type>(_Right_data._Mylast - _Right_data._Myfirst);

  000e5	8b 85 58 ff ff
	ff		 mov	 eax, DWORD PTR $T24[ebp+4]

; 400  :     _CONSTEXPR20 _Vector_val() noexcept : _Myfirst(), _Mylast(), _Myend() {}

  000eb	c7 45 88 00 00
	00 00		 mov	 DWORD PTR $T33[ebp+24], 0
  000f2	c7 45 8c 00 00
	00 00		 mov	 DWORD PTR $T33[ebp+28], 0
  000f9	c7 45 90 00 00
	00 00		 mov	 DWORD PTR $T33[ebp+32], 0

; 748  :         const auto _Count       = static_cast<size_type>(_Right_data._Mylast - _Right_data._Myfirst);

  00100	2b 85 54 ff ff
	ff		 sub	 eax, DWORD PTR $T24[ebp]

; 2111 :         if (_Count != 0) {

  00106	74 36		 je	 SHORT $LN141@dynamic

; 2112 :             _Buy_nonzero(_Count);

  00108	50		 push	 eax
  00109	8d 4d 88	 lea	 ecx, DWORD PTR $T33[ebp+24]
  0010c	e8 00 00 00 00	 call	 ?_Buy_nonzero@?$vector@EV?$allocator@E@std@@@std@@AAEXI@Z ; std::vector<unsigned char,std::allocator<unsigned char> >::_Buy_nonzero

; 2120 :                 _My_data._Mylast = _STD _Uninitialized_copy(_STD forward<_Valty>(_Val)..., _My_data._Myfirst, _Al);

  00111	8b 45 88	 mov	 eax, DWORD PTR $T33[ebp+24]
; File C:\Program Files\Microsoft Visual Studio\2022\Community\VC\Tools\MSVC\14.44.35207\include\xmemory

; 1872 :     auto _ULast  = _RANGES _Unwrap_sent<_InIt>(_STD move(_Last));

  00114	8b b5 58 ff ff
	ff		 mov	 esi, DWORD PTR $T24[ebp+4]
  0011a	8b bd 54 ff ff
	ff		 mov	 edi, DWORD PTR $T24[ebp]

; 1889 :                 _STD _Copy_memmove(_STD _To_address(_UFirst), _STD _To_address(_ULast), _STD _Unfancy(_Dest));

  00120	50		 push	 eax
  00121	56		 push	 esi
  00122	57		 push	 edi
; File C:\Program Files\Microsoft Visual Studio\2022\Community\VC\Tools\MSVC\14.44.35207\include\vector

; 2120 :                 _My_data._Mylast = _STD _Uninitialized_copy(_STD forward<_Valty>(_Val)..., _My_data._Myfirst, _Al);

  00123	89 85 50 ff ff
	ff		 mov	 DWORD PTR __Dest$1$[ebp], eax
; File C:\Program Files\Microsoft Visual Studio\2022\Community\VC\Tools\MSVC\14.44.35207\include\xmemory

; 1889 :                 _STD _Copy_memmove(_STD _To_address(_UFirst), _STD _To_address(_ULast), _STD _Unfancy(_Dest));

  00129	e8 00 00 00 00	 call	 ??$_Copy_memmove@PAEPAE@std@@YAPAEPAE00@Z ; std::_Copy_memmove<unsigned char *,unsigned char *>

; 1890 :                 _Dest += _ULast - _UFirst;

  0012e	8b 85 50 ff ff
	ff		 mov	 eax, DWORD PTR __Dest$1$[ebp]
  00134	2b f7		 sub	 esi, edi
  00136	83 c4 0c	 add	 esp, 12			; 0000000cH
  00139	03 c6		 add	 eax, esi
; File C:\Program Files\Microsoft Visual Studio\2022\Community\VC\Tools\MSVC\14.44.35207\include\vector

; 2120 :                 _My_data._Mylast = _STD _Uninitialized_copy(_STD forward<_Valty>(_Val)..., _My_data._Myfirst, _Al);

  0013b	89 45 8c	 mov	 DWORD PTR $T33[ebp+28], eax
$LN141@dynamic:
; File C:\Program Files\Microsoft Visual Studio\2022\Community\VC\Tools\MSVC\14.44.35207\include\__msvc_string_view.hpp

; 121  :         _CSTD memcpy(_First1, _First2, _Count * sizeof(_Elem));

  0013e	a1 00 00 00 00	 mov	 eax, DWORD PTR ??_C@_06MHJDLBHA@ACTIVE@
  00143	0f 57 c0	 xorps	 xmm0, xmm0
; File C:\Program Files\Microsoft Visual Studio\2022\Community\VC\Tools\MSVC\14.44.35207\include\xstring

; 493  :         _CONSTEXPR20 _Bxty() noexcept : _Buf() {} // user-provided, for fancy pointers

  00146	0f 11 45 d0	 movups	 XMMWORD PTR $T44[ebp], xmm0
; File C:\Program Files\Microsoft Visual Studio\2022\Community\VC\Tools\MSVC\14.44.35207\include\__msvc_string_view.hpp

; 121  :         _CSTD memcpy(_First1, _First2, _Count * sizeof(_Elem));

  0014a	89 45 d0	 mov	 DWORD PTR $T44[ebp], eax
  0014d	66 a1 04 00 00
	00		 mov	 ax, WORD PTR ??_C@_06MHJDLBHA@ACTIVE@+4
; File C:\Program Files\Microsoft Visual Studio\2022\Community\VC\Tools\MSVC\14.44.35207\include\xstring

; 890  :             _My_data._Mysize = _Count;

  00153	c7 45 e0 06 00
	00 00		 mov	 DWORD PTR $T44[ebp+16], 6

; 891  :             _My_data._Myres  = _Small_string_capacity;

  0015a	c7 45 e4 0f 00
	00 00		 mov	 DWORD PTR $T44[ebp+20], 15 ; 0000000fH
; File C:\Program Files\Microsoft Visual Studio\2022\Community\VC\Tools\MSVC\14.44.35207\include\__msvc_string_view.hpp

; 121  :         _CSTD memcpy(_First1, _First2, _Count * sizeof(_Elem));

  00161	66 89 45 d4	 mov	 WORD PTR $T44[ebp+4], ax
; File C:\Program Files\Microsoft Visual Studio\2022\Community\VC\Tools\MSVC\14.44.35207\include\xstring

; 898  :                 _Traits::assign(_My_data._Bx._Buf[_Count], _Elem());

  00165	c6 45 d6 00	 mov	 BYTE PTR $T44[ebp+6], 0
; File C:\Anka2Project\Anka2Project\Source\Binary\source\UserInterface\PythonPlayerSettingsModule.h

; 644  : {

  00169	c6 45 fc 04	 mov	 BYTE PTR __$EHRec$[ebp+8], 4
; File C:\Program Files\Microsoft Visual Studio\2022\Community\VC\Tools\MSVC\14.44.35207\include\initializer_list

; 34   :         : _First(_First_arg), _Last(_Last_arg) {}

  0016d	8d 45 e8	 lea	 eax, DWORD PTR $T63[ebp]
  00170	8d 7d ee	 lea	 edi, DWORD PTR $T63[ebp+6]
; File C:\Anka2Project\Anka2Project\Source\Binary\source\UserInterface\PythonPlayerSettingsModule.h

; 644  : {

  00173	c7 45 e8 98 99
	9a 9b		 mov	 DWORD PTR $T63[ebp], -1684366952 ; 9b9a9998H
  0017a	66 c7 45 ec 9c
	9d		 mov	 WORD PTR $T63[ebp+4], 40348 ; 00009d9cH
; File C:\Program Files\Microsoft Visual Studio\2022\Community\VC\Tools\MSVC\14.44.35207\include\vector

; 400  :     _CONSTEXPR20 _Vector_val() noexcept : _Myfirst(), _Mylast(), _Myend() {}

  00180	c7 85 60 ff ff
	ff 00 00 00 00	 mov	 DWORD PTR $T67[ebp], 0
  0018a	c7 85 64 ff ff
	ff 00 00 00 00	 mov	 DWORD PTR $T67[ebp+4], 0
  00194	c7 85 68 ff ff
	ff 00 00 00 00	 mov	 DWORD PTR $T67[ebp+8], 0

; 721  :         _Construct_n(_Convert_size<size_type>(_Ilist.size()), _Ilist.begin(), _Ilist.end());

  0019e	2b f8		 sub	 edi, eax

; 2111 :         if (_Count != 0) {

  001a0	74 2c		 je	 SHORT $LN242@dynamic

; 2112 :             _Buy_nonzero(_Count);

  001a2	57		 push	 edi
  001a3	8d 8d 60 ff ff
	ff		 lea	 ecx, DWORD PTR $T67[ebp]
  001a9	e8 00 00 00 00	 call	 ?_Buy_nonzero@?$vector@EV?$allocator@E@std@@@std@@AAEXI@Z ; std::vector<unsigned char,std::allocator<unsigned char> >::_Buy_nonzero

; 2120 :                 _My_data._Mylast = _STD _Uninitialized_copy(_STD forward<_Valty>(_Val)..., _My_data._Myfirst, _Al);

  001ae	8b b5 60 ff ff
	ff		 mov	 esi, DWORD PTR $T67[ebp]
; File C:\Program Files\Microsoft Visual Studio\2022\Community\VC\Tools\MSVC\14.44.35207\include\xmemory

; 1889 :                 _STD _Copy_memmove(_STD _To_address(_UFirst), _STD _To_address(_ULast), _STD _Unfancy(_Dest));

  001b4	8d 45 ee	 lea	 eax, DWORD PTR $T63[ebp+6]
  001b7	56		 push	 esi
  001b8	50		 push	 eax
  001b9	8d 45 e8	 lea	 eax, DWORD PTR $T63[ebp]
  001bc	50		 push	 eax
  001bd	e8 00 00 00 00	 call	 ??$_Copy_memmove@PBEPAE@std@@YAPAEPBE0PAE@Z ; std::_Copy_memmove<unsigned char const *,unsigned char *>

; 1890 :                 _Dest += _ULast - _UFirst;

  001c2	8d 04 3e	 lea	 eax, DWORD PTR [esi+edi]
  001c5	83 c4 0c	 add	 esp, 12			; 0000000cH
; File C:\Program Files\Microsoft Visual Studio\2022\Community\VC\Tools\MSVC\14.44.35207\include\vector

; 2120 :                 _My_data._Mylast = _STD _Uninitialized_copy(_STD forward<_Valty>(_Val)..., _My_data._Myfirst, _Al);

  001c8	89 85 64 ff ff
	ff		 mov	 DWORD PTR $T67[ebp+4], eax
$LN242@dynamic:
; File C:\Program Files\Microsoft Visual Studio\2022\Community\VC\Tools\MSVC\14.44.35207\include\utility

; 263  :         : first(_Val1), second(_Val2) {}

  001ce	8d 45 d0	 lea	 eax, DWORD PTR $T44[ebp]
; File C:\Anka2Project\Anka2Project\Source\Binary\source\UserInterface\PythonPlayerSettingsModule.h

; 644  : {

  001d1	c6 45 fc 05	 mov	 BYTE PTR __$EHRec$[ebp+8], 5
; File C:\Program Files\Microsoft Visual Studio\2022\Community\VC\Tools\MSVC\14.44.35207\include\utility

; 263  :         : first(_Val1), second(_Val2) {}

  001d5	50		 push	 eax
  001d6	8d 4d 94	 lea	 ecx, DWORD PTR $T33[ebp+36]
  001d9	e8 00 00 00 00	 call	 ??0?$basic_string@DU?$char_traits@D@std@@V?$allocator@D@2@@std@@QAE@ABV01@@Z ; std::basic_string<char,std::char_traits<char>,std::allocator<char> >::basic_string<char,std::char_traits<char>,std::allocator<char> >
  001de	c6 45 fc 06	 mov	 BYTE PTR __$EHRec$[ebp+8], 6
; File C:\Program Files\Microsoft Visual Studio\2022\Community\VC\Tools\MSVC\14.44.35207\include\vector

; 748  :         const auto _Count       = static_cast<size_type>(_Right_data._Mylast - _Right_data._Myfirst);

  001e2	8b 85 64 ff ff
	ff		 mov	 eax, DWORD PTR $T67[ebp+4]

; 400  :     _CONSTEXPR20 _Vector_val() noexcept : _Myfirst(), _Mylast(), _Myend() {}

  001e8	c7 45 ac 00 00
	00 00		 mov	 DWORD PTR $T33[ebp+60], 0
  001ef	c7 45 b0 00 00
	00 00		 mov	 DWORD PTR $T33[ebp+64], 0
  001f6	c7 45 b4 00 00
	00 00		 mov	 DWORD PTR $T33[ebp+68], 0

; 748  :         const auto _Count       = static_cast<size_type>(_Right_data._Mylast - _Right_data._Myfirst);

  001fd	2b 85 60 ff ff
	ff		 sub	 eax, DWORD PTR $T67[ebp]

; 2111 :         if (_Count != 0) {

  00203	74 36		 je	 SHORT $LN274@dynamic

; 2112 :             _Buy_nonzero(_Count);

  00205	50		 push	 eax
  00206	8d 4d ac	 lea	 ecx, DWORD PTR $T33[ebp+60]
  00209	e8 00 00 00 00	 call	 ?_Buy_nonzero@?$vector@EV?$allocator@E@std@@@std@@AAEXI@Z ; std::vector<unsigned char,std::allocator<unsigned char> >::_Buy_nonzero

; 2120 :                 _My_data._Mylast = _STD _Uninitialized_copy(_STD forward<_Valty>(_Val)..., _My_data._Myfirst, _Al);

  0020e	8b 45 ac	 mov	 eax, DWORD PTR $T33[ebp+60]
; File C:\Program Files\Microsoft Visual Studio\2022\Community\VC\Tools\MSVC\14.44.35207\include\xmemory

; 1872 :     auto _ULast  = _RANGES _Unwrap_sent<_InIt>(_STD move(_Last));

  00211	8b b5 64 ff ff
	ff		 mov	 esi, DWORD PTR $T67[ebp+4]
  00217	8b bd 60 ff ff
	ff		 mov	 edi, DWORD PTR $T67[ebp]

; 1889 :                 _STD _Copy_memmove(_STD _To_address(_UFirst), _STD _To_address(_ULast), _STD _Unfancy(_Dest));

  0021d	50		 push	 eax
  0021e	56		 push	 esi
  0021f	57		 push	 edi
; File C:\Program Files\Microsoft Visual Studio\2022\Community\VC\Tools\MSVC\14.44.35207\include\vector

; 2120 :                 _My_data._Mylast = _STD _Uninitialized_copy(_STD forward<_Valty>(_Val)..., _My_data._Myfirst, _Al);

  00220	89 85 50 ff ff
	ff		 mov	 DWORD PTR __Dest$1$[ebp], eax
; File C:\Program Files\Microsoft Visual Studio\2022\Community\VC\Tools\MSVC\14.44.35207\include\xmemory

; 1889 :                 _STD _Copy_memmove(_STD _To_address(_UFirst), _STD _To_address(_ULast), _STD _Unfancy(_Dest));

  00226	e8 00 00 00 00	 call	 ??$_Copy_memmove@PAEPAE@std@@YAPAEPAE00@Z ; std::_Copy_memmove<unsigned char *,unsigned char *>

; 1890 :                 _Dest += _ULast - _UFirst;

  0022b	8b 85 50 ff ff
	ff		 mov	 eax, DWORD PTR __Dest$1$[ebp]
  00231	2b f7		 sub	 esi, edi
  00233	83 c4 0c	 add	 esp, 12			; 0000000cH
  00236	03 c6		 add	 eax, esi
; File C:\Program Files\Microsoft Visual Studio\2022\Community\VC\Tools\MSVC\14.44.35207\include\vector

; 2120 :                 _My_data._Mylast = _STD _Uninitialized_copy(_STD forward<_Valty>(_Val)..., _My_data._Myfirst, _Al);

  00238	89 45 b0	 mov	 DWORD PTR $T33[ebp+64], eax
$LN274@dynamic:
; File C:\Program Files\Microsoft Visual Studio\2022\Community\VC\Tools\MSVC\14.44.35207\include\initializer_list

; 34   :         : _First(_First_arg), _Last(_Last_arg) {}

  0023b	8d 45 b8	 lea	 eax, DWORD PTR $T33[ebp+72]
; File C:\Anka2Project\Anka2Project\Source\Binary\source\UserInterface\PythonPlayerSettingsModule.h

; 644  : {

  0023e	c6 45 fc 09	 mov	 BYTE PTR __$EHRec$[ebp+8], 9
; File C:\Program Files\Microsoft Visual Studio\2022\Community\VC\Tools\MSVC\14.44.35207\include\initializer_list

; 34   :         : _First(_First_arg), _Last(_Last_arg) {}

  00242	8d 8d 70 ff ff
	ff		 lea	 ecx, DWORD PTR $T33[ebp]
; File C:\Anka2Project\Anka2Project\Source\Binary\source\UserInterface\PythonPlayerSettingsModule.h

; 644  : {

  00248	50		 push	 eax
  00249	51		 push	 ecx
  0024a	b9 00 00 00 00	 mov	 ecx, OFFSET ?guildSkills@@3V?$map@V?$basic_string@DU?$char_traits@D@std@@V?$allocator@D@2@@std@@V?$vector@EV?$allocator@E@std@@@2@U?$less@V?$basic_string@DU?$char_traits@D@std@@V?$allocator@D@2@@std@@@2@V?$allocator@U?$pair@$$CBV?$basic_string@DU?$char_traits@D@std@@V?$allocator@D@2@@std@@V?$vector@EV?$allocator@E@std@@@2@@std@@@2@@std@@B
  0024f	e8 00 00 00 00	 call	 ??0?$map@V?$basic_string@DU?$char_traits@D@std@@V?$allocator@D@2@@std@@V?$vector@EV?$allocator@E@std@@@2@U?$less@V?$basic_string@DU?$char_traits@D@std@@V?$allocator@D@2@@std@@@2@V?$allocator@U?$pair@$$CBV?$basic_string@DU?$char_traits@D@std@@V?$allocator@D@2@@std@@V?$vector@EV?$allocator@E@std@@@2@@std@@@2@@std@@QAE@V?$initializer_list@U?$pair@$$CBV?$basic_string@DU?$char_traits@D@std@@V?$allocator@D@2@@std@@V?$vector@EV?$allocator@E@std@@@2@@std@@@1@@Z ; std::map<std::basic_string<char,std::char_traits<char>,std::allocator<char> >,std::vector<unsigned char,std::allocator<unsigned char> >,std::less<std::basic_string<char,std::char_traits<char>,std::allocator<char> > >,std::allocator<std::pair<std::basic_string<char,std::char_traits<char>,std::allocator<char> > const ,std::vector<unsigned char,std::allocator<unsigned char> > > > >::map<std::basic_string<char,std::char_traits<char>,std::allocator<char> >,std::vector<unsigned char,std::allocator<unsigned char> >,std::less<std::basic_string<char,std::char_traits<char>,std::allocator<char> > >,std::allocator<std::pair<std::basic_string<char,std::char_traits<char>,std::allocator<char> > const ,std::vector<unsigned char,std::allocator<unsigned char> > > > >
  00254	68 00 00 00 00	 push	 OFFSET ??1?$pair@$$CBV?$basic_string@DU?$char_traits@D@std@@V?$allocator@D@2@@std@@V?$vector@EV?$allocator@E@std@@@2@@std@@QAE@XZ
  00259	6a 02		 push	 2
  0025b	6a 24		 push	 36			; 00000024H
  0025d	8d 85 70 ff ff
	ff		 lea	 eax, DWORD PTR $T33[ebp]
  00263	c6 45 fc 08	 mov	 BYTE PTR __$EHRec$[ebp+8], 8
  00267	50		 push	 eax
  00268	e8 00 00 00 00	 call	 ??_M@YGXPAXIIP6EX0@Z@Z
; File C:\Program Files\Microsoft Visual Studio\2022\Community\VC\Tools\MSVC\14.44.35207\include\vector

; 2090 :         if (_Myfirst) { // destroy and deallocate old array

  0026d	8b 95 60 ff ff
	ff		 mov	 edx, DWORD PTR $T67[ebp]
  00273	85 d2		 test	 edx, edx
  00275	74 4e		 je	 SHORT $LN284@dynamic

; 2093 :             _Al.deallocate(_Myfirst, static_cast<size_type>(_Myend - _Myfirst));

  00277	8b 8d 68 ff ff
	ff		 mov	 ecx, DWORD PTR $T67[ebp+8]
; File C:\Program Files\Microsoft Visual Studio\2022\Community\VC\Tools\MSVC\14.44.35207\include\xmemory

; 985  :         _STD _Deallocate<_New_alignof<_Ty>>(_Ptr, sizeof(_Ty) * _Count);

  0027d	8b c2		 mov	 eax, edx
; File C:\Program Files\Microsoft Visual Studio\2022\Community\VC\Tools\MSVC\14.44.35207\include\vector

; 2093 :             _Al.deallocate(_Myfirst, static_cast<size_type>(_Myend - _Myfirst));

  0027f	2b ca		 sub	 ecx, edx
; File C:\Program Files\Microsoft Visual Studio\2022\Community\VC\Tools\MSVC\14.44.35207\include\xmemory

; 284  :         if (_Bytes >= _Big_allocation_threshold) {

  00281	81 f9 00 10 00
	00		 cmp	 ecx, 4096		; 00001000H
  00287	72 14		 jb	 SHORT $LN298@dynamic

; 205  :     const uintptr_t _Ptr_container   = _Ptr_user[-1];

  00289	8b 50 fc	 mov	 edx, DWORD PTR [eax-4]
  0028c	83 c1 23	 add	 ecx, 35			; 00000023H
  0028f	2b c2		 sub	 eax, edx

; 219  :     _STL_VERIFY(_Back_shift >= _Min_back_shift && _Back_shift <= _Non_user_size, "invalid argument");

  00291	83 c0 fc	 add	 eax, -4			; fffffffcH
  00294	83 f8 1f	 cmp	 eax, 31			; 0000001fH
  00297	0f 87 1e 01 00
	00		 ja	 $LN383@dynamic
$LN298@dynamic:

; 289  :         ::operator delete(_Ptr, _Bytes);

  0029d	51		 push	 ecx
  0029e	52		 push	 edx
  0029f	e8 00 00 00 00	 call	 ??3@YAXPAXI@Z		; operator delete
  002a4	83 c4 08	 add	 esp, 8
; File C:\Program Files\Microsoft Visual Studio\2022\Community\VC\Tools\MSVC\14.44.35207\include\vector

; 2095 :             _Myfirst = nullptr;

  002a7	c7 85 60 ff ff
	ff 00 00 00 00	 mov	 DWORD PTR $T67[ebp], 0

; 2096 :             _Mylast  = nullptr;

  002b1	c7 85 64 ff ff
	ff 00 00 00 00	 mov	 DWORD PTR $T67[ebp+4], 0

; 2097 :             _Myend   = nullptr;

  002bb	c7 85 68 ff ff
	ff 00 00 00 00	 mov	 DWORD PTR $T67[ebp+8], 0
$LN284@dynamic:
; File C:\Program Files\Microsoft Visual Studio\2022\Community\VC\Tools\MSVC\14.44.35207\include\xstring

; 453  :         return _Myres > _Small_string_capacity;

  002c5	8b 4d e4	 mov	 ecx, DWORD PTR $T44[ebp+20]
  002c8	83 f9 0f	 cmp	 ecx, 15			; 0000000fH

; 3083 :         if (_My_data._Large_mode_engaged()) {

  002cb	76 2c		 jbe	 SHORT $LN321@dynamic
; File C:\Program Files\Microsoft Visual Studio\2022\Community\VC\Tools\MSVC\14.44.35207\include\xmemory

; 985  :         _STD _Deallocate<_New_alignof<_Ty>>(_Ptr, sizeof(_Ty) * _Count);

  002cd	8b 55 d0	 mov	 edx, DWORD PTR $T44[ebp]
; File C:\Program Files\Microsoft Visual Studio\2022\Community\VC\Tools\MSVC\14.44.35207\include\xstring

; 852  :         _Al.deallocate(_Old_ptr, _Capacity + 1); // +1 for null terminator

  002d0	41		 inc	 ecx
; File C:\Program Files\Microsoft Visual Studio\2022\Community\VC\Tools\MSVC\14.44.35207\include\xmemory

; 985  :         _STD _Deallocate<_New_alignof<_Ty>>(_Ptr, sizeof(_Ty) * _Count);

  002d1	8b c2		 mov	 eax, edx

; 284  :         if (_Bytes >= _Big_allocation_threshold) {

  002d3	81 f9 00 10 00
	00		 cmp	 ecx, 4096		; 00001000H
  002d9	72 14		 jb	 SHORT $LN329@dynamic

; 205  :     const uintptr_t _Ptr_container   = _Ptr_user[-1];

  002db	8b 50 fc	 mov	 edx, DWORD PTR [eax-4]
  002de	83 c1 23	 add	 ecx, 35			; 00000023H
  002e1	2b c2		 sub	 eax, edx

; 219  :     _STL_VERIFY(_Back_shift >= _Min_back_shift && _Back_shift <= _Non_user_size, "invalid argument");

  002e3	83 c0 fc	 add	 eax, -4			; fffffffcH
  002e6	83 f8 1f	 cmp	 eax, 31			; 0000001fH
  002e9	0f 87 cc 00 00
	00		 ja	 $LN383@dynamic
$LN329@dynamic:

; 289  :         ::operator delete(_Ptr, _Bytes);

  002ef	51		 push	 ecx
  002f0	52		 push	 edx
  002f1	e8 00 00 00 00	 call	 ??3@YAXPAXI@Z		; operator delete
  002f6	83 c4 08	 add	 esp, 8
$LN321@dynamic:
; File C:\Program Files\Microsoft Visual Studio\2022\Community\VC\Tools\MSVC\14.44.35207\include\vector

; 2090 :         if (_Myfirst) { // destroy and deallocate old array

  002f9	8b 8d 54 ff ff
	ff		 mov	 ecx, DWORD PTR $T24[ebp]
; File C:\Program Files\Microsoft Visual Studio\2022\Community\VC\Tools\MSVC\14.44.35207\include\xstring

; 3090 :         _My_data._Mysize = 0;

  002ff	c7 45 e0 00 00
	00 00		 mov	 DWORD PTR $T44[ebp+16], 0

; 3091 :         _My_data._Myres  = _Small_string_capacity;

  00306	c7 45 e4 0f 00
	00 00		 mov	 DWORD PTR $T44[ebp+20], 15 ; 0000000fH

; 3092 :         // the _Traits::assign is last so the codegen doesn't think the char write can alias this
; 3093 :         _Traits::assign(_My_data._Bx._Buf[0], _Elem());

  0030d	c6 45 d0 00	 mov	 BYTE PTR $T44[ebp], 0
; File C:\Program Files\Microsoft Visual Studio\2022\Community\VC\Tools\MSVC\14.44.35207\include\vector

; 2090 :         if (_Myfirst) { // destroy and deallocate old array

  00311	85 c9		 test	 ecx, ecx
  00313	74 4e		 je	 SHORT $LN339@dynamic

; 2093 :             _Al.deallocate(_Myfirst, static_cast<size_type>(_Myend - _Myfirst));

  00315	8b 95 5c ff ff
	ff		 mov	 edx, DWORD PTR $T24[ebp+8]
; File C:\Program Files\Microsoft Visual Studio\2022\Community\VC\Tools\MSVC\14.44.35207\include\xmemory

; 985  :         _STD _Deallocate<_New_alignof<_Ty>>(_Ptr, sizeof(_Ty) * _Count);

  0031b	8b c1		 mov	 eax, ecx
; File C:\Program Files\Microsoft Visual Studio\2022\Community\VC\Tools\MSVC\14.44.35207\include\vector

; 2093 :             _Al.deallocate(_Myfirst, static_cast<size_type>(_Myend - _Myfirst));

  0031d	2b d1		 sub	 edx, ecx
; File C:\Program Files\Microsoft Visual Studio\2022\Community\VC\Tools\MSVC\14.44.35207\include\xmemory

; 284  :         if (_Bytes >= _Big_allocation_threshold) {

  0031f	81 fa 00 10 00
	00		 cmp	 edx, 4096		; 00001000H
  00325	72 14		 jb	 SHORT $LN353@dynamic

; 205  :     const uintptr_t _Ptr_container   = _Ptr_user[-1];

  00327	8b 48 fc	 mov	 ecx, DWORD PTR [eax-4]
  0032a	83 c2 23	 add	 edx, 35			; 00000023H
  0032d	2b c1		 sub	 eax, ecx

; 219  :     _STL_VERIFY(_Back_shift >= _Min_back_shift && _Back_shift <= _Non_user_size, "invalid argument");

  0032f	83 c0 fc	 add	 eax, -4			; fffffffcH
  00332	83 f8 1f	 cmp	 eax, 31			; 0000001fH
  00335	0f 87 80 00 00
	00		 ja	 $LN383@dynamic
$LN353@dynamic:

; 289  :         ::operator delete(_Ptr, _Bytes);

  0033b	52		 push	 edx
  0033c	51		 push	 ecx
  0033d	e8 00 00 00 00	 call	 ??3@YAXPAXI@Z		; operator delete
  00342	83 c4 08	 add	 esp, 8
; File C:\Program Files\Microsoft Visual Studio\2022\Community\VC\Tools\MSVC\14.44.35207\include\vector

; 2095 :             _Myfirst = nullptr;

  00345	c7 85 54 ff ff
	ff 00 00 00 00	 mov	 DWORD PTR $T24[ebp], 0

; 2096 :             _Mylast  = nullptr;

  0034f	c7 85 58 ff ff
	ff 00 00 00 00	 mov	 DWORD PTR $T24[ebp+4], 0

; 2097 :             _Myend   = nullptr;

  00359	c7 85 5c ff ff
	ff 00 00 00 00	 mov	 DWORD PTR $T24[ebp+8], 0
$LN339@dynamic:
; File C:\Program Files\Microsoft Visual Studio\2022\Community\VC\Tools\MSVC\14.44.35207\include\xstring

; 453  :         return _Myres > _Small_string_capacity;

  00363	8b 4d cc	 mov	 ecx, DWORD PTR $T1[ebp+20]
  00366	83 f9 0f	 cmp	 ecx, 15			; 0000000fH

; 3083 :         if (_My_data._Large_mode_engaged()) {

  00369	76 28		 jbe	 SHORT $LN376@dynamic
; File C:\Program Files\Microsoft Visual Studio\2022\Community\VC\Tools\MSVC\14.44.35207\include\xmemory

; 985  :         _STD _Deallocate<_New_alignof<_Ty>>(_Ptr, sizeof(_Ty) * _Count);

  0036b	8b 55 b8	 mov	 edx, DWORD PTR $T1[ebp]
; File C:\Program Files\Microsoft Visual Studio\2022\Community\VC\Tools\MSVC\14.44.35207\include\xstring

; 852  :         _Al.deallocate(_Old_ptr, _Capacity + 1); // +1 for null terminator

  0036e	41		 inc	 ecx
; File C:\Program Files\Microsoft Visual Studio\2022\Community\VC\Tools\MSVC\14.44.35207\include\xmemory

; 985  :         _STD _Deallocate<_New_alignof<_Ty>>(_Ptr, sizeof(_Ty) * _Count);

  0036f	8b c2		 mov	 eax, edx

; 284  :         if (_Bytes >= _Big_allocation_threshold) {

  00371	81 f9 00 10 00
	00		 cmp	 ecx, 4096		; 00001000H
  00377	72 10		 jb	 SHORT $LN384@dynamic

; 205  :     const uintptr_t _Ptr_container   = _Ptr_user[-1];

  00379	8b 50 fc	 mov	 edx, DWORD PTR [eax-4]
  0037c	83 c1 23	 add	 ecx, 35			; 00000023H
  0037f	2b c2		 sub	 eax, edx

; 219  :     _STL_VERIFY(_Back_shift >= _Min_back_shift && _Back_shift <= _Non_user_size, "invalid argument");

  00381	83 c0 fc	 add	 eax, -4			; fffffffcH
  00384	83 f8 1f	 cmp	 eax, 31			; 0000001fH
  00387	77 32		 ja	 SHORT $LN383@dynamic
$LN384@dynamic:

; 289  :         ::operator delete(_Ptr, _Bytes);

  00389	51		 push	 ecx
  0038a	52		 push	 edx
  0038b	e8 00 00 00 00	 call	 ??3@YAXPAXI@Z		; operator delete
  00390	83 c4 08	 add	 esp, 8
$LN376@dynamic:
; File C:\Anka2Project\Anka2Project\Source\Binary\source\UserInterface\PythonPlayerSettingsModule.h

; 643  : static const std::map < std::string, std::vector<uint8_t>> guildSkills

  00393	68 00 00 00 00	 push	 OFFSET ??__FguildSkills@@YAXXZ ; `dynamic atexit destructor for 'guildSkills''
  00398	e8 00 00 00 00	 call	 _atexit
  0039d	83 c4 04	 add	 esp, 4
  003a0	8b 4d f4	 mov	 ecx, DWORD PTR __$EHRec$[ebp]
  003a3	64 89 0d 00 00
	00 00		 mov	 DWORD PTR fs:0, ecx
  003aa	59		 pop	 ecx
  003ab	5f		 pop	 edi
  003ac	5e		 pop	 esi
  003ad	8b 4d f0	 mov	 ecx, DWORD PTR __$ArrayPad$[ebp]
  003b0	33 cd		 xor	 ecx, ebp
  003b2	e8 00 00 00 00	 call	 @__security_check_cookie@4
  003b7	8b e5		 mov	 esp, ebp
  003b9	5d		 pop	 ebp
  003ba	c3		 ret	 0
$LN383@dynamic:
; File C:\Program Files\Microsoft Visual Studio\2022\Community\VC\Tools\MSVC\14.44.35207\include\xmemory

; 219  :     _STL_VERIFY(_Back_shift >= _Min_back_shift && _Back_shift <= _Non_user_size, "invalid argument");

  003bb	6a 00		 push	 0
  003bd	6a 00		 push	 0
  003bf	6a 00		 push	 0
  003c1	6a 00		 push	 0
  003c3	6a 00		 push	 0
  003c5	e8 00 00 00 00	 call	 __invoke_watson
$LN433@dynamic:
  003ca	cc		 int	 3
text$di	ENDS
;	COMDAT text$x
text$x	SEGMENT
__unwindfunclet$??__EguildSkills@@YAXXZ$0:
  00000	8d 4d b8	 lea	 ecx, DWORD PTR $T1[ebp]
  00003	e9 00 00 00 00	 jmp	 ??1?$basic_string@DU?$char_traits@D@std@@V?$allocator@D@2@@std@@QAE@XZ ; std::basic_string<char,std::char_traits<char>,std::allocator<char> >::~basic_string<char,std::char_traits<char>,std::allocator<char> >
__unwindfunclet$??__EguildSkills@@YAXXZ$1:
  00008	8d 8d 54 ff ff
	ff		 lea	 ecx, DWORD PTR $T24[ebp]
  0000e	e9 00 00 00 00	 jmp	 ??1?$vector@EV?$allocator@E@std@@@std@@QAE@XZ ; std::vector<unsigned char,std::allocator<unsigned char> >::~vector<unsigned char,std::allocator<unsigned char> >
__unwindfunclet$??__EguildSkills@@YAXXZ$10:
  00013	8d 8d 70 ff ff
	ff		 lea	 ecx, DWORD PTR $T33[ebp]
  00019	e9 00 00 00 00	 jmp	 ??1?$basic_string@DU?$char_traits@D@std@@V?$allocator@D@2@@std@@QAE@XZ ; std::basic_string<char,std::char_traits<char>,std::allocator<char> >::~basic_string<char,std::char_traits<char>,std::allocator<char> >
__unwindfunclet$??__EguildSkills@@YAXXZ$2:
  0001e	8d 8d 70 ff ff
	ff		 lea	 ecx, DWORD PTR $T33[ebp]
  00024	e9 00 00 00 00	 jmp	 ??1?$pair@$$CBV?$basic_string@DU?$char_traits@D@std@@V?$allocator@D@2@@std@@V?$vector@EV?$allocator@E@std@@@2@@std@@QAE@XZ
__unwindfunclet$??__EguildSkills@@YAXXZ$3:
  00029	8d 4d d0	 lea	 ecx, DWORD PTR $T44[ebp]
  0002c	e9 00 00 00 00	 jmp	 ??1?$basic_string@DU?$char_traits@D@std@@V?$allocator@D@2@@std@@QAE@XZ ; std::basic_string<char,std::char_traits<char>,std::allocator<char> >::~basic_string<char,std::char_traits<char>,std::allocator<char> >
__unwindfunclet$??__EguildSkills@@YAXXZ$4:
  00031	8d 8d 60 ff ff
	ff		 lea	 ecx, DWORD PTR $T67[ebp]
  00037	e9 00 00 00 00	 jmp	 ??1?$vector@EV?$allocator@E@std@@@std@@QAE@XZ ; std::vector<unsigned char,std::allocator<unsigned char> >::~vector<unsigned char,std::allocator<unsigned char> >
__unwindfunclet$??__EguildSkills@@YAXXZ$16:
  0003c	8d 4d 94	 lea	 ecx, DWORD PTR $T33[ebp+36]
  0003f	e9 00 00 00 00	 jmp	 ??1?$basic_string@DU?$char_traits@D@std@@V?$allocator@D@2@@std@@QAE@XZ ; std::basic_string<char,std::char_traits<char>,std::allocator<char> >::~basic_string<char,std::char_traits<char>,std::allocator<char> >
__unwindfunclet$??__EguildSkills@@YAXXZ$6:
  00044	68 00 00 00 00	 push	 OFFSET ??1?$pair@$$CBV?$basic_string@DU?$char_traits@D@std@@V?$allocator@D@2@@std@@V?$vector@EV?$allocator@E@std@@@2@@std@@QAE@XZ
  00049	6a 02		 push	 2
  0004b	6a 24		 push	 36			; 00000024H
  0004d	8d 85 70 ff ff
	ff		 lea	 eax, DWORD PTR $T33[ebp]
  00053	50		 push	 eax
  00054	e8 00 00 00 00	 call	 ??_M@YGXPAXIIP6EX0@Z@Z
  00059	c3		 ret	 0
  0005a	cc		 int	 3
  0005b	cc		 int	 3
  0005c	cc		 int	 3
  0005d	cc		 int	 3
  0005e	cc		 int	 3
__ehhandler$??__EguildSkills@@YAXXZ:
  0005f	90		 npad	 1
  00060	90		 npad	 1
  00061	8b 54 24 08	 mov	 edx, DWORD PTR [esp+8]
  00065	8d 42 0c	 lea	 eax, DWORD PTR [edx+12]
  00068	8b 8a 50 ff ff
	ff		 mov	 ecx, DWORD PTR [edx-176]
  0006e	33 c8		 xor	 ecx, eax
  00070	e8 00 00 00 00	 call	 @__security_check_cookie@4
  00075	8b 4a fc	 mov	 ecx, DWORD PTR [edx-4]
  00078	33 c8		 xor	 ecx, eax
  0007a	e8 00 00 00 00	 call	 @__security_check_cookie@4
  0007f	b8 00 00 00 00	 mov	 eax, OFFSET __ehfuncinfo$??__EguildSkills@@YAXXZ
  00084	e9 00 00 00 00	 jmp	 ___CxxFrameHandler3
text$x	ENDS
??__EguildSkills@@YAXXZ ENDP				; `dynamic initializer for 'guildSkills''
; Function compile flags: /Ogtp
; File C:\Program Files\Microsoft Visual Studio\2022\Community\VC\Tools\MSVC\14.44.35207\include\xtree
; File C:\Program Files\Microsoft Visual Studio\2022\Community\VC\Tools\MSVC\14.44.35207\include\xmemory
;	COMDAT ??__FguildSkills@@YAXXZ
text$yd	SEGMENT
??__FguildSkills@@YAXXZ PROC				; `dynamic atexit destructor for 'guildSkills'', COMDAT
; File C:\Program Files\Microsoft Visual Studio\2022\Community\VC\Tools\MSVC\14.44.35207\include\xtree

; 777  :         _Erase_tree(_Al, _Myhead->_Parent);

  00000	a1 00 00 00 00	 mov	 eax, DWORD PTR ?guildSkills@@3V?$map@V?$basic_string@DU?$char_traits@D@std@@V?$allocator@D@2@@std@@V?$vector@EV?$allocator@E@std@@@2@U?$less@V?$basic_string@DU?$char_traits@D@std@@V?$allocator@D@2@@std@@@2@V?$allocator@U?$pair@$$CBV?$basic_string@DU?$char_traits@D@std@@V?$allocator@D@2@@std@@V?$vector@EV?$allocator@E@std@@@2@@std@@@2@@std@@B
  00005	b9 00 00 00 00	 mov	 ecx, OFFSET ?guildSkills@@3V?$map@V?$basic_string@DU?$char_traits@D@std@@V?$allocator@D@2@@std@@V?$vector@EV?$allocator@E@std@@@2@U?$less@V?$basic_string@DU?$char_traits@D@std@@V?$allocator@D@2@@std@@@2@V?$allocator@U?$pair@$$CBV?$basic_string@DU?$char_traits@D@std@@V?$allocator@D@2@@std@@V?$vector@EV?$allocator@E@std@@@2@@std@@@2@@std@@B
  0000a	ff 70 04	 push	 DWORD PTR [eax+4]
  0000d	68 00 00 00 00	 push	 OFFSET ?guildSkills@@3V?$map@V?$basic_string@DU?$char_traits@D@std@@V?$allocator@D@2@@std@@V?$vector@EV?$allocator@E@std@@@2@U?$less@V?$basic_string@DU?$char_traits@D@std@@V?$allocator@D@2@@std@@@2@V?$allocator@U?$pair@$$CBV?$basic_string@DU?$char_traits@D@std@@V?$allocator@D@2@@std@@V?$vector@EV?$allocator@E@std@@@2@@std@@@2@@std@@B
  00012	e8 00 00 00 00	 call	 ??$_Erase_tree@V?$allocator@U?$_Tree_node@U?$pair@$$CBV?$basic_string@DU?$char_traits@D@std@@V?$allocator@D@2@@std@@V?$vector@EV?$allocator@E@std@@@2@@std@@PAX@std@@@std@@@?$_Tree_val@U?$_Tree_simple_types@U?$pair@$$CBV?$basic_string@DU?$char_traits@D@std@@V?$allocator@D@2@@std@@V?$vector@EV?$allocator@E@std@@@2@@std@@@std@@@std@@QAEXAAV?$allocator@U?$_Tree_node@U?$pair@$$CBV?$basic_string@DU?$char_traits@D@std@@V?$allocator@D@2@@std@@V?$vector@EV?$allocator@E@std@@@2@@std@@PAX@std@@@1@PAU?$_Tree_node@U?$pair@$$CBV?$basic_string@DU?$char_traits@D@std@@V?$allocator@D@2@@std@@V?$vector@EV?$allocator@E@std@@@2@@std@@PAX@1@@Z ; std::_Tree_val<std::_Tree_simple_types<std::pair<std::basic_string<char,std::char_traits<char>,std::allocator<char> > const ,std::vector<unsigned char,std::allocator<unsigned char> > > > >::_Erase_tree<std::allocator<std::_Tree_node<std::pair<std::basic_string<char,std::char_traits<char>,std::allocator<char> > const ,std::vector<unsigned char,std::allocator<unsigned char> > >,void *> > >
; File C:\Program Files\Microsoft Visual Studio\2022\Community\VC\Tools\MSVC\14.44.35207\include\xmemory

; 289  :         ::operator delete(_Ptr, _Bytes);

  00017	6a 34		 push	 52			; 00000034H
  00019	ff 35 00 00 00
	00		 push	 DWORD PTR ?guildSkills@@3V?$map@V?$basic_string@DU?$char_traits@D@std@@V?$allocator@D@2@@std@@V?$vector@EV?$allocator@E@std@@@2@U?$less@V?$basic_string@DU?$char_traits@D@std@@V?$allocator@D@2@@std@@@2@V?$allocator@U?$pair@$$CBV?$basic_string@DU?$char_traits@D@std@@V?$allocator@D@2@@std@@V?$vector@EV?$allocator@E@std@@@2@@std@@@2@@std@@B
  0001f	e8 00 00 00 00	 call	 ??3@YAXPAXI@Z		; operator delete
  00024	83 c4 08	 add	 esp, 8
  00027	c3		 ret	 0
??__FguildSkills@@YAXXZ ENDP				; `dynamic atexit destructor for 'guildSkills''
text$yd	ENDS
; Function compile flags: /Ogtp
; File C:\Anka2Project\Anka2Project\Source\Binary\source\UserInterface\PythonTextTail.cpp
; File C:\Program Files\Microsoft Visual Studio\2022\Community\VC\Tools\MSVC\14.44.35207\include\xtree
; File C:\Program Files\Microsoft Visual Studio\2022\Community\VC\Tools\MSVC\14.44.35207\include\type_traits
; File C:\Program Files\Microsoft Visual Studio\2022\Community\VC\Tools\MSVC\14.44.35207\include\xtree
; File C:\Anka2Project\Anka2Project\Source\Binary\source\UserInterface\PythonTextTail.cpp
; File C:\Program Files\Microsoft Visual Studio\2022\Community\VC\Tools\MSVC\14.44.35207\include\list
; File C:\Anka2Project\Anka2Project\Source\Binary\source\UserInterface\PythonTextTail.cpp
; File C:\Program Files\Microsoft Visual Studio\2022\Community\VC\Tools\MSVC\14.44.35207\include\list
; File C:\Program Files\Microsoft Visual Studio\2022\Community\VC\Tools\MSVC\14.44.35207\include\xutility
; File C:\Program Files\Microsoft Visual Studio\2022\Community\VC\Tools\MSVC\14.44.35207\include\list
; File C:\Program Files\Microsoft Visual Studio\2022\Community\VC\Tools\MSVC\14.44.35207\include\xutility
; File C:\Program Files\Microsoft Visual Studio\2022\Community\VC\Tools\MSVC\14.44.35207\include\list
; File C:\Anka2Project\Anka2Project\Source\Binary\source\UserInterface\PythonTextTail.cpp
; File C:\Anka2Project\Anka2Project\Source\Binary\source\eterBase\Singleton.h
; File C:\Anka2Project\Anka2Project\Source\Binary\source\UserInterface\PythonTextTail.cpp
; File C:\Anka2Project\Anka2Project\Source\Binary\source\eterBase\Singleton.h
; File C:\Anka2Project\Anka2Project\Source\Binary\source\UserInterface\PythonTextTail.cpp
; File C:\Anka2Project\Anka2Project\Source\Binary\source\eterBase\Singleton.h
; File C:\Anka2Project\Anka2Project\Source\Binary\source\UserInterface\PythonTextTail.cpp
; File C:\Anka2Project\Anka2Project\Source\Binary\source\eterBase\Singleton.h
; File C:\Anka2Project\Anka2Project\Source\Binary\source\UserInterface\PythonTextTail.cpp
; File C:\Program Files\Microsoft Visual Studio\2022\Community\VC\Tools\MSVC\14.44.35207\include\list
; File C:\Program Files\Microsoft Visual Studio\2022\Community\VC\Tools\MSVC\14.44.35207\include\xmemory
; File C:\Program Files\Microsoft Visual Studio\2022\Community\VC\Tools\MSVC\14.44.35207\include\list
; File C:\Program Files\Microsoft Visual Studio\2022\Community\VC\Tools\MSVC\14.44.35207\include\xmemory
; File C:\Program Files\Microsoft Visual Studio\2022\Community\VC\Tools\MSVC\14.44.35207\include\list
; File C:\Anka2Project\Anka2Project\Source\Binary\source\UserInterface\PythonTextTail.cpp
; File C:\Program Files\Microsoft Visual Studio\2022\Community\VC\Tools\MSVC\14.44.35207\include\list
; File C:\Anka2Project\Anka2Project\Source\Binary\source\UserInterface\PythonTextTail.cpp
;	COMDAT ?ShowCharacterTextTail@CPythonTextTail@@QAEXK@Z
_TEXT	SEGMENT
__Loc$59 = -32						; size = 12
__Op$60 = -20						; size = 8
_this$1$ = -16						; size = 4
__$EHRec$ = -12						; size = 12
_VirtualID$ = 8						; size = 4
?ShowCharacterTextTail@CPythonTextTail@@QAEXK@Z PROC	; CPythonTextTail::ShowCharacterTextTail, COMDAT
; _this$ = ecx

; 477  : {

  00000	55		 push	 ebp
  00001	8b ec		 mov	 ebp, esp
  00003	6a ff		 push	 -1
  00005	68 00 00 00 00	 push	 __ehhandler$?ShowCharacterTextTail@CPythonTextTail@@QAEXK@Z
  0000a	64 a1 00 00 00
	00		 mov	 eax, DWORD PTR fs:0
  00010	50		 push	 eax
  00011	83 ec 18	 sub	 esp, 24			; 00000018H
  00014	53		 push	 ebx
  00015	56		 push	 esi
  00016	57		 push	 edi
  00017	a1 00 00 00 00	 mov	 eax, DWORD PTR ___security_cookie
  0001c	33 c5		 xor	 eax, ebp
  0001e	50		 push	 eax
  0001f	8d 45 f4	 lea	 eax, DWORD PTR __$EHRec$[ebp]
  00022	64 a3 00 00 00
	00		 mov	 DWORD PTR fs:0, eax
  00028	8b d9		 mov	 ebx, ecx
  0002a	89 5d f0	 mov	 DWORD PTR _this$1$[ebp], ebx
; File C:\Program Files\Microsoft Visual Studio\2022\Community\VC\Tools\MSVC\14.44.35207\include\xtree

; 1384 :         const _Tree_find_result<_Nodeptr> _Loc = _Find_lower_bound(_Keyval);

  0002d	8d 45 08	 lea	 eax, DWORD PTR _VirtualID$[ebp]
  00030	50		 push	 eax
  00031	8d 45 e0	 lea	 eax, DWORD PTR __Loc$59[ebp]
  00034	50		 push	 eax
  00035	8d 4b 04	 lea	 ecx, DWORD PTR [ebx+4]
  00038	e8 00 00 00 00	 call	 ??$_Find_lower_bound@K@?$_Tree@V?$_Tmap_traits@KPAUSTextTail@CPythonTextTail@@U?$less@K@std@@V?$allocator@U?$pair@$$CBKPAUSTextTail@CPythonTextTail@@@std@@@4@$0A@@std@@@std@@IBE?AU?$_Tree_find_result@PAU?$_Tree_node@U?$pair@$$CBKPAUSTextTail@CPythonTextTail@@@std@@PAX@std@@@1@ABK@Z ; std::_Tree<std::_Tmap_traits<unsigned long,CPythonTextTail::STextTail *,std::less<unsigned long>,std::allocator<std::pair<unsigned long const ,CPythonTextTail::STextTail *> >,0> >::_Find_lower_bound<unsigned long>

; 1624 :         return !_Bound->_Isnil && !_DEBUG_LT_PRED(_Getcomp(), _Keyval, _Traits::_Kfn(_Bound->_Myval));

  0003d	8b 75 e8	 mov	 esi, DWORD PTR __Loc$59[ebp+8]
  00040	80 7e 0d 00	 cmp	 BYTE PTR [esi+13], 0
  00044	0f 85 01 02 00
	00		 jne	 $LN216@ShowCharac
; File C:\Program Files\Microsoft Visual Studio\2022\Community\VC\Tools\MSVC\14.44.35207\include\type_traits

; 2380 :         return _Left < _Right;

  0004a	8b 45 08	 mov	 eax, DWORD PTR _VirtualID$[ebp]
  0004d	3b 46 10	 cmp	 eax, DWORD PTR [esi+16]
; File C:\Program Files\Microsoft Visual Studio\2022\Community\VC\Tools\MSVC\14.44.35207\include\xtree

; 1624 :         return !_Bound->_Isnil && !_DEBUG_LT_PRED(_Getcomp(), _Keyval, _Traits::_Kfn(_Bound->_Myval));

  00050	0f 82 f5 01 00
	00		 jb	 $LN216@ShowCharac

; 37   :     _Tree_unchecked_const_iterator(_Nodeptr _Pnode, const _Mytree* _Plist) noexcept : _Ptr(_Pnode) {

  00056	39 73 04	 cmp	 DWORD PTR [ebx+4], esi
; File C:\Anka2Project\Anka2Project\Source\Binary\source\UserInterface\PythonTextTail.cpp

; 480  : 	if (m_CharacterTextTailMap.end() == itor)

  00059	0f 84 ec 01 00
	00		 je	 $LN216@ShowCharac
; File C:\Program Files\Microsoft Visual Studio\2022\Community\VC\Tools\MSVC\14.44.35207\include\list

; 37   :     _List_unchecked_const_iterator(_Nodeptr _Pnode, const _Mylist* _Plist) noexcept : _Ptr(_Pnode) {

  0005f	8b 4b 1c	 mov	 ecx, DWORD PTR [ebx+28]
; File C:\Anka2Project\Anka2Project\Source\Binary\source\UserInterface\PythonTextTail.cpp

; 483  : 	TTextTail* pTextTail = itor->second;

  00062	8b 76 14	 mov	 esi, DWORD PTR [esi+20]
; File C:\Program Files\Microsoft Visual Studio\2022\Community\VC\Tools\MSVC\14.44.35207\include\list

; 37   :     _List_unchecked_const_iterator(_Nodeptr _Pnode, const _Mylist* _Plist) noexcept : _Ptr(_Pnode) {

  00065	8b 01		 mov	 eax, DWORD PTR [ecx]

; 72   :         return _Ptr == _Right._Ptr;

  00067	3b c8		 cmp	 ecx, eax
; File C:\Program Files\Microsoft Visual Studio\2022\Community\VC\Tools\MSVC\14.44.35207\include\xutility

; 6159 :     for (; _First != _Last; ++_First) {

  00069	74 18		 je	 SHORT $LN241@ShowCharac
  0006b	0f 1f 44 00 00	 npad	 5
$LL139@ShowCharac:

; 6160 :         if (*_First == _Val) {

  00070	39 70 08	 cmp	 DWORD PTR [eax+8], esi
  00073	74 06		 je	 SHORT $LN232@ShowCharac
; File C:\Program Files\Microsoft Visual Studio\2022\Community\VC\Tools\MSVC\14.44.35207\include\list

; 50   :         _Ptr = _Ptr->_Next;

  00075	8b 00		 mov	 eax, DWORD PTR [eax]

; 72   :         return _Ptr == _Right._Ptr;

  00077	3b c1		 cmp	 eax, ecx
; File C:\Program Files\Microsoft Visual Studio\2022\Community\VC\Tools\MSVC\14.44.35207\include\xutility

; 6159 :     for (; _First != _Last; ++_First) {

  00079	75 f5		 jne	 SHORT $LL139@ShowCharac
$LN232@ShowCharac:
; File C:\Program Files\Microsoft Visual Studio\2022\Community\VC\Tools\MSVC\14.44.35207\include\list

; 197  :         return this->_Ptr == _Right._Ptr;

  0007b	3b c8		 cmp	 ecx, eax
; File C:\Anka2Project\Anka2Project\Source\Binary\source\UserInterface\PythonTextTail.cpp

; 485  : 	if (m_CharacterTextTailList.end() != std::find(m_CharacterTextTailList.begin(), m_CharacterTextTailList.end(), pTextTail))

  0007d	0f 85 c8 01 00
	00		 jne	 $LN216@ShowCharac
$LN241@ShowCharac:

; 486  : 	{
; 487  : 		return;
; 488  : 	}
; 489  : 
; 490  : 	if (!pTextTail->pOwner->isShow())

  00083	8b 4e 2c	 mov	 ecx, DWORD PTR [esi+44]
  00086	e8 00 00 00 00	 call	 ?isShow@CGraphicObjectInstance@@QAE_NXZ ; CGraphicObjectInstance::isShow
  0008b	84 c0		 test	 al, al
  0008d	0f 84 b8 01 00
	00		 je	 $LN216@ShowCharac
; File C:\Anka2Project\Anka2Project\Source\Binary\source\eterBase\Singleton.h

; 26   : 		assert(ms_singleton);

  00093	8b 0d 00 00 00
	00		 mov	 ecx, DWORD PTR ?ms_singleton@?$CSingleton@VCPythonCharacterManager@@@@0PAVCPythonCharacterManager@@A ; CSingleton<CPythonCharacterManager>::ms_singleton
  00099	85 c9		 test	 ecx, ecx
  0009b	75 1a		 jne	 SHORT $LN162@ShowCharac
  0009d	6a 1a		 push	 26			; 0000001aH
  0009f	68 00 00 00 00	 push	 OFFSET ??_C@_1IO@CAJLEEOI@?$AAC?$AA?3?$AA?2?$AAA?$AAn?$AAk?$AAa?$AA2?$AAP?$AAr?$AAo?$AAj?$AAe?$AAc?$AAt@
  000a4	68 00 00 00 00	 push	 OFFSET ??_C@_1BK@FMEHPMFE@?$AAm?$AAs?$AA_?$AAs?$AAi?$AAn?$AAg?$AAl?$AAe?$AAt?$AAo?$AAn@
  000a9	e8 00 00 00 00	 call	 __wassert
  000ae	8b 0d 00 00 00
	00		 mov	 ecx, DWORD PTR ?ms_singleton@?$CSingleton@VCPythonCharacterManager@@@@0PAVCPythonCharacterManager@@A ; CSingleton<CPythonCharacterManager>::ms_singleton
  000b4	83 c4 0c	 add	 esp, 12			; 0000000cH
$LN162@ShowCharac:
; File C:\Anka2Project\Anka2Project\Source\Binary\source\UserInterface\PythonTextTail.cpp

; 493  : 	CInstanceBase* pInstance = CPythonCharacterManager::Instance().GetInstancePtr(pTextTail->dwVirtualID);

  000b7	8b 41 04	 mov	 eax, DWORD PTR [ecx+4]
  000ba	83 c1 04	 add	 ecx, 4
  000bd	ff 76 30	 push	 DWORD PTR [esi+48]
  000c0	ff 50 08	 call	 DWORD PTR [eax+8]
; File C:\Anka2Project\Anka2Project\Source\Binary\source\eterBase\Singleton.h

; 37   : 		assert(ms_singleton);

  000c3	8b 0d 00 00 00
	00		 mov	 ecx, DWORD PTR ?ms_singleton@?$CSingleton@VCPythonSystem@@@@0PAVCPythonSystem@@A ; CSingleton<CPythonSystem>::ms_singleton
; File C:\Anka2Project\Anka2Project\Source\Binary\source\UserInterface\PythonTextTail.cpp

; 493  : 	CInstanceBase* pInstance = CPythonCharacterManager::Instance().GetInstancePtr(pTextTail->dwVirtualID);

  000c9	8b f8		 mov	 edi, eax
; File C:\Anka2Project\Anka2Project\Source\Binary\source\eterBase\Singleton.h

; 37   : 		assert(ms_singleton);

  000cb	85 c9		 test	 ecx, ecx
  000cd	75 1a		 jne	 SHORT $LN165@ShowCharac
  000cf	6a 25		 push	 37			; 00000025H
  000d1	68 00 00 00 00	 push	 OFFSET ??_C@_1IO@CAJLEEOI@?$AAC?$AA?3?$AA?2?$AAA?$AAn?$AAk?$AAa?$AA2?$AAP?$AAr?$AAo?$AAj?$AAe?$AAc?$AAt@
  000d6	68 00 00 00 00	 push	 OFFSET ??_C@_1BK@FMEHPMFE@?$AAm?$AAs?$AA_?$AAs?$AAi?$AAn?$AAg?$AAl?$AAe?$AAt?$AAo?$AAn@
  000db	e8 00 00 00 00	 call	 __wassert
  000e0	8b 0d 00 00 00
	00		 mov	 ecx, DWORD PTR ?ms_singleton@?$CSingleton@VCPythonSystem@@@@0PAVCPythonSystem@@A ; CSingleton<CPythonSystem>::ms_singleton
  000e6	83 c4 0c	 add	 esp, 12			; 0000000cH
$LN165@ShowCharac:
; File C:\Anka2Project\Anka2Project\Source\Binary\source\UserInterface\PythonTextTail.cpp

; 496  : 	if (CPythonSystem::instance().IsNpcNameStatus() == 1)

  000e9	e8 00 00 00 00	 call	 ?IsNpcNameStatus@CPythonSystem@@QAE_NXZ ; CPythonSystem::IsNpcNameStatus
  000ee	3c 01		 cmp	 al, 1
  000f0	75 0f		 jne	 SHORT $LN7@ShowCharac

; 497  : 		if (pInstance->IsNPC())

  000f2	8b cf		 mov	 ecx, edi
  000f4	e8 00 00 00 00	 call	 ?IsNPC@CInstanceBase@@QAEHXZ ; CInstanceBase::IsNPC
  000f9	85 c0		 test	 eax, eax
  000fb	0f 85 4a 01 00
	00		 jne	 $LN216@ShowCharac
$LN7@ShowCharac:

; 498  : 			return;
; 499  : #endif
; 500  : 
; 501  : 	if (!pInstance)

  00101	85 ff		 test	 edi, edi
  00103	0f 84 42 01 00
	00		 je	 $LN216@ShowCharac

; 502  : 		return;
; 503  : 
; 504  : 	if (pInstance->IsGuildWall())

  00109	8b cf		 mov	 ecx, edi
  0010b	e8 00 00 00 00	 call	 ?IsGuildWall@CInstanceBase@@QAEHXZ ; CInstanceBase::IsGuildWall
  00110	85 c0		 test	 eax, eax
  00112	0f 85 33 01 00
	00		 jne	 $LN216@ShowCharac

; 505  : 		return;
; 506  : 
; 507  : #ifdef ENABLE_RENEWAL_OFFLINESHOP
; 508  : 	if (pInstance->IsShop())

  00118	8b cf		 mov	 ecx, edi
  0011a	e8 00 00 00 00	 call	 ?IsShop@CInstanceBase@@QAEHXZ ; CInstanceBase::IsShop
  0011f	85 c0		 test	 eax, eax
  00121	0f 85 24 01 00
	00		 jne	 $LN216@ShowCharac

; 513  : 	static auto& system = CPythonSystem::Instance();

  00127	64 a1 00 00 00
	00		 mov	 eax, DWORD PTR fs:__tls_array
  0012d	8b 08		 mov	 ecx, DWORD PTR [eax]
  0012f	a1 00 00 00 00	 mov	 eax, DWORD PTR ?$TSS0@?1??ShowCharacterTextTail@CPythonTextTail@@QAEXK@Z@4HA
  00134	3b 81 00 00 00
	00		 cmp	 eax, DWORD PTR __Init_thread_epoch[ecx]
  0013a	7e 4a		 jle	 SHORT $LN2@ShowCharac
  0013c	68 00 00 00 00	 push	 OFFSET ?$TSS0@?1??ShowCharacterTextTail@CPythonTextTail@@QAEXK@Z@4HA
  00141	e8 00 00 00 00	 call	 __Init_thread_header
  00146	83 c4 04	 add	 esp, 4
  00149	83 3d 00 00 00
	00 ff		 cmp	 DWORD PTR ?$TSS0@?1??ShowCharacterTextTail@CPythonTextTail@@QAEXK@Z@4HA, -1
  00150	75 34		 jne	 SHORT $LN2@ShowCharac
; File C:\Anka2Project\Anka2Project\Source\Binary\source\eterBase\Singleton.h

; 26   : 		assert(ms_singleton);

  00152	a1 00 00 00 00	 mov	 eax, DWORD PTR ?ms_singleton@?$CSingleton@VCPythonSystem@@@@0PAVCPythonSystem@@A ; CSingleton<CPythonSystem>::ms_singleton
  00157	85 c0		 test	 eax, eax
  00159	75 19		 jne	 SHORT $LN168@ShowCharac
  0015b	6a 1a		 push	 26			; 0000001aH
  0015d	68 00 00 00 00	 push	 OFFSET ??_C@_1IO@CAJLEEOI@?$AAC?$AA?3?$AA?2?$AAA?$AAn?$AAk?$AAa?$AA2?$AAP?$AAr?$AAo?$AAj?$AAe?$AAc?$AAt@
  00162	68 00 00 00 00	 push	 OFFSET ??_C@_1BK@FMEHPMFE@?$AAm?$AAs?$AA_?$AAs?$AAi?$AAn?$AAg?$AAl?$AAe?$AAt?$AAo?$AAn@
  00167	e8 00 00 00 00	 call	 __wassert
  0016c	a1 00 00 00 00	 mov	 eax, DWORD PTR ?ms_singleton@?$CSingleton@VCPythonSystem@@@@0PAVCPythonSystem@@A ; CSingleton<CPythonSystem>::ms_singleton
  00171	83 c4 0c	 add	 esp, 12			; 0000000cH
$LN168@ShowCharac:
; File C:\Anka2Project\Anka2Project\Source\Binary\source\UserInterface\PythonTextTail.cpp

; 513  : 	static auto& system = CPythonSystem::Instance();

  00174	68 00 00 00 00	 push	 OFFSET ?$TSS0@?1??ShowCharacterTextTail@CPythonTextTail@@QAEXK@Z@4HA
  00179	a3 00 00 00 00	 mov	 DWORD PTR ?system@?1??ShowCharacterTextTail@CPythonTextTail@@QAEXK@Z@4AAVCPythonSystem@@A, eax
  0017e	e8 00 00 00 00	 call	 __Init_thread_footer
  00183	83 c4 04	 add	 esp, 4
$LN2@ShowCharac:

; 514  : 	const auto isShowOutline = system.IsShowOutline();

  00186	8b 0d 00 00 00
	00		 mov	 ecx, DWORD PTR ?system@?1??ShowCharacterTextTail@CPythonTextTail@@QAEXK@Z@4AAVCPythonSystem@@A
  0018c	e8 00 00 00 00	 call	 ?IsShowOutline@CPythonSystem@@QBE_NXZ ; CPythonSystem::IsShowOutline

; 515  : 
; 516  : 	if (pTextTail->pTextInstance)

  00191	8b 4e 04	 mov	 ecx, DWORD PTR [esi+4]
  00194	8a d8		 mov	 bl, al
  00196	85 c9		 test	 ecx, ecx
  00198	74 0f		 je	 SHORT $LN13@ShowCharac

; 517  : 	{
; 518  : 		if (isShowOutline)

  0019a	84 db		 test	 bl, bl
  0019c	74 04		 je	 SHORT $LN12@ShowCharac

; 519  : 			pTextTail->pTextInstance->SetOutline(true);

  0019e	6a 01		 push	 1
  001a0	eb 02		 jmp	 SHORT $LN242@ShowCharac
$LN12@ShowCharac:

; 520  : 		else
; 521  : 			pTextTail->pTextInstance->SetOutline(false);

  001a2	6a 00		 push	 0
$LN242@ShowCharac:

; 522  : 	}
; 523  : 
; 524  : 	if (pTextTail->pLevelTextInstance)

  001a4	e8 00 00 00 00	 call	 ?SetOutline@CGraphicTextInstance@@QAEX_N@Z ; CGraphicTextInstance::SetOutline
$LN13@ShowCharac:
  001a9	8b 4e 18	 mov	 ecx, DWORD PTR [esi+24]
  001ac	85 c9		 test	 ecx, ecx
  001ae	74 0f		 je	 SHORT $LN16@ShowCharac

; 525  : 	{
; 526  : 		if (isShowOutline)

  001b0	84 db		 test	 bl, bl
  001b2	74 04		 je	 SHORT $LN15@ShowCharac

; 527  : 			pTextTail->pLevelTextInstance->SetOutline(true);

  001b4	6a 01		 push	 1
  001b6	eb 02		 jmp	 SHORT $LN243@ShowCharac
$LN15@ShowCharac:

; 528  : 		else
; 529  : 			pTextTail->pLevelTextInstance->SetOutline(false);

  001b8	6a 00		 push	 0
$LN243@ShowCharac:

; 530  : 	}
; 531  : 
; 532  : 	if (pTextTail->pTitleTextInstance)

  001ba	e8 00 00 00 00	 call	 ?SetOutline@CGraphicTextInstance@@QAEX_N@Z ; CGraphicTextInstance::SetOutline
$LN16@ShowCharac:
  001bf	8b 4e 14	 mov	 ecx, DWORD PTR [esi+20]
  001c2	85 c9		 test	 ecx, ecx
  001c4	74 0f		 je	 SHORT $LN19@ShowCharac

; 533  : 	{
; 534  : 		if (isShowOutline)

  001c6	84 db		 test	 bl, bl
  001c8	74 04		 je	 SHORT $LN18@ShowCharac

; 535  : 			pTextTail->pTitleTextInstance->SetOutline(true);

  001ca	6a 01		 push	 1
  001cc	eb 02		 jmp	 SHORT $LN244@ShowCharac
$LN18@ShowCharac:

; 536  : 		else
; 537  : 			pTextTail->pTitleTextInstance->SetOutline(false);

  001ce	6a 00		 push	 0
$LN244@ShowCharac:

; 538  : 	}
; 539  : 
; 540  : 	if (pTextTail->pGuildNameTextInstance)

  001d0	e8 00 00 00 00	 call	 ?SetOutline@CGraphicTextInstance@@QAEX_N@Z ; CGraphicTextInstance::SetOutline
$LN19@ShowCharac:
  001d5	8b 4e 10	 mov	 ecx, DWORD PTR [esi+16]
  001d8	85 c9		 test	 ecx, ecx
  001da	74 0f		 je	 SHORT $LN22@ShowCharac

; 541  : 	{
; 542  : 		if (isShowOutline)

  001dc	84 db		 test	 bl, bl
  001de	74 04		 je	 SHORT $LN21@ShowCharac

; 543  : 			pTextTail->pGuildNameTextInstance->SetOutline(true);

  001e0	6a 01		 push	 1
  001e2	eb 02		 jmp	 SHORT $LN245@ShowCharac
$LN21@ShowCharac:

; 544  : 		else
; 545  : 			pTextTail->pGuildNameTextInstance->SetOutline(false);

  001e4	6a 00		 push	 0
$LN245@ShowCharac:

; 546  : 	}
; 547  : 
; 548  : 	if (pTextTail->pTitleSystemTextInstance)

  001e6	e8 00 00 00 00	 call	 ?SetOutline@CGraphicTextInstance@@QAEX_N@Z ; CGraphicTextInstance::SetOutline
$LN22@ShowCharac:
  001eb	8b 4e 24	 mov	 ecx, DWORD PTR [esi+36]
  001ee	85 c9		 test	 ecx, ecx
  001f0	74 0f		 je	 SHORT $LN25@ShowCharac

; 549  : 	{
; 550  : 		if (isShowOutline)

  001f2	84 db		 test	 bl, bl
  001f4	74 04		 je	 SHORT $LN24@ShowCharac

; 551  : 			pTextTail->pTitleSystemTextInstance->SetOutline(true);

  001f6	6a 01		 push	 1
  001f8	eb 02		 jmp	 SHORT $LN246@ShowCharac
$LN24@ShowCharac:

; 552  : 		else
; 553  : 			pTextTail->pTitleSystemTextInstance->SetOutline(false);

  001fa	6a 00		 push	 0
$LN246@ShowCharac:

; 554  : 	}
; 555  : #endif
; 556  : 
; 557  : 	if (pInstance->CanPickInstance())

  001fc	e8 00 00 00 00	 call	 ?SetOutline@CGraphicTextInstance@@QAEX_N@Z ; CGraphicTextInstance::SetOutline
$LN25@ShowCharac:
  00201	8b cf		 mov	 ecx, edi
  00203	e8 00 00 00 00	 call	 ?CanPickInstance@CInstanceBase@@QAE_NXZ ; CInstanceBase::CanPickInstance
  00208	84 c0		 test	 al, al
  0020a	74 3f		 je	 SHORT $LN216@ShowCharac
; File C:\Program Files\Microsoft Visual Studio\2022\Community\VC\Tools\MSVC\14.44.35207\include\list

; 1274 :         _Emplace(_Mypair._Myval2._Myhead, _Val);

  0020c	8b 5d f0	 mov	 ebx, DWORD PTR _this$1$[ebp]
  0020f	83 c3 1c	 add	 ebx, 28			; 0000001cH

; 1030 :         if (_Mysize == max_size()) {

  00212	81 7b 04 55 55
	55 15		 cmp	 DWORD PTR [ebx+4], 357913941 ; 15555555H

; 1274 :         _Emplace(_Mypair._Myval2._Myhead, _Val);

  00219	8b 3b		 mov	 edi, DWORD PTR [ebx]

; 1030 :         if (_Mysize == max_size()) {

  0021b	74 42		 je	 SHORT $LN248@ShowCharac
; File C:\Program Files\Microsoft Visual Studio\2022\Community\VC\Tools\MSVC\14.44.35207\include\xmemory

; 1160 :     _CONSTEXPR20 explicit _Alloc_construct_ptr(_Alloc& _Al_) : _Al(_Al_), _Ptr(nullptr) {}

  0021d	89 5d ec	 mov	 DWORD PTR __Op$60[ebp], ebx
; File C:\Program Files\Microsoft Visual Studio\2022\Community\VC\Tools\MSVC\14.44.35207\include\list

; 593  :     explicit _List_node_emplace_op2(_Alnode& _Al_, _Valtys&&... _Vals) : _Alloc_construct_ptr<_Alnode>(_Al_) {

  00220	c7 45 fc 00 00
	00 00		 mov	 DWORD PTR __$EHRec$[ebp+8], 0
; File C:\Program Files\Microsoft Visual Studio\2022\Community\VC\Tools\MSVC\14.44.35207\include\xmemory

; 136  :         return ::operator new(_Bytes);

  00227	6a 0c		 push	 12			; 0000000cH

; 1167 :         _Ptr = nullptr; // if allocate throws, prevents double-free

  00229	c7 45 f0 00 00
	00 00		 mov	 DWORD PTR __Op$60[ebp+4], 0

; 136  :         return ::operator new(_Bytes);

  00230	e8 00 00 00 00	 call	 ??2@YAPAXI@Z		; operator new
  00235	83 c4 04	 add	 esp, 4
; File C:\Program Files\Microsoft Visual Studio\2022\Community\VC\Tools\MSVC\14.44.35207\include\list

; 595  :         _Alnode_traits::construct(this->_Al, _STD addressof(this->_Ptr->_Myval), _STD forward<_Valtys>(_Vals)...);

  00238	89 70 08	 mov	 DWORD PTR [eax+8], esi

; 1035 :         ++_Mysize;

  0023b	ff 43 04	 inc	 DWORD PTR [ebx+4]

; 608  :         const pointer _Insert_after = _Insert_before->_Prev;

  0023e	8b 4f 04	 mov	 ecx, DWORD PTR [edi+4]

; 609  :         _Construct_in_place(this->_Ptr->_Next, _Insert_before);

  00241	89 38		 mov	 DWORD PTR [eax], edi

; 610  :         _Construct_in_place(this->_Ptr->_Prev, _Insert_after);

  00243	89 48 04	 mov	 DWORD PTR [eax+4], ecx

; 611  :         const auto _Result    = this->_Ptr;
; 612  :         this->_Ptr            = pointer{};
; 613  :         _Insert_before->_Prev = _Result;

  00246	89 47 04	 mov	 DWORD PTR [edi+4], eax

; 614  :         _Insert_after->_Next  = _Result;

  00249	89 01		 mov	 DWORD PTR [ecx], eax
$LN216@ShowCharac:
; File C:\Anka2Project\Anka2Project\Source\Binary\source\UserInterface\PythonTextTail.cpp

; 559  : }

  0024b	8b 4d f4	 mov	 ecx, DWORD PTR __$EHRec$[ebp]
  0024e	64 89 0d 00 00
	00 00		 mov	 DWORD PTR fs:0, ecx
  00255	59		 pop	 ecx
  00256	5f		 pop	 edi
  00257	5e		 pop	 esi
  00258	5b		 pop	 ebx
  00259	8b e5		 mov	 esp, ebp
  0025b	5d		 pop	 ebp
  0025c	c2 04 00	 ret	 4
$LN248@ShowCharac:
; File C:\Program Files\Microsoft Visual Studio\2022\Community\VC\Tools\MSVC\14.44.35207\include\list

; 1031 :             _Xlength_error("list too long");

  0025f	68 00 00 00 00	 push	 OFFSET ??_C@_0O@NKNMEGII@list?5too?5long@
  00264	e8 00 00 00 00	 call	 ?_Xlength_error@std@@YAXPBD@Z ; std::_Xlength_error
$LN239@ShowCharac:
  00269	cc		 int	 3
_TEXT	ENDS
;	COMDAT text$x
text$x	SEGMENT
__unwindfunclet$?ShowCharacterTextTail@CPythonTextTail@@QAEXK@Z$2:
  00000	8d 4d ec	 lea	 ecx, DWORD PTR __Op$60[ebp]
  00003	e9 00 00 00 00	 jmp	 ??1?$_Alloc_construct_ptr@V?$allocator@U?$_List_node@PAUSTextTail@CPythonTextTail@@PAX@std@@@std@@@std@@QAE@XZ ; std::_Alloc_construct_ptr<std::allocator<std::_List_node<CPythonTextTail::STextTail *,void *> > >::~_Alloc_construct_ptr<std::allocator<std::_List_node<CPythonTextTail::STextTail *,void *> > >
  00008	cc		 int	 3
  00009	cc		 int	 3
  0000a	cc		 int	 3
  0000b	cc		 int	 3
  0000c	cc		 int	 3
__ehhandler$?ShowCharacterTextTail@CPythonTextTail@@QAEXK@Z:
  0000d	90		 npad	 1
  0000e	90		 npad	 1
  0000f	8b 54 24 08	 mov	 edx, DWORD PTR [esp+8]
  00013	8d 42 0c	 lea	 eax, DWORD PTR [edx+12]
  00016	8b 4a d8	 mov	 ecx, DWORD PTR [edx-40]
  00019	33 c8		 xor	 ecx, eax
  0001b	e8 00 00 00 00	 call	 @__security_check_cookie@4
  00020	b8 00 00 00 00	 mov	 eax, OFFSET __ehfuncinfo$?ShowCharacterTextTail@CPythonTextTail@@QAEXK@Z
  00025	e9 00 00 00 00	 jmp	 ___CxxFrameHandler3
text$x	ENDS
?ShowCharacterTextTail@CPythonTextTail@@QAEXK@Z ENDP	; CPythonTextTail::ShowCharacterTextTail
; Function compile flags: /Ogtp
; File C:\Anka2Project\Anka2Project\Source\Binary\source\UserInterface\PythonTextTail.cpp
; File C:\Anka2Project\Anka2Project\Source\Binary\source\eterBase\Singleton.h
; File C:\Anka2Project\Anka2Project\Source\Binary\source\UserInterface\PythonTextTail.cpp
; File C:\Anka2Project\Anka2Project\Source\Binary\source\eterBase\Singleton.h
; File C:\Anka2Project\Anka2Project\Source\Binary\source\UserInterface\PythonTextTail.cpp
; File C:\Program Files\Microsoft Visual Studio\2022\Community\VC\Tools\MSVC\14.44.35207\include\xtree
; File C:\Anka2Project\Anka2Project\Source\Binary\source\UserInterface\PythonTextTail.cpp
; File C:\Program Files\Microsoft Visual Studio\2022\Community\VC\Tools\MSVC\14.44.35207\include\xtree
; File C:\Program Files\Microsoft Visual Studio\2022\Community\VC\Tools\MSVC\14.44.35207\include\type_traits
; File C:\Program Files\Microsoft Visual Studio\2022\Community\VC\Tools\MSVC\14.44.35207\include\xtree
; File C:\Anka2Project\Anka2Project\Source\Binary\source\UserInterface\PythonTextTail.cpp
; File C:\Program Files\Microsoft Visual Studio\2022\Community\VC\Tools\MSVC\14.44.35207\include\xtree
; File C:\Program Files\Microsoft Visual Studio\2022\Community\VC\Tools\MSVC\14.44.35207\include\xmemory
; File C:\Anka2Project\Anka2Project\Source\Binary\source\UserInterface\PythonTextTail.cpp
; File C:\Program Files\Microsoft Visual Studio\2022\Community\VC\Tools\MSVC\14.44.35207\include\xstring
; File C:\Program Files\Microsoft Visual Studio\2022\Community\VC\Tools\MSVC\14.44.35207\include\__msvc_string_view.hpp
; File C:\Anka2Project\Anka2Project\Source\Binary\source\UserInterface\PythonTextTail.cpp
; File C:\Program Files\Microsoft Visual Studio\2022\Community\VC\Tools\MSVC\14.44.35207\include\__msvc_string_view.hpp
; File C:\Anka2Project\Anka2Project\Source\Binary\source\UserInterface\PythonTextTail.cpp
; File C:\Program Files\Microsoft Visual Studio\2022\Community\VC\Tools\MSVC\14.44.35207\include\__msvc_string_view.hpp
; File C:\Program Files\Microsoft Visual Studio\2022\Community\VC\Tools\MSVC\14.44.35207\include\xstring
; File C:\Anka2Project\Anka2Project\Source\Binary\source\UserInterface\PythonTextTail.cpp
; File C:\Anka2Project\Anka2Project\Source\Binary\source\eterBase\Singleton.h
; File C:\Anka2Project\Anka2Project\Source\Binary\source\UserInterface\PythonTextTail.cpp
; File C:\Anka2Project\Anka2Project\Source\Binary\source\eterBase\Singleton.h
; File C:\Anka2Project\Anka2Project\Source\Binary\source\UserInterface\PythonTextTail.cpp
; File C:\Program Files\Microsoft Visual Studio\2022\Community\VC\Tools\MSVC\14.44.35207\include\utility
; File C:\Anka2Project\Anka2Project\Source\Binary\source\UserInterface\PythonTextTail.cpp
; File C:\Program Files\Microsoft Visual Studio\2022\Community\VC\Tools\MSVC\14.44.35207\include\utility
; File C:\Anka2Project\Anka2Project\Source\Binary\source\UserInterface\PythonTextTail.cpp
; File C:\Program Files\Microsoft Visual Studio\2022\Community\VC\Tools\MSVC\14.44.35207\include\utility
; File C:\Anka2Project\Anka2Project\Source\Binary\source\UserInterface\PythonTextTail.cpp
;	COMDAT ?RegisterInfoTail@CPythonTextTail@@QAEXKPBD@Z
_TEXT	SEGMENT
_this$1$ = -24						; size = 4
$T44 = -20						; size = 8
tv198 = -20						; size = 4
_pCharacterInstance$1$ = -20				; size = 4
$T42 = -12						; size = 8
__Loc$45 = -12						; size = 12
_VirtualID$ = 8						; size = 4
_c_szChat$ = 12						; size = 4
?RegisterInfoTail@CPythonTextTail@@QAEXKPBD@Z PROC	; CPythonTextTail::RegisterInfoTail, COMDAT
; _this$ = ecx

; 850  : {

  00000	55		 push	 ebp
  00001	8b ec		 mov	 ebp, esp
  00003	83 e4 f8	 and	 esp, -8			; fffffff8H
  00006	83 ec 1c	 sub	 esp, 28			; 0000001cH
  00009	53		 push	 ebx
  0000a	56		 push	 esi
  0000b	8b f1		 mov	 esi, ecx
; File C:\Anka2Project\Anka2Project\Source\Binary\source\eterBase\Singleton.h

; 26   : 		assert(ms_singleton);

  0000d	8b 0d 00 00 00
	00		 mov	 ecx, DWORD PTR ?ms_singleton@?$CSingleton@VCPythonCharacterManager@@@@0PAVCPythonCharacterManager@@A ; CSingleton<CPythonCharacterManager>::ms_singleton
; File C:\Anka2Project\Anka2Project\Source\Binary\source\UserInterface\PythonTextTail.cpp

; 850  : {

  00013	89 74 24 0c	 mov	 DWORD PTR _this$1$[esp+36], esi
  00017	57		 push	 edi
; File C:\Anka2Project\Anka2Project\Source\Binary\source\eterBase\Singleton.h

; 26   : 		assert(ms_singleton);

  00018	85 c9		 test	 ecx, ecx
  0001a	75 1a		 jne	 SHORT $LN8@RegisterIn
  0001c	6a 1a		 push	 26			; 0000001aH
  0001e	68 00 00 00 00	 push	 OFFSET ??_C@_1IO@CAJLEEOI@?$AAC?$AA?3?$AA?2?$AAA?$AAn?$AAk?$AAa?$AA2?$AAP?$AAr?$AAo?$AAj?$AAe?$AAc?$AAt@
  00023	68 00 00 00 00	 push	 OFFSET ??_C@_1BK@FMEHPMFE@?$AAm?$AAs?$AA_?$AAs?$AAi?$AAn?$AAg?$AAl?$AAe?$AAt?$AAo?$AAn@
  00028	e8 00 00 00 00	 call	 __wassert
  0002d	8b 0d 00 00 00
	00		 mov	 ecx, DWORD PTR ?ms_singleton@?$CSingleton@VCPythonCharacterManager@@@@0PAVCPythonCharacterManager@@A ; CSingleton<CPythonCharacterManager>::ms_singleton
  00033	83 c4 0c	 add	 esp, 12			; 0000000cH
$LN8@RegisterIn:
; File C:\Anka2Project\Anka2Project\Source\Binary\source\UserInterface\PythonTextTail.cpp

; 851  : 	CInstanceBase* pCharacterInstance = CPythonCharacterManager::Instance().GetInstancePtr(VirtualID);

  00036	8b 41 04	 mov	 eax, DWORD PTR [ecx+4]
  00039	83 c1 04	 add	 ecx, 4
  0003c	8b 5d 08	 mov	 ebx, DWORD PTR _VirtualID$[ebp]
  0003f	53		 push	 ebx
  00040	ff 50 08	 call	 DWORD PTR [eax+8]
  00043	89 44 24 14	 mov	 DWORD PTR _pCharacterInstance$1$[esp+40], eax

; 852  : 
; 853  : 	if (!pCharacterInstance)

  00047	85 c0		 test	 eax, eax
  00049	0f 84 30 01 00
	00		 je	 $LN1@RegisterIn
; File C:\Program Files\Microsoft Visual Studio\2022\Community\VC\Tools\MSVC\14.44.35207\include\xtree

; 1384 :         const _Tree_find_result<_Nodeptr> _Loc = _Find_lower_bound(_Keyval);

  0004f	8d 45 08	 lea	 eax, DWORD PTR _VirtualID$[ebp]
  00052	50		 push	 eax
  00053	8d 44 24 20	 lea	 eax, DWORD PTR __Loc$45[esp+44]
; File C:\Anka2Project\Anka2Project\Source\Binary\source\UserInterface\PythonTextTail.cpp

; 856  : 	TChatTailMap::iterator itor = m_ChatTailMap.find(VirtualID);

  00057	8d 7e 14	 lea	 edi, DWORD PTR [esi+20]
; File C:\Program Files\Microsoft Visual Studio\2022\Community\VC\Tools\MSVC\14.44.35207\include\xtree

; 1384 :         const _Tree_find_result<_Nodeptr> _Loc = _Find_lower_bound(_Keyval);

  0005a	50		 push	 eax
  0005b	8b cf		 mov	 ecx, edi
  0005d	e8 00 00 00 00	 call	 ??$_Find_lower_bound@K@?$_Tree@V?$_Tmap_traits@KPAUSTextTail@CPythonTextTail@@U?$less@K@std@@V?$allocator@U?$pair@$$CBKPAUSTextTail@CPythonTextTail@@@std@@@4@$0A@@std@@@std@@IBE?AU?$_Tree_find_result@PAU?$_Tree_node@U?$pair@$$CBKPAUSTextTail@CPythonTextTail@@@std@@PAX@std@@@1@ABK@Z ; std::_Tree<std::_Tmap_traits<unsigned long,CPythonTextTail::STextTail *,std::less<unsigned long>,std::allocator<std::pair<unsigned long const ,CPythonTextTail::STextTail *> >,0> >::_Find_lower_bound<unsigned long>

; 1624 :         return !_Bound->_Isnil && !_DEBUG_LT_PRED(_Getcomp(), _Keyval, _Traits::_Kfn(_Bound->_Myval));

  00062	8b 74 24 24	 mov	 esi, DWORD PTR __Loc$45[esp+48]
  00066	80 7e 0d 00	 cmp	 BYTE PTR [esi+13], 0
  0006a	75 28		 jne	 SHORT $LN95@RegisterIn
; File C:\Program Files\Microsoft Visual Studio\2022\Community\VC\Tools\MSVC\14.44.35207\include\type_traits

; 2380 :         return _Left < _Right;

  0006c	3b 5e 10	 cmp	 ebx, DWORD PTR [esi+16]
; File C:\Program Files\Microsoft Visual Studio\2022\Community\VC\Tools\MSVC\14.44.35207\include\xtree

; 1624 :         return !_Bound->_Isnil && !_DEBUG_LT_PRED(_Getcomp(), _Keyval, _Traits::_Kfn(_Bound->_Myval));

  0006f	72 23		 jb	 SHORT $LN95@RegisterIn

; 37   :     _Tree_unchecked_const_iterator(_Nodeptr _Pnode, const _Mytree* _Plist) noexcept : _Ptr(_Pnode) {

  00071	39 37		 cmp	 DWORD PTR [edi], esi
; File C:\Anka2Project\Anka2Project\Source\Binary\source\UserInterface\PythonTextTail.cpp

; 858  : 	if (m_ChatTailMap.end() != itor)

  00073	74 1f		 je	 SHORT $LN95@RegisterIn

; 859  : 	{
; 860  : 		TTextTail* pTextTail = itor->second;
; 861  : 
; 862  : #ifdef ENABLE_EMOTICONS_SYSTEM
; 863  : 		DeleteTextTail (pTextTail);

  00075	ff 76 14	 push	 DWORD PTR [esi+20]
  00078	8b 4c 24 14	 mov	 ecx, DWORD PTR _this$1$[esp+44]
  0007c	e8 00 00 00 00	 call	 ?DeleteTextTail@CPythonTextTail@@IAEXPAUSTextTail@1@@Z ; CPythonTextTail::DeleteTextTail
; File C:\Program Files\Microsoft Visual Studio\2022\Community\VC\Tools\MSVC\14.44.35207\include\xtree

; 1303 :         _Nodeptr _Erasednode = _Scary->_Extract(_Where); // node to erase

  00081	56		 push	 esi
  00082	8b cf		 mov	 ecx, edi
  00084	e8 00 00 00 00	 call	 ?_Extract@?$_Tree_val@U?$_Tree_simple_types@U?$pair@$$CBKPAUSTextTail@CPythonTextTail@@@std@@@std@@@std@@QAEPAU?$_Tree_node@U?$pair@$$CBKPAUSTextTail@CPythonTextTail@@@std@@PAX@2@V?$_Tree_unchecked_const_iterator@V?$_Tree_val@U?$_Tree_simple_types@U?$pair@$$CBKPAUSTextTail@CPythonTextTail@@@std@@@std@@@std@@U_Iterator_base0@2@@2@@Z ; std::_Tree_val<std::_Tree_simple_types<std::pair<unsigned long const ,CPythonTextTail::STextTail *> > >::_Extract
; File C:\Program Files\Microsoft Visual Studio\2022\Community\VC\Tools\MSVC\14.44.35207\include\xmemory

; 289  :         ::operator delete(_Ptr, _Bytes);

  00089	6a 18		 push	 24			; 00000018H
  0008b	50		 push	 eax
  0008c	e8 00 00 00 00	 call	 ??3@YAXPAXI@Z		; operator delete
  00091	83 c4 08	 add	 esp, 8
$LN95@RegisterIn:
; File C:\Anka2Project\Anka2Project\Source\Binary\source\UserInterface\PythonTextTail.cpp

; 876  : 	TTextTail* pTextTail = RegisterTextTail(VirtualID,

  00094	8b 74 24 14	 mov	 esi, DWORD PTR _pCharacterInstance$1$[esp+40]
  00098	8b ce		 mov	 ecx, esi
  0009a	e8 00 00 00 00	 call	 ?GetGraphicThingInstanceRef@CInstanceBase@@QAEAAVCActorInstance@@XZ ; CInstanceBase::GetGraphicThingInstanceRef
  0009f	8b c8		 mov	 ecx, eax
  000a1	e8 00 00 00 00	 call	 ?GetHeight@CActorInstance@@QAEMXZ ; CActorInstance::GetHeight
  000a6	d8 05 00 00 00
	00		 fadd	 DWORD PTR __real@41200000
  000ac	8b ce		 mov	 ecx, esi
  000ae	d9 5c 24 14	 fstp	 DWORD PTR tv198[esp+40]
  000b2	e8 00 00 00 00	 call	 ?GetGraphicThingInstancePtr@CInstanceBase@@QAEPAVCActorInstance@@XZ ; CInstanceBase::GetGraphicThingInstancePtr
  000b7	83 ec 18	 sub	 esp, 24			; 00000018H
  000ba	0f 57 c0	 xorps	 xmm0, xmm0
  000bd	8b cc		 mov	 ecx, esp
  000bf	8b d0		 mov	 edx, eax
  000c1	68 00 00 00 00	 push	 OFFSET ?c_TextTail_Info_Color@@3UD3DXCOLOR@@B
; File C:\Program Files\Microsoft Visual Studio\2022\Community\VC\Tools\MSVC\14.44.35207\include\xstring

; 493  :         _CONSTEXPR20 _Bxty() noexcept : _Buf() {} // user-provided, for fancy pointers

  000c6	0f 11 01	 movups	 XMMWORD PTR [ecx], xmm0

; 890  :             _My_data._Mysize = _Count;

  000c9	c7 41 10 0d 00
	00 00		 mov	 DWORD PTR [ecx+16], 13	; 0000000dH

; 891  :             _My_data._Myres  = _Small_string_capacity;

  000d0	c7 41 14 0f 00
	00 00		 mov	 DWORD PTR [ecx+20], 15	; 0000000fH
; File C:\Program Files\Microsoft Visual Studio\2022\Community\VC\Tools\MSVC\14.44.35207\include\__msvc_string_view.hpp

; 121  :         _CSTD memcpy(_First1, _First2, _Count * sizeof(_Elem));

  000d7	f3 0f 7e 05 00
	00 00 00	 movq	 xmm0, QWORD PTR ??_C@_0O@HLPIIHNN@Tahoma?312?4fnt@
  000df	66 0f d6 01	 movq	 QWORD PTR [ecx], xmm0
  000e3	a1 08 00 00 00	 mov	 eax, DWORD PTR ??_C@_0O@HLPIIHNN@Tahoma?312?4fnt@+8
; File C:\Anka2Project\Anka2Project\Source\Binary\source\UserInterface\PythonTextTail.cpp

; 876  : 	TTextTail* pTextTail = RegisterTextTail(VirtualID,

  000e8	f3 0f 10 44 24
	30		 movss	 xmm0, DWORD PTR tv198[esp+68]
  000ee	51		 push	 ecx
; File C:\Program Files\Microsoft Visual Studio\2022\Community\VC\Tools\MSVC\14.44.35207\include\__msvc_string_view.hpp

; 121  :         _CSTD memcpy(_First1, _First2, _Count * sizeof(_Elem));

  000ef	89 41 08	 mov	 DWORD PTR [ecx+8], eax
  000f2	a0 0c 00 00 00	 mov	 al, BYTE PTR ??_C@_0O@HLPIIHNN@Tahoma?312?4fnt@+12
; File C:\Anka2Project\Anka2Project\Source\Binary\source\UserInterface\PythonTextTail.cpp

; 876  : 	TTextTail* pTextTail = RegisterTextTail(VirtualID,

  000f7	f3 0f 11 04 24	 movss	 DWORD PTR [esp], xmm0
  000fc	52		 push	 edx
  000fd	ff 75 0c	 push	 DWORD PTR _c_szChat$[ebp]
; File C:\Program Files\Microsoft Visual Studio\2022\Community\VC\Tools\MSVC\14.44.35207\include\__msvc_string_view.hpp

; 121  :         _CSTD memcpy(_First1, _First2, _Count * sizeof(_Elem));

  00100	88 41 0c	 mov	 BYTE PTR [ecx+12], al
; File C:\Program Files\Microsoft Visual Studio\2022\Community\VC\Tools\MSVC\14.44.35207\include\xstring

; 898  :                 _Traits::assign(_My_data._Bx._Buf[_Count], _Elem());

  00103	c6 41 0d 00	 mov	 BYTE PTR [ecx+13], 0
; File C:\Anka2Project\Anka2Project\Source\Binary\source\UserInterface\PythonTextTail.cpp

; 876  : 	TTextTail* pTextTail = RegisterTextTail(VirtualID,

  00107	8b 4c 24 38	 mov	 ecx, DWORD PTR _this$1$[esp+80]
  0010b	53		 push	 ebx
  0010c	e8 00 00 00 00	 call	 ?RegisterTextTail@CPythonTextTail@@IAEPAUSTextTail@1@KPBDPAVCGraphicObjectInstance@@MABUD3DXCOLOR@@V?$basic_string@DU?$char_traits@D@std@@V?$allocator@D@2@@std@@@Z ; CPythonTextTail::RegisterTextTail
; File C:\Anka2Project\Anka2Project\Source\Binary\source\eterBase\Singleton.h

; 26   : 		assert(ms_singleton);

  00111	8b 0d 00 00 00
	00		 mov	 ecx, DWORD PTR ?ms_singleton@?$CSingleton@VCTimer@@@@0PAVCTimer@@A ; CSingleton<CTimer>::ms_singleton
; File C:\Anka2Project\Anka2Project\Source\Binary\source\UserInterface\PythonTextTail.cpp

; 876  : 	TTextTail* pTextTail = RegisterTextTail(VirtualID,

  00117	8b d8		 mov	 ebx, eax
; File C:\Anka2Project\Anka2Project\Source\Binary\source\eterBase\Singleton.h

; 26   : 		assert(ms_singleton);

  00119	85 c9		 test	 ecx, ecx
  0011b	75 1a		 jne	 SHORT $LN188@RegisterIn
  0011d	6a 1a		 push	 26			; 0000001aH
  0011f	68 00 00 00 00	 push	 OFFSET ??_C@_1IO@CAJLEEOI@?$AAC?$AA?3?$AA?2?$AAA?$AAn?$AAk?$AAa?$AA2?$AAP?$AAr?$AAo?$AAj?$AAe?$AAc?$AAt@
  00124	68 00 00 00 00	 push	 OFFSET ??_C@_1BK@FMEHPMFE@?$AAm?$AAs?$AA_?$AAs?$AAi?$AAn?$AAg?$AAl?$AAe?$AAt?$AAo?$AAn@
  00129	e8 00 00 00 00	 call	 __wassert
  0012e	8b 0d 00 00 00
	00		 mov	 ecx, DWORD PTR ?ms_singleton@?$CSingleton@VCTimer@@@@0PAVCTimer@@A ; CSingleton<CTimer>::ms_singleton
  00134	83 c4 0c	 add	 esp, 12			; 0000000cH
$LN188@RegisterIn:
; File C:\Anka2Project\Anka2Project\Source\Binary\source\UserInterface\PythonTextTail.cpp

; 886  : 	pTextTail->LivingTime = CTimer::Instance().GetCurrentMillisecond() + TextTail_GetLivingTime();

  00137	e8 00 00 00 00	 call	 ?GetCurrentMillisecond@CTimer@@QAEKXZ ; CTimer::GetCurrentMillisecond
  0013c	8b f0		 mov	 esi, eax
  0013e	e8 00 00 00 00	 call	 ?TextTail_GetLivingTime@@YAJXZ ; TextTail_GetLivingTime

; 887  : 
; 888  : 	pTextTail->bNameFlag = FALSE;
; 889  : 	pTextTail->pTextInstance->SetOutline(true);

  00143	8b 4b 04	 mov	 ecx, DWORD PTR [ebx+4]
  00146	03 f0		 add	 esi, eax
  00148	6a 01		 push	 1
  0014a	89 73 68	 mov	 DWORD PTR [ebx+104], esi
  0014d	c7 43 54 00 00
	00 00		 mov	 DWORD PTR [ebx+84], 0
  00154	e8 00 00 00 00	 call	 ?SetOutline@CGraphicTextInstance@@QAEX_N@Z ; CGraphicTextInstance::SetOutline

; 890  : 	pTextTail->pTextInstance->SetVerticalAlign(CGraphicTextInstance::VERTICAL_ALIGN_BOTTOM);

  00159	8b 4b 04	 mov	 ecx, DWORD PTR [ebx+4]
  0015c	6a 30		 push	 48			; 00000030H
  0015e	e8 00 00 00 00	 call	 ?SetVerticalAlign@CGraphicTextInstance@@QAEXH@Z ; CGraphicTextInstance::SetVerticalAlign
; File C:\Program Files\Microsoft Visual Studio\2022\Community\VC\Tools\MSVC\14.44.35207\include\utility

; 274  :         : first(_STD forward<_Other1>(_Val1)), second(_STD forward<_Other2>(_Val2)) {

  00163	8b 45 08	 mov	 eax, DWORD PTR _VirtualID$[ebp]
; File C:\Anka2Project\Anka2Project\Source\Binary\source\UserInterface\PythonTextTail.cpp

; 891  : 	m_ChatTailMap.insert(TTextTailMap::value_type(VirtualID, pTextTail));

  00166	8b cf		 mov	 ecx, edi
; File C:\Program Files\Microsoft Visual Studio\2022\Community\VC\Tools\MSVC\14.44.35207\include\utility

; 274  :         : first(_STD forward<_Other1>(_Val1)), second(_STD forward<_Other2>(_Val2)) {

  00168	89 44 24 1c	 mov	 DWORD PTR $T42[esp+40], eax
; File C:\Anka2Project\Anka2Project\Source\Binary\source\UserInterface\PythonTextTail.cpp

; 891  : 	m_ChatTailMap.insert(TTextTailMap::value_type(VirtualID, pTextTail));

  0016c	8d 44 24 1c	 lea	 eax, DWORD PTR $T42[esp+40]
  00170	50		 push	 eax
  00171	8d 44 24 18	 lea	 eax, DWORD PTR $T44[esp+44]
; File C:\Program Files\Microsoft Visual Studio\2022\Community\VC\Tools\MSVC\14.44.35207\include\utility

; 274  :         : first(_STD forward<_Other1>(_Val1)), second(_STD forward<_Other2>(_Val2)) {

  00175	89 5c 24 24	 mov	 DWORD PTR $T42[esp+48], ebx
; File C:\Anka2Project\Anka2Project\Source\Binary\source\UserInterface\PythonTextTail.cpp

; 891  : 	m_ChatTailMap.insert(TTextTailMap::value_type(VirtualID, pTextTail));

  00179	50		 push	 eax
  0017a	e8 00 00 00 00	 call	 ??$insert@$0A@$0A@@?$_Tree@V?$_Tmap_traits@KPAUSTextTail@CPythonTextTail@@U?$less@K@std@@V?$allocator@U?$pair@$$CBKPAUSTextTail@CPythonTextTail@@@std@@@4@$0A@@std@@@std@@QAE?AU?$pair@V?$_Tree_iterator@V?$_Tree_val@U?$_Tree_simple_types@U?$pair@$$CBKPAUSTextTail@CPythonTextTail@@@std@@@std@@@std@@@std@@_N@1@$$QAU?$pair@$$CBKPAUSTextTail@CPythonTextTail@@@1@@Z ; std::_Tree<std::_Tmap_traits<unsigned long,CPythonTextTail::STextTail *,std::less<unsigned long>,std::allocator<std::pair<unsigned long const ,CPythonTextTail::STextTail *> >,0> >::insert<0,0>
$LN1@RegisterIn:

; 892  : }

  0017f	5f		 pop	 edi
  00180	5e		 pop	 esi
  00181	5b		 pop	 ebx
  00182	8b e5		 mov	 esp, ebp
  00184	5d		 pop	 ebp
  00185	c2 08 00	 ret	 8
?RegisterInfoTail@CPythonTextTail@@QAEXKPBD@Z ENDP	; CPythonTextTail::RegisterInfoTail
_TEXT	ENDS
; Function compile flags: /Ogtp
; File C:\Anka2Project\Anka2Project\Source\Binary\source\eterLib\Pool.h
;	COMDAT ?Delete@?$CDynamicPool@USTextTail@CPythonTextTail@@@@KAXPAUSTextTail@CPythonTextTail@@@Z
_TEXT	SEGMENT
?Delete@?$CDynamicPool@USTextTail@CPythonTextTail@@@@KAXPAUSTextTail@CPythonTextTail@@@Z PROC ; CDynamicPool<CPythonTextTail::STextTail>::Delete, COMDAT
; _pkData$ = ecx

; 85   : 			delete pkData;

  00000	85 c9		 test	 ecx, ecx
  00002	74 06		 je	 SHORT $LN3@Delete
  00004	8b 01		 mov	 eax, DWORD PTR [ecx]
  00006	6a 01		 push	 1
  00008	ff 10		 call	 DWORD PTR [eax]
$LN3@Delete:

; 86   : 		}

  0000a	c3		 ret	 0
?Delete@?$CDynamicPool@USTextTail@CPythonTextTail@@@@KAXPAUSTextTail@CPythonTextTail@@@Z ENDP ; CDynamicPool<CPythonTextTail::STextTail>::Delete
_TEXT	ENDS
END
