; Listing generated by Microsoft (R) Optimizing Compiler Version 19.44.35219.0 

	TITLE	c:\anka2project\anka2project\source\binary\vs_files\userinterface\release\pythoncuberenewal.obj
	.686P
	.XMM
	include listing.inc
	.model	flat

INCLUDELIB OLDNAMES

PUBLIC	??_C@_0BM@PJBOMOEI@BINARY_CUBE_RENEWAL_LOADING@	; `string'
PUBLIC	??_C@_0BC@JIAGBEBB@iibiiiiiiiiiiiiis@		; `string'
PUBLIC	??_C@_0L@CIEKMJJ@CountDates@			; `string'
PUBLIC	??_C@_08LNOBNNMK@GetDates@			; `string'
PUBLIC	??_C@_0BG@NHMBIFPH@SetCubeRenewalHandler@	; `string'
PUBLIC	??_C@_0BE@OEAHAONE@CubeRenewalMakeItem@		; `string'
PUBLIC	??_C@_0BB@KPJNMELL@CubeRenewalClose@		; `string'
PUBLIC	??_C@_0N@EPKEOJEC@cube_renewal@			; `string'
PUBLIC	??_R2CPythonCubeRenewal@@8			; CPythonCubeRenewal::`RTTI Base Class Array'
PUBLIC	??_R2?$CSingleton@VCPythonCubeRenewal@@@@8	; CSingleton<CPythonCubeRenewal>::`RTTI Base Class Array'
PUBLIC	??_R1A@?0A@EA@CPythonCubeRenewal@@8		; CPythonCubeRenewal::`RTTI Base Class Descriptor at (0,-1,0,64)'
PUBLIC	??_R1A@?0A@EA@?$CSingleton@VCPythonCubeRenewal@@@@8 ; CSingleton<CPythonCubeRenewal>::`RTTI Base Class Descriptor at (0,-1,0,64)'
PUBLIC	??_R3?$CSingleton@VCPythonCubeRenewal@@@@8	; CSingleton<CPythonCubeRenewal>::`RTTI Class Hierarchy Descriptor'
PUBLIC	??_R0?AV?$CSingleton@VCPythonCubeRenewal@@@@@8	; CSingleton<CPythonCubeRenewal> `RTTI Type Descriptor'
PUBLIC	??_R3CPythonCubeRenewal@@8			; CPythonCubeRenewal::`RTTI Class Hierarchy Descriptor'
PUBLIC	??_R0?AVCPythonCubeRenewal@@@8			; CPythonCubeRenewal `RTTI Type Descriptor'
PUBLIC	??_R4?$CSingleton@VCPythonCubeRenewal@@@@6B@	; CSingleton<CPythonCubeRenewal>::`RTTI Complete Object Locator'
PUBLIC	??_R4CPythonCubeRenewal@@6B@			; CPythonCubeRenewal::`RTTI Complete Object Locator'
PUBLIC	??_7?$CSingleton@VCPythonCubeRenewal@@@@6B@	; CSingleton<CPythonCubeRenewal>::`vftable'
PUBLIC	?ms_singleton@?$CSingleton@VCPythonCubeRenewal@@@@0PAVCPythonCubeRenewal@@A ; CSingleton<CPythonCubeRenewal>::ms_singleton
PUBLIC	??_7CPythonCubeRenewal@@6B@			; CPythonCubeRenewal::`vftable'
;	COMDAT ?ms_singleton@?$CSingleton@VCPythonCubeRenewal@@@@0PAVCPythonCubeRenewal@@A
_BSS	SEGMENT
?ms_singleton@?$CSingleton@VCPythonCubeRenewal@@@@0PAVCPythonCubeRenewal@@A DD 01H DUP (?) ; CSingleton<CPythonCubeRenewal>::ms_singleton
_BSS	ENDS
;	COMDAT ??_7CPythonCubeRenewal@@6B@
CONST	SEGMENT
??_7CPythonCubeRenewal@@6B@ DD FLAT:??_R4CPythonCubeRenewal@@6B@ ; CPythonCubeRenewal::`vftable'
	DD	FLAT:??_ECPythonCubeRenewal@@UAEPAXI@Z
CONST	ENDS
;	COMDAT ?s_methods@?1??intcuberenewal@@YAXXZ@4PAUPyMethodDef@@A
_DATA	SEGMENT
?s_methods@?1??intcuberenewal@@YAXXZ@4PAUPyMethodDef@@A DD FLAT:??_C@_0L@CIEKMJJ@CountDates@ ; `intcuberenewal'::`2'::s_methods
	DD	FLAT:?GetCountCubeRenewalList@@YAPAU_object@@PAU1@0@Z
	DD	01H
	ORG $+4
	DD	FLAT:??_C@_08LNOBNNMK@GetDates@
	DD	FLAT:?GetCubeRenewalDates@@YAPAU_object@@PAU1@0@Z
	DD	01H
	ORG $+4
	DD	FLAT:??_C@_0BG@NHMBIFPH@SetCubeRenewalHandler@
	DD	FLAT:?SetCubeRenewalHandler@@YAPAU_object@@PAU1@0@Z
	DD	01H
	ORG $+4
	DD	FLAT:??_C@_0BE@OEAHAONE@CubeRenewalMakeItem@
	DD	FLAT:?CubeRenewalMakeItem@@YAPAU_object@@PAU1@0@Z
	DD	01H
	ORG $+4
	DD	FLAT:??_C@_0BB@KPJNMELL@CubeRenewalClose@
	DD	FLAT:?CubeRenewalClose@@YAPAU_object@@PAU1@0@Z
	DD	01H
	ORG $+4
	DD	00H
	DD	00H
	ORG $+8
_DATA	ENDS
;	COMDAT ??_7?$CSingleton@VCPythonCubeRenewal@@@@6B@
CONST	SEGMENT
??_7?$CSingleton@VCPythonCubeRenewal@@@@6B@ DD FLAT:??_R4?$CSingleton@VCPythonCubeRenewal@@@@6B@ ; CSingleton<CPythonCubeRenewal>::`vftable'
	DD	FLAT:??_E?$CSingleton@VCPythonCubeRenewal@@@@UAEPAXI@Z
CONST	ENDS
;	COMDAT ??_R4CPythonCubeRenewal@@6B@
rdata$r	SEGMENT
??_R4CPythonCubeRenewal@@6B@ DD 00H			; CPythonCubeRenewal::`RTTI Complete Object Locator'
	DD	00H
	DD	00H
	DD	FLAT:??_R0?AVCPythonCubeRenewal@@@8
	DD	FLAT:??_R3CPythonCubeRenewal@@8
rdata$r	ENDS
;	COMDAT ??_R4?$CSingleton@VCPythonCubeRenewal@@@@6B@
rdata$r	SEGMENT
??_R4?$CSingleton@VCPythonCubeRenewal@@@@6B@ DD 00H	; CSingleton<CPythonCubeRenewal>::`RTTI Complete Object Locator'
	DD	00H
	DD	00H
	DD	FLAT:??_R0?AV?$CSingleton@VCPythonCubeRenewal@@@@@8
	DD	FLAT:??_R3?$CSingleton@VCPythonCubeRenewal@@@@8
rdata$r	ENDS
;	COMDAT ??_R0?AVCPythonCubeRenewal@@@8
data$rs	SEGMENT
??_R0?AVCPythonCubeRenewal@@@8 DD FLAT:??_7type_info@@6B@ ; CPythonCubeRenewal `RTTI Type Descriptor'
	DD	00H
	DB	'.?AVCPythonCubeRenewal@@', 00H
data$rs	ENDS
;	COMDAT ??_R3CPythonCubeRenewal@@8
rdata$r	SEGMENT
??_R3CPythonCubeRenewal@@8 DD 00H			; CPythonCubeRenewal::`RTTI Class Hierarchy Descriptor'
	DD	00H
	DD	02H
	DD	FLAT:??_R2CPythonCubeRenewal@@8
rdata$r	ENDS
;	COMDAT ??_R0?AV?$CSingleton@VCPythonCubeRenewal@@@@@8
data$rs	SEGMENT
??_R0?AV?$CSingleton@VCPythonCubeRenewal@@@@@8 DD FLAT:??_7type_info@@6B@ ; CSingleton<CPythonCubeRenewal> `RTTI Type Descriptor'
	DD	00H
	DB	'.?AV?$CSingleton@VCPythonCubeRenewal@@@@', 00H
data$rs	ENDS
;	COMDAT ??_R3?$CSingleton@VCPythonCubeRenewal@@@@8
rdata$r	SEGMENT
??_R3?$CSingleton@VCPythonCubeRenewal@@@@8 DD 00H	; CSingleton<CPythonCubeRenewal>::`RTTI Class Hierarchy Descriptor'
	DD	00H
	DD	01H
	DD	FLAT:??_R2?$CSingleton@VCPythonCubeRenewal@@@@8
rdata$r	ENDS
;	COMDAT ??_R1A@?0A@EA@?$CSingleton@VCPythonCubeRenewal@@@@8
rdata$r	SEGMENT
??_R1A@?0A@EA@?$CSingleton@VCPythonCubeRenewal@@@@8 DD FLAT:??_R0?AV?$CSingleton@VCPythonCubeRenewal@@@@@8 ; CSingleton<CPythonCubeRenewal>::`RTTI Base Class Descriptor at (0,-1,0,64)'
	DD	00H
	DD	00H
	DD	0ffffffffH
	DD	00H
	DD	040H
	DD	FLAT:??_R3?$CSingleton@VCPythonCubeRenewal@@@@8
rdata$r	ENDS
;	COMDAT ??_R1A@?0A@EA@CPythonCubeRenewal@@8
rdata$r	SEGMENT
??_R1A@?0A@EA@CPythonCubeRenewal@@8 DD FLAT:??_R0?AVCPythonCubeRenewal@@@8 ; CPythonCubeRenewal::`RTTI Base Class Descriptor at (0,-1,0,64)'
	DD	01H
	DD	00H
	DD	0ffffffffH
	DD	00H
	DD	040H
	DD	FLAT:??_R3CPythonCubeRenewal@@8
rdata$r	ENDS
;	COMDAT ??_R2?$CSingleton@VCPythonCubeRenewal@@@@8
rdata$r	SEGMENT
??_R2?$CSingleton@VCPythonCubeRenewal@@@@8 DD FLAT:??_R1A@?0A@EA@?$CSingleton@VCPythonCubeRenewal@@@@8 ; CSingleton<CPythonCubeRenewal>::`RTTI Base Class Array'
rdata$r	ENDS
;	COMDAT ??_R2CPythonCubeRenewal@@8
rdata$r	SEGMENT
??_R2CPythonCubeRenewal@@8 DD FLAT:??_R1A@?0A@EA@CPythonCubeRenewal@@8 ; CPythonCubeRenewal::`RTTI Base Class Array'
	DD	FLAT:??_R1A@?0A@EA@?$CSingleton@VCPythonCubeRenewal@@@@8
rdata$r	ENDS
;	COMDAT ??_C@_0N@EPKEOJEC@cube_renewal@
CONST	SEGMENT
??_C@_0N@EPKEOJEC@cube_renewal@ DB 'cube_renewal', 00H	; `string'
CONST	ENDS
;	COMDAT ??_C@_0BB@KPJNMELL@CubeRenewalClose@
CONST	SEGMENT
??_C@_0BB@KPJNMELL@CubeRenewalClose@ DB 'CubeRenewalClose', 00H ; `string'
CONST	ENDS
;	COMDAT ??_C@_0BE@OEAHAONE@CubeRenewalMakeItem@
CONST	SEGMENT
??_C@_0BE@OEAHAONE@CubeRenewalMakeItem@ DB 'CubeRenewalMakeItem', 00H ; `string'
CONST	ENDS
;	COMDAT ??_C@_0BG@NHMBIFPH@SetCubeRenewalHandler@
CONST	SEGMENT
??_C@_0BG@NHMBIFPH@SetCubeRenewalHandler@ DB 'SetCubeRenewalHandler', 00H ; `string'
CONST	ENDS
;	COMDAT ??_C@_08LNOBNNMK@GetDates@
CONST	SEGMENT
??_C@_08LNOBNNMK@GetDates@ DB 'GetDates', 00H		; `string'
CONST	ENDS
;	COMDAT ??_C@_0L@CIEKMJJ@CountDates@
CONST	SEGMENT
??_C@_0L@CIEKMJJ@CountDates@ DB 'CountDates', 00H	; `string'
CONST	ENDS
;	COMDAT ??_C@_0BC@JIAGBEBB@iibiiiiiiiiiiiiis@
CONST	SEGMENT
??_C@_0BC@JIAGBEBB@iibiiiiiiiiiiiiis@ DB 'iibiiiiiiiiiiiiis', 00H ; `string'
CONST	ENDS
;	COMDAT ??_C@_0BM@PJBOMOEI@BINARY_CUBE_RENEWAL_LOADING@
CONST	SEGMENT
??_C@_0BM@PJBOMOEI@BINARY_CUBE_RENEWAL_LOADING@ DB 'BINARY_CUBE_RENEWAL_L'
	DB	'OADING', 00H				; `string'
PUBLIC	??$construct_at@Udates_cube_renewal@@U1@@std@@YAPAUdates_cube_renewal@@QAU1@$$QAU1@@Z ; std::construct_at<dates_cube_renewal,dates_cube_renewal>
PUBLIC	?_Get_first@?$_Compressed_pair@V?$allocator@Udates_cube_renewal@@@std@@V?$_Vector_val@U?$_Simple_types@Udates_cube_renewal@@@std@@@2@$00@std@@QBEABV?$allocator@Udates_cube_renewal@@@2@XZ ; std::_Compressed_pair<std::allocator<dates_cube_renewal>,std::_Vector_val<std::_Simple_types<dates_cube_renewal> >,1>::_Get_first
PUBLIC	??$_Get_size_of_n@$0KG@@std@@YAII@Z		; std::_Get_size_of_n<166>
PUBLIC	??$construct@Udates_cube_renewal@@U1@@?$_Default_allocator_traits@V?$allocator@Udates_cube_renewal@@@std@@@std@@SAXAAV?$allocator@Udates_cube_renewal@@@1@QAUdates_cube_renewal@@$$QAU3@@Z ; std::_Default_allocator_traits<std::allocator<dates_cube_renewal> >::construct<dates_cube_renewal,dates_cube_renewal>
PUBLIC	??$forward@Udates_cube_renewal@@@std@@YA$$QAUdates_cube_renewal@@AAU1@@Z ; std::forward<dates_cube_renewal>
PUBLIC	??$_Copy_memmove_tail@PAUdates_cube_renewal@@@std@@YAPAUdates_cube_renewal@@QBDQAU1@II@Z ; std::_Copy_memmove_tail<dates_cube_renewal *>
PUBLIC	??$move@AAPAUdates_cube_renewal@@@std@@YA$$QAPAUdates_cube_renewal@@AAPAU1@@Z ; std::move<dates_cube_renewal * &>
PUBLIC	??$to_address@Udates_cube_renewal@@@std@@YAPAUdates_cube_renewal@@QAU1@@Z ; std::to_address<dates_cube_renewal>
PUBLIC	?allocate@?$allocator@Udates_cube_renewal@@@std@@QAEPAUdates_cube_renewal@@I@Z ; std::allocator<dates_cube_renewal>::allocate
PUBLIC	?capacity@?$vector@Udates_cube_renewal@@V?$allocator@Udates_cube_renewal@@@std@@@std@@QBEIXZ ; std::vector<dates_cube_renewal,std::allocator<dates_cube_renewal> >::capacity
PUBLIC	?_Getal@?$vector@Udates_cube_renewal@@V?$allocator@Udates_cube_renewal@@@std@@@std@@ABEABV?$allocator@Udates_cube_renewal@@@2@XZ ; std::vector<dates_cube_renewal,std::allocator<dates_cube_renewal> >::_Getal
PUBLIC	?max_size@?$_Default_allocator_traits@V?$allocator@Udates_cube_renewal@@@std@@@std@@SAIABV?$allocator@Udates_cube_renewal@@@2@@Z ; std::_Default_allocator_traits<std::allocator<dates_cube_renewal> >::max_size
PUBLIC	??0?$_Uninitialized_backout_al@V?$allocator@Udates_cube_renewal@@@std@@@std@@QAE@PAUdates_cube_renewal@@AAV?$allocator@Udates_cube_renewal@@@1@@Z ; std::_Uninitialized_backout_al<std::allocator<dates_cube_renewal> >::_Uninitialized_backout_al<std::allocator<dates_cube_renewal> >
PUBLIC	??1?$_Uninitialized_backout_al@V?$allocator@Udates_cube_renewal@@@std@@@std@@QAE@XZ ; std::_Uninitialized_backout_al<std::allocator<dates_cube_renewal> >::~_Uninitialized_backout_al<std::allocator<dates_cube_renewal> >
PUBLIC	?_Release@?$_Uninitialized_backout_al@V?$allocator@Udates_cube_renewal@@@std@@@std@@QAEPAUdates_cube_renewal@@XZ ; std::_Uninitialized_backout_al<std::allocator<dates_cube_renewal> >::_Release
PUBLIC	??$_Emplace_back@Udates_cube_renewal@@@?$_Uninitialized_backout_al@V?$allocator@Udates_cube_renewal@@@std@@@std@@QAEX$$QAUdates_cube_renewal@@@Z ; std::_Uninitialized_backout_al<std::allocator<dates_cube_renewal> >::_Emplace_back<dates_cube_renewal>
PUBLIC	??$_To_address@PAUdates_cube_renewal@@@std@@YA?A_PABQAUdates_cube_renewal@@@Z ; std::_To_address<dates_cube_renewal *>
PUBLIC	??$_Copy_memmove@PAUdates_cube_renewal@@PAU1@@std@@YAPAUdates_cube_renewal@@PAU1@00@Z ; std::_Copy_memmove<dates_cube_renewal *,dates_cube_renewal *>
PUBLIC	??$move@AAUdates_cube_renewal@@@std@@YA$$QAUdates_cube_renewal@@AAU1@@Z ; std::move<dates_cube_renewal &>
PUBLIC	??$construct_at@Udates_cube_renewal@@ABU1@@std@@YAPAUdates_cube_renewal@@QAU1@ABU1@@Z ; std::construct_at<dates_cube_renewal,dates_cube_renewal const &>
PUBLIC	??$addressof@Udates_cube_renewal@@@std@@YAPAUdates_cube_renewal@@AAU1@@Z ; std::addressof<dates_cube_renewal>
PUBLIC	?max_size@?$vector@Udates_cube_renewal@@V?$allocator@Udates_cube_renewal@@@std@@@std@@QBEIXZ ; std::vector<dates_cube_renewal,std::allocator<dates_cube_renewal> >::max_size
PUBLIC	?_Calculate_growth@?$vector@Udates_cube_renewal@@V?$allocator@Udates_cube_renewal@@@std@@@std@@ABEII@Z ; std::vector<dates_cube_renewal,std::allocator<dates_cube_renewal> >::_Calculate_growth
PUBLIC	?_Change_array@?$vector@Udates_cube_renewal@@V?$allocator@Udates_cube_renewal@@@std@@@std@@AAEXQAUdates_cube_renewal@@II@Z ; std::vector<dates_cube_renewal,std::allocator<dates_cube_renewal> >::_Change_array
PUBLIC	?_Xlength@?$vector@Udates_cube_renewal@@V?$allocator@Udates_cube_renewal@@@std@@@std@@CAXXZ ; std::vector<dates_cube_renewal,std::allocator<dates_cube_renewal> >::_Xlength
PUBLIC	?_Orphan_range@?$vector@Udates_cube_renewal@@V?$allocator@Udates_cube_renewal@@@std@@@std@@ABEXPAUdates_cube_renewal@@0@Z ; std::vector<dates_cube_renewal,std::allocator<dates_cube_renewal> >::_Orphan_range
PUBLIC	??1_Reallocation_guard@?$vector@Udates_cube_renewal@@V?$allocator@Udates_cube_renewal@@@std@@@std@@QAE@XZ ; std::vector<dates_cube_renewal,std::allocator<dates_cube_renewal> >::_Reallocation_guard::~_Reallocation_guard
PUBLIC	??$_Uninitialized_move@PAUdates_cube_renewal@@V?$allocator@Udates_cube_renewal@@@std@@@std@@YAPAUdates_cube_renewal@@QAU1@0PAU1@AAV?$allocator@Udates_cube_renewal@@@0@@Z ; std::_Uninitialized_move<dates_cube_renewal *,std::allocator<dates_cube_renewal> >
PUBLIC	??$_Get_unwrapped@ABQAUdates_cube_renewal@@@std@@YA?A_TABQAUdates_cube_renewal@@@Z ; std::_Get_unwrapped<dates_cube_renewal * const &>
PUBLIC	??$construct@Udates_cube_renewal@@ABU1@@?$_Default_allocator_traits@V?$allocator@Udates_cube_renewal@@@std@@@std@@SAXAAV?$allocator@Udates_cube_renewal@@@1@QAUdates_cube_renewal@@ABU3@@Z ; std::_Default_allocator_traits<std::allocator<dates_cube_renewal> >::construct<dates_cube_renewal,dates_cube_renewal const &>
PUBLIC	??$_Unfancy@Udates_cube_renewal@@@std@@YAPAUdates_cube_renewal@@PAU1@@Z ; std::_Unfancy<dates_cube_renewal>
PUBLIC	??$_Allocate_at_least_helper@V?$allocator@Udates_cube_renewal@@@std@@@std@@YAPAUdates_cube_renewal@@AAV?$allocator@Udates_cube_renewal@@@0@AAI@Z ; std::_Allocate_at_least_helper<std::allocator<dates_cube_renewal> >
PUBLIC	??$_Construct_in_place@Udates_cube_renewal@@ABU1@@std@@YAXAAUdates_cube_renewal@@ABU1@@Z ; std::_Construct_in_place<dates_cube_renewal,dates_cube_renewal const &>
PUBLIC	??0?$allocator@Udates_cube_renewal@@@std@@QAE@XZ ; std::allocator<dates_cube_renewal>::allocator<dates_cube_renewal>
PUBLIC	?deallocate@?$allocator@Udates_cube_renewal@@@std@@QAEXQAUdates_cube_renewal@@I@Z ; std::allocator<dates_cube_renewal>::deallocate
PUBLIC	??0?$_Vector_val@U?$_Simple_types@Udates_cube_renewal@@@std@@@std@@QAE@XZ ; std::_Vector_val<std::_Simple_types<dates_cube_renewal> >::_Vector_val<std::_Simple_types<dates_cube_renewal> >
PUBLIC	?_Get_first@?$_Compressed_pair@V?$allocator@Udates_cube_renewal@@@std@@V?$_Vector_val@U?$_Simple_types@Udates_cube_renewal@@@std@@@2@$00@std@@QAEAAV?$allocator@Udates_cube_renewal@@@2@XZ ; std::_Compressed_pair<std::allocator<dates_cube_renewal>,std::_Vector_val<std::_Simple_types<dates_cube_renewal> >,1>::_Get_first
PUBLIC	??$_Emplace_reallocate@ABUdates_cube_renewal@@@?$vector@Udates_cube_renewal@@V?$allocator@Udates_cube_renewal@@@std@@@std@@AAEPAUdates_cube_renewal@@QAU2@ABU2@@Z ; std::vector<dates_cube_renewal,std::allocator<dates_cube_renewal> >::_Emplace_reallocate<dates_cube_renewal const &>
PUBLIC	??$_Emplace_back_with_unused_capacity@ABUdates_cube_renewal@@@?$vector@Udates_cube_renewal@@V?$allocator@Udates_cube_renewal@@@std@@@std@@AAEAAUdates_cube_renewal@@ABU2@@Z ; std::vector<dates_cube_renewal,std::allocator<dates_cube_renewal> >::_Emplace_back_with_unused_capacity<dates_cube_renewal const &>
PUBLIC	??$forward@ABUdates_cube_renewal@@@std@@YAABUdates_cube_renewal@@ABU1@@Z ; std::forward<dates_cube_renewal const &>
PUBLIC	?_Tidy@?$vector@Udates_cube_renewal@@V?$allocator@Udates_cube_renewal@@@std@@@std@@AAEXXZ ; std::vector<dates_cube_renewal,std::allocator<dates_cube_renewal> >::_Tidy
PUBLIC	?_Getal@?$vector@Udates_cube_renewal@@V?$allocator@Udates_cube_renewal@@@std@@@std@@AAEAAV?$allocator@Udates_cube_renewal@@@2@XZ ; std::vector<dates_cube_renewal,std::allocator<dates_cube_renewal> >::_Getal
PUBLIC	??$?0$$V@?$_Compressed_pair@V?$allocator@Udates_cube_renewal@@@std@@V?$_Vector_val@U?$_Simple_types@Udates_cube_renewal@@@std@@@2@$00@std@@QAE@U_Zero_then_variadic_args_t@1@@Z ; std::_Compressed_pair<std::allocator<dates_cube_renewal>,std::_Vector_val<std::_Simple_types<dates_cube_renewal> >,1>::_Compressed_pair<std::allocator<dates_cube_renewal>,std::_Vector_val<std::_Simple_types<dates_cube_renewal> >,1><>
PUBLIC	??$_Emplace_one_at_back@ABUdates_cube_renewal@@@?$vector@Udates_cube_renewal@@V?$allocator@Udates_cube_renewal@@@std@@@std@@AAEAAUdates_cube_renewal@@ABU2@@Z ; std::vector<dates_cube_renewal,std::allocator<dates_cube_renewal> >::_Emplace_one_at_back<dates_cube_renewal const &>
PUBLIC	??$_Destroy_range@V?$allocator@Udates_cube_renewal@@@std@@@std@@YAXPAUdates_cube_renewal@@QAU1@AAV?$allocator@Udates_cube_renewal@@@0@@Z ; std::_Destroy_range<std::allocator<dates_cube_renewal> >
PUBLIC	??_G?$CSingleton@VCPythonCubeRenewal@@@@UAEPAXI@Z ; CSingleton<CPythonCubeRenewal>::`scalar deleting destructor'
PUBLIC	??0?$CSingleton@VCPythonCubeRenewal@@@@QAE@XZ	; CSingleton<CPythonCubeRenewal>::CSingleton<CPythonCubeRenewal>
PUBLIC	??1?$CSingleton@VCPythonCubeRenewal@@@@UAE@XZ	; CSingleton<CPythonCubeRenewal>::~CSingleton<CPythonCubeRenewal>
PUBLIC	?Instance@?$CSingleton@VCPythonCubeRenewal@@@@SAAAVCPythonCubeRenewal@@XZ ; CSingleton<CPythonCubeRenewal>::Instance
PUBLIC	??0?$vector@Udates_cube_renewal@@V?$allocator@Udates_cube_renewal@@@std@@@std@@QAE@XZ ; std::vector<dates_cube_renewal,std::allocator<dates_cube_renewal> >::vector<dates_cube_renewal,std::allocator<dates_cube_renewal> >
PUBLIC	??1?$vector@Udates_cube_renewal@@V?$allocator@Udates_cube_renewal@@@std@@@std@@QAE@XZ ; std::vector<dates_cube_renewal,std::allocator<dates_cube_renewal> >::~vector<dates_cube_renewal,std::allocator<dates_cube_renewal> >
PUBLIC	?push_back@?$vector@Udates_cube_renewal@@V?$allocator@Udates_cube_renewal@@@std@@@std@@QAEXABUdates_cube_renewal@@@Z ; std::vector<dates_cube_renewal,std::allocator<dates_cube_renewal> >::push_back
PUBLIC	?clear@?$vector@Udates_cube_renewal@@V?$allocator@Udates_cube_renewal@@@std@@@std@@QAEXXZ ; std::vector<dates_cube_renewal,std::allocator<dates_cube_renewal> >::clear
PUBLIC	?size@?$vector@Udates_cube_renewal@@V?$allocator@Udates_cube_renewal@@@std@@@std@@QBEIXZ ; std::vector<dates_cube_renewal,std::allocator<dates_cube_renewal> >::size
PUBLIC	??A?$vector@Udates_cube_renewal@@V?$allocator@Udates_cube_renewal@@@std@@@std@@QBEABUdates_cube_renewal@@I@Z ; std::vector<dates_cube_renewal,std::allocator<dates_cube_renewal> >::operator[]
PUBLIC	?intcuberenewal@@YAXXZ				; intcuberenewal
PUBLIC	?CubeRenewalClose@@YAPAU_object@@PAU1@0@Z	; CubeRenewalClose
PUBLIC	?CubeRenewalMakeItem@@YAPAU_object@@PAU1@0@Z	; CubeRenewalMakeItem
PUBLIC	?SetCubeRenewalHandler@@YAPAU_object@@PAU1@0@Z	; SetCubeRenewalHandler
PUBLIC	?GetCubeRenewalDates@@YAPAU_object@@PAU1@0@Z	; GetCubeRenewalDates
PUBLIC	?GetCountCubeRenewalList@@YAPAU_object@@PAU1@0@Z ; GetCountCubeRenewalList
PUBLIC	?GetList@CPythonCubeRenewal@@QAEABV?$vector@Udates_cube_renewal@@V?$allocator@Udates_cube_renewal@@@std@@@std@@XZ ; CPythonCubeRenewal::GetList
PUBLIC	?GetCountList@CPythonCubeRenewal@@QAEHXZ	; CPythonCubeRenewal::GetCountList
PUBLIC	?ReceiveList@CPythonCubeRenewal@@QAEXABUdates_cube_renewal@@@Z ; CPythonCubeRenewal::ReceiveList
PUBLIC	?ClearList@CPythonCubeRenewal@@QAEXXZ		; CPythonCubeRenewal::ClearList
PUBLIC	?LoadingList@CPythonCubeRenewal@@QAEXXZ		; CPythonCubeRenewal::LoadingList
PUBLIC	??_GCPythonCubeRenewal@@UAEPAXI@Z		; CPythonCubeRenewal::`scalar deleting destructor'
PUBLIC	?SetCubeRenewalHandler@CPythonCubeRenewal@@QAEXPAU_object@@@Z ; CPythonCubeRenewal::SetCubeRenewalHandler
PUBLIC	??0CPythonCubeRenewal@@QAE@XZ			; CPythonCubeRenewal::CPythonCubeRenewal
PUBLIC	??1CPythonCubeRenewal@@UAE@XZ			; CPythonCubeRenewal::~CPythonCubeRenewal
EXTRN	??_ECPythonCubeRenewal@@UAEPAXI@Z:PROC		; CPythonCubeRenewal::`vector deleting destructor'
EXTRN	??_E?$CSingleton@VCPythonCubeRenewal@@@@UAEPAXI@Z:PROC ; CSingleton<CPythonCubeRenewal>::`vector deleting destructor'
; Function compile flags: /Ogtp
; File C:\Anka2Project\Anka2Project\Source\Binary\source\UserInterface\PythonCubeRenewal.cpp
;	COMDAT ?LoadingList@CPythonCubeRenewal@@QAEXXZ
_TEXT	SEGMENT
?LoadingList@CPythonCubeRenewal@@QAEXXZ PROC		; CPythonCubeRenewal::LoadingList, COMDAT
; _this$ = ecx

; 21   : {

  00000	56		 push	 esi
  00001	8b f1		 mov	 esi, ecx

; 22   : 	if (m_CubeRenewalHandler)

  00003	83 7e 10 00	 cmp	 DWORD PTR [esi+16], 0
  00007	74 1c		 je	 SHORT $LN2@LoadingLis

; 23   : 		PyCallClassMemberFunc(m_CubeRenewalHandler, "BINARY_CUBE_RENEWAL_LOADING", Py_BuildValue("()"));

  00009	68 00 00 00 00	 push	 OFFSET ??_C@_02HCKGKOFO@?$CI?$CJ@
  0000e	ff 15 00 00 00
	00		 call	 DWORD PTR __imp__Py_BuildValue
  00014	50		 push	 eax
  00015	68 00 00 00 00	 push	 OFFSET ??_C@_0BM@PJBOMOEI@BINARY_CUBE_RENEWAL_LOADING@
  0001a	ff 76 10	 push	 DWORD PTR [esi+16]
  0001d	e8 00 00 00 00	 call	 ?PyCallClassMemberFunc@@YA_NPAU_object@@PBD0@Z ; PyCallClassMemberFunc
  00022	83 c4 10	 add	 esp, 16			; 00000010H
$LN2@LoadingLis:

; 24   : }

  00025	5e		 pop	 esi
  00026	c3		 ret	 0
?LoadingList@CPythonCubeRenewal@@QAEXXZ ENDP		; CPythonCubeRenewal::LoadingList
_TEXT	ENDS
; Function compile flags: /Ogtp
; File C:\Anka2Project\Anka2Project\Source\Binary\source\UserInterface\PythonCubeRenewal.cpp
; File C:\Anka2Project\Anka2Project\Source\Binary\source\eterBase\Singleton.h
; File C:\Anka2Project\Anka2Project\Source\Binary\source\UserInterface\PythonCubeRenewal.cpp
;	COMDAT ?GetCountCubeRenewalList@@YAPAU_object@@PAU1@0@Z
_TEXT	SEGMENT
_poSelf$ = 8						; size = 4
_poArgs$ = 12						; size = 4
?GetCountCubeRenewalList@@YAPAU_object@@PAU1@0@Z PROC	; GetCountCubeRenewalList, COMDAT
; File C:\Anka2Project\Anka2Project\Source\Binary\source\eterBase\Singleton.h

; 26   : 		assert(ms_singleton);

  00000	8b 0d 00 00 00
	00		 mov	 ecx, DWORD PTR ?ms_singleton@?$CSingleton@VCPythonCubeRenewal@@@@0PAVCPythonCubeRenewal@@A ; CSingleton<CPythonCubeRenewal>::ms_singleton
  00006	85 c9		 test	 ecx, ecx
  00008	75 1a		 jne	 SHORT $LN5@GetCountCu
  0000a	6a 1a		 push	 26			; 0000001aH
  0000c	68 00 00 00 00	 push	 OFFSET ??_C@_1IO@CAJLEEOI@?$AAC?$AA?3?$AA?2?$AAA?$AAn?$AAk?$AAa?$AA2?$AAP?$AAr?$AAo?$AAj?$AAe?$AAc?$AAt@
  00011	68 00 00 00 00	 push	 OFFSET ??_C@_1BK@FMEHPMFE@?$AAm?$AAs?$AA_?$AAs?$AAi?$AAn?$AAg?$AAl?$AAe?$AAt?$AAo?$AAn@
  00016	e8 00 00 00 00	 call	 __wassert
  0001b	8b 0d 00 00 00
	00		 mov	 ecx, DWORD PTR ?ms_singleton@?$CSingleton@VCPythonCubeRenewal@@@@0PAVCPythonCubeRenewal@@A ; CSingleton<CPythonCubeRenewal>::ms_singleton
  00021	83 c4 0c	 add	 esp, 12			; 0000000cH
$LN5@GetCountCu:
; File C:\Anka2Project\Anka2Project\Source\Binary\source\UserInterface\PythonCubeRenewal.cpp

; 48   : 	return Py_BuildValue("i", CPythonCubeRenewal::Instance().GetCountList());

  00024	e8 00 00 00 00	 call	 ?GetCountList@CPythonCubeRenewal@@QAEHXZ ; CPythonCubeRenewal::GetCountList
  00029	50		 push	 eax
  0002a	68 00 00 00 00	 push	 OFFSET ??_C@_01KBJDNOO@i@
  0002f	ff 15 00 00 00
	00		 call	 DWORD PTR __imp__Py_BuildValue
  00035	83 c4 08	 add	 esp, 8

; 49   : }

  00038	c3		 ret	 0
?GetCountCubeRenewalList@@YAPAU_object@@PAU1@0@Z ENDP	; GetCountCubeRenewalList
_TEXT	ENDS
; Function compile flags: /Ogtp
; File C:\Anka2Project\Anka2Project\Source\Binary\source\UserInterface\PythonCubeRenewal.cpp
; File C:\Anka2Project\Anka2Project\Source\Binary\source\eterBase\Singleton.h
; File C:\Anka2Project\Anka2Project\Source\Binary\source\UserInterface\PythonCubeRenewal.cpp
; File C:\Program Files\Microsoft Visual Studio\2022\Community\VC\Tools\MSVC\14.44.35207\include\vector
; File C:\Anka2Project\Anka2Project\Source\Binary\source\UserInterface\PythonCubeRenewal.cpp
; File C:\Program Files\Microsoft Visual Studio\2022\Community\VC\Tools\MSVC\14.44.35207\include\vector
; File C:\Anka2Project\Anka2Project\Source\Binary\source\UserInterface\PythonCubeRenewal.cpp
; File C:\Program Files\Microsoft Visual Studio\2022\Community\VC\Tools\MSVC\14.44.35207\include\vector
; File C:\Anka2Project\Anka2Project\Source\Binary\source\UserInterface\PythonCubeRenewal.cpp
;	COMDAT ?GetCubeRenewalDates@@YAPAU_object@@PAU1@0@Z
_TEXT	SEGMENT
_index$ = -4						; size = 4
_poSelf$ = 8						; size = 4
_poArgs$ = 12						; size = 4
?GetCubeRenewalDates@@YAPAU_object@@PAU1@0@Z PROC	; GetCubeRenewalDates, COMDAT

; 52   : {

  00000	55		 push	 ebp
  00001	8b ec		 mov	 ebp, esp
  00003	51		 push	 ecx

; 53   : 	int index;
; 54   : 	if (!PyTuple_GetInteger(poArgs, 0, &index))

  00004	8d 45 fc	 lea	 eax, DWORD PTR _index$[ebp]
  00007	50		 push	 eax
  00008	6a 00		 push	 0
  0000a	ff 75 0c	 push	 DWORD PTR _poArgs$[ebp]
  0000d	e8 00 00 00 00	 call	 ?PyTuple_GetInteger@@YA_NPAU_object@@HPAH@Z ; PyTuple_GetInteger
  00012	83 c4 0c	 add	 esp, 12			; 0000000cH
  00015	84 c0		 test	 al, al
  00017	75 0e		 jne	 SHORT $LN2@GetCubeRen

; 55   : 		return Py_BuildException();

  00019	6a 00		 push	 0
  0001b	e8 00 00 00 00	 call	 ?Py_BuildException@@YAPAU_object@@PBDZZ ; Py_BuildException
  00020	83 c4 04	 add	 esp, 4

; 64   : 		CRenewalItemVector.vnum_reward,
; 65   : 		CRenewalItemVector.count_reward,
; 66   : 		CRenewalItemVector.item_reward_stackable,
; 67   : 		CRenewalItemVector.vnum_material_1,
; 68   : 		CRenewalItemVector.count_material_1,
; 69   : 		CRenewalItemVector.vnum_material_2,
; 70   : 		CRenewalItemVector.count_material_2,
; 71   : 		CRenewalItemVector.vnum_material_3,
; 72   : 		CRenewalItemVector.count_material_3,
; 73   : 		CRenewalItemVector.vnum_material_4,
; 74   : 		CRenewalItemVector.count_material_4,
; 75   : 		CRenewalItemVector.vnum_material_5,
; 76   : 		CRenewalItemVector.count_material_5,
; 77   : 		CRenewalItemVector.gold,
; 78   : 		CRenewalItemVector.percent,
; 79   : 		CRenewalItemVector.allowCopyAttr,
; 80   : 		CRenewalItemVector.category
; 81   : 		);
; 82   : }

  00023	8b e5		 mov	 esp, ebp
  00025	5d		 pop	 ebp
  00026	c3		 ret	 0
$LN2@GetCubeRen:
; File C:\Anka2Project\Anka2Project\Source\Binary\source\eterBase\Singleton.h

; 26   : 		assert(ms_singleton);

  00027	8b 0d 00 00 00
	00		 mov	 ecx, DWORD PTR ?ms_singleton@?$CSingleton@VCPythonCubeRenewal@@@@0PAVCPythonCubeRenewal@@A ; CSingleton<CPythonCubeRenewal>::ms_singleton
  0002d	85 c9		 test	 ecx, ecx
  0002f	75 1a		 jne	 SHORT $LN7@GetCubeRen
  00031	6a 1a		 push	 26			; 0000001aH
  00033	68 00 00 00 00	 push	 OFFSET ??_C@_1IO@CAJLEEOI@?$AAC?$AA?3?$AA?2?$AAA?$AAn?$AAk?$AAa?$AA2?$AAP?$AAr?$AAo?$AAj?$AAe?$AAc?$AAt@
  00038	68 00 00 00 00	 push	 OFFSET ??_C@_1BK@FMEHPMFE@?$AAm?$AAs?$AA_?$AAs?$AAi?$AAn?$AAg?$AAl?$AAe?$AAt?$AAo?$AAn@
  0003d	e8 00 00 00 00	 call	 __wassert
  00042	8b 0d 00 00 00
	00		 mov	 ecx, DWORD PTR ?ms_singleton@?$CSingleton@VCPythonCubeRenewal@@@@0PAVCPythonCubeRenewal@@A ; CSingleton<CPythonCubeRenewal>::ms_singleton
  00048	83 c4 0c	 add	 esp, 12			; 0000000cH
$LN7@GetCubeRen:
  0004b	56		 push	 esi
; File C:\Anka2Project\Anka2Project\Source\Binary\source\UserInterface\PythonCubeRenewal.cpp

; 57   : 	const CPythonCubeRenewal::TInfoStrucCubeRenewal & CRItemVector = CPythonCubeRenewal::Instance().GetList();

  0004c	e8 00 00 00 00	 call	 ?GetList@CPythonCubeRenewal@@QAEABV?$vector@Udates_cube_renewal@@V?$allocator@Udates_cube_renewal@@@std@@@std@@XZ ; CPythonCubeRenewal::GetList
; File C:\Program Files\Microsoft Visual Studio\2022\Community\VC\Tools\MSVC\14.44.35207\include\vector

; 1915 :         return static_cast<size_type>(_My_data._Mylast - _My_data._Myfirst);

  00051	8b 48 04	 mov	 ecx, DWORD PTR [eax+4]
  00054	8b 30		 mov	 esi, DWORD PTR [eax]
  00056	2b ce		 sub	 ecx, esi
  00058	b8 1f 72 59 31	 mov	 eax, 827945503		; 3159721fH
  0005d	f7 e9		 imul	 ecx
; File C:\Anka2Project\Anka2Project\Source\Binary\source\UserInterface\PythonCubeRenewal.cpp

; 58   : 	if (DWORD(index) >= CRItemVector.size())

  0005f	8b 4d fc	 mov	 ecx, DWORD PTR _index$[ebp]
; File C:\Program Files\Microsoft Visual Studio\2022\Community\VC\Tools\MSVC\14.44.35207\include\vector

; 1915 :         return static_cast<size_type>(_My_data._Mylast - _My_data._Myfirst);

  00062	c1 fa 05	 sar	 edx, 5
  00065	8b c2		 mov	 eax, edx
  00067	c1 e8 1f	 shr	 eax, 31			; 0000001fH
  0006a	03 c2		 add	 eax, edx
; File C:\Anka2Project\Anka2Project\Source\Binary\source\UserInterface\PythonCubeRenewal.cpp

; 58   : 	if (DWORD(index) >= CRItemVector.size())

  0006c	3b c8		 cmp	 ecx, eax
  0006e	72 38		 jb	 SHORT $LN3@GetCubeRen

; 59   : 		return Py_BuildValue("iibiiiiiiiiiiiiis",0,0,false,0,0,0,0,0,0,0,0,0,0,0,0,false,"None");

  00070	68 00 00 00 00	 push	 OFFSET ??_C@_04OHJIHAFH@None@
  00075	6a 00		 push	 0
  00077	6a 00		 push	 0
  00079	6a 00		 push	 0
  0007b	6a 00		 push	 0
  0007d	6a 00		 push	 0
  0007f	6a 00		 push	 0
  00081	6a 00		 push	 0
  00083	6a 00		 push	 0
  00085	6a 00		 push	 0
  00087	6a 00		 push	 0
  00089	6a 00		 push	 0
  0008b	6a 00		 push	 0
  0008d	6a 00		 push	 0
  0008f	6a 00		 push	 0
  00091	6a 00		 push	 0
  00093	6a 00		 push	 0

; 63   : 	return Py_BuildValue("iibiiiiiiiiiiiiis",

  00095	68 00 00 00 00	 push	 OFFSET ??_C@_0BC@JIAGBEBB@iibiiiiiiiiiiiiis@
  0009a	ff 15 00 00 00
	00		 call	 DWORD PTR __imp__Py_BuildValue
  000a0	83 c4 48	 add	 esp, 72			; 00000048H
  000a3	5e		 pop	 esi

; 64   : 		CRenewalItemVector.vnum_reward,
; 65   : 		CRenewalItemVector.count_reward,
; 66   : 		CRenewalItemVector.item_reward_stackable,
; 67   : 		CRenewalItemVector.vnum_material_1,
; 68   : 		CRenewalItemVector.count_material_1,
; 69   : 		CRenewalItemVector.vnum_material_2,
; 70   : 		CRenewalItemVector.count_material_2,
; 71   : 		CRenewalItemVector.vnum_material_3,
; 72   : 		CRenewalItemVector.count_material_3,
; 73   : 		CRenewalItemVector.vnum_material_4,
; 74   : 		CRenewalItemVector.count_material_4,
; 75   : 		CRenewalItemVector.vnum_material_5,
; 76   : 		CRenewalItemVector.count_material_5,
; 77   : 		CRenewalItemVector.gold,
; 78   : 		CRenewalItemVector.percent,
; 79   : 		CRenewalItemVector.allowCopyAttr,
; 80   : 		CRenewalItemVector.category
; 81   : 		);
; 82   : }

  000a4	8b e5		 mov	 esp, ebp
  000a6	5d		 pop	 ebp
  000a7	c3		 ret	 0
$LN3@GetCubeRen:
; File C:\Program Files\Microsoft Visual Studio\2022\Community\VC\Tools\MSVC\14.44.35207\include\vector

; 1944 :         return _My_data._Myfirst[_Pos];

  000a8	69 c9 a6 00 00
	00		 imul	 ecx, ecx, 166
  000ae	03 ce		 add	 ecx, esi
; File C:\Anka2Project\Anka2Project\Source\Binary\source\UserInterface\PythonCubeRenewal.cpp

; 63   : 	return Py_BuildValue("iibiiiiiiiiiiiiis",

  000b0	8d 41 42	 lea	 eax, DWORD PTR [ecx+66]
  000b3	50		 push	 eax
  000b4	0f b6 41 41	 movzx	 eax, BYTE PTR [ecx+65]
  000b8	50		 push	 eax
  000b9	ff 71 3d	 push	 DWORD PTR [ecx+61]
  000bc	0f b6 41 10	 movzx	 eax, BYTE PTR [ecx+16]
  000c0	ff 71 39	 push	 DWORD PTR [ecx+57]
  000c3	ff 71 35	 push	 DWORD PTR [ecx+53]
  000c6	ff 71 31	 push	 DWORD PTR [ecx+49]
  000c9	ff 71 2d	 push	 DWORD PTR [ecx+45]
  000cc	ff 71 29	 push	 DWORD PTR [ecx+41]
  000cf	ff 71 25	 push	 DWORD PTR [ecx+37]
  000d2	ff 71 21	 push	 DWORD PTR [ecx+33]
  000d5	ff 71 1d	 push	 DWORD PTR [ecx+29]
  000d8	ff 71 19	 push	 DWORD PTR [ecx+25]
  000db	ff 71 15	 push	 DWORD PTR [ecx+21]
  000de	ff 71 11	 push	 DWORD PTR [ecx+17]
  000e1	50		 push	 eax
  000e2	ff 71 0c	 push	 DWORD PTR [ecx+12]
  000e5	ff 71 08	 push	 DWORD PTR [ecx+8]
  000e8	68 00 00 00 00	 push	 OFFSET ??_C@_0BC@JIAGBEBB@iibiiiiiiiiiiiiis@
  000ed	ff 15 00 00 00
	00		 call	 DWORD PTR __imp__Py_BuildValue
  000f3	83 c4 48	 add	 esp, 72			; 00000048H
  000f6	5e		 pop	 esi

; 64   : 		CRenewalItemVector.vnum_reward,
; 65   : 		CRenewalItemVector.count_reward,
; 66   : 		CRenewalItemVector.item_reward_stackable,
; 67   : 		CRenewalItemVector.vnum_material_1,
; 68   : 		CRenewalItemVector.count_material_1,
; 69   : 		CRenewalItemVector.vnum_material_2,
; 70   : 		CRenewalItemVector.count_material_2,
; 71   : 		CRenewalItemVector.vnum_material_3,
; 72   : 		CRenewalItemVector.count_material_3,
; 73   : 		CRenewalItemVector.vnum_material_4,
; 74   : 		CRenewalItemVector.count_material_4,
; 75   : 		CRenewalItemVector.vnum_material_5,
; 76   : 		CRenewalItemVector.count_material_5,
; 77   : 		CRenewalItemVector.gold,
; 78   : 		CRenewalItemVector.percent,
; 79   : 		CRenewalItemVector.allowCopyAttr,
; 80   : 		CRenewalItemVector.category
; 81   : 		);
; 82   : }

  000f7	8b e5		 mov	 esp, ebp
  000f9	5d		 pop	 ebp
  000fa	c3		 ret	 0
?GetCubeRenewalDates@@YAPAU_object@@PAU1@0@Z ENDP	; GetCubeRenewalDates
_TEXT	ENDS
; Function compile flags: /Ogtp
; File C:\Anka2Project\Anka2Project\Source\Binary\source\UserInterface\PythonCubeRenewal.cpp
;	COMDAT ?intcuberenewal@@YAXXZ
_TEXT	SEGMENT
?intcuberenewal@@YAXXZ PROC				; intcuberenewal, COMDAT

; 124  : 	static PyMethodDef s_methods[] =
; 125  : 	{
; 126  : 		{ "CountDates",						GetCountCubeRenewalList,					METH_VARARGS },
; 127  : 		{ "GetDates", 						GetCubeRenewalDates, 						METH_VARARGS },
; 128  : 		{ "SetCubeRenewalHandler",			SetCubeRenewalHandler,						METH_VARARGS },
; 129  : 		{ "CubeRenewalMakeItem",			CubeRenewalMakeItem,						METH_VARARGS },
; 130  : 		{ "CubeRenewalClose",				CubeRenewalClose,							METH_VARARGS},
; 131  : 
; 132  : 		{ nullptr, nullptr },
; 133  : 	};
; 134  : 
; 135  : 	PyObject *poModule = Py_InitModule("cube_renewal", s_methods);

  00000	68 f5 03 00 00	 push	 1013			; 000003f5H
  00005	6a 00		 push	 0
  00007	6a 00		 push	 0
  00009	68 00 00 00 00	 push	 OFFSET ?s_methods@?1??intcuberenewal@@YAXXZ@4PAUPyMethodDef@@A
  0000e	68 00 00 00 00	 push	 OFFSET ??_C@_0N@EPKEOJEC@cube_renewal@
  00013	ff 15 00 00 00
	00		 call	 DWORD PTR __imp__Py_InitModule4
  00019	83 c4 14	 add	 esp, 20			; 00000014H

; 136  : }

  0001c	c3		 ret	 0
?intcuberenewal@@YAXXZ ENDP				; intcuberenewal
_TEXT	ENDS
END
