; Listing generated by Microsoft (R) Optimizing Compiler Version 19.44.35219.0 

	TITLE	c:\anka2project\anka2project\source\binary\vs_files\userinterface\release\pythonnetworkstreammodule.obj
	.686P
	.XMM
	include listing.inc
	.model	flat

INCLUDELIB OLDNAMES

PUBLIC	??_C@_0EE@CPCFCFHF@netSendGuildRemoveMemberPacket?$CI@ ; `string'
PUBLIC	??_C@_1LM@DEDABKEH@?$AAC?$AA?3?$AA?2?$AAA?$AAn?$AAk?$AAa?$AA2?$AAP?$AAr?$AAo?$AAj?$AAe?$AAc?$AAt@ ; `string'
PUBLIC	??_C@_0EC@PJNHBNOL@netSendRequestRefineInfoPacket?5@ ; `string'
PUBLIC	??_C@_03JELCABFN@iOO@				; `string'
PUBLIC	??_C@_1IK@MBMLBACD@?$AA?$CB?$AA?$CC?$AAn?$AAe?$AAt?$AAS?$AAe?$AAn?$AAd?$AAR?$AAe?$AAq?$AAu?$AAe?$AAs@ ; `string'
PUBLIC	??_C@_0BH@LKCAJGCH@EnableChatInsultFilter@	; `string'
PUBLIC	??_C@_0BI@HFMJEOAC@GetBettingGuildWarValue@	; `string'
PUBLIC	??_C@_0O@ODBJLKOA@GetServerInfo@		; `string'
PUBLIC	??_C@_0O@JMAHAJJH@SetServerInfo@		; `string'
PUBLIC	??_C@_0BK@PJDKKIPH@GetPreservedServerCommand@	; `string'
PUBLIC	??_C@_0BG@NJCKCHAI@PreserveServerCommand@	; `string'
PUBLIC	??_C@_04EIDOEOJH@Warp@				; `string'
PUBLIC	??_C@_09CFNAMFEF@StartGame@			; `string'
PUBLIC	??_C@_0P@EPNPIBON@IsChatInsultIn@		; `string'
PUBLIC	??_C@_0O@OFMEOEDD@SetMarkServer@		; `string'
PUBLIC	??_C@_0P@NAIDDMMD@LoadInsultList@		; `string'
PUBLIC	??_C@_0L@CJJGFLBC@IsInsultIn@			; `string'
PUBLIC	??_C@_0N@OBKBFHKO@UploadSymbol@			; `string'
PUBLIC	??_C@_0L@JEGFHCJL@UploadMark@			; `string'
PUBLIC	??_C@_0BA@BPHKBGOL@GetMainActorVID@		; `string'
PUBLIC	??_C@_0M@GGDMINDM@GetEmpireID@			; `string'
PUBLIC	??_C@_0BD@JOIEFGML@GetMainActorEmpire@		; `string'
PUBLIC	??_C@_0BB@ICEJKPHA@GetMainActorRace@		; `string'
PUBLIC	??_C@_0CD@PJJNPONG@GetAccountCharacterSlotDataInte@ ; `string'
PUBLIC	??_C@_0BH@GCCMJIJB@GetMainActorSkillGroup@	; `string'
PUBLIC	??_C@_0BG@NAMIDKHD@GetFieldMusicFileName@	; `string'
PUBLIC	??_C@_0CC@DLIFIOE@GetAccountCharacterSlotDataStri@ ; `string'
PUBLIC	??_C@_0BE@BCCLDKB@ToggleGameDebugInfo@		; `string'
PUBLIC	??_C@_0BE@MHKBLINM@GetFieldMusicVolume@		; `string'
PUBLIC	??_C@_0P@EKNNFAK@SetPhaseWindow@		; `string'
PUBLIC	??_C@_0N@GLEGMFLM@SetLoginInfo@			; `string'
PUBLIC	??_C@_0BN@KOOLAHFA@SetServerCommandParserWindow@ ; `string'
PUBLIC	??_C@_0BB@NNDKGCIK@ClearPhaseWindow@		; `string'
PUBLIC	??_C@_0L@EELFNDHB@SetHandler@			; `string'
PUBLIC	??_C@_0BL@NJAILJBB@SetAccountConnectorHandler@	; `string'
PUBLIC	??_C@_0BF@LOLMIHDO@SetTCPSendBufferSize@	; `string'
PUBLIC	??_C@_0BF@KAEIEPML@SetTCPRecvBufferSize@	; `string'
PUBLIC	??_C@_0M@PAACKIAL@DirectEnter@			; `string'
PUBLIC	??_C@_0BF@GPIIIFGB@SetUDPRecvBufferSize@	; `string'
PUBLIC	??_C@_08ENBHLCHD@ExitGame@			; `string'
PUBLIC	??_C@_0L@LPFGMFBP@LogOutGame@			; `string'
PUBLIC	??_C@_0L@HNEKCIDO@ConnectTCP@			; `string'
PUBLIC	??_C@_0BA@ILFBLEPH@ExitApplication@		; `string'
PUBLIC	??_C@_0BH@CIOLKAIG@ConnectToAccountServer@	; `string'
PUBLIC	??_C@_0L@MALJFJNO@ConnectUDP@			; `string'
PUBLIC	??_C@_0BH@IIELEKKA@SendSelectEmpirePacket@	; `string'
PUBLIC	??_C@_0BA@CNDIKGCL@SendLoginPacket@		; `string'
PUBLIC	??_C@_0BF@ODLJDBF@SendChangeNamePacket@		; `string'
PUBLIC	??_C@_0BK@MIKAHKDI@SendSelectCharacterPacket@	; `string'
PUBLIC	??_C@_0BL@PMHPNGGJ@SendDestroyCharacterPacket@	; `string'
PUBLIC	??_C@_0BK@NPKEAJJ@SendCreateCharacterPacket@	; `string'
PUBLIC	??_C@_0BC@NHAKBOCP@SendItemUsePacket@		; `string'
PUBLIC	??_C@_0BE@NBECPFPH@SendEnterGamePacket@		; `string'
PUBLIC	??_C@_0BD@ICCAOJBA@SendItemDropPacket@		; `string'
PUBLIC	??_C@_0BI@OBDMDOIB@SendItemUseToItemPacket@	; `string'
PUBLIC	??_C@_0BC@NEDFAOHK@SendElkDropPacket@		; `string'
PUBLIC	??_C@_0BG@PNFNACGL@SendItemDropPacketNew@	; `string'
PUBLIC	??_C@_0BD@BPAFBGKI@SendItemMovePacket@		; `string'
PUBLIC	??_C@_0BG@ONKCIEDE@SendGoldDropPacketNew@	; `string'
PUBLIC	??_C@_0BD@FMAJCJM@SendGiveItemPacket@		; `string'
PUBLIC	??_C@_0BF@PJHEIMI@SendItemPickUpPacket@		; `string'
PUBLIC	??_C@_0L@CMGJAGDM@Disconnect@			; `string'
PUBLIC	??_C@_0BA@NKMDDBDL@SetOfflinePhase@		; `string'
PUBLIC	??_C@_0P@FJOINOIH@SendChatPacket@		; `string'
PUBLIC	??_C@_09HENONEEN@IsConnect@			; `string'
PUBLIC	??_C@_0BC@KNMEABPD@SendWhisperPacket@		; `string'
PUBLIC	??_C@_0N@BJHGOHPC@SendEmoticon@			; `string'
PUBLIC	??_C@_0BC@HEOMKCAE@SendShopEndPacket@		; `string'
PUBLIC	??_C@_0BM@KAMAKIKL@SendCharacterPositionPacket@	; `string'
PUBLIC	??_C@_0BD@BFMEHPEE@SendShopSellPacket@		; `string'
PUBLIC	??_C@_0BC@FPBLEBCL@SendShopBuyPacket@		; `string'
PUBLIC	??_C@_0BI@BGNKGFKO@SendExchangeStartPacket@	; `string'
PUBLIC	??_C@_0BG@BGJEIPGN@SendShopSellPacketNew@	; `string'
PUBLIC	??_C@_0BK@KKOEHGGC@SendExchangeItemDelPacket@	; `string'
PUBLIC	??_C@_0BK@IIFDLCNA@SendExchangeItemAddPacket@	; `string'
PUBLIC	??_C@_0BJ@OFKJBLDC@SendExchangeAcceptPacket@	; `string'
PUBLIC	??_C@_0BJ@CGGGIOGM@SendExchangeElkAddPacket@	; `string'
PUBLIC	??_C@_0BC@FMJHAGEI@SendOnClickPacket@		; `string'
PUBLIC	??_C@_0BH@NCONKHHB@SendExchangeExitPacket@	; `string'
PUBLIC	??_C@_0BM@CFLPIFFM@SendMessengerAddByVIDPacket@	; `string'
PUBLIC	??_C@_0BH@MCKLKDJM@RegisterEmoticonString@	; `string'
PUBLIC	??_C@_0BK@GIIDGGBB@SendMessengerRemovePacket@	; `string'
PUBLIC	??_C@_0BN@MPMOLLL@SendMessengerAddByNamePacket@	; `string'
PUBLIC	??_C@_0BP@CFBLDODE@SendMessengerBlockRemovePacket@ ; `string'
PUBLIC	??_C@_0CB@KIPMMBOF@SendMessengerBlockAddByVIDPacke@ ; `string'
PUBLIC	??_C@_0CE@JAGCNDAI@SendMessengerBlockRemoveByVIDPa@ ; `string'
PUBLIC	??_C@_0CC@LOMMKDNH@SendMessengerBlockAddByNamePack@ ; `string'
PUBLIC	??_C@_0BM@PFAFFBJO@SendPartyInviteAnswerPacket@	; `string'
PUBLIC	??_C@_0BG@IFGKMOED@SendPartyInvitePacket@	; `string'
PUBLIC	??_C@_0BG@JAJGIHK@SendPartyRemovePacket@	; `string'
PUBLIC	??_C@_0BE@JHFPDGFP@SendPartyExitPacket@		; `string'
PUBLIC	??_C@_0BI@EONDHFJL@SendPartyUseSkillPacket@	; `string'
PUBLIC	??_C@_0BI@LNEGCCFH@SendPartySetStatePacket@	; `string'
PUBLIC	??_C@_0BL@CAAOLIHO@SendSafeboxSaveMoneyPacket@	; `string'
PUBLIC	??_C@_0BJ@JGBOMHFI@SendPartyParameterPacket@	; `string'
PUBLIC	??_C@_0BJ@HNJCKALG@SendSafeboxCheckinPacket@	; `string'
PUBLIC	??_C@_0BP@MLAJADAA@SendSafeboxWithdrawMoneyPacket@ ; `string'
PUBLIC	??_C@_0BK@JMMAEJFJ@SendSafeboxItemMovePacket@	; `string'
PUBLIC	??_C@_0BK@LJAMACPE@SendSafeboxCheckoutPacket@	; `string'
PUBLIC	??_C@_0BL@BJLFPMAE@SendQuestInputStringPacket@	; `string'
PUBLIC	??_C@_0BH@BDNDNKGE@SendMallCheckoutPacket@	; `string'
PUBLIC	??_C@_0BJ@MFJNIJIJ@SendGuildAddMemberPacket@	; `string'
PUBLIC	??_C@_0BH@HMDNFHNB@SendQuestConfirmPacket@	; `string'
PUBLIC	??_C@_0BP@ODLEJFMG@SendGuildChangeGradeNamePacket@ ; `string'
PUBLIC	??_C@_0BM@GAJEHHNG@SendGuildRemoveMemberPacket@	; `string'
PUBLIC	??_C@_0BF@OAFAHAKB@SendGuildOfferPacket@	; `string'
PUBLIC	??_C@_0CE@EFLFPPCO@SendGuildChangeGradeAuthorityPa@ ; `string'
PUBLIC	??_C@_0BN@MBNLMFLO@SendGuildDeleteCommentPacket@ ; `string'
PUBLIC	??_C@_0BL@JLEHIONL@SendGuildPostCommentPacket@	; `string'
PUBLIC	??_C@_0CB@KOIDGNFC@SendGuildChangeMemberGradePacke@ ; `string'
PUBLIC	??_C@_0BP@BKEOCNGM@SendGuildRefreshCommentsPacket@ ; `string'
PUBLIC	??_C@_0CD@BMLIKMKL@SendGuildChangeMemberGeneralPac@ ; `string'
PUBLIC	??_C@_0BI@HICDMLJH@SendGuildUseSkillPacket@	; `string'
PUBLIC	??_C@_0BJ@LKJGDIEE@SendGuildChargeGSPPacket@	; `string'
PUBLIC	??_C@_0BM@KLBFEJBI@SendGuildInviteAnswerPacket@	; `string'
PUBLIC	??_C@_0BN@BPJGBHPL@SendGuildWithdrawMoneyPacket@ ; `string'
PUBLIC	??_C@_0BM@HDHMFNNO@SendGuildDepositMoneyPacket@	; `string'
PUBLIC	??_C@_0BB@MBCAEHJO@SendRefinePacket@		; `string'
PUBLIC	??_C@_0BM@NLIMKJKK@SendRequestRefineInfoPacket@	; `string'
PUBLIC	??_C@_0BG@HLIDKLKJ@SetPacketSequenceMode@	; `string'
PUBLIC	??_C@_0BF@HEJDCMFH@SendSelectItemPacket@	; `string'
PUBLIC	??_C@_0BC@NOAKHLIH@SetSkillGroupFake@		; `string'
PUBLIC	??_C@_0BG@KCIMJDEA@SetEmpireLanguageMode@	; `string'
PUBLIC	??_C@_0BL@HLJICMNL@SendItemNewAttributePacket@	; `string'
PUBLIC	??_C@_0BB@CABIEEGM@RegisterErrorLog@		; `string'
PUBLIC	??_C@_0BD@NCAGLKGI@SendItemSellPacket@		; `string'
PUBLIC	??_C@_0BG@LMAHKAGJ@SendItemDestroyPacket@	; `string'
PUBLIC	??_C@_0M@BMMLELAG@SetLanguage@			; `string'
PUBLIC	??_C@_0BJ@JLPIJBCL@SendChangeLanguagePacket@	; `string'
PUBLIC	??_C@_0BD@CADFDBKC@SendWhisperDetails@		; `string'
PUBLIC	??_C@_0M@BDNFJNIF@GetLanguage@			; `string'
PUBLIC	??_C@_0CA@DMDCCOLJ@SendMessengerSummonByNamePacket@ ; `string'
PUBLIC	??_C@_0CF@DBCMLGOB@SendMessengerRequestWarpByNameP@ ; `string'
PUBLIC	??_C@_0BC@MKMPHPEO@SendChestDropInfo@		; `string'
PUBLIC	??_C@_0BD@FJEJICMG@SendTargetInfoLoad@		; `string'
PUBLIC	??_C@_0BF@EGLLPLHB@SendRequestEventData@	; `string'
PUBLIC	??_C@_0BG@FNGLKDCN@SendRequestEventQuest@	; `string'
PUBLIC	??_C@_0BN@FGANJKPC@SendExtBattlePassPremiumItem@ ; `string'
PUBLIC	??_C@_0BI@OCAOJHPJ@SendExtBattlePassAction@	; `string'
PUBLIC	??_C@_0BJ@IPOHLOKL@SendOfflineShopBuyPacket@	; `string'
PUBLIC	??_C@_0BJ@KEBAFNIE@SendOfflineShopEndPacket@	; `string'
PUBLIC	??_C@_0BK@MHCHACHJ@SendRemoveOfflineShopItem@	; `string'
PUBLIC	??_C@_0BH@OAFMCCNO@SendAddOfflineShopItem@	; `string'
PUBLIC	??_C@_0BF@FGMFPANA@SendTakeOfflineMoney@	; `string'
PUBLIC	??_C@_0BH@MIDGLPNJ@SendDestroyOfflineShop@	; `string'
PUBLIC	??_C@_0BF@IDFHMEFI@SendOfflineShopCheck@	; `string'
PUBLIC	??_C@_0BL@IBEDKCND@SendOfflineShopChangeTitle@	; `string'
PUBLIC	??_C@_0BK@BHBMOPGA@SendOfflineShopRemoveLogs@	; `string'
PUBLIC	??_C@_0BG@BADFKLBC@SendOfflineShopButton@	; `string'
PUBLIC	??_C@_0BB@CCPJMAB@SendGetBackItems@		; `string'
PUBLIC	??_C@_0BB@DODFFFJG@SendOpenShopSlot@		; `string'
PUBLIC	??_C@_0BA@GINOFKMH@SendOpenWithVID@		; `string'
PUBLIC	??_C@_0M@PKHOJOKH@SendAddTime@			; `string'
PUBLIC	??_C@_0BP@EMBKKKAC@SendQuestInputStringLongPacket@ ; `string'
PUBLIC	??_C@_0BK@MFBNGEKH@SendPrivateShopSearchInfo@	; `string'
PUBLIC	??_C@_0P@HANGMIDD@RegisterSkills@		; `string'
PUBLIC	??_C@_0BF@IBLIMNKE@LoadResourcesInCache@	; `string'
PUBLIC	??_C@_0BH@DAGPIIGN@SendAuraRefineCheckOut@	; `string'
PUBLIC	??_C@_0BG@CAKEIGOC@SendAuraRefineCheckIn@	; `string'
PUBLIC	??_C@_0BF@NDLLIABO@SendAuraRefineCancel@	; `string'
PUBLIC	??_C@_0BF@EMOBFCJD@SendAuraRefineAccept@	; `string'
PUBLIC	??_C@_0BC@DPPMLCAB@SendPetFeedPacket@		; `string'
PUBLIC	??_C@_0BA@EKELKFID@CheckUsePetItem@		; `string'
PUBLIC	??_C@_0BM@GAONBPGD@SendPetHatchingWindowPacket@	; `string'
PUBLIC	??_C@_0BG@CAPLAGOH@SendPetHatchingPacket@	; `string'
PUBLIC	??_C@_0BO@CHBKNLKN@SendPetNameChangeWindowPacket@ ; `string'
PUBLIC	??_C@_0BI@EBDKMLFG@SendPetNameChangePacket@	; `string'
PUBLIC	??_C@_0BC@JMDGNLBA@SendPetLearnSkill@		; `string'
PUBLIC	??_C@_0BC@ODGMFKGN@SendPetWindowType@		; `string'
PUBLIC	??_C@_0BD@GMMPELPL@SendPetDeleteSkill@		; `string'
PUBLIC	??_C@_0BL@KHAOMOFC@SendPetSkillUpgradeRequest@	; `string'
PUBLIC	??_C@_0BF@IELOFHOB@SendPetAttrDetermine@	; `string'
PUBLIC	??_C@_0BG@PCKLFOPF@SendPetDeleteAllSkill@	; `string'
PUBLIC	??_C@_0O@FEFPMGMH@SendPetRevive@		; `string'
PUBLIC	??_C@_0BC@LDLOKAHN@SendPetAttrChange@		; `string'
PUBLIC	??_C@_0BH@BFIJMALG@SendChangeLookCheckOut@	; `string'
PUBLIC	??_C@_0BG@KJDOPNFA@SendChangeLookCheckIn@	; `string'
PUBLIC	??_C@_0CD@CGFABPFC@SendChangeLookCheckOutFreeYangI@ ; `string'
PUBLIC	??_C@_0CC@KAHMBMII@SendChangeLookCheckInFreeYangIt@ ; `string'
PUBLIC	??_C@_0BF@OEMKPNHP@SendChangeLookCanCle@	; `string'
PUBLIC	??_C@_0BF@FLBAAAK@SendChangeLookAccept@		; `string'
PUBLIC	??_C@_0L@LILDODAP@ERROR_NONE@			; `string'
PUBLIC	??_C@_0BC@BHMNHCBE@SendHuntingAction@		; `string'
PUBLIC	??_C@_0BA@NEJKKBEJ@ERROR_LOAD_MARK@		; `string'
PUBLIC	??_C@_0BK@BILAANNF@ERROR_CONNECT_MARK_SERVER@	; `string'
PUBLIC	??_C@_0BC@GOIIBBEJ@ERROR_MARK_HEIGHT@		; `string'
PUBLIC	??_C@_0BB@FEGLKDMB@ERROR_MARK_WIDTH@		; `string'
PUBLIC	??_C@_0CA@JMHMMKLO@ERROR_MARK_CHECK_NEED_RECONNECT@ ; `string'
PUBLIC	??_C@_0CB@BOPIDGGI@ERROR_MARK_UPLOAD_NEED_RECONNEC@ ; `string'
PUBLIC	??_C@_0BE@EBCKEIDN@PHASE_WINDOW_SELECT@		; `string'
PUBLIC	??_C@_0BD@JBLBGAIB@PHASE_WINDOW_LOGIN@		; `string'
PUBLIC	??_C@_0BC@PFELHICG@PHASE_WINDOW_LOAD@		; `string'
PUBLIC	??_C@_0BE@PAOFIFBD@PHASE_WINDOW_CREATE@		; `string'
PUBLIC	??_C@_0BE@IIMEMMI@PHASE_WINDOW_EMPIRE@		; `string'
PUBLIC	??_C@_0BC@HCEFPGCB@PHASE_WINDOW_GAME@		; `string'
PUBLIC	??_C@_0BK@HDGGAJBJ@ACCOUNT_CHARACTER_SLOT_ID@	; `string'
PUBLIC	??_C@_0BC@BCDCNNFP@PHASE_WINDOW_LOGO@		; `string'
PUBLIC	??_C@_0BM@DNOALMKC@ACCOUNT_CHARACTER_SLOT_RACE@	; `string'
PUBLIC	??_C@_0BM@JCGOOLCL@ACCOUNT_CHARACTER_SLOT_NAME@	; `string'
PUBLIC	??_C@_0BL@MPBHOFJE@ACCOUNT_CHARACTER_SLOT_STR@	; `string'
PUBLIC	??_C@_0BN@MPLCEAPH@ACCOUNT_CHARACTER_SLOT_LEVEL@ ; `string'
PUBLIC	??_C@_0BL@LHFINDEP@ACCOUNT_CHARACTER_SLOT_INT@	; `string'
PUBLIC	??_C@_0BL@OFNCKLHP@ACCOUNT_CHARACTER_SLOT_DEX@	; `string'
PUBLIC	??_C@_0CA@KFILFMPG@ACCOUNT_CHARACTER_SLOT_PLAYTIME@ ; `string'
PUBLIC	??_C@_0BL@PICCMPNB@ACCOUNT_CHARACTER_SLOT_HTH@	; `string'
PUBLIC	??_C@_0BM@CNLCDDNB@ACCOUNT_CHARACTER_SLOT_ADDR@	; `string'
PUBLIC	??_C@_0BM@JNGCLJJM@ACCOUNT_CHARACTER_SLOT_FORM@	; `string'
PUBLIC	??_C@_0CA@GFKKICFN@ACCOUNT_CHARACTER_SLOT_GUILD_ID@ ; `string'
PUBLIC	??_C@_0BM@OJMCHCKG@ACCOUNT_CHARACTER_SLOT_PORT@	; `string'
PUBLIC	??_C@_0CI@NIHCCHJE@ACCOUNT_CHARACTER_SLOT_CHANGE_N@ ; `string'
PUBLIC	??_C@_0CC@HMBBCNEO@ACCOUNT_CHARACTER_SLOT_GUILD_NA@ ; `string'
PUBLIC	??_C@_0BM@LAKJJJHL@ACCOUNT_CHARACTER_SLOT_ACCE@	; `string'
PUBLIC	??_C@_0BM@BPKEDCMB@ACCOUNT_CHARACTER_SLOT_HAIR@	; `string'
PUBLIC	??_C@_0CF@GNEHPDHB@ACCOUNT_CHARACTER_SLOT_LAST_PLA@ ; `string'
PUBLIC	??_C@_0BM@LMFDJNHL@ACCOUNT_CHARACTER_SLOT_AURA@	; `string'
PUBLIC	??_C@_0BH@IJCJGIEO@SERVER_COMMAND_LOG_OUT@	; `string'
PUBLIC	??_C@_0CA@IIDLBDLK@ACCOUNT_CHARACTER_SLOT_MAPINDEX@ ; `string'
PUBLIC	??_C@_0BE@FCDHFIHM@SERVER_COMMAND_QUIT@		; `string'
PUBLIC	??_C@_0CK@IDBHOJE@SERVER_COMMAND_RETURN_TO_SELECT@ ; `string'
PUBLIC	??_C@_08HPFPLIJI@EMPIRE_B@			; `string'
PUBLIC	??_C@_08FEHCOLFL@EMPIRE_A@			; `string'
PUBLIC	??_C@_0BK@IMPJEABP@DS_SUB_HEADER_REFINE_FAIL@	; `string'
PUBLIC	??_C@_08GGEEIJNJ@EMPIRE_C@			; `string'
PUBLIC	??_C@_0CL@CHMHFOOJ@DS_SUB_HEADER_REFINE_FAIL_INVAL@ ; `string'
PUBLIC	??_C@_0CF@NHMIOPGD@DS_SUB_HEADER_REFINE_FAIL_MAX_R@ ; `string'
PUBLIC	??_C@_0CO@HIKHGDBM@DS_SUB_HEADER_REFINE_FAIL_NOT_E@ ; `string'
PUBLIC	??_C@_0CL@DKLCPNME@DS_SUB_HEADER_REFINE_FAIL_NOT_E@ ; `string'
PUBLIC	??_C@_0BN@OJONLPHM@DS_SUB_HEADER_REFINE_SUCCEED@ ; `string'
PUBLIC	??_C@_0CM@PJCLJBCJ@DS_SUB_HEADER_REFINE_FAIL_TOO_M@ ; `string'
PUBLIC	??_C@_0BE@JDFPADGF@BIOLOG_MANAGER_SEND@		; `string'
PUBLIC	??_C@_0BE@KHDCNJCA@BIOLOG_MANAGER_OPEN@		; `string'
PUBLIC	??_C@_0BF@HOEEONGC@BIOLOG_MANAGER_TIMER@	; `string'
EXTRN	__Cnd_do_broadcast_at_thread_exit:PROC
EXTRN	__beginthreadex:PROC
EXTRN	__imp__PyList_GetItem:PROC
EXTRN	__imp__PyList_Size:PROC
EXTRN	__imp__PyArg_ParseTuple:PROC
EXTRN	?SetPacketSequenceMode@CNetworkStream@@QAEX_N@Z:PROC ; CNetworkStream::SetPacketSequenceMode
EXTRN	?PyTuple_GetLongLong@@YA_NPAU_object@@HPA_J@Z:PROC ; PyTuple_GetLongLong
EXTRN	?MAX@@YAHHH@Z:PROC				; MAX
EXTRN	?_Throw_Cpp_error@std@@YAXH@Z:PROC		; std::_Throw_Cpp_error
EXTRN	_terminate:PROC
;	COMDAT ?s_methods@?1??initnet@@YAXXZ@4PAUPyMethodDef@@A
_DATA	SEGMENT
?s_methods@?1??initnet@@YAXXZ@4PAUPyMethodDef@@A DD FLAT:??_C@_0BI@HFMJEOAC@GetBettingGuildWarValue@ ; `initnet'::`2'::s_methods
	DD	FLAT:?netGetBettingGuildWarValue@@YAPAU_object@@PAU1@0@Z
	DD	01H
	ORG $+4
	DD	FLAT:??_C@_0BH@LKCAJGCH@EnableChatInsultFilter@
	DD	FLAT:?netEnableChatInsultFilter@@YAPAU_object@@PAU1@0@Z
	DD	01H
	ORG $+4
	DD	FLAT:??_C@_0O@JMAHAJJH@SetServerInfo@
	DD	FLAT:?netSetServerInfo@@YAPAU_object@@PAU1@0@Z
	DD	01H
	ORG $+4
	DD	FLAT:??_C@_0O@ODBJLKOA@GetServerInfo@
	DD	FLAT:?netGetServerInfo@@YAPAU_object@@PAU1@0@Z
	DD	01H
	ORG $+4
	DD	FLAT:??_C@_0BG@NJCKCHAI@PreserveServerCommand@
	DD	FLAT:?netPreserveServerCommand@@YAPAU_object@@PAU1@0@Z
	DD	01H
	ORG $+4
	DD	FLAT:??_C@_0BK@PJDKKIPH@GetPreservedServerCommand@
	DD	FLAT:?netGetPreservedServerCommand@@YAPAU_object@@PAU1@0@Z
	DD	01H
	ORG $+4
	DD	FLAT:??_C@_09CFNAMFEF@StartGame@
	DD	FLAT:?netStartGame@@YAPAU_object@@PAU1@0@Z
	DD	01H
	ORG $+4
	DD	FLAT:??_C@_04EIDOEOJH@Warp@
	DD	FLAT:?netWarp@@YAPAU_object@@PAU1@0@Z
	DD	01H
	ORG $+4
	DD	FLAT:??_C@_0O@OFMEOEDD@SetMarkServer@
	DD	FLAT:?netSetMarkServer@@YAPAU_object@@PAU1@0@Z
	DD	01H
	ORG $+4
	DD	FLAT:??_C@_0P@EPNPIBON@IsChatInsultIn@
	DD	FLAT:?netIsChatInsultIn@@YAPAU_object@@PAU1@0@Z
	DD	01H
	ORG $+4
	DD	FLAT:??_C@_0L@CJJGFLBC@IsInsultIn@
	DD	FLAT:?netIsInsultIn@@YAPAU_object@@PAU1@0@Z
	DD	01H
	ORG $+4
	DD	FLAT:??_C@_0P@NAIDDMMD@LoadInsultList@
	DD	FLAT:?netLoadInsultList@@YAPAU_object@@PAU1@0@Z
	DD	01H
	ORG $+4
	DD	FLAT:??_C@_0L@JEGFHCJL@UploadMark@
	DD	FLAT:?netUploadMark@@YAPAU_object@@PAU1@0@Z
	DD	01H
	ORG $+4
	DD	FLAT:??_C@_0N@OBKBFHKO@UploadSymbol@
	DD	FLAT:?netUploadSymbol@@YAPAU_object@@PAU1@0@Z
	DD	01H
	ORG $+4
	DD	FLAT:??_C@_0L@EAKBLDCO@GetGuildID@
	DD	FLAT:?netGetGuildID@@YAPAU_object@@PAU1@0@Z
	DD	01H
	ORG $+4
	DD	FLAT:??_C@_0M@GGDMINDM@GetEmpireID@
	DD	FLAT:?netGetEmpireID@@YAPAU_object@@PAU1@0@Z
	DD	01H
	ORG $+4
	DD	FLAT:??_C@_0BA@BPHKBGOL@GetMainActorVID@
	DD	FLAT:?netGetMainActorVID@@YAPAU_object@@PAU1@0@Z
	DD	01H
	ORG $+4
	DD	FLAT:??_C@_0BB@ICEJKPHA@GetMainActorRace@
	DD	FLAT:?netGetMainActorRace@@YAPAU_object@@PAU1@0@Z
	DD	01H
	ORG $+4
	DD	FLAT:??_C@_0BD@JOIEFGML@GetMainActorEmpire@
	DD	FLAT:?netGetMainActorEmpire@@YAPAU_object@@PAU1@0@Z
	DD	01H
	ORG $+4
	DD	FLAT:??_C@_0BH@GCCMJIJB@GetMainActorSkillGroup@
	DD	FLAT:?netGetMainActorSkillGroup@@YAPAU_object@@PAU1@0@Z
	DD	01H
	ORG $+4
	DD	FLAT:??_C@_0CD@PJJNPONG@GetAccountCharacterSlotDataInte@
	DD	FLAT:?netGetAccountCharacterSlotDataInteger@@YAPAU_object@@PAU1@0@Z
	DD	01H
	ORG $+4
	DD	FLAT:??_C@_0CC@DLIFIOE@GetAccountCharacterSlotDataStri@
	DD	FLAT:?netGetAccountCharacterSlotDataString@@YAPAU_object@@PAU1@0@Z
	DD	01H
	ORG $+4
	DD	FLAT:??_C@_0BG@NAMIDKHD@GetFieldMusicFileName@
	DD	FLAT:?netGetFieldMusicFileName@@YAPAU_object@@PAU1@0@Z
	DD	01H
	ORG $+4
	DD	FLAT:??_C@_0BE@MHKBLINM@GetFieldMusicVolume@
	DD	FLAT:?netGetFieldMusicVolume@@YAPAU_object@@PAU1@0@Z
	DD	01H
	ORG $+4
	DD	FLAT:??_C@_0BE@BCCLDKB@ToggleGameDebugInfo@
	DD	FLAT:?netToggleGameDebugInfo@@YAPAU_object@@PAU1@0@Z
	DD	01H
	ORG $+4
	DD	FLAT:??_C@_0N@GLEGMFLM@SetLoginInfo@
	DD	FLAT:?netSetLoginInfo@@YAPAU_object@@PAU1@0@Z
	DD	01H
	ORG $+4
	DD	FLAT:??_C@_0P@EKNNFAK@SetPhaseWindow@
	DD	FLAT:?netSetPhaseWindow@@YAPAU_object@@PAU1@0@Z
	DD	01H
	ORG $+4
	DD	FLAT:??_C@_0BB@NNDKGCIK@ClearPhaseWindow@
	DD	FLAT:?netClearPhaseWindow@@YAPAU_object@@PAU1@0@Z
	DD	01H
	ORG $+4
	DD	FLAT:??_C@_0BN@KOOLAHFA@SetServerCommandParserWindow@
	DD	FLAT:?netSetServerCommandParserWindow@@YAPAU_object@@PAU1@0@Z
	DD	01H
	ORG $+4
	DD	FLAT:??_C@_0BL@NJAILJBB@SetAccountConnectorHandler@
	DD	FLAT:?netSetAccountConnectorHandler@@YAPAU_object@@PAU1@0@Z
	DD	01H
	ORG $+4
	DD	FLAT:??_C@_0L@EELFNDHB@SetHandler@
	DD	FLAT:?netSetHandler@@YAPAU_object@@PAU1@0@Z
	DD	01H
	ORG $+4
	DD	FLAT:??_C@_0BF@KAEIEPML@SetTCPRecvBufferSize@
	DD	FLAT:?netSetTCPRecvBufferSize@@YAPAU_object@@PAU1@0@Z
	DD	01H
	ORG $+4
	DD	FLAT:??_C@_0BF@LOLMIHDO@SetTCPSendBufferSize@
	DD	FLAT:?netSetTCPSendBufferSize@@YAPAU_object@@PAU1@0@Z
	DD	01H
	ORG $+4
	DD	FLAT:??_C@_0BF@GPIIIFGB@SetUDPRecvBufferSize@
	DD	FLAT:?netSetUDPRecvBufferSize@@YAPAU_object@@PAU1@0@Z
	DD	01H
	ORG $+4
	DD	FLAT:??_C@_0M@PAACKIAL@DirectEnter@
	DD	FLAT:?netDirectEnter@@YAPAU_object@@PAU1@0@Z
	DD	01H
	ORG $+4
	DD	FLAT:??_C@_0L@LPFGMFBP@LogOutGame@
	DD	FLAT:?netLogOutGame@@YAPAU_object@@PAU1@0@Z
	DD	01H
	ORG $+4
	DD	FLAT:??_C@_08ENBHLCHD@ExitGame@
	DD	FLAT:?netExitGame@@YAPAU_object@@PAU1@0@Z
	DD	01H
	ORG $+4
	DD	FLAT:??_C@_0BA@ILFBLEPH@ExitApplication@
	DD	FLAT:?netExitApplication@@YAPAU_object@@PAU1@0@Z
	DD	01H
	ORG $+4
	DD	FLAT:??_C@_0L@HNEKCIDO@ConnectTCP@
	DD	FLAT:?netConnectTCP@@YAPAU_object@@PAU1@0@Z
	DD	01H
	ORG $+4
	DD	FLAT:??_C@_0L@MALJFJNO@ConnectUDP@
	DD	FLAT:?netConnectUDP@@YAPAU_object@@PAU1@0@Z
	DD	01H
	ORG $+4
	DD	FLAT:??_C@_0BH@CIOLKAIG@ConnectToAccountServer@
	DD	FLAT:?netConnectToAccountServer@@YAPAU_object@@PAU1@0@Z
	DD	01H
	ORG $+4
	DD	FLAT:??_C@_0BA@CNDIKGCL@SendLoginPacket@
	DD	FLAT:?netSendLoginPacket@@YAPAU_object@@PAU1@0@Z
	DD	01H
	ORG $+4
	DD	FLAT:??_C@_0BH@IIELEKKA@SendSelectEmpirePacket@
	DD	FLAT:?netSendSelectEmpirePacket@@YAPAU_object@@PAU1@0@Z
	DD	01H
	ORG $+4
	DD	FLAT:??_C@_0BK@MIKAHKDI@SendSelectCharacterPacket@
	DD	FLAT:?netSendSelectCharacterPacket@@YAPAU_object@@PAU1@0@Z
	DD	01H
	ORG $+4
	DD	FLAT:??_C@_0BF@ODLJDBF@SendChangeNamePacket@
	DD	FLAT:?netSendChangeNamePacket@@YAPAU_object@@PAU1@0@Z
	DD	01H
	ORG $+4
	DD	FLAT:??_C@_0BK@NPKEAJJ@SendCreateCharacterPacket@
	DD	FLAT:?netSendCreateCharacterPacket@@YAPAU_object@@PAU1@0@Z
	DD	01H
	ORG $+4
	DD	FLAT:??_C@_0BL@PMHPNGGJ@SendDestroyCharacterPacket@
	DD	FLAT:?netSendDestroyCharacterPacket@@YAPAU_object@@PAU1@0@Z
	DD	01H
	ORG $+4
	DD	FLAT:??_C@_0BE@NBECPFPH@SendEnterGamePacket@
	DD	FLAT:?netSendEnterGamePacket@@YAPAU_object@@PAU1@0@Z
	DD	01H
	ORG $+4
	DD	FLAT:??_C@_0BC@NHAKBOCP@SendItemUsePacket@
	DD	FLAT:?netSendItemUsePacket@@YAPAU_object@@PAU1@0@Z
	DD	01H
	ORG $+4
	DD	FLAT:??_C@_0BI@OBDMDOIB@SendItemUseToItemPacket@
	DD	FLAT:?netSendItemUseToItemPacket@@YAPAU_object@@PAU1@0@Z
	DD	01H
	ORG $+4
	DD	FLAT:??_C@_0BD@ICCAOJBA@SendItemDropPacket@
	DD	FLAT:?netSendItemDropPacket@@YAPAU_object@@PAU1@0@Z
	DD	01H
	ORG $+4
	DD	FLAT:??_C@_0BG@PNFNACGL@SendItemDropPacketNew@
	DD	FLAT:?netSendItemDropPacketNew@@YAPAU_object@@PAU1@0@Z
	DD	01H
	ORG $+4
	DD	FLAT:??_C@_0BC@NEDFAOHK@SendElkDropPacket@
	DD	FLAT:?netSendElkDropPacket@@YAPAU_object@@PAU1@0@Z
	DD	01H
	ORG $+4
	DD	FLAT:??_C@_0BG@ONKCIEDE@SendGoldDropPacketNew@
	DD	FLAT:?netSendGoldDropPacketNew@@YAPAU_object@@PAU1@0@Z
	DD	01H
	ORG $+4
	DD	FLAT:??_C@_0BD@BPAFBGKI@SendItemMovePacket@
	DD	FLAT:?netSendItemMovePacket@@YAPAU_object@@PAU1@0@Z
	DD	01H
	ORG $+4
	DD	FLAT:??_C@_0BF@PJHEIMI@SendItemPickUpPacket@
	DD	FLAT:?netSendItemPickUpPacket@@YAPAU_object@@PAU1@0@Z
	DD	01H
	ORG $+4
	DD	FLAT:??_C@_0BD@FMAJCJM@SendGiveItemPacket@
	DD	FLAT:?netSendGiveItemPacket@@YAPAU_object@@PAU1@0@Z
	DD	01H
	ORG $+4
	DD	FLAT:??_C@_0BA@NKMDDBDL@SetOfflinePhase@
	DD	FLAT:?netSetOfflinePhase@@YAPAU_object@@PAU1@0@Z
	DD	01H
	ORG $+4
	DD	FLAT:??_C@_0L@CMGJAGDM@Disconnect@
	DD	FLAT:?netDisconnect@@YAPAU_object@@PAU1@0@Z
	DD	01H
	ORG $+4
	DD	FLAT:??_C@_09HENONEEN@IsConnect@
	DD	FLAT:?netIsConnect@@YAPAU_object@@PAU1@0@Z
	DD	01H
	ORG $+4
	DD	FLAT:??_C@_0P@FJOINOIH@SendChatPacket@
	DD	FLAT:?netSendChatPacket@@YAPAU_object@@PAU1@0@Z
	DD	01H
	ORG $+4
	DD	FLAT:??_C@_0N@BJHGOHPC@SendEmoticon@
	DD	FLAT:?netSendEmoticon@@YAPAU_object@@PAU1@0@Z
	DD	01H
	ORG $+4
	DD	FLAT:??_C@_0BC@KNMEABPD@SendWhisperPacket@
	DD	FLAT:?netSendWhisperPacket@@YAPAU_object@@PAU1@0@Z
	DD	01H
	ORG $+4
	DD	FLAT:??_C@_0BM@KAMAKIKL@SendCharacterPositionPacket@
	DD	FLAT:?netSendCharacterPositionPacket@@YAPAU_object@@PAU1@0@Z
	DD	01H
	ORG $+4
	DD	FLAT:??_C@_0BC@HEOMKCAE@SendShopEndPacket@
	DD	FLAT:?netSendShopEndPacket@@YAPAU_object@@PAU1@0@Z
	DD	01H
	ORG $+4
	DD	FLAT:??_C@_0BC@FPBLEBCL@SendShopBuyPacket@
	DD	FLAT:?netSendShopBuyPacket@@YAPAU_object@@PAU1@0@Z
	DD	01H
	ORG $+4
	DD	FLAT:??_C@_0BD@BFMEHPEE@SendShopSellPacket@
	DD	FLAT:?netSendShopSellPacket@@YAPAU_object@@PAU1@0@Z
	DD	01H
	ORG $+4
	DD	FLAT:??_C@_0BG@BGJEIPGN@SendShopSellPacketNew@
	DD	FLAT:?netSendShopSellPacketNew@@YAPAU_object@@PAU1@0@Z
	DD	01H
	ORG $+4
	DD	FLAT:??_C@_0BI@BGNKGFKO@SendExchangeStartPacket@
	DD	FLAT:?netSendExchangeStartPacket@@YAPAU_object@@PAU1@0@Z
	DD	01H
	ORG $+4
	DD	FLAT:??_C@_0BK@IIFDLCNA@SendExchangeItemAddPacket@
	DD	FLAT:?netSendExchangeItemAddPacket@@YAPAU_object@@PAU1@0@Z
	DD	01H
	ORG $+4
	DD	FLAT:??_C@_0BK@KKOEHGGC@SendExchangeItemDelPacket@
	DD	FLAT:?netSendExchangeItemDelPacket@@YAPAU_object@@PAU1@0@Z
	DD	01H
	ORG $+4
	DD	FLAT:??_C@_0BJ@CGGGIOGM@SendExchangeElkAddPacket@
	DD	FLAT:?netSendExchangeElkAddPacket@@YAPAU_object@@PAU1@0@Z
	DD	01H
	ORG $+4
	DD	FLAT:??_C@_0BJ@OFKJBLDC@SendExchangeAcceptPacket@
	DD	FLAT:?netSendExchangeAcceptPacket@@YAPAU_object@@PAU1@0@Z
	DD	01H
	ORG $+4
	DD	FLAT:??_C@_0BH@NCONKHHB@SendExchangeExitPacket@
	DD	FLAT:?netSendExchangeExitPacket@@YAPAU_object@@PAU1@0@Z
	DD	01H
	ORG $+4
	DD	FLAT:??_C@_0BC@FMJHAGEI@SendOnClickPacket@
	DD	FLAT:?netOnClickPacket@@YAPAU_object@@PAU1@0@Z
	DD	01H
	ORG $+4
	DD	FLAT:??_C@_0BH@MCKLKDJM@RegisterEmoticonString@
	DD	FLAT:?netRegisterEmoticonString@@YAPAU_object@@PAU1@0@Z
	DD	01H
	ORG $+4
	DD	FLAT:??_C@_0BM@CFLPIFFM@SendMessengerAddByVIDPacket@
	DD	FLAT:?netSendMessengerAddByVIDPacket@@YAPAU_object@@PAU1@0@Z
	DD	01H
	ORG $+4
	DD	FLAT:??_C@_0BN@MPMOLLL@SendMessengerAddByNamePacket@
	DD	FLAT:?netSendMessengerAddByNamePacket@@YAPAU_object@@PAU1@0@Z
	DD	01H
	ORG $+4
	DD	FLAT:??_C@_0BK@GIIDGGBB@SendMessengerRemovePacket@
	DD	FLAT:?netSendMessengerRemovePacket@@YAPAU_object@@PAU1@0@Z
	DD	01H
	ORG $+4
	DD	FLAT:??_C@_0CB@KIPMMBOF@SendMessengerBlockAddByVIDPacke@
	DD	FLAT:?netSendMessengerBlockAddByVIDPacket@@YAPAU_object@@PAU1@0@Z
	DD	01H
	ORG $+4
	DD	FLAT:??_C@_0BP@CFBLDODE@SendMessengerBlockRemovePacket@
	DD	FLAT:?netSendMessengerBlockRemovePacket@@YAPAU_object@@PAU1@0@Z
	DD	01H
	ORG $+4
	DD	FLAT:??_C@_0CC@LOMMKDNH@SendMessengerBlockAddByNamePack@
	DD	FLAT:?netSendMessengerBlockAddByNamePacket@@YAPAU_object@@PAU1@0@Z
	DD	01H
	ORG $+4
	DD	FLAT:??_C@_0CE@JAGCNDAI@SendMessengerBlockRemoveByVIDPa@
	DD	FLAT:?netSendMessengerBlockRemoveByVIDPacket@@YAPAU_object@@PAU1@0@Z
	DD	01H
	ORG $+4
	DD	FLAT:??_C@_0BG@IFGKMOED@SendPartyInvitePacket@
	DD	FLAT:?netSendPartyInvitePacket@@YAPAU_object@@PAU1@0@Z
	DD	01H
	ORG $+4
	DD	FLAT:??_C@_0BM@PFAFFBJO@SendPartyInviteAnswerPacket@
	DD	FLAT:?netSendPartyInviteAnswerPacket@@YAPAU_object@@PAU1@0@Z
	DD	01H
	ORG $+4
	DD	FLAT:??_C@_0BE@JHFPDGFP@SendPartyExitPacket@
	DD	FLAT:?netSendPartyExitPacket@@YAPAU_object@@PAU1@0@Z
	DD	01H
	ORG $+4
	DD	FLAT:??_C@_0BG@JAJGIHK@SendPartyRemovePacket@
	DD	FLAT:?netSendPartyRemovePacket@@YAPAU_object@@PAU1@0@Z
	DD	01H
	ORG $+4
	DD	FLAT:??_C@_0BI@LNEGCCFH@SendPartySetStatePacket@
	DD	FLAT:?netSendPartySetStatePacket@@YAPAU_object@@PAU1@0@Z
	DD	01H
	ORG $+4
	DD	FLAT:??_C@_0BI@EONDHFJL@SendPartyUseSkillPacket@
	DD	FLAT:?netSendPartyUseSkillPacket@@YAPAU_object@@PAU1@0@Z
	DD	01H
	ORG $+4
	DD	FLAT:??_C@_0BJ@JGBOMHFI@SendPartyParameterPacket@
	DD	FLAT:?netSendPartyParameterPacket@@YAPAU_object@@PAU1@0@Z
	DD	01H
	ORG $+4
	DD	FLAT:??_C@_0BL@CAAOLIHO@SendSafeboxSaveMoneyPacket@
	DD	FLAT:?netSendSafeboxSaveMoneyPacket@@YAPAU_object@@PAU1@0@Z
	DD	01H
	ORG $+4
	DD	FLAT:??_C@_0BP@MLAJADAA@SendSafeboxWithdrawMoneyPacket@
	DD	FLAT:?netSendSafeboxWithdrawMoneyPacket@@YAPAU_object@@PAU1@0@Z
	DD	01H
	ORG $+4
	DD	FLAT:??_C@_0BJ@HNJCKALG@SendSafeboxCheckinPacket@
	DD	FLAT:?netSendSafeboxCheckinPacket@@YAPAU_object@@PAU1@0@Z
	DD	01H
	ORG $+4
	DD	FLAT:??_C@_0BK@LJAMACPE@SendSafeboxCheckoutPacket@
	DD	FLAT:?netSendSafeboxCheckoutPacket@@YAPAU_object@@PAU1@0@Z
	DD	01H
	ORG $+4
	DD	FLAT:??_C@_0BK@JMMAEJFJ@SendSafeboxItemMovePacket@
	DD	FLAT:?netSendSafeboxItemMovePacket@@YAPAU_object@@PAU1@0@Z
	DD	01H
	ORG $+4
	DD	FLAT:??_C@_0BH@BDNDNKGE@SendMallCheckoutPacket@
	DD	FLAT:?netSendMallCheckoutPacket@@YAPAU_object@@PAU1@0@Z
	DD	01H
	ORG $+4
	DD	FLAT:??_C@_0BL@BJLFPMAE@SendQuestInputStringPacket@
	DD	FLAT:?netSendQuestInputStringPacket@@YAPAU_object@@PAU1@0@Z
	DD	01H
	ORG $+4
	DD	FLAT:??_C@_0BH@HMDNFHNB@SendQuestConfirmPacket@
	DD	FLAT:?netSendQuestConfirmPacket@@YAPAU_object@@PAU1@0@Z
	DD	01H
	ORG $+4
	DD	FLAT:??_C@_0BJ@MFJNIJIJ@SendGuildAddMemberPacket@
	DD	FLAT:?netSendGuildAddMemberPacket@@YAPAU_object@@PAU1@0@Z
	DD	01H
	ORG $+4
	DD	FLAT:??_C@_0BM@GAJEHHNG@SendGuildRemoveMemberPacket@
	DD	FLAT:?netSendGuildRemoveMemberPacket@@YAPAU_object@@PAU1@0@Z
	DD	01H
	ORG $+4
	DD	FLAT:??_C@_0BP@ODLEJFMG@SendGuildChangeGradeNamePacket@
	DD	FLAT:?netSendGuildChangeGradeNamePacket@@YAPAU_object@@PAU1@0@Z
	DD	01H
	ORG $+4
	DD	FLAT:??_C@_0CE@EFLFPPCO@SendGuildChangeGradeAuthorityPa@
	DD	FLAT:?netSendGuildChangeGradeAuthorityPacket@@YAPAU_object@@PAU1@0@Z
	DD	01H
	ORG $+4
	DD	FLAT:??_C@_0BF@OAFAHAKB@SendGuildOfferPacket@
	DD	FLAT:?netSendGuildOfferPacket@@YAPAU_object@@PAU1@0@Z
	DD	01H
	ORG $+4
	DD	FLAT:??_C@_0BL@JLEHIONL@SendGuildPostCommentPacket@
	DD	FLAT:?netSnedGuildPostCommentPacket@@YAPAU_object@@PAU1@0@Z
	DD	01H
	ORG $+4
	DD	FLAT:??_C@_0BN@MBNLMFLO@SendGuildDeleteCommentPacket@
	DD	FLAT:?netSnedGuildDeleteCommentPacket@@YAPAU_object@@PAU1@0@Z
	DD	01H
	ORG $+4
	DD	FLAT:??_C@_0BP@BKEOCNGM@SendGuildRefreshCommentsPacket@
	DD	FLAT:?netSendGuildRefreshCommentsPacket@@YAPAU_object@@PAU1@0@Z
	DD	01H
	ORG $+4
	DD	FLAT:??_C@_0CB@KOIDGNFC@SendGuildChangeMemberGradePacke@
	DD	FLAT:?netSendGuildChangeMemberGradePacket@@YAPAU_object@@PAU1@0@Z
	DD	01H
	ORG $+4
	DD	FLAT:??_C@_0BI@HICDMLJH@SendGuildUseSkillPacket@
	DD	FLAT:?netSendGuildUseSkillPacket@@YAPAU_object@@PAU1@0@Z
	DD	01H
	ORG $+4
	DD	FLAT:??_C@_0CD@BMLIKMKL@SendGuildChangeMemberGeneralPac@
	DD	FLAT:?netSendGuildChangeMemberGeneralPacket@@YAPAU_object@@PAU1@0@Z
	DD	01H
	ORG $+4
	DD	FLAT:??_C@_0BM@KLBFEJBI@SendGuildInviteAnswerPacket@
	DD	FLAT:?netSendGuildInviteAnswerPacket@@YAPAU_object@@PAU1@0@Z
	DD	01H
	ORG $+4
	DD	FLAT:??_C@_0BJ@LKJGDIEE@SendGuildChargeGSPPacket@
	DD	FLAT:?netSendGuildChargeGSPPacket@@YAPAU_object@@PAU1@0@Z
	DD	01H
	ORG $+4
	DD	FLAT:??_C@_0BM@HDHMFNNO@SendGuildDepositMoneyPacket@
	DD	FLAT:?netSendGuildDepositMoneyPacket@@YAPAU_object@@PAU1@0@Z
	DD	01H
	ORG $+4
	DD	FLAT:??_C@_0BN@BPJGBHPL@SendGuildWithdrawMoneyPacket@
	DD	FLAT:?netSendGuildWithdrawMoneyPacket@@YAPAU_object@@PAU1@0@Z
	DD	01H
	ORG $+4
	DD	FLAT:??_C@_0BM@NLIMKJKK@SendRequestRefineInfoPacket@
	DD	FLAT:?netSendRequestRefineInfoPacket@@YAPAU_object@@PAU1@0@Z
	DD	01H
	ORG $+4
	DD	FLAT:??_C@_0BB@MBCAEHJO@SendRefinePacket@
	DD	FLAT:?netSendRefinePacket@@YAPAU_object@@PAU1@0@Z
	DD	01H
	ORG $+4
	DD	FLAT:??_C@_0BF@HEJDCMFH@SendSelectItemPacket@
	DD	FLAT:?netSendSelectItemPacket@@YAPAU_object@@PAU1@0@Z
	DD	01H
	ORG $+4
	DD	FLAT:??_C@_0BG@HLIDKLKJ@SetPacketSequenceMode@
	DD	FLAT:?netSetPacketSequenceMode@@YAPAU_object@@PAU1@0@Z
	DD	01H
	ORG $+4
	DD	FLAT:??_C@_0BG@KCIMJDEA@SetEmpireLanguageMode@
	DD	FLAT:?netSetEmpireLanguageMode@@YAPAU_object@@PAU1@0@Z
	DD	01H
	ORG $+4
	DD	FLAT:??_C@_0BC@NOAKHLIH@SetSkillGroupFake@
	DD	FLAT:?netSetSkillGroupFake@@YAPAU_object@@PAU1@0@Z
	DD	01H
	ORG $+4
	DD	FLAT:??_C@_0BB@CABIEEGM@RegisterErrorLog@
	DD	FLAT:?netRegisterErrorLog@@YAPAU_object@@PAU1@0@Z
	DD	01H
	ORG $+4
	DD	FLAT:??_C@_0BL@HLJICMNL@SendItemNewAttributePacket@
	DD	FLAT:?netSendItemNewAttributePacket@@YAPAU_object@@PAU1@0@Z
	DD	01H
	ORG $+4
	DD	FLAT:??_C@_0BG@LMAHKAGJ@SendItemDestroyPacket@
	DD	FLAT:?netSendItemDestroyPacket@@YAPAU_object@@PAU1@0@Z
	DD	01H
	ORG $+4
	DD	FLAT:??_C@_0BD@NCAGLKGI@SendItemSellPacket@
	DD	FLAT:?netSendItemSellPacket@@YAPAU_object@@PAU1@0@Z
	DD	01H
	ORG $+4
	DD	FLAT:??_C@_0BJ@JLPIJBCL@SendChangeLanguagePacket@
	DD	FLAT:?netSendChangeLanguagePacket@@YAPAU_object@@PAU1@0@Z
	DD	01H
	ORG $+4
	DD	FLAT:??_C@_0M@BMMLELAG@SetLanguage@
	DD	FLAT:?netSetLanguage@@YAPAU_object@@PAU1@0@Z
	DD	01H
	ORG $+4
	DD	FLAT:??_C@_0M@BDNFJNIF@GetLanguage@
	DD	FLAT:?netGetLanguage@@YAPAU_object@@PAU1@0@Z
	DD	01H
	ORG $+4
	DD	FLAT:??_C@_0BD@CADFDBKC@SendWhisperDetails@
	DD	FLAT:?netSendWhisperDetails@@YAPAU_object@@PAU1@0@Z
	DD	01H
	ORG $+4
	DD	FLAT:??_C@_0CF@DBCMLGOB@SendMessengerRequestWarpByNameP@
	DD	FLAT:?netSendMessengerRequestWarpByNamePacket@@YAPAU_object@@PAU1@0@Z
	DD	01H
	ORG $+4
	DD	FLAT:??_C@_0CA@DMDCCOLJ@SendMessengerSummonByNamePacket@
	DD	FLAT:?netSendMessengerSummonByNamePacket@@YAPAU_object@@PAU1@0@Z
	DD	01H
	ORG $+4
	DD	FLAT:??_C@_0BD@FJEJICMG@SendTargetInfoLoad@
	DD	FLAT:?netTargetInfoLoad@@YAPAU_object@@PAU1@0@Z
	DD	01H
	ORG $+4
	DD	FLAT:??_C@_0BC@MKMPHPEO@SendChestDropInfo@
	DD	FLAT:?netSendChestDropInfo@@YAPAU_object@@PAU1@0@Z
	DD	01H
	ORG $+4
	DD	FLAT:??_C@_0BG@FNGLKDCN@SendRequestEventQuest@
	DD	FLAT:?netSendRequestEventQuest@@YAPAU_object@@PAU1@0@Z
	DD	01H
	ORG $+4
	DD	FLAT:??_C@_0BF@EGLLPLHB@SendRequestEventData@
	DD	FLAT:?netSendRequestEventData@@YAPAU_object@@PAU1@0@Z
	DD	01H
	ORG $+4
	DD	FLAT:??_C@_0BI@OCAOJHPJ@SendExtBattlePassAction@
	DD	FLAT:?netSendExtBattlePassAction@@YAPAU_object@@PAU1@0@Z
	DD	01H
	ORG $+4
	DD	FLAT:??_C@_0BN@FGANJKPC@SendExtBattlePassPremiumItem@
	DD	FLAT:?netSendExtBattlePassPremiumItem@@YAPAU_object@@PAU1@0@Z
	DD	01H
	ORG $+4
	DD	FLAT:??_C@_0BJ@KEBAFNIE@SendOfflineShopEndPacket@
	DD	FLAT:?netSendOfflineShopEndPacket@@YAPAU_object@@PAU1@0@Z
	DD	01H
	ORG $+4
	DD	FLAT:??_C@_0BJ@IPOHLOKL@SendOfflineShopBuyPacket@
	DD	FLAT:?netSendOfflineShopBuyPacket@@YAPAU_object@@PAU1@0@Z
	DD	01H
	ORG $+4
	DD	FLAT:??_C@_0BH@OAFMCCNO@SendAddOfflineShopItem@
	DD	FLAT:?netSendAddOfflineShopItem@@YAPAU_object@@PAU1@0@Z
	DD	01H
	ORG $+4
	DD	FLAT:??_C@_0BK@MHCHACHJ@SendRemoveOfflineShopItem@
	DD	FLAT:?netSendRemoveOfflineShopItem@@YAPAU_object@@PAU1@0@Z
	DD	01H
	ORG $+4
	DD	FLAT:??_C@_0BH@MIDGLPNJ@SendDestroyOfflineShop@
	DD	FLAT:?netSendDestroyOfflineShop@@YAPAU_object@@PAU1@0@Z
	DD	01H
	ORG $+4
	DD	FLAT:??_C@_0BF@FGMFPANA@SendTakeOfflineMoney@
	DD	FLAT:?netSendTakeOfflineMoney@@YAPAU_object@@PAU1@0@Z
	DD	01H
	ORG $+4
	DD	FLAT:??_C@_0BL@IBEDKCND@SendOfflineShopChangeTitle@
	DD	FLAT:?netSendOfflineShopChangeTitle@@YAPAU_object@@PAU1@0@Z
	DD	01H
	ORG $+4
	DD	FLAT:??_C@_0BF@IDFHMEFI@SendOfflineShopCheck@
	DD	FLAT:?netSendOfflineShopCheck@@YAPAU_object@@PAU1@0@Z
	DD	01H
	ORG $+4
	DD	FLAT:??_C@_0BG@BADFKLBC@SendOfflineShopButton@
	DD	FLAT:?netSendOfflineShopButton@@YAPAU_object@@PAU1@0@Z
	DD	01H
	ORG $+4
	DD	FLAT:??_C@_0BK@BHBMOPGA@SendOfflineShopRemoveLogs@
	DD	FLAT:?netSendOfflineShopRemoveLogs@@YAPAU_object@@PAU1@0@Z
	DD	01H
	ORG $+4
	DD	FLAT:??_C@_0BB@DODFFFJG@SendOpenShopSlot@
	DD	FLAT:?netSendOpenShopSlot@@YAPAU_object@@PAU1@0@Z
	DD	01H
	ORG $+4
	DD	FLAT:??_C@_0BB@CCPJMAB@SendGetBackItems@
	DD	FLAT:?netSendGetBackItems@@YAPAU_object@@PAU1@0@Z
	DD	01H
	ORG $+4
	DD	FLAT:??_C@_0M@PKHOJOKH@SendAddTime@
	DD	FLAT:?netSendAddTime@@YAPAU_object@@PAU1@0@Z
	DD	01H
	ORG $+4
	DD	FLAT:??_C@_0BA@GINOFKMH@SendOpenWithVID@
	DD	FLAT:?netSendOpenWithVID@@YAPAU_object@@PAU1@0@Z
	DD	01H
	ORG $+4
	DD	FLAT:??_C@_0BK@MFBNGEKH@SendPrivateShopSearchInfo@
	DD	FLAT:?netSendPrivateShopSearchInfo@@YAPAU_object@@PAU1@0@Z
	DD	01H
	ORG $+4
	DD	FLAT:??_C@_0BP@EMBKKKAC@SendQuestInputStringLongPacket@
	DD	FLAT:?netSendQuestInputStringLongPacket@@YAPAU_object@@PAU1@0@Z
	DD	01H
	ORG $+4
	DD	FLAT:??_C@_0BF@IBLIMNKE@LoadResourcesInCache@
	DD	FLAT:?netLoadResourcesInCache@@YAPAU_object@@PAU1@0@Z
	DD	01H
	ORG $+4
	DD	FLAT:??_C@_0P@HANGMIDD@RegisterSkills@
	DD	FLAT:?netRegisterSkills@@YAPAU_object@@PAU1@0@Z
	DD	01H
	ORG $+4
	DD	FLAT:??_C@_0BG@CAKEIGOC@SendAuraRefineCheckIn@
	DD	FLAT:?netSendAuraRefineCheckIn@@YAPAU_object@@PAU1@0@Z
	DD	01H
	ORG $+4
	DD	FLAT:??_C@_0BH@DAGPIIGN@SendAuraRefineCheckOut@
	DD	FLAT:?netSendAuraRefineCheckOut@@YAPAU_object@@PAU1@0@Z
	DD	01H
	ORG $+4
	DD	FLAT:??_C@_0BF@EMOBFCJD@SendAuraRefineAccept@
	DD	FLAT:?netSendAuraRefineAccept@@YAPAU_object@@PAU1@0@Z
	DD	01H
	ORG $+4
	DD	FLAT:??_C@_0BF@NDLLIABO@SendAuraRefineCancel@
	DD	FLAT:?netSendAuraRefineCancel@@YAPAU_object@@PAU1@0@Z
	DD	01H
	ORG $+4
	DD	FLAT:??_C@_0BA@EKELKFID@CheckUsePetItem@
	DD	FLAT:?netCheckUsePetItem@@YAPAU_object@@PAU1@0@Z
	DD	01H
	ORG $+4
	DD	FLAT:??_C@_0BC@DPPMLCAB@SendPetFeedPacket@
	DD	FLAT:?netSendPetFeedPacket@@YAPAU_object@@PAU1@0@Z
	DD	01H
	ORG $+4
	DD	FLAT:??_C@_0BG@CAPLAGOH@SendPetHatchingPacket@
	DD	FLAT:?netSendPetHatchingPacket@@YAPAU_object@@PAU1@0@Z
	DD	01H
	ORG $+4
	DD	FLAT:??_C@_0BM@GAONBPGD@SendPetHatchingWindowPacket@
	DD	FLAT:?netSendPetHatchingWindowPacket@@YAPAU_object@@PAU1@0@Z
	DD	01H
	ORG $+4
	DD	FLAT:??_C@_0BI@EBDKMLFG@SendPetNameChangePacket@
	DD	FLAT:?netSendPetNameChangePacket@@YAPAU_object@@PAU1@0@Z
	DD	01H
	ORG $+4
	DD	FLAT:??_C@_0BO@CHBKNLKN@SendPetNameChangeWindowPacket@
	DD	FLAT:?netSendPetNameChangeWindowPacket@@YAPAU_object@@PAU1@0@Z
	DD	01H
	ORG $+4
	DD	FLAT:??_C@_0BC@ODGMFKGN@SendPetWindowType@
	DD	FLAT:?netSendPetWindowType@@YAPAU_object@@PAU1@0@Z
	DD	01H
	ORG $+4
	DD	FLAT:??_C@_0BC@JMDGNLBA@SendPetLearnSkill@
	DD	FLAT:?netSendPetLearnSkill@@YAPAU_object@@PAU1@0@Z
	DD	01H
	ORG $+4
	DD	FLAT:??_C@_0BL@KHAOMOFC@SendPetSkillUpgradeRequest@
	DD	FLAT:?netSendPetSkillUpgradeRequest@@YAPAU_object@@PAU1@0@Z
	DD	01H
	ORG $+4
	DD	FLAT:??_C@_0BD@GMMPELPL@SendPetDeleteSkill@
	DD	FLAT:?netSendPetDeleteSkill@@YAPAU_object@@PAU1@0@Z
	DD	01H
	ORG $+4
	DD	FLAT:??_C@_0BG@PCKLFOPF@SendPetDeleteAllSkill@
	DD	FLAT:?netSendPetDeleteAllSkill@@YAPAU_object@@PAU1@0@Z
	DD	01H
	ORG $+4
	DD	FLAT:??_C@_0BF@IELOFHOB@SendPetAttrDetermine@
	DD	FLAT:?netSendPetAttrDetermine@@YAPAU_object@@PAU1@0@Z
	DD	01H
	ORG $+4
	DD	FLAT:??_C@_0BC@LDLOKAHN@SendPetAttrChange@
	DD	FLAT:?netSendPetAttrChange@@YAPAU_object@@PAU1@0@Z
	DD	01H
	ORG $+4
	DD	FLAT:??_C@_0O@FEFPMGMH@SendPetRevive@
	DD	FLAT:?netSendPetRevive@@YAPAU_object@@PAU1@0@Z
	DD	01H
	ORG $+4
	DD	FLAT:??_C@_0BG@KJDOPNFA@SendChangeLookCheckIn@
	DD	FLAT:?netSendChangeLookCheckIn@@YAPAU_object@@PAU1@0@Z
	DD	01H
	ORG $+4
	DD	FLAT:??_C@_0BH@BFIJMALG@SendChangeLookCheckOut@
	DD	FLAT:?netSendChangeLookCheckOut@@YAPAU_object@@PAU1@0@Z
	DD	01H
	ORG $+4
	DD	FLAT:??_C@_0CC@KAHMBMII@SendChangeLookCheckInFreeYangIt@
	DD	FLAT:?netSendChangeLookCheckInFreeYangItem@@YAPAU_object@@PAU1@0@Z
	DD	01H
	ORG $+4
	DD	FLAT:??_C@_0CD@CGFABPFC@SendChangeLookCheckOutFreeYangI@
	DD	FLAT:?netSendChangeLookCheckOutFreeYangItem@@YAPAU_object@@PAU1@0@Z
	DD	01H
	ORG $+4
	DD	FLAT:??_C@_0BH@BFIJMALG@SendChangeLookCheckOut@
	DD	FLAT:?netSendChangeLookCheckOut@@YAPAU_object@@PAU1@0@Z
	DD	01H
	ORG $+4
	DD	FLAT:??_C@_0BF@FLBAAAK@SendChangeLookAccept@
	DD	FLAT:?netSendChangeLookAccept@@YAPAU_object@@PAU1@0@Z
	DD	01H
	ORG $+4
	DD	FLAT:??_C@_0BF@OEMKPNHP@SendChangeLookCanCle@
	DD	FLAT:?netSendChangeLookCancel@@YAPAU_object@@PAU1@0@Z
	DD	01H
	ORG $+4
	DD	FLAT:??_C@_0BC@BHMNHCBE@SendHuntingAction@
	DD	FLAT:?netSendHuntingAction@@YAPAU_object@@PAU1@0@Z
	DD	01H
	ORG $+4
	DD	00H
	DD	00H
	ORG $+8
_DATA	ENDS
;	COMDAT ??_C@_0BF@HOEEONGC@BIOLOG_MANAGER_TIMER@
CONST	SEGMENT
??_C@_0BF@HOEEONGC@BIOLOG_MANAGER_TIMER@ DB 'BIOLOG_MANAGER_TIMER', 00H ; `string'
CONST	ENDS
;	COMDAT ??_C@_0BE@KHDCNJCA@BIOLOG_MANAGER_OPEN@
CONST	SEGMENT
??_C@_0BE@KHDCNJCA@BIOLOG_MANAGER_OPEN@ DB 'BIOLOG_MANAGER_OPEN', 00H ; `string'
CONST	ENDS
;	COMDAT ??_C@_0BE@JDFPADGF@BIOLOG_MANAGER_SEND@
CONST	SEGMENT
??_C@_0BE@JDFPADGF@BIOLOG_MANAGER_SEND@ DB 'BIOLOG_MANAGER_SEND', 00H ; `string'
CONST	ENDS
;	COMDAT ??_C@_0CM@PJCLJBCJ@DS_SUB_HEADER_REFINE_FAIL_TOO_M@
CONST	SEGMENT
??_C@_0CM@PJCLJBCJ@DS_SUB_HEADER_REFINE_FAIL_TOO_M@ DB 'DS_SUB_HEADER_REF'
	DB	'INE_FAIL_TOO_MUCH_MATERIAL', 00H		; `string'
CONST	ENDS
;	COMDAT ??_C@_0BN@OJONLPHM@DS_SUB_HEADER_REFINE_SUCCEED@
CONST	SEGMENT
??_C@_0BN@OJONLPHM@DS_SUB_HEADER_REFINE_SUCCEED@ DB 'DS_SUB_HEADER_REFINE'
	DB	'_SUCCEED', 00H				; `string'
CONST	ENDS
;	COMDAT ??_C@_0CL@DKLCPNME@DS_SUB_HEADER_REFINE_FAIL_NOT_E@
CONST	SEGMENT
??_C@_0CL@DKLCPNME@DS_SUB_HEADER_REFINE_FAIL_NOT_E@ DB 'DS_SUB_HEADER_REF'
	DB	'INE_FAIL_NOT_ENOUGH_MONEY', 00H		; `string'
CONST	ENDS
;	COMDAT ??_C@_0CO@HIKHGDBM@DS_SUB_HEADER_REFINE_FAIL_NOT_E@
CONST	SEGMENT
??_C@_0CO@HIKHGDBM@DS_SUB_HEADER_REFINE_FAIL_NOT_E@ DB 'DS_SUB_HEADER_REF'
	DB	'INE_FAIL_NOT_ENOUGH_MATERIAL', 00H		; `string'
CONST	ENDS
;	COMDAT ??_C@_0CF@NHMIOPGD@DS_SUB_HEADER_REFINE_FAIL_MAX_R@
CONST	SEGMENT
??_C@_0CF@NHMIOPGD@DS_SUB_HEADER_REFINE_FAIL_MAX_R@ DB 'DS_SUB_HEADER_REF'
	DB	'INE_FAIL_MAX_REFINE', 00H			; `string'
CONST	ENDS
;	COMDAT ??_C@_0CL@CHMHFOOJ@DS_SUB_HEADER_REFINE_FAIL_INVAL@
CONST	SEGMENT
??_C@_0CL@CHMHFOOJ@DS_SUB_HEADER_REFINE_FAIL_INVAL@ DB 'DS_SUB_HEADER_REF'
	DB	'INE_FAIL_INVALID_MATERIAL', 00H		; `string'
CONST	ENDS
;	COMDAT ??_C@_08GGEEIJNJ@EMPIRE_C@
CONST	SEGMENT
??_C@_08GGEEIJNJ@EMPIRE_C@ DB 'EMPIRE_C', 00H		; `string'
CONST	ENDS
;	COMDAT ??_C@_0BK@IMPJEABP@DS_SUB_HEADER_REFINE_FAIL@
CONST	SEGMENT
??_C@_0BK@IMPJEABP@DS_SUB_HEADER_REFINE_FAIL@ DB 'DS_SUB_HEADER_REFINE_FA'
	DB	'IL', 00H					; `string'
CONST	ENDS
;	COMDAT ??_C@_08FEHCOLFL@EMPIRE_A@
CONST	SEGMENT
??_C@_08FEHCOLFL@EMPIRE_A@ DB 'EMPIRE_A', 00H		; `string'
CONST	ENDS
;	COMDAT ??_C@_08HPFPLIJI@EMPIRE_B@
CONST	SEGMENT
??_C@_08HPFPLIJI@EMPIRE_B@ DB 'EMPIRE_B', 00H		; `string'
CONST	ENDS
;	COMDAT ??_C@_0CK@IDBHOJE@SERVER_COMMAND_RETURN_TO_SELECT@
CONST	SEGMENT
??_C@_0CK@IDBHOJE@SERVER_COMMAND_RETURN_TO_SELECT@ DB 'SERVER_COMMAND_RET'
	DB	'URN_TO_SELECT_CHARACTER', 00H		; `string'
CONST	ENDS
;	COMDAT ??_C@_0BE@FCDHFIHM@SERVER_COMMAND_QUIT@
CONST	SEGMENT
??_C@_0BE@FCDHFIHM@SERVER_COMMAND_QUIT@ DB 'SERVER_COMMAND_QUIT', 00H ; `string'
CONST	ENDS
;	COMDAT ??_C@_0CA@IIDLBDLK@ACCOUNT_CHARACTER_SLOT_MAPINDEX@
CONST	SEGMENT
??_C@_0CA@IIDLBDLK@ACCOUNT_CHARACTER_SLOT_MAPINDEX@ DB 'ACCOUNT_CHARACTER'
	DB	'_SLOT_MAPINDEX', 00H			; `string'
CONST	ENDS
;	COMDAT ??_C@_0BH@IJCJGIEO@SERVER_COMMAND_LOG_OUT@
CONST	SEGMENT
??_C@_0BH@IJCJGIEO@SERVER_COMMAND_LOG_OUT@ DB 'SERVER_COMMAND_LOG_OUT', 00H ; `string'
CONST	ENDS
;	COMDAT ??_C@_0BM@LMFDJNHL@ACCOUNT_CHARACTER_SLOT_AURA@
CONST	SEGMENT
??_C@_0BM@LMFDJNHL@ACCOUNT_CHARACTER_SLOT_AURA@ DB 'ACCOUNT_CHARACTER_SLO'
	DB	'T_AURA', 00H				; `string'
CONST	ENDS
;	COMDAT ??_C@_0CF@GNEHPDHB@ACCOUNT_CHARACTER_SLOT_LAST_PLA@
CONST	SEGMENT
??_C@_0CF@GNEHPDHB@ACCOUNT_CHARACTER_SLOT_LAST_PLA@ DB 'ACCOUNT_CHARACTER'
	DB	'_SLOT_LAST_PLAYTIME', 00H			; `string'
CONST	ENDS
;	COMDAT ??_C@_0BM@BPKEDCMB@ACCOUNT_CHARACTER_SLOT_HAIR@
CONST	SEGMENT
??_C@_0BM@BPKEDCMB@ACCOUNT_CHARACTER_SLOT_HAIR@ DB 'ACCOUNT_CHARACTER_SLO'
	DB	'T_HAIR', 00H				; `string'
CONST	ENDS
;	COMDAT ??_C@_0BM@LAKJJJHL@ACCOUNT_CHARACTER_SLOT_ACCE@
CONST	SEGMENT
??_C@_0BM@LAKJJJHL@ACCOUNT_CHARACTER_SLOT_ACCE@ DB 'ACCOUNT_CHARACTER_SLO'
	DB	'T_ACCE', 00H				; `string'
CONST	ENDS
;	COMDAT ??_C@_0CC@HMBBCNEO@ACCOUNT_CHARACTER_SLOT_GUILD_NA@
CONST	SEGMENT
??_C@_0CC@HMBBCNEO@ACCOUNT_CHARACTER_SLOT_GUILD_NA@ DB 'ACCOUNT_CHARACTER'
	DB	'_SLOT_GUILD_NAME', 00H			; `string'
CONST	ENDS
;	COMDAT ??_C@_0CI@NIHCCHJE@ACCOUNT_CHARACTER_SLOT_CHANGE_N@
CONST	SEGMENT
??_C@_0CI@NIHCCHJE@ACCOUNT_CHARACTER_SLOT_CHANGE_N@ DB 'ACCOUNT_CHARACTER'
	DB	'_SLOT_CHANGE_NAME_FLAG', 00H		; `string'
CONST	ENDS
;	COMDAT ??_C@_0BM@OJMCHCKG@ACCOUNT_CHARACTER_SLOT_PORT@
CONST	SEGMENT
??_C@_0BM@OJMCHCKG@ACCOUNT_CHARACTER_SLOT_PORT@ DB 'ACCOUNT_CHARACTER_SLO'
	DB	'T_PORT', 00H				; `string'
CONST	ENDS
;	COMDAT ??_C@_0CA@GFKKICFN@ACCOUNT_CHARACTER_SLOT_GUILD_ID@
CONST	SEGMENT
??_C@_0CA@GFKKICFN@ACCOUNT_CHARACTER_SLOT_GUILD_ID@ DB 'ACCOUNT_CHARACTER'
	DB	'_SLOT_GUILD_ID', 00H			; `string'
CONST	ENDS
;	COMDAT ??_C@_0BM@JNGCLJJM@ACCOUNT_CHARACTER_SLOT_FORM@
CONST	SEGMENT
??_C@_0BM@JNGCLJJM@ACCOUNT_CHARACTER_SLOT_FORM@ DB 'ACCOUNT_CHARACTER_SLO'
	DB	'T_FORM', 00H				; `string'
CONST	ENDS
;	COMDAT ??_C@_0BM@CNLCDDNB@ACCOUNT_CHARACTER_SLOT_ADDR@
CONST	SEGMENT
??_C@_0BM@CNLCDDNB@ACCOUNT_CHARACTER_SLOT_ADDR@ DB 'ACCOUNT_CHARACTER_SLO'
	DB	'T_ADDR', 00H				; `string'
CONST	ENDS
;	COMDAT ??_C@_0BL@PICCMPNB@ACCOUNT_CHARACTER_SLOT_HTH@
CONST	SEGMENT
??_C@_0BL@PICCMPNB@ACCOUNT_CHARACTER_SLOT_HTH@ DB 'ACCOUNT_CHARACTER_SLOT'
	DB	'_HTH', 00H					; `string'
CONST	ENDS
;	COMDAT ??_C@_0CA@KFILFMPG@ACCOUNT_CHARACTER_SLOT_PLAYTIME@
CONST	SEGMENT
??_C@_0CA@KFILFMPG@ACCOUNT_CHARACTER_SLOT_PLAYTIME@ DB 'ACCOUNT_CHARACTER'
	DB	'_SLOT_PLAYTIME', 00H			; `string'
CONST	ENDS
;	COMDAT ??_C@_0BL@OFNCKLHP@ACCOUNT_CHARACTER_SLOT_DEX@
CONST	SEGMENT
??_C@_0BL@OFNCKLHP@ACCOUNT_CHARACTER_SLOT_DEX@ DB 'ACCOUNT_CHARACTER_SLOT'
	DB	'_DEX', 00H					; `string'
CONST	ENDS
;	COMDAT ??_C@_0BL@LHFINDEP@ACCOUNT_CHARACTER_SLOT_INT@
CONST	SEGMENT
??_C@_0BL@LHFINDEP@ACCOUNT_CHARACTER_SLOT_INT@ DB 'ACCOUNT_CHARACTER_SLOT'
	DB	'_INT', 00H					; `string'
CONST	ENDS
;	COMDAT ??_C@_0BN@MPLCEAPH@ACCOUNT_CHARACTER_SLOT_LEVEL@
CONST	SEGMENT
??_C@_0BN@MPLCEAPH@ACCOUNT_CHARACTER_SLOT_LEVEL@ DB 'ACCOUNT_CHARACTER_SL'
	DB	'OT_LEVEL', 00H				; `string'
CONST	ENDS
;	COMDAT ??_C@_0BL@MPBHOFJE@ACCOUNT_CHARACTER_SLOT_STR@
CONST	SEGMENT
??_C@_0BL@MPBHOFJE@ACCOUNT_CHARACTER_SLOT_STR@ DB 'ACCOUNT_CHARACTER_SLOT'
	DB	'_STR', 00H					; `string'
CONST	ENDS
;	COMDAT ??_C@_0BM@JCGOOLCL@ACCOUNT_CHARACTER_SLOT_NAME@
CONST	SEGMENT
??_C@_0BM@JCGOOLCL@ACCOUNT_CHARACTER_SLOT_NAME@ DB 'ACCOUNT_CHARACTER_SLO'
	DB	'T_NAME', 00H				; `string'
CONST	ENDS
;	COMDAT ??_C@_0BM@DNOALMKC@ACCOUNT_CHARACTER_SLOT_RACE@
CONST	SEGMENT
??_C@_0BM@DNOALMKC@ACCOUNT_CHARACTER_SLOT_RACE@ DB 'ACCOUNT_CHARACTER_SLO'
	DB	'T_RACE', 00H				; `string'
CONST	ENDS
;	COMDAT ??_C@_0BC@BCDCNNFP@PHASE_WINDOW_LOGO@
CONST	SEGMENT
??_C@_0BC@BCDCNNFP@PHASE_WINDOW_LOGO@ DB 'PHASE_WINDOW_LOGO', 00H ; `string'
CONST	ENDS
;	COMDAT ??_C@_0BK@HDGGAJBJ@ACCOUNT_CHARACTER_SLOT_ID@
CONST	SEGMENT
??_C@_0BK@HDGGAJBJ@ACCOUNT_CHARACTER_SLOT_ID@ DB 'ACCOUNT_CHARACTER_SLOT_'
	DB	'ID', 00H					; `string'
CONST	ENDS
;	COMDAT ??_C@_0BC@HCEFPGCB@PHASE_WINDOW_GAME@
CONST	SEGMENT
??_C@_0BC@HCEFPGCB@PHASE_WINDOW_GAME@ DB 'PHASE_WINDOW_GAME', 00H ; `string'
CONST	ENDS
;	COMDAT ??_C@_0BE@IIMEMMI@PHASE_WINDOW_EMPIRE@
CONST	SEGMENT
??_C@_0BE@IIMEMMI@PHASE_WINDOW_EMPIRE@ DB 'PHASE_WINDOW_EMPIRE', 00H ; `string'
CONST	ENDS
;	COMDAT ??_C@_0BE@PAOFIFBD@PHASE_WINDOW_CREATE@
CONST	SEGMENT
??_C@_0BE@PAOFIFBD@PHASE_WINDOW_CREATE@ DB 'PHASE_WINDOW_CREATE', 00H ; `string'
CONST	ENDS
;	COMDAT ??_C@_0BC@PFELHICG@PHASE_WINDOW_LOAD@
CONST	SEGMENT
??_C@_0BC@PFELHICG@PHASE_WINDOW_LOAD@ DB 'PHASE_WINDOW_LOAD', 00H ; `string'
CONST	ENDS
;	COMDAT ??_C@_0BD@JBLBGAIB@PHASE_WINDOW_LOGIN@
CONST	SEGMENT
??_C@_0BD@JBLBGAIB@PHASE_WINDOW_LOGIN@ DB 'PHASE_WINDOW_LOGIN', 00H ; `string'
CONST	ENDS
;	COMDAT ??_C@_0BE@EBCKEIDN@PHASE_WINDOW_SELECT@
CONST	SEGMENT
??_C@_0BE@EBCKEIDN@PHASE_WINDOW_SELECT@ DB 'PHASE_WINDOW_SELECT', 00H ; `string'
CONST	ENDS
;	COMDAT ??_C@_0CB@BOPIDGGI@ERROR_MARK_UPLOAD_NEED_RECONNEC@
CONST	SEGMENT
??_C@_0CB@BOPIDGGI@ERROR_MARK_UPLOAD_NEED_RECONNEC@ DB 'ERROR_MARK_UPLOAD'
	DB	'_NEED_RECONNECT', 00H			; `string'
CONST	ENDS
;	COMDAT ??_C@_0CA@JMHMMKLO@ERROR_MARK_CHECK_NEED_RECONNECT@
CONST	SEGMENT
??_C@_0CA@JMHMMKLO@ERROR_MARK_CHECK_NEED_RECONNECT@ DB 'ERROR_MARK_CHECK_'
	DB	'NEED_RECONNECT', 00H			; `string'
CONST	ENDS
;	COMDAT ??_C@_0BB@FEGLKDMB@ERROR_MARK_WIDTH@
CONST	SEGMENT
??_C@_0BB@FEGLKDMB@ERROR_MARK_WIDTH@ DB 'ERROR_MARK_WIDTH', 00H ; `string'
CONST	ENDS
;	COMDAT ??_C@_0BC@GOIIBBEJ@ERROR_MARK_HEIGHT@
CONST	SEGMENT
??_C@_0BC@GOIIBBEJ@ERROR_MARK_HEIGHT@ DB 'ERROR_MARK_HEIGHT', 00H ; `string'
CONST	ENDS
;	COMDAT ??_C@_0BK@BILAANNF@ERROR_CONNECT_MARK_SERVER@
CONST	SEGMENT
??_C@_0BK@BILAANNF@ERROR_CONNECT_MARK_SERVER@ DB 'ERROR_CONNECT_MARK_SERV'
	DB	'ER', 00H					; `string'
CONST	ENDS
;	COMDAT ??_C@_0BA@NEJKKBEJ@ERROR_LOAD_MARK@
CONST	SEGMENT
??_C@_0BA@NEJKKBEJ@ERROR_LOAD_MARK@ DB 'ERROR_LOAD_MARK', 00H ; `string'
CONST	ENDS
;	COMDAT ??_C@_0BC@BHMNHCBE@SendHuntingAction@
CONST	SEGMENT
??_C@_0BC@BHMNHCBE@SendHuntingAction@ DB 'SendHuntingAction', 00H ; `string'
CONST	ENDS
;	COMDAT ??_C@_0L@LILDODAP@ERROR_NONE@
CONST	SEGMENT
??_C@_0L@LILDODAP@ERROR_NONE@ DB 'ERROR_NONE', 00H	; `string'
CONST	ENDS
;	COMDAT ??_C@_0BF@FLBAAAK@SendChangeLookAccept@
CONST	SEGMENT
??_C@_0BF@FLBAAAK@SendChangeLookAccept@ DB 'SendChangeLookAccept', 00H ; `string'
CONST	ENDS
;	COMDAT ??_C@_0BF@OEMKPNHP@SendChangeLookCanCle@
CONST	SEGMENT
??_C@_0BF@OEMKPNHP@SendChangeLookCanCle@ DB 'SendChangeLookCanCle', 00H ; `string'
CONST	ENDS
;	COMDAT ??_C@_0CC@KAHMBMII@SendChangeLookCheckInFreeYangIt@
CONST	SEGMENT
??_C@_0CC@KAHMBMII@SendChangeLookCheckInFreeYangIt@ DB 'SendChangeLookChe'
	DB	'ckInFreeYangItem', 00H			; `string'
CONST	ENDS
;	COMDAT ??_C@_0CD@CGFABPFC@SendChangeLookCheckOutFreeYangI@
CONST	SEGMENT
??_C@_0CD@CGFABPFC@SendChangeLookCheckOutFreeYangI@ DB 'SendChangeLookChe'
	DB	'ckOutFreeYangItem', 00H			; `string'
CONST	ENDS
;	COMDAT ??_C@_0BG@KJDOPNFA@SendChangeLookCheckIn@
CONST	SEGMENT
??_C@_0BG@KJDOPNFA@SendChangeLookCheckIn@ DB 'SendChangeLookCheckIn', 00H ; `string'
CONST	ENDS
;	COMDAT ??_C@_0BH@BFIJMALG@SendChangeLookCheckOut@
CONST	SEGMENT
??_C@_0BH@BFIJMALG@SendChangeLookCheckOut@ DB 'SendChangeLookCheckOut', 00H ; `string'
CONST	ENDS
;	COMDAT ??_C@_0BC@LDLOKAHN@SendPetAttrChange@
CONST	SEGMENT
??_C@_0BC@LDLOKAHN@SendPetAttrChange@ DB 'SendPetAttrChange', 00H ; `string'
CONST	ENDS
;	COMDAT ??_C@_0O@FEFPMGMH@SendPetRevive@
CONST	SEGMENT
??_C@_0O@FEFPMGMH@SendPetRevive@ DB 'SendPetRevive', 00H ; `string'
CONST	ENDS
;	COMDAT ??_C@_0BG@PCKLFOPF@SendPetDeleteAllSkill@
CONST	SEGMENT
??_C@_0BG@PCKLFOPF@SendPetDeleteAllSkill@ DB 'SendPetDeleteAllSkill', 00H ; `string'
CONST	ENDS
;	COMDAT ??_C@_0BF@IELOFHOB@SendPetAttrDetermine@
CONST	SEGMENT
??_C@_0BF@IELOFHOB@SendPetAttrDetermine@ DB 'SendPetAttrDetermine', 00H ; `string'
CONST	ENDS
;	COMDAT ??_C@_0BL@KHAOMOFC@SendPetSkillUpgradeRequest@
CONST	SEGMENT
??_C@_0BL@KHAOMOFC@SendPetSkillUpgradeRequest@ DB 'SendPetSkillUpgradeReq'
	DB	'uest', 00H					; `string'
CONST	ENDS
;	COMDAT ??_C@_0BD@GMMPELPL@SendPetDeleteSkill@
CONST	SEGMENT
??_C@_0BD@GMMPELPL@SendPetDeleteSkill@ DB 'SendPetDeleteSkill', 00H ; `string'
CONST	ENDS
;	COMDAT ??_C@_0BC@ODGMFKGN@SendPetWindowType@
CONST	SEGMENT
??_C@_0BC@ODGMFKGN@SendPetWindowType@ DB 'SendPetWindowType', 00H ; `string'
CONST	ENDS
;	COMDAT ??_C@_0BC@JMDGNLBA@SendPetLearnSkill@
CONST	SEGMENT
??_C@_0BC@JMDGNLBA@SendPetLearnSkill@ DB 'SendPetLearnSkill', 00H ; `string'
CONST	ENDS
;	COMDAT ??_C@_0BI@EBDKMLFG@SendPetNameChangePacket@
CONST	SEGMENT
??_C@_0BI@EBDKMLFG@SendPetNameChangePacket@ DB 'SendPetNameChangePacket', 00H ; `string'
CONST	ENDS
;	COMDAT ??_C@_0BO@CHBKNLKN@SendPetNameChangeWindowPacket@
CONST	SEGMENT
??_C@_0BO@CHBKNLKN@SendPetNameChangeWindowPacket@ DB 'SendPetNameChangeWi'
	DB	'ndowPacket', 00H				; `string'
CONST	ENDS
;	COMDAT ??_C@_0BG@CAPLAGOH@SendPetHatchingPacket@
CONST	SEGMENT
??_C@_0BG@CAPLAGOH@SendPetHatchingPacket@ DB 'SendPetHatchingPacket', 00H ; `string'
CONST	ENDS
;	COMDAT ??_C@_0BM@GAONBPGD@SendPetHatchingWindowPacket@
CONST	SEGMENT
??_C@_0BM@GAONBPGD@SendPetHatchingWindowPacket@ DB 'SendPetHatchingWindow'
	DB	'Packet', 00H				; `string'
CONST	ENDS
;	COMDAT ??_C@_0BA@EKELKFID@CheckUsePetItem@
CONST	SEGMENT
??_C@_0BA@EKELKFID@CheckUsePetItem@ DB 'CheckUsePetItem', 00H ; `string'
CONST	ENDS
;	COMDAT ??_C@_0BC@DPPMLCAB@SendPetFeedPacket@
CONST	SEGMENT
??_C@_0BC@DPPMLCAB@SendPetFeedPacket@ DB 'SendPetFeedPacket', 00H ; `string'
CONST	ENDS
;	COMDAT ??_C@_0BF@EMOBFCJD@SendAuraRefineAccept@
CONST	SEGMENT
??_C@_0BF@EMOBFCJD@SendAuraRefineAccept@ DB 'SendAuraRefineAccept', 00H ; `string'
CONST	ENDS
;	COMDAT ??_C@_0BF@NDLLIABO@SendAuraRefineCancel@
CONST	SEGMENT
??_C@_0BF@NDLLIABO@SendAuraRefineCancel@ DB 'SendAuraRefineCancel', 00H ; `string'
CONST	ENDS
;	COMDAT ??_C@_0BG@CAKEIGOC@SendAuraRefineCheckIn@
CONST	SEGMENT
??_C@_0BG@CAKEIGOC@SendAuraRefineCheckIn@ DB 'SendAuraRefineCheckIn', 00H ; `string'
CONST	ENDS
;	COMDAT ??_C@_0BH@DAGPIIGN@SendAuraRefineCheckOut@
CONST	SEGMENT
??_C@_0BH@DAGPIIGN@SendAuraRefineCheckOut@ DB 'SendAuraRefineCheckOut', 00H ; `string'
CONST	ENDS
;	COMDAT ??_C@_0BF@IBLIMNKE@LoadResourcesInCache@
CONST	SEGMENT
??_C@_0BF@IBLIMNKE@LoadResourcesInCache@ DB 'LoadResourcesInCache', 00H ; `string'
CONST	ENDS
;	COMDAT ??_C@_0P@HANGMIDD@RegisterSkills@
CONST	SEGMENT
??_C@_0P@HANGMIDD@RegisterSkills@ DB 'RegisterSkills', 00H ; `string'
CONST	ENDS
;	COMDAT ??_C@_0BK@MFBNGEKH@SendPrivateShopSearchInfo@
CONST	SEGMENT
??_C@_0BK@MFBNGEKH@SendPrivateShopSearchInfo@ DB 'SendPrivateShopSearchIn'
	DB	'fo', 00H					; `string'
CONST	ENDS
;	COMDAT ??_C@_0BP@EMBKKKAC@SendQuestInputStringLongPacket@
CONST	SEGMENT
??_C@_0BP@EMBKKKAC@SendQuestInputStringLongPacket@ DB 'SendQuestInputStri'
	DB	'ngLongPacket', 00H				; `string'
CONST	ENDS
;	COMDAT ??_C@_0M@PKHOJOKH@SendAddTime@
CONST	SEGMENT
??_C@_0M@PKHOJOKH@SendAddTime@ DB 'SendAddTime', 00H	; `string'
CONST	ENDS
;	COMDAT ??_C@_0BA@GINOFKMH@SendOpenWithVID@
CONST	SEGMENT
??_C@_0BA@GINOFKMH@SendOpenWithVID@ DB 'SendOpenWithVID', 00H ; `string'
CONST	ENDS
;	COMDAT ??_C@_0BB@DODFFFJG@SendOpenShopSlot@
CONST	SEGMENT
??_C@_0BB@DODFFFJG@SendOpenShopSlot@ DB 'SendOpenShopSlot', 00H ; `string'
CONST	ENDS
;	COMDAT ??_C@_0BB@CCPJMAB@SendGetBackItems@
CONST	SEGMENT
??_C@_0BB@CCPJMAB@SendGetBackItems@ DB 'SendGetBackItems', 00H ; `string'
CONST	ENDS
;	COMDAT ??_C@_0BG@BADFKLBC@SendOfflineShopButton@
CONST	SEGMENT
??_C@_0BG@BADFKLBC@SendOfflineShopButton@ DB 'SendOfflineShopButton', 00H ; `string'
CONST	ENDS
;	COMDAT ??_C@_0BK@BHBMOPGA@SendOfflineShopRemoveLogs@
CONST	SEGMENT
??_C@_0BK@BHBMOPGA@SendOfflineShopRemoveLogs@ DB 'SendOfflineShopRemoveLo'
	DB	'gs', 00H					; `string'
CONST	ENDS
;	COMDAT ??_C@_0BL@IBEDKCND@SendOfflineShopChangeTitle@
CONST	SEGMENT
??_C@_0BL@IBEDKCND@SendOfflineShopChangeTitle@ DB 'SendOfflineShopChangeT'
	DB	'itle', 00H					; `string'
CONST	ENDS
;	COMDAT ??_C@_0BF@IDFHMEFI@SendOfflineShopCheck@
CONST	SEGMENT
??_C@_0BF@IDFHMEFI@SendOfflineShopCheck@ DB 'SendOfflineShopCheck', 00H ; `string'
CONST	ENDS
;	COMDAT ??_C@_0BH@MIDGLPNJ@SendDestroyOfflineShop@
CONST	SEGMENT
??_C@_0BH@MIDGLPNJ@SendDestroyOfflineShop@ DB 'SendDestroyOfflineShop', 00H ; `string'
CONST	ENDS
;	COMDAT ??_C@_0BF@FGMFPANA@SendTakeOfflineMoney@
CONST	SEGMENT
??_C@_0BF@FGMFPANA@SendTakeOfflineMoney@ DB 'SendTakeOfflineMoney', 00H ; `string'
CONST	ENDS
;	COMDAT ??_C@_0BH@OAFMCCNO@SendAddOfflineShopItem@
CONST	SEGMENT
??_C@_0BH@OAFMCCNO@SendAddOfflineShopItem@ DB 'SendAddOfflineShopItem', 00H ; `string'
CONST	ENDS
;	COMDAT ??_C@_0BK@MHCHACHJ@SendRemoveOfflineShopItem@
CONST	SEGMENT
??_C@_0BK@MHCHACHJ@SendRemoveOfflineShopItem@ DB 'SendRemoveOfflineShopIt'
	DB	'em', 00H					; `string'
CONST	ENDS
;	COMDAT ??_C@_0BJ@KEBAFNIE@SendOfflineShopEndPacket@
CONST	SEGMENT
??_C@_0BJ@KEBAFNIE@SendOfflineShopEndPacket@ DB 'SendOfflineShopEndPacket'
	DB	00H						; `string'
CONST	ENDS
;	COMDAT ??_C@_0BJ@IPOHLOKL@SendOfflineShopBuyPacket@
CONST	SEGMENT
??_C@_0BJ@IPOHLOKL@SendOfflineShopBuyPacket@ DB 'SendOfflineShopBuyPacket'
	DB	00H						; `string'
CONST	ENDS
;	COMDAT ??_C@_0BI@OCAOJHPJ@SendExtBattlePassAction@
CONST	SEGMENT
??_C@_0BI@OCAOJHPJ@SendExtBattlePassAction@ DB 'SendExtBattlePassAction', 00H ; `string'
CONST	ENDS
;	COMDAT ??_C@_0BN@FGANJKPC@SendExtBattlePassPremiumItem@
CONST	SEGMENT
??_C@_0BN@FGANJKPC@SendExtBattlePassPremiumItem@ DB 'SendExtBattlePassPre'
	DB	'miumItem', 00H				; `string'
CONST	ENDS
;	COMDAT ??_C@_0BG@FNGLKDCN@SendRequestEventQuest@
CONST	SEGMENT
??_C@_0BG@FNGLKDCN@SendRequestEventQuest@ DB 'SendRequestEventQuest', 00H ; `string'
CONST	ENDS
;	COMDAT ??_C@_0BF@EGLLPLHB@SendRequestEventData@
CONST	SEGMENT
??_C@_0BF@EGLLPLHB@SendRequestEventData@ DB 'SendRequestEventData', 00H ; `string'
CONST	ENDS
;	COMDAT ??_C@_0BD@FJEJICMG@SendTargetInfoLoad@
CONST	SEGMENT
??_C@_0BD@FJEJICMG@SendTargetInfoLoad@ DB 'SendTargetInfoLoad', 00H ; `string'
CONST	ENDS
;	COMDAT ??_C@_0BC@MKMPHPEO@SendChestDropInfo@
CONST	SEGMENT
??_C@_0BC@MKMPHPEO@SendChestDropInfo@ DB 'SendChestDropInfo', 00H ; `string'
CONST	ENDS
;	COMDAT ??_C@_0CF@DBCMLGOB@SendMessengerRequestWarpByNameP@
CONST	SEGMENT
??_C@_0CF@DBCMLGOB@SendMessengerRequestWarpByNameP@ DB 'SendMessengerRequ'
	DB	'estWarpByNamePacket', 00H			; `string'
CONST	ENDS
;	COMDAT ??_C@_0CA@DMDCCOLJ@SendMessengerSummonByNamePacket@
CONST	SEGMENT
??_C@_0CA@DMDCCOLJ@SendMessengerSummonByNamePacket@ DB 'SendMessengerSumm'
	DB	'onByNamePacket', 00H			; `string'
CONST	ENDS
;	COMDAT ??_C@_0M@BDNFJNIF@GetLanguage@
CONST	SEGMENT
??_C@_0M@BDNFJNIF@GetLanguage@ DB 'GetLanguage', 00H	; `string'
CONST	ENDS
;	COMDAT ??_C@_0BD@CADFDBKC@SendWhisperDetails@
CONST	SEGMENT
??_C@_0BD@CADFDBKC@SendWhisperDetails@ DB 'SendWhisperDetails', 00H ; `string'
CONST	ENDS
;	COMDAT ??_C@_0BJ@JLPIJBCL@SendChangeLanguagePacket@
CONST	SEGMENT
??_C@_0BJ@JLPIJBCL@SendChangeLanguagePacket@ DB 'SendChangeLanguagePacket'
	DB	00H						; `string'
CONST	ENDS
;	COMDAT ??_C@_0M@BMMLELAG@SetLanguage@
CONST	SEGMENT
??_C@_0M@BMMLELAG@SetLanguage@ DB 'SetLanguage', 00H	; `string'
CONST	ENDS
;	COMDAT ??_C@_0BG@LMAHKAGJ@SendItemDestroyPacket@
CONST	SEGMENT
??_C@_0BG@LMAHKAGJ@SendItemDestroyPacket@ DB 'SendItemDestroyPacket', 00H ; `string'
CONST	ENDS
;	COMDAT ??_C@_0BD@NCAGLKGI@SendItemSellPacket@
CONST	SEGMENT
??_C@_0BD@NCAGLKGI@SendItemSellPacket@ DB 'SendItemSellPacket', 00H ; `string'
CONST	ENDS
;	COMDAT ??_C@_0BB@CABIEEGM@RegisterErrorLog@
CONST	SEGMENT
??_C@_0BB@CABIEEGM@RegisterErrorLog@ DB 'RegisterErrorLog', 00H ; `string'
CONST	ENDS
;	COMDAT ??_C@_0BL@HLJICMNL@SendItemNewAttributePacket@
CONST	SEGMENT
??_C@_0BL@HLJICMNL@SendItemNewAttributePacket@ DB 'SendItemNewAttributePa'
	DB	'cket', 00H					; `string'
CONST	ENDS
;	COMDAT ??_C@_0BG@KCIMJDEA@SetEmpireLanguageMode@
CONST	SEGMENT
??_C@_0BG@KCIMJDEA@SetEmpireLanguageMode@ DB 'SetEmpireLanguageMode', 00H ; `string'
CONST	ENDS
;	COMDAT ??_C@_0BC@NOAKHLIH@SetSkillGroupFake@
CONST	SEGMENT
??_C@_0BC@NOAKHLIH@SetSkillGroupFake@ DB 'SetSkillGroupFake', 00H ; `string'
CONST	ENDS
;	COMDAT ??_C@_0BF@HEJDCMFH@SendSelectItemPacket@
CONST	SEGMENT
??_C@_0BF@HEJDCMFH@SendSelectItemPacket@ DB 'SendSelectItemPacket', 00H ; `string'
CONST	ENDS
;	COMDAT ??_C@_0BG@HLIDKLKJ@SetPacketSequenceMode@
CONST	SEGMENT
??_C@_0BG@HLIDKLKJ@SetPacketSequenceMode@ DB 'SetPacketSequenceMode', 00H ; `string'
CONST	ENDS
;	COMDAT ??_C@_0BM@NLIMKJKK@SendRequestRefineInfoPacket@
CONST	SEGMENT
??_C@_0BM@NLIMKJKK@SendRequestRefineInfoPacket@ DB 'SendRequestRefineInfo'
	DB	'Packet', 00H				; `string'
CONST	ENDS
;	COMDAT ??_C@_0BB@MBCAEHJO@SendRefinePacket@
CONST	SEGMENT
??_C@_0BB@MBCAEHJO@SendRefinePacket@ DB 'SendRefinePacket', 00H ; `string'
CONST	ENDS
;	COMDAT ??_C@_0BM@HDHMFNNO@SendGuildDepositMoneyPacket@
CONST	SEGMENT
??_C@_0BM@HDHMFNNO@SendGuildDepositMoneyPacket@ DB 'SendGuildDepositMoney'
	DB	'Packet', 00H				; `string'
CONST	ENDS
;	COMDAT ??_C@_0BN@BPJGBHPL@SendGuildWithdrawMoneyPacket@
CONST	SEGMENT
??_C@_0BN@BPJGBHPL@SendGuildWithdrawMoneyPacket@ DB 'SendGuildWithdrawMon'
	DB	'eyPacket', 00H				; `string'
CONST	ENDS
;	COMDAT ??_C@_0BM@KLBFEJBI@SendGuildInviteAnswerPacket@
CONST	SEGMENT
??_C@_0BM@KLBFEJBI@SendGuildInviteAnswerPacket@ DB 'SendGuildInviteAnswer'
	DB	'Packet', 00H				; `string'
CONST	ENDS
;	COMDAT ??_C@_0BJ@LKJGDIEE@SendGuildChargeGSPPacket@
CONST	SEGMENT
??_C@_0BJ@LKJGDIEE@SendGuildChargeGSPPacket@ DB 'SendGuildChargeGSPPacket'
	DB	00H						; `string'
CONST	ENDS
;	COMDAT ??_C@_0BI@HICDMLJH@SendGuildUseSkillPacket@
CONST	SEGMENT
??_C@_0BI@HICDMLJH@SendGuildUseSkillPacket@ DB 'SendGuildUseSkillPacket', 00H ; `string'
CONST	ENDS
;	COMDAT ??_C@_0CD@BMLIKMKL@SendGuildChangeMemberGeneralPac@
CONST	SEGMENT
??_C@_0CD@BMLIKMKL@SendGuildChangeMemberGeneralPac@ DB 'SendGuildChangeMe'
	DB	'mberGeneralPacket', 00H			; `string'
CONST	ENDS
;	COMDAT ??_C@_0BP@BKEOCNGM@SendGuildRefreshCommentsPacket@
CONST	SEGMENT
??_C@_0BP@BKEOCNGM@SendGuildRefreshCommentsPacket@ DB 'SendGuildRefreshCo'
	DB	'mmentsPacket', 00H				; `string'
CONST	ENDS
;	COMDAT ??_C@_0CB@KOIDGNFC@SendGuildChangeMemberGradePacke@
CONST	SEGMENT
??_C@_0CB@KOIDGNFC@SendGuildChangeMemberGradePacke@ DB 'SendGuildChangeMe'
	DB	'mberGradePacket', 00H			; `string'
CONST	ENDS
;	COMDAT ??_C@_0BL@JLEHIONL@SendGuildPostCommentPacket@
CONST	SEGMENT
??_C@_0BL@JLEHIONL@SendGuildPostCommentPacket@ DB 'SendGuildPostCommentPa'
	DB	'cket', 00H					; `string'
CONST	ENDS
;	COMDAT ??_C@_0BN@MBNLMFLO@SendGuildDeleteCommentPacket@
CONST	SEGMENT
??_C@_0BN@MBNLMFLO@SendGuildDeleteCommentPacket@ DB 'SendGuildDeleteComme'
	DB	'ntPacket', 00H				; `string'
CONST	ENDS
;	COMDAT ??_C@_0CE@EFLFPPCO@SendGuildChangeGradeAuthorityPa@
CONST	SEGMENT
??_C@_0CE@EFLFPPCO@SendGuildChangeGradeAuthorityPa@ DB 'SendGuildChangeGr'
	DB	'adeAuthorityPacket', 00H			; `string'
CONST	ENDS
;	COMDAT ??_C@_0BF@OAFAHAKB@SendGuildOfferPacket@
CONST	SEGMENT
??_C@_0BF@OAFAHAKB@SendGuildOfferPacket@ DB 'SendGuildOfferPacket', 00H ; `string'
CONST	ENDS
;	COMDAT ??_C@_0BM@GAJEHHNG@SendGuildRemoveMemberPacket@
CONST	SEGMENT
??_C@_0BM@GAJEHHNG@SendGuildRemoveMemberPacket@ DB 'SendGuildRemoveMember'
	DB	'Packet', 00H				; `string'
CONST	ENDS
;	COMDAT ??_C@_0BP@ODLEJFMG@SendGuildChangeGradeNamePacket@
CONST	SEGMENT
??_C@_0BP@ODLEJFMG@SendGuildChangeGradeNamePacket@ DB 'SendGuildChangeGra'
	DB	'deNamePacket', 00H				; `string'
CONST	ENDS
;	COMDAT ??_C@_0BH@HMDNFHNB@SendQuestConfirmPacket@
CONST	SEGMENT
??_C@_0BH@HMDNFHNB@SendQuestConfirmPacket@ DB 'SendQuestConfirmPacket', 00H ; `string'
CONST	ENDS
;	COMDAT ??_C@_0BJ@MFJNIJIJ@SendGuildAddMemberPacket@
CONST	SEGMENT
??_C@_0BJ@MFJNIJIJ@SendGuildAddMemberPacket@ DB 'SendGuildAddMemberPacket'
	DB	00H						; `string'
CONST	ENDS
;	COMDAT ??_C@_0BH@BDNDNKGE@SendMallCheckoutPacket@
CONST	SEGMENT
??_C@_0BH@BDNDNKGE@SendMallCheckoutPacket@ DB 'SendMallCheckoutPacket', 00H ; `string'
CONST	ENDS
;	COMDAT ??_C@_0BL@BJLFPMAE@SendQuestInputStringPacket@
CONST	SEGMENT
??_C@_0BL@BJLFPMAE@SendQuestInputStringPacket@ DB 'SendQuestInputStringPa'
	DB	'cket', 00H					; `string'
CONST	ENDS
;	COMDAT ??_C@_0BK@LJAMACPE@SendSafeboxCheckoutPacket@
CONST	SEGMENT
??_C@_0BK@LJAMACPE@SendSafeboxCheckoutPacket@ DB 'SendSafeboxCheckoutPack'
	DB	'et', 00H					; `string'
CONST	ENDS
;	COMDAT ??_C@_0BK@JMMAEJFJ@SendSafeboxItemMovePacket@
CONST	SEGMENT
??_C@_0BK@JMMAEJFJ@SendSafeboxItemMovePacket@ DB 'SendSafeboxItemMovePack'
	DB	'et', 00H					; `string'
CONST	ENDS
;	COMDAT ??_C@_0BP@MLAJADAA@SendSafeboxWithdrawMoneyPacket@
CONST	SEGMENT
??_C@_0BP@MLAJADAA@SendSafeboxWithdrawMoneyPacket@ DB 'SendSafeboxWithdra'
	DB	'wMoneyPacket', 00H				; `string'
CONST	ENDS
;	COMDAT ??_C@_0BJ@HNJCKALG@SendSafeboxCheckinPacket@
CONST	SEGMENT
??_C@_0BJ@HNJCKALG@SendSafeboxCheckinPacket@ DB 'SendSafeboxCheckinPacket'
	DB	00H						; `string'
CONST	ENDS
;	COMDAT ??_C@_0BJ@JGBOMHFI@SendPartyParameterPacket@
CONST	SEGMENT
??_C@_0BJ@JGBOMHFI@SendPartyParameterPacket@ DB 'SendPartyParameterPacket'
	DB	00H						; `string'
CONST	ENDS
;	COMDAT ??_C@_0BL@CAAOLIHO@SendSafeboxSaveMoneyPacket@
CONST	SEGMENT
??_C@_0BL@CAAOLIHO@SendSafeboxSaveMoneyPacket@ DB 'SendSafeboxSaveMoneyPa'
	DB	'cket', 00H					; `string'
CONST	ENDS
;	COMDAT ??_C@_0BI@LNEGCCFH@SendPartySetStatePacket@
CONST	SEGMENT
??_C@_0BI@LNEGCCFH@SendPartySetStatePacket@ DB 'SendPartySetStatePacket', 00H ; `string'
CONST	ENDS
;	COMDAT ??_C@_0BI@EONDHFJL@SendPartyUseSkillPacket@
CONST	SEGMENT
??_C@_0BI@EONDHFJL@SendPartyUseSkillPacket@ DB 'SendPartyUseSkillPacket', 00H ; `string'
CONST	ENDS
;	COMDAT ??_C@_0BE@JHFPDGFP@SendPartyExitPacket@
CONST	SEGMENT
??_C@_0BE@JHFPDGFP@SendPartyExitPacket@ DB 'SendPartyExitPacket', 00H ; `string'
CONST	ENDS
;	COMDAT ??_C@_0BG@JAJGIHK@SendPartyRemovePacket@
CONST	SEGMENT
??_C@_0BG@JAJGIHK@SendPartyRemovePacket@ DB 'SendPartyRemovePacket', 00H ; `string'
CONST	ENDS
;	COMDAT ??_C@_0BG@IFGKMOED@SendPartyInvitePacket@
CONST	SEGMENT
??_C@_0BG@IFGKMOED@SendPartyInvitePacket@ DB 'SendPartyInvitePacket', 00H ; `string'
CONST	ENDS
;	COMDAT ??_C@_0BM@PFAFFBJO@SendPartyInviteAnswerPacket@
CONST	SEGMENT
??_C@_0BM@PFAFFBJO@SendPartyInviteAnswerPacket@ DB 'SendPartyInviteAnswer'
	DB	'Packet', 00H				; `string'
CONST	ENDS
;	COMDAT ??_C@_0CC@LOMMKDNH@SendMessengerBlockAddByNamePack@
CONST	SEGMENT
??_C@_0CC@LOMMKDNH@SendMessengerBlockAddByNamePack@ DB 'SendMessengerBloc'
	DB	'kAddByNamePacket', 00H			; `string'
CONST	ENDS
;	COMDAT ??_C@_0CE@JAGCNDAI@SendMessengerBlockRemoveByVIDPa@
CONST	SEGMENT
??_C@_0CE@JAGCNDAI@SendMessengerBlockRemoveByVIDPa@ DB 'SendMessengerBloc'
	DB	'kRemoveByVIDPacket', 00H			; `string'
CONST	ENDS
;	COMDAT ??_C@_0CB@KIPMMBOF@SendMessengerBlockAddByVIDPacke@
CONST	SEGMENT
??_C@_0CB@KIPMMBOF@SendMessengerBlockAddByVIDPacke@ DB 'SendMessengerBloc'
	DB	'kAddByVIDPacket', 00H			; `string'
CONST	ENDS
;	COMDAT ??_C@_0BP@CFBLDODE@SendMessengerBlockRemovePacket@
CONST	SEGMENT
??_C@_0BP@CFBLDODE@SendMessengerBlockRemovePacket@ DB 'SendMessengerBlock'
	DB	'RemovePacket', 00H				; `string'
CONST	ENDS
;	COMDAT ??_C@_0BN@MPMOLLL@SendMessengerAddByNamePacket@
CONST	SEGMENT
??_C@_0BN@MPMOLLL@SendMessengerAddByNamePacket@ DB 'SendMessengerAddByNam'
	DB	'ePacket', 00H				; `string'
CONST	ENDS
;	COMDAT ??_C@_0BK@GIIDGGBB@SendMessengerRemovePacket@
CONST	SEGMENT
??_C@_0BK@GIIDGGBB@SendMessengerRemovePacket@ DB 'SendMessengerRemovePack'
	DB	'et', 00H					; `string'
CONST	ENDS
;	COMDAT ??_C@_0BH@MCKLKDJM@RegisterEmoticonString@
CONST	SEGMENT
??_C@_0BH@MCKLKDJM@RegisterEmoticonString@ DB 'RegisterEmoticonString', 00H ; `string'
CONST	ENDS
;	COMDAT ??_C@_0BM@CFLPIFFM@SendMessengerAddByVIDPacket@
CONST	SEGMENT
??_C@_0BM@CFLPIFFM@SendMessengerAddByVIDPacket@ DB 'SendMessengerAddByVID'
	DB	'Packet', 00H				; `string'
CONST	ENDS
;	COMDAT ??_C@_0BH@NCONKHHB@SendExchangeExitPacket@
CONST	SEGMENT
??_C@_0BH@NCONKHHB@SendExchangeExitPacket@ DB 'SendExchangeExitPacket', 00H ; `string'
CONST	ENDS
;	COMDAT ??_C@_0BC@FMJHAGEI@SendOnClickPacket@
CONST	SEGMENT
??_C@_0BC@FMJHAGEI@SendOnClickPacket@ DB 'SendOnClickPacket', 00H ; `string'
CONST	ENDS
;	COMDAT ??_C@_0BJ@CGGGIOGM@SendExchangeElkAddPacket@
CONST	SEGMENT
??_C@_0BJ@CGGGIOGM@SendExchangeElkAddPacket@ DB 'SendExchangeElkAddPacket'
	DB	00H						; `string'
CONST	ENDS
;	COMDAT ??_C@_0BJ@OFKJBLDC@SendExchangeAcceptPacket@
CONST	SEGMENT
??_C@_0BJ@OFKJBLDC@SendExchangeAcceptPacket@ DB 'SendExchangeAcceptPacket'
	DB	00H						; `string'
CONST	ENDS
;	COMDAT ??_C@_0BK@IIFDLCNA@SendExchangeItemAddPacket@
CONST	SEGMENT
??_C@_0BK@IIFDLCNA@SendExchangeItemAddPacket@ DB 'SendExchangeItemAddPack'
	DB	'et', 00H					; `string'
CONST	ENDS
;	COMDAT ??_C@_0BK@KKOEHGGC@SendExchangeItemDelPacket@
CONST	SEGMENT
??_C@_0BK@KKOEHGGC@SendExchangeItemDelPacket@ DB 'SendExchangeItemDelPack'
	DB	'et', 00H					; `string'
CONST	ENDS
;	COMDAT ??_C@_0BG@BGJEIPGN@SendShopSellPacketNew@
CONST	SEGMENT
??_C@_0BG@BGJEIPGN@SendShopSellPacketNew@ DB 'SendShopSellPacketNew', 00H ; `string'
CONST	ENDS
;	COMDAT ??_C@_0BI@BGNKGFKO@SendExchangeStartPacket@
CONST	SEGMENT
??_C@_0BI@BGNKGFKO@SendExchangeStartPacket@ DB 'SendExchangeStartPacket', 00H ; `string'
CONST	ENDS
;	COMDAT ??_C@_0BC@FPBLEBCL@SendShopBuyPacket@
CONST	SEGMENT
??_C@_0BC@FPBLEBCL@SendShopBuyPacket@ DB 'SendShopBuyPacket', 00H ; `string'
CONST	ENDS
;	COMDAT ??_C@_0BD@BFMEHPEE@SendShopSellPacket@
CONST	SEGMENT
??_C@_0BD@BFMEHPEE@SendShopSellPacket@ DB 'SendShopSellPacket', 00H ; `string'
CONST	ENDS
;	COMDAT ??_C@_0BM@KAMAKIKL@SendCharacterPositionPacket@
CONST	SEGMENT
??_C@_0BM@KAMAKIKL@SendCharacterPositionPacket@ DB 'SendCharacterPosition'
	DB	'Packet', 00H				; `string'
CONST	ENDS
;	COMDAT ??_C@_0BC@HEOMKCAE@SendShopEndPacket@
CONST	SEGMENT
??_C@_0BC@HEOMKCAE@SendShopEndPacket@ DB 'SendShopEndPacket', 00H ; `string'
CONST	ENDS
;	COMDAT ??_C@_0N@BJHGOHPC@SendEmoticon@
CONST	SEGMENT
??_C@_0N@BJHGOHPC@SendEmoticon@ DB 'SendEmoticon', 00H	; `string'
CONST	ENDS
;	COMDAT ??_C@_0BC@KNMEABPD@SendWhisperPacket@
CONST	SEGMENT
??_C@_0BC@KNMEABPD@SendWhisperPacket@ DB 'SendWhisperPacket', 00H ; `string'
CONST	ENDS
;	COMDAT ??_C@_09HENONEEN@IsConnect@
CONST	SEGMENT
??_C@_09HENONEEN@IsConnect@ DB 'IsConnect', 00H		; `string'
CONST	ENDS
;	COMDAT ??_C@_0P@FJOINOIH@SendChatPacket@
CONST	SEGMENT
??_C@_0P@FJOINOIH@SendChatPacket@ DB 'SendChatPacket', 00H ; `string'
CONST	ENDS
;	COMDAT ??_C@_0BA@NKMDDBDL@SetOfflinePhase@
CONST	SEGMENT
??_C@_0BA@NKMDDBDL@SetOfflinePhase@ DB 'SetOfflinePhase', 00H ; `string'
CONST	ENDS
;	COMDAT ??_C@_0L@CMGJAGDM@Disconnect@
CONST	SEGMENT
??_C@_0L@CMGJAGDM@Disconnect@ DB 'Disconnect', 00H	; `string'
CONST	ENDS
;	COMDAT ??_C@_0BF@PJHEIMI@SendItemPickUpPacket@
CONST	SEGMENT
??_C@_0BF@PJHEIMI@SendItemPickUpPacket@ DB 'SendItemPickUpPacket', 00H ; `string'
CONST	ENDS
;	COMDAT ??_C@_0BD@FMAJCJM@SendGiveItemPacket@
CONST	SEGMENT
??_C@_0BD@FMAJCJM@SendGiveItemPacket@ DB 'SendGiveItemPacket', 00H ; `string'
CONST	ENDS
;	COMDAT ??_C@_0BG@ONKCIEDE@SendGoldDropPacketNew@
CONST	SEGMENT
??_C@_0BG@ONKCIEDE@SendGoldDropPacketNew@ DB 'SendGoldDropPacketNew', 00H ; `string'
CONST	ENDS
;	COMDAT ??_C@_0BD@BPAFBGKI@SendItemMovePacket@
CONST	SEGMENT
??_C@_0BD@BPAFBGKI@SendItemMovePacket@ DB 'SendItemMovePacket', 00H ; `string'
CONST	ENDS
;	COMDAT ??_C@_0BG@PNFNACGL@SendItemDropPacketNew@
CONST	SEGMENT
??_C@_0BG@PNFNACGL@SendItemDropPacketNew@ DB 'SendItemDropPacketNew', 00H ; `string'
CONST	ENDS
;	COMDAT ??_C@_0BC@NEDFAOHK@SendElkDropPacket@
CONST	SEGMENT
??_C@_0BC@NEDFAOHK@SendElkDropPacket@ DB 'SendElkDropPacket', 00H ; `string'
CONST	ENDS
;	COMDAT ??_C@_0BI@OBDMDOIB@SendItemUseToItemPacket@
CONST	SEGMENT
??_C@_0BI@OBDMDOIB@SendItemUseToItemPacket@ DB 'SendItemUseToItemPacket', 00H ; `string'
CONST	ENDS
;	COMDAT ??_C@_0BD@ICCAOJBA@SendItemDropPacket@
CONST	SEGMENT
??_C@_0BD@ICCAOJBA@SendItemDropPacket@ DB 'SendItemDropPacket', 00H ; `string'
CONST	ENDS
;	COMDAT ??_C@_0BE@NBECPFPH@SendEnterGamePacket@
CONST	SEGMENT
??_C@_0BE@NBECPFPH@SendEnterGamePacket@ DB 'SendEnterGamePacket', 00H ; `string'
CONST	ENDS
;	COMDAT ??_C@_0BC@NHAKBOCP@SendItemUsePacket@
CONST	SEGMENT
??_C@_0BC@NHAKBOCP@SendItemUsePacket@ DB 'SendItemUsePacket', 00H ; `string'
CONST	ENDS
;	COMDAT ??_C@_0BK@NPKEAJJ@SendCreateCharacterPacket@
CONST	SEGMENT
??_C@_0BK@NPKEAJJ@SendCreateCharacterPacket@ DB 'SendCreateCharacterPacke'
	DB	't', 00H					; `string'
CONST	ENDS
;	COMDAT ??_C@_0BL@PMHPNGGJ@SendDestroyCharacterPacket@
CONST	SEGMENT
??_C@_0BL@PMHPNGGJ@SendDestroyCharacterPacket@ DB 'SendDestroyCharacterPa'
	DB	'cket', 00H					; `string'
CONST	ENDS
;	COMDAT ??_C@_0BK@MIKAHKDI@SendSelectCharacterPacket@
CONST	SEGMENT
??_C@_0BK@MIKAHKDI@SendSelectCharacterPacket@ DB 'SendSelectCharacterPack'
	DB	'et', 00H					; `string'
CONST	ENDS
;	COMDAT ??_C@_0BF@ODLJDBF@SendChangeNamePacket@
CONST	SEGMENT
??_C@_0BF@ODLJDBF@SendChangeNamePacket@ DB 'SendChangeNamePacket', 00H ; `string'
CONST	ENDS
;	COMDAT ??_C@_0BA@CNDIKGCL@SendLoginPacket@
CONST	SEGMENT
??_C@_0BA@CNDIKGCL@SendLoginPacket@ DB 'SendLoginPacket', 00H ; `string'
CONST	ENDS
;	COMDAT ??_C@_0BH@IIELEKKA@SendSelectEmpirePacket@
CONST	SEGMENT
??_C@_0BH@IIELEKKA@SendSelectEmpirePacket@ DB 'SendSelectEmpirePacket', 00H ; `string'
CONST	ENDS
;	COMDAT ??_C@_0L@MALJFJNO@ConnectUDP@
CONST	SEGMENT
??_C@_0L@MALJFJNO@ConnectUDP@ DB 'ConnectUDP', 00H	; `string'
CONST	ENDS
;	COMDAT ??_C@_0BH@CIOLKAIG@ConnectToAccountServer@
CONST	SEGMENT
??_C@_0BH@CIOLKAIG@ConnectToAccountServer@ DB 'ConnectToAccountServer', 00H ; `string'
CONST	ENDS
;	COMDAT ??_C@_0BA@ILFBLEPH@ExitApplication@
CONST	SEGMENT
??_C@_0BA@ILFBLEPH@ExitApplication@ DB 'ExitApplication', 00H ; `string'
CONST	ENDS
;	COMDAT ??_C@_0L@HNEKCIDO@ConnectTCP@
CONST	SEGMENT
??_C@_0L@HNEKCIDO@ConnectTCP@ DB 'ConnectTCP', 00H	; `string'
CONST	ENDS
;	COMDAT ??_C@_0L@LPFGMFBP@LogOutGame@
CONST	SEGMENT
??_C@_0L@LPFGMFBP@LogOutGame@ DB 'LogOutGame', 00H	; `string'
CONST	ENDS
;	COMDAT ??_C@_08ENBHLCHD@ExitGame@
CONST	SEGMENT
??_C@_08ENBHLCHD@ExitGame@ DB 'ExitGame', 00H		; `string'
CONST	ENDS
;	COMDAT ??_C@_0BF@GPIIIFGB@SetUDPRecvBufferSize@
CONST	SEGMENT
??_C@_0BF@GPIIIFGB@SetUDPRecvBufferSize@ DB 'SetUDPRecvBufferSize', 00H ; `string'
CONST	ENDS
;	COMDAT ??_C@_0M@PAACKIAL@DirectEnter@
CONST	SEGMENT
??_C@_0M@PAACKIAL@DirectEnter@ DB 'DirectEnter', 00H	; `string'
CONST	ENDS
;	COMDAT ??_C@_0BF@KAEIEPML@SetTCPRecvBufferSize@
CONST	SEGMENT
??_C@_0BF@KAEIEPML@SetTCPRecvBufferSize@ DB 'SetTCPRecvBufferSize', 00H ; `string'
CONST	ENDS
;	COMDAT ??_C@_0BF@LOLMIHDO@SetTCPSendBufferSize@
CONST	SEGMENT
??_C@_0BF@LOLMIHDO@SetTCPSendBufferSize@ DB 'SetTCPSendBufferSize', 00H ; `string'
CONST	ENDS
;	COMDAT ??_C@_0BL@NJAILJBB@SetAccountConnectorHandler@
CONST	SEGMENT
??_C@_0BL@NJAILJBB@SetAccountConnectorHandler@ DB 'SetAccountConnectorHan'
	DB	'dler', 00H					; `string'
CONST	ENDS
;	COMDAT ??_C@_0L@EELFNDHB@SetHandler@
CONST	SEGMENT
??_C@_0L@EELFNDHB@SetHandler@ DB 'SetHandler', 00H	; `string'
CONST	ENDS
;	COMDAT ??_C@_0BB@NNDKGCIK@ClearPhaseWindow@
CONST	SEGMENT
??_C@_0BB@NNDKGCIK@ClearPhaseWindow@ DB 'ClearPhaseWindow', 00H ; `string'
CONST	ENDS
;	COMDAT ??_C@_0BN@KOOLAHFA@SetServerCommandParserWindow@
CONST	SEGMENT
??_C@_0BN@KOOLAHFA@SetServerCommandParserWindow@ DB 'SetServerCommandPars'
	DB	'erWindow', 00H				; `string'
CONST	ENDS
;	COMDAT ??_C@_0N@GLEGMFLM@SetLoginInfo@
CONST	SEGMENT
??_C@_0N@GLEGMFLM@SetLoginInfo@ DB 'SetLoginInfo', 00H	; `string'
CONST	ENDS
;	COMDAT ??_C@_0P@EKNNFAK@SetPhaseWindow@
CONST	SEGMENT
??_C@_0P@EKNNFAK@SetPhaseWindow@ DB 'SetPhaseWindow', 00H ; `string'
CONST	ENDS
;	COMDAT ??_C@_0BE@MHKBLINM@GetFieldMusicVolume@
CONST	SEGMENT
??_C@_0BE@MHKBLINM@GetFieldMusicVolume@ DB 'GetFieldMusicVolume', 00H ; `string'
CONST	ENDS
;	COMDAT ??_C@_0BE@BCCLDKB@ToggleGameDebugInfo@
CONST	SEGMENT
??_C@_0BE@BCCLDKB@ToggleGameDebugInfo@ DB 'ToggleGameDebugInfo', 00H ; `string'
CONST	ENDS
;	COMDAT ??_C@_0CC@DLIFIOE@GetAccountCharacterSlotDataStri@
CONST	SEGMENT
??_C@_0CC@DLIFIOE@GetAccountCharacterSlotDataStri@ DB 'GetAccountCharacte'
	DB	'rSlotDataString', 00H			; `string'
CONST	ENDS
;	COMDAT ??_C@_0BG@NAMIDKHD@GetFieldMusicFileName@
CONST	SEGMENT
??_C@_0BG@NAMIDKHD@GetFieldMusicFileName@ DB 'GetFieldMusicFileName', 00H ; `string'
CONST	ENDS
;	COMDAT ??_C@_0BH@GCCMJIJB@GetMainActorSkillGroup@
CONST	SEGMENT
??_C@_0BH@GCCMJIJB@GetMainActorSkillGroup@ DB 'GetMainActorSkillGroup', 00H ; `string'
CONST	ENDS
;	COMDAT ??_C@_0CD@PJJNPONG@GetAccountCharacterSlotDataInte@
CONST	SEGMENT
??_C@_0CD@PJJNPONG@GetAccountCharacterSlotDataInte@ DB 'GetAccountCharact'
	DB	'erSlotDataInteger', 00H			; `string'
CONST	ENDS
;	COMDAT ??_C@_0BB@ICEJKPHA@GetMainActorRace@
CONST	SEGMENT
??_C@_0BB@ICEJKPHA@GetMainActorRace@ DB 'GetMainActorRace', 00H ; `string'
CONST	ENDS
;	COMDAT ??_C@_0BD@JOIEFGML@GetMainActorEmpire@
CONST	SEGMENT
??_C@_0BD@JOIEFGML@GetMainActorEmpire@ DB 'GetMainActorEmpire', 00H ; `string'
CONST	ENDS
;	COMDAT ??_C@_0M@GGDMINDM@GetEmpireID@
CONST	SEGMENT
??_C@_0M@GGDMINDM@GetEmpireID@ DB 'GetEmpireID', 00H	; `string'
CONST	ENDS
;	COMDAT ??_C@_0BA@BPHKBGOL@GetMainActorVID@
CONST	SEGMENT
??_C@_0BA@BPHKBGOL@GetMainActorVID@ DB 'GetMainActorVID', 00H ; `string'
CONST	ENDS
;	COMDAT ??_C@_0L@JEGFHCJL@UploadMark@
CONST	SEGMENT
??_C@_0L@JEGFHCJL@UploadMark@ DB 'UploadMark', 00H	; `string'
CONST	ENDS
;	COMDAT ??_C@_0N@OBKBFHKO@UploadSymbol@
CONST	SEGMENT
??_C@_0N@OBKBFHKO@UploadSymbol@ DB 'UploadSymbol', 00H	; `string'
CONST	ENDS
;	COMDAT ??_C@_0L@CJJGFLBC@IsInsultIn@
CONST	SEGMENT
??_C@_0L@CJJGFLBC@IsInsultIn@ DB 'IsInsultIn', 00H	; `string'
CONST	ENDS
;	COMDAT ??_C@_0P@NAIDDMMD@LoadInsultList@
CONST	SEGMENT
??_C@_0P@NAIDDMMD@LoadInsultList@ DB 'LoadInsultList', 00H ; `string'
CONST	ENDS
;	COMDAT ??_C@_0O@OFMEOEDD@SetMarkServer@
CONST	SEGMENT
??_C@_0O@OFMEOEDD@SetMarkServer@ DB 'SetMarkServer', 00H ; `string'
CONST	ENDS
;	COMDAT ??_C@_0P@EPNPIBON@IsChatInsultIn@
CONST	SEGMENT
??_C@_0P@EPNPIBON@IsChatInsultIn@ DB 'IsChatInsultIn', 00H ; `string'
CONST	ENDS
;	COMDAT ??_C@_09CFNAMFEF@StartGame@
CONST	SEGMENT
??_C@_09CFNAMFEF@StartGame@ DB 'StartGame', 00H		; `string'
CONST	ENDS
;	COMDAT ??_C@_04EIDOEOJH@Warp@
CONST	SEGMENT
??_C@_04EIDOEOJH@Warp@ DB 'Warp', 00H			; `string'
CONST	ENDS
;	COMDAT ??_C@_0BG@NJCKCHAI@PreserveServerCommand@
CONST	SEGMENT
??_C@_0BG@NJCKCHAI@PreserveServerCommand@ DB 'PreserveServerCommand', 00H ; `string'
CONST	ENDS
;	COMDAT ??_C@_0BK@PJDKKIPH@GetPreservedServerCommand@
CONST	SEGMENT
??_C@_0BK@PJDKKIPH@GetPreservedServerCommand@ DB 'GetPreservedServerComma'
	DB	'nd', 00H					; `string'
CONST	ENDS
;	COMDAT ??_C@_0O@JMAHAJJH@SetServerInfo@
CONST	SEGMENT
??_C@_0O@JMAHAJJH@SetServerInfo@ DB 'SetServerInfo', 00H ; `string'
CONST	ENDS
;	COMDAT ??_C@_0O@ODBJLKOA@GetServerInfo@
CONST	SEGMENT
??_C@_0O@ODBJLKOA@GetServerInfo@ DB 'GetServerInfo', 00H ; `string'
CONST	ENDS
;	COMDAT ??_C@_0BI@HFMJEOAC@GetBettingGuildWarValue@
CONST	SEGMENT
??_C@_0BI@HFMJEOAC@GetBettingGuildWarValue@ DB 'GetBettingGuildWarValue', 00H ; `string'
CONST	ENDS
;	COMDAT ??_C@_0BH@LKCAJGCH@EnableChatInsultFilter@
CONST	SEGMENT
??_C@_0BH@LKCAJGCH@EnableChatInsultFilter@ DB 'EnableChatInsultFilter', 00H ; `string'
CONST	ENDS
;	COMDAT ??_C@_1IK@MBMLBACD@?$AA?$CB?$AA?$CC?$AAn?$AAe?$AAt?$AAS?$AAe?$AAn?$AAd?$AAR?$AAe?$AAq?$AAu?$AAe?$AAs@
CONST	SEGMENT
??_C@_1IK@MBMLBACD@?$AA?$CB?$AA?$CC?$AAn?$AAe?$AAt?$AAS?$AAe?$AAn?$AAd?$AAR?$AAe?$AAq?$AAu?$AAe?$AAs@ DB '!'
	DB	00H, '"', 00H, 'n', 00H, 'e', 00H, 't', 00H, 'S', 00H, 'e', 00H
	DB	'n', 00H, 'd', 00H, 'R', 00H, 'e', 00H, 'q', 00H, 'u', 00H, 'e'
	DB	00H, 's', 00H, 't', 00H, 'R', 00H, 'e', 00H, 'f', 00H, 'i', 00H
	DB	'n', 00H, 'e', 00H, 'I', 00H, 'n', 00H, 'f', 00H, 'o', 00H, 'P'
	DB	00H, 'a', 00H, 'c', 00H, 'k', 00H, 'e', 00H, 't', 00H, ' ', 00H
	DB	'-', 00H, ' ', 00H, 0b4H, 00H, 0f5H, 00H, 0c0H, 00H, 0ccH, 00H
	DB	0bbH, 00H, 0f3H, 00H, ' ', 00H, 0bbH, 00H, 0e7H, 00H, 0bfH, 00H
	DB	0ebH, 00H, 0c7H, 00H, 0cfH, 00H, 0c1H, 00H, 0f6H, 00H, ' ', 00H
	DB	0beH, 00H, 0caH, 00H, 0b4H, 00H, 0c2H, 00H, ' ', 00H, 0c7H, 00H
	DB	0d4H, 00H, 0bcH, 00H, 0f6H, 00H, ' ', 00H, 0c0H, 00H, 0d4H, 00H
	DB	0b4H, 00H, 0cfH, 00H, 0b4H, 00H, 0d9H, 00H, '"', 00H, 00H, 00H ; `string'
CONST	ENDS
;	COMDAT ??_C@_03JELCABFN@iOO@
CONST	SEGMENT
??_C@_03JELCABFN@iOO@ DB 'iOO', 00H			; `string'
CONST	ENDS
;	COMDAT ??_C@_0EC@PJNHBNOL@netSendRequestRefineInfoPacket?5@
CONST	SEGMENT
??_C@_0EC@PJNHBNOL@netSendRequestRefineInfoPacket?5@ DB 'netSendRequestRe'
	DB	'fineInfoPacket - ', 0b4H, 0f5H, 0c0H, 0ccH, 0bbH, 0f3H, ' ', 0bbH
	DB	0e7H, 0bfH, 0ebH, 0c7H, 0cfH, 0c1H, 0f6H, ' ', 0beH, 0caH, 0b4H
	DB	0c2H, ' ', 0c7H, 0d4H, 0bcH, 0f6H, ' ', 0c0H, 0d4H, 0b4H, 0cfH
	DB	0b4H, 0d9H, 00H				; `string'
CONST	ENDS
;	COMDAT ??_C@_1LM@DEDABKEH@?$AAC?$AA?3?$AA?2?$AAA?$AAn?$AAk?$AAa?$AA2?$AAP?$AAr?$AAo?$AAj?$AAe?$AAc?$AAt@
CONST	SEGMENT
??_C@_1LM@DEDABKEH@?$AAC?$AA?3?$AA?2?$AAA?$AAn?$AAk?$AAa?$AA2?$AAP?$AAr?$AAo?$AAj?$AAe?$AAc?$AAt@ DB 'C'
	DB	00H, ':', 00H, '\', 00H, 'A', 00H, 'n', 00H, 'k', 00H, 'a', 00H
	DB	'2', 00H, 'P', 00H, 'r', 00H, 'o', 00H, 'j', 00H, 'e', 00H, 'c'
	DB	00H, 't', 00H, '\', 00H, 'A', 00H, 'n', 00H, 'k', 00H, 'a', 00H
	DB	'2', 00H, 'P', 00H, 'r', 00H, 'o', 00H, 'j', 00H, 'e', 00H, 'c'
	DB	00H, 't', 00H, '\', 00H, 'S', 00H, 'o', 00H, 'u', 00H, 'r', 00H
	DB	'c', 00H, 'e', 00H, '\', 00H, 'B', 00H, 'i', 00H, 'n', 00H, 'a'
	DB	00H, 'r', 00H, 'y', 00H, '\', 00H, 's', 00H, 'o', 00H, 'u', 00H
	DB	'r', 00H, 'c', 00H, 'e', 00H, '\', 00H, 'U', 00H, 's', 00H, 'e'
	DB	00H, 'r', 00H, 'I', 00H, 'n', 00H, 't', 00H, 'e', 00H, 'r', 00H
	DB	'f', 00H, 'a', 00H, 'c', 00H, 'e', 00H, '\', 00H, 'P', 00H, 'y'
	DB	00H, 't', 00H, 'h', 00H, 'o', 00H, 'n', 00H, 'N', 00H, 'e', 00H
	DB	't', 00H, 'w', 00H, 'o', 00H, 'r', 00H, 'k', 00H, 'S', 00H, 't'
	DB	00H, 'r', 00H, 'e', 00H, 'a', 00H, 'm', 00H, 'M', 00H, 'o', 00H
	DB	'd', 00H, 'u', 00H, 'l', 00H, 'e', 00H, '.', 00H, 'c', 00H, 'p'
	DB	00H, 'p', 00H, 00H, 00H			; `string'
CONST	ENDS
;	COMDAT ??_C@_0EE@CPCFCFHF@netSendGuildRemoveMemberPacket?$CI@
CONST	SEGMENT
??_C@_0EE@CPCFCFHF@netSendGuildRemoveMemberPacket?$CI@ DB 'netSendGuildRe'
	DB	'moveMemberPacket(szKey=%s) - Can''t Find Guild Member', 0aH, 00H ; `string'
PUBLIC	??0SItemPos@@QAE@EG@Z				; SItemPos::SItemPos
PUBLIC	??$?0PAVCPythonPlayerSettingsModule@@@?$_Tuple_val@PAVCPythonPlayerSettingsModule@@@std@@QAE@$$QAPAVCPythonPlayerSettingsModule@@@Z ; std::_Tuple_val<CPythonPlayerSettingsModule *>::_Tuple_val<CPythonPlayerSettingsModule *><CPythonPlayerSettingsModule *>
PUBLIC	?_Get_first@?$_Compressed_pair@V?$allocator@U?$pair@GG@std@@@std@@V?$_Vector_val@U?$_Simple_types@U?$pair@GG@std@@@std@@@2@$00@std@@QBEABV?$allocator@U?$pair@GG@std@@@2@XZ ; std::_Compressed_pair<std::allocator<std::pair<unsigned short,unsigned short> >,std::_Vector_val<std::_Simple_types<std::pair<unsigned short,unsigned short> > >,1>::_Get_first
PUBLIC	??$_Copy_memmove_tail@PAU?$pair@GG@std@@@std@@YAPAU?$pair@GG@0@QBDQAU10@II@Z ; std::_Copy_memmove_tail<std::pair<unsigned short,unsigned short> *>
PUBLIC	??$move@AAPAU?$pair@GG@std@@@std@@YA$$QAPAU?$pair@GG@0@AAPAU10@@Z ; std::move<std::pair<unsigned short,unsigned short> * &>
PUBLIC	??$to_address@U?$pair@GG@std@@@std@@YAPAU?$pair@GG@0@QAU10@@Z ; std::to_address<std::pair<unsigned short,unsigned short> >
PUBLIC	??$forward@AAPAV?$tuple@P8CPythonPlayerSettingsModule@@AEXXZPAV1@@std@@@std@@YAAAPAV?$tuple@P8CPythonPlayerSettingsModule@@AEXXZPAV1@@0@AAPAV10@@Z ; std::forward<std::tuple<void (__thiscall CPythonPlayerSettingsModule::*)(void),CPythonPlayerSettingsModule *> * &>
PUBLIC	??$?0P8CPythonPlayerSettingsModule@@AEXXZ@?$_Tuple_val@P8CPythonPlayerSettingsModule@@AEXXZ@std@@QAE@$$QAP8CPythonPlayerSettingsModule@@AEXXZ@Z ; std::_Tuple_val<void (__thiscall CPythonPlayerSettingsModule::*)(void)>::_Tuple_val<void (__thiscall CPythonPlayerSettingsModule::*)(void)><void (__thiscall CPythonPlayerSettingsModule::*)(void)>
PUBLIC	??$?0U_Exact_args_t@std@@PAVCPythonPlayerSettingsModule@@$$V$0A@@?$tuple@PAVCPythonPlayerSettingsModule@@@std@@QAE@U_Exact_args_t@1@$$QAPAVCPythonPlayerSettingsModule@@@Z ; std::tuple<CPythonPlayerSettingsModule *>::tuple<CPythonPlayerSettingsModule *><std::_Exact_args_t,CPythonPlayerSettingsModule *,0>
PUBLIC	?allocate@?$allocator@U?$pair@GG@std@@@std@@QAEPAU?$pair@GG@2@I@Z ; std::allocator<std::pair<unsigned short,unsigned short> >::allocate
PUBLIC	?capacity@?$vector@U?$pair@GG@std@@V?$allocator@U?$pair@GG@std@@@2@@std@@QBEIXZ ; std::vector<std::pair<unsigned short,unsigned short>,std::allocator<std::pair<unsigned short,unsigned short> > >::capacity
PUBLIC	?_Getal@?$vector@U?$pair@GG@std@@V?$allocator@U?$pair@GG@std@@@2@@std@@ABEABV?$allocator@U?$pair@GG@std@@@2@XZ ; std::vector<std::pair<unsigned short,unsigned short>,std::allocator<std::pair<unsigned short,unsigned short> > >::_Getal
PUBLIC	?max_size@?$_Default_allocator_traits@V?$allocator@U?$pair@GG@std@@@std@@@std@@SAIABV?$allocator@U?$pair@GG@std@@@2@@Z ; std::_Default_allocator_traits<std::allocator<std::pair<unsigned short,unsigned short> > >::max_size
PUBLIC	??0?$_Uninitialized_backout_al@V?$allocator@U?$pair@GG@std@@@std@@@std@@QAE@PAU?$pair@GG@1@AAV?$allocator@U?$pair@GG@std@@@1@@Z ; std::_Uninitialized_backout_al<std::allocator<std::pair<unsigned short,unsigned short> > >::_Uninitialized_backout_al<std::allocator<std::pair<unsigned short,unsigned short> > >
PUBLIC	??1?$_Uninitialized_backout_al@V?$allocator@U?$pair@GG@std@@@std@@@std@@QAE@XZ ; std::_Uninitialized_backout_al<std::allocator<std::pair<unsigned short,unsigned short> > >::~_Uninitialized_backout_al<std::allocator<std::pair<unsigned short,unsigned short> > >
PUBLIC	?_Release@?$_Uninitialized_backout_al@V?$allocator@U?$pair@GG@std@@@std@@@std@@QAEPAU?$pair@GG@2@XZ ; std::_Uninitialized_backout_al<std::allocator<std::pair<unsigned short,unsigned short> > >::_Release
PUBLIC	??$_Emplace_back@U?$pair@GG@std@@@?$_Uninitialized_backout_al@V?$allocator@U?$pair@GG@std@@@std@@@std@@QAEX$$QAU?$pair@GG@1@@Z ; std::_Uninitialized_backout_al<std::allocator<std::pair<unsigned short,unsigned short> > >::_Emplace_back<std::pair<unsigned short,unsigned short> >
PUBLIC	??$_To_address@PAU?$pair@GG@std@@@std@@YA?A_PABQAU?$pair@GG@0@@Z ; std::_To_address<std::pair<unsigned short,unsigned short> *>
PUBLIC	??$_Copy_memmove@PAU?$pair@GG@std@@PAU12@@std@@YAPAU?$pair@GG@0@PAU10@00@Z ; std::_Copy_memmove<std::pair<unsigned short,unsigned short> *,std::pair<unsigned short,unsigned short> *>
PUBLIC	??$construct_at@U?$pair@GG@std@@U12@@std@@YAPAU?$pair@GG@0@QAU10@$$QAU10@@Z ; std::construct_at<std::pair<unsigned short,unsigned short>,std::pair<unsigned short,unsigned short> >
PUBLIC	??$addressof@U?$pair@GG@std@@@std@@YAPAU?$pair@GG@0@AAU10@@Z ; std::addressof<std::pair<unsigned short,unsigned short> >
PUBLIC	??$?0AAPAV?$tuple@P8CPythonPlayerSettingsModule@@AEXXZPAV1@@std@@@?$_Compressed_pair@U?$default_delete@V?$tuple@P8CPythonPlayerSettingsModule@@AEXXZPAV1@@std@@@std@@PAV?$tuple@P8CPythonPlayerSettingsModule@@AEXXZPAV1@@2@$00@std@@QAE@U_Zero_then_variadic_args_t@1@AAPAV?$tuple@P8CPythonPlayerSettingsModule@@AEXXZPAV1@@1@@Z ; std::_Compressed_pair<std::default_delete<std::tuple<void (__thiscall CPythonPlayerSettingsModule::*)(void),CPythonPlayerSettingsModule *> >,std::tuple<void (__thiscall CPythonPlayerSettingsModule::*)(void),CPythonPlayerSettingsModule *> *,1>::_Compressed_pair<std::default_delete<std::tuple<void (__thiscall CPythonPlayerSettingsModule::*)(void),CPythonPlayerSettingsModule *> >,std::tuple<void (__thiscall CPythonPlayerSettingsModule::*)(void),CPythonPlayerSettingsModule *> *,1><std::tuple<void (__thiscall CPythonPlayerSettingsModule::*)(void),CPythonPlayerSettingsModule *> * &>
PUBLIC	??$?0U_Exact_args_t@std@@P8CPythonPlayerSettingsModule@@AEXXZPAV2@$0A@@?$tuple@P8CPythonPlayerSettingsModule@@AEXXZPAV1@@std@@QAE@U_Exact_args_t@1@$$QAP8CPythonPlayerSettingsModule@@AEXXZ$$QAPAV3@@Z ; std::tuple<void (__thiscall CPythonPlayerSettingsModule::*)(void),CPythonPlayerSettingsModule *>::tuple<void (__thiscall CPythonPlayerSettingsModule::*)(void),CPythonPlayerSettingsModule *><std::_Exact_args_t,void (__thiscall CPythonPlayerSettingsModule::*)(void),CPythonPlayerSettingsModule *,0>
PUBLIC	?max_size@?$vector@U?$pair@GG@std@@V?$allocator@U?$pair@GG@std@@@2@@std@@QBEIXZ ; std::vector<std::pair<unsigned short,unsigned short>,std::allocator<std::pair<unsigned short,unsigned short> > >::max_size
PUBLIC	?_Calculate_growth@?$vector@U?$pair@GG@std@@V?$allocator@U?$pair@GG@std@@@2@@std@@ABEII@Z ; std::vector<std::pair<unsigned short,unsigned short>,std::allocator<std::pair<unsigned short,unsigned short> > >::_Calculate_growth
PUBLIC	?_Change_array@?$vector@U?$pair@GG@std@@V?$allocator@U?$pair@GG@std@@@2@@std@@AAEXQAU?$pair@GG@2@II@Z ; std::vector<std::pair<unsigned short,unsigned short>,std::allocator<std::pair<unsigned short,unsigned short> > >::_Change_array
PUBLIC	?_Xlength@?$vector@U?$pair@GG@std@@V?$allocator@U?$pair@GG@std@@@2@@std@@CAXXZ ; std::vector<std::pair<unsigned short,unsigned short>,std::allocator<std::pair<unsigned short,unsigned short> > >::_Xlength
PUBLIC	?_Orphan_range@?$vector@U?$pair@GG@std@@V?$allocator@U?$pair@GG@std@@@2@@std@@ABEXPAU?$pair@GG@2@0@Z ; std::vector<std::pair<unsigned short,unsigned short>,std::allocator<std::pair<unsigned short,unsigned short> > >::_Orphan_range
PUBLIC	??1_Reallocation_guard@?$vector@U?$pair@GG@std@@V?$allocator@U?$pair@GG@std@@@2@@std@@QAE@XZ ; std::vector<std::pair<unsigned short,unsigned short>,std::allocator<std::pair<unsigned short,unsigned short> > >::_Reallocation_guard::~_Reallocation_guard
PUBLIC	?_Get_first@?$_Compressed_pair@V?$allocator@U?$pair@GG@std@@@std@@V?$_Vector_val@U?$_Simple_types@U?$pair@GG@std@@@std@@@2@$00@std@@QAEAAV?$allocator@U?$pair@GG@std@@@2@XZ ; std::_Compressed_pair<std::allocator<std::pair<unsigned short,unsigned short> >,std::_Vector_val<std::_Simple_types<std::pair<unsigned short,unsigned short> > >,1>::_Get_first
PUBLIC	??R?$default_delete@V?$tuple@P8CPythonPlayerSettingsModule@@AEXXZPAV1@@std@@@std@@QBEXPAV?$tuple@P8CPythonPlayerSettingsModule@@AEXXZPAV1@@1@@Z ; std::default_delete<std::tuple<void (__thiscall CPythonPlayerSettingsModule::*)(void),CPythonPlayerSettingsModule *> >::operator()
PUBLIC	?_Get_first@?$_Compressed_pair@U?$default_delete@V?$tuple@P8CPythonPlayerSettingsModule@@AEXXZPAV1@@std@@@std@@PAV?$tuple@P8CPythonPlayerSettingsModule@@AEXXZPAV1@@2@$00@std@@QAEAAU?$default_delete@V?$tuple@P8CPythonPlayerSettingsModule@@AEXXZPAV1@@std@@@2@XZ ; std::_Compressed_pair<std::default_delete<std::tuple<void (__thiscall CPythonPlayerSettingsModule::*)(void),CPythonPlayerSettingsModule *> >,std::tuple<void (__thiscall CPythonPlayerSettingsModule::*)(void),CPythonPlayerSettingsModule *> *,1>::_Get_first
PUBLIC	??$exchange@PAV?$tuple@P8CPythonPlayerSettingsModule@@AEXXZPAV1@@std@@$$T@std@@YAPAV?$tuple@P8CPythonPlayerSettingsModule@@AEXXZPAV1@@0@AAPAV10@$$QA$$T@Z ; std::exchange<std::tuple<void (__thiscall CPythonPlayerSettingsModule::*)(void),CPythonPlayerSettingsModule *> *,std::nullptr_t>
PUBLIC	??$construct@V?$basic_string@DU?$char_traits@D@std@@V?$allocator@D@2@@std@@V12@@?$_Default_allocator_traits@V?$allocator@U?$_List_node@V?$basic_string@DU?$char_traits@D@std@@V?$allocator@D@2@@std@@PAX@std@@@std@@@std@@SAXAAV?$allocator@U?$_List_node@V?$basic_string@DU?$char_traits@D@std@@V?$allocator@D@2@@std@@PAX@std@@@1@QAV?$basic_string@DU?$char_traits@D@std@@V?$allocator@D@2@@1@$$QAV31@@Z ; std::_Default_allocator_traits<std::allocator<std::_List_node<std::basic_string<char,std::char_traits<char>,std::allocator<char> >,void *> > >::construct<std::basic_string<char,std::char_traits<char>,std::allocator<char> >,std::basic_string<char,std::char_traits<char>,std::allocator<char> > >
PUBLIC	??$_Uninitialized_move@PAU?$pair@GG@std@@V?$allocator@U?$pair@GG@std@@@2@@std@@YAPAU?$pair@GG@0@QAU10@0PAU10@AAV?$allocator@U?$pair@GG@std@@@0@@Z ; std::_Uninitialized_move<std::pair<unsigned short,unsigned short> *,std::allocator<std::pair<unsigned short,unsigned short> > >
PUBLIC	??$_Get_unwrapped@ABQAU?$pair@GG@std@@@std@@YA?A_TABQAU?$pair@GG@0@@Z ; std::_Get_unwrapped<std::pair<unsigned short,unsigned short> * const &>
PUBLIC	??$construct@U?$pair@GG@std@@U12@@?$_Default_allocator_traits@V?$allocator@U?$pair@GG@std@@@std@@@std@@SAXAAV?$allocator@U?$pair@GG@std@@@1@QAU?$pair@GG@1@$$QAU31@@Z ; std::_Default_allocator_traits<std::allocator<std::pair<unsigned short,unsigned short> > >::construct<std::pair<unsigned short,unsigned short>,std::pair<unsigned short,unsigned short> >
PUBLIC	??$_Unfancy@U?$pair@GG@std@@@std@@YAPAU?$pair@GG@0@PAU10@@Z ; std::_Unfancy<std::pair<unsigned short,unsigned short> >
PUBLIC	??$_Allocate_at_least_helper@V?$allocator@U?$pair@GG@std@@@std@@@std@@YAPAU?$pair@GG@0@AAV?$allocator@U?$pair@GG@std@@@0@AAI@Z ; std::_Allocate_at_least_helper<std::allocator<std::pair<unsigned short,unsigned short> > >
PUBLIC	??$_Construct_in_place@U?$pair@GG@std@@U12@@std@@YAXAAU?$pair@GG@0@$$QAU10@@Z ; std::_Construct_in_place<std::pair<unsigned short,unsigned short>,std::pair<unsigned short,unsigned short> >
PUBLIC	??$invoke@P8CPythonPlayerSettingsModule@@AEXXZPAV1@$$V@std@@YAX$$QAP8CPythonPlayerSettingsModule@@AEXXZ$$QAPAV1@@Z ; std::invoke<void (__thiscall CPythonPlayerSettingsModule::*)(void),CPythonPlayerSettingsModule *>
PUBLIC	??$move@AAPAVCPythonPlayerSettingsModule@@@std@@YA$$QAPAVCPythonPlayerSettingsModule@@AAPAV1@@Z ; std::move<CPythonPlayerSettingsModule * &>
PUBLIC	??$get@$00P8CPythonPlayerSettingsModule@@AEXXZPAV1@@std@@YAAAPAVCPythonPlayerSettingsModule@@AAV?$tuple@P8CPythonPlayerSettingsModule@@AEXXZPAV1@@0@@Z ; std::get<1,void (__thiscall CPythonPlayerSettingsModule::*)(void),CPythonPlayerSettingsModule *>
PUBLIC	??$move@AAP8CPythonPlayerSettingsModule@@AEXXZ@std@@YA$$QAP8CPythonPlayerSettingsModule@@AEXXZAAP81@AEXXZ@Z ; std::move<void (__thiscall CPythonPlayerSettingsModule::*&)(void)>
PUBLIC	??$get@$0A@P8CPythonPlayerSettingsModule@@AEXXZPAV1@@std@@YAAAP8CPythonPlayerSettingsModule@@AEXXZAAV?$tuple@P8CPythonPlayerSettingsModule@@AEXXZPAV1@@0@@Z ; std::get<0,void (__thiscall CPythonPlayerSettingsModule::*)(void),CPythonPlayerSettingsModule *>
PUBLIC	??$?0U?$default_delete@V?$tuple@P8CPythonPlayerSettingsModule@@AEXXZPAV1@@std@@@std@@$0A@@?$unique_ptr@V?$tuple@P8CPythonPlayerSettingsModule@@AEXXZPAV1@@std@@U?$default_delete@V?$tuple@P8CPythonPlayerSettingsModule@@AEXXZPAV1@@std@@@2@@std@@QAE@PAV?$tuple@P8CPythonPlayerSettingsModule@@AEXXZPAV1@@1@@Z ; std::unique_ptr<std::tuple<void (__thiscall CPythonPlayerSettingsModule::*)(void),CPythonPlayerSettingsModule *>,std::default_delete<std::tuple<void (__thiscall CPythonPlayerSettingsModule::*)(void),CPythonPlayerSettingsModule *> > >::unique_ptr<std::tuple<void (__thiscall CPythonPlayerSettingsModule::*)(void),CPythonPlayerSettingsModule *>,std::default_delete<std::tuple<void (__thiscall CPythonPlayerSettingsModule::*)(void),CPythonPlayerSettingsModule *> > ><std::default_delete<std::tuple<void (__thiscall CPythonPlayerSettingsModule::*)(void),CPythonPlayerSettingsModule *> >,0>
PUBLIC	??$?0P8CPythonPlayerSettingsModule@@AEXXZPAV0@$0A@@?$tuple@P8CPythonPlayerSettingsModule@@AEXXZPAV1@@std@@QAE@$$QAP8CPythonPlayerSettingsModule@@AEXXZ$$QAPAV2@@Z ; std::tuple<void (__thiscall CPythonPlayerSettingsModule::*)(void),CPythonPlayerSettingsModule *>::tuple<void (__thiscall CPythonPlayerSettingsModule::*)(void),CPythonPlayerSettingsModule *><void (__thiscall CPythonPlayerSettingsModule::*)(void),CPythonPlayerSettingsModule *,0>
PUBLIC	?_Orphan_ptr2@?$_List_val@U?$_List_simple_types@V?$basic_string@DU?$char_traits@D@std@@V?$allocator@D@2@@std@@@std@@@std@@QAEXPAU?$_List_node@V?$basic_string@DU?$char_traits@D@std@@V?$allocator@D@2@@std@@PAX@2@@Z ; std::_List_val<std::_List_simple_types<std::basic_string<char,std::char_traits<char>,std::allocator<char> > > >::_Orphan_ptr2
PUBLIC	??0?$allocator@U?$pair@GG@std@@@std@@QAE@XZ	; std::allocator<std::pair<unsigned short,unsigned short> >::allocator<std::pair<unsigned short,unsigned short> >
PUBLIC	?deallocate@?$allocator@U?$pair@GG@std@@@std@@QAEXQAU?$pair@GG@2@I@Z ; std::allocator<std::pair<unsigned short,unsigned short> >::deallocate
PUBLIC	?_Getal@?$vector@U?$pair@GG@std@@V?$allocator@U?$pair@GG@std@@@2@@std@@AAEAAV?$allocator@U?$pair@GG@std@@@2@XZ ; std::vector<std::pair<unsigned short,unsigned short>,std::allocator<std::pair<unsigned short,unsigned short> > >::_Getal
PUBLIC	??0?$_Vector_val@U?$_Simple_types@U?$pair@GG@std@@@std@@@std@@QAE@XZ ; std::_Vector_val<std::_Simple_types<std::pair<unsigned short,unsigned short> > >::_Vector_val<std::_Simple_types<std::pair<unsigned short,unsigned short> > >
PUBLIC	??1?$unique_ptr@V?$tuple@P8CPythonPlayerSettingsModule@@AEXXZPAV1@@std@@U?$default_delete@V?$tuple@P8CPythonPlayerSettingsModule@@AEXXZPAV1@@std@@@2@@std@@QAE@XZ ; std::unique_ptr<std::tuple<void (__thiscall CPythonPlayerSettingsModule::*)(void),CPythonPlayerSettingsModule *>,std::default_delete<std::tuple<void (__thiscall CPythonPlayerSettingsModule::*)(void),CPythonPlayerSettingsModule *> > >::~unique_ptr<std::tuple<void (__thiscall CPythonPlayerSettingsModule::*)(void),CPythonPlayerSettingsModule *>,std::default_delete<std::tuple<void (__thiscall CPythonPlayerSettingsModule::*)(void),CPythonPlayerSettingsModule *> > >
PUBLIC	?get@?$unique_ptr@V?$tuple@P8CPythonPlayerSettingsModule@@AEXXZPAV1@@std@@U?$default_delete@V?$tuple@P8CPythonPlayerSettingsModule@@AEXXZPAV1@@std@@@2@@std@@QBEPAV?$tuple@P8CPythonPlayerSettingsModule@@AEXXZPAV1@@2@XZ ; std::unique_ptr<std::tuple<void (__thiscall CPythonPlayerSettingsModule::*)(void),CPythonPlayerSettingsModule *>,std::default_delete<std::tuple<void (__thiscall CPythonPlayerSettingsModule::*)(void),CPythonPlayerSettingsModule *> > >::get
PUBLIC	?release@?$unique_ptr@V?$tuple@P8CPythonPlayerSettingsModule@@AEXXZPAV1@@std@@U?$default_delete@V?$tuple@P8CPythonPlayerSettingsModule@@AEXXZPAV1@@std@@@2@@std@@QAEPAV?$tuple@P8CPythonPlayerSettingsModule@@AEXXZPAV1@@2@XZ ; std::unique_ptr<std::tuple<void (__thiscall CPythonPlayerSettingsModule::*)(void),CPythonPlayerSettingsModule *>,std::default_delete<std::tuple<void (__thiscall CPythonPlayerSettingsModule::*)(void),CPythonPlayerSettingsModule *> > >::release
PUBLIC	??$_Destroy_range@V?$allocator@U?$pair@GG@std@@@std@@@std@@YAXPAU?$pair@GG@0@QAU10@AAV?$allocator@U?$pair@GG@std@@@0@@Z ; std::_Destroy_range<std::allocator<std::pair<unsigned short,unsigned short> > >
PUBLIC	??$?0V?$basic_string@DU?$char_traits@D@std@@V?$allocator@D@2@@std@@@?$_List_node_emplace_op2@V?$allocator@U?$_List_node@V?$basic_string@DU?$char_traits@D@std@@V?$allocator@D@2@@std@@PAX@std@@@std@@@std@@QAE@AAV?$allocator@U?$_List_node@V?$basic_string@DU?$char_traits@D@std@@V?$allocator@D@2@@std@@PAX@std@@@1@$$QAV?$basic_string@DU?$char_traits@D@std@@V?$allocator@D@2@@1@@Z ; std::_List_node_emplace_op2<std::allocator<std::_List_node<std::basic_string<char,std::char_traits<char>,std::allocator<char> >,void *> > >::_List_node_emplace_op2<std::allocator<std::_List_node<std::basic_string<char,std::char_traits<char>,std::allocator<char> >,void *> > ><std::basic_string<char,std::char_traits<char>,std::allocator<char> > >
PUBLIC	??$_Emplace_reallocate@U?$pair@GG@std@@@?$vector@U?$pair@GG@std@@V?$allocator@U?$pair@GG@std@@@2@@std@@AAEPAU?$pair@GG@1@QAU21@$$QAU21@@Z ; std::vector<std::pair<unsigned short,unsigned short>,std::allocator<std::pair<unsigned short,unsigned short> > >::_Emplace_reallocate<std::pair<unsigned short,unsigned short> >
PUBLIC	??$_Emplace_back_with_unused_capacity@U?$pair@GG@std@@@?$vector@U?$pair@GG@std@@V?$allocator@U?$pair@GG@std@@@2@@std@@AAEAAU?$pair@GG@1@$$QAU21@@Z ; std::vector<std::pair<unsigned short,unsigned short>,std::allocator<std::pair<unsigned short,unsigned short> > >::_Emplace_back_with_unused_capacity<std::pair<unsigned short,unsigned short> >
PUBLIC	??$forward@U?$pair@GG@std@@@std@@YA$$QAU?$pair@GG@0@AAU10@@Z ; std::forward<std::pair<unsigned short,unsigned short> >
PUBLIC	??$_Invoke@V?$tuple@P8CPythonPlayerSettingsModule@@AEXXZPAV1@@std@@$0A@$00@thread@std@@CGIPAX@Z ; std::thread::_Invoke<std::tuple<void (__thiscall CPythonPlayerSettingsModule::*)(void),CPythonPlayerSettingsModule *>,0,1>
PUBLIC	??$make_unique@V?$tuple@P8CPythonPlayerSettingsModule@@AEXXZPAV1@@std@@P8CPythonPlayerSettingsModule@@AEXXZPAV3@$0A@@std@@YA?AV?$unique_ptr@V?$tuple@P8CPythonPlayerSettingsModule@@AEXXZPAV1@@std@@U?$default_delete@V?$tuple@P8CPythonPlayerSettingsModule@@AEXXZPAV1@@std@@@2@@0@$$QAP8CPythonPlayerSettingsModule@@AEXXZ$$QAPAV2@@Z ; std::make_unique<std::tuple<void (__thiscall CPythonPlayerSettingsModule::*)(void),CPythonPlayerSettingsModule *>,void (__thiscall CPythonPlayerSettingsModule::*)(void),CPythonPlayerSettingsModule *,0>
PUBLIC	?_Unchecked_erase@?$list@V?$basic_string@DU?$char_traits@D@std@@V?$allocator@D@2@@std@@V?$allocator@V?$basic_string@DU?$char_traits@D@std@@V?$allocator@D@2@@std@@@2@@std@@AAEPAU?$_List_node@V?$basic_string@DU?$char_traits@D@std@@V?$allocator@D@2@@std@@PAX@2@QAU32@@Z ; std::list<std::basic_string<char,std::char_traits<char>,std::allocator<char> >,std::allocator<std::basic_string<char,std::char_traits<char>,std::allocator<char> > > >::_Unchecked_erase
PUBLIC	?_Tidy@?$vector@U?$pair@GG@std@@V?$allocator@U?$pair@GG@std@@@2@@std@@AAEXXZ ; std::vector<std::pair<unsigned short,unsigned short>,std::allocator<std::pair<unsigned short,unsigned short> > >::_Tidy
PUBLIC	??$_Emplace@V?$basic_string@DU?$char_traits@D@std@@V?$allocator@D@2@@std@@@?$list@V?$basic_string@DU?$char_traits@D@std@@V?$allocator@D@2@@std@@V?$allocator@V?$basic_string@DU?$char_traits@D@std@@V?$allocator@D@2@@std@@@2@@std@@QAEPAU?$_List_node@V?$basic_string@DU?$char_traits@D@std@@V?$allocator@D@2@@std@@PAX@1@QAU21@$$QAV?$basic_string@DU?$char_traits@D@std@@V?$allocator@D@2@@1@@Z ; std::list<std::basic_string<char,std::char_traits<char>,std::allocator<char> >,std::allocator<std::basic_string<char,std::char_traits<char>,std::allocator<char> > > >::_Emplace<std::basic_string<char,std::char_traits<char>,std::allocator<char> > >
PUBLIC	??$?0$$V@?$_Compressed_pair@V?$allocator@U?$pair@GG@std@@@std@@V?$_Vector_val@U?$_Simple_types@U?$pair@GG@std@@@std@@@2@$00@std@@QAE@U_Zero_then_variadic_args_t@1@@Z ; std::_Compressed_pair<std::allocator<std::pair<unsigned short,unsigned short> >,std::_Vector_val<std::_Simple_types<std::pair<unsigned short,unsigned short> > >,1>::_Compressed_pair<std::allocator<std::pair<unsigned short,unsigned short> >,std::_Vector_val<std::_Simple_types<std::pair<unsigned short,unsigned short> > >,1><>
PUBLIC	??$_Emplace_one_at_back@U?$pair@GG@std@@@?$vector@U?$pair@GG@std@@V?$allocator@U?$pair@GG@std@@@2@@std@@AAEAAU?$pair@GG@1@$$QAU21@@Z ; std::vector<std::pair<unsigned short,unsigned short>,std::allocator<std::pair<unsigned short,unsigned short> > >::_Emplace_one_at_back<std::pair<unsigned short,unsigned short> >
PUBLIC	??$move@AAU?$pair@GG@std@@@std@@YA$$QAU?$pair@GG@0@AAU10@@Z ; std::move<std::pair<unsigned short,unsigned short> &>
PUBLIC	??$?0AAGAAG$0A@@?$pair@GG@std@@QAE@AAG0@Z	; std::pair<unsigned short,unsigned short>::pair<unsigned short,unsigned short><unsigned short &,unsigned short &,0>
PUBLIC	??$forward@AAG@std@@YAAAGAAG@Z			; std::forward<unsigned short &>
PUBLIC	??$_Start@P8CPythonPlayerSettingsModule@@AEXXZPAV1@@thread@std@@AAEX$$QAP8CPythonPlayerSettingsModule@@AEXXZ$$QAPAV2@@Z ; std::thread::_Start<void (__thiscall CPythonPlayerSettingsModule::*)(void),CPythonPlayerSettingsModule *>
PUBLIC	??$forward@PAVCPythonPlayerSettingsModule@@@std@@YA$$QAPAVCPythonPlayerSettingsModule@@AAPAV1@@Z ; std::forward<CPythonPlayerSettingsModule *>
PUBLIC	??$forward@P8CPythonPlayerSettingsModule@@AEXXZ@std@@YA$$QAP8CPythonPlayerSettingsModule@@AEXXZAAP81@AEXXZ@Z ; std::forward<void (__thiscall CPythonPlayerSettingsModule::*)(void)>
PUBLIC	?push_back@?$list@V?$basic_string@DU?$char_traits@D@std@@V?$allocator@D@2@@std@@V?$allocator@V?$basic_string@DU?$char_traits@D@std@@V?$allocator@D@2@@std@@@2@@std@@QAEX$$QAV?$basic_string@DU?$char_traits@D@std@@V?$allocator@D@2@@2@@Z ; std::list<std::basic_string<char,std::char_traits<char>,std::allocator<char> >,std::allocator<std::basic_string<char,std::char_traits<char>,std::allocator<char> > > >::push_back
PUBLIC	?empty@?$list@V?$basic_string@DU?$char_traits@D@std@@V?$allocator@D@2@@std@@V?$allocator@V?$basic_string@DU?$char_traits@D@std@@V?$allocator@D@2@@std@@@2@@std@@QBE_NXZ ; std::list<std::basic_string<char,std::char_traits<char>,std::allocator<char> >,std::allocator<std::basic_string<char,std::char_traits<char>,std::allocator<char> > > >::empty
PUBLIC	?front@?$list@V?$basic_string@DU?$char_traits@D@std@@V?$allocator@D@2@@std@@V?$allocator@V?$basic_string@DU?$char_traits@D@std@@V?$allocator@D@2@@std@@@2@@std@@QAEAAV?$basic_string@DU?$char_traits@D@std@@V?$allocator@D@2@@2@XZ ; std::list<std::basic_string<char,std::char_traits<char>,std::allocator<char> >,std::allocator<std::basic_string<char,std::char_traits<char>,std::allocator<char> > > >::front
PUBLIC	?pop_front@?$list@V?$basic_string@DU?$char_traits@D@std@@V?$allocator@D@2@@std@@V?$allocator@V?$basic_string@DU?$char_traits@D@std@@V?$allocator@D@2@@std@@@2@@std@@QAEXXZ ; std::list<std::basic_string<char,std::char_traits<char>,std::allocator<char> >,std::allocator<std::basic_string<char,std::char_traits<char>,std::allocator<char> > > >::pop_front
PUBLIC	?instance@?$CSingleton@VCPythonNetworkStream@@@@SAAAVCPythonNetworkStream@@XZ ; CSingleton<CPythonNetworkStream>::instance
PUBLIC	??0?$vector@U?$pair@GG@std@@V?$allocator@U?$pair@GG@std@@@2@@std@@QAE@XZ ; std::vector<std::pair<unsigned short,unsigned short>,std::allocator<std::pair<unsigned short,unsigned short> > >::vector<std::pair<unsigned short,unsigned short>,std::allocator<std::pair<unsigned short,unsigned short> > >
PUBLIC	??1?$vector@U?$pair@GG@std@@V?$allocator@U?$pair@GG@std@@@2@@std@@QAE@XZ ; std::vector<std::pair<unsigned short,unsigned short>,std::allocator<std::pair<unsigned short,unsigned short> > >::~vector<std::pair<unsigned short,unsigned short>,std::allocator<std::pair<unsigned short,unsigned short> > >
PUBLIC	?push_back@?$vector@U?$pair@GG@std@@V?$allocator@U?$pair@GG@std@@@2@@std@@QAEX$$QAU?$pair@GG@2@@Z ; std::vector<std::pair<unsigned short,unsigned short>,std::allocator<std::pair<unsigned short,unsigned short> > >::push_back
PUBLIC	?Instance@?$CSingleton@VCAccountConnector@@@@SAAAVCAccountConnector@@XZ ; CSingleton<CAccountConnector>::Instance
PUBLIC	??$make_pair@AAGAAG@std@@YA?AU?$pair@GG@0@AAG0@Z ; std::make_pair<unsigned short &,unsigned short &>
PUBLIC	??$?0P8CPythonPlayerSettingsModule@@AEXXZPAV0@$0A@@thread@std@@QAE@$$QAP8CPythonPlayerSettingsModule@@AEXXZ$$QAPAV2@@Z ; std::thread::thread<void (__thiscall CPythonPlayerSettingsModule::*)(void),CPythonPlayerSettingsModule *,0>
PUBLIC	??$exchange@U_Thrd_t@@U1@@std@@YA?AU_Thrd_t@@AAU1@$$QAU1@@Z ; std::exchange<_Thrd_t,_Thrd_t>
PUBLIC	?initnet@@YAXXZ					; initnet
PUBLIC	?netSendHuntingAction@@YAPAU_object@@PAU1@0@Z	; netSendHuntingAction
PUBLIC	?netSendChangeLookCancel@@YAPAU_object@@PAU1@0@Z ; netSendChangeLookCancel
PUBLIC	?netSendChangeLookAccept@@YAPAU_object@@PAU1@0@Z ; netSendChangeLookAccept
PUBLIC	?netSendChangeLookCheckOutFreeYangItem@@YAPAU_object@@PAU1@0@Z ; netSendChangeLookCheckOutFreeYangItem
PUBLIC	?netSendChangeLookCheckInFreeYangItem@@YAPAU_object@@PAU1@0@Z ; netSendChangeLookCheckInFreeYangItem
PUBLIC	?netSendChangeLookCheckOut@@YAPAU_object@@PAU1@0@Z ; netSendChangeLookCheckOut
PUBLIC	?netSendChangeLookCheckIn@@YAPAU_object@@PAU1@0@Z ; netSendChangeLookCheckIn
PUBLIC	?netSendPetRevive@@YAPAU_object@@PAU1@0@Z	; netSendPetRevive
PUBLIC	?netSendPetAttrChange@@YAPAU_object@@PAU1@0@Z	; netSendPetAttrChange
PUBLIC	?netSendPetAttrDetermine@@YAPAU_object@@PAU1@0@Z ; netSendPetAttrDetermine
PUBLIC	?netSendPetWindowType@@YAPAU_object@@PAU1@0@Z	; netSendPetWindowType
PUBLIC	?netSendPetNameChangeWindowPacket@@YAPAU_object@@PAU1@0@Z ; netSendPetNameChangeWindowPacket
PUBLIC	?netSendPetNameChangePacket@@YAPAU_object@@PAU1@0@Z ; netSendPetNameChangePacket
PUBLIC	?netSendPetDeleteAllSkill@@YAPAU_object@@PAU1@0@Z ; netSendPetDeleteAllSkill
PUBLIC	?netSendPetDeleteSkill@@YAPAU_object@@PAU1@0@Z	; netSendPetDeleteSkill
PUBLIC	?netSendPetSkillUpgradeRequest@@YAPAU_object@@PAU1@0@Z ; netSendPetSkillUpgradeRequest
PUBLIC	?netSendPetLearnSkill@@YAPAU_object@@PAU1@0@Z	; netSendPetLearnSkill
PUBLIC	?netSendPetFeedPacket@@YAPAU_object@@PAU1@0@Z	; netSendPetFeedPacket
PUBLIC	?netSendPetHatchingWindowPacket@@YAPAU_object@@PAU1@0@Z ; netSendPetHatchingWindowPacket
PUBLIC	?netSendPetHatchingPacket@@YAPAU_object@@PAU1@0@Z ; netSendPetHatchingPacket
PUBLIC	?netCheckUsePetItem@@YAPAU_object@@PAU1@0@Z	; netCheckUsePetItem
PUBLIC	?netSendAuraRefineCancel@@YAPAU_object@@PAU1@0@Z ; netSendAuraRefineCancel
PUBLIC	?netSendAuraRefineAccept@@YAPAU_object@@PAU1@0@Z ; netSendAuraRefineAccept
PUBLIC	?netSendAuraRefineCheckOut@@YAPAU_object@@PAU1@0@Z ; netSendAuraRefineCheckOut
PUBLIC	?netSendAuraRefineCheckIn@@YAPAU_object@@PAU1@0@Z ; netSendAuraRefineCheckIn
PUBLIC	?netRegisterSkills@@YAPAU_object@@PAU1@0@Z	; netRegisterSkills
PUBLIC	?netLoadResourcesInCache@@YAPAU_object@@PAU1@0@Z ; netLoadResourcesInCache
PUBLIC	?netSendQuestInputStringLongPacket@@YAPAU_object@@PAU1@0@Z ; netSendQuestInputStringLongPacket
PUBLIC	?netSendPrivateShopSearchInfo@@YAPAU_object@@PAU1@0@Z ; netSendPrivateShopSearchInfo
PUBLIC	?netSendOpenWithVID@@YAPAU_object@@PAU1@0@Z	; netSendOpenWithVID
PUBLIC	?netSendAddTime@@YAPAU_object@@PAU1@0@Z		; netSendAddTime
PUBLIC	?netSendGetBackItems@@YAPAU_object@@PAU1@0@Z	; netSendGetBackItems
PUBLIC	?netSendOpenShopSlot@@YAPAU_object@@PAU1@0@Z	; netSendOpenShopSlot
PUBLIC	?netSendOfflineShopRemoveLogs@@YAPAU_object@@PAU1@0@Z ; netSendOfflineShopRemoveLogs
PUBLIC	?netSendOfflineShopButton@@YAPAU_object@@PAU1@0@Z ; netSendOfflineShopButton
PUBLIC	?netSendOfflineShopCheck@@YAPAU_object@@PAU1@0@Z ; netSendOfflineShopCheck
PUBLIC	?netSendOfflineShopChangeTitle@@YAPAU_object@@PAU1@0@Z ; netSendOfflineShopChangeTitle
PUBLIC	?netSendTakeOfflineMoney@@YAPAU_object@@PAU1@0@Z ; netSendTakeOfflineMoney
PUBLIC	?netSendDestroyOfflineShop@@YAPAU_object@@PAU1@0@Z ; netSendDestroyOfflineShop
PUBLIC	?netSendRemoveOfflineShopItem@@YAPAU_object@@PAU1@0@Z ; netSendRemoveOfflineShopItem
PUBLIC	?netSendAddOfflineShopItem@@YAPAU_object@@PAU1@0@Z ; netSendAddOfflineShopItem
PUBLIC	?netSendOfflineShopBuyPacket@@YAPAU_object@@PAU1@0@Z ; netSendOfflineShopBuyPacket
PUBLIC	?netSendOfflineShopEndPacket@@YAPAU_object@@PAU1@0@Z ; netSendOfflineShopEndPacket
PUBLIC	?netSendExtBattlePassPremiumItem@@YAPAU_object@@PAU1@0@Z ; netSendExtBattlePassPremiumItem
PUBLIC	?netSendExtBattlePassAction@@YAPAU_object@@PAU1@0@Z ; netSendExtBattlePassAction
PUBLIC	?netSendRequestEventData@@YAPAU_object@@PAU1@0@Z ; netSendRequestEventData
PUBLIC	?netSendRequestEventQuest@@YAPAU_object@@PAU1@0@Z ; netSendRequestEventQuest
PUBLIC	?netSendChestDropInfo@@YAPAU_object@@PAU1@0@Z	; netSendChestDropInfo
PUBLIC	?netTargetInfoLoad@@YAPAU_object@@PAU1@0@Z	; netTargetInfoLoad
PUBLIC	?netSendMessengerSummonByNamePacket@@YAPAU_object@@PAU1@0@Z ; netSendMessengerSummonByNamePacket
PUBLIC	?netSendMessengerRequestWarpByNamePacket@@YAPAU_object@@PAU1@0@Z ; netSendMessengerRequestWarpByNamePacket
PUBLIC	?netSendWhisperDetails@@YAPAU_object@@PAU1@0@Z	; netSendWhisperDetails
PUBLIC	?netSetLanguage@@YAPAU_object@@PAU1@0@Z		; netSetLanguage
PUBLIC	?netGetLanguage@@YAPAU_object@@PAU1@0@Z		; netGetLanguage
PUBLIC	?netSendChangeLanguagePacket@@YAPAU_object@@PAU1@0@Z ; netSendChangeLanguagePacket
PUBLIC	?netSendItemSellPacket@@YAPAU_object@@PAU1@0@Z	; netSendItemSellPacket
PUBLIC	?netSendItemDestroyPacket@@YAPAU_object@@PAU1@0@Z ; netSendItemDestroyPacket
PUBLIC	?netSendItemNewAttributePacket@@YAPAU_object@@PAU1@0@Z ; netSendItemNewAttributePacket
PUBLIC	?netRegisterErrorLog@@YAPAU_object@@PAU1@0@Z	; netRegisterErrorLog
PUBLIC	?netSetSkillGroupFake@@YAPAU_object@@PAU1@0@Z	; netSetSkillGroupFake
PUBLIC	?netSetEmpireLanguageMode@@YAPAU_object@@PAU1@0@Z ; netSetEmpireLanguageMode
PUBLIC	?netSetPacketSequenceMode@@YAPAU_object@@PAU1@0@Z ; netSetPacketSequenceMode
PUBLIC	?netSendSelectItemPacket@@YAPAU_object@@PAU1@0@Z ; netSendSelectItemPacket
PUBLIC	?netSendRefinePacket@@YAPAU_object@@PAU1@0@Z	; netSendRefinePacket
PUBLIC	?netSendRequestRefineInfoPacket@@YAPAU_object@@PAU1@0@Z ; netSendRequestRefineInfoPacket
PUBLIC	?netSendGuildWithdrawMoneyPacket@@YAPAU_object@@PAU1@0@Z ; netSendGuildWithdrawMoneyPacket
PUBLIC	?netSendGuildDepositMoneyPacket@@YAPAU_object@@PAU1@0@Z ; netSendGuildDepositMoneyPacket
PUBLIC	?netSendGuildChargeGSPPacket@@YAPAU_object@@PAU1@0@Z ; netSendGuildChargeGSPPacket
PUBLIC	?netSendGuildInviteAnswerPacket@@YAPAU_object@@PAU1@0@Z ; netSendGuildInviteAnswerPacket
PUBLIC	?netSendGuildChangeMemberGeneralPacket@@YAPAU_object@@PAU1@0@Z ; netSendGuildChangeMemberGeneralPacket
PUBLIC	?netSendGuildUseSkillPacket@@YAPAU_object@@PAU1@0@Z ; netSendGuildUseSkillPacket
PUBLIC	?netSendGuildChangeMemberGradePacket@@YAPAU_object@@PAU1@0@Z ; netSendGuildChangeMemberGradePacket
PUBLIC	?netSendGuildRefreshCommentsPacket@@YAPAU_object@@PAU1@0@Z ; netSendGuildRefreshCommentsPacket
PUBLIC	?netSnedGuildDeleteCommentPacket@@YAPAU_object@@PAU1@0@Z ; netSnedGuildDeleteCommentPacket
PUBLIC	?netSnedGuildPostCommentPacket@@YAPAU_object@@PAU1@0@Z ; netSnedGuildPostCommentPacket
PUBLIC	?netSendGuildOfferPacket@@YAPAU_object@@PAU1@0@Z ; netSendGuildOfferPacket
PUBLIC	?netSendGuildChangeGradeAuthorityPacket@@YAPAU_object@@PAU1@0@Z ; netSendGuildChangeGradeAuthorityPacket
PUBLIC	?netSendGuildChangeGradeNamePacket@@YAPAU_object@@PAU1@0@Z ; netSendGuildChangeGradeNamePacket
PUBLIC	?netSendGuildRemoveMemberPacket@@YAPAU_object@@PAU1@0@Z ; netSendGuildRemoveMemberPacket
PUBLIC	?netSendGuildAddMemberPacket@@YAPAU_object@@PAU1@0@Z ; netSendGuildAddMemberPacket
PUBLIC	?netSendQuestConfirmPacket@@YAPAU_object@@PAU1@0@Z ; netSendQuestConfirmPacket
PUBLIC	?netSendQuestInputStringPacket@@YAPAU_object@@PAU1@0@Z ; netSendQuestInputStringPacket
PUBLIC	?netSendMallCheckoutPacket@@YAPAU_object@@PAU1@0@Z ; netSendMallCheckoutPacket
PUBLIC	?netSendSafeboxItemMovePacket@@YAPAU_object@@PAU1@0@Z ; netSendSafeboxItemMovePacket
PUBLIC	?netSendSafeboxCheckoutPacket@@YAPAU_object@@PAU1@0@Z ; netSendSafeboxCheckoutPacket
PUBLIC	?netSendSafeboxCheckinPacket@@YAPAU_object@@PAU1@0@Z ; netSendSafeboxCheckinPacket
PUBLIC	?netSendSafeboxWithdrawMoneyPacket@@YAPAU_object@@PAU1@0@Z ; netSendSafeboxWithdrawMoneyPacket
PUBLIC	?netSendSafeboxSaveMoneyPacket@@YAPAU_object@@PAU1@0@Z ; netSendSafeboxSaveMoneyPacket
PUBLIC	?netSendPartyParameterPacket@@YAPAU_object@@PAU1@0@Z ; netSendPartyParameterPacket
PUBLIC	?netSendPartyUseSkillPacket@@YAPAU_object@@PAU1@0@Z ; netSendPartyUseSkillPacket
PUBLIC	?netSendPartySetStatePacket@@YAPAU_object@@PAU1@0@Z ; netSendPartySetStatePacket
PUBLIC	?netSendPartyRemovePacket@@YAPAU_object@@PAU1@0@Z ; netSendPartyRemovePacket
PUBLIC	?netSendPartyExitPacket@@YAPAU_object@@PAU1@0@Z	; netSendPartyExitPacket
PUBLIC	?netSendPartyInviteAnswerPacket@@YAPAU_object@@PAU1@0@Z ; netSendPartyInviteAnswerPacket
PUBLIC	?netSendPartyInvitePacket@@YAPAU_object@@PAU1@0@Z ; netSendPartyInvitePacket
PUBLIC	?netSendMessengerRemovePacket@@YAPAU_object@@PAU1@0@Z ; netSendMessengerRemovePacket
PUBLIC	?netSendMessengerAddByNamePacket@@YAPAU_object@@PAU1@0@Z ; netSendMessengerAddByNamePacket
PUBLIC	?netSendMessengerAddByVIDPacket@@YAPAU_object@@PAU1@0@Z ; netSendMessengerAddByVIDPacket
PUBLIC	?netSendMessengerBlockRemoveByVIDPacket@@YAPAU_object@@PAU1@0@Z ; netSendMessengerBlockRemoveByVIDPacket
PUBLIC	?netSendMessengerBlockRemovePacket@@YAPAU_object@@PAU1@0@Z ; netSendMessengerBlockRemovePacket
PUBLIC	?netSendMessengerBlockAddByNamePacket@@YAPAU_object@@PAU1@0@Z ; netSendMessengerBlockAddByNamePacket
PUBLIC	?netSendMessengerBlockAddByVIDPacket@@YAPAU_object@@PAU1@0@Z ; netSendMessengerBlockAddByVIDPacket
PUBLIC	?netRegisterEmoticonString@@YAPAU_object@@PAU1@0@Z ; netRegisterEmoticonString
PUBLIC	?netToggleGameDebugInfo@@YAPAU_object@@PAU1@0@Z	; netToggleGameDebugInfo
PUBLIC	?netIsConnect@@YAPAU_object@@PAU1@0@Z		; netIsConnect
PUBLIC	?netDisconnect@@YAPAU_object@@PAU1@0@Z		; netDisconnect
PUBLIC	?netLogOutGame@@YAPAU_object@@PAU1@0@Z		; netLogOutGame
PUBLIC	?netExitGame@@YAPAU_object@@PAU1@0@Z		; netExitGame
PUBLIC	?netExitApplication@@YAPAU_object@@PAU1@0@Z	; netExitApplication
PUBLIC	?netSendExchangeExitPacket@@YAPAU_object@@PAU1@0@Z ; netSendExchangeExitPacket
PUBLIC	?netSendExchangeAcceptPacket@@YAPAU_object@@PAU1@0@Z ; netSendExchangeAcceptPacket
PUBLIC	?netSendExchangeItemDelPacket@@YAPAU_object@@PAU1@0@Z ; netSendExchangeItemDelPacket
PUBLIC	?netSendExchangeItemAddPacket@@YAPAU_object@@PAU1@0@Z ; netSendExchangeItemAddPacket
PUBLIC	?netSendExchangeElkAddPacket@@YAPAU_object@@PAU1@0@Z ; netSendExchangeElkAddPacket
PUBLIC	?netSendExchangeStartPacket@@YAPAU_object@@PAU1@0@Z ; netSendExchangeStartPacket
PUBLIC	?netSendShopSellPacketNew@@YAPAU_object@@PAU1@0@Z ; netSendShopSellPacketNew
PUBLIC	?netSendShopSellPacket@@YAPAU_object@@PAU1@0@Z	; netSendShopSellPacket
PUBLIC	?netSendShopBuyPacket@@YAPAU_object@@PAU1@0@Z	; netSendShopBuyPacket
PUBLIC	?netSendShopEndPacket@@YAPAU_object@@PAU1@0@Z	; netSendShopEndPacket
PUBLIC	?netSendGiveItemPacket@@YAPAU_object@@PAU1@0@Z	; netSendGiveItemPacket
PUBLIC	?netSendItemPickUpPacket@@YAPAU_object@@PAU1@0@Z ; netSendItemPickUpPacket
PUBLIC	?netSendItemMovePacket@@YAPAU_object@@PAU1@0@Z	; netSendItemMovePacket
PUBLIC	?netSendGoldDropPacketNew@@YAPAU_object@@PAU1@0@Z ; netSendGoldDropPacketNew
PUBLIC	?netSendElkDropPacket@@YAPAU_object@@PAU1@0@Z	; netSendElkDropPacket
PUBLIC	?netSendItemDropPacketNew@@YAPAU_object@@PAU1@0@Z ; netSendItemDropPacketNew
PUBLIC	?netSendItemDropPacket@@YAPAU_object@@PAU1@0@Z	; netSendItemDropPacket
PUBLIC	?netSendItemUseToItemPacket@@YAPAU_object@@PAU1@0@Z ; netSendItemUseToItemPacket
PUBLIC	?netSendItemUsePacket@@YAPAU_object@@PAU1@0@Z	; netSendItemUsePacket
PUBLIC	?netOnClickPacket@@YAPAU_object@@PAU1@0@Z	; netOnClickPacket
PUBLIC	?netSendEnterGamePacket@@YAPAU_object@@PAU1@0@Z	; netSendEnterGamePacket
PUBLIC	?netSendDestroyCharacterPacket@@YAPAU_object@@PAU1@0@Z ; netSendDestroyCharacterPacket
PUBLIC	?netSendCreateCharacterPacket@@YAPAU_object@@PAU1@0@Z ; netSendCreateCharacterPacket
PUBLIC	?netSendEmoticon@@YAPAU_object@@PAU1@0@Z	; netSendEmoticon
PUBLIC	?netSendChatPacket@@YAPAU_object@@PAU1@0@Z	; netSendChatPacket
PUBLIC	?netSendCharacterPositionPacket@@YAPAU_object@@PAU1@0@Z ; netSendCharacterPositionPacket
PUBLIC	?netSendWhisperPacket@@YAPAU_object@@PAU1@0@Z	; netSendWhisperPacket
PUBLIC	?netIsInsultIn@@YAPAU_object@@PAU1@0@Z		; netIsInsultIn
PUBLIC	?netIsChatInsultIn@@YAPAU_object@@PAU1@0@Z	; netIsChatInsultIn
PUBLIC	?netEnableChatInsultFilter@@YAPAU_object@@PAU1@0@Z ; netEnableChatInsultFilter
PUBLIC	?netSendChangeNamePacket@@YAPAU_object@@PAU1@0@Z ; netSendChangeNamePacket
PUBLIC	?netSendSelectCharacterPacket@@YAPAU_object@@PAU1@0@Z ; netSendSelectCharacterPacket
PUBLIC	?netDirectEnter@@YAPAU_object@@PAU1@0@Z		; netDirectEnter
PUBLIC	?netSendLoginPacket@@YAPAU_object@@PAU1@0@Z	; netSendLoginPacket
PUBLIC	?netSendSelectEmpirePacket@@YAPAU_object@@PAU1@0@Z ; netSendSelectEmpirePacket
PUBLIC	?netSetOfflinePhase@@YAPAU_object@@PAU1@0@Z	; netSetOfflinePhase
PUBLIC	?netSetLoginInfo@@YAPAU_object@@PAU1@0@Z	; netSetLoginInfo
PUBLIC	?netConnectToAccountServer@@YAPAU_object@@PAU1@0@Z ; netConnectToAccountServer
PUBLIC	?netConnectUDP@@YAPAU_object@@PAU1@0@Z		; netConnectUDP
PUBLIC	?netConnectTCP@@YAPAU_object@@PAU1@0@Z		; netConnectTCP
PUBLIC	?netSetMarkServer@@YAPAU_object@@PAU1@0@Z	; netSetMarkServer
PUBLIC	?netSetUDPRecvBufferSize@@YAPAU_object@@PAU1@0@Z ; netSetUDPRecvBufferSize
PUBLIC	?netSetTCPSendBufferSize@@YAPAU_object@@PAU1@0@Z ; netSetTCPSendBufferSize
PUBLIC	?netSetTCPRecvBufferSize@@YAPAU_object@@PAU1@0@Z ; netSetTCPRecvBufferSize
PUBLIC	?netSetHandler@@YAPAU_object@@PAU1@0@Z		; netSetHandler
PUBLIC	?netSetAccountConnectorHandler@@YAPAU_object@@PAU1@0@Z ; netSetAccountConnectorHandler
PUBLIC	?netSetServerCommandParserWindow@@YAPAU_object@@PAU1@0@Z ; netSetServerCommandParserWindow
PUBLIC	?netClearPhaseWindow@@YAPAU_object@@PAU1@0@Z	; netClearPhaseWindow
PUBLIC	?netSetPhaseWindow@@YAPAU_object@@PAU1@0@Z	; netSetPhaseWindow
PUBLIC	?netGetFieldMusicVolume@@YAPAU_object@@PAU1@0@Z	; netGetFieldMusicVolume
PUBLIC	?netGetFieldMusicFileName@@YAPAU_object@@PAU1@0@Z ; netGetFieldMusicFileName
PUBLIC	?netGetAccountCharacterSlotDataString@@YAPAU_object@@PAU1@0@Z ; netGetAccountCharacterSlotDataString
PUBLIC	?netGetAccountCharacterSlotDataInteger@@YAPAU_object@@PAU1@0@Z ; netGetAccountCharacterSlotDataInteger
PUBLIC	?netGetMainActorSkillGroup@@YAPAU_object@@PAU1@0@Z ; netGetMainActorSkillGroup
PUBLIC	?netGetMainActorEmpire@@YAPAU_object@@PAU1@0@Z	; netGetMainActorEmpire
PUBLIC	?netGetMainActorRace@@YAPAU_object@@PAU1@0@Z	; netGetMainActorRace
PUBLIC	?netGetMainActorVID@@YAPAU_object@@PAU1@0@Z	; netGetMainActorVID
PUBLIC	?netGetEmpireID@@YAPAU_object@@PAU1@0@Z		; netGetEmpireID
PUBLIC	?netGetGuildID@@YAPAU_object@@PAU1@0@Z		; netGetGuildID
PUBLIC	?netUploadSymbol@@YAPAU_object@@PAU1@0@Z	; netUploadSymbol
PUBLIC	?netUploadMark@@YAPAU_object@@PAU1@0@Z		; netUploadMark
PUBLIC	?netLoadInsultList@@YAPAU_object@@PAU1@0@Z	; netLoadInsultList
PUBLIC	?netWarp@@YAPAU_object@@PAU1@0@Z		; netWarp
PUBLIC	?netStartGame@@YAPAU_object@@PAU1@0@Z		; netStartGame
PUBLIC	?netGetPreservedServerCommand@@YAPAU_object@@PAU1@0@Z ; netGetPreservedServerCommand
PUBLIC	?netPreserveServerCommand@@YAPAU_object@@PAU1@0@Z ; netPreserveServerCommand
PUBLIC	?netGetServerInfo@@YAPAU_object@@PAU1@0@Z	; netGetServerInfo
PUBLIC	?netSetServerInfo@@YAPAU_object@@PAU1@0@Z	; netSetServerInfo
PUBLIC	?netGetBettingGuildWarValue@@YAPAU_object@@PAU1@0@Z ; netGetBettingGuildWarValue
PUBLIC	?startLoadThread@CPythonPlayerSettingsModule@@QAEXXZ ; CPythonPlayerSettingsModule::startLoadThread
PUBLIC	?joinable@thread@std@@QBE_NXZ			; std::thread::joinable
PUBLIC	??4thread@std@@QAEAAV01@$$QAV01@@Z		; std::thread::operator=
PUBLIC	??1thread@std@@QAE@XZ				; std::thread::~thread
PUBLIC	?GetLanguage@CPythonNetworkStream@@QBEHXZ	; CPythonNetworkStream::GetLanguage
PUBLIC	?g_kList_strCommand@@3V?$list@V?$basic_string@DU?$char_traits@D@std@@V?$allocator@D@2@@std@@V?$allocator@V?$basic_string@DU?$char_traits@D@std@@V?$allocator@D@2@@std@@@2@@std@@A ; g_kList_strCommand
?vecDropSoundFileName@@3V?$array@U?$pair@KV?$basic_string@DU?$char_traits@D@std@@V?$allocator@D@2@@std@@@std@@$04@std@@B DB 08cH DUP (?) ; vecDropSoundFileName
?vecEffectList@@3V?$vector@V?$tuple@IPBDPBD_N@std@@V?$allocator@V?$tuple@IPBDPBD_N@std@@@2@@std@@B DB 0cH DUP (?) ; vecEffectList
	ALIGN	8

?characterNameColors@@3V?$map@EV?$array@E$02@std@@U?$less@E@2@V?$allocator@U?$pair@$$CBEV?$array@E$02@std@@@std@@@2@@std@@B DQ 01H DUP (?) ; characterNameColors
?characterTitleColors@@3V?$map@EV?$array@E$02@std@@U?$less@E@2@V?$allocator@U?$pair@$$CBEV?$array@E$02@std@@@std@@@2@@std@@B DQ 01H DUP (?) ; characterTitleColors
?characterTitleSystemColors@@3V?$map@EV?$array@E$02@std@@U?$less@E@2@V?$allocator@U?$pair@$$CBEV?$array@E$02@std@@@std@@@2@@std@@B DQ 01H DUP (?) ; characterTitleSystemColors
?emotionIcons@@3V?$map@EPBDU?$less@E@std@@V?$allocator@U?$pair@$$CBEPBD@std@@@2@@std@@B DQ 01H DUP (?) ; emotionIcons
?skillIndexes@@3V?$map@EV?$map@EV?$vector@EV?$allocator@E@std@@@std@@U?$less@E@2@V?$allocator@U?$pair@$$CBEV?$vector@EV?$allocator@E@std@@@std@@@std@@@2@@std@@U?$less@E@2@V?$allocator@U?$pair@$$CBEV?$map@EV?$vector@EV?$allocator@E@std@@@std@@U?$less@E@2@V?$allocator@U?$pair@$$CBEV?$vector@EV?$allocator@E@std@@@std@@@std@@@2@@std@@@std@@@2@@std@@B DQ 01H DUP (?) ; skillIndexes
?guildSkills@@3V?$map@V?$basic_string@DU?$char_traits@D@std@@V?$allocator@D@2@@std@@V?$vector@EV?$allocator@E@std@@@2@U?$less@V?$basic_string@DU?$char_traits@D@std@@V?$allocator@D@2@@std@@@2@V?$allocator@U?$pair@$$CBV?$basic_string@DU?$char_traits@D@std@@V?$allocator@D@2@@std@@V?$vector@EV?$allocator@E@std@@@2@@std@@@2@@std@@B DQ 01H DUP (?) ; guildSkills
?g_kList_strCommand@@3V?$list@V?$basic_string@DU?$char_traits@D@std@@V?$allocator@D@2@@std@@V?$allocator@V?$basic_string@DU?$char_traits@D@std@@V?$allocator@D@2@@std@@@2@@std@@A DQ 01H DUP (?) ; g_kList_strCommand
_BSS	ENDS
;	COMDAT xdata$x
xdata$x	SEGMENT
__ehfuncinfo$?startLoadThread@CPythonPlayerSettingsModule@@QAEXXZ DQ 00000000119930522r ; 2.33398e-314
	DD	FLAT:__unwindtable$?startLoadThread@CPythonPlayerSettingsModule@@QAEXXZ
	DQ	00000000000000000r		; 0
	DQ	00000000000000000r		; 0
	DQ	00000000100000000r		; 2.122e-314
__unwindtable$?startLoadThread@CPythonPlayerSettingsModule@@QAEXXZ DD 0ffffffffH
	DD	FLAT:__unwindfunclet$?startLoadThread@CPythonPlayerSettingsModule@@QAEXXZ$1
xdata$x	ENDS
;	COMDAT xdata$x
xdata$x	SEGMENT
__ehfuncinfo$??__EvecUseSoundFileName@@YAXXZ DQ 00000000619930522r ; 1.2944e-313
	DD	FLAT:__unwindtable$??__EvecUseSoundFileName@@YAXXZ
	DQ	00000000000000000r		; 0
	DQ	00000000000000000r		; 0
	DQ	00000000100000000r		; 2.122e-314
__unwindtable$??__EvecUseSoundFileName@@YAXXZ DD 0ffffffffH
	DD	FLAT:__unwindfunclet$??__EvecUseSoundFileName@@YAXXZ$0
	DD	00H
	DD	FLAT:__unwindfunclet$??__EvecUseSoundFileName@@YAXXZ$1
	DD	01H
	DD	FLAT:__unwindfunclet$??__EvecUseSoundFileName@@YAXXZ$2
	DD	02H
	DD	FLAT:__unwindfunclet$??__EvecUseSoundFileName@@YAXXZ$3
	DD	03H
	DD	FLAT:__unwindfunclet$??__EvecUseSoundFileName@@YAXXZ$4
	DD	04H
	DD	FLAT:__unwindfunclet$??__EvecUseSoundFileName@@YAXXZ$5
xdata$x	ENDS
;	COMDAT xdata$x
xdata$x	SEGMENT
__ehfuncinfo$??__FvecUseSoundFileName@@YAXXZ DQ 00000000119930522r ; 2.33398e-314
	DD	FLAT:__unwindtable$??__FvecUseSoundFileName@@YAXXZ
	DQ	00000000000000000r		; 0
	DQ	00000000000000000r		; 0
	DQ	00000000100000000r		; 2.122e-314
__unwindtable$??__FvecUseSoundFileName@@YAXXZ DD 0ffffffffH
	DD	FLAT:___std_terminate
xdata$x	ENDS
;	COMDAT xdata$x
xdata$x	SEGMENT
__ehfuncinfo$??__EvecDropSoundFileName@@YAXXZ DQ 00000000419930522r ; 8.69997e-314
	DD	FLAT:__unwindtable$??__EvecDropSoundFileName@@YAXXZ
	DQ	00000000000000000r		; 0
	DQ	00000000000000000r		; 0
	DQ	00000000100000000r		; 2.122e-314
__unwindtable$??__EvecDropSoundFileName@@YAXXZ DD 0ffffffffH
	DD	FLAT:__unwindfunclet$??__EvecDropSoundFileName@@YAXXZ$0
	DD	00H
	DD	FLAT:__unwindfunclet$??__EvecDropSoundFileName@@YAXXZ$1
	DD	01H
	DD	FLAT:__unwindfunclet$??__EvecDropSoundFileName@@YAXXZ$2
	DD	02H
	DD	FLAT:__unwindfunclet$??__EvecDropSoundFileName@@YAXXZ$3
xdata$x	ENDS
;	COMDAT xdata$x
xdata$x	SEGMENT
__ehfuncinfo$??__FvecDropSoundFileName@@YAXXZ DQ 00000000119930522r ; 2.33398e-314
	DD	FLAT:__unwindtable$??__FvecDropSoundFileName@@YAXXZ
	DQ	00000000000000000r		; 0
	DQ	00000000000000000r		; 0
	DQ	00000000100000000r		; 2.122e-314
__unwindtable$??__FvecDropSoundFileName@@YAXXZ DD 0ffffffffH
	DD	FLAT:___std_terminate
xdata$x	ENDS
;	COMDAT xdata$x
xdata$x	SEGMENT
__ehfuncinfo$??__EskillIndexes@@YAXXZ DQ 00000002819930522r ; 8.50918e-313
	DD	FLAT:__unwindtable$??__EskillIndexes@@YAXXZ
	DQ	00000000000000000r		; 0
	DQ	00000000000000000r		; 0
	DQ	00000000100000000r		; 2.122e-314
	ORG $+4
__unwindtable$??__EskillIndexes@@YAXXZ DD 0ffffffffH
	DD	FLAT:__unwindfunclet$??__EskillIndexes@@YAXXZ$0
	DD	00H
	DD	FLAT:__unwindfunclet$??__EskillIndexes@@YAXXZ$1
	DD	01H
	DD	FLAT:__unwindfunclet$??__EskillIndexes@@YAXXZ$2
	DD	00H
	DD	FLAT:__unwindfunclet$??__EskillIndexes@@YAXXZ$2
	DD	03H
	DD	FLAT:__unwindfunclet$??__EskillIndexes@@YAXXZ$4
	DD	04H
	DD	FLAT:__unwindfunclet$??__EskillIndexes@@YAXXZ$5
	DD	05H
	DD	FLAT:__unwindfunclet$??__EskillIndexes@@YAXXZ$6
	DD	06H
	DD	FLAT:__unwindfunclet$??__EskillIndexes@@YAXXZ$7
	DD	07H
	DD	FLAT:__unwindfunclet$??__EskillIndexes@@YAXXZ$8
	DD	08H
	DD	FLAT:__unwindfunclet$??__EskillIndexes@@YAXXZ$9
	DD	07H
	DD	FLAT:__unwindfunclet$??__EskillIndexes@@YAXXZ$9
	DD	0aH
	DD	FLAT:__unwindfunclet$??__EskillIndexes@@YAXXZ$11
	DD	0bH
	DD	FLAT:__unwindfunclet$??__EskillIndexes@@YAXXZ$12
	DD	0cH
	DD	FLAT:__unwindfunclet$??__EskillIndexes@@YAXXZ$13
	DD	0dH
	DD	FLAT:__unwindfunclet$??__EskillIndexes@@YAXXZ$14
	DD	0eH
	DD	FLAT:__unwindfunclet$??__EskillIndexes@@YAXXZ$15
	DD	0fH
	DD	FLAT:__unwindfunclet$??__EskillIndexes@@YAXXZ$16
	DD	0eH
	DD	FLAT:__unwindfunclet$??__EskillIndexes@@YAXXZ$16
	DD	011H
	DD	FLAT:__unwindfunclet$??__EskillIndexes@@YAXXZ$18
	DD	012H
	DD	FLAT:__unwindfunclet$??__EskillIndexes@@YAXXZ$19
	DD	013H
	DD	FLAT:__unwindfunclet$??__EskillIndexes@@YAXXZ$20
	DD	014H
	DD	FLAT:__unwindfunclet$??__EskillIndexes@@YAXXZ$21
	DD	015H
	DD	FLAT:__unwindfunclet$??__EskillIndexes@@YAXXZ$22
	DD	016H
	DD	FLAT:__unwindfunclet$??__EskillIndexes@@YAXXZ$23
	DD	015H
	DD	FLAT:__unwindfunclet$??__EskillIndexes@@YAXXZ$23
	DD	018H
	DD	FLAT:__unwindfunclet$??__EskillIndexes@@YAXXZ$25
	DD	019H
	DD	FLAT:__unwindfunclet$??__EskillIndexes@@YAXXZ$26
	DD	05H
	DD	FLAT:__unwindfunclet$??__EskillIndexes@@YAXXZ$7
	DD	01bH
	DD	FLAT:__unwindfunclet$??__EskillIndexes@@YAXXZ$9
	DD	01cH
	DD	FLAT:__unwindfunclet$??__EskillIndexes@@YAXXZ$11
	DD	01dH
	DD	FLAT:__unwindfunclet$??__EskillIndexes@@YAXXZ$12
	DD	01eH
	DD	FLAT:__unwindfunclet$??__EskillIndexes@@YAXXZ$14
	DD	01fH
	DD	FLAT:__unwindfunclet$??__EskillIndexes@@YAXXZ$16
	DD	020H
	DD	FLAT:__unwindfunclet$??__EskillIndexes@@YAXXZ$18
	DD	021H
	DD	FLAT:__unwindfunclet$??__EskillIndexes@@YAXXZ$19
	DD	022H
	DD	FLAT:__unwindfunclet$??__EskillIndexes@@YAXXZ$21
	DD	023H
	DD	FLAT:__unwindfunclet$??__EskillIndexes@@YAXXZ$23
	DD	024H
	DD	FLAT:__unwindfunclet$??__EskillIndexes@@YAXXZ$25
	DD	025H
	DD	FLAT:__unwindfunclet$??__EskillIndexes@@YAXXZ$26
	DD	026H
	DD	FLAT:__unwindfunclet$??__EskillIndexes@@YAXXZ$28
xdata$x	ENDS
;	COMDAT xdata$x
xdata$x	SEGMENT
__ehfuncinfo$??__EguildSkills@@YAXXZ DQ 00000000a19930522r ; 2.14319e-313
	DD	FLAT:__unwindtable$??__EguildSkills@@YAXXZ
	DQ	00000000000000000r		; 0
	DQ	00000000000000000r		; 0
	DQ	00000000100000000r		; 2.122e-314
	ORG $+4
__unwindtable$??__EguildSkills@@YAXXZ DD 0ffffffffH
	DD	FLAT:__unwindfunclet$??__EguildSkills@@YAXXZ$0
	DD	00H
	DD	FLAT:__unwindfunclet$??__EguildSkills@@YAXXZ$1
	DD	01H
	DD	FLAT:__unwindfunclet$??__EguildSkills@@YAXXZ$10
	DD	01H
	DD	FLAT:__unwindfunclet$??__EguildSkills@@YAXXZ$2
	DD	03H
	DD	FLAT:__unwindfunclet$??__EguildSkills@@YAXXZ$3
	DD	04H
	DD	FLAT:__unwindfunclet$??__EguildSkills@@YAXXZ$4
	DD	05H
	DD	FLAT:__unwindfunclet$??__EguildSkills@@YAXXZ$16
	DD	01H
	DD	FLAT:__unwindfunclet$??__EguildSkills@@YAXXZ$3
	DD	07H
	DD	FLAT:__unwindfunclet$??__EguildSkills@@YAXXZ$4
	DD	08H
	DD	FLAT:__unwindfunclet$??__EguildSkills@@YAXXZ$6
xdata$x	ENDS
;	COMDAT xdata$x
xdata$x	SEGMENT
__ehfuncinfo$?netPreserveServerCommand@@YAPAU_object@@PAU1@0@Z DQ 00000000219930522r ; 4.45598e-314
	DD	FLAT:__unwindtable$?netPreserveServerCommand@@YAPAU_object@@PAU1@0@Z
	DQ	00000000000000000r		; 0
	DQ	00000000000000000r		; 0
	DQ	00000000100000000r		; 2.122e-314
__unwindtable$?netPreserveServerCommand@@YAPAU_object@@PAU1@0@Z DD 0ffffffffH
	DD	FLAT:__unwindfunclet$?netPreserveServerCommand@@YAPAU_object@@PAU1@0@Z$0
	DD	00H
	DD	FLAT:__unwindfunclet$?netPreserveServerCommand@@YAPAU_object@@PAU1@0@Z$4
xdata$x	ENDS
;	COMDAT xdata$x
xdata$x	SEGMENT
__ehfuncinfo$?netSendPetFeedPacket@@YAPAU_object@@PAU1@0@Z DD 019930522H
	DD	01H
	DD	FLAT:__unwindtable$?netSendPetFeedPacket@@YAPAU_object@@PAU1@0@Z
	DD	2 DUP(00H)
	DD	2 DUP(00H)
	DD	00H
	DD	01H
__unwindtable$?netSendPetFeedPacket@@YAPAU_object@@PAU1@0@Z DD 0ffffffffH
	DD	FLAT:__unwindfunclet$?netSendPetFeedPacket@@YAPAU_object@@PAU1@0@Z$0
xdata$x	ENDS
;	COMDAT xdata$x
xdata$x	SEGMENT
__ehfuncinfo$?netSendPetRevive@@YAPAU_object@@PAU1@0@Z DD 019930522H
	DD	01H
	DD	FLAT:__unwindtable$?netSendPetRevive@@YAPAU_object@@PAU1@0@Z
	DD	2 DUP(00H)
	DD	2 DUP(00H)
	DD	00H
	DD	01H
__unwindtable$?netSendPetRevive@@YAPAU_object@@PAU1@0@Z DD 0ffffffffH
	DD	FLAT:__unwindfunclet$?netSendPetRevive@@YAPAU_object@@PAU1@0@Z$0
xdata$x	ENDS
;	COMDAT xdata$x
xdata$x	SEGMENT
__ehfuncinfo$??$?0P8CPythonPlayerSettingsModule@@AEXXZPAV0@$0A@@thread@std@@QAE@$$QAP8CPythonPlayerSettingsModule@@AEXXZ$$QAPAV2@@Z DQ 00000000119930522r ; 2.33398e-314
	DD	FLAT:__unwindtable$??$?0P8CPythonPlayerSettingsModule@@AEXXZPAV0@$0A@@thread@std@@QAE@$$QAP8CPythonPlayerSettingsModule@@AEXXZ$$QAPAV2@@Z
	DQ	00000000000000000r		; 0
	DQ	00000000000000000r		; 0
	DQ	00000000100000000r		; 2.122e-314
__unwindtable$??$?0P8CPythonPlayerSettingsModule@@AEXXZPAV0@$0A@@thread@std@@QAE@$$QAP8CPythonPlayerSettingsModule@@AEXXZ$$QAPAV2@@Z DD 0ffffffffH
	DD	FLAT:__unwindfunclet$??$?0P8CPythonPlayerSettingsModule@@AEXXZPAV0@$0A@@thread@std@@QAE@$$QAP8CPythonPlayerSettingsModule@@AEXXZ$$QAPAV2@@Z$0
xdata$x	ENDS
;	COMDAT xdata$x
xdata$x	SEGMENT
__ehfuncinfo$?push_back@?$list@V?$basic_string@DU?$char_traits@D@std@@V?$allocator@D@2@@std@@V?$allocator@V?$basic_string@DU?$char_traits@D@std@@V?$allocator@D@2@@std@@@2@@std@@QAEX$$QAV?$basic_string@DU?$char_traits@D@std@@V?$allocator@D@2@@2@@Z DQ 00000000119930522r ; 2.33398e-314
	DD	FLAT:__unwindtable$?push_back@?$list@V?$basic_string@DU?$char_traits@D@std@@V?$allocator@D@2@@std@@V?$allocator@V?$basic_string@DU?$char_traits@D@std@@V?$allocator@D@2@@std@@@2@@std@@QAEX$$QAV?$basic_string@DU?$char_traits@D@std@@V?$allocator@D@2@@2@@Z
	DQ	00000000000000000r		; 0
	DQ	00000000000000000r		; 0
	DQ	00000000100000000r		; 2.122e-314
__unwindtable$?push_back@?$list@V?$basic_string@DU?$char_traits@D@std@@V?$allocator@D@2@@std@@V?$allocator@V?$basic_string@DU?$char_traits@D@std@@V?$allocator@D@2@@std@@@2@@std@@QAEX$$QAV?$basic_string@DU?$char_traits@D@std@@V?$allocator@D@2@@2@@Z DD 0ffffffffH
	DD	FLAT:__unwindfunclet$?push_back@?$list@V?$basic_string@DU?$char_traits@D@std@@V?$allocator@D@2@@std@@V?$allocator@V?$basic_string@DU?$char_traits@D@std@@V?$allocator@D@2@@std@@@2@@std@@QAEX$$QAV?$basic_string@DU?$char_traits@D@std@@V?$allocator@D@2@@2@@Z$1
xdata$x	ENDS
;	COMDAT xdata$x
xdata$x	SEGMENT
__ehfuncinfo$??$_Start@P8CPythonPlayerSettingsModule@@AEXXZPAV1@@thread@std@@AAEX$$QAP8CPythonPlayerSettingsModule@@AEXXZ$$QAPAV2@@Z DQ 00000000119930522r ; 2.33398e-314
	DD	FLAT:__unwindtable$??$_Start@P8CPythonPlayerSettingsModule@@AEXXZPAV1@@thread@std@@AAEX$$QAP8CPythonPlayerSettingsModule@@AEXXZ$$QAPAV2@@Z
	DQ	00000000000000000r		; 0
	DQ	00000000000000000r		; 0
	DQ	00000000100000000r		; 2.122e-314
__unwindtable$??$_Start@P8CPythonPlayerSettingsModule@@AEXXZPAV1@@thread@std@@AAEX$$QAP8CPythonPlayerSettingsModule@@AEXXZ$$QAPAV2@@Z DD 0ffffffffH
	DD	FLAT:__unwindfunclet$??$_Start@P8CPythonPlayerSettingsModule@@AEXXZPAV1@@thread@std@@AAEX$$QAP8CPythonPlayerSettingsModule@@AEXXZ$$QAPAV2@@Z$0
xdata$x	ENDS
;	COMDAT xdata$x
xdata$x	SEGMENT
__ehfuncinfo$??$_Emplace@V?$basic_string@DU?$char_traits@D@std@@V?$allocator@D@2@@std@@@?$list@V?$basic_string@DU?$char_traits@D@std@@V?$allocator@D@2@@std@@V?$allocator@V?$basic_string@DU?$char_traits@D@std@@V?$allocator@D@2@@std@@@2@@std@@QAEPAU?$_List_node@V?$basic_string@DU?$char_traits@D@std@@V?$allocator@D@2@@std@@PAX@1@QAU21@$$QAV?$basic_string@DU?$char_traits@D@std@@V?$allocator@D@2@@1@@Z DQ 00000000119930522r ; 2.33398e-314
	DD	FLAT:__unwindtable$??$_Emplace@V?$basic_string@DU?$char_traits@D@std@@V?$allocator@D@2@@std@@@?$list@V?$basic_string@DU?$char_traits@D@std@@V?$allocator@D@2@@std@@V?$allocator@V?$basic_string@DU?$char_traits@D@std@@V?$allocator@D@2@@std@@@2@@std@@QAEPAU?$_List_node@V?$basic_string@DU?$char_traits@D@std@@V?$allocator@D@2@@std@@PAX@1@QAU21@$$QAV?$basic_string@DU?$char_traits@D@std@@V?$allocator@D@2@@1@@Z
	DQ	00000000000000000r		; 0
	DQ	00000000000000000r		; 0
	DQ	00000000100000000r		; 2.122e-314
__unwindtable$??$_Emplace@V?$basic_string@DU?$char_traits@D@std@@V?$allocator@D@2@@std@@@?$list@V?$basic_string@DU?$char_traits@D@std@@V?$allocator@D@2@@std@@V?$allocator@V?$basic_string@DU?$char_traits@D@std@@V?$allocator@D@2@@std@@@2@@std@@QAEPAU?$_List_node@V?$basic_string@DU?$char_traits@D@std@@V?$allocator@D@2@@std@@PAX@1@QAU21@$$QAV?$basic_string@DU?$char_traits@D@std@@V?$allocator@D@2@@1@@Z DD 0ffffffffH
	DD	FLAT:__unwindfunclet$??$_Emplace@V?$basic_string@DU?$char_traits@D@std@@V?$allocator@D@2@@std@@@?$list@V?$basic_string@DU?$char_traits@D@std@@V?$allocator@D@2@@std@@V?$allocator@V?$basic_string@DU?$char_traits@D@std@@V?$allocator@D@2@@std@@@2@@std@@QAEPAU?$_List_node@V?$basic_string@DU?$char_traits@D@std@@V?$allocator@D@2@@std@@PAX@1@QAU21@$$QAV?$basic_string@DU?$char_traits@D@std@@V?$allocator@D@2@@1@@Z$1
xdata$x	ENDS
;	COMDAT xdata$x
xdata$x	SEGMENT
__ehfuncinfo$??$_Invoke@V?$tuple@P8CPythonPlayerSettingsModule@@AEXXZPAV1@@std@@$0A@$00@thread@std@@CGIPAX@Z DQ 00000000019930522r ; 2.11987e-315
	DQ	00000000000000000r		; 0
	DQ	00000000000000000r		; 0
	DQ	00000000000000000r		; 0
	DD	05H
xdata$x	ENDS
;	COMDAT xdata$x
xdata$x	SEGMENT
__ehfuncinfo$??$?0V?$basic_string@DU?$char_traits@D@std@@V?$allocator@D@2@@std@@@?$_List_node_emplace_op2@V?$allocator@U?$_List_node@V?$basic_string@DU?$char_traits@D@std@@V?$allocator@D@2@@std@@PAX@std@@@std@@@std@@QAE@AAV?$allocator@U?$_List_node@V?$basic_string@DU?$char_traits@D@std@@V?$allocator@D@2@@std@@PAX@std@@@1@$$QAV?$basic_string@DU?$char_traits@D@std@@V?$allocator@D@2@@1@@Z DQ 00000000119930522r ; 2.33398e-314
	DD	FLAT:__unwindtable$??$?0V?$basic_string@DU?$char_traits@D@std@@V?$allocator@D@2@@std@@@?$_List_node_emplace_op2@V?$allocator@U?$_List_node@V?$basic_string@DU?$char_traits@D@std@@V?$allocator@D@2@@std@@PAX@std@@@std@@@std@@QAE@AAV?$allocator@U?$_List_node@V?$basic_string@DU?$char_traits@D@std@@V?$allocator@D@2@@std@@PAX@std@@@1@$$QAV?$basic_string@DU?$char_traits@D@std@@V?$allocator@D@2@@1@@Z
	DQ	00000000000000000r		; 0
	DQ	00000000000000000r		; 0
	DQ	00000000100000000r		; 2.122e-314
__unwindtable$??$?0V?$basic_string@DU?$char_traits@D@std@@V?$allocator@D@2@@std@@@?$_List_node_emplace_op2@V?$allocator@U?$_List_node@V?$basic_string@DU?$char_traits@D@std@@V?$allocator@D@2@@std@@PAX@std@@@std@@@std@@QAE@AAV?$allocator@U?$_List_node@V?$basic_string@DU?$char_traits@D@std@@V?$allocator@D@2@@std@@PAX@std@@@1@$$QAV?$basic_string@DU?$char_traits@D@std@@V?$allocator@D@2@@1@@Z DD 0ffffffffH
	DD	FLAT:__unwindfunclet$??$?0V?$basic_string@DU?$char_traits@D@std@@V?$allocator@D@2@@std@@@?$_List_node_emplace_op2@V?$allocator@U?$_List_node@V?$basic_string@DU?$char_traits@D@std@@V?$allocator@D@2@@std@@PAX@std@@@std@@@std@@QAE@AAV?$allocator@U?$_List_node@V?$basic_string@DU?$char_traits@D@std@@V?$allocator@D@2@@std@@PAX@std@@@1@$$QAV?$basic_string@DU?$char_traits@D@std@@V?$allocator@D@2@@1@@Z$0
	ORG $+4
?vecUseSoundFileName@@3V?$array@U?$pair@KV?$basic_string@DU?$char_traits@D@std@@V?$allocator@D@2@@std@@@std@@$06@std@@B DQ 00000000000000001r ; 4.94066e-324 ; vecUseSoundFileName
	DQ	00000000000000000r		; 0
	DQ	00000000000000000r		; 0
	DQ	00000000000000000r		; 0
	DQ	00000000000000000r		; 0
	DQ	00000000000000000r		; 0
	DQ	00000000000000000r		; 0
	DQ	00000000000000000r		; 0
	DQ	00000000000000000r		; 0
	DQ	00000000000000000r		; 0
	DQ	00000000000000000r		; 0
	DQ	00000000000000000r		; 0
	DQ	00000000000000000r		; 0
	DQ	00000000000000000r		; 0
	DQ	00000000000000000r		; 0
	DQ	00000000000000000r		; 0
	DQ	00000000000000000r		; 0
	DQ	00000000000000000r		; 0
	DQ	00000000000000000r		; 0
	DQ	00000000000000000r		; 0
	DQ	00000000000000000r		; 0
	DQ	00000000000000000r		; 0
	DQ	00000000000000000r		; 0
	DQ	00000000000000000r		; 0
	DD	00H
?gs_stServerInfo@@3V?$basic_string@DU?$char_traits@D@std@@V?$allocator@D@2@@std@@A DB 00H ; gs_stServerInfo
	DB	00H
	DB	00H
	DB	00H
	DB	00H
	DB	00H
	DB	00H
	DB	00H
	DB	00H
	DB	00H
	DB	00H
	DB	00H
	DB	00H
	DB	00H
	DB	00H
	DB	00H
	DD	00H
	DD	0fH
?vecUseSoundFileName$initializer$@@3P6AXXZA DD FLAT:??__EvecUseSoundFileName@@YAXXZ ; vecUseSoundFileName$initializer$
?vecDropSoundFileName$initializer$@@3P6AXXZA DD FLAT:??__EvecDropSoundFileName@@YAXXZ ; vecDropSoundFileName$initializer$
?vecEffectList$initializer$@@3P6AXXZA DD FLAT:??__EvecEffectList@@YAXXZ ; vecEffectList$initializer$
?characterNameColors$initializer$@@3P6AXXZA DD FLAT:??__EcharacterNameColors@@YAXXZ ; characterNameColors$initializer$
?characterTitleColors$initializer$@@3P6AXXZA DD FLAT:??__EcharacterTitleColors@@YAXXZ ; characterTitleColors$initializer$
?characterTitleSystemColors$initializer$@@3P6AXXZA DD FLAT:??__EcharacterTitleSystemColors@@YAXXZ ; characterTitleSystemColors$initializer$
?emotionIcons$initializer$@@3P6AXXZA DD FLAT:??__EemotionIcons@@YAXXZ ; emotionIcons$initializer$
?skillIndexes$initializer$@@3P6AXXZA DD FLAT:??__EskillIndexes@@YAXXZ ; skillIndexes$initializer$
?guildSkills$initializer$@@3P6AXXZA DD FLAT:??__EguildSkills@@YAXXZ ; guildSkills$initializer$
?gs_stServerInfo$initializer$@@3P6AXXZA DD FLAT:??__Egs_stServerInfo@@YAXXZ ; gs_stServerInfo$initializer$
?g_kList_strCommand$initializer$@@3P6AXXZA DD FLAT:??__Eg_kList_strCommand@@YAXXZ ; g_kList_strCommand$initializer$
; Function compile flags: /Ogtp
; File C:\Anka2Project\Anka2Project\Source\Binary\source\UserInterface\PythonNetworkStreamModule.cpp
; File C:\Anka2Project\Anka2Project\Source\Binary\source\eterBase\Singleton.h
; File C:\Anka2Project\Anka2Project\Source\Binary\source\UserInterface\PythonNetworkStreamModule.cpp
;	COMDAT ?netGetBettingGuildWarValue@@YAPAU_object@@PAU1@0@Z
_TEXT	SEGMENT
_szName$ = -4						; size = 4
_poSelf$ = 8						; size = 4
_poArgs$ = 12						; size = 4
?netGetBettingGuildWarValue@@YAPAU_object@@PAU1@0@Z PROC ; netGetBettingGuildWarValue, COMDAT

; 24   : {

  00000	55		 push	 ebp
  00001	8b ec		 mov	 ebp, esp
  00003	51		 push	 ecx

; 25   : 	char *szName;
; 26   : 	if (!PyTuple_GetString(poArgs, 0, &szName))

  00004	8d 45 fc	 lea	 eax, DWORD PTR _szName$[ebp]
  00007	50		 push	 eax
  00008	6a 00		 push	 0
  0000a	ff 75 0c	 push	 DWORD PTR _poArgs$[ebp]
  0000d	e8 00 00 00 00	 call	 ?PyTuple_GetString@@YA_NPAU_object@@HPAPAD@Z ; PyTuple_GetString
  00012	83 c4 0c	 add	 esp, 12			; 0000000cH
  00015	84 c0		 test	 al, al
  00017	75 0e		 jne	 SHORT $LN2@netGetBett

; 27   : 		return Py_BuildException();

  00019	6a 00		 push	 0
  0001b	e8 00 00 00 00	 call	 ?Py_BuildException@@YAPAU_object@@PBDZZ ; Py_BuildException
  00020	83 c4 04	 add	 esp, 4

; 31   : }

  00023	8b e5		 mov	 esp, ebp
  00025	5d		 pop	 ebp
  00026	c3		 ret	 0
$LN2@netGetBett:
; File C:\Anka2Project\Anka2Project\Source\Binary\source\eterBase\Singleton.h

; 26   : 		assert(ms_singleton);

  00027	8b 0d 00 00 00
	00		 mov	 ecx, DWORD PTR ?ms_singleton@?$CSingleton@VCPythonNetworkStream@@@@0PAVCPythonNetworkStream@@A ; CSingleton<CPythonNetworkStream>::ms_singleton
  0002d	85 c9		 test	 ecx, ecx
  0002f	75 1a		 jne	 SHORT $LN6@netGetBett
  00031	6a 1a		 push	 26			; 0000001aH
  00033	68 00 00 00 00	 push	 OFFSET ??_C@_1IO@CAJLEEOI@?$AAC?$AA?3?$AA?2?$AAA?$AAn?$AAk?$AAa?$AA2?$AAP?$AAr?$AAo?$AAj?$AAe?$AAc?$AAt@
  00038	68 00 00 00 00	 push	 OFFSET ??_C@_1BK@FMEHPMFE@?$AAm?$AAs?$AA_?$AAs?$AAi?$AAn?$AAg?$AAl?$AAe?$AAt?$AAo?$AAn@
  0003d	e8 00 00 00 00	 call	 __wassert
  00042	8b 0d 00 00 00
	00		 mov	 ecx, DWORD PTR ?ms_singleton@?$CSingleton@VCPythonNetworkStream@@@@0PAVCPythonNetworkStream@@A ; CSingleton<CPythonNetworkStream>::ms_singleton
  00048	83 c4 0c	 add	 esp, 12			; 0000000cH
$LN6@netGetBett:
; File C:\Anka2Project\Anka2Project\Source\Binary\source\UserInterface\PythonNetworkStreamModule.cpp

; 30   : 	return Py_BuildValue("i", rkNetStream.EXPORT_GetBettingGuildWarValue(szName));

  0004b	ff 75 fc	 push	 DWORD PTR _szName$[ebp]
  0004e	e8 00 00 00 00	 call	 ?EXPORT_GetBettingGuildWarValue@CPythonNetworkStream@@QAEKPBD@Z ; CPythonNetworkStream::EXPORT_GetBettingGuildWarValue
  00053	50		 push	 eax
  00054	68 00 00 00 00	 push	 OFFSET ??_C@_01KBJDNOO@i@
  00059	ff 15 00 00 00
	00		 call	 DWORD PTR __imp__Py_BuildValue
  0005f	83 c4 08	 add	 esp, 8

; 31   : }

  00062	8b e5		 mov	 esp, ebp
  00064	5d		 pop	 ebp
  00065	c3		 ret	 0
?netGetBettingGuildWarValue@@YAPAU_object@@PAU1@0@Z ENDP ; netGetBettingGuildWarValue
_TEXT	ENDS
; Function compile flags: /Ogtp
; File C:\Anka2Project\Anka2Project\Source\Binary\source\UserInterface\PythonNetworkStreamModule.cpp
; File C:\Program Files\Microsoft Visual Studio\2022\Community\VC\Tools\MSVC\14.44.35207\include\xstring
; File C:\Anka2Project\Anka2Project\Source\Binary\source\UserInterface\PythonNetworkStreamModule.cpp
;	COMDAT ?netGetServerInfo@@YAPAU_object@@PAU1@0@Z
_TEXT	SEGMENT
_poSelf$ = 8						; size = 4
_poArgs$ = 12						; size = 4
?netGetServerInfo@@YAPAU_object@@PAU1@0@Z PROC		; netGetServerInfo, COMDAT
; File C:\Program Files\Microsoft Visual Studio\2022\Community\VC\Tools\MSVC\14.44.35207\include\xstring

; 453  :         return _Myres > _Small_string_capacity;

  00000	83 3d 14 00 00
	00 0f		 cmp	 DWORD PTR ?gs_stServerInfo@@3V?$basic_string@DU?$char_traits@D@std@@V?$allocator@D@2@@std@@A+20, 15 ; 0000000fH

; 444  :         const value_type* _Result = _Bx._Buf;

  00007	b8 00 00 00 00	 mov	 eax, OFFSET ?gs_stServerInfo@@3V?$basic_string@DU?$char_traits@D@std@@V?$allocator@D@2@@std@@A

; 445  :         if (_Large_mode_engaged()) {

  0000c	0f 47 05 00 00
	00 00		 cmova	 eax, DWORD PTR ?gs_stServerInfo@@3V?$basic_string@DU?$char_traits@D@std@@V?$allocator@D@2@@std@@A
; File C:\Anka2Project\Anka2Project\Source\Binary\source\UserInterface\PythonNetworkStreamModule.cpp

; 45   : 	return Py_BuildValue("s", gs_stServerInfo.c_str());

  00013	50		 push	 eax
  00014	68 00 00 00 00	 push	 OFFSET ??_C@_01LKDEMHDF@s@
  00019	ff 15 00 00 00
	00		 call	 DWORD PTR __imp__Py_BuildValue
  0001f	83 c4 08	 add	 esp, 8

; 46   : }

  00022	c3		 ret	 0
?netGetServerInfo@@YAPAU_object@@PAU1@0@Z ENDP		; netGetServerInfo
_TEXT	ENDS
; Function compile flags: /Ogtp
; File C:\Anka2Project\Anka2Project\Source\Binary\source\UserInterface\PythonNetworkStreamModule.cpp
; File C:\Program Files\Microsoft Visual Studio\2022\Community\VC\Tools\MSVC\14.44.35207\include\list
; File C:\Anka2Project\Anka2Project\Source\Binary\source\UserInterface\PythonNetworkStreamModule.cpp
; File C:\Program Files\Microsoft Visual Studio\2022\Community\VC\Tools\MSVC\14.44.35207\include\list
; File C:\Anka2Project\Anka2Project\Source\Binary\source\UserInterface\PythonNetworkStreamModule.cpp
; File C:\Program Files\Microsoft Visual Studio\2022\Community\VC\Tools\MSVC\14.44.35207\include\list
; File C:\Anka2Project\Anka2Project\Source\Binary\source\UserInterface\PythonNetworkStreamModule.cpp
; File C:\Program Files\Microsoft Visual Studio\2022\Community\VC\Tools\MSVC\14.44.35207\include\list
; File C:\Program Files\Microsoft Visual Studio\2022\Community\VC\Tools\MSVC\14.44.35207\include\xstring
; File C:\Program Files\Microsoft Visual Studio\2022\Community\VC\Tools\MSVC\14.44.35207\include\xmemory
; File C:\Program Files\Microsoft Visual Studio\2022\Community\VC\Tools\MSVC\14.44.35207\include\xstring
; File C:\Anka2Project\Anka2Project\Source\Binary\source\UserInterface\PythonNetworkStreamModule.cpp
; File C:\Program Files\Microsoft Visual Studio\2022\Community\VC\Tools\MSVC\14.44.35207\include\xstring
; File C:\Anka2Project\Anka2Project\Source\Binary\source\UserInterface\PythonNetworkStreamModule.cpp
; File C:\Program Files\Microsoft Visual Studio\2022\Community\VC\Tools\MSVC\14.44.35207\include\xstring
; File C:\Anka2Project\Anka2Project\Source\Binary\source\UserInterface\PythonNetworkStreamModule.cpp
;	COMDAT ?netGetPreservedServerCommand@@YAPAU_object@@PAU1@0@Z
_TEXT	SEGMENT
_strCommand$ = -28					; size = 24
__$ArrayPad$ = -4					; size = 4
_poSelf$ = 8						; size = 4
_poArgs$ = 12						; size = 4
?netGetPreservedServerCommand@@YAPAU_object@@PAU1@0@Z PROC ; netGetPreservedServerCommand, COMDAT

; 60   : {

  00000	55		 push	 ebp
  00001	8b ec		 mov	 ebp, esp
  00003	83 e4 f8	 and	 esp, -8			; fffffff8H
  00006	83 ec 1c	 sub	 esp, 28			; 0000001cH
  00009	a1 00 00 00 00	 mov	 eax, DWORD PTR ___security_cookie
  0000e	33 c4		 xor	 eax, esp
  00010	89 44 24 18	 mov	 DWORD PTR __$ArrayPad$[esp+28], eax
; File C:\Program Files\Microsoft Visual Studio\2022\Community\VC\Tools\MSVC\14.44.35207\include\list

; 1213 :         return _Mypair._Myval2._Mysize == 0;

  00014	83 3d 04 00 00
	00 00		 cmp	 DWORD PTR ?g_kList_strCommand@@3V?$list@V?$basic_string@DU?$char_traits@D@std@@V?$allocator@D@2@@std@@V?$allocator@V?$basic_string@DU?$char_traits@D@std@@V?$allocator@D@2@@std@@@2@@std@@A+4, 0
; File C:\Anka2Project\Anka2Project\Source\Binary\source\UserInterface\PythonNetworkStreamModule.cpp

; 60   : {

  0001b	56		 push	 esi

; 61   : 	if (g_kList_strCommand.empty())

  0001c	75 23		 jne	 SHORT $LN2@netGetPres

; 62   : 		return Py_BuildValue("s", "");

  0001e	68 00 00 00 00	 push	 OFFSET ??_C@_00CNPNBAHC@@
  00023	68 00 00 00 00	 push	 OFFSET ??_C@_01LKDEMHDF@s@
  00028	ff 15 00 00 00
	00		 call	 DWORD PTR __imp__Py_BuildValue
  0002e	83 c4 08	 add	 esp, 8

; 68   : }

  00031	5e		 pop	 esi
  00032	8b 4c 24 18	 mov	 ecx, DWORD PTR __$ArrayPad$[esp+28]
  00036	33 cc		 xor	 ecx, esp
  00038	e8 00 00 00 00	 call	 @__security_check_cookie@4
  0003d	8b e5		 mov	 esp, ebp
  0003f	5d		 pop	 ebp
  00040	c3		 ret	 0
$LN2@netGetPres:
; File C:\Program Files\Microsoft Visual Studio\2022\Community\VC\Tools\MSVC\14.44.35207\include\list

; 1225 :         return _Mypair._Myval2._Myhead->_Next->_Myval;

  00041	a1 00 00 00 00	 mov	 eax, DWORD PTR ?g_kList_strCommand@@3V?$list@V?$basic_string@DU?$char_traits@D@std@@V?$allocator@D@2@@std@@V?$allocator@V?$basic_string@DU?$char_traits@D@std@@V?$allocator@D@2@@std@@@2@@std@@A
; File C:\Anka2Project\Anka2Project\Source\Binary\source\UserInterface\PythonNetworkStreamModule.cpp

; 64   : 	std::string strCommand = g_kList_strCommand.front();

  00046	8d 4c 24 04	 lea	 ecx, DWORD PTR _strCommand$[esp+32]
; File C:\Program Files\Microsoft Visual Studio\2022\Community\VC\Tools\MSVC\14.44.35207\include\list

; 1225 :         return _Mypair._Myval2._Myhead->_Next->_Myval;

  0004a	8b 00		 mov	 eax, DWORD PTR [eax]
  0004c	83 c0 08	 add	 eax, 8
; File C:\Anka2Project\Anka2Project\Source\Binary\source\UserInterface\PythonNetworkStreamModule.cpp

; 64   : 	std::string strCommand = g_kList_strCommand.front();

  0004f	50		 push	 eax
  00050	e8 00 00 00 00	 call	 ??0?$basic_string@DU?$char_traits@D@std@@V?$allocator@D@2@@std@@QAE@ABV01@@Z ; std::basic_string<char,std::char_traits<char>,std::allocator<char> >::basic_string<char,std::char_traits<char>,std::allocator<char> >
; File C:\Program Files\Microsoft Visual Studio\2022\Community\VC\Tools\MSVC\14.44.35207\include\list

; 1270 :         _Unchecked_erase(_Mypair._Myval2._Myhead->_Next);

  00055	a1 00 00 00 00	 mov	 eax, DWORD PTR ?g_kList_strCommand@@3V?$list@V?$basic_string@DU?$char_traits@D@std@@V?$allocator@D@2@@std@@V?$allocator@V?$basic_string@DU?$char_traits@D@std@@V?$allocator@D@2@@std@@@2@@std@@A
  0005a	8b 30		 mov	 esi, DWORD PTR [eax]

; 1438 :         const auto _Result = _Pnode->_Next;

  0005c	8b 0e		 mov	 ecx, DWORD PTR [esi]

; 1439 :         _Mypair._Myval2._Orphan_ptr2(_Pnode);
; 1440 :         --_Mypair._Myval2._Mysize;

  0005e	ff 0d 04 00 00
	00		 dec	 DWORD PTR ?g_kList_strCommand@@3V?$list@V?$basic_string@DU?$char_traits@D@std@@V?$allocator@D@2@@std@@V?$allocator@V?$basic_string@DU?$char_traits@D@std@@V?$allocator@D@2@@std@@@2@@std@@A+4

; 1441 :         _Pnode->_Prev->_Next = _Result;

  00064	8b 46 04	 mov	 eax, DWORD PTR [esi+4]
  00067	89 08		 mov	 DWORD PTR [eax], ecx

; 1442 :         _Result->_Prev       = _Pnode->_Prev;

  00069	8b 46 04	 mov	 eax, DWORD PTR [esi+4]
  0006c	89 41 04	 mov	 DWORD PTR [ecx+4], eax

; 317  :         allocator_traits<_Alnode>::destroy(_Al, _STD addressof(_Ptr->_Myval));

  0006f	8d 4e 08	 lea	 ecx, DWORD PTR [esi+8]
; File C:\Program Files\Microsoft Visual Studio\2022\Community\VC\Tools\MSVC\14.44.35207\include\xstring

; 1383 :         _Tidy_deallocate();

  00072	e8 00 00 00 00	 call	 ?_Tidy_deallocate@?$basic_string@DU?$char_traits@D@std@@V?$allocator@D@2@@std@@AAEXXZ ; std::basic_string<char,std::char_traits<char>,std::allocator<char> >::_Tidy_deallocate
; File C:\Program Files\Microsoft Visual Studio\2022\Community\VC\Tools\MSVC\14.44.35207\include\xmemory

; 289  :         ::operator delete(_Ptr, _Bytes);

  00077	6a 20		 push	 32			; 00000020H
  00079	56		 push	 esi
  0007a	e8 00 00 00 00	 call	 ??3@YAXPAXI@Z		; operator delete
; File C:\Program Files\Microsoft Visual Studio\2022\Community\VC\Tools\MSVC\14.44.35207\include\xstring

; 453  :         return _Myres > _Small_string_capacity;

  0007f	83 7c 24 20 0f	 cmp	 DWORD PTR _strCommand$[esp+60], 15 ; 0000000fH

; 444  :         const value_type* _Result = _Bx._Buf;

  00084	8d 44 24 0c	 lea	 eax, DWORD PTR _strCommand$[esp+40]

; 445  :         if (_Large_mode_engaged()) {

  00088	0f 47 44 24 0c	 cmova	 eax, DWORD PTR _strCommand$[esp+40]
; File C:\Anka2Project\Anka2Project\Source\Binary\source\UserInterface\PythonNetworkStreamModule.cpp

; 67   : 	return Py_BuildValue("s", strCommand.c_str());

  0008d	50		 push	 eax
  0008e	68 00 00 00 00	 push	 OFFSET ??_C@_01LKDEMHDF@s@
  00093	ff 15 00 00 00
	00		 call	 DWORD PTR __imp__Py_BuildValue
  00099	83 c4 10	 add	 esp, 16			; 00000010H
; File C:\Program Files\Microsoft Visual Studio\2022\Community\VC\Tools\MSVC\14.44.35207\include\xstring

; 1383 :         _Tidy_deallocate();

  0009c	8d 4c 24 04	 lea	 ecx, DWORD PTR _strCommand$[esp+32]
; File C:\Anka2Project\Anka2Project\Source\Binary\source\UserInterface\PythonNetworkStreamModule.cpp

; 67   : 	return Py_BuildValue("s", strCommand.c_str());

  000a0	8b f0		 mov	 esi, eax
; File C:\Program Files\Microsoft Visual Studio\2022\Community\VC\Tools\MSVC\14.44.35207\include\xstring

; 1383 :         _Tidy_deallocate();

  000a2	e8 00 00 00 00	 call	 ?_Tidy_deallocate@?$basic_string@DU?$char_traits@D@std@@V?$allocator@D@2@@std@@AAEXXZ ; std::basic_string<char,std::char_traits<char>,std::allocator<char> >::_Tidy_deallocate
; File C:\Anka2Project\Anka2Project\Source\Binary\source\UserInterface\PythonNetworkStreamModule.cpp

; 68   : }

  000a7	8b 4c 24 1c	 mov	 ecx, DWORD PTR __$ArrayPad$[esp+32]
  000ab	8b c6		 mov	 eax, esi
  000ad	5e		 pop	 esi
  000ae	33 cc		 xor	 ecx, esp
  000b0	e8 00 00 00 00	 call	 @__security_check_cookie@4
  000b5	8b e5		 mov	 esp, ebp
  000b7	5d		 pop	 ebp
  000b8	c3		 ret	 0
?netGetPreservedServerCommand@@YAPAU_object@@PAU1@0@Z ENDP ; netGetPreservedServerCommand
_TEXT	ENDS
; Function compile flags: /Ogtp
; File C:\Anka2Project\Anka2Project\Source\Binary\source\UserInterface\PythonNetworkStreamModule.cpp
; File C:\Anka2Project\Anka2Project\Source\Binary\source\eterBase\Singleton.h
; File C:\Anka2Project\Anka2Project\Source\Binary\source\UserInterface\PythonNetworkStreamModule.cpp
;	COMDAT ?netLoadInsultList@@YAPAU_object@@PAU1@0@Z
_TEXT	SEGMENT
_szFileName$ = -4					; size = 4
_poSelf$ = 8						; size = 4
_poArgs$ = 12						; size = 4
?netLoadInsultList@@YAPAU_object@@PAU1@0@Z PROC		; netLoadInsultList, COMDAT

; 95   : {

  00000	55		 push	 ebp
  00001	8b ec		 mov	 ebp, esp
  00003	83 ec 08	 sub	 esp, 8

; 96   : 	char *szFileName;
; 97   : 	if (!PyTuple_GetString(poArgs, 0, &szFileName))

  00006	8d 45 fc	 lea	 eax, DWORD PTR _szFileName$[ebp]
  00009	50		 push	 eax
  0000a	6a 00		 push	 0
  0000c	ff 75 0c	 push	 DWORD PTR _poArgs$[ebp]
  0000f	e8 00 00 00 00	 call	 ?PyTuple_GetString@@YA_NPAU_object@@HPAPAD@Z ; PyTuple_GetString
  00014	83 c4 0c	 add	 esp, 12			; 0000000cH
  00017	84 c0		 test	 al, al
  00019	75 0e		 jne	 SHORT $LN2@netLoadIns

; 98   : 		return Py_BuildException();

  0001b	6a 00		 push	 0
  0001d	e8 00 00 00 00	 call	 ?Py_BuildException@@YAPAU_object@@PBDZZ ; Py_BuildException
  00022	83 c4 04	 add	 esp, 4

; 102  : }

  00025	8b e5		 mov	 esp, ebp
  00027	5d		 pop	 ebp
  00028	c3		 ret	 0
$LN2@netLoadIns:
; File C:\Anka2Project\Anka2Project\Source\Binary\source\eterBase\Singleton.h

; 26   : 		assert(ms_singleton);

  00029	8b 0d 00 00 00
	00		 mov	 ecx, DWORD PTR ?ms_singleton@?$CSingleton@VCPythonNetworkStream@@@@0PAVCPythonNetworkStream@@A ; CSingleton<CPythonNetworkStream>::ms_singleton
  0002f	85 c9		 test	 ecx, ecx
  00031	75 1a		 jne	 SHORT $LN6@netLoadIns
  00033	6a 1a		 push	 26			; 0000001aH
  00035	68 00 00 00 00	 push	 OFFSET ??_C@_1IO@CAJLEEOI@?$AAC?$AA?3?$AA?2?$AAA?$AAn?$AAk?$AAa?$AA2?$AAP?$AAr?$AAo?$AAj?$AAe?$AAc?$AAt@
  0003a	68 00 00 00 00	 push	 OFFSET ??_C@_1BK@FMEHPMFE@?$AAm?$AAs?$AA_?$AAs?$AAi?$AAn?$AAg?$AAl?$AAe?$AAt?$AAo?$AAn@
  0003f	e8 00 00 00 00	 call	 __wassert
  00044	8b 0d 00 00 00
	00		 mov	 ecx, DWORD PTR ?ms_singleton@?$CSingleton@VCPythonNetworkStream@@@@0PAVCPythonNetworkStream@@A ; CSingleton<CPythonNetworkStream>::ms_singleton
  0004a	83 c4 0c	 add	 esp, 12			; 0000000cH
$LN6@netLoadIns:
; File C:\Anka2Project\Anka2Project\Source\Binary\source\UserInterface\PythonNetworkStreamModule.cpp

; 101  : 	return Py_BuildValue("i", rkNetStream.LoadInsultList(szFileName));

  0004d	ff 75 fc	 push	 DWORD PTR _szFileName$[ebp]
  00050	e8 00 00 00 00	 call	 ?LoadInsultList@CPythonNetworkStream@@QAE_NPBD@Z ; CPythonNetworkStream::LoadInsultList
  00055	0f b6 c0	 movzx	 eax, al
  00058	50		 push	 eax
  00059	68 00 00 00 00	 push	 OFFSET ??_C@_01KBJDNOO@i@
  0005e	ff 15 00 00 00
	00		 call	 DWORD PTR __imp__Py_BuildValue
  00064	83 c4 08	 add	 esp, 8

; 102  : }

  00067	8b e5		 mov	 esp, ebp
  00069	5d		 pop	 ebp
  0006a	c3		 ret	 0
?netLoadInsultList@@YAPAU_object@@PAU1@0@Z ENDP		; netLoadInsultList
_TEXT	ENDS
; Function compile flags: /Ogtp
; File C:\Anka2Project\Anka2Project\Source\Binary\source\UserInterface\PythonNetworkStreamModule.cpp
; File C:\Anka2Project\Anka2Project\Source\Binary\source\eterBase\Singleton.h
; File C:\Anka2Project\Anka2Project\Source\Binary\source\UserInterface\PythonNetworkStreamModule.cpp
;	COMDAT ?netUploadMark@@YAPAU_object@@PAU1@0@Z
_TEXT	SEGMENT
_szFileName$ = -4					; size = 4
_poSelf$ = 8						; size = 4
_poArgs$ = 12						; size = 4
?netUploadMark@@YAPAU_object@@PAU1@0@Z PROC		; netUploadMark, COMDAT

; 105  : {

  00000	55		 push	 ebp
  00001	8b ec		 mov	 ebp, esp
  00003	83 ec 08	 sub	 esp, 8

; 106  : 	char *szFileName;
; 107  : 	if (!PyTuple_GetString(poArgs, 0, &szFileName))

  00006	8d 45 fc	 lea	 eax, DWORD PTR _szFileName$[ebp]
  00009	50		 push	 eax
  0000a	6a 00		 push	 0
  0000c	ff 75 0c	 push	 DWORD PTR _poArgs$[ebp]
  0000f	e8 00 00 00 00	 call	 ?PyTuple_GetString@@YA_NPAU_object@@HPAPAD@Z ; PyTuple_GetString
  00014	83 c4 0c	 add	 esp, 12			; 0000000cH
  00017	84 c0		 test	 al, al
  00019	75 0e		 jne	 SHORT $LN2@netUploadM

; 108  : 		return Py_BuildException();

  0001b	6a 00		 push	 0
  0001d	e8 00 00 00 00	 call	 ?Py_BuildException@@YAPAU_object@@PBDZZ ; Py_BuildException
  00022	83 c4 04	 add	 esp, 4

; 112  : }

  00025	8b e5		 mov	 esp, ebp
  00027	5d		 pop	 ebp
  00028	c3		 ret	 0
$LN2@netUploadM:
; File C:\Anka2Project\Anka2Project\Source\Binary\source\eterBase\Singleton.h

; 26   : 		assert(ms_singleton);

  00029	8b 0d 00 00 00
	00		 mov	 ecx, DWORD PTR ?ms_singleton@?$CSingleton@VCPythonNetworkStream@@@@0PAVCPythonNetworkStream@@A ; CSingleton<CPythonNetworkStream>::ms_singleton
  0002f	85 c9		 test	 ecx, ecx
  00031	75 1a		 jne	 SHORT $LN6@netUploadM
  00033	6a 1a		 push	 26			; 0000001aH
  00035	68 00 00 00 00	 push	 OFFSET ??_C@_1IO@CAJLEEOI@?$AAC?$AA?3?$AA?2?$AAA?$AAn?$AAk?$AAa?$AA2?$AAP?$AAr?$AAo?$AAj?$AAe?$AAc?$AAt@
  0003a	68 00 00 00 00	 push	 OFFSET ??_C@_1BK@FMEHPMFE@?$AAm?$AAs?$AA_?$AAs?$AAi?$AAn?$AAg?$AAl?$AAe?$AAt?$AAo?$AAn@
  0003f	e8 00 00 00 00	 call	 __wassert
  00044	8b 0d 00 00 00
	00		 mov	 ecx, DWORD PTR ?ms_singleton@?$CSingleton@VCPythonNetworkStream@@@@0PAVCPythonNetworkStream@@A ; CSingleton<CPythonNetworkStream>::ms_singleton
  0004a	83 c4 0c	 add	 esp, 12			; 0000000cH
$LN6@netUploadM:
; File C:\Anka2Project\Anka2Project\Source\Binary\source\UserInterface\PythonNetworkStreamModule.cpp

; 111  : 	return Py_BuildValue("i", rkNetStream.UploadMark(szFileName));

  0004d	ff 75 fc	 push	 DWORD PTR _szFileName$[ebp]
  00050	e8 00 00 00 00	 call	 ?UploadMark@CPythonNetworkStream@@QAEIPBD@Z ; CPythonNetworkStream::UploadMark
  00055	50		 push	 eax
  00056	68 00 00 00 00	 push	 OFFSET ??_C@_01KBJDNOO@i@
  0005b	ff 15 00 00 00
	00		 call	 DWORD PTR __imp__Py_BuildValue
  00061	83 c4 08	 add	 esp, 8

; 112  : }

  00064	8b e5		 mov	 esp, ebp
  00066	5d		 pop	 ebp
  00067	c3		 ret	 0
?netUploadMark@@YAPAU_object@@PAU1@0@Z ENDP		; netUploadMark
_TEXT	ENDS
; Function compile flags: /Ogtp
; File C:\Anka2Project\Anka2Project\Source\Binary\source\UserInterface\PythonNetworkStreamModule.cpp
; File C:\Anka2Project\Anka2Project\Source\Binary\source\eterBase\Singleton.h
; File C:\Anka2Project\Anka2Project\Source\Binary\source\UserInterface\PythonNetworkStreamModule.cpp
;	COMDAT ?netUploadSymbol@@YAPAU_object@@PAU1@0@Z
_TEXT	SEGMENT
_szFileName$ = -4					; size = 4
_poSelf$ = 8						; size = 4
_poArgs$ = 12						; size = 4
?netUploadSymbol@@YAPAU_object@@PAU1@0@Z PROC		; netUploadSymbol, COMDAT

; 115  : {

  00000	55		 push	 ebp
  00001	8b ec		 mov	 ebp, esp
  00003	83 ec 08	 sub	 esp, 8

; 116  : 	char *szFileName;
; 117  : 	if (!PyTuple_GetString(poArgs, 0, &szFileName))

  00006	8d 45 fc	 lea	 eax, DWORD PTR _szFileName$[ebp]
  00009	50		 push	 eax
  0000a	6a 00		 push	 0
  0000c	ff 75 0c	 push	 DWORD PTR _poArgs$[ebp]
  0000f	e8 00 00 00 00	 call	 ?PyTuple_GetString@@YA_NPAU_object@@HPAPAD@Z ; PyTuple_GetString
  00014	83 c4 0c	 add	 esp, 12			; 0000000cH
  00017	84 c0		 test	 al, al
  00019	75 0e		 jne	 SHORT $LN2@netUploadS

; 118  : 		return Py_BuildException();

  0001b	6a 00		 push	 0
  0001d	e8 00 00 00 00	 call	 ?Py_BuildException@@YAPAU_object@@PBDZZ ; Py_BuildException
  00022	83 c4 04	 add	 esp, 4

; 122  : }

  00025	8b e5		 mov	 esp, ebp
  00027	5d		 pop	 ebp
  00028	c3		 ret	 0
$LN2@netUploadS:
; File C:\Anka2Project\Anka2Project\Source\Binary\source\eterBase\Singleton.h

; 26   : 		assert(ms_singleton);

  00029	8b 0d 00 00 00
	00		 mov	 ecx, DWORD PTR ?ms_singleton@?$CSingleton@VCPythonNetworkStream@@@@0PAVCPythonNetworkStream@@A ; CSingleton<CPythonNetworkStream>::ms_singleton
  0002f	85 c9		 test	 ecx, ecx
  00031	75 1a		 jne	 SHORT $LN6@netUploadS
  00033	6a 1a		 push	 26			; 0000001aH
  00035	68 00 00 00 00	 push	 OFFSET ??_C@_1IO@CAJLEEOI@?$AAC?$AA?3?$AA?2?$AAA?$AAn?$AAk?$AAa?$AA2?$AAP?$AAr?$AAo?$AAj?$AAe?$AAc?$AAt@
  0003a	68 00 00 00 00	 push	 OFFSET ??_C@_1BK@FMEHPMFE@?$AAm?$AAs?$AA_?$AAs?$AAi?$AAn?$AAg?$AAl?$AAe?$AAt?$AAo?$AAn@
  0003f	e8 00 00 00 00	 call	 __wassert
  00044	8b 0d 00 00 00
	00		 mov	 ecx, DWORD PTR ?ms_singleton@?$CSingleton@VCPythonNetworkStream@@@@0PAVCPythonNetworkStream@@A ; CSingleton<CPythonNetworkStream>::ms_singleton
  0004a	83 c4 0c	 add	 esp, 12			; 0000000cH
$LN6@netUploadS:
; File C:\Anka2Project\Anka2Project\Source\Binary\source\UserInterface\PythonNetworkStreamModule.cpp

; 121  : 	return Py_BuildValue("i", rkNetStream.UploadSymbol(szFileName));

  0004d	ff 75 fc	 push	 DWORD PTR _szFileName$[ebp]
  00050	e8 00 00 00 00	 call	 ?UploadSymbol@CPythonNetworkStream@@QAEIPBD@Z ; CPythonNetworkStream::UploadSymbol
  00055	50		 push	 eax
  00056	68 00 00 00 00	 push	 OFFSET ??_C@_01KBJDNOO@i@
  0005b	ff 15 00 00 00
	00		 call	 DWORD PTR __imp__Py_BuildValue
  00061	83 c4 08	 add	 esp, 8

; 122  : }

  00064	8b e5		 mov	 esp, ebp
  00066	5d		 pop	 ebp
  00067	c3		 ret	 0
?netUploadSymbol@@YAPAU_object@@PAU1@0@Z ENDP		; netUploadSymbol
_TEXT	ENDS
; Function compile flags: /Ogtp
; File C:\Anka2Project\Anka2Project\Source\Binary\source\UserInterface\PythonNetworkStreamModule.cpp
; File C:\Anka2Project\Anka2Project\Source\Binary\source\eterBase\Singleton.h
; File C:\Anka2Project\Anka2Project\Source\Binary\source\UserInterface\PythonNetworkStreamModule.cpp
;	COMDAT ?netGetGuildID@@YAPAU_object@@PAU1@0@Z
_TEXT	SEGMENT
_poSelf$ = 8						; size = 4
_poArgs$ = 12						; size = 4
?netGetGuildID@@YAPAU_object@@PAU1@0@Z PROC		; netGetGuildID, COMDAT
; File C:\Anka2Project\Anka2Project\Source\Binary\source\eterBase\Singleton.h

; 26   : 		assert(ms_singleton);

  00000	8b 0d 00 00 00
	00		 mov	 ecx, DWORD PTR ?ms_singleton@?$CSingleton@VCPythonNetworkStream@@@@0PAVCPythonNetworkStream@@A ; CSingleton<CPythonNetworkStream>::ms_singleton
  00006	85 c9		 test	 ecx, ecx
  00008	75 1a		 jne	 SHORT $LN5@netGetGuil
  0000a	6a 1a		 push	 26			; 0000001aH
  0000c	68 00 00 00 00	 push	 OFFSET ??_C@_1IO@CAJLEEOI@?$AAC?$AA?3?$AA?2?$AAA?$AAn?$AAk?$AAa?$AA2?$AAP?$AAr?$AAo?$AAj?$AAe?$AAc?$AAt@
  00011	68 00 00 00 00	 push	 OFFSET ??_C@_1BK@FMEHPMFE@?$AAm?$AAs?$AA_?$AAs?$AAi?$AAn?$AAg?$AAl?$AAe?$AAt?$AAo?$AAn@
  00016	e8 00 00 00 00	 call	 __wassert
  0001b	8b 0d 00 00 00
	00		 mov	 ecx, DWORD PTR ?ms_singleton@?$CSingleton@VCPythonNetworkStream@@@@0PAVCPythonNetworkStream@@A ; CSingleton<CPythonNetworkStream>::ms_singleton
  00021	83 c4 0c	 add	 esp, 12			; 0000000cH
$LN5@netGetGuil:
; File C:\Anka2Project\Anka2Project\Source\Binary\source\UserInterface\PythonNetworkStreamModule.cpp

; 127  : 	return Py_BuildValue("i", rkNetStream.GetGuildID());

  00024	e8 00 00 00 00	 call	 ?GetGuildID@CPythonNetworkStream@@QAEKXZ ; CPythonNetworkStream::GetGuildID
  00029	50		 push	 eax
  0002a	68 00 00 00 00	 push	 OFFSET ??_C@_01KBJDNOO@i@
  0002f	ff 15 00 00 00
	00		 call	 DWORD PTR __imp__Py_BuildValue
  00035	83 c4 08	 add	 esp, 8

; 128  : }

  00038	c3		 ret	 0
?netGetGuildID@@YAPAU_object@@PAU1@0@Z ENDP		; netGetGuildID
_TEXT	ENDS
; Function compile flags: /Ogtp
; File C:\Anka2Project\Anka2Project\Source\Binary\source\UserInterface\PythonNetworkStreamModule.cpp
; File C:\Anka2Project\Anka2Project\Source\Binary\source\eterBase\Singleton.h
; File C:\Anka2Project\Anka2Project\Source\Binary\source\UserInterface\PythonNetworkStreamModule.cpp
;	COMDAT ?netGetEmpireID@@YAPAU_object@@PAU1@0@Z
_TEXT	SEGMENT
_poSelf$ = 8						; size = 4
_poArgs$ = 12						; size = 4
?netGetEmpireID@@YAPAU_object@@PAU1@0@Z PROC		; netGetEmpireID, COMDAT
; File C:\Anka2Project\Anka2Project\Source\Binary\source\eterBase\Singleton.h

; 26   : 		assert(ms_singleton);

  00000	8b 0d 00 00 00
	00		 mov	 ecx, DWORD PTR ?ms_singleton@?$CSingleton@VCPythonNetworkStream@@@@0PAVCPythonNetworkStream@@A ; CSingleton<CPythonNetworkStream>::ms_singleton
  00006	85 c9		 test	 ecx, ecx
  00008	75 1a		 jne	 SHORT $LN5@netGetEmpi
  0000a	6a 1a		 push	 26			; 0000001aH
  0000c	68 00 00 00 00	 push	 OFFSET ??_C@_1IO@CAJLEEOI@?$AAC?$AA?3?$AA?2?$AAA?$AAn?$AAk?$AAa?$AA2?$AAP?$AAr?$AAo?$AAj?$AAe?$AAc?$AAt@
  00011	68 00 00 00 00	 push	 OFFSET ??_C@_1BK@FMEHPMFE@?$AAm?$AAs?$AA_?$AAs?$AAi?$AAn?$AAg?$AAl?$AAe?$AAt?$AAo?$AAn@
  00016	e8 00 00 00 00	 call	 __wassert
  0001b	8b 0d 00 00 00
	00		 mov	 ecx, DWORD PTR ?ms_singleton@?$CSingleton@VCPythonNetworkStream@@@@0PAVCPythonNetworkStream@@A ; CSingleton<CPythonNetworkStream>::ms_singleton
  00021	83 c4 0c	 add	 esp, 12			; 0000000cH
$LN5@netGetEmpi:
; File C:\Anka2Project\Anka2Project\Source\Binary\source\UserInterface\PythonNetworkStreamModule.cpp

; 133  : 	return Py_BuildValue("i", rkNetStream.GetEmpireID());

  00024	e8 00 00 00 00	 call	 ?GetEmpireID@CPythonNetworkStream@@QAEKXZ ; CPythonNetworkStream::GetEmpireID
  00029	50		 push	 eax
  0002a	68 00 00 00 00	 push	 OFFSET ??_C@_01KBJDNOO@i@
  0002f	ff 15 00 00 00
	00		 call	 DWORD PTR __imp__Py_BuildValue
  00035	83 c4 08	 add	 esp, 8

; 134  : }

  00038	c3		 ret	 0
?netGetEmpireID@@YAPAU_object@@PAU1@0@Z ENDP		; netGetEmpireID
_TEXT	ENDS
; Function compile flags: /Ogtp
; File C:\Anka2Project\Anka2Project\Source\Binary\source\UserInterface\PythonNetworkStreamModule.cpp
; File C:\Anka2Project\Anka2Project\Source\Binary\source\eterBase\Singleton.h
; File C:\Anka2Project\Anka2Project\Source\Binary\source\UserInterface\PythonNetworkStreamModule.cpp
;	COMDAT ?netGetMainActorVID@@YAPAU_object@@PAU1@0@Z
_TEXT	SEGMENT
_poSelf$ = 8						; size = 4
_poArgs$ = 12						; size = 4
?netGetMainActorVID@@YAPAU_object@@PAU1@0@Z PROC	; netGetMainActorVID, COMDAT
; File C:\Anka2Project\Anka2Project\Source\Binary\source\eterBase\Singleton.h

; 26   : 		assert(ms_singleton);

  00000	8b 0d 00 00 00
	00		 mov	 ecx, DWORD PTR ?ms_singleton@?$CSingleton@VCPythonNetworkStream@@@@0PAVCPythonNetworkStream@@A ; CSingleton<CPythonNetworkStream>::ms_singleton
  00006	85 c9		 test	 ecx, ecx
  00008	75 1a		 jne	 SHORT $LN5@netGetMain
  0000a	6a 1a		 push	 26			; 0000001aH
  0000c	68 00 00 00 00	 push	 OFFSET ??_C@_1IO@CAJLEEOI@?$AAC?$AA?3?$AA?2?$AAA?$AAn?$AAk?$AAa?$AA2?$AAP?$AAr?$AAo?$AAj?$AAe?$AAc?$AAt@
  00011	68 00 00 00 00	 push	 OFFSET ??_C@_1BK@FMEHPMFE@?$AAm?$AAs?$AA_?$AAs?$AAi?$AAn?$AAg?$AAl?$AAe?$AAt?$AAo?$AAn@
  00016	e8 00 00 00 00	 call	 __wassert
  0001b	8b 0d 00 00 00
	00		 mov	 ecx, DWORD PTR ?ms_singleton@?$CSingleton@VCPythonNetworkStream@@@@0PAVCPythonNetworkStream@@A ; CSingleton<CPythonNetworkStream>::ms_singleton
  00021	83 c4 0c	 add	 esp, 12			; 0000000cH
$LN5@netGetMain:
; File C:\Anka2Project\Anka2Project\Source\Binary\source\UserInterface\PythonNetworkStreamModule.cpp

; 139  : 	return Py_BuildValue("i", rkNetStream.GetMainActorVID());

  00024	e8 00 00 00 00	 call	 ?GetMainActorVID@CPythonNetworkStream@@QAEKXZ ; CPythonNetworkStream::GetMainActorVID
  00029	50		 push	 eax
  0002a	68 00 00 00 00	 push	 OFFSET ??_C@_01KBJDNOO@i@
  0002f	ff 15 00 00 00
	00		 call	 DWORD PTR __imp__Py_BuildValue
  00035	83 c4 08	 add	 esp, 8

; 140  : }

  00038	c3		 ret	 0
?netGetMainActorVID@@YAPAU_object@@PAU1@0@Z ENDP	; netGetMainActorVID
_TEXT	ENDS
; Function compile flags: /Ogtp
; File C:\Anka2Project\Anka2Project\Source\Binary\source\UserInterface\PythonNetworkStreamModule.cpp
; File C:\Anka2Project\Anka2Project\Source\Binary\source\eterBase\Singleton.h
; File C:\Anka2Project\Anka2Project\Source\Binary\source\UserInterface\PythonNetworkStreamModule.cpp
;	COMDAT ?netGetMainActorRace@@YAPAU_object@@PAU1@0@Z
_TEXT	SEGMENT
_poSelf$ = 8						; size = 4
_poArgs$ = 12						; size = 4
?netGetMainActorRace@@YAPAU_object@@PAU1@0@Z PROC	; netGetMainActorRace, COMDAT
; File C:\Anka2Project\Anka2Project\Source\Binary\source\eterBase\Singleton.h

; 26   : 		assert(ms_singleton);

  00000	8b 0d 00 00 00
	00		 mov	 ecx, DWORD PTR ?ms_singleton@?$CSingleton@VCPythonNetworkStream@@@@0PAVCPythonNetworkStream@@A ; CSingleton<CPythonNetworkStream>::ms_singleton
  00006	85 c9		 test	 ecx, ecx
  00008	75 1a		 jne	 SHORT $LN5@netGetMain
  0000a	6a 1a		 push	 26			; 0000001aH
  0000c	68 00 00 00 00	 push	 OFFSET ??_C@_1IO@CAJLEEOI@?$AAC?$AA?3?$AA?2?$AAA?$AAn?$AAk?$AAa?$AA2?$AAP?$AAr?$AAo?$AAj?$AAe?$AAc?$AAt@
  00011	68 00 00 00 00	 push	 OFFSET ??_C@_1BK@FMEHPMFE@?$AAm?$AAs?$AA_?$AAs?$AAi?$AAn?$AAg?$AAl?$AAe?$AAt?$AAo?$AAn@
  00016	e8 00 00 00 00	 call	 __wassert
  0001b	8b 0d 00 00 00
	00		 mov	 ecx, DWORD PTR ?ms_singleton@?$CSingleton@VCPythonNetworkStream@@@@0PAVCPythonNetworkStream@@A ; CSingleton<CPythonNetworkStream>::ms_singleton
  00021	83 c4 0c	 add	 esp, 12			; 0000000cH
$LN5@netGetMain:
; File C:\Anka2Project\Anka2Project\Source\Binary\source\UserInterface\PythonNetworkStreamModule.cpp

; 145  : 	return Py_BuildValue("i", rkNetStream.GetMainActorRace());

  00024	e8 00 00 00 00	 call	 ?GetMainActorRace@CPythonNetworkStream@@QAEKXZ ; CPythonNetworkStream::GetMainActorRace
  00029	50		 push	 eax
  0002a	68 00 00 00 00	 push	 OFFSET ??_C@_01KBJDNOO@i@
  0002f	ff 15 00 00 00
	00		 call	 DWORD PTR __imp__Py_BuildValue
  00035	83 c4 08	 add	 esp, 8

; 146  : }

  00038	c3		 ret	 0
?netGetMainActorRace@@YAPAU_object@@PAU1@0@Z ENDP	; netGetMainActorRace
_TEXT	ENDS
; Function compile flags: /Ogtp
; File C:\Anka2Project\Anka2Project\Source\Binary\source\UserInterface\PythonNetworkStreamModule.cpp
; File C:\Anka2Project\Anka2Project\Source\Binary\source\eterBase\Singleton.h
; File C:\Anka2Project\Anka2Project\Source\Binary\source\UserInterface\PythonNetworkStreamModule.cpp
;	COMDAT ?netGetMainActorEmpire@@YAPAU_object@@PAU1@0@Z
_TEXT	SEGMENT
_poSelf$ = 8						; size = 4
_poArgs$ = 12						; size = 4
?netGetMainActorEmpire@@YAPAU_object@@PAU1@0@Z PROC	; netGetMainActorEmpire, COMDAT
; File C:\Anka2Project\Anka2Project\Source\Binary\source\eterBase\Singleton.h

; 26   : 		assert(ms_singleton);

  00000	8b 0d 00 00 00
	00		 mov	 ecx, DWORD PTR ?ms_singleton@?$CSingleton@VCPythonNetworkStream@@@@0PAVCPythonNetworkStream@@A ; CSingleton<CPythonNetworkStream>::ms_singleton
  00006	85 c9		 test	 ecx, ecx
  00008	75 1a		 jne	 SHORT $LN5@netGetMain
  0000a	6a 1a		 push	 26			; 0000001aH
  0000c	68 00 00 00 00	 push	 OFFSET ??_C@_1IO@CAJLEEOI@?$AAC?$AA?3?$AA?2?$AAA?$AAn?$AAk?$AAa?$AA2?$AAP?$AAr?$AAo?$AAj?$AAe?$AAc?$AAt@
  00011	68 00 00 00 00	 push	 OFFSET ??_C@_1BK@FMEHPMFE@?$AAm?$AAs?$AA_?$AAs?$AAi?$AAn?$AAg?$AAl?$AAe?$AAt?$AAo?$AAn@
  00016	e8 00 00 00 00	 call	 __wassert
  0001b	8b 0d 00 00 00
	00		 mov	 ecx, DWORD PTR ?ms_singleton@?$CSingleton@VCPythonNetworkStream@@@@0PAVCPythonNetworkStream@@A ; CSingleton<CPythonNetworkStream>::ms_singleton
  00021	83 c4 0c	 add	 esp, 12			; 0000000cH
$LN5@netGetMain:
; File C:\Anka2Project\Anka2Project\Source\Binary\source\UserInterface\PythonNetworkStreamModule.cpp

; 151  : 	return Py_BuildValue("i", rkNetStream.GetMainActorEmpire());

  00024	e8 00 00 00 00	 call	 ?GetMainActorEmpire@CPythonNetworkStream@@QAEKXZ ; CPythonNetworkStream::GetMainActorEmpire
  00029	50		 push	 eax
  0002a	68 00 00 00 00	 push	 OFFSET ??_C@_01KBJDNOO@i@
  0002f	ff 15 00 00 00
	00		 call	 DWORD PTR __imp__Py_BuildValue
  00035	83 c4 08	 add	 esp, 8

; 152  : }

  00038	c3		 ret	 0
?netGetMainActorEmpire@@YAPAU_object@@PAU1@0@Z ENDP	; netGetMainActorEmpire
_TEXT	ENDS
; Function compile flags: /Ogtp
; File C:\Anka2Project\Anka2Project\Source\Binary\source\UserInterface\PythonNetworkStreamModule.cpp
; File C:\Anka2Project\Anka2Project\Source\Binary\source\eterBase\Singleton.h
; File C:\Anka2Project\Anka2Project\Source\Binary\source\UserInterface\PythonNetworkStreamModule.cpp
;	COMDAT ?netGetMainActorSkillGroup@@YAPAU_object@@PAU1@0@Z
_TEXT	SEGMENT
_poSelf$ = 8						; size = 4
_poArgs$ = 12						; size = 4
?netGetMainActorSkillGroup@@YAPAU_object@@PAU1@0@Z PROC	; netGetMainActorSkillGroup, COMDAT
; File C:\Anka2Project\Anka2Project\Source\Binary\source\eterBase\Singleton.h

; 26   : 		assert(ms_singleton);

  00000	8b 0d 00 00 00
	00		 mov	 ecx, DWORD PTR ?ms_singleton@?$CSingleton@VCPythonNetworkStream@@@@0PAVCPythonNetworkStream@@A ; CSingleton<CPythonNetworkStream>::ms_singleton
  00006	85 c9		 test	 ecx, ecx
  00008	75 1a		 jne	 SHORT $LN5@netGetMain
  0000a	6a 1a		 push	 26			; 0000001aH
  0000c	68 00 00 00 00	 push	 OFFSET ??_C@_1IO@CAJLEEOI@?$AAC?$AA?3?$AA?2?$AAA?$AAn?$AAk?$AAa?$AA2?$AAP?$AAr?$AAo?$AAj?$AAe?$AAc?$AAt@
  00011	68 00 00 00 00	 push	 OFFSET ??_C@_1BK@FMEHPMFE@?$AAm?$AAs?$AA_?$AAs?$AAi?$AAn?$AAg?$AAl?$AAe?$AAt?$AAo?$AAn@
  00016	e8 00 00 00 00	 call	 __wassert
  0001b	8b 0d 00 00 00
	00		 mov	 ecx, DWORD PTR ?ms_singleton@?$CSingleton@VCPythonNetworkStream@@@@0PAVCPythonNetworkStream@@A ; CSingleton<CPythonNetworkStream>::ms_singleton
  00021	83 c4 0c	 add	 esp, 12			; 0000000cH
$LN5@netGetMain:
; File C:\Anka2Project\Anka2Project\Source\Binary\source\UserInterface\PythonNetworkStreamModule.cpp

; 157  : 	return Py_BuildValue("i", rkNetStream.GetMainActorSkillGroup());

  00024	e8 00 00 00 00	 call	 ?GetMainActorSkillGroup@CPythonNetworkStream@@QAEKXZ ; CPythonNetworkStream::GetMainActorSkillGroup
  00029	50		 push	 eax
  0002a	68 00 00 00 00	 push	 OFFSET ??_C@_01KBJDNOO@i@
  0002f	ff 15 00 00 00
	00		 call	 DWORD PTR __imp__Py_BuildValue
  00035	83 c4 08	 add	 esp, 8

; 158  : }

  00038	c3		 ret	 0
?netGetMainActorSkillGroup@@YAPAU_object@@PAU1@0@Z ENDP	; netGetMainActorSkillGroup
_TEXT	ENDS
; Function compile flags: /Ogtp
; File C:\Anka2Project\Anka2Project\Source\Binary\source\UserInterface\PythonNetworkStreamModule.cpp
; File C:\Anka2Project\Anka2Project\Source\Binary\source\eterBase\Singleton.h
; File C:\Anka2Project\Anka2Project\Source\Binary\source\UserInterface\PythonNetworkStreamModule.cpp
;	COMDAT ?netGetAccountCharacterSlotDataInteger@@YAPAU_object@@PAU1@0@Z
_TEXT	SEGMENT
_nIndex$ = -8						; size = 4
_nType$ = -4						; size = 4
_poSelf$ = 8						; size = 4
_poArgs$ = 12						; size = 4
?netGetAccountCharacterSlotDataInteger@@YAPAU_object@@PAU1@0@Z PROC ; netGetAccountCharacterSlotDataInteger, COMDAT

; 168  : {

  00000	55		 push	 ebp
  00001	8b ec		 mov	 ebp, esp
  00003	83 ec 08	 sub	 esp, 8

; 169  : 	int nIndex;
; 170  : 	if (!PyTuple_GetInteger(poArgs, 0, &nIndex))

  00006	8d 45 f8	 lea	 eax, DWORD PTR _nIndex$[ebp]
  00009	50		 push	 eax
  0000a	6a 00		 push	 0
  0000c	ff 75 0c	 push	 DWORD PTR _poArgs$[ebp]
  0000f	e8 00 00 00 00	 call	 ?PyTuple_GetInteger@@YA_NPAU_object@@HPAH@Z ; PyTuple_GetInteger
  00014	83 c4 0c	 add	 esp, 12			; 0000000cH
  00017	84 c0		 test	 al, al
  00019	75 0e		 jne	 SHORT $LN2@netGetAcco
$LN8@netGetAcco:

; 180  : }

  0001b	6a 00		 push	 0
  0001d	e8 00 00 00 00	 call	 ?Py_BuildException@@YAPAU_object@@PBDZZ ; Py_BuildException
  00022	83 c4 04	 add	 esp, 4
  00025	8b e5		 mov	 esp, ebp
  00027	5d		 pop	 ebp
  00028	c3		 ret	 0
$LN2@netGetAcco:

; 171  : 		return Py_BuildException();
; 172  : 
; 173  : 	int nType;
; 174  : 	if (!PyTuple_GetInteger(poArgs, 1, &nType))

  00029	8d 45 fc	 lea	 eax, DWORD PTR _nType$[ebp]
  0002c	50		 push	 eax
  0002d	6a 01		 push	 1
  0002f	ff 75 0c	 push	 DWORD PTR _poArgs$[ebp]
  00032	e8 00 00 00 00	 call	 ?PyTuple_GetInteger@@YA_NPAU_object@@HPAH@Z ; PyTuple_GetInteger
  00037	83 c4 0c	 add	 esp, 12			; 0000000cH
  0003a	84 c0		 test	 al, al
  0003c	74 dd		 je	 SHORT $LN8@netGetAcco
; File C:\Anka2Project\Anka2Project\Source\Binary\source\eterBase\Singleton.h

; 26   : 		assert(ms_singleton);

  0003e	8b 0d 00 00 00
	00		 mov	 ecx, DWORD PTR ?ms_singleton@?$CSingleton@VCPythonNetworkStream@@@@0PAVCPythonNetworkStream@@A ; CSingleton<CPythonNetworkStream>::ms_singleton
  00044	85 c9		 test	 ecx, ecx
  00046	75 1a		 jne	 SHORT $LN7@netGetAcco
  00048	6a 1a		 push	 26			; 0000001aH
  0004a	68 00 00 00 00	 push	 OFFSET ??_C@_1IO@CAJLEEOI@?$AAC?$AA?3?$AA?2?$AAA?$AAn?$AAk?$AAa?$AA2?$AAP?$AAr?$AAo?$AAj?$AAe?$AAc?$AAt@
  0004f	68 00 00 00 00	 push	 OFFSET ??_C@_1BK@FMEHPMFE@?$AAm?$AAs?$AA_?$AAs?$AAi?$AAn?$AAg?$AAl?$AAe?$AAt?$AAo?$AAn@
  00054	e8 00 00 00 00	 call	 __wassert
  00059	8b 0d 00 00 00
	00		 mov	 ecx, DWORD PTR ?ms_singleton@?$CSingleton@VCPythonNetworkStream@@@@0PAVCPythonNetworkStream@@A ; CSingleton<CPythonNetworkStream>::ms_singleton
  0005f	83 c4 0c	 add	 esp, 12			; 0000000cH
$LN7@netGetAcco:
; File C:\Anka2Project\Anka2Project\Source\Binary\source\UserInterface\PythonNetworkStreamModule.cpp

; 178  : 	UINT uResult=rkNetStream.GetAccountCharacterSlotDatau(nIndex, nType);

  00062	ff 75 fc	 push	 DWORD PTR _nType$[ebp]
  00065	ff 75 f8	 push	 DWORD PTR _nIndex$[ebp]
  00068	e8 00 00 00 00	 call	 ?GetAccountCharacterSlotDatau@CPythonNetworkStream@@QAEIII@Z ; CPythonNetworkStream::GetAccountCharacterSlotDatau

; 179  : 	return Py_BuildValue("i", uResult);

  0006d	50		 push	 eax
  0006e	68 00 00 00 00	 push	 OFFSET ??_C@_01KBJDNOO@i@
  00073	ff 15 00 00 00
	00		 call	 DWORD PTR __imp__Py_BuildValue
  00079	83 c4 08	 add	 esp, 8

; 180  : }

  0007c	8b e5		 mov	 esp, ebp
  0007e	5d		 pop	 ebp
  0007f	c3		 ret	 0
?netGetAccountCharacterSlotDataInteger@@YAPAU_object@@PAU1@0@Z ENDP ; netGetAccountCharacterSlotDataInteger
_TEXT	ENDS
; Function compile flags: /Ogtp
; File C:\Anka2Project\Anka2Project\Source\Binary\source\UserInterface\PythonNetworkStreamModule.cpp
; File C:\Anka2Project\Anka2Project\Source\Binary\source\eterBase\Singleton.h
; File C:\Anka2Project\Anka2Project\Source\Binary\source\UserInterface\PythonNetworkStreamModule.cpp
;	COMDAT ?netGetAccountCharacterSlotDataString@@YAPAU_object@@PAU1@0@Z
_TEXT	SEGMENT
_nIndex$ = -8						; size = 4
_nType$ = -4						; size = 4
_poSelf$ = 8						; size = 4
_poArgs$ = 12						; size = 4
?netGetAccountCharacterSlotDataString@@YAPAU_object@@PAU1@0@Z PROC ; netGetAccountCharacterSlotDataString, COMDAT

; 183  : {

  00000	55		 push	 ebp
  00001	8b ec		 mov	 ebp, esp
  00003	83 ec 08	 sub	 esp, 8

; 184  : 	int nIndex;
; 185  : 	if (!PyTuple_GetInteger(poArgs, 0, &nIndex))

  00006	8d 45 f8	 lea	 eax, DWORD PTR _nIndex$[ebp]
  00009	50		 push	 eax
  0000a	6a 00		 push	 0
  0000c	ff 75 0c	 push	 DWORD PTR _poArgs$[ebp]
  0000f	e8 00 00 00 00	 call	 ?PyTuple_GetInteger@@YA_NPAU_object@@HPAH@Z ; PyTuple_GetInteger
  00014	83 c4 0c	 add	 esp, 12			; 0000000cH
  00017	84 c0		 test	 al, al
  00019	75 0e		 jne	 SHORT $LN2@netGetAcco
$LN8@netGetAcco:

; 194  : }

  0001b	6a 00		 push	 0
  0001d	e8 00 00 00 00	 call	 ?Py_BuildException@@YAPAU_object@@PBDZZ ; Py_BuildException
  00022	83 c4 04	 add	 esp, 4
  00025	8b e5		 mov	 esp, ebp
  00027	5d		 pop	 ebp
  00028	c3		 ret	 0
$LN2@netGetAcco:

; 186  : 		return Py_BuildException();
; 187  : 
; 188  : 	int nType;
; 189  : 	if (!PyTuple_GetInteger(poArgs, 1, &nType))

  00029	8d 45 fc	 lea	 eax, DWORD PTR _nType$[ebp]
  0002c	50		 push	 eax
  0002d	6a 01		 push	 1
  0002f	ff 75 0c	 push	 DWORD PTR _poArgs$[ebp]
  00032	e8 00 00 00 00	 call	 ?PyTuple_GetInteger@@YA_NPAU_object@@HPAH@Z ; PyTuple_GetInteger
  00037	83 c4 0c	 add	 esp, 12			; 0000000cH
  0003a	84 c0		 test	 al, al
  0003c	74 dd		 je	 SHORT $LN8@netGetAcco
; File C:\Anka2Project\Anka2Project\Source\Binary\source\eterBase\Singleton.h

; 26   : 		assert(ms_singleton);

  0003e	8b 0d 00 00 00
	00		 mov	 ecx, DWORD PTR ?ms_singleton@?$CSingleton@VCPythonNetworkStream@@@@0PAVCPythonNetworkStream@@A ; CSingleton<CPythonNetworkStream>::ms_singleton
  00044	85 c9		 test	 ecx, ecx
  00046	75 1a		 jne	 SHORT $LN7@netGetAcco
  00048	6a 1a		 push	 26			; 0000001aH
  0004a	68 00 00 00 00	 push	 OFFSET ??_C@_1IO@CAJLEEOI@?$AAC?$AA?3?$AA?2?$AAA?$AAn?$AAk?$AAa?$AA2?$AAP?$AAr?$AAo?$AAj?$AAe?$AAc?$AAt@
  0004f	68 00 00 00 00	 push	 OFFSET ??_C@_1BK@FMEHPMFE@?$AAm?$AAs?$AA_?$AAs?$AAi?$AAn?$AAg?$AAl?$AAe?$AAt?$AAo?$AAn@
  00054	e8 00 00 00 00	 call	 __wassert
  00059	8b 0d 00 00 00
	00		 mov	 ecx, DWORD PTR ?ms_singleton@?$CSingleton@VCPythonNetworkStream@@@@0PAVCPythonNetworkStream@@A ; CSingleton<CPythonNetworkStream>::ms_singleton
  0005f	83 c4 0c	 add	 esp, 12			; 0000000cH
$LN7@netGetAcco:
; File C:\Anka2Project\Anka2Project\Source\Binary\source\UserInterface\PythonNetworkStreamModule.cpp

; 193  : 	return Py_BuildValue("s", rkNetStream.GetAccountCharacterSlotDataz(nIndex, nType));

  00062	ff 75 fc	 push	 DWORD PTR _nType$[ebp]
  00065	ff 75 f8	 push	 DWORD PTR _nIndex$[ebp]
  00068	e8 00 00 00 00	 call	 ?GetAccountCharacterSlotDataz@CPythonNetworkStream@@QAEPBDII@Z ; CPythonNetworkStream::GetAccountCharacterSlotDataz
  0006d	50		 push	 eax
  0006e	68 00 00 00 00	 push	 OFFSET ??_C@_01LKDEMHDF@s@
  00073	ff 15 00 00 00
	00		 call	 DWORD PTR __imp__Py_BuildValue
  00079	83 c4 08	 add	 esp, 8

; 194  : }

  0007c	8b e5		 mov	 esp, ebp
  0007e	5d		 pop	 ebp
  0007f	c3		 ret	 0
?netGetAccountCharacterSlotDataString@@YAPAU_object@@PAU1@0@Z ENDP ; netGetAccountCharacterSlotDataString
_TEXT	ENDS
; Function compile flags: /Ogtp
; File C:\Anka2Project\Anka2Project\Source\Binary\source\UserInterface\PythonNetworkStreamModule.cpp
; File C:\Anka2Project\Anka2Project\Source\Binary\source\eterBase\Singleton.h
; File C:\Anka2Project\Anka2Project\Source\Binary\source\UserInterface\PythonNetworkStreamModule.cpp
;	COMDAT ?netGetFieldMusicFileName@@YAPAU_object@@PAU1@0@Z
_TEXT	SEGMENT
_poSelf$ = 8						; size = 4
_poArgs$ = 12						; size = 4
?netGetFieldMusicFileName@@YAPAU_object@@PAU1@0@Z PROC	; netGetFieldMusicFileName, COMDAT
; File C:\Anka2Project\Anka2Project\Source\Binary\source\eterBase\Singleton.h

; 26   : 		assert(ms_singleton);

  00000	83 3d 00 00 00
	00 00		 cmp	 DWORD PTR ?ms_singleton@?$CSingleton@VCPythonNetworkStream@@@@0PAVCPythonNetworkStream@@A, 0 ; CSingleton<CPythonNetworkStream>::ms_singleton
  00007	75 14		 jne	 SHORT $LN5@netGetFiel
  00009	6a 1a		 push	 26			; 0000001aH
  0000b	68 00 00 00 00	 push	 OFFSET ??_C@_1IO@CAJLEEOI@?$AAC?$AA?3?$AA?2?$AAA?$AAn?$AAk?$AAa?$AA2?$AAP?$AAr?$AAo?$AAj?$AAe?$AAc?$AAt@
  00010	68 00 00 00 00	 push	 OFFSET ??_C@_1BK@FMEHPMFE@?$AAm?$AAs?$AA_?$AAs?$AAi?$AAn?$AAg?$AAl?$AAe?$AAt?$AAo?$AAn@
  00015	e8 00 00 00 00	 call	 __wassert
  0001a	83 c4 0c	 add	 esp, 12			; 0000000cH
$LN5@netGetFiel:
; File C:\Anka2Project\Anka2Project\Source\Binary\source\UserInterface\PythonNetworkStreamModule.cpp

; 200  : 	return Py_BuildValue("s", rkNetStream.GetFieldMusicFileName());

  0001d	e8 00 00 00 00	 call	 ?GetFieldMusicFileName@CPythonNetworkStream@@QAEPBDXZ ; CPythonNetworkStream::GetFieldMusicFileName
  00022	50		 push	 eax
  00023	68 00 00 00 00	 push	 OFFSET ??_C@_01LKDEMHDF@s@
  00028	ff 15 00 00 00
	00		 call	 DWORD PTR __imp__Py_BuildValue
  0002e	83 c4 08	 add	 esp, 8

; 201  : }

  00031	c3		 ret	 0
?netGetFieldMusicFileName@@YAPAU_object@@PAU1@0@Z ENDP	; netGetFieldMusicFileName
_TEXT	ENDS
; Function compile flags: /Ogtp
; File C:\Anka2Project\Anka2Project\Source\Binary\source\UserInterface\PythonNetworkStreamModule.cpp
; File C:\Anka2Project\Anka2Project\Source\Binary\source\eterBase\Singleton.h
; File C:\Anka2Project\Anka2Project\Source\Binary\source\UserInterface\PythonNetworkStreamModule.cpp
;	COMDAT ?netGetFieldMusicVolume@@YAPAU_object@@PAU1@0@Z
_TEXT	SEGMENT
_poSelf$ = 8						; size = 4
_poArgs$ = 12						; size = 4
?netGetFieldMusicVolume@@YAPAU_object@@PAU1@0@Z PROC	; netGetFieldMusicVolume, COMDAT

; 204  : {

  00000	55		 push	 ebp
  00001	8b ec		 mov	 ebp, esp
  00003	83 e4 c0	 and	 esp, -64		; ffffffc0H
; File C:\Anka2Project\Anka2Project\Source\Binary\source\eterBase\Singleton.h

; 26   : 		assert(ms_singleton);

  00006	83 3d 00 00 00
	00 00		 cmp	 DWORD PTR ?ms_singleton@?$CSingleton@VCPythonNetworkStream@@@@0PAVCPythonNetworkStream@@A, 0 ; CSingleton<CPythonNetworkStream>::ms_singleton
  0000d	75 14		 jne	 SHORT $LN5@netGetFiel
  0000f	6a 1a		 push	 26			; 0000001aH
  00011	68 00 00 00 00	 push	 OFFSET ??_C@_1IO@CAJLEEOI@?$AAC?$AA?3?$AA?2?$AAA?$AAn?$AAk?$AAa?$AA2?$AAP?$AAr?$AAo?$AAj?$AAe?$AAc?$AAt@
  00016	68 00 00 00 00	 push	 OFFSET ??_C@_1BK@FMEHPMFE@?$AAm?$AAs?$AA_?$AAs?$AAi?$AAn?$AAg?$AAl?$AAe?$AAt?$AAo?$AAn@
  0001b	e8 00 00 00 00	 call	 __wassert
  00020	83 c4 0c	 add	 esp, 12			; 0000000cH
$LN5@netGetFiel:
; File C:\Anka2Project\Anka2Project\Source\Binary\source\UserInterface\PythonNetworkStreamModule.cpp

; 206  : 	return Py_BuildValue("f", rkNetStream.GetFieldMusicVolume());

  00023	e8 00 00 00 00	 call	 ?GetFieldMusicVolume@CPythonNetworkStream@@QAEMXZ ; CPythonNetworkStream::GetFieldMusicVolume
  00028	f3 0f 5a c0	 cvtss2sd xmm0, xmm0
  0002c	83 ec 08	 sub	 esp, 8
  0002f	f2 0f 11 04 24	 movsd	 QWORD PTR [esp], xmm0
  00034	68 00 00 00 00	 push	 OFFSET ??_C@_01INIBCBCB@f@
  00039	ff 15 00 00 00
	00		 call	 DWORD PTR __imp__Py_BuildValue
  0003f	83 c4 0c	 add	 esp, 12			; 0000000cH

; 207  : }

  00042	8b e5		 mov	 esp, ebp
  00044	5d		 pop	 ebp
  00045	c3		 ret	 0
?netGetFieldMusicVolume@@YAPAU_object@@PAU1@0@Z ENDP	; netGetFieldMusicVolume
_TEXT	ENDS
; Function compile flags: /Ogtp
; File C:\Anka2Project\Anka2Project\Source\Binary\source\UserInterface\PythonNetworkStreamModule.cpp
; File C:\Anka2Project\Anka2Project\Source\Binary\source\eterBase\Singleton.h
; File C:\Anka2Project\Anka2Project\Source\Binary\source\UserInterface\PythonNetworkStreamModule.cpp
;	COMDAT ?netIsChatInsultIn@@YAPAU_object@@PAU1@0@Z
_TEXT	SEGMENT
_szMsg$ = -4						; size = 4
_poSelf$ = 8						; size = 4
_poArgs$ = 12						; size = 4
?netIsChatInsultIn@@YAPAU_object@@PAU1@0@Z PROC		; netIsChatInsultIn, COMDAT

; 476  : {

  00000	55		 push	 ebp
  00001	8b ec		 mov	 ebp, esp
  00003	51		 push	 ecx

; 477  : 	char *szMsg;
; 478  : 	if (!PyTuple_GetString(poArgs, 0, &szMsg))

  00004	8d 45 fc	 lea	 eax, DWORD PTR _szMsg$[ebp]
  00007	50		 push	 eax
  00008	6a 00		 push	 0
  0000a	ff 75 0c	 push	 DWORD PTR _poArgs$[ebp]
  0000d	e8 00 00 00 00	 call	 ?PyTuple_GetString@@YA_NPAU_object@@HPAPAD@Z ; PyTuple_GetString
  00012	83 c4 0c	 add	 esp, 12			; 0000000cH
  00015	84 c0		 test	 al, al
  00017	75 0e		 jne	 SHORT $LN2@netIsChatI

; 479  : 		return Py_BuildException();

  00019	6a 00		 push	 0
  0001b	e8 00 00 00 00	 call	 ?Py_BuildException@@YAPAU_object@@PBDZZ ; Py_BuildException
  00020	83 c4 04	 add	 esp, 4

; 483  : }

  00023	8b e5		 mov	 esp, ebp
  00025	5d		 pop	 ebp
  00026	c3		 ret	 0
$LN2@netIsChatI:
; File C:\Anka2Project\Anka2Project\Source\Binary\source\eterBase\Singleton.h

; 26   : 		assert(ms_singleton);

  00027	8b 0d 00 00 00
	00		 mov	 ecx, DWORD PTR ?ms_singleton@?$CSingleton@VCPythonNetworkStream@@@@0PAVCPythonNetworkStream@@A ; CSingleton<CPythonNetworkStream>::ms_singleton
  0002d	85 c9		 test	 ecx, ecx
  0002f	75 1a		 jne	 SHORT $LN6@netIsChatI
  00031	6a 1a		 push	 26			; 0000001aH
  00033	68 00 00 00 00	 push	 OFFSET ??_C@_1IO@CAJLEEOI@?$AAC?$AA?3?$AA?2?$AAA?$AAn?$AAk?$AAa?$AA2?$AAP?$AAr?$AAo?$AAj?$AAe?$AAc?$AAt@
  00038	68 00 00 00 00	 push	 OFFSET ??_C@_1BK@FMEHPMFE@?$AAm?$AAs?$AA_?$AAs?$AAi?$AAn?$AAg?$AAl?$AAe?$AAt?$AAo?$AAn@
  0003d	e8 00 00 00 00	 call	 __wassert
  00042	8b 0d 00 00 00
	00		 mov	 ecx, DWORD PTR ?ms_singleton@?$CSingleton@VCPythonNetworkStream@@@@0PAVCPythonNetworkStream@@A ; CSingleton<CPythonNetworkStream>::ms_singleton
  00048	83 c4 0c	 add	 esp, 12			; 0000000cH
$LN6@netIsChatI:
; File C:\Anka2Project\Anka2Project\Source\Binary\source\UserInterface\PythonNetworkStreamModule.cpp

; 482  : 	return Py_BuildValue("i", rkNetStream.IsChatInsultIn(szMsg));

  0004b	ff 75 fc	 push	 DWORD PTR _szMsg$[ebp]
  0004e	e8 00 00 00 00	 call	 ?IsChatInsultIn@CPythonNetworkStream@@QAE_NPBD@Z ; CPythonNetworkStream::IsChatInsultIn
  00053	0f b6 c0	 movzx	 eax, al
  00056	50		 push	 eax
  00057	68 00 00 00 00	 push	 OFFSET ??_C@_01KBJDNOO@i@
  0005c	ff 15 00 00 00
	00		 call	 DWORD PTR __imp__Py_BuildValue
  00062	83 c4 08	 add	 esp, 8

; 483  : }

  00065	8b e5		 mov	 esp, ebp
  00067	5d		 pop	 ebp
  00068	c3		 ret	 0
?netIsChatInsultIn@@YAPAU_object@@PAU1@0@Z ENDP		; netIsChatInsultIn
_TEXT	ENDS
; Function compile flags: /Ogtp
; File C:\Anka2Project\Anka2Project\Source\Binary\source\UserInterface\PythonNetworkStreamModule.cpp
; File C:\Anka2Project\Anka2Project\Source\Binary\source\eterBase\Singleton.h
; File C:\Anka2Project\Anka2Project\Source\Binary\source\UserInterface\PythonNetworkStreamModule.cpp
;	COMDAT ?netIsInsultIn@@YAPAU_object@@PAU1@0@Z
_TEXT	SEGMENT
_szMsg$ = -4						; size = 4
_poSelf$ = 8						; size = 4
_poArgs$ = 12						; size = 4
?netIsInsultIn@@YAPAU_object@@PAU1@0@Z PROC		; netIsInsultIn, COMDAT

; 487  : {

  00000	55		 push	 ebp
  00001	8b ec		 mov	 ebp, esp
  00003	51		 push	 ecx

; 488  : 	char *szMsg;
; 489  : 	if (!PyTuple_GetString(poArgs, 0, &szMsg))

  00004	8d 45 fc	 lea	 eax, DWORD PTR _szMsg$[ebp]
  00007	50		 push	 eax
  00008	6a 00		 push	 0
  0000a	ff 75 0c	 push	 DWORD PTR _poArgs$[ebp]
  0000d	e8 00 00 00 00	 call	 ?PyTuple_GetString@@YA_NPAU_object@@HPAPAD@Z ; PyTuple_GetString
  00012	83 c4 0c	 add	 esp, 12			; 0000000cH
  00015	84 c0		 test	 al, al
  00017	75 0e		 jne	 SHORT $LN2@netIsInsul

; 490  : 		return Py_BuildException();

  00019	6a 00		 push	 0
  0001b	e8 00 00 00 00	 call	 ?Py_BuildException@@YAPAU_object@@PBDZZ ; Py_BuildException
  00020	83 c4 04	 add	 esp, 4

; 494  : }

  00023	8b e5		 mov	 esp, ebp
  00025	5d		 pop	 ebp
  00026	c3		 ret	 0
$LN2@netIsInsul:
; File C:\Anka2Project\Anka2Project\Source\Binary\source\eterBase\Singleton.h

; 26   : 		assert(ms_singleton);

  00027	8b 0d 00 00 00
	00		 mov	 ecx, DWORD PTR ?ms_singleton@?$CSingleton@VCPythonNetworkStream@@@@0PAVCPythonNetworkStream@@A ; CSingleton<CPythonNetworkStream>::ms_singleton
  0002d	85 c9		 test	 ecx, ecx
  0002f	75 1a		 jne	 SHORT $LN6@netIsInsul
  00031	6a 1a		 push	 26			; 0000001aH
  00033	68 00 00 00 00	 push	 OFFSET ??_C@_1IO@CAJLEEOI@?$AAC?$AA?3?$AA?2?$AAA?$AAn?$AAk?$AAa?$AA2?$AAP?$AAr?$AAo?$AAj?$AAe?$AAc?$AAt@
  00038	68 00 00 00 00	 push	 OFFSET ??_C@_1BK@FMEHPMFE@?$AAm?$AAs?$AA_?$AAs?$AAi?$AAn?$AAg?$AAl?$AAe?$AAt?$AAo?$AAn@
  0003d	e8 00 00 00 00	 call	 __wassert
  00042	8b 0d 00 00 00
	00		 mov	 ecx, DWORD PTR ?ms_singleton@?$CSingleton@VCPythonNetworkStream@@@@0PAVCPythonNetworkStream@@A ; CSingleton<CPythonNetworkStream>::ms_singleton
  00048	83 c4 0c	 add	 esp, 12			; 0000000cH
$LN6@netIsInsul:
; File C:\Anka2Project\Anka2Project\Source\Binary\source\UserInterface\PythonNetworkStreamModule.cpp

; 493  : 	return Py_BuildValue("i", rkNetStream.IsInsultIn(szMsg));

  0004b	ff 75 fc	 push	 DWORD PTR _szMsg$[ebp]
  0004e	e8 00 00 00 00	 call	 ?IsInsultIn@CPythonNetworkStream@@QAE_NPBD@Z ; CPythonNetworkStream::IsInsultIn
  00053	0f b6 c0	 movzx	 eax, al
  00056	50		 push	 eax
  00057	68 00 00 00 00	 push	 OFFSET ??_C@_01KBJDNOO@i@
  0005c	ff 15 00 00 00
	00		 call	 DWORD PTR __imp__Py_BuildValue
  00062	83 c4 08	 add	 esp, 8

; 494  : }

  00065	8b e5		 mov	 esp, ebp
  00067	5d		 pop	 ebp
  00068	c3		 ret	 0
?netIsInsultIn@@YAPAU_object@@PAU1@0@Z ENDP		; netIsInsultIn
_TEXT	ENDS
; Function compile flags: /Ogtp
; File C:\Anka2Project\Anka2Project\Source\Binary\source\UserInterface\PythonNetworkStreamModule.cpp
; File C:\Anka2Project\Anka2Project\Source\Binary\source\UserInterface\GameType.h
; File C:\Anka2Project\Anka2Project\Source\Binary\source\UserInterface\PythonNetworkStreamModule.cpp
; File C:\Anka2Project\Anka2Project\Source\Binary\source\UserInterface\GameType.h
; File C:\Anka2Project\Anka2Project\Source\Binary\source\UserInterface\PythonNetworkStreamModule.cpp
; File C:\Anka2Project\Anka2Project\Source\Binary\source\eterBase\Singleton.h
; File C:\Anka2Project\Anka2Project\Source\Binary\source\UserInterface\PythonNetworkStreamModule.cpp
;	COMDAT ?netSendItemUsePacket@@YAPAU_object@@PAU1@0@Z
_TEXT	SEGMENT
_Cell$ = -4						; size = 3
_poSelf$ = 8						; size = 4
_poArgs$ = 12						; size = 4
?netSendItemUsePacket@@YAPAU_object@@PAU1@0@Z PROC	; netSendItemUsePacket, COMDAT

; 627  : {

  00000	55		 push	 ebp
  00001	8b ec		 mov	 ebp, esp
  00003	51		 push	 ecx
  00004	56		 push	 esi

; 629  : 	switch (PyTuple_Size(poArgs))

  00005	8b 75 0c	 mov	 esi, DWORD PTR _poArgs$[ebp]
; File C:\Anka2Project\Anka2Project\Source\Binary\source\UserInterface\GameType.h

; 448  : 		cell = WORD_MAX;

  00008	b8 ff ff 00 00	 mov	 eax, 65535		; 0000ffffH
; File C:\Anka2Project\Anka2Project\Source\Binary\source\UserInterface\PythonNetworkStreamModule.cpp

; 629  : 	switch (PyTuple_Size(poArgs))

  0000d	56		 push	 esi
; File C:\Anka2Project\Anka2Project\Source\Binary\source\UserInterface\GameType.h

; 447  : 		window_type = INVENTORY;

  0000e	c6 45 fc 01	 mov	 BYTE PTR _Cell$[ebp], 1

; 448  : 		cell = WORD_MAX;

  00012	66 89 45 fd	 mov	 WORD PTR _Cell$[ebp+1], ax
; File C:\Anka2Project\Anka2Project\Source\Binary\source\UserInterface\PythonNetworkStreamModule.cpp

; 629  : 	switch (PyTuple_Size(poArgs))

  00016	ff 15 00 00 00
	00		 call	 DWORD PTR __imp__PyTuple_Size
  0001c	83 c4 04	 add	 esp, 4
  0001f	83 e8 01	 sub	 eax, 1
  00022	74 20		 je	 SHORT $LN4@netSendIte
  00024	83 e8 01	 sub	 eax, 1
  00027	75 2e		 jne	 SHORT $LN22@netSendIte

; 633  : 			return Py_BuildException();
; 634  : 		break;
; 635  : 	case 2:
; 636  : 		if (!PyTuple_GetByte(poArgs, 0, &Cell.window_type))

  00029	8d 45 fc	 lea	 eax, DWORD PTR _Cell$[ebp]
  0002c	50		 push	 eax
  0002d	6a 00		 push	 0
  0002f	56		 push	 esi
  00030	e8 00 00 00 00	 call	 ?PyTuple_GetByte@@YA_NPAU_object@@HPAE@Z ; PyTuple_GetByte
  00035	83 c4 0c	 add	 esp, 12			; 0000000cH
  00038	84 c0		 test	 al, al
  0003a	74 1b		 je	 SHORT $LN22@netSendIte

; 637  : 			return Py_BuildException();
; 638  : 		if (!PyTuple_GetInteger(poArgs, 1, &Cell.cell))

  0003c	8d 45 fd	 lea	 eax, DWORD PTR _Cell$[ebp+1]
  0003f	50		 push	 eax
  00040	6a 01		 push	 1

; 639  : 			return Py_BuildException();

  00042	eb 06		 jmp	 SHORT $LN23@netSendIte
$LN4@netSendIte:

; 630  : 	{
; 631  : 	case 1:
; 632  : 		if (!PyTuple_GetInteger(poArgs, 0, &Cell.cell))

  00044	8d 45 fd	 lea	 eax, DWORD PTR _Cell$[ebp+1]
  00047	50		 push	 eax
  00048	6a 00		 push	 0
$LN23@netSendIte:

; 648  : }

  0004a	56		 push	 esi
  0004b	e8 00 00 00 00	 call	 ?PyTuple_GetInteger@@YA_NPAU_object@@HPAG@Z ; PyTuple_GetInteger
  00050	83 c4 0c	 add	 esp, 12			; 0000000cH
  00053	84 c0		 test	 al, al
  00055	75 0f		 jne	 SHORT $LN5@netSendIte
$LN22@netSendIte:
  00057	6a 00		 push	 0
  00059	e8 00 00 00 00	 call	 ?Py_BuildException@@YAPAU_object@@PBDZZ ; Py_BuildException
  0005e	83 c4 04	 add	 esp, 4
  00061	5e		 pop	 esi
  00062	8b e5		 mov	 esp, ebp
  00064	5d		 pop	 ebp
  00065	c3		 ret	 0
$LN5@netSendIte:
; File C:\Anka2Project\Anka2Project\Source\Binary\source\eterBase\Singleton.h

; 26   : 		assert(ms_singleton);

  00066	8b 0d 00 00 00
	00		 mov	 ecx, DWORD PTR ?ms_singleton@?$CSingleton@VCPythonNetworkStream@@@@0PAVCPythonNetworkStream@@A ; CSingleton<CPythonNetworkStream>::ms_singleton
  0006c	85 c9		 test	 ecx, ecx
  0006e	75 1a		 jne	 SHORT $LN15@netSendIte
  00070	6a 1a		 push	 26			; 0000001aH
  00072	68 00 00 00 00	 push	 OFFSET ??_C@_1IO@CAJLEEOI@?$AAC?$AA?3?$AA?2?$AAA?$AAn?$AAk?$AAa?$AA2?$AAP?$AAr?$AAo?$AAj?$AAe?$AAc?$AAt@
  00077	68 00 00 00 00	 push	 OFFSET ??_C@_1BK@FMEHPMFE@?$AAm?$AAs?$AA_?$AAs?$AAi?$AAn?$AAg?$AAl?$AAe?$AAt?$AAo?$AAn@
  0007c	e8 00 00 00 00	 call	 __wassert
  00081	8b 0d 00 00 00
	00		 mov	 ecx, DWORD PTR ?ms_singleton@?$CSingleton@VCPythonNetworkStream@@@@0PAVCPythonNetworkStream@@A ; CSingleton<CPythonNetworkStream>::ms_singleton
  00087	83 c4 0c	 add	 esp, 12			; 0000000cH
$LN15@netSendIte:
; File C:\Anka2Project\Anka2Project\Source\Binary\source\UserInterface\PythonNetworkStreamModule.cpp

; 646  : 	rkNetStream.SendItemUsePacket(Cell);

  0008a	66 8b 45 fc	 mov	 ax, WORD PTR _Cell$[ebp]
  0008e	51		 push	 ecx
  0008f	8b d4		 mov	 edx, esp
  00091	66 89 02	 mov	 WORD PTR [edx], ax
  00094	8a 45 fe	 mov	 al, BYTE PTR _Cell$[ebp+2]
  00097	88 42 02	 mov	 BYTE PTR [edx+2], al
  0009a	e8 00 00 00 00	 call	 ?SendItemUsePacket@CPythonNetworkStream@@QAE_NUSItemPos@@@Z ; CPythonNetworkStream::SendItemUsePacket

; 647  : 	return Py_BuildNone();

  0009f	e8 00 00 00 00	 call	 ?Py_BuildNone@@YAPAU_object@@XZ ; Py_BuildNone

; 648  : }

  000a4	5e		 pop	 esi
  000a5	8b e5		 mov	 esp, ebp
  000a7	5d		 pop	 ebp
  000a8	c3		 ret	 0
?netSendItemUsePacket@@YAPAU_object@@PAU1@0@Z ENDP	; netSendItemUsePacket
_TEXT	ENDS
; Function compile flags: /Ogtp
; File C:\Anka2Project\Anka2Project\Source\Binary\source\UserInterface\PythonNetworkStreamModule.cpp
; File C:\Anka2Project\Anka2Project\Source\Binary\source\UserInterface\GameType.h
; File C:\Anka2Project\Anka2Project\Source\Binary\source\UserInterface\PythonNetworkStreamModule.cpp
; File C:\Anka2Project\Anka2Project\Source\Binary\source\UserInterface\GameType.h
; File C:\Anka2Project\Anka2Project\Source\Binary\source\UserInterface\PythonNetworkStreamModule.cpp
; File C:\Anka2Project\Anka2Project\Source\Binary\source\eterBase\Singleton.h
; File C:\Anka2Project\Anka2Project\Source\Binary\source\UserInterface\PythonNetworkStreamModule.cpp
;	COMDAT ?netSendItemUseToItemPacket@@YAPAU_object@@PAU1@0@Z
_TEXT	SEGMENT
_SourceCell$ = -8					; size = 3
_TargetCell$ = -4					; size = 3
_poSelf$ = 8						; size = 4
_poArgs$ = 12						; size = 4
?netSendItemUseToItemPacket@@YAPAU_object@@PAU1@0@Z PROC ; netSendItemUseToItemPacket, COMDAT

; 651  : {

  00000	55		 push	 ebp
  00001	8b ec		 mov	 ebp, esp
  00003	83 ec 08	 sub	 esp, 8
  00006	56		 push	 esi

; 654  : 	switch (PyTuple_Size(poArgs))

  00007	8b 75 0c	 mov	 esi, DWORD PTR _poArgs$[ebp]
; File C:\Anka2Project\Anka2Project\Source\Binary\source\UserInterface\GameType.h

; 448  : 		cell = WORD_MAX;

  0000a	b8 ff ff 00 00	 mov	 eax, 65535		; 0000ffffH
; File C:\Anka2Project\Anka2Project\Source\Binary\source\UserInterface\PythonNetworkStreamModule.cpp

; 654  : 	switch (PyTuple_Size(poArgs))

  0000f	56		 push	 esi
; File C:\Anka2Project\Anka2Project\Source\Binary\source\UserInterface\GameType.h

; 447  : 		window_type = INVENTORY;

  00010	c6 45 f8 01	 mov	 BYTE PTR _SourceCell$[ebp], 1

; 448  : 		cell = WORD_MAX;

  00014	66 89 45 f9	 mov	 WORD PTR _SourceCell$[ebp+1], ax

; 447  : 		window_type = INVENTORY;

  00018	c6 45 fc 01	 mov	 BYTE PTR _TargetCell$[ebp], 1

; 448  : 		cell = WORD_MAX;

  0001c	66 89 45 fd	 mov	 WORD PTR _TargetCell$[ebp+1], ax
; File C:\Anka2Project\Anka2Project\Source\Binary\source\UserInterface\PythonNetworkStreamModule.cpp

; 654  : 	switch (PyTuple_Size(poArgs))

  00020	ff 15 00 00 00
	00		 call	 DWORD PTR __imp__PyTuple_Size
  00026	83 c4 04	 add	 esp, 4
  00029	83 e8 02	 sub	 eax, 2
  0002c	74 60		 je	 SHORT $LN4@netSendIte
  0002e	83 e8 02	 sub	 eax, 2
  00031	75 4c		 jne	 SHORT $LN30@netSendIte

; 661  : 			return Py_BuildException();
; 662  : 		break;
; 663  : 	case 4:
; 664  : 		if (!PyTuple_GetByte(poArgs, 0, &SourceCell.window_type))

  00033	8d 45 f8	 lea	 eax, DWORD PTR _SourceCell$[ebp]
  00036	50		 push	 eax
  00037	6a 00		 push	 0
  00039	56		 push	 esi
  0003a	e8 00 00 00 00	 call	 ?PyTuple_GetByte@@YA_NPAU_object@@HPAE@Z ; PyTuple_GetByte
  0003f	83 c4 0c	 add	 esp, 12			; 0000000cH
  00042	84 c0		 test	 al, al
  00044	74 39		 je	 SHORT $LN30@netSendIte

; 665  : 			return Py_BuildException();
; 666  : 
; 667  : 		if (!PyTuple_GetInteger(poArgs, 1, &SourceCell.cell))

  00046	8d 45 f9	 lea	 eax, DWORD PTR _SourceCell$[ebp+1]
  00049	50		 push	 eax
  0004a	6a 01		 push	 1
  0004c	56		 push	 esi
  0004d	e8 00 00 00 00	 call	 ?PyTuple_GetInteger@@YA_NPAU_object@@HPAG@Z ; PyTuple_GetInteger
  00052	83 c4 0c	 add	 esp, 12			; 0000000cH
  00055	84 c0		 test	 al, al
  00057	74 26		 je	 SHORT $LN30@netSendIte

; 668  : 			return Py_BuildException();
; 669  : 
; 670  : 		if (!PyTuple_GetByte(poArgs, 2, &TargetCell.window_type))

  00059	8d 45 fc	 lea	 eax, DWORD PTR _TargetCell$[ebp]
  0005c	50		 push	 eax
  0005d	6a 02		 push	 2
  0005f	56		 push	 esi
  00060	e8 00 00 00 00	 call	 ?PyTuple_GetByte@@YA_NPAU_object@@HPAE@Z ; PyTuple_GetByte
  00065	83 c4 0c	 add	 esp, 12			; 0000000cH
  00068	84 c0		 test	 al, al
  0006a	74 13		 je	 SHORT $LN30@netSendIte

; 671  : 			return Py_BuildException();
; 672  : 
; 673  : 		if (!PyTuple_GetInteger(poArgs, 3, &TargetCell.cell))

  0006c	8d 45 fd	 lea	 eax, DWORD PTR _TargetCell$[ebp+1]
  0006f	50		 push	 eax
  00070	6a 03		 push	 3
  00072	56		 push	 esi
  00073	e8 00 00 00 00	 call	 ?PyTuple_GetInteger@@YA_NPAU_object@@HPAG@Z ; PyTuple_GetInteger
  00078	83 c4 0c	 add	 esp, 12			; 0000000cH
  0007b	84 c0		 test	 al, al
  0007d	75 35		 jne	 SHORT $LN6@netSendIte
$LN30@netSendIte:

; 682  : }

  0007f	6a 00		 push	 0
  00081	e8 00 00 00 00	 call	 ?Py_BuildException@@YAPAU_object@@PBDZZ ; Py_BuildException
  00086	83 c4 04	 add	 esp, 4
  00089	5e		 pop	 esi
  0008a	8b e5		 mov	 esp, ebp
  0008c	5d		 pop	 ebp
  0008d	c3		 ret	 0
$LN4@netSendIte:

; 655  : 	{
; 656  : 	case 2:
; 657  : 		if (!PyTuple_GetInteger(poArgs, 0, &SourceCell.cell))

  0008e	8d 45 f9	 lea	 eax, DWORD PTR _SourceCell$[ebp+1]
  00091	50		 push	 eax
  00092	6a 00		 push	 0
  00094	56		 push	 esi
  00095	e8 00 00 00 00	 call	 ?PyTuple_GetInteger@@YA_NPAU_object@@HPAG@Z ; PyTuple_GetInteger
  0009a	83 c4 0c	 add	 esp, 12			; 0000000cH
  0009d	84 c0		 test	 al, al
  0009f	74 de		 je	 SHORT $LN30@netSendIte

; 658  : 			return Py_BuildException();
; 659  : 
; 660  : 		if (!PyTuple_GetInteger(poArgs, 1, &TargetCell.cell))

  000a1	8d 45 fd	 lea	 eax, DWORD PTR _TargetCell$[ebp+1]
  000a4	50		 push	 eax
  000a5	6a 01		 push	 1
  000a7	56		 push	 esi
  000a8	e8 00 00 00 00	 call	 ?PyTuple_GetInteger@@YA_NPAU_object@@HPAG@Z ; PyTuple_GetInteger
  000ad	83 c4 0c	 add	 esp, 12			; 0000000cH
  000b0	84 c0		 test	 al, al
  000b2	74 cb		 je	 SHORT $LN30@netSendIte
$LN6@netSendIte:
; File C:\Anka2Project\Anka2Project\Source\Binary\source\eterBase\Singleton.h

; 26   : 		assert(ms_singleton);

  000b4	8b 0d 00 00 00
	00		 mov	 ecx, DWORD PTR ?ms_singleton@?$CSingleton@VCPythonNetworkStream@@@@0PAVCPythonNetworkStream@@A ; CSingleton<CPythonNetworkStream>::ms_singleton
  000ba	85 c9		 test	 ecx, ecx
  000bc	75 1a		 jne	 SHORT $LN20@netSendIte
  000be	6a 1a		 push	 26			; 0000001aH
  000c0	68 00 00 00 00	 push	 OFFSET ??_C@_1IO@CAJLEEOI@?$AAC?$AA?3?$AA?2?$AAA?$AAn?$AAk?$AAa?$AA2?$AAP?$AAr?$AAo?$AAj?$AAe?$AAc?$AAt@
  000c5	68 00 00 00 00	 push	 OFFSET ??_C@_1BK@FMEHPMFE@?$AAm?$AAs?$AA_?$AAs?$AAi?$AAn?$AAg?$AAl?$AAe?$AAt?$AAo?$AAn@
  000ca	e8 00 00 00 00	 call	 __wassert
  000cf	8b 0d 00 00 00
	00		 mov	 ecx, DWORD PTR ?ms_singleton@?$CSingleton@VCPythonNetworkStream@@@@0PAVCPythonNetworkStream@@A ; CSingleton<CPythonNetworkStream>::ms_singleton
  000d5	83 c4 0c	 add	 esp, 12			; 0000000cH
$LN20@netSendIte:
; File C:\Anka2Project\Anka2Project\Source\Binary\source\UserInterface\PythonNetworkStreamModule.cpp

; 680  : 	rkNetStream.SendItemUseToItemPacket(SourceCell, TargetCell);

  000d8	0f b7 45 fc	 movzx	 eax, WORD PTR _TargetCell$[ebp]
  000dc	51		 push	 ecx
  000dd	8b d4		 mov	 edx, esp
  000df	51		 push	 ecx
  000e0	66 89 02	 mov	 WORD PTR [edx], ax
  000e3	8a 45 fe	 mov	 al, BYTE PTR _TargetCell$[ebp+2]
  000e6	88 42 02	 mov	 BYTE PTR [edx+2], al
  000e9	8b d4		 mov	 edx, esp
  000eb	0f b7 45 f8	 movzx	 eax, WORD PTR _SourceCell$[ebp]
  000ef	66 89 02	 mov	 WORD PTR [edx], ax
  000f2	8a 45 fa	 mov	 al, BYTE PTR _SourceCell$[ebp+2]
  000f5	88 42 02	 mov	 BYTE PTR [edx+2], al
  000f8	e8 00 00 00 00	 call	 ?SendItemUseToItemPacket@CPythonNetworkStream@@QAE_NUSItemPos@@0@Z ; CPythonNetworkStream::SendItemUseToItemPacket

; 681  : 	return Py_BuildNone();

  000fd	e8 00 00 00 00	 call	 ?Py_BuildNone@@YAPAU_object@@XZ ; Py_BuildNone

; 682  : }

  00102	5e		 pop	 esi
  00103	8b e5		 mov	 esp, ebp
  00105	5d		 pop	 ebp
  00106	c3		 ret	 0
?netSendItemUseToItemPacket@@YAPAU_object@@PAU1@0@Z ENDP ; netSendItemUseToItemPacket
_TEXT	ENDS
; Function compile flags: /Ogtp
; File C:\Anka2Project\Anka2Project\Source\Binary\source\UserInterface\PythonNetworkStreamModule.cpp
; File C:\Anka2Project\Anka2Project\Source\Binary\source\UserInterface\GameType.h
; File C:\Anka2Project\Anka2Project\Source\Binary\source\UserInterface\PythonNetworkStreamModule.cpp
; File C:\Anka2Project\Anka2Project\Source\Binary\source\UserInterface\GameType.h
; File C:\Anka2Project\Anka2Project\Source\Binary\source\UserInterface\PythonNetworkStreamModule.cpp
; File C:\Anka2Project\Anka2Project\Source\Binary\source\eterBase\Singleton.h
; File C:\Anka2Project\Anka2Project\Source\Binary\source\UserInterface\PythonNetworkStreamModule.cpp
;	COMDAT ?netSendItemDropPacket@@YAPAU_object@@PAU1@0@Z
_TEXT	SEGMENT
_Cell$ = -4						; size = 3
_poSelf$ = 8						; size = 4
_poArgs$ = 12						; size = 4
?netSendItemDropPacket@@YAPAU_object@@PAU1@0@Z PROC	; netSendItemDropPacket, COMDAT

; 685  : {

  00000	55		 push	 ebp
  00001	8b ec		 mov	 ebp, esp
  00003	51		 push	 ecx
  00004	56		 push	 esi

; 687  : 	switch (PyTuple_Size(poArgs))

  00005	8b 75 0c	 mov	 esi, DWORD PTR _poArgs$[ebp]
; File C:\Anka2Project\Anka2Project\Source\Binary\source\UserInterface\GameType.h

; 448  : 		cell = WORD_MAX;

  00008	b8 ff ff 00 00	 mov	 eax, 65535		; 0000ffffH
; File C:\Anka2Project\Anka2Project\Source\Binary\source\UserInterface\PythonNetworkStreamModule.cpp

; 687  : 	switch (PyTuple_Size(poArgs))

  0000d	56		 push	 esi
; File C:\Anka2Project\Anka2Project\Source\Binary\source\UserInterface\GameType.h

; 447  : 		window_type = INVENTORY;

  0000e	c6 45 fc 01	 mov	 BYTE PTR _Cell$[ebp], 1

; 448  : 		cell = WORD_MAX;

  00012	66 89 45 fd	 mov	 WORD PTR _Cell$[ebp+1], ax
; File C:\Anka2Project\Anka2Project\Source\Binary\source\UserInterface\PythonNetworkStreamModule.cpp

; 687  : 	switch (PyTuple_Size(poArgs))

  00016	ff 15 00 00 00
	00		 call	 DWORD PTR __imp__PyTuple_Size
  0001c	83 c4 04	 add	 esp, 4
  0001f	83 e8 01	 sub	 eax, 1
  00022	74 20		 je	 SHORT $LN4@netSendIte
  00024	83 e8 01	 sub	 eax, 1
  00027	75 2e		 jne	 SHORT $LN16@netSendIte

; 691  : 			return Py_BuildException();
; 692  : 		break;
; 693  : 	case 2:
; 694  : 		if (!PyTuple_GetByte(poArgs, 0, &Cell.window_type))

  00029	8d 45 fc	 lea	 eax, DWORD PTR _Cell$[ebp]
  0002c	50		 push	 eax
  0002d	6a 00		 push	 0
  0002f	56		 push	 esi
  00030	e8 00 00 00 00	 call	 ?PyTuple_GetByte@@YA_NPAU_object@@HPAE@Z ; PyTuple_GetByte
  00035	83 c4 0c	 add	 esp, 12			; 0000000cH
  00038	84 c0		 test	 al, al
  0003a	74 1b		 je	 SHORT $LN16@netSendIte

; 695  : 			return Py_BuildException();
; 696  : 		if (!PyTuple_GetInteger(poArgs, 1, &Cell.cell))

  0003c	8d 45 fd	 lea	 eax, DWORD PTR _Cell$[ebp+1]
  0003f	50		 push	 eax
  00040	6a 01		 push	 1

; 697  : 			return Py_BuildException();

  00042	eb 06		 jmp	 SHORT $LN17@netSendIte
$LN4@netSendIte:

; 688  : 	{
; 689  : 	case 1:
; 690  : 		if (!PyTuple_GetInteger(poArgs, 0, &Cell.cell))

  00044	8d 45 fd	 lea	 eax, DWORD PTR _Cell$[ebp+1]
  00047	50		 push	 eax
  00048	6a 00		 push	 0
$LN17@netSendIte:

; 707  : }

  0004a	56		 push	 esi
  0004b	e8 00 00 00 00	 call	 ?PyTuple_GetInteger@@YA_NPAU_object@@HPAG@Z ; PyTuple_GetInteger
  00050	83 c4 0c	 add	 esp, 12			; 0000000cH
  00053	84 c0		 test	 al, al
  00055	75 0f		 jne	 SHORT $LN5@netSendIte
$LN16@netSendIte:
  00057	6a 00		 push	 0
  00059	e8 00 00 00 00	 call	 ?Py_BuildException@@YAPAU_object@@PBDZZ ; Py_BuildException
  0005e	83 c4 04	 add	 esp, 4
  00061	5e		 pop	 esi
  00062	8b e5		 mov	 esp, ebp
  00064	5d		 pop	 ebp
  00065	c3		 ret	 0
$LN5@netSendIte:
; File C:\Anka2Project\Anka2Project\Source\Binary\source\eterBase\Singleton.h

; 26   : 		assert(ms_singleton);

  00066	8b 0d 00 00 00
	00		 mov	 ecx, DWORD PTR ?ms_singleton@?$CSingleton@VCPythonNetworkStream@@@@0PAVCPythonNetworkStream@@A ; CSingleton<CPythonNetworkStream>::ms_singleton
  0006c	85 c9		 test	 ecx, ecx
  0006e	75 1a		 jne	 SHORT $LN15@netSendIte
  00070	6a 1a		 push	 26			; 0000001aH
  00072	68 00 00 00 00	 push	 OFFSET ??_C@_1IO@CAJLEEOI@?$AAC?$AA?3?$AA?2?$AAA?$AAn?$AAk?$AAa?$AA2?$AAP?$AAr?$AAo?$AAj?$AAe?$AAc?$AAt@
  00077	68 00 00 00 00	 push	 OFFSET ??_C@_1BK@FMEHPMFE@?$AAm?$AAs?$AA_?$AAs?$AAi?$AAn?$AAg?$AAl?$AAe?$AAt?$AAo?$AAn@
  0007c	e8 00 00 00 00	 call	 __wassert
  00081	8b 0d 00 00 00
	00		 mov	 ecx, DWORD PTR ?ms_singleton@?$CSingleton@VCPythonNetworkStream@@@@0PAVCPythonNetworkStream@@A ; CSingleton<CPythonNetworkStream>::ms_singleton
  00087	83 c4 0c	 add	 esp, 12			; 0000000cH
$LN15@netSendIte:
; File C:\Anka2Project\Anka2Project\Source\Binary\source\UserInterface\PythonNetworkStreamModule.cpp

; 705  : 	rkNetStream.SendItemDropPacket(Cell, 0);

  0008a	66 8b 45 fc	 mov	 ax, WORD PTR _Cell$[ebp]
  0008e	6a 00		 push	 0
  00090	51		 push	 ecx
  00091	8b d4		 mov	 edx, esp
  00093	66 89 02	 mov	 WORD PTR [edx], ax
  00096	8a 45 fe	 mov	 al, BYTE PTR _Cell$[ebp+2]
  00099	88 42 02	 mov	 BYTE PTR [edx+2], al
  0009c	e8 00 00 00 00	 call	 ?SendItemDropPacket@CPythonNetworkStream@@QAE_NUSItemPos@@K@Z ; CPythonNetworkStream::SendItemDropPacket

; 706  : 	return Py_BuildNone();

  000a1	e8 00 00 00 00	 call	 ?Py_BuildNone@@YAPAU_object@@XZ ; Py_BuildNone

; 707  : }

  000a6	5e		 pop	 esi
  000a7	8b e5		 mov	 esp, ebp
  000a9	5d		 pop	 ebp
  000aa	c3		 ret	 0
?netSendItemDropPacket@@YAPAU_object@@PAU1@0@Z ENDP	; netSendItemDropPacket
_TEXT	ENDS
; Function compile flags: /Ogtp
; File C:\Anka2Project\Anka2Project\Source\Binary\source\UserInterface\PythonNetworkStreamModule.cpp
; File C:\Anka2Project\Anka2Project\Source\Binary\source\UserInterface\GameType.h
; File C:\Anka2Project\Anka2Project\Source\Binary\source\UserInterface\PythonNetworkStreamModule.cpp
; File C:\Anka2Project\Anka2Project\Source\Binary\source\UserInterface\GameType.h
; File C:\Anka2Project\Anka2Project\Source\Binary\source\UserInterface\PythonNetworkStreamModule.cpp
; File C:\Anka2Project\Anka2Project\Source\Binary\source\eterBase\Singleton.h
; File C:\Anka2Project\Anka2Project\Source\Binary\source\UserInterface\PythonNetworkStreamModule.cpp
;	COMDAT ?netSendItemDropPacketNew@@YAPAU_object@@PAU1@0@Z
_TEXT	SEGMENT
_count$ = -8						; size = 4
_Cell$ = -4						; size = 3
_poSelf$ = 8						; size = 4
_poArgs$ = 12						; size = 4
?netSendItemDropPacketNew@@YAPAU_object@@PAU1@0@Z PROC	; netSendItemDropPacketNew, COMDAT

; 710  : {

  00000	55		 push	 ebp
  00001	8b ec		 mov	 ebp, esp
  00003	83 ec 08	 sub	 esp, 8
  00006	56		 push	 esi

; 713  : 	switch (PyTuple_Size(poArgs))

  00007	8b 75 0c	 mov	 esi, DWORD PTR _poArgs$[ebp]
; File C:\Anka2Project\Anka2Project\Source\Binary\source\UserInterface\GameType.h

; 448  : 		cell = WORD_MAX;

  0000a	b8 ff ff 00 00	 mov	 eax, 65535		; 0000ffffH
; File C:\Anka2Project\Anka2Project\Source\Binary\source\UserInterface\PythonNetworkStreamModule.cpp

; 713  : 	switch (PyTuple_Size(poArgs))

  0000f	56		 push	 esi
; File C:\Anka2Project\Anka2Project\Source\Binary\source\UserInterface\GameType.h

; 447  : 		window_type = INVENTORY;

  00010	c6 45 fc 01	 mov	 BYTE PTR _Cell$[ebp], 1

; 448  : 		cell = WORD_MAX;

  00014	66 89 45 fd	 mov	 WORD PTR _Cell$[ebp+1], ax
; File C:\Anka2Project\Anka2Project\Source\Binary\source\UserInterface\PythonNetworkStreamModule.cpp

; 713  : 	switch (PyTuple_Size(poArgs))

  00018	ff 15 00 00 00
	00		 call	 DWORD PTR __imp__PyTuple_Size
  0001e	83 c4 04	 add	 esp, 4
  00021	83 e8 02	 sub	 eax, 2
  00024	74 4d		 je	 SHORT $LN4@netSendIte
  00026	83 e8 01	 sub	 eax, 1
  00029	75 39		 jne	 SHORT $LN26@netSendIte

; 719  : 			return Py_BuildException();
; 720  : 
; 721  : 		break;
; 722  : 	case 3:
; 723  : 		if (!PyTuple_GetByte(poArgs, 0, &Cell.window_type))

  0002b	8d 45 fc	 lea	 eax, DWORD PTR _Cell$[ebp]
  0002e	50		 push	 eax
  0002f	6a 00		 push	 0
  00031	56		 push	 esi
  00032	e8 00 00 00 00	 call	 ?PyTuple_GetByte@@YA_NPAU_object@@HPAE@Z ; PyTuple_GetByte
  00037	83 c4 0c	 add	 esp, 12			; 0000000cH
  0003a	84 c0		 test	 al, al
  0003c	74 26		 je	 SHORT $LN26@netSendIte

; 724  : 			return Py_BuildException();
; 725  : 		if (!PyTuple_GetInteger(poArgs, 1, &Cell.cell))

  0003e	8d 45 fd	 lea	 eax, DWORD PTR _Cell$[ebp+1]
  00041	50		 push	 eax
  00042	6a 01		 push	 1
  00044	56		 push	 esi
  00045	e8 00 00 00 00	 call	 ?PyTuple_GetInteger@@YA_NPAU_object@@HPAG@Z ; PyTuple_GetInteger
  0004a	83 c4 0c	 add	 esp, 12			; 0000000cH
  0004d	84 c0		 test	 al, al
  0004f	74 13		 je	 SHORT $LN26@netSendIte

; 726  : 			return Py_BuildException();
; 727  : 		if (!PyTuple_GetInteger(poArgs, 2, &count))

  00051	8d 45 f8	 lea	 eax, DWORD PTR _count$[ebp]
  00054	50		 push	 eax
  00055	6a 02		 push	 2
  00057	56		 push	 esi
  00058	e8 00 00 00 00	 call	 ?PyTuple_GetInteger@@YA_NPAU_object@@HPAH@Z ; PyTuple_GetInteger
  0005d	83 c4 0c	 add	 esp, 12			; 0000000cH
  00060	84 c0		 test	 al, al
  00062	75 35		 jne	 SHORT $LN6@netSendIte
$LN26@netSendIte:

; 737  : }

  00064	6a 00		 push	 0
  00066	e8 00 00 00 00	 call	 ?Py_BuildException@@YAPAU_object@@PBDZZ ; Py_BuildException
  0006b	83 c4 04	 add	 esp, 4
  0006e	5e		 pop	 esi
  0006f	8b e5		 mov	 esp, ebp
  00071	5d		 pop	 ebp
  00072	c3		 ret	 0
$LN4@netSendIte:

; 714  : 	{
; 715  : 	case 2:
; 716  : 		if (!PyTuple_GetInteger(poArgs, 0, &Cell.cell))

  00073	8d 45 fd	 lea	 eax, DWORD PTR _Cell$[ebp+1]
  00076	50		 push	 eax
  00077	6a 00		 push	 0
  00079	56		 push	 esi
  0007a	e8 00 00 00 00	 call	 ?PyTuple_GetInteger@@YA_NPAU_object@@HPAG@Z ; PyTuple_GetInteger
  0007f	83 c4 0c	 add	 esp, 12			; 0000000cH
  00082	84 c0		 test	 al, al
  00084	74 de		 je	 SHORT $LN26@netSendIte

; 717  : 			return Py_BuildException();
; 718  : 		if (!PyTuple_GetInteger(poArgs, 1, &count))

  00086	8d 45 f8	 lea	 eax, DWORD PTR _count$[ebp]
  00089	50		 push	 eax
  0008a	6a 01		 push	 1
  0008c	56		 push	 esi
  0008d	e8 00 00 00 00	 call	 ?PyTuple_GetInteger@@YA_NPAU_object@@HPAH@Z ; PyTuple_GetInteger
  00092	83 c4 0c	 add	 esp, 12			; 0000000cH
  00095	84 c0		 test	 al, al
  00097	74 cb		 je	 SHORT $LN26@netSendIte
$LN6@netSendIte:
; File C:\Anka2Project\Anka2Project\Source\Binary\source\eterBase\Singleton.h

; 26   : 		assert(ms_singleton);

  00099	8b 0d 00 00 00
	00		 mov	 ecx, DWORD PTR ?ms_singleton@?$CSingleton@VCPythonNetworkStream@@@@0PAVCPythonNetworkStream@@A ; CSingleton<CPythonNetworkStream>::ms_singleton
  0009f	85 c9		 test	 ecx, ecx
  000a1	75 1a		 jne	 SHORT $LN17@netSendIte
  000a3	6a 1a		 push	 26			; 0000001aH
  000a5	68 00 00 00 00	 push	 OFFSET ??_C@_1IO@CAJLEEOI@?$AAC?$AA?3?$AA?2?$AAA?$AAn?$AAk?$AAa?$AA2?$AAP?$AAr?$AAo?$AAj?$AAe?$AAc?$AAt@
  000aa	68 00 00 00 00	 push	 OFFSET ??_C@_1BK@FMEHPMFE@?$AAm?$AAs?$AA_?$AAs?$AAi?$AAn?$AAg?$AAl?$AAe?$AAt?$AAo?$AAn@
  000af	e8 00 00 00 00	 call	 __wassert
  000b4	8b 0d 00 00 00
	00		 mov	 ecx, DWORD PTR ?ms_singleton@?$CSingleton@VCPythonNetworkStream@@@@0PAVCPythonNetworkStream@@A ; CSingleton<CPythonNetworkStream>::ms_singleton
  000ba	83 c4 0c	 add	 esp, 12			; 0000000cH
$LN17@netSendIte:
; File C:\Anka2Project\Anka2Project\Source\Binary\source\UserInterface\PythonNetworkStreamModule.cpp

; 735  : 	rkNetStream.SendItemDropPacketNew(Cell, 0, count);

  000bd	ff 75 f8	 push	 DWORD PTR _count$[ebp]
  000c0	66 8b 45 fc	 mov	 ax, WORD PTR _Cell$[ebp]
  000c4	6a 00		 push	 0
  000c6	51		 push	 ecx
  000c7	8b d4		 mov	 edx, esp
  000c9	66 89 02	 mov	 WORD PTR [edx], ax
  000cc	8a 45 fe	 mov	 al, BYTE PTR _Cell$[ebp+2]
  000cf	88 42 02	 mov	 BYTE PTR [edx+2], al
  000d2	e8 00 00 00 00	 call	 ?SendItemDropPacketNew@CPythonNetworkStream@@QAE_NUSItemPos@@KK@Z ; CPythonNetworkStream::SendItemDropPacketNew

; 736  : 	return Py_BuildNone();

  000d7	e8 00 00 00 00	 call	 ?Py_BuildNone@@YAPAU_object@@XZ ; Py_BuildNone

; 737  : }

  000dc	5e		 pop	 esi
  000dd	8b e5		 mov	 esp, ebp
  000df	5d		 pop	 ebp
  000e0	c3		 ret	 0
?netSendItemDropPacketNew@@YAPAU_object@@PAU1@0@Z ENDP	; netSendItemDropPacketNew
_TEXT	ENDS
; Function compile flags: /Ogtp
; File C:\Anka2Project\Anka2Project\Source\Binary\source\UserInterface\PythonNetworkStreamModule.cpp
; File C:\Anka2Project\Anka2Project\Source\Binary\source\UserInterface\GameType.h
; File C:\Anka2Project\Anka2Project\Source\Binary\source\UserInterface\PythonNetworkStreamModule.cpp
; File C:\Anka2Project\Anka2Project\Source\Binary\source\UserInterface\GameType.h
; File C:\Anka2Project\Anka2Project\Source\Binary\source\UserInterface\PythonNetworkStreamModule.cpp
; File C:\Anka2Project\Anka2Project\Source\Binary\source\eterBase\Singleton.h
; File C:\Anka2Project\Anka2Project\Source\Binary\source\UserInterface\PythonNetworkStreamModule.cpp
;	COMDAT ?netSendItemMovePacket@@YAPAU_object@@PAU1@0@Z
_TEXT	SEGMENT
_num$ = -12						; size = 4
_Cell$ = -8						; size = 3
_ChangeCell$ = -4					; size = 3
_poSelf$ = 8						; size = 4
_poArgs$ = 12						; size = 4
?netSendItemMovePacket@@YAPAU_object@@PAU1@0@Z PROC	; netSendItemMovePacket, COMDAT

; 762  : {

  00000	55		 push	 ebp
  00001	8b ec		 mov	 ebp, esp
  00003	83 ec 0c	 sub	 esp, 12			; 0000000cH
  00006	56		 push	 esi

; 767  : 	switch (PyTuple_Size(poArgs))

  00007	8b 75 0c	 mov	 esi, DWORD PTR _poArgs$[ebp]
; File C:\Anka2Project\Anka2Project\Source\Binary\source\UserInterface\GameType.h

; 448  : 		cell = WORD_MAX;

  0000a	b8 ff ff 00 00	 mov	 eax, 65535		; 0000ffffH
; File C:\Anka2Project\Anka2Project\Source\Binary\source\UserInterface\PythonNetworkStreamModule.cpp

; 767  : 	switch (PyTuple_Size(poArgs))

  0000f	56		 push	 esi
; File C:\Anka2Project\Anka2Project\Source\Binary\source\UserInterface\GameType.h

; 447  : 		window_type = INVENTORY;

  00010	c6 45 f8 01	 mov	 BYTE PTR _Cell$[ebp], 1

; 448  : 		cell = WORD_MAX;

  00014	66 89 45 f9	 mov	 WORD PTR _Cell$[ebp+1], ax

; 447  : 		window_type = INVENTORY;

  00018	c6 45 fc 01	 mov	 BYTE PTR _ChangeCell$[ebp], 1

; 448  : 		cell = WORD_MAX;

  0001c	66 89 45 fd	 mov	 WORD PTR _ChangeCell$[ebp+1], ax
; File C:\Anka2Project\Anka2Project\Source\Binary\source\UserInterface\PythonNetworkStreamModule.cpp

; 767  : 	switch (PyTuple_Size(poArgs))

  00020	ff 15 00 00 00
	00		 call	 DWORD PTR __imp__PyTuple_Size
  00026	83 c4 04	 add	 esp, 4
  00029	83 e8 03	 sub	 eax, 3
  0002c	74 73		 je	 SHORT $LN4@netSendIte
  0002e	83 e8 02	 sub	 eax, 2
  00031	75 5f		 jne	 SHORT $LN34@netSendIte

; 775  : 			return Py_BuildException();
; 776  : 		break;
; 777  : 	case 5:
; 778  : 		{
; 779  : 			if (!PyTuple_GetByte(poArgs, 0, &Cell.window_type))

  00033	8d 45 f8	 lea	 eax, DWORD PTR _Cell$[ebp]
  00036	50		 push	 eax
  00037	6a 00		 push	 0
  00039	56		 push	 esi
  0003a	e8 00 00 00 00	 call	 ?PyTuple_GetByte@@YA_NPAU_object@@HPAE@Z ; PyTuple_GetByte
  0003f	83 c4 0c	 add	 esp, 12			; 0000000cH
  00042	84 c0		 test	 al, al
  00044	74 4c		 je	 SHORT $LN34@netSendIte

; 780  : 				return Py_BuildException();
; 781  : 			if (!PyTuple_GetInteger(poArgs, 1, &Cell.cell))

  00046	8d 45 f9	 lea	 eax, DWORD PTR _Cell$[ebp+1]
  00049	50		 push	 eax
  0004a	6a 01		 push	 1
  0004c	56		 push	 esi
  0004d	e8 00 00 00 00	 call	 ?PyTuple_GetInteger@@YA_NPAU_object@@HPAG@Z ; PyTuple_GetInteger
  00052	83 c4 0c	 add	 esp, 12			; 0000000cH
  00055	84 c0		 test	 al, al
  00057	74 39		 je	 SHORT $LN34@netSendIte

; 782  : 				return Py_BuildException();
; 783  : 			if (!PyTuple_GetByte(poArgs, 2, &ChangeCell.window_type))

  00059	8d 45 fc	 lea	 eax, DWORD PTR _ChangeCell$[ebp]
  0005c	50		 push	 eax
  0005d	6a 02		 push	 2
  0005f	56		 push	 esi
  00060	e8 00 00 00 00	 call	 ?PyTuple_GetByte@@YA_NPAU_object@@HPAE@Z ; PyTuple_GetByte
  00065	83 c4 0c	 add	 esp, 12			; 0000000cH
  00068	84 c0		 test	 al, al
  0006a	74 26		 je	 SHORT $LN34@netSendIte

; 784  : 				return Py_BuildException();
; 785  : 			if (!PyTuple_GetInteger(poArgs, 3, &ChangeCell.cell))

  0006c	8d 45 fd	 lea	 eax, DWORD PTR _ChangeCell$[ebp+1]
  0006f	50		 push	 eax
  00070	6a 03		 push	 3
  00072	56		 push	 esi
  00073	e8 00 00 00 00	 call	 ?PyTuple_GetInteger@@YA_NPAU_object@@HPAG@Z ; PyTuple_GetInteger
  00078	83 c4 0c	 add	 esp, 12			; 0000000cH
  0007b	84 c0		 test	 al, al
  0007d	74 13		 je	 SHORT $LN34@netSendIte

; 786  : 				return Py_BuildException();
; 787  : 			if (!PyTuple_GetInteger(poArgs, 4, &num))

  0007f	8d 45 f4	 lea	 eax, DWORD PTR _num$[ebp]
  00082	50		 push	 eax
  00083	6a 04		 push	 4
  00085	56		 push	 esi
  00086	e8 00 00 00 00	 call	 ?PyTuple_GetInteger@@YA_NPAU_object@@HPAH@Z ; PyTuple_GetInteger
  0008b	83 c4 0c	 add	 esp, 12			; 0000000cH
  0008e	84 c0		 test	 al, al
  00090	75 48		 jne	 SHORT $LN7@netSendIte
$LN34@netSendIte:

; 802  : }

  00092	6a 00		 push	 0
  00094	e8 00 00 00 00	 call	 ?Py_BuildException@@YAPAU_object@@PBDZZ ; Py_BuildException
  00099	83 c4 04	 add	 esp, 4
  0009c	5e		 pop	 esi
  0009d	8b e5		 mov	 esp, ebp
  0009f	5d		 pop	 ebp
  000a0	c3		 ret	 0
$LN4@netSendIte:

; 768  : 	{
; 769  : 	case 3:
; 770  : 		if (!PyTuple_GetInteger(poArgs, 0, &Cell.cell))

  000a1	8d 45 f9	 lea	 eax, DWORD PTR _Cell$[ebp+1]
  000a4	50		 push	 eax
  000a5	6a 00		 push	 0
  000a7	56		 push	 esi
  000a8	e8 00 00 00 00	 call	 ?PyTuple_GetInteger@@YA_NPAU_object@@HPAG@Z ; PyTuple_GetInteger
  000ad	83 c4 0c	 add	 esp, 12			; 0000000cH
  000b0	84 c0		 test	 al, al
  000b2	74 de		 je	 SHORT $LN34@netSendIte

; 771  : 			return Py_BuildException();
; 772  : 		if (!PyTuple_GetInteger(poArgs, 1, &ChangeCell.cell))

  000b4	8d 45 fd	 lea	 eax, DWORD PTR _ChangeCell$[ebp+1]
  000b7	50		 push	 eax
  000b8	6a 01		 push	 1
  000ba	56		 push	 esi
  000bb	e8 00 00 00 00	 call	 ?PyTuple_GetInteger@@YA_NPAU_object@@HPAG@Z ; PyTuple_GetInteger
  000c0	83 c4 0c	 add	 esp, 12			; 0000000cH
  000c3	84 c0		 test	 al, al
  000c5	74 cb		 je	 SHORT $LN34@netSendIte

; 773  : 			return Py_BuildException();
; 774  : 		if (!PyTuple_GetInteger(poArgs, 2, &num))

  000c7	8d 45 f4	 lea	 eax, DWORD PTR _num$[ebp]
  000ca	50		 push	 eax
  000cb	6a 02		 push	 2
  000cd	56		 push	 esi
  000ce	e8 00 00 00 00	 call	 ?PyTuple_GetInteger@@YA_NPAU_object@@HPAH@Z ; PyTuple_GetInteger
  000d3	83 c4 0c	 add	 esp, 12			; 0000000cH
  000d6	84 c0		 test	 al, al
  000d8	74 b8		 je	 SHORT $LN34@netSendIte
$LN7@netSendIte:
; File C:\Anka2Project\Anka2Project\Source\Binary\source\eterBase\Singleton.h

; 26   : 		assert(ms_singleton);

  000da	8b 0d 00 00 00
	00		 mov	 ecx, DWORD PTR ?ms_singleton@?$CSingleton@VCPythonNetworkStream@@@@0PAVCPythonNetworkStream@@A ; CSingleton<CPythonNetworkStream>::ms_singleton
  000e0	85 c9		 test	 ecx, ecx
  000e2	75 1a		 jne	 SHORT $LN22@netSendIte
  000e4	6a 1a		 push	 26			; 0000001aH
  000e6	68 00 00 00 00	 push	 OFFSET ??_C@_1IO@CAJLEEOI@?$AAC?$AA?3?$AA?2?$AAA?$AAn?$AAk?$AAa?$AA2?$AAP?$AAr?$AAo?$AAj?$AAe?$AAc?$AAt@
  000eb	68 00 00 00 00	 push	 OFFSET ??_C@_1BK@FMEHPMFE@?$AAm?$AAs?$AA_?$AAs?$AAi?$AAn?$AAg?$AAl?$AAe?$AAt?$AAo?$AAn@
  000f0	e8 00 00 00 00	 call	 __wassert
  000f5	8b 0d 00 00 00
	00		 mov	 ecx, DWORD PTR ?ms_singleton@?$CSingleton@VCPythonNetworkStream@@@@0PAVCPythonNetworkStream@@A ; CSingleton<CPythonNetworkStream>::ms_singleton
  000fb	83 c4 0c	 add	 esp, 12			; 0000000cH
$LN22@netSendIte:
; File C:\Anka2Project\Anka2Project\Source\Binary\source\UserInterface\PythonNetworkStreamModule.cpp

; 797  : 	rkNetStream.SendItemMovePacket(Cell, ChangeCell, (WORD) num);

  000fe	ff 75 f4	 push	 DWORD PTR _num$[ebp]
  00101	0f b7 45 fc	 movzx	 eax, WORD PTR _ChangeCell$[ebp]
  00105	51		 push	 ecx
  00106	8b d4		 mov	 edx, esp
  00108	51		 push	 ecx
  00109	66 89 02	 mov	 WORD PTR [edx], ax
  0010c	8a 45 fe	 mov	 al, BYTE PTR _ChangeCell$[ebp+2]
  0010f	88 42 02	 mov	 BYTE PTR [edx+2], al
  00112	8b d4		 mov	 edx, esp
  00114	0f b7 45 f8	 movzx	 eax, WORD PTR _Cell$[ebp]
  00118	66 89 02	 mov	 WORD PTR [edx], ax
  0011b	8a 45 fa	 mov	 al, BYTE PTR _Cell$[ebp+2]
  0011e	88 42 02	 mov	 BYTE PTR [edx+2], al
  00121	e8 00 00 00 00	 call	 ?SendItemMovePacket@CPythonNetworkStream@@QAE_NUSItemPos@@0G@Z ; CPythonNetworkStream::SendItemMovePacket

; 798  : #else
; 799  : 	rkNetStream.SendItemMovePacket(Cell, ChangeCell, (BYTE) num);
; 800  : #endif
; 801  : 	return Py_BuildNone();

  00126	e8 00 00 00 00	 call	 ?Py_BuildNone@@YAPAU_object@@XZ ; Py_BuildNone

; 802  : }

  0012b	5e		 pop	 esi
  0012c	8b e5		 mov	 esp, ebp
  0012e	5d		 pop	 ebp
  0012f	c3		 ret	 0
?netSendItemMovePacket@@YAPAU_object@@PAU1@0@Z ENDP	; netSendItemMovePacket
_TEXT	ENDS
; Function compile flags: /Ogtp
; File C:\Anka2Project\Anka2Project\Source\Binary\source\UserInterface\PythonNetworkStreamModule.cpp
; File C:\Anka2Project\Anka2Project\Source\Binary\source\UserInterface\GameType.h
; File C:\Anka2Project\Anka2Project\Source\Binary\source\UserInterface\PythonNetworkStreamModule.cpp
; File C:\Anka2Project\Anka2Project\Source\Binary\source\UserInterface\GameType.h
; File C:\Anka2Project\Anka2Project\Source\Binary\source\UserInterface\PythonNetworkStreamModule.cpp
; File C:\Anka2Project\Anka2Project\Source\Binary\source\eterBase\Singleton.h
; File C:\Anka2Project\Anka2Project\Source\Binary\source\UserInterface\PythonNetworkStreamModule.cpp
;	COMDAT ?netSendGiveItemPacket@@YAPAU_object@@PAU1@0@Z
_TEXT	SEGMENT
_iTargetVID$ = -12					; size = 4
_iItemCount$ = -8					; size = 4
_Cell$ = -4						; size = 3
_poSelf$ = 8						; size = 4
_poArgs$ = 12						; size = 4
?netSendGiveItemPacket@@YAPAU_object@@PAU1@0@Z PROC	; netSendGiveItemPacket, COMDAT

; 816  : {

  00000	55		 push	 ebp
  00001	8b ec		 mov	 ebp, esp
  00003	83 ec 0c	 sub	 esp, 12			; 0000000cH
  00006	56		 push	 esi

; 820  : 	switch (PyTuple_Size(poArgs))

  00007	8b 75 0c	 mov	 esi, DWORD PTR _poArgs$[ebp]
; File C:\Anka2Project\Anka2Project\Source\Binary\source\UserInterface\GameType.h

; 448  : 		cell = WORD_MAX;

  0000a	b8 ff ff 00 00	 mov	 eax, 65535		; 0000ffffH
; File C:\Anka2Project\Anka2Project\Source\Binary\source\UserInterface\PythonNetworkStreamModule.cpp

; 820  : 	switch (PyTuple_Size(poArgs))

  0000f	56		 push	 esi
; File C:\Anka2Project\Anka2Project\Source\Binary\source\UserInterface\GameType.h

; 447  : 		window_type = INVENTORY;

  00010	c6 45 fc 01	 mov	 BYTE PTR _Cell$[ebp], 1

; 448  : 		cell = WORD_MAX;

  00014	66 89 45 fd	 mov	 WORD PTR _Cell$[ebp+1], ax
; File C:\Anka2Project\Anka2Project\Source\Binary\source\UserInterface\PythonNetworkStreamModule.cpp

; 820  : 	switch (PyTuple_Size(poArgs))

  00018	ff 15 00 00 00
	00		 call	 DWORD PTR __imp__PyTuple_Size
  0001e	83 c4 04	 add	 esp, 4
  00021	83 e8 03	 sub	 eax, 3
  00024	74 64		 je	 SHORT $LN4@netSendGiv
  00026	83 e8 01	 sub	 eax, 1
  00029	0f 85 94 00 00
	00		 jne	 $LN7@netSendGiv

; 828  : 			return Py_BuildException();
; 829  : 		break;
; 830  : 	case 4:
; 831  : 		if (!PyTuple_GetInteger(poArgs, 0, &iTargetVID))

  0002f	8d 45 f4	 lea	 eax, DWORD PTR _iTargetVID$[ebp]
  00032	50		 push	 eax
  00033	6a 00		 push	 0
  00035	56		 push	 esi
  00036	e8 00 00 00 00	 call	 ?PyTuple_GetInteger@@YA_NPAU_object@@HPAH@Z ; PyTuple_GetInteger
  0003b	83 c4 0c	 add	 esp, 12			; 0000000cH
  0003e	84 c0		 test	 al, al
  00040	74 39		 je	 SHORT $LN30@netSendGiv

; 832  : 			return Py_BuildException();
; 833  : 		if (!PyTuple_GetByte(poArgs, 1, &Cell.window_type))

  00042	8d 45 fc	 lea	 eax, DWORD PTR _Cell$[ebp]
  00045	50		 push	 eax
  00046	6a 01		 push	 1
  00048	56		 push	 esi
  00049	e8 00 00 00 00	 call	 ?PyTuple_GetByte@@YA_NPAU_object@@HPAE@Z ; PyTuple_GetByte
  0004e	83 c4 0c	 add	 esp, 12			; 0000000cH
  00051	84 c0		 test	 al, al
  00053	74 26		 je	 SHORT $LN30@netSendGiv

; 834  : 			return Py_BuildException();
; 835  : 		if (!PyTuple_GetInteger(poArgs, 2, &Cell.cell))

  00055	8d 45 fd	 lea	 eax, DWORD PTR _Cell$[ebp+1]
  00058	50		 push	 eax
  00059	6a 02		 push	 2
  0005b	56		 push	 esi
  0005c	e8 00 00 00 00	 call	 ?PyTuple_GetInteger@@YA_NPAU_object@@HPAG@Z ; PyTuple_GetInteger
  00061	83 c4 0c	 add	 esp, 12			; 0000000cH
  00064	84 c0		 test	 al, al
  00066	74 13		 je	 SHORT $LN30@netSendGiv

; 836  : 			return Py_BuildException();
; 837  : 		if (!PyTuple_GetInteger(poArgs, 3, &iItemCount))

  00068	8d 45 f8	 lea	 eax, DWORD PTR _iItemCount$[ebp]
  0006b	50		 push	 eax
  0006c	6a 03		 push	 3
  0006e	56		 push	 esi
  0006f	e8 00 00 00 00	 call	 ?PyTuple_GetInteger@@YA_NPAU_object@@HPAH@Z ; PyTuple_GetInteger
  00074	83 c4 0c	 add	 esp, 12			; 0000000cH
  00077	84 c0		 test	 al, al
  00079	75 48		 jne	 SHORT $LN7@netSendGiv
$LN30@netSendGiv:

; 847  : }

  0007b	6a 00		 push	 0
  0007d	e8 00 00 00 00	 call	 ?Py_BuildException@@YAPAU_object@@PBDZZ ; Py_BuildException
  00082	83 c4 04	 add	 esp, 4
  00085	5e		 pop	 esi
  00086	8b e5		 mov	 esp, ebp
  00088	5d		 pop	 ebp
  00089	c3		 ret	 0
$LN4@netSendGiv:

; 821  : 	{
; 822  : 	case 3:
; 823  : 		if (!PyTuple_GetInteger(poArgs, 0, &iTargetVID))

  0008a	8d 45 f4	 lea	 eax, DWORD PTR _iTargetVID$[ebp]
  0008d	50		 push	 eax
  0008e	6a 00		 push	 0
  00090	56		 push	 esi
  00091	e8 00 00 00 00	 call	 ?PyTuple_GetInteger@@YA_NPAU_object@@HPAH@Z ; PyTuple_GetInteger
  00096	83 c4 0c	 add	 esp, 12			; 0000000cH
  00099	84 c0		 test	 al, al
  0009b	74 de		 je	 SHORT $LN30@netSendGiv

; 824  : 			return Py_BuildException();
; 825  : 		if (!PyTuple_GetInteger(poArgs, 1, &Cell.cell))

  0009d	8d 45 fd	 lea	 eax, DWORD PTR _Cell$[ebp+1]
  000a0	50		 push	 eax
  000a1	6a 01		 push	 1
  000a3	56		 push	 esi
  000a4	e8 00 00 00 00	 call	 ?PyTuple_GetInteger@@YA_NPAU_object@@HPAG@Z ; PyTuple_GetInteger
  000a9	83 c4 0c	 add	 esp, 12			; 0000000cH
  000ac	84 c0		 test	 al, al
  000ae	74 cb		 je	 SHORT $LN30@netSendGiv

; 826  : 			return Py_BuildException();
; 827  : 		if (!PyTuple_GetInteger(poArgs, 2, &iItemCount))

  000b0	8d 45 f8	 lea	 eax, DWORD PTR _iItemCount$[ebp]
  000b3	50		 push	 eax
  000b4	6a 02		 push	 2
  000b6	56		 push	 esi
  000b7	e8 00 00 00 00	 call	 ?PyTuple_GetInteger@@YA_NPAU_object@@HPAH@Z ; PyTuple_GetInteger
  000bc	83 c4 0c	 add	 esp, 12			; 0000000cH
  000bf	84 c0		 test	 al, al
  000c1	74 b8		 je	 SHORT $LN30@netSendGiv
$LN7@netSendGiv:
; File C:\Anka2Project\Anka2Project\Source\Binary\source\eterBase\Singleton.h

; 26   : 		assert(ms_singleton);

  000c3	8b 0d 00 00 00
	00		 mov	 ecx, DWORD PTR ?ms_singleton@?$CSingleton@VCPythonNetworkStream@@@@0PAVCPythonNetworkStream@@A ; CSingleton<CPythonNetworkStream>::ms_singleton
  000c9	85 c9		 test	 ecx, ecx
  000cb	75 1a		 jne	 SHORT $LN19@netSendGiv
  000cd	6a 1a		 push	 26			; 0000001aH
  000cf	68 00 00 00 00	 push	 OFFSET ??_C@_1IO@CAJLEEOI@?$AAC?$AA?3?$AA?2?$AAA?$AAn?$AAk?$AAa?$AA2?$AAP?$AAr?$AAo?$AAj?$AAe?$AAc?$AAt@
  000d4	68 00 00 00 00	 push	 OFFSET ??_C@_1BK@FMEHPMFE@?$AAm?$AAs?$AA_?$AAs?$AAi?$AAn?$AAg?$AAl?$AAe?$AAt?$AAo?$AAn@
  000d9	e8 00 00 00 00	 call	 __wassert
  000de	8b 0d 00 00 00
	00		 mov	 ecx, DWORD PTR ?ms_singleton@?$CSingleton@VCPythonNetworkStream@@@@0PAVCPythonNetworkStream@@A ; CSingleton<CPythonNetworkStream>::ms_singleton
  000e4	83 c4 0c	 add	 esp, 12			; 0000000cH
$LN19@netSendGiv:
; File C:\Anka2Project\Anka2Project\Source\Binary\source\UserInterface\PythonNetworkStreamModule.cpp

; 845  : 	rkNetStream.SendGiveItemPacket(iTargetVID, Cell, iItemCount);

  000e7	ff 75 f8	 push	 DWORD PTR _iItemCount$[ebp]
  000ea	66 8b 45 fc	 mov	 ax, WORD PTR _Cell$[ebp]
  000ee	51		 push	 ecx
  000ef	8b d4		 mov	 edx, esp
  000f1	ff 75 f4	 push	 DWORD PTR _iTargetVID$[ebp]
  000f4	66 89 02	 mov	 WORD PTR [edx], ax
  000f7	8a 45 fe	 mov	 al, BYTE PTR _Cell$[ebp+2]
  000fa	88 42 02	 mov	 BYTE PTR [edx+2], al
  000fd	e8 00 00 00 00	 call	 ?SendGiveItemPacket@CPythonNetworkStream@@QAE_NKUSItemPos@@H@Z ; CPythonNetworkStream::SendGiveItemPacket

; 846  : 	return Py_BuildNone();

  00102	e8 00 00 00 00	 call	 ?Py_BuildNone@@YAPAU_object@@XZ ; Py_BuildNone

; 847  : }

  00107	5e		 pop	 esi
  00108	8b e5		 mov	 esp, ebp
  0010a	5d		 pop	 ebp
  0010b	c3		 ret	 0
?netSendGiveItemPacket@@YAPAU_object@@PAU1@0@Z ENDP	; netSendGiveItemPacket
_TEXT	ENDS
; Function compile flags: /Ogtp
; File C:\Anka2Project\Anka2Project\Source\Binary\source\UserInterface\PythonNetworkStreamModule.cpp
; File C:\Anka2Project\Anka2Project\Source\Binary\source\eterBase\Singleton.h
; File C:\Anka2Project\Anka2Project\Source\Binary\source\UserInterface\PythonNetworkStreamModule.cpp
;	COMDAT ?netIsConnect@@YAPAU_object@@PAU1@0@Z
_TEXT	SEGMENT
_poSelf$ = 8						; size = 4
_poArgs$ = 12						; size = 4
?netIsConnect@@YAPAU_object@@PAU1@0@Z PROC		; netIsConnect, COMDAT
; File C:\Anka2Project\Anka2Project\Source\Binary\source\eterBase\Singleton.h

; 26   : 		assert(ms_singleton);

  00000	8b 0d 00 00 00
	00		 mov	 ecx, DWORD PTR ?ms_singleton@?$CSingleton@VCPythonNetworkStream@@@@0PAVCPythonNetworkStream@@A ; CSingleton<CPythonNetworkStream>::ms_singleton
  00006	85 c9		 test	 ecx, ecx
  00008	75 1a		 jne	 SHORT $LN5@netIsConne
  0000a	6a 1a		 push	 26			; 0000001aH
  0000c	68 00 00 00 00	 push	 OFFSET ??_C@_1IO@CAJLEEOI@?$AAC?$AA?3?$AA?2?$AAA?$AAn?$AAk?$AAa?$AA2?$AAP?$AAr?$AAo?$AAj?$AAe?$AAc?$AAt@
  00011	68 00 00 00 00	 push	 OFFSET ??_C@_1BK@FMEHPMFE@?$AAm?$AAs?$AA_?$AAs?$AAi?$AAn?$AAg?$AAl?$AAe?$AAt?$AAo?$AAn@
  00016	e8 00 00 00 00	 call	 __wassert
  0001b	8b 0d 00 00 00
	00		 mov	 ecx, DWORD PTR ?ms_singleton@?$CSingleton@VCPythonNetworkStream@@@@0PAVCPythonNetworkStream@@A ; CSingleton<CPythonNetworkStream>::ms_singleton
  00021	83 c4 0c	 add	 esp, 12			; 0000000cH
$LN5@netIsConne:
; File C:\Anka2Project\Anka2Project\Source\Binary\source\UserInterface\PythonNetworkStreamModule.cpp

; 995  : 	return Py_BuildValue("i", rkNetStream.IsOnline());

  00024	e8 00 00 00 00	 call	 ?IsOnline@CNetworkStream@@QAE_NXZ ; CNetworkStream::IsOnline
  00029	0f b6 c0	 movzx	 eax, al
  0002c	50		 push	 eax
  0002d	68 00 00 00 00	 push	 OFFSET ??_C@_01KBJDNOO@i@
  00032	ff 15 00 00 00
	00		 call	 DWORD PTR __imp__Py_BuildValue
  00038	83 c4 08	 add	 esp, 8

; 996  : }

  0003b	c3		 ret	 0
?netIsConnect@@YAPAU_object@@PAU1@0@Z ENDP		; netIsConnect
_TEXT	ENDS
; Function compile flags: /Ogtp
; File C:\Anka2Project\Anka2Project\Source\Binary\source\UserInterface\PythonNetworkStreamModule.cpp
; File C:\Anka2Project\Anka2Project\Source\Binary\source\UserInterface\AbstractSingleton.h
; File C:\Anka2Project\Anka2Project\Source\Binary\source\UserInterface\PythonNetworkStreamModule.cpp
; File C:\Anka2Project\Anka2Project\Source\Binary\source\UserInterface\AbstractSingleton.h
; File C:\Anka2Project\Anka2Project\Source\Binary\source\eterBase\Singleton.h
; File C:\Anka2Project\Anka2Project\Source\Binary\source\UserInterface\PythonNetworkStreamModule.cpp
;	COMDAT ?netSendPartyExitPacket@@YAPAU_object@@PAU1@0@Z
_TEXT	SEGMENT
_dwPID$ = -4						; size = 4
_poSelf$ = 8						; size = 4
_poArgs$ = 12						; size = 4
?netSendPartyExitPacket@@YAPAU_object@@PAU1@0@Z PROC	; netSendPartyExitPacket, COMDAT

; 1137 : {

  00000	55		 push	 ebp
  00001	8b ec		 mov	 ebp, esp
  00003	51		 push	 ecx
  00004	56		 push	 esi
; File C:\Anka2Project\Anka2Project\Source\Binary\source\UserInterface\AbstractSingleton.h

; 24   : 		assert(ms_singleton!=nullptr);

  00005	8b 35 00 00 00
	00		 mov	 esi, DWORD PTR ?ms_singleton@?$TAbstractSingleton@VIAbstractPlayer@@@@0PAVIAbstractPlayer@@A ; TAbstractSingleton<IAbstractPlayer>::ms_singleton
; File C:\Anka2Project\Anka2Project\Source\Binary\source\UserInterface\PythonNetworkStreamModule.cpp

; 1137 : {

  0000b	57		 push	 edi
; File C:\Anka2Project\Anka2Project\Source\Binary\source\UserInterface\AbstractSingleton.h

; 24   : 		assert(ms_singleton!=nullptr);

  0000c	85 f6		 test	 esi, esi
  0000e	75 1a		 jne	 SHORT $LN6@netSendPar
  00010	6a 18		 push	 24			; 00000018H
  00012	68 00 00 00 00	 push	 OFFSET ??_C@_1KI@FIPHLMOB@?$AAC?$AA?3?$AA?2?$AAA?$AAn?$AAk?$AAa?$AA2?$AAP?$AAr?$AAo?$AAj?$AAe?$AAc?$AAt@
  00017	68 00 00 00 00	 push	 OFFSET ??_C@_1CM@FPMBEAEA@?$AAm?$AAs?$AA_?$AAs?$AAi?$AAn?$AAg?$AAl?$AAe?$AAt?$AAo?$AAn?$AA?$CB?$AA?$DN?$AAn@
  0001c	e8 00 00 00 00	 call	 __wassert
  00021	8b 35 00 00 00
	00		 mov	 esi, DWORD PTR ?ms_singleton@?$TAbstractSingleton@VIAbstractPlayer@@@@0PAVIAbstractPlayer@@A ; TAbstractSingleton<IAbstractPlayer>::ms_singleton
  00027	83 c4 0c	 add	 esp, 12			; 0000000cH
$LN6@netSendPar:
; File C:\Anka2Project\Anka2Project\Source\Binary\source\eterBase\Singleton.h

; 26   : 		assert(ms_singleton);

  0002a	8b 3d 00 00 00
	00		 mov	 edi, DWORD PTR ?ms_singleton@?$CSingleton@VCPythonNetworkStream@@@@0PAVCPythonNetworkStream@@A ; CSingleton<CPythonNetworkStream>::ms_singleton
  00030	85 ff		 test	 edi, edi
  00032	75 1a		 jne	 SHORT $LN9@netSendPar
  00034	6a 1a		 push	 26			; 0000001aH
  00036	68 00 00 00 00	 push	 OFFSET ??_C@_1IO@CAJLEEOI@?$AAC?$AA?3?$AA?2?$AAA?$AAn?$AAk?$AAa?$AA2?$AAP?$AAr?$AAo?$AAj?$AAe?$AAc?$AAt@
  0003b	68 00 00 00 00	 push	 OFFSET ??_C@_1BK@FMEHPMFE@?$AAm?$AAs?$AA_?$AAs?$AAi?$AAn?$AAg?$AAl?$AAe?$AAt?$AAo?$AAn@
  00040	e8 00 00 00 00	 call	 __wassert
  00045	8b 3d 00 00 00
	00		 mov	 edi, DWORD PTR ?ms_singleton@?$CSingleton@VCPythonNetworkStream@@@@0PAVCPythonNetworkStream@@A ; CSingleton<CPythonNetworkStream>::ms_singleton
  0004b	83 c4 0c	 add	 esp, 12			; 0000000cH
$LN9@netSendPar:
; File C:\Anka2Project\Anka2Project\Source\Binary\source\UserInterface\PythonNetworkStreamModule.cpp

; 1142 : 	DWORD dwVID = rPlayer.GetMainCharacterIndex();

  0004e	8b 06		 mov	 eax, DWORD PTR [esi]
  00050	8b ce		 mov	 ecx, esi
  00052	ff 50 04	 call	 DWORD PTR [eax+4]

; 1143 : 	DWORD dwPID;
; 1144 : 	if (rPlayer.PartyMemberVIDToPID(dwVID, &dwPID))

  00055	8b 16		 mov	 edx, DWORD PTR [esi]
  00057	8d 4d fc	 lea	 ecx, DWORD PTR _dwPID$[ebp]
  0005a	51		 push	 ecx
  0005b	50		 push	 eax
  0005c	8b ce		 mov	 ecx, esi
  0005e	8b 52 2c	 mov	 edx, DWORD PTR [edx+44]
  00061	ff d2		 call	 edx
  00063	84 c0		 test	 al, al
  00065	74 0a		 je	 SHORT $LN2@netSendPar

; 1145 : 		rns.SendPartyRemovePacket(dwPID);

  00067	ff 75 fc	 push	 DWORD PTR _dwPID$[ebp]
  0006a	8b cf		 mov	 ecx, edi
  0006c	e8 00 00 00 00	 call	 ?SendPartyRemovePacket@CPythonNetworkStream@@QAE_NK@Z ; CPythonNetworkStream::SendPartyRemovePacket
$LN2@netSendPar:

; 1146 : 
; 1147 : 	return Py_BuildNone();

  00071	e8 00 00 00 00	 call	 ?Py_BuildNone@@YAPAU_object@@XZ ; Py_BuildNone
  00076	5f		 pop	 edi
  00077	5e		 pop	 esi

; 1148 : }

  00078	8b e5		 mov	 esp, ebp
  0007a	5d		 pop	 ebp
  0007b	c3		 ret	 0
?netSendPartyExitPacket@@YAPAU_object@@PAU1@0@Z ENDP	; netSendPartyExitPacket
_TEXT	ENDS
; Function compile flags: /Ogtp
; File C:\Anka2Project\Anka2Project\Source\Binary\source\UserInterface\PythonNetworkStreamModule.cpp
; File C:\Anka2Project\Anka2Project\Source\Binary\source\UserInterface\GameType.h
; File C:\Anka2Project\Anka2Project\Source\Binary\source\UserInterface\PythonNetworkStreamModule.cpp
; File C:\Anka2Project\Anka2Project\Source\Binary\source\UserInterface\GameType.h
; File C:\Anka2Project\Anka2Project\Source\Binary\source\UserInterface\PythonNetworkStreamModule.cpp
; File C:\Anka2Project\Anka2Project\Source\Binary\source\eterBase\Singleton.h
; File C:\Anka2Project\Anka2Project\Source\Binary\source\UserInterface\PythonNetworkStreamModule.cpp
;	COMDAT ?netSendSafeboxCheckinPacket@@YAPAU_object@@PAU1@0@Z
_TEXT	SEGMENT
_iSafeBoxPos$ = -8					; size = 4
_InventoryPos$ = -4					; size = 3
_poSelf$ = 8						; size = 4
_poArgs$ = 12						; size = 4
?netSendSafeboxCheckinPacket@@YAPAU_object@@PAU1@0@Z PROC ; netSendSafeboxCheckinPacket, COMDAT

; 1232 : {

  00000	55		 push	 ebp
  00001	8b ec		 mov	 ebp, esp
  00003	83 ec 0c	 sub	 esp, 12			; 0000000cH
  00006	56		 push	 esi

; 1236 : 	switch (PyTuple_Size(poArgs))

  00007	8b 75 0c	 mov	 esi, DWORD PTR _poArgs$[ebp]
; File C:\Anka2Project\Anka2Project\Source\Binary\source\UserInterface\GameType.h

; 448  : 		cell = WORD_MAX;

  0000a	b8 ff ff 00 00	 mov	 eax, 65535		; 0000ffffH
; File C:\Anka2Project\Anka2Project\Source\Binary\source\UserInterface\PythonNetworkStreamModule.cpp

; 1236 : 	switch (PyTuple_Size(poArgs))

  0000f	56		 push	 esi
; File C:\Anka2Project\Anka2Project\Source\Binary\source\UserInterface\GameType.h

; 447  : 		window_type = INVENTORY;

  00010	c6 45 fc 01	 mov	 BYTE PTR _InventoryPos$[ebp], 1

; 448  : 		cell = WORD_MAX;

  00014	66 89 45 fd	 mov	 WORD PTR _InventoryPos$[ebp+1], ax
; File C:\Anka2Project\Anka2Project\Source\Binary\source\UserInterface\PythonNetworkStreamModule.cpp

; 1236 : 	switch (PyTuple_Size(poArgs))

  00018	ff 15 00 00 00
	00		 call	 DWORD PTR __imp__PyTuple_Size
  0001e	83 c4 04	 add	 esp, 4
  00021	83 e8 02	 sub	 eax, 2
  00024	74 4d		 je	 SHORT $LN4@netSendSaf
  00026	83 e8 01	 sub	 eax, 1
  00029	75 6e		 jne	 SHORT $LN6@netSendSaf

; 1243 : 			return Py_BuildException();
; 1244 : 		break;
; 1245 : 	case 3:
; 1246 : 		if (!PyTuple_GetInteger(poArgs, 0, &InventoryPos.window_type))

  0002b	8d 45 fc	 lea	 eax, DWORD PTR _InventoryPos$[ebp]
  0002e	50		 push	 eax
  0002f	6a 00		 push	 0
  00031	56		 push	 esi
  00032	e8 00 00 00 00	 call	 ?PyTuple_GetInteger@@YA_NPAU_object@@HPAE@Z ; PyTuple_GetInteger
  00037	83 c4 0c	 add	 esp, 12			; 0000000cH
  0003a	84 c0		 test	 al, al
  0003c	74 26		 je	 SHORT $LN17@netSendSaf

; 1247 : 			return Py_BuildException();
; 1248 : 		if (!PyTuple_GetInteger(poArgs, 1, &InventoryPos.cell))

  0003e	8d 45 fd	 lea	 eax, DWORD PTR _InventoryPos$[ebp+1]
  00041	50		 push	 eax
  00042	6a 01		 push	 1
  00044	56		 push	 esi
  00045	e8 00 00 00 00	 call	 ?PyTuple_GetInteger@@YA_NPAU_object@@HPAG@Z ; PyTuple_GetInteger
  0004a	83 c4 0c	 add	 esp, 12			; 0000000cH
  0004d	84 c0		 test	 al, al
  0004f	74 13		 je	 SHORT $LN17@netSendSaf

; 1249 : 			return Py_BuildException();
; 1250 : 		if (!PyTuple_GetInteger(poArgs, 2, &iSafeBoxPos))

  00051	8d 45 f8	 lea	 eax, DWORD PTR _iSafeBoxPos$[ebp]
  00054	50		 push	 eax
  00055	6a 02		 push	 2
  00057	56		 push	 esi
  00058	e8 00 00 00 00	 call	 ?PyTuple_GetInteger@@YA_NPAU_object@@HPAH@Z ; PyTuple_GetInteger
  0005d	83 c4 0c	 add	 esp, 12			; 0000000cH
  00060	84 c0		 test	 al, al
  00062	75 35		 jne	 SHORT $LN6@netSendSaf
$LN17@netSendSaf:

; 1260 : }

  00064	6a 00		 push	 0
  00066	e8 00 00 00 00	 call	 ?Py_BuildException@@YAPAU_object@@PBDZZ ; Py_BuildException
  0006b	83 c4 04	 add	 esp, 4
  0006e	5e		 pop	 esi
  0006f	8b e5		 mov	 esp, ebp
  00071	5d		 pop	 ebp
  00072	c3		 ret	 0
$LN4@netSendSaf:

; 1237 : 	{
; 1238 : 	case 2:
; 1239 : 		InventoryPos.window_type = INVENTORY;
; 1240 : 		if (!PyTuple_GetInteger(poArgs, 0, &InventoryPos.cell))

  00073	8d 45 fd	 lea	 eax, DWORD PTR _InventoryPos$[ebp+1]
  00076	50		 push	 eax
  00077	6a 00		 push	 0
  00079	56		 push	 esi
  0007a	e8 00 00 00 00	 call	 ?PyTuple_GetInteger@@YA_NPAU_object@@HPAG@Z ; PyTuple_GetInteger
  0007f	83 c4 0c	 add	 esp, 12			; 0000000cH
  00082	84 c0		 test	 al, al
  00084	74 de		 je	 SHORT $LN17@netSendSaf

; 1241 : 			return Py_BuildException();
; 1242 : 		if (!PyTuple_GetInteger(poArgs, 1, &iSafeBoxPos))

  00086	8d 45 f8	 lea	 eax, DWORD PTR _iSafeBoxPos$[ebp]
  00089	50		 push	 eax
  0008a	6a 01		 push	 1
  0008c	56		 push	 esi
  0008d	e8 00 00 00 00	 call	 ?PyTuple_GetInteger@@YA_NPAU_object@@HPAH@Z ; PyTuple_GetInteger
  00092	83 c4 0c	 add	 esp, 12			; 0000000cH
  00095	84 c0		 test	 al, al
  00097	74 cb		 je	 SHORT $LN17@netSendSaf
$LN6@netSendSaf:
; File C:\Anka2Project\Anka2Project\Source\Binary\source\eterBase\Singleton.h

; 26   : 		assert(ms_singleton);

  00099	8b 0d 00 00 00
	00		 mov	 ecx, DWORD PTR ?ms_singleton@?$CSingleton@VCPythonNetworkStream@@@@0PAVCPythonNetworkStream@@A ; CSingleton<CPythonNetworkStream>::ms_singleton
  0009f	85 c9		 test	 ecx, ecx
  000a1	75 1a		 jne	 SHORT $LN16@netSendSaf
  000a3	6a 1a		 push	 26			; 0000001aH
  000a5	68 00 00 00 00	 push	 OFFSET ??_C@_1IO@CAJLEEOI@?$AAC?$AA?3?$AA?2?$AAA?$AAn?$AAk?$AAa?$AA2?$AAP?$AAr?$AAo?$AAj?$AAe?$AAc?$AAt@
  000aa	68 00 00 00 00	 push	 OFFSET ??_C@_1BK@FMEHPMFE@?$AAm?$AAs?$AA_?$AAs?$AAi?$AAn?$AAg?$AAl?$AAe?$AAt?$AAo?$AAn@
  000af	e8 00 00 00 00	 call	 __wassert
  000b4	8b 0d 00 00 00
	00		 mov	 ecx, DWORD PTR ?ms_singleton@?$CSingleton@VCPythonNetworkStream@@@@0PAVCPythonNetworkStream@@A ; CSingleton<CPythonNetworkStream>::ms_singleton
  000ba	83 c4 0c	 add	 esp, 12			; 0000000cH
$LN16@netSendSaf:
; File C:\Anka2Project\Anka2Project\Source\Binary\source\UserInterface\PythonNetworkStreamModule.cpp

; 1257 : 	rns.SendSafeBoxCheckinPacket(InventoryPos, iSafeBoxPos);

  000bd	ff 75 f8	 push	 DWORD PTR _iSafeBoxPos$[ebp]
  000c0	66 8b 45 fc	 mov	 ax, WORD PTR _InventoryPos$[ebp]
  000c4	51		 push	 ecx
  000c5	8b d4		 mov	 edx, esp
  000c7	66 89 02	 mov	 WORD PTR [edx], ax
  000ca	8a 45 fe	 mov	 al, BYTE PTR _InventoryPos$[ebp+2]
  000cd	88 42 02	 mov	 BYTE PTR [edx+2], al
  000d0	e8 00 00 00 00	 call	 ?SendSafeBoxCheckinPacket@CPythonNetworkStream@@QAE_NUSItemPos@@K@Z ; CPythonNetworkStream::SendSafeBoxCheckinPacket

; 1258 : 
; 1259 : 	return Py_BuildNone();

  000d5	e8 00 00 00 00	 call	 ?Py_BuildNone@@YAPAU_object@@XZ ; Py_BuildNone

; 1260 : }

  000da	5e		 pop	 esi
  000db	8b e5		 mov	 esp, ebp
  000dd	5d		 pop	 ebp
  000de	c3		 ret	 0
?netSendSafeboxCheckinPacket@@YAPAU_object@@PAU1@0@Z ENDP ; netSendSafeboxCheckinPacket
_TEXT	ENDS
; Function compile flags: /Ogtp
; File C:\Anka2Project\Anka2Project\Source\Binary\source\UserInterface\PythonNetworkStreamModule.cpp
; File C:\Anka2Project\Anka2Project\Source\Binary\source\UserInterface\GameType.h
; File C:\Anka2Project\Anka2Project\Source\Binary\source\UserInterface\PythonNetworkStreamModule.cpp
; File C:\Anka2Project\Anka2Project\Source\Binary\source\UserInterface\GameType.h
; File C:\Anka2Project\Anka2Project\Source\Binary\source\UserInterface\PythonNetworkStreamModule.cpp
; File C:\Anka2Project\Anka2Project\Source\Binary\source\eterBase\Singleton.h
; File C:\Anka2Project\Anka2Project\Source\Binary\source\UserInterface\PythonNetworkStreamModule.cpp
;	COMDAT ?netSendSafeboxCheckoutPacket@@YAPAU_object@@PAU1@0@Z
_TEXT	SEGMENT
_iSafeBoxPos$ = -8					; size = 4
_InventoryPos$ = -4					; size = 3
_poSelf$ = 8						; size = 4
_poArgs$ = 12						; size = 4
?netSendSafeboxCheckoutPacket@@YAPAU_object@@PAU1@0@Z PROC ; netSendSafeboxCheckoutPacket, COMDAT

; 1263 : {

  00000	55		 push	 ebp
  00001	8b ec		 mov	 ebp, esp
  00003	83 ec 0c	 sub	 esp, 12			; 0000000cH
  00006	56		 push	 esi

; 1267 : 	switch (PyTuple_Size(poArgs))

  00007	8b 75 0c	 mov	 esi, DWORD PTR _poArgs$[ebp]
; File C:\Anka2Project\Anka2Project\Source\Binary\source\UserInterface\GameType.h

; 448  : 		cell = WORD_MAX;

  0000a	b8 ff ff 00 00	 mov	 eax, 65535		; 0000ffffH
; File C:\Anka2Project\Anka2Project\Source\Binary\source\UserInterface\PythonNetworkStreamModule.cpp

; 1267 : 	switch (PyTuple_Size(poArgs))

  0000f	56		 push	 esi
; File C:\Anka2Project\Anka2Project\Source\Binary\source\UserInterface\GameType.h

; 447  : 		window_type = INVENTORY;

  00010	c6 45 fc 01	 mov	 BYTE PTR _InventoryPos$[ebp], 1

; 448  : 		cell = WORD_MAX;

  00014	66 89 45 fd	 mov	 WORD PTR _InventoryPos$[ebp+1], ax
; File C:\Anka2Project\Anka2Project\Source\Binary\source\UserInterface\PythonNetworkStreamModule.cpp

; 1267 : 	switch (PyTuple_Size(poArgs))

  00018	ff 15 00 00 00
	00		 call	 DWORD PTR __imp__PyTuple_Size
  0001e	83 c4 04	 add	 esp, 4
  00021	83 e8 02	 sub	 eax, 2
  00024	74 4d		 je	 SHORT $LN4@netSendSaf
  00026	83 e8 01	 sub	 eax, 1
  00029	75 6e		 jne	 SHORT $LN6@netSendSaf

; 1273 : 			return Py_BuildException();
; 1274 : 		break;
; 1275 : 	case 3:
; 1276 : 		if (!PyTuple_GetInteger(poArgs, 0, &iSafeBoxPos))

  0002b	8d 45 f8	 lea	 eax, DWORD PTR _iSafeBoxPos$[ebp]
  0002e	50		 push	 eax
  0002f	6a 00		 push	 0
  00031	56		 push	 esi
  00032	e8 00 00 00 00	 call	 ?PyTuple_GetInteger@@YA_NPAU_object@@HPAH@Z ; PyTuple_GetInteger
  00037	83 c4 0c	 add	 esp, 12			; 0000000cH
  0003a	84 c0		 test	 al, al
  0003c	74 26		 je	 SHORT $LN18@netSendSaf

; 1277 : 			return Py_BuildException();
; 1278 : 		if (!PyTuple_GetInteger(poArgs, 1, &InventoryPos.window_type))

  0003e	8d 45 fc	 lea	 eax, DWORD PTR _InventoryPos$[ebp]
  00041	50		 push	 eax
  00042	6a 01		 push	 1
  00044	56		 push	 esi
  00045	e8 00 00 00 00	 call	 ?PyTuple_GetInteger@@YA_NPAU_object@@HPAE@Z ; PyTuple_GetInteger
  0004a	83 c4 0c	 add	 esp, 12			; 0000000cH
  0004d	84 c0		 test	 al, al
  0004f	74 13		 je	 SHORT $LN18@netSendSaf

; 1279 : 			return Py_BuildException();
; 1280 : 		if (!PyTuple_GetInteger(poArgs, 2, &InventoryPos.cell))

  00051	8d 45 fd	 lea	 eax, DWORD PTR _InventoryPos$[ebp+1]
  00054	50		 push	 eax
  00055	6a 02		 push	 2
  00057	56		 push	 esi
  00058	e8 00 00 00 00	 call	 ?PyTuple_GetInteger@@YA_NPAU_object@@HPAG@Z ; PyTuple_GetInteger
  0005d	83 c4 0c	 add	 esp, 12			; 0000000cH
  00060	84 c0		 test	 al, al
  00062	75 35		 jne	 SHORT $LN6@netSendSaf
$LN18@netSendSaf:

; 1291 : }

  00064	6a 00		 push	 0
  00066	e8 00 00 00 00	 call	 ?Py_BuildException@@YAPAU_object@@PBDZZ ; Py_BuildException
  0006b	83 c4 04	 add	 esp, 4
  0006e	5e		 pop	 esi
  0006f	8b e5		 mov	 esp, ebp
  00071	5d		 pop	 ebp
  00072	c3		 ret	 0
$LN4@netSendSaf:

; 1268 : 	{
; 1269 : 	case 2:
; 1270 : 		if (!PyTuple_GetInteger(poArgs, 0, &iSafeBoxPos))

  00073	8d 45 f8	 lea	 eax, DWORD PTR _iSafeBoxPos$[ebp]
  00076	50		 push	 eax
  00077	6a 00		 push	 0
  00079	56		 push	 esi
  0007a	e8 00 00 00 00	 call	 ?PyTuple_GetInteger@@YA_NPAU_object@@HPAH@Z ; PyTuple_GetInteger
  0007f	83 c4 0c	 add	 esp, 12			; 0000000cH
  00082	84 c0		 test	 al, al
  00084	74 de		 je	 SHORT $LN18@netSendSaf

; 1271 : 			return Py_BuildException();
; 1272 : 		if (!PyTuple_GetInteger(poArgs, 1, &InventoryPos.cell))

  00086	8d 45 fd	 lea	 eax, DWORD PTR _InventoryPos$[ebp+1]
  00089	50		 push	 eax
  0008a	6a 01		 push	 1
  0008c	56		 push	 esi
  0008d	e8 00 00 00 00	 call	 ?PyTuple_GetInteger@@YA_NPAU_object@@HPAG@Z ; PyTuple_GetInteger
  00092	83 c4 0c	 add	 esp, 12			; 0000000cH
  00095	84 c0		 test	 al, al
  00097	74 cb		 je	 SHORT $LN18@netSendSaf
$LN6@netSendSaf:
; File C:\Anka2Project\Anka2Project\Source\Binary\source\eterBase\Singleton.h

; 26   : 		assert(ms_singleton);

  00099	8b 0d 00 00 00
	00		 mov	 ecx, DWORD PTR ?ms_singleton@?$CSingleton@VCPythonNetworkStream@@@@0PAVCPythonNetworkStream@@A ; CSingleton<CPythonNetworkStream>::ms_singleton
  0009f	85 c9		 test	 ecx, ecx
  000a1	75 1a		 jne	 SHORT $LN17@netSendSaf
  000a3	6a 1a		 push	 26			; 0000001aH
  000a5	68 00 00 00 00	 push	 OFFSET ??_C@_1IO@CAJLEEOI@?$AAC?$AA?3?$AA?2?$AAA?$AAn?$AAk?$AAa?$AA2?$AAP?$AAr?$AAo?$AAj?$AAe?$AAc?$AAt@
  000aa	68 00 00 00 00	 push	 OFFSET ??_C@_1BK@FMEHPMFE@?$AAm?$AAs?$AA_?$AAs?$AAi?$AAn?$AAg?$AAl?$AAe?$AAt?$AAo?$AAn@
  000af	e8 00 00 00 00	 call	 __wassert
  000b4	8b 0d 00 00 00
	00		 mov	 ecx, DWORD PTR ?ms_singleton@?$CSingleton@VCPythonNetworkStream@@@@0PAVCPythonNetworkStream@@A ; CSingleton<CPythonNetworkStream>::ms_singleton
  000ba	83 c4 0c	 add	 esp, 12			; 0000000cH
$LN17@netSendSaf:
; File C:\Anka2Project\Anka2Project\Source\Binary\source\UserInterface\PythonNetworkStreamModule.cpp

; 1288 : 	rns.SendSafeBoxCheckoutPacket(iSafeBoxPos, InventoryPos);

  000bd	66 8b 45 fc	 mov	 ax, WORD PTR _InventoryPos$[ebp]
  000c1	51		 push	 ecx
  000c2	8b d4		 mov	 edx, esp
  000c4	ff 75 f8	 push	 DWORD PTR _iSafeBoxPos$[ebp]
  000c7	66 89 02	 mov	 WORD PTR [edx], ax
  000ca	8a 45 fe	 mov	 al, BYTE PTR _InventoryPos$[ebp+2]
  000cd	88 42 02	 mov	 BYTE PTR [edx+2], al
  000d0	e8 00 00 00 00	 call	 ?SendSafeBoxCheckoutPacket@CPythonNetworkStream@@QAE_NKUSItemPos@@@Z ; CPythonNetworkStream::SendSafeBoxCheckoutPacket

; 1289 : 
; 1290 : 	return Py_BuildNone();

  000d5	e8 00 00 00 00	 call	 ?Py_BuildNone@@YAPAU_object@@XZ ; Py_BuildNone

; 1291 : }

  000da	5e		 pop	 esi
  000db	8b e5		 mov	 esp, ebp
  000dd	5d		 pop	 ebp
  000de	c3		 ret	 0
?netSendSafeboxCheckoutPacket@@YAPAU_object@@PAU1@0@Z ENDP ; netSendSafeboxCheckoutPacket
_TEXT	ENDS
; Function compile flags: /Ogtp
; File C:\Anka2Project\Anka2Project\Source\Binary\source\UserInterface\PythonNetworkStreamModule.cpp
; File C:\Anka2Project\Anka2Project\Source\Binary\source\UserInterface\GameType.h
; File C:\Anka2Project\Anka2Project\Source\Binary\source\UserInterface\PythonNetworkStreamModule.cpp
; File C:\Anka2Project\Anka2Project\Source\Binary\source\UserInterface\GameType.h
; File C:\Anka2Project\Anka2Project\Source\Binary\source\UserInterface\PythonNetworkStreamModule.cpp
; File C:\Anka2Project\Anka2Project\Source\Binary\source\eterBase\Singleton.h
; File C:\Anka2Project\Anka2Project\Source\Binary\source\UserInterface\PythonNetworkStreamModule.cpp
;	COMDAT ?netSendMallCheckoutPacket@@YAPAU_object@@PAU1@0@Z
_TEXT	SEGMENT
_iMallPos$ = -8						; size = 4
_InventoryPos$ = -4					; size = 3
_poSelf$ = 8						; size = 4
_poArgs$ = 12						; size = 4
?netSendMallCheckoutPacket@@YAPAU_object@@PAU1@0@Z PROC	; netSendMallCheckoutPacket, COMDAT

; 1312 : {

  00000	55		 push	 ebp
  00001	8b ec		 mov	 ebp, esp
  00003	83 ec 0c	 sub	 esp, 12			; 0000000cH
  00006	56		 push	 esi

; 1316 : 	switch (PyTuple_Size(poArgs))

  00007	8b 75 0c	 mov	 esi, DWORD PTR _poArgs$[ebp]
; File C:\Anka2Project\Anka2Project\Source\Binary\source\UserInterface\GameType.h

; 448  : 		cell = WORD_MAX;

  0000a	b8 ff ff 00 00	 mov	 eax, 65535		; 0000ffffH
; File C:\Anka2Project\Anka2Project\Source\Binary\source\UserInterface\PythonNetworkStreamModule.cpp

; 1316 : 	switch (PyTuple_Size(poArgs))

  0000f	56		 push	 esi
; File C:\Anka2Project\Anka2Project\Source\Binary\source\UserInterface\GameType.h

; 447  : 		window_type = INVENTORY;

  00010	c6 45 fc 01	 mov	 BYTE PTR _InventoryPos$[ebp], 1

; 448  : 		cell = WORD_MAX;

  00014	66 89 45 fd	 mov	 WORD PTR _InventoryPos$[ebp+1], ax
; File C:\Anka2Project\Anka2Project\Source\Binary\source\UserInterface\PythonNetworkStreamModule.cpp

; 1316 : 	switch (PyTuple_Size(poArgs))

  00018	ff 15 00 00 00
	00		 call	 DWORD PTR __imp__PyTuple_Size
  0001e	83 c4 04	 add	 esp, 4
  00021	83 e8 02	 sub	 eax, 2
  00024	74 4d		 je	 SHORT $LN4@netSendMal
  00026	83 e8 01	 sub	 eax, 1
  00029	75 39		 jne	 SHORT $LN18@netSendMal

; 1322 : 			return Py_BuildException();
; 1323 : 		break;
; 1324 : 	case 3:
; 1325 : 		if (!PyTuple_GetInteger(poArgs, 0, &iMallPos))

  0002b	8d 45 f8	 lea	 eax, DWORD PTR _iMallPos$[ebp]
  0002e	50		 push	 eax
  0002f	6a 00		 push	 0
  00031	56		 push	 esi
  00032	e8 00 00 00 00	 call	 ?PyTuple_GetInteger@@YA_NPAU_object@@HPAH@Z ; PyTuple_GetInteger
  00037	83 c4 0c	 add	 esp, 12			; 0000000cH
  0003a	84 c0		 test	 al, al
  0003c	74 26		 je	 SHORT $LN18@netSendMal

; 1326 : 			return Py_BuildException();
; 1327 : 		if (!PyTuple_GetInteger(poArgs, 1, &InventoryPos.window_type))

  0003e	8d 45 fc	 lea	 eax, DWORD PTR _InventoryPos$[ebp]
  00041	50		 push	 eax
  00042	6a 01		 push	 1
  00044	56		 push	 esi
  00045	e8 00 00 00 00	 call	 ?PyTuple_GetInteger@@YA_NPAU_object@@HPAE@Z ; PyTuple_GetInteger
  0004a	83 c4 0c	 add	 esp, 12			; 0000000cH
  0004d	84 c0		 test	 al, al
  0004f	74 13		 je	 SHORT $LN18@netSendMal

; 1328 : 			return Py_BuildException();
; 1329 : 		if (!PyTuple_GetInteger(poArgs, 2, &InventoryPos.cell))

  00051	8d 45 fd	 lea	 eax, DWORD PTR _InventoryPos$[ebp+1]
  00054	50		 push	 eax
  00055	6a 02		 push	 2
  00057	56		 push	 esi
  00058	e8 00 00 00 00	 call	 ?PyTuple_GetInteger@@YA_NPAU_object@@HPAG@Z ; PyTuple_GetInteger
  0005d	83 c4 0c	 add	 esp, 12			; 0000000cH
  00060	84 c0		 test	 al, al
  00062	75 35		 jne	 SHORT $LN6@netSendMal
$LN18@netSendMal:

; 1339 : }

  00064	6a 00		 push	 0
  00066	e8 00 00 00 00	 call	 ?Py_BuildException@@YAPAU_object@@PBDZZ ; Py_BuildException
  0006b	83 c4 04	 add	 esp, 4
  0006e	5e		 pop	 esi
  0006f	8b e5		 mov	 esp, ebp
  00071	5d		 pop	 ebp
  00072	c3		 ret	 0
$LN4@netSendMal:

; 1317 : 	{
; 1318 : 	case 2:
; 1319 : 		if (!PyTuple_GetInteger(poArgs, 0, &iMallPos))

  00073	8d 45 f8	 lea	 eax, DWORD PTR _iMallPos$[ebp]
  00076	50		 push	 eax
  00077	6a 00		 push	 0
  00079	56		 push	 esi
  0007a	e8 00 00 00 00	 call	 ?PyTuple_GetInteger@@YA_NPAU_object@@HPAH@Z ; PyTuple_GetInteger
  0007f	83 c4 0c	 add	 esp, 12			; 0000000cH
  00082	84 c0		 test	 al, al
  00084	74 de		 je	 SHORT $LN18@netSendMal

; 1320 : 			return Py_BuildException();
; 1321 : 		if (!PyTuple_GetInteger(poArgs, 1, &InventoryPos.cell))

  00086	8d 45 fd	 lea	 eax, DWORD PTR _InventoryPos$[ebp+1]
  00089	50		 push	 eax
  0008a	6a 01		 push	 1
  0008c	56		 push	 esi
  0008d	e8 00 00 00 00	 call	 ?PyTuple_GetInteger@@YA_NPAU_object@@HPAG@Z ; PyTuple_GetInteger
  00092	83 c4 0c	 add	 esp, 12			; 0000000cH
  00095	84 c0		 test	 al, al
  00097	74 cb		 je	 SHORT $LN18@netSendMal
$LN6@netSendMal:
; File C:\Anka2Project\Anka2Project\Source\Binary\source\eterBase\Singleton.h

; 26   : 		assert(ms_singleton);

  00099	8b 0d 00 00 00
	00		 mov	 ecx, DWORD PTR ?ms_singleton@?$CSingleton@VCPythonNetworkStream@@@@0PAVCPythonNetworkStream@@A ; CSingleton<CPythonNetworkStream>::ms_singleton
  0009f	85 c9		 test	 ecx, ecx
  000a1	75 1a		 jne	 SHORT $LN17@netSendMal
  000a3	6a 1a		 push	 26			; 0000001aH
  000a5	68 00 00 00 00	 push	 OFFSET ??_C@_1IO@CAJLEEOI@?$AAC?$AA?3?$AA?2?$AAA?$AAn?$AAk?$AAa?$AA2?$AAP?$AAr?$AAo?$AAj?$AAe?$AAc?$AAt@
  000aa	68 00 00 00 00	 push	 OFFSET ??_C@_1BK@FMEHPMFE@?$AAm?$AAs?$AA_?$AAs?$AAi?$AAn?$AAg?$AAl?$AAe?$AAt?$AAo?$AAn@
  000af	e8 00 00 00 00	 call	 __wassert
  000b4	8b 0d 00 00 00
	00		 mov	 ecx, DWORD PTR ?ms_singleton@?$CSingleton@VCPythonNetworkStream@@@@0PAVCPythonNetworkStream@@A ; CSingleton<CPythonNetworkStream>::ms_singleton
  000ba	83 c4 0c	 add	 esp, 12			; 0000000cH
$LN17@netSendMal:
; File C:\Anka2Project\Anka2Project\Source\Binary\source\UserInterface\PythonNetworkStreamModule.cpp

; 1336 : 	rns.SendMallCheckoutPacket(iMallPos, InventoryPos);

  000bd	66 8b 45 fc	 mov	 ax, WORD PTR _InventoryPos$[ebp]
  000c1	51		 push	 ecx
  000c2	8b d4		 mov	 edx, esp
  000c4	ff 75 f8	 push	 DWORD PTR _iMallPos$[ebp]
  000c7	66 89 02	 mov	 WORD PTR [edx], ax
  000ca	8a 45 fe	 mov	 al, BYTE PTR _InventoryPos$[ebp+2]
  000cd	88 42 02	 mov	 BYTE PTR [edx+2], al
  000d0	e8 00 00 00 00	 call	 ?SendMallCheckoutPacket@CPythonNetworkStream@@QAE_NKUSItemPos@@@Z ; CPythonNetworkStream::SendMallCheckoutPacket

; 1337 : 
; 1338 : 	return Py_BuildNone();

  000d5	e8 00 00 00 00	 call	 ?Py_BuildNone@@YAPAU_object@@XZ ; Py_BuildNone

; 1339 : }

  000da	5e		 pop	 esi
  000db	8b e5		 mov	 esp, ebp
  000dd	5d		 pop	 ebp
  000de	c3		 ret	 0
?netSendMallCheckoutPacket@@YAPAU_object@@PAU1@0@Z ENDP	; netSendMallCheckoutPacket
_TEXT	ENDS
; Function compile flags: /Ogtp
; File C:\Anka2Project\Anka2Project\Source\Binary\source\UserInterface\PythonNetworkStreamModule.cpp
; File C:\Anka2Project\Anka2Project\Source\Binary\source\UserInterface\GameType.h
; File C:\Anka2Project\Anka2Project\Source\Binary\source\UserInterface\PythonNetworkStreamModule.cpp
; File C:\Anka2Project\Anka2Project\Source\Binary\source\UserInterface\GameType.h
; File C:\Anka2Project\Anka2Project\Source\Binary\source\UserInterface\PythonNetworkStreamModule.cpp
; File C:\Anka2Project\Anka2Project\Source\Binary\source\UserInterface\GameType.h
; File C:\Anka2Project\Anka2Project\Source\Binary\source\UserInterface\PythonNetworkStreamModule.cpp
; File C:\Anka2Project\Anka2Project\Source\Binary\source\eterBase\Singleton.h
; File C:\Anka2Project\Anka2Project\Source\Binary\source\UserInterface\PythonNetworkStreamModule.cpp
;	COMDAT ?netSendItemNewAttributePacket@@YAPAU_object@@PAU1@0@Z
_TEXT	SEGMENT
_source_pos$ = -20					; size = 3
_target_pos$ = -16					; size = 3
_bValues$ = -12						; size = 5
__$ArrayPad$ = -4					; size = 4
_poSelf$ = 8						; size = 4
_poArgs$ = 12						; size = 4
?netSendItemNewAttributePacket@@YAPAU_object@@PAU1@0@Z PROC ; netSendItemNewAttributePacket, COMDAT

; 1657 : {

  00000	55		 push	 ebp
  00001	8b ec		 mov	 ebp, esp
  00003	83 ec 14	 sub	 esp, 20			; 00000014H
  00006	a1 00 00 00 00	 mov	 eax, DWORD PTR ___security_cookie
  0000b	33 c5		 xor	 eax, ebp
  0000d	89 45 fc	 mov	 DWORD PTR __$ArrayPad$[ebp], eax
; File C:\Anka2Project\Anka2Project\Source\Binary\source\UserInterface\GameType.h

; 448  : 		cell = WORD_MAX;

  00010	b8 ff ff 00 00	 mov	 eax, 65535		; 0000ffffH
  00015	c6 45 ec 01	 mov	 BYTE PTR _source_pos$[ebp], 1
; File C:\Anka2Project\Anka2Project\Source\Binary\source\UserInterface\PythonNetworkStreamModule.cpp

; 1657 : {

  00019	56		 push	 esi
  0001a	8b 75 0c	 mov	 esi, DWORD PTR _poArgs$[ebp]
; File C:\Anka2Project\Anka2Project\Source\Binary\source\UserInterface\GameType.h

; 448  : 		cell = WORD_MAX;

  0001d	66 89 45 ed	 mov	 WORD PTR _source_pos$[ebp+1], ax
  00021	66 89 45 f1	 mov	 WORD PTR _target_pos$[ebp+1], ax
; File C:\Anka2Project\Anka2Project\Source\Binary\source\UserInterface\PythonNetworkStreamModule.cpp

; 1662 : 	if (!PyTuple_GetInteger(poArgs, 0, &source_pos.cell))

  00025	8d 45 ed	 lea	 eax, DWORD PTR _source_pos$[ebp+1]
  00028	50		 push	 eax
  00029	6a 00		 push	 0
  0002b	56		 push	 esi
; File C:\Anka2Project\Anka2Project\Source\Binary\source\UserInterface\GameType.h

; 447  : 		window_type = INVENTORY;

  0002c	c6 45 f0 01	 mov	 BYTE PTR _target_pos$[ebp], 1
; File C:\Anka2Project\Anka2Project\Source\Binary\source\UserInterface\PythonNetworkStreamModule.cpp

; 1662 : 	if (!PyTuple_GetInteger(poArgs, 0, &source_pos.cell))

  00030	e8 00 00 00 00	 call	 ?PyTuple_GetInteger@@YA_NPAU_object@@HPAG@Z ; PyTuple_GetInteger
  00035	83 c4 0c	 add	 esp, 12			; 0000000cH
  00038	84 c0		 test	 al, al
  0003a	75 19		 jne	 SHORT $LN2@netSendIte
$LN25@netSendIte:

; 1680 : }

  0003c	6a 00		 push	 0
  0003e	e8 00 00 00 00	 call	 ?Py_BuildException@@YAPAU_object@@PBDZZ ; Py_BuildException
  00043	83 c4 04	 add	 esp, 4
  00046	5e		 pop	 esi
  00047	8b 4d fc	 mov	 ecx, DWORD PTR __$ArrayPad$[ebp]
  0004a	33 cd		 xor	 ecx, ebp
  0004c	e8 00 00 00 00	 call	 @__security_check_cookie@4
  00051	8b e5		 mov	 esp, ebp
  00053	5d		 pop	 ebp
  00054	c3		 ret	 0
$LN2@netSendIte:

; 1663 : 		return Py_BuildException();
; 1664 : 	if (!PyTuple_GetInteger(poArgs, 1, &target_pos.cell))

  00055	8d 45 f1	 lea	 eax, DWORD PTR _target_pos$[ebp+1]
  00058	50		 push	 eax
  00059	6a 01		 push	 1
  0005b	56		 push	 esi
  0005c	e8 00 00 00 00	 call	 ?PyTuple_GetInteger@@YA_NPAU_object@@HPAG@Z ; PyTuple_GetInteger
  00061	83 c4 0c	 add	 esp, 12			; 0000000cH
  00064	84 c0		 test	 al, al
  00066	74 d4		 je	 SHORT $LN25@netSendIte

; 1665 : 		return Py_BuildException();
; 1666 : 	if (!PyTuple_GetByte(poArgs, 2, &bValues[0]))

  00068	8d 45 f4	 lea	 eax, DWORD PTR _bValues$[ebp]
  0006b	50		 push	 eax
  0006c	6a 02		 push	 2
  0006e	56		 push	 esi
  0006f	e8 00 00 00 00	 call	 ?PyTuple_GetByte@@YA_NPAU_object@@HPAE@Z ; PyTuple_GetByte
  00074	83 c4 0c	 add	 esp, 12			; 0000000cH
  00077	84 c0		 test	 al, al
  00079	74 c1		 je	 SHORT $LN25@netSendIte

; 1667 : 		return Py_BuildException();
; 1668 : 	if (!PyTuple_GetByte(poArgs, 3, &bValues[1]))

  0007b	8d 45 f5	 lea	 eax, DWORD PTR _bValues$[ebp+1]
  0007e	50		 push	 eax
  0007f	6a 03		 push	 3
  00081	56		 push	 esi
  00082	e8 00 00 00 00	 call	 ?PyTuple_GetByte@@YA_NPAU_object@@HPAE@Z ; PyTuple_GetByte
  00087	83 c4 0c	 add	 esp, 12			; 0000000cH
  0008a	84 c0		 test	 al, al
  0008c	74 ae		 je	 SHORT $LN25@netSendIte

; 1669 : 		return Py_BuildException();
; 1670 : 	if (!PyTuple_GetByte(poArgs, 4, &bValues[2]))

  0008e	8d 45 f6	 lea	 eax, DWORD PTR _bValues$[ebp+2]
  00091	50		 push	 eax
  00092	6a 04		 push	 4
  00094	56		 push	 esi
  00095	e8 00 00 00 00	 call	 ?PyTuple_GetByte@@YA_NPAU_object@@HPAE@Z ; PyTuple_GetByte
  0009a	83 c4 0c	 add	 esp, 12			; 0000000cH
  0009d	84 c0		 test	 al, al
  0009f	74 9b		 je	 SHORT $LN25@netSendIte

; 1671 : 		return Py_BuildException();
; 1672 : 	if (!PyTuple_GetByte(poArgs, 5, &bValues[3]))

  000a1	8d 45 f7	 lea	 eax, DWORD PTR _bValues$[ebp+3]
  000a4	50		 push	 eax
  000a5	6a 05		 push	 5
  000a7	56		 push	 esi
  000a8	e8 00 00 00 00	 call	 ?PyTuple_GetByte@@YA_NPAU_object@@HPAE@Z ; PyTuple_GetByte
  000ad	83 c4 0c	 add	 esp, 12			; 0000000cH
  000b0	84 c0		 test	 al, al
  000b2	74 88		 je	 SHORT $LN25@netSendIte

; 1673 : 		return Py_BuildException();
; 1674 : 	if (!PyTuple_GetByte(poArgs, 6, &bValues[4]))

  000b4	8d 45 f8	 lea	 eax, DWORD PTR _bValues$[ebp+4]
  000b7	50		 push	 eax
  000b8	6a 06		 push	 6
  000ba	56		 push	 esi
  000bb	e8 00 00 00 00	 call	 ?PyTuple_GetByte@@YA_NPAU_object@@HPAE@Z ; PyTuple_GetByte
  000c0	83 c4 0c	 add	 esp, 12			; 0000000cH
  000c3	84 c0		 test	 al, al
  000c5	0f 84 71 ff ff
	ff		 je	 $LN25@netSendIte
; File C:\Anka2Project\Anka2Project\Source\Binary\source\eterBase\Singleton.h

; 26   : 		assert(ms_singleton);

  000cb	8b 0d 00 00 00
	00		 mov	 ecx, DWORD PTR ?ms_singleton@?$CSingleton@VCPythonNetworkStream@@@@0PAVCPythonNetworkStream@@A ; CSingleton<CPythonNetworkStream>::ms_singleton
  000d1	85 c9		 test	 ecx, ecx
  000d3	75 1a		 jne	 SHORT $LN16@netSendIte
  000d5	6a 1a		 push	 26			; 0000001aH
  000d7	68 00 00 00 00	 push	 OFFSET ??_C@_1IO@CAJLEEOI@?$AAC?$AA?3?$AA?2?$AAA?$AAn?$AAk?$AAa?$AA2?$AAP?$AAr?$AAo?$AAj?$AAe?$AAc?$AAt@
  000dc	68 00 00 00 00	 push	 OFFSET ??_C@_1BK@FMEHPMFE@?$AAm?$AAs?$AA_?$AAs?$AAi?$AAn?$AAg?$AAl?$AAe?$AAt?$AAo?$AAn@
  000e1	e8 00 00 00 00	 call	 __wassert
  000e6	8b 0d 00 00 00
	00		 mov	 ecx, DWORD PTR ?ms_singleton@?$CSingleton@VCPythonNetworkStream@@@@0PAVCPythonNetworkStream@@A ; CSingleton<CPythonNetworkStream>::ms_singleton
  000ec	83 c4 0c	 add	 esp, 12			; 0000000cH
$LN16@netSendIte:
; File C:\Anka2Project\Anka2Project\Source\Binary\source\UserInterface\PythonNetworkStreamModule.cpp

; 1678 : 	rkNetStream.SendItemNewAttributePacket(source_pos, target_pos, bValues);

  000ef	8d 45 f4	 lea	 eax, DWORD PTR _bValues$[ebp]
  000f2	50		 push	 eax
  000f3	0f b7 45 f0	 movzx	 eax, WORD PTR _target_pos$[ebp]
  000f7	51		 push	 ecx
  000f8	8b d4		 mov	 edx, esp
  000fa	51		 push	 ecx
  000fb	66 89 02	 mov	 WORD PTR [edx], ax
  000fe	8a 45 f2	 mov	 al, BYTE PTR _target_pos$[ebp+2]
  00101	88 42 02	 mov	 BYTE PTR [edx+2], al
  00104	8b d4		 mov	 edx, esp
  00106	0f b7 45 ec	 movzx	 eax, WORD PTR _source_pos$[ebp]
  0010a	66 89 02	 mov	 WORD PTR [edx], ax
  0010d	8a 45 ee	 mov	 al, BYTE PTR _source_pos$[ebp+2]
  00110	88 42 02	 mov	 BYTE PTR [edx+2], al
  00113	e8 00 00 00 00	 call	 ?SendItemNewAttributePacket@CPythonNetworkStream@@QAE_NUSItemPos@@0PAE@Z ; CPythonNetworkStream::SendItemNewAttributePacket

; 1679 : 	return Py_BuildNone();

  00118	e8 00 00 00 00	 call	 ?Py_BuildNone@@YAPAU_object@@XZ ; Py_BuildNone

; 1680 : }

  0011d	8b 4d fc	 mov	 ecx, DWORD PTR __$ArrayPad$[ebp]
  00120	33 cd		 xor	 ecx, ebp
  00122	5e		 pop	 esi
  00123	e8 00 00 00 00	 call	 @__security_check_cookie@4
  00128	8b e5		 mov	 esp, ebp
  0012a	5d		 pop	 ebp
  0012b	c3		 ret	 0
?netSendItemNewAttributePacket@@YAPAU_object@@PAU1@0@Z ENDP ; netSendItemNewAttributePacket
_TEXT	ENDS
; Function compile flags: /Ogtp
; File C:\Anka2Project\Anka2Project\Source\Binary\source\UserInterface\PythonNetworkStreamModule.cpp
; File C:\Anka2Project\Anka2Project\Source\Binary\source\UserInterface\GameType.h
; File C:\Anka2Project\Anka2Project\Source\Binary\source\UserInterface\PythonNetworkStreamModule.cpp
; File C:\Anka2Project\Anka2Project\Source\Binary\source\UserInterface\GameType.h
; File C:\Anka2Project\Anka2Project\Source\Binary\source\UserInterface\PythonNetworkStreamModule.cpp
; File C:\Anka2Project\Anka2Project\Source\Binary\source\eterBase\Singleton.h
; File C:\Anka2Project\Anka2Project\Source\Binary\source\UserInterface\PythonNetworkStreamModule.cpp
;	COMDAT ?netSendItemDestroyPacket@@YAPAU_object@@PAU1@0@Z
_TEXT	SEGMENT
_count$ = -8						; size = 4
_Cell$ = -4						; size = 3
_poSelf$ = 8						; size = 4
_poArgs$ = 12						; size = 4
?netSendItemDestroyPacket@@YAPAU_object@@PAU1@0@Z PROC	; netSendItemDestroyPacket, COMDAT

; 1685 : {

  00000	55		 push	 ebp
  00001	8b ec		 mov	 ebp, esp
  00003	83 ec 08	 sub	 esp, 8
  00006	56		 push	 esi

; 1689 : 	switch (PyTuple_Size(poArgs))

  00007	8b 75 0c	 mov	 esi, DWORD PTR _poArgs$[ebp]
; File C:\Anka2Project\Anka2Project\Source\Binary\source\UserInterface\GameType.h

; 448  : 		cell = WORD_MAX;

  0000a	b8 ff ff 00 00	 mov	 eax, 65535		; 0000ffffH
; File C:\Anka2Project\Anka2Project\Source\Binary\source\UserInterface\PythonNetworkStreamModule.cpp

; 1689 : 	switch (PyTuple_Size(poArgs))

  0000f	56		 push	 esi
; File C:\Anka2Project\Anka2Project\Source\Binary\source\UserInterface\GameType.h

; 447  : 		window_type = INVENTORY;

  00010	c6 45 fc 01	 mov	 BYTE PTR _Cell$[ebp], 1

; 448  : 		cell = WORD_MAX;

  00014	66 89 45 fd	 mov	 WORD PTR _Cell$[ebp+1], ax
; File C:\Anka2Project\Anka2Project\Source\Binary\source\UserInterface\PythonNetworkStreamModule.cpp

; 1689 : 	switch (PyTuple_Size(poArgs))

  00018	ff 15 00 00 00
	00		 call	 DWORD PTR __imp__PyTuple_Size
  0001e	83 c4 04	 add	 esp, 4
  00021	83 e8 02	 sub	 eax, 2
  00024	74 4d		 je	 SHORT $LN4@netSendIte
  00026	83 e8 01	 sub	 eax, 1
  00029	75 39		 jne	 SHORT $LN26@netSendIte

; 1695 : 				return Py_BuildException();
; 1696 : 			break;
; 1697 : 
; 1698 : 		case 3:
; 1699 : 			if (!PyTuple_GetByte(poArgs, 0, &Cell.window_type))

  0002b	8d 45 fc	 lea	 eax, DWORD PTR _Cell$[ebp]
  0002e	50		 push	 eax
  0002f	6a 00		 push	 0
  00031	56		 push	 esi
  00032	e8 00 00 00 00	 call	 ?PyTuple_GetByte@@YA_NPAU_object@@HPAE@Z ; PyTuple_GetByte
  00037	83 c4 0c	 add	 esp, 12			; 0000000cH
  0003a	84 c0		 test	 al, al
  0003c	74 26		 je	 SHORT $LN26@netSendIte

; 1700 : 				return Py_BuildException();
; 1701 : 			if (!PyTuple_GetInteger(poArgs, 1, &Cell.cell))

  0003e	8d 45 fd	 lea	 eax, DWORD PTR _Cell$[ebp+1]
  00041	50		 push	 eax
  00042	6a 01		 push	 1
  00044	56		 push	 esi
  00045	e8 00 00 00 00	 call	 ?PyTuple_GetInteger@@YA_NPAU_object@@HPAG@Z ; PyTuple_GetInteger
  0004a	83 c4 0c	 add	 esp, 12			; 0000000cH
  0004d	84 c0		 test	 al, al
  0004f	74 13		 je	 SHORT $LN26@netSendIte

; 1702 : 				return Py_BuildException();
; 1703 : 			if (!PyTuple_GetInteger(poArgs, 2, &count))

  00051	8d 45 f8	 lea	 eax, DWORD PTR _count$[ebp]
  00054	50		 push	 eax
  00055	6a 02		 push	 2
  00057	56		 push	 esi
  00058	e8 00 00 00 00	 call	 ?PyTuple_GetInteger@@YA_NPAU_object@@HPAH@Z ; PyTuple_GetInteger
  0005d	83 c4 0c	 add	 esp, 12			; 0000000cH
  00060	84 c0		 test	 al, al
  00062	75 35		 jne	 SHORT $LN6@netSendIte
$LN26@netSendIte:

; 1714 : }

  00064	6a 00		 push	 0
  00066	e8 00 00 00 00	 call	 ?Py_BuildException@@YAPAU_object@@PBDZZ ; Py_BuildException
  0006b	83 c4 04	 add	 esp, 4
  0006e	5e		 pop	 esi
  0006f	8b e5		 mov	 esp, ebp
  00071	5d		 pop	 ebp
  00072	c3		 ret	 0
$LN4@netSendIte:

; 1690 : 	{
; 1691 : 		case 2:
; 1692 : 			if (!PyTuple_GetInteger(poArgs, 0, &Cell.cell))

  00073	8d 45 fd	 lea	 eax, DWORD PTR _Cell$[ebp+1]
  00076	50		 push	 eax
  00077	6a 00		 push	 0
  00079	56		 push	 esi
  0007a	e8 00 00 00 00	 call	 ?PyTuple_GetInteger@@YA_NPAU_object@@HPAG@Z ; PyTuple_GetInteger
  0007f	83 c4 0c	 add	 esp, 12			; 0000000cH
  00082	84 c0		 test	 al, al
  00084	74 de		 je	 SHORT $LN26@netSendIte

; 1693 : 				return Py_BuildException();
; 1694 : 			if (!PyTuple_GetInteger(poArgs, 1, &count))

  00086	8d 45 f8	 lea	 eax, DWORD PTR _count$[ebp]
  00089	50		 push	 eax
  0008a	6a 01		 push	 1
  0008c	56		 push	 esi
  0008d	e8 00 00 00 00	 call	 ?PyTuple_GetInteger@@YA_NPAU_object@@HPAH@Z ; PyTuple_GetInteger
  00092	83 c4 0c	 add	 esp, 12			; 0000000cH
  00095	84 c0		 test	 al, al
  00097	74 cb		 je	 SHORT $LN26@netSendIte
$LN6@netSendIte:
; File C:\Anka2Project\Anka2Project\Source\Binary\source\eterBase\Singleton.h

; 26   : 		assert(ms_singleton);

  00099	8b 0d 00 00 00
	00		 mov	 ecx, DWORD PTR ?ms_singleton@?$CSingleton@VCPythonNetworkStream@@@@0PAVCPythonNetworkStream@@A ; CSingleton<CPythonNetworkStream>::ms_singleton
  0009f	85 c9		 test	 ecx, ecx
  000a1	75 1a		 jne	 SHORT $LN17@netSendIte
  000a3	6a 1a		 push	 26			; 0000001aH
  000a5	68 00 00 00 00	 push	 OFFSET ??_C@_1IO@CAJLEEOI@?$AAC?$AA?3?$AA?2?$AAA?$AAn?$AAk?$AAa?$AA2?$AAP?$AAr?$AAo?$AAj?$AAe?$AAc?$AAt@
  000aa	68 00 00 00 00	 push	 OFFSET ??_C@_1BK@FMEHPMFE@?$AAm?$AAs?$AA_?$AAs?$AAi?$AAn?$AAg?$AAl?$AAe?$AAt?$AAo?$AAn@
  000af	e8 00 00 00 00	 call	 __wassert
  000b4	8b 0d 00 00 00
	00		 mov	 ecx, DWORD PTR ?ms_singleton@?$CSingleton@VCPythonNetworkStream@@@@0PAVCPythonNetworkStream@@A ; CSingleton<CPythonNetworkStream>::ms_singleton
  000ba	83 c4 0c	 add	 esp, 12			; 0000000cH
$LN17@netSendIte:
; File C:\Anka2Project\Anka2Project\Source\Binary\source\UserInterface\PythonNetworkStreamModule.cpp

; 1712 : 	rkNetStream.SendItemDestroyPacket(Cell, 0, count);

  000bd	ff 75 f8	 push	 DWORD PTR _count$[ebp]
  000c0	66 8b 45 fc	 mov	 ax, WORD PTR _Cell$[ebp]
  000c4	83 ec 08	 sub	 esp, 8
  000c7	8b d4		 mov	 edx, esp
  000c9	66 89 02	 mov	 WORD PTR [edx], ax
  000cc	8a 45 fe	 mov	 al, BYTE PTR _Cell$[ebp+2]
  000cf	88 42 02	 mov	 BYTE PTR [edx+2], al
  000d2	e8 00 00 00 00	 call	 ?SendItemDestroyPacket@CPythonNetworkStream@@QAE_NUSItemPos@@KG@Z ; CPythonNetworkStream::SendItemDestroyPacket

; 1713 : 	return Py_BuildNone();

  000d7	e8 00 00 00 00	 call	 ?Py_BuildNone@@YAPAU_object@@XZ ; Py_BuildNone

; 1714 : }

  000dc	5e		 pop	 esi
  000dd	8b e5		 mov	 esp, ebp
  000df	5d		 pop	 ebp
  000e0	c3		 ret	 0
?netSendItemDestroyPacket@@YAPAU_object@@PAU1@0@Z ENDP	; netSendItemDestroyPacket
_TEXT	ENDS
; Function compile flags: /Ogtp
; File C:\Anka2Project\Anka2Project\Source\Binary\source\UserInterface\PythonNetworkStreamModule.cpp
; File C:\Anka2Project\Anka2Project\Source\Binary\source\UserInterface\GameType.h
; File C:\Anka2Project\Anka2Project\Source\Binary\source\UserInterface\PythonNetworkStreamModule.cpp
; File C:\Anka2Project\Anka2Project\Source\Binary\source\UserInterface\GameType.h
; File C:\Anka2Project\Anka2Project\Source\Binary\source\UserInterface\PythonNetworkStreamModule.cpp
; File C:\Anka2Project\Anka2Project\Source\Binary\source\eterBase\Singleton.h
; File C:\Anka2Project\Anka2Project\Source\Binary\source\UserInterface\PythonNetworkStreamModule.cpp
;	COMDAT ?netSendItemSellPacket@@YAPAU_object@@PAU1@0@Z
_TEXT	SEGMENT
_Cell$ = -4						; size = 3
_poSelf$ = 8						; size = 4
_poArgs$ = 12						; size = 4
?netSendItemSellPacket@@YAPAU_object@@PAU1@0@Z PROC	; netSendItemSellPacket, COMDAT

; 1719 : {

  00000	55		 push	 ebp
  00001	8b ec		 mov	 ebp, esp
  00003	51		 push	 ecx
  00004	56		 push	 esi

; 1722 : 	switch (PyTuple_Size(poArgs))

  00005	8b 75 0c	 mov	 esi, DWORD PTR _poArgs$[ebp]
; File C:\Anka2Project\Anka2Project\Source\Binary\source\UserInterface\GameType.h

; 448  : 		cell = WORD_MAX;

  00008	b8 ff ff 00 00	 mov	 eax, 65535		; 0000ffffH
; File C:\Anka2Project\Anka2Project\Source\Binary\source\UserInterface\PythonNetworkStreamModule.cpp

; 1722 : 	switch (PyTuple_Size(poArgs))

  0000d	56		 push	 esi
; File C:\Anka2Project\Anka2Project\Source\Binary\source\UserInterface\GameType.h

; 447  : 		window_type = INVENTORY;

  0000e	c6 45 fc 01	 mov	 BYTE PTR _Cell$[ebp], 1

; 448  : 		cell = WORD_MAX;

  00012	66 89 45 fd	 mov	 WORD PTR _Cell$[ebp+1], ax
; File C:\Anka2Project\Anka2Project\Source\Binary\source\UserInterface\PythonNetworkStreamModule.cpp

; 1722 : 	switch (PyTuple_Size(poArgs))

  00016	ff 15 00 00 00
	00		 call	 DWORD PTR __imp__PyTuple_Size
  0001c	83 c4 04	 add	 esp, 4
  0001f	83 e8 01	 sub	 eax, 1
  00022	74 20		 je	 SHORT $LN4@netSendIte
  00024	83 e8 01	 sub	 eax, 1
  00027	75 2e		 jne	 SHORT $LN16@netSendIte

; 1726 : 				return Py_BuildException();
; 1727 : 			break;
; 1728 : 		case 2:
; 1729 : 			if (!PyTuple_GetByte(poArgs, 0, &Cell.window_type))

  00029	8d 45 fc	 lea	 eax, DWORD PTR _Cell$[ebp]
  0002c	50		 push	 eax
  0002d	6a 00		 push	 0
  0002f	56		 push	 esi
  00030	e8 00 00 00 00	 call	 ?PyTuple_GetByte@@YA_NPAU_object@@HPAE@Z ; PyTuple_GetByte
  00035	83 c4 0c	 add	 esp, 12			; 0000000cH
  00038	84 c0		 test	 al, al
  0003a	74 1b		 je	 SHORT $LN16@netSendIte

; 1730 : 				return Py_BuildException();
; 1731 : 			if (!PyTuple_GetInteger(poArgs, 1, &Cell.cell))

  0003c	8d 45 fd	 lea	 eax, DWORD PTR _Cell$[ebp+1]
  0003f	50		 push	 eax
  00040	6a 01		 push	 1

; 1732 : 				return Py_BuildException();

  00042	eb 06		 jmp	 SHORT $LN17@netSendIte
$LN4@netSendIte:

; 1723 : 	{
; 1724 : 		case 1:
; 1725 : 			if (!PyTuple_GetInteger(poArgs, 0, &Cell.cell))

  00044	8d 45 fd	 lea	 eax, DWORD PTR _Cell$[ebp+1]
  00047	50		 push	 eax
  00048	6a 00		 push	 0
$LN17@netSendIte:

; 1741 : }

  0004a	56		 push	 esi
  0004b	e8 00 00 00 00	 call	 ?PyTuple_GetInteger@@YA_NPAU_object@@HPAG@Z ; PyTuple_GetInteger
  00050	83 c4 0c	 add	 esp, 12			; 0000000cH
  00053	84 c0		 test	 al, al
  00055	75 0f		 jne	 SHORT $LN5@netSendIte
$LN16@netSendIte:
  00057	6a 00		 push	 0
  00059	e8 00 00 00 00	 call	 ?Py_BuildException@@YAPAU_object@@PBDZZ ; Py_BuildException
  0005e	83 c4 04	 add	 esp, 4
  00061	5e		 pop	 esi
  00062	8b e5		 mov	 esp, ebp
  00064	5d		 pop	 ebp
  00065	c3		 ret	 0
$LN5@netSendIte:
; File C:\Anka2Project\Anka2Project\Source\Binary\source\eterBase\Singleton.h

; 26   : 		assert(ms_singleton);

  00066	8b 0d 00 00 00
	00		 mov	 ecx, DWORD PTR ?ms_singleton@?$CSingleton@VCPythonNetworkStream@@@@0PAVCPythonNetworkStream@@A ; CSingleton<CPythonNetworkStream>::ms_singleton
  0006c	85 c9		 test	 ecx, ecx
  0006e	75 1a		 jne	 SHORT $LN15@netSendIte
  00070	6a 1a		 push	 26			; 0000001aH
  00072	68 00 00 00 00	 push	 OFFSET ??_C@_1IO@CAJLEEOI@?$AAC?$AA?3?$AA?2?$AAA?$AAn?$AAk?$AAa?$AA2?$AAP?$AAr?$AAo?$AAj?$AAe?$AAc?$AAt@
  00077	68 00 00 00 00	 push	 OFFSET ??_C@_1BK@FMEHPMFE@?$AAm?$AAs?$AA_?$AAs?$AAi?$AAn?$AAg?$AAl?$AAe?$AAt?$AAo?$AAn@
  0007c	e8 00 00 00 00	 call	 __wassert
  00081	8b 0d 00 00 00
	00		 mov	 ecx, DWORD PTR ?ms_singleton@?$CSingleton@VCPythonNetworkStream@@@@0PAVCPythonNetworkStream@@A ; CSingleton<CPythonNetworkStream>::ms_singleton
  00087	83 c4 0c	 add	 esp, 12			; 0000000cH
$LN15@netSendIte:
; File C:\Anka2Project\Anka2Project\Source\Binary\source\UserInterface\PythonNetworkStreamModule.cpp

; 1739 : 	rkNetStream.SendItemSellPacket(Cell, 0);

  0008a	66 8b 45 fc	 mov	 ax, WORD PTR _Cell$[ebp]
  0008e	83 ec 08	 sub	 esp, 8
  00091	8b d4		 mov	 edx, esp
  00093	66 89 02	 mov	 WORD PTR [edx], ax
  00096	8a 45 fe	 mov	 al, BYTE PTR _Cell$[ebp+2]
  00099	88 42 02	 mov	 BYTE PTR [edx+2], al
  0009c	e8 00 00 00 00	 call	 ?SendItemSellPacket@CPythonNetworkStream@@QAE_NUSItemPos@@K@Z ; CPythonNetworkStream::SendItemSellPacket

; 1740 : 	return Py_BuildNone();

  000a1	e8 00 00 00 00	 call	 ?Py_BuildNone@@YAPAU_object@@XZ ; Py_BuildNone

; 1741 : }

  000a6	5e		 pop	 esi
  000a7	8b e5		 mov	 esp, ebp
  000a9	5d		 pop	 ebp
  000aa	c3		 ret	 0
?netSendItemSellPacket@@YAPAU_object@@PAU1@0@Z ENDP	; netSendItemSellPacket
_TEXT	ENDS
; Function compile flags: /Ogtp
; File C:\Anka2Project\Anka2Project\Source\Binary\source\UserInterface\PythonNetworkStreamModule.cpp
; File C:\Anka2Project\Anka2Project\Source\Binary\source\eterBase\Singleton.h
; File C:\Anka2Project\Anka2Project\Source\Binary\source\UserInterface\PythonNetworkStream.h
; File C:\Anka2Project\Anka2Project\Source\Binary\source\UserInterface\PythonNetworkStreamModule.cpp
;	COMDAT ?netGetLanguage@@YAPAU_object@@PAU1@0@Z
_TEXT	SEGMENT
_poSelf$ = 8						; size = 4
_poArgs$ = 12						; size = 4
?netGetLanguage@@YAPAU_object@@PAU1@0@Z PROC		; netGetLanguage, COMDAT
; File C:\Anka2Project\Anka2Project\Source\Binary\source\eterBase\Singleton.h

; 26   : 		assert(ms_singleton);

  00000	a1 00 00 00 00	 mov	 eax, DWORD PTR ?ms_singleton@?$CSingleton@VCPythonNetworkStream@@@@0PAVCPythonNetworkStream@@A ; CSingleton<CPythonNetworkStream>::ms_singleton
  00005	85 c0		 test	 eax, eax
  00007	75 19		 jne	 SHORT $LN5@netGetLang
  00009	6a 1a		 push	 26			; 0000001aH
  0000b	68 00 00 00 00	 push	 OFFSET ??_C@_1IO@CAJLEEOI@?$AAC?$AA?3?$AA?2?$AAA?$AAn?$AAk?$AAa?$AA2?$AAP?$AAr?$AAo?$AAj?$AAe?$AAc?$AAt@
  00010	68 00 00 00 00	 push	 OFFSET ??_C@_1BK@FMEHPMFE@?$AAm?$AAs?$AA_?$AAs?$AAi?$AAn?$AAg?$AAl?$AAe?$AAt?$AAo?$AAn@
  00015	e8 00 00 00 00	 call	 __wassert
  0001a	a1 00 00 00 00	 mov	 eax, DWORD PTR ?ms_singleton@?$CSingleton@VCPythonNetworkStream@@@@0PAVCPythonNetworkStream@@A ; CSingleton<CPythonNetworkStream>::ms_singleton
  0001f	83 c4 0c	 add	 esp, 12			; 0000000cH
$LN5@netGetLang:
; File C:\Anka2Project\Anka2Project\Source\Binary\source\UserInterface\PythonNetworkStream.h

; 945  : 		int GetLanguage() const { return m_bLanguage; }

  00022	0f b6 80 68 7a
	00 00		 movzx	 eax, BYTE PTR [eax+31336]
; File C:\Anka2Project\Anka2Project\Source\Binary\source\UserInterface\PythonNetworkStreamModule.cpp

; 1758 : 	return Py_BuildValue("i", rkNetStream.GetLanguage());

  00029	50		 push	 eax
  0002a	68 00 00 00 00	 push	 OFFSET ??_C@_01KBJDNOO@i@
  0002f	ff 15 00 00 00
	00		 call	 DWORD PTR __imp__Py_BuildValue
  00035	83 c4 08	 add	 esp, 8

; 1759 : }

  00038	c3		 ret	 0
?netGetLanguage@@YAPAU_object@@PAU1@0@Z ENDP		; netGetLanguage
_TEXT	ENDS
; Function compile flags: /Ogtp
; File C:\Anka2Project\Anka2Project\Source\Binary\source\UserInterface\PythonNetworkStreamModule.cpp
; File C:\Anka2Project\Anka2Project\Source\Binary\source\eterBase\Singleton.h
; File C:\Anka2Project\Anka2Project\Source\Binary\source\UserInterface\PythonNetworkStreamModule.cpp
;	COMDAT ?netTargetInfoLoad@@YAPAU_object@@PAU1@0@Z
_TEXT	SEGMENT
_dwVID$ = -4						; size = 4
_poSelf$ = 8						; size = 4
_poArgs$ = 12						; size = 4
?netTargetInfoLoad@@YAPAU_object@@PAU1@0@Z PROC		; netTargetInfoLoad, COMDAT

; 1819 : {

  00000	55		 push	 ebp
  00001	8b ec		 mov	 ebp, esp
  00003	51		 push	 ecx

; 1820 : 	DWORD dwVID;
; 1821 : 
; 1822 : 	if (!PyArg_ParseTuple(poArgs, "i", &dwVID))

  00004	8d 45 fc	 lea	 eax, DWORD PTR _dwVID$[ebp]
  00007	50		 push	 eax
  00008	68 00 00 00 00	 push	 OFFSET ??_C@_01KBJDNOO@i@
  0000d	ff 75 0c	 push	 DWORD PTR _poArgs$[ebp]
  00010	ff 15 00 00 00
	00		 call	 DWORD PTR __imp__PyArg_ParseTuple
  00016	83 c4 0c	 add	 esp, 12			; 0000000cH
  00019	85 c0		 test	 eax, eax
  0001b	75 0d		 jne	 SHORT $LN2@netTargetI

; 1823 : 	{
; 1824 : 		return Py_BuildException();

  0001d	50		 push	 eax
  0001e	e8 00 00 00 00	 call	 ?Py_BuildException@@YAPAU_object@@PBDZZ ; Py_BuildException
  00023	83 c4 04	 add	 esp, 4

; 1835 : }

  00026	8b e5		 mov	 esp, ebp
  00028	5d		 pop	 ebp
  00029	c3		 ret	 0
$LN2@netTargetI:
; File C:\Anka2Project\Anka2Project\Source\Binary\source\eterBase\Singleton.h

; 26   : 		assert(ms_singleton);

  0002a	8b 0d 00 00 00
	00		 mov	 ecx, DWORD PTR ?ms_singleton@?$CSingleton@VCPythonNetworkStream@@@@0PAVCPythonNetworkStream@@A ; CSingleton<CPythonNetworkStream>::ms_singleton
  00030	85 c9		 test	 ecx, ecx
  00032	75 1a		 jne	 SHORT $LN7@netTargetI
  00034	6a 1a		 push	 26			; 0000001aH
  00036	68 00 00 00 00	 push	 OFFSET ??_C@_1IO@CAJLEEOI@?$AAC?$AA?3?$AA?2?$AAA?$AAn?$AAk?$AAa?$AA2?$AAP?$AAr?$AAo?$AAj?$AAe?$AAc?$AAt@
  0003b	68 00 00 00 00	 push	 OFFSET ??_C@_1BK@FMEHPMFE@?$AAm?$AAs?$AA_?$AAs?$AAi?$AAn?$AAg?$AAl?$AAe?$AAt?$AAo?$AAn@
  00040	e8 00 00 00 00	 call	 __wassert
  00045	8b 0d 00 00 00
	00		 mov	 ecx, DWORD PTR ?ms_singleton@?$CSingleton@VCPythonNetworkStream@@@@0PAVCPythonNetworkStream@@A ; CSingleton<CPythonNetworkStream>::ms_singleton
  0004b	83 c4 0c	 add	 esp, 12			; 0000000cH
$LN7@netTargetI:
; File C:\Anka2Project\Anka2Project\Source\Binary\source\UserInterface\PythonNetworkStreamModule.cpp

; 1832 : 	rns.SendTargetInfoLoadPacket(dwVID);

  0004e	ff 75 fc	 push	 DWORD PTR _dwVID$[ebp]
  00051	e8 00 00 00 00	 call	 ?SendTargetInfoLoadPacket@CPythonNetworkStream@@QAE_NK@Z ; CPythonNetworkStream::SendTargetInfoLoadPacket

; 1833 : 
; 1834 : 	return Py_BuildNone();

  00056	e8 00 00 00 00	 call	 ?Py_BuildNone@@YAPAU_object@@XZ ; Py_BuildNone

; 1835 : }

  0005b	8b e5		 mov	 esp, ebp
  0005d	5d		 pop	 ebp
  0005e	c3		 ret	 0
?netTargetInfoLoad@@YAPAU_object@@PAU1@0@Z ENDP		; netTargetInfoLoad
_TEXT	ENDS
; Function compile flags: /Ogtp
; File C:\Anka2Project\Anka2Project\Source\Binary\source\UserInterface\PythonNetworkStreamModule.cpp
; File C:\Anka2Project\Anka2Project\Source\Binary\source\UserInterface\GameType.h
; File C:\Anka2Project\Anka2Project\Source\Binary\source\UserInterface\PythonNetworkStreamModule.cpp
; File C:\Anka2Project\Anka2Project\Source\Binary\source\UserInterface\GameType.h
; File C:\Anka2Project\Anka2Project\Source\Binary\source\UserInterface\PythonNetworkStreamModule.cpp
; File C:\Anka2Project\Anka2Project\Source\Binary\source\eterBase\Singleton.h
; File C:\Anka2Project\Anka2Project\Source\Binary\source\UserInterface\PythonNetworkStreamModule.cpp
;	COMDAT ?netSendAuraRefineCheckIn@@YAPAU_object@@PAU1@0@Z
_TEXT	SEGMENT
_bAuraRefineWindowType$ = -12				; size = 1
_InventoryPos$ = -8					; size = 3
_AuraPos$ = -4						; size = 3
_poSelf$ = 8						; size = 4
_poArgs$ = 12						; size = 4
?netSendAuraRefineCheckIn@@YAPAU_object@@PAU1@0@Z PROC	; netSendAuraRefineCheckIn, COMDAT

; 2134 : {

  00000	55		 push	 ebp
  00001	8b ec		 mov	 ebp, esp
  00003	83 ec 0c	 sub	 esp, 12			; 0000000cH
  00006	56		 push	 esi

; 2139 : 	switch (PyTuple_Size(poArgs))

  00007	8b 75 0c	 mov	 esi, DWORD PTR _poArgs$[ebp]
; File C:\Anka2Project\Anka2Project\Source\Binary\source\UserInterface\GameType.h

; 448  : 		cell = WORD_MAX;

  0000a	b8 ff ff 00 00	 mov	 eax, 65535		; 0000ffffH
; File C:\Anka2Project\Anka2Project\Source\Binary\source\UserInterface\PythonNetworkStreamModule.cpp

; 2139 : 	switch (PyTuple_Size(poArgs))

  0000f	56		 push	 esi
; File C:\Anka2Project\Anka2Project\Source\Binary\source\UserInterface\GameType.h

; 447  : 		window_type = INVENTORY;

  00010	c6 45 f8 01	 mov	 BYTE PTR _InventoryPos$[ebp], 1

; 448  : 		cell = WORD_MAX;

  00014	66 89 45 f9	 mov	 WORD PTR _InventoryPos$[ebp+1], ax

; 447  : 		window_type = INVENTORY;

  00018	c6 45 fc 01	 mov	 BYTE PTR _AuraPos$[ebp], 1

; 448  : 		cell = WORD_MAX;

  0001c	66 89 45 fd	 mov	 WORD PTR _AuraPos$[ebp+1], ax
; File C:\Anka2Project\Anka2Project\Source\Binary\source\UserInterface\PythonNetworkStreamModule.cpp

; 2139 : 	switch (PyTuple_Size(poArgs))

  00020	ff 15 00 00 00
	00		 call	 DWORD PTR __imp__PyTuple_Size
  00026	83 c4 04	 add	 esp, 4
  00029	83 e8 03	 sub	 eax, 3
  0002c	74 73		 je	 SHORT $LN4@netSendAur
  0002e	83 e8 02	 sub	 eax, 2
  00031	75 5f		 jne	 SHORT $LN34@netSendAur

; 2151 : 				return Py_BuildException();
; 2152 : 			break;
; 2153 : 
; 2154 : 		case 5:
; 2155 : 			if (!PyTuple_GetByte(poArgs, 0, &InventoryPos.window_type))

  00033	8d 45 f8	 lea	 eax, DWORD PTR _InventoryPos$[ebp]
  00036	50		 push	 eax
  00037	6a 00		 push	 0
  00039	56		 push	 esi
  0003a	e8 00 00 00 00	 call	 ?PyTuple_GetByte@@YA_NPAU_object@@HPAE@Z ; PyTuple_GetByte
  0003f	83 c4 0c	 add	 esp, 12			; 0000000cH
  00042	84 c0		 test	 al, al
  00044	74 4c		 je	 SHORT $LN34@netSendAur

; 2156 : 				return Py_BuildException();
; 2157 : 
; 2158 : 			if (!PyTuple_GetInteger(poArgs, 1, &InventoryPos.cell))

  00046	8d 45 f9	 lea	 eax, DWORD PTR _InventoryPos$[ebp+1]
  00049	50		 push	 eax
  0004a	6a 01		 push	 1
  0004c	56		 push	 esi
  0004d	e8 00 00 00 00	 call	 ?PyTuple_GetInteger@@YA_NPAU_object@@HPAG@Z ; PyTuple_GetInteger
  00052	83 c4 0c	 add	 esp, 12			; 0000000cH
  00055	84 c0		 test	 al, al
  00057	74 39		 je	 SHORT $LN34@netSendAur

; 2159 : 				return Py_BuildException();
; 2160 : 
; 2161 : 			if (!PyTuple_GetByte(poArgs, 2, &AuraPos.window_type))

  00059	8d 45 fc	 lea	 eax, DWORD PTR _AuraPos$[ebp]
  0005c	50		 push	 eax
  0005d	6a 02		 push	 2
  0005f	56		 push	 esi
  00060	e8 00 00 00 00	 call	 ?PyTuple_GetByte@@YA_NPAU_object@@HPAE@Z ; PyTuple_GetByte
  00065	83 c4 0c	 add	 esp, 12			; 0000000cH
  00068	84 c0		 test	 al, al
  0006a	74 26		 je	 SHORT $LN34@netSendAur

; 2162 : 				return Py_BuildException();
; 2163 : 
; 2164 : 			if (!PyTuple_GetInteger(poArgs, 3, &AuraPos.cell))

  0006c	8d 45 fd	 lea	 eax, DWORD PTR _AuraPos$[ebp+1]
  0006f	50		 push	 eax
  00070	6a 03		 push	 3
  00072	56		 push	 esi
  00073	e8 00 00 00 00	 call	 ?PyTuple_GetInteger@@YA_NPAU_object@@HPAG@Z ; PyTuple_GetInteger
  00078	83 c4 0c	 add	 esp, 12			; 0000000cH
  0007b	84 c0		 test	 al, al
  0007d	74 13		 je	 SHORT $LN34@netSendAur

; 2165 : 				return Py_BuildException();
; 2166 : 
; 2167 : 			if (!PyTuple_GetByte(poArgs, 4, &bAuraRefineWindowType))

  0007f	8d 45 f4	 lea	 eax, DWORD PTR _bAuraRefineWindowType$[ebp]
  00082	50		 push	 eax
  00083	6a 04		 push	 4
  00085	56		 push	 esi
  00086	e8 00 00 00 00	 call	 ?PyTuple_GetByte@@YA_NPAU_object@@HPAE@Z ; PyTuple_GetByte
  0008b	83 c4 0c	 add	 esp, 12			; 0000000cH
  0008e	84 c0		 test	 al, al
  00090	75 4c		 jne	 SHORT $LN7@netSendAur
$LN34@netSendAur:

; 2179 : }

  00092	6a 00		 push	 0
  00094	e8 00 00 00 00	 call	 ?Py_BuildException@@YAPAU_object@@PBDZZ ; Py_BuildException
  00099	83 c4 04	 add	 esp, 4
  0009c	5e		 pop	 esi
  0009d	8b e5		 mov	 esp, ebp
  0009f	5d		 pop	 ebp
  000a0	c3		 ret	 0
$LN4@netSendAur:

; 2140 : 	{
; 2141 : 		case 3:
; 2142 : 			if (!PyTuple_GetInteger(poArgs, 0, &InventoryPos.cell))

  000a1	8d 45 f9	 lea	 eax, DWORD PTR _InventoryPos$[ebp+1]
  000a4	50		 push	 eax
  000a5	6a 00		 push	 0
  000a7	56		 push	 esi
  000a8	e8 00 00 00 00	 call	 ?PyTuple_GetInteger@@YA_NPAU_object@@HPAG@Z ; PyTuple_GetInteger
  000ad	83 c4 0c	 add	 esp, 12			; 0000000cH
  000b0	84 c0		 test	 al, al
  000b2	74 de		 je	 SHORT $LN34@netSendAur

; 2143 : 				return Py_BuildException();
; 2144 : 
; 2145 : 			AuraPos.window_type = AURA_REFINE;
; 2146 : 
; 2147 : 			if (!PyTuple_GetInteger(poArgs, 1, &AuraPos.cell))

  000b4	8d 45 fd	 lea	 eax, DWORD PTR _AuraPos$[ebp+1]
  000b7	c6 45 fc 0d	 mov	 BYTE PTR _AuraPos$[ebp], 13 ; 0000000dH
  000bb	50		 push	 eax
  000bc	6a 01		 push	 1
  000be	56		 push	 esi
  000bf	e8 00 00 00 00	 call	 ?PyTuple_GetInteger@@YA_NPAU_object@@HPAG@Z ; PyTuple_GetInteger
  000c4	83 c4 0c	 add	 esp, 12			; 0000000cH
  000c7	84 c0		 test	 al, al
  000c9	74 c7		 je	 SHORT $LN34@netSendAur

; 2148 : 				return Py_BuildException();
; 2149 : 
; 2150 : 			if (!PyTuple_GetByte(poArgs, 2, &bAuraRefineWindowType))

  000cb	8d 45 f4	 lea	 eax, DWORD PTR _bAuraRefineWindowType$[ebp]
  000ce	50		 push	 eax
  000cf	6a 02		 push	 2
  000d1	56		 push	 esi
  000d2	e8 00 00 00 00	 call	 ?PyTuple_GetByte@@YA_NPAU_object@@HPAE@Z ; PyTuple_GetByte
  000d7	83 c4 0c	 add	 esp, 12			; 0000000cH
  000da	84 c0		 test	 al, al
  000dc	74 b4		 je	 SHORT $LN34@netSendAur
$LN7@netSendAur:
; File C:\Anka2Project\Anka2Project\Source\Binary\source\eterBase\Singleton.h

; 26   : 		assert(ms_singleton);

  000de	8b 0d 00 00 00
	00		 mov	 ecx, DWORD PTR ?ms_singleton@?$CSingleton@VCPythonNetworkStream@@@@0PAVCPythonNetworkStream@@A ; CSingleton<CPythonNetworkStream>::ms_singleton
  000e4	85 c9		 test	 ecx, ecx
  000e6	75 1a		 jne	 SHORT $LN22@netSendAur
  000e8	6a 1a		 push	 26			; 0000001aH
  000ea	68 00 00 00 00	 push	 OFFSET ??_C@_1IO@CAJLEEOI@?$AAC?$AA?3?$AA?2?$AAA?$AAn?$AAk?$AAa?$AA2?$AAP?$AAr?$AAo?$AAj?$AAe?$AAc?$AAt@
  000ef	68 00 00 00 00	 push	 OFFSET ??_C@_1BK@FMEHPMFE@?$AAm?$AAs?$AA_?$AAs?$AAi?$AAn?$AAg?$AAl?$AAe?$AAt?$AAo?$AAn@
  000f4	e8 00 00 00 00	 call	 __wassert
  000f9	8b 0d 00 00 00
	00		 mov	 ecx, DWORD PTR ?ms_singleton@?$CSingleton@VCPythonNetworkStream@@@@0PAVCPythonNetworkStream@@A ; CSingleton<CPythonNetworkStream>::ms_singleton
  000ff	83 c4 0c	 add	 esp, 12			; 0000000cH
$LN22@netSendAur:
; File C:\Anka2Project\Anka2Project\Source\Binary\source\UserInterface\PythonNetworkStreamModule.cpp

; 2176 : 	rkNetStream.SendAuraRefineCheckIn(InventoryPos, AuraPos, bAuraRefineWindowType);

  00102	ff 75 f4	 push	 DWORD PTR _bAuraRefineWindowType$[ebp]
  00105	0f b7 45 fc	 movzx	 eax, WORD PTR _AuraPos$[ebp]
  00109	51		 push	 ecx
  0010a	8b d4		 mov	 edx, esp
  0010c	51		 push	 ecx
  0010d	66 89 02	 mov	 WORD PTR [edx], ax
  00110	8a 45 fe	 mov	 al, BYTE PTR _AuraPos$[ebp+2]
  00113	88 42 02	 mov	 BYTE PTR [edx+2], al
  00116	8b d4		 mov	 edx, esp
  00118	0f b7 45 f8	 movzx	 eax, WORD PTR _InventoryPos$[ebp]
  0011c	66 89 02	 mov	 WORD PTR [edx], ax
  0011f	8a 45 fa	 mov	 al, BYTE PTR _InventoryPos$[ebp+2]
  00122	88 42 02	 mov	 BYTE PTR [edx+2], al
  00125	e8 00 00 00 00	 call	 ?SendAuraRefineCheckIn@CPythonNetworkStream@@QAE_NUSItemPos@@0E@Z ; CPythonNetworkStream::SendAuraRefineCheckIn

; 2177 : 
; 2178 : 	return Py_BuildNone();

  0012a	e8 00 00 00 00	 call	 ?Py_BuildNone@@YAPAU_object@@XZ ; Py_BuildNone

; 2179 : }

  0012f	5e		 pop	 esi
  00130	8b e5		 mov	 esp, ebp
  00132	5d		 pop	 ebp
  00133	c3		 ret	 0
?netSendAuraRefineCheckIn@@YAPAU_object@@PAU1@0@Z ENDP	; netSendAuraRefineCheckIn
_TEXT	ENDS
; Function compile flags: /Ogtp
; File C:\Anka2Project\Anka2Project\Source\Binary\source\UserInterface\PythonNetworkStreamModule.cpp
; File C:\Anka2Project\Anka2Project\Source\Binary\source\UserInterface\GameType.h
; File C:\Anka2Project\Anka2Project\Source\Binary\source\UserInterface\PythonNetworkStreamModule.cpp
; File C:\Anka2Project\Anka2Project\Source\Binary\source\UserInterface\GameType.h
; File C:\Anka2Project\Anka2Project\Source\Binary\source\UserInterface\PythonNetworkStreamModule.cpp
; File C:\Anka2Project\Anka2Project\Source\Binary\source\eterBase\Singleton.h
; File C:\Anka2Project\Anka2Project\Source\Binary\source\UserInterface\PythonNetworkStreamModule.cpp
;	COMDAT ?netSendAuraRefineCheckOut@@YAPAU_object@@PAU1@0@Z
_TEXT	SEGMENT
_byAuraRefineWindowType$ = -8				; size = 1
_AuraPos$ = -4						; size = 3
_poSelf$ = 8						; size = 4
_poArgs$ = 12						; size = 4
?netSendAuraRefineCheckOut@@YAPAU_object@@PAU1@0@Z PROC	; netSendAuraRefineCheckOut, COMDAT

; 2182 : {

  00000	55		 push	 ebp
  00001	8b ec		 mov	 ebp, esp
  00003	83 ec 08	 sub	 esp, 8
  00006	56		 push	 esi

; 2186 : 	switch (PyTuple_Size(poArgs))

  00007	8b 75 0c	 mov	 esi, DWORD PTR _poArgs$[ebp]
; File C:\Anka2Project\Anka2Project\Source\Binary\source\UserInterface\GameType.h

; 448  : 		cell = WORD_MAX;

  0000a	b8 ff ff 00 00	 mov	 eax, 65535		; 0000ffffH
; File C:\Anka2Project\Anka2Project\Source\Binary\source\UserInterface\PythonNetworkStreamModule.cpp

; 2186 : 	switch (PyTuple_Size(poArgs))

  0000f	56		 push	 esi
; File C:\Anka2Project\Anka2Project\Source\Binary\source\UserInterface\GameType.h

; 447  : 		window_type = INVENTORY;

  00010	c6 45 fc 01	 mov	 BYTE PTR _AuraPos$[ebp], 1

; 448  : 		cell = WORD_MAX;

  00014	66 89 45 fd	 mov	 WORD PTR _AuraPos$[ebp+1], ax
; File C:\Anka2Project\Anka2Project\Source\Binary\source\UserInterface\PythonNetworkStreamModule.cpp

; 2186 : 	switch (PyTuple_Size(poArgs))

  00018	ff 15 00 00 00
	00		 call	 DWORD PTR __imp__PyTuple_Size
  0001e	83 c4 04	 add	 esp, 4
  00021	83 e8 02	 sub	 eax, 2
  00024	74 4d		 je	 SHORT $LN4@netSendAur
  00026	83 e8 01	 sub	 eax, 1
  00029	75 39		 jne	 SHORT $LN26@netSendAur

; 2195 : 				return Py_BuildException();
; 2196 : 			break;
; 2197 : 
; 2198 : 		case 3:
; 2199 : 			if (!PyTuple_GetByte(poArgs, 0, &AuraPos.window_type))

  0002b	8d 45 fc	 lea	 eax, DWORD PTR _AuraPos$[ebp]
  0002e	50		 push	 eax
  0002f	6a 00		 push	 0
  00031	56		 push	 esi
  00032	e8 00 00 00 00	 call	 ?PyTuple_GetByte@@YA_NPAU_object@@HPAE@Z ; PyTuple_GetByte
  00037	83 c4 0c	 add	 esp, 12			; 0000000cH
  0003a	84 c0		 test	 al, al
  0003c	74 26		 je	 SHORT $LN26@netSendAur

; 2200 : 				return Py_BuildException();
; 2201 : 
; 2202 : 			if (!PyTuple_GetInteger(poArgs, 1, &AuraPos.cell))

  0003e	8d 45 fd	 lea	 eax, DWORD PTR _AuraPos$[ebp+1]
  00041	50		 push	 eax
  00042	6a 01		 push	 1
  00044	56		 push	 esi
  00045	e8 00 00 00 00	 call	 ?PyTuple_GetInteger@@YA_NPAU_object@@HPAG@Z ; PyTuple_GetInteger
  0004a	83 c4 0c	 add	 esp, 12			; 0000000cH
  0004d	84 c0		 test	 al, al
  0004f	74 13		 je	 SHORT $LN26@netSendAur

; 2203 : 				return Py_BuildException();
; 2204 : 
; 2205 : 			if (!PyTuple_GetByte(poArgs, 2, &byAuraRefineWindowType))

  00051	8d 45 f8	 lea	 eax, DWORD PTR _byAuraRefineWindowType$[ebp]
  00054	50		 push	 eax
  00055	6a 02		 push	 2
  00057	56		 push	 esi
  00058	e8 00 00 00 00	 call	 ?PyTuple_GetByte@@YA_NPAU_object@@HPAE@Z ; PyTuple_GetByte
  0005d	83 c4 0c	 add	 esp, 12			; 0000000cH
  00060	84 c0		 test	 al, al
  00062	75 39		 jne	 SHORT $LN6@netSendAur
$LN26@netSendAur:

; 2217 : }

  00064	6a 00		 push	 0
  00066	e8 00 00 00 00	 call	 ?Py_BuildException@@YAPAU_object@@PBDZZ ; Py_BuildException
  0006b	83 c4 04	 add	 esp, 4
  0006e	5e		 pop	 esi
  0006f	8b e5		 mov	 esp, ebp
  00071	5d		 pop	 ebp
  00072	c3		 ret	 0
$LN4@netSendAur:

; 2187 : 	{
; 2188 : 		case 2:
; 2189 : 			AuraPos.window_type = AURA_REFINE;
; 2190 : 
; 2191 : 			if (!PyTuple_GetInteger(poArgs, 0, &AuraPos.cell))

  00073	8d 45 fd	 lea	 eax, DWORD PTR _AuraPos$[ebp+1]
  00076	c6 45 fc 0d	 mov	 BYTE PTR _AuraPos$[ebp], 13 ; 0000000dH
  0007a	50		 push	 eax
  0007b	6a 00		 push	 0
  0007d	56		 push	 esi
  0007e	e8 00 00 00 00	 call	 ?PyTuple_GetInteger@@YA_NPAU_object@@HPAG@Z ; PyTuple_GetInteger
  00083	83 c4 0c	 add	 esp, 12			; 0000000cH
  00086	84 c0		 test	 al, al
  00088	74 da		 je	 SHORT $LN26@netSendAur

; 2192 : 				return Py_BuildException();
; 2193 : 
; 2194 : 			if (!PyTuple_GetByte(poArgs, 1, &byAuraRefineWindowType))

  0008a	8d 45 f8	 lea	 eax, DWORD PTR _byAuraRefineWindowType$[ebp]
  0008d	50		 push	 eax
  0008e	6a 01		 push	 1
  00090	56		 push	 esi
  00091	e8 00 00 00 00	 call	 ?PyTuple_GetByte@@YA_NPAU_object@@HPAE@Z ; PyTuple_GetByte
  00096	83 c4 0c	 add	 esp, 12			; 0000000cH
  00099	84 c0		 test	 al, al
  0009b	74 c7		 je	 SHORT $LN26@netSendAur
$LN6@netSendAur:
; File C:\Anka2Project\Anka2Project\Source\Binary\source\eterBase\Singleton.h

; 26   : 		assert(ms_singleton);

  0009d	8b 0d 00 00 00
	00		 mov	 ecx, DWORD PTR ?ms_singleton@?$CSingleton@VCPythonNetworkStream@@@@0PAVCPythonNetworkStream@@A ; CSingleton<CPythonNetworkStream>::ms_singleton
  000a3	85 c9		 test	 ecx, ecx
  000a5	75 1a		 jne	 SHORT $LN17@netSendAur
  000a7	6a 1a		 push	 26			; 0000001aH
  000a9	68 00 00 00 00	 push	 OFFSET ??_C@_1IO@CAJLEEOI@?$AAC?$AA?3?$AA?2?$AAA?$AAn?$AAk?$AAa?$AA2?$AAP?$AAr?$AAo?$AAj?$AAe?$AAc?$AAt@
  000ae	68 00 00 00 00	 push	 OFFSET ??_C@_1BK@FMEHPMFE@?$AAm?$AAs?$AA_?$AAs?$AAi?$AAn?$AAg?$AAl?$AAe?$AAt?$AAo?$AAn@
  000b3	e8 00 00 00 00	 call	 __wassert
  000b8	8b 0d 00 00 00
	00		 mov	 ecx, DWORD PTR ?ms_singleton@?$CSingleton@VCPythonNetworkStream@@@@0PAVCPythonNetworkStream@@A ; CSingleton<CPythonNetworkStream>::ms_singleton
  000be	83 c4 0c	 add	 esp, 12			; 0000000cH
$LN17@netSendAur:
; File C:\Anka2Project\Anka2Project\Source\Binary\source\UserInterface\PythonNetworkStreamModule.cpp

; 2214 : 	rkNetStream.SendAuraRefineCheckOut(AuraPos, byAuraRefineWindowType);

  000c1	ff 75 f8	 push	 DWORD PTR _byAuraRefineWindowType$[ebp]
  000c4	66 8b 45 fc	 mov	 ax, WORD PTR _AuraPos$[ebp]
  000c8	51		 push	 ecx
  000c9	8b d4		 mov	 edx, esp
  000cb	66 89 02	 mov	 WORD PTR [edx], ax
  000ce	8a 45 fe	 mov	 al, BYTE PTR _AuraPos$[ebp+2]
  000d1	88 42 02	 mov	 BYTE PTR [edx+2], al
  000d4	e8 00 00 00 00	 call	 ?SendAuraRefineCheckOut@CPythonNetworkStream@@QAE_NUSItemPos@@E@Z ; CPythonNetworkStream::SendAuraRefineCheckOut

; 2215 : 
; 2216 : 	return Py_BuildNone();

  000d9	e8 00 00 00 00	 call	 ?Py_BuildNone@@YAPAU_object@@XZ ; Py_BuildNone

; 2217 : }

  000de	5e		 pop	 esi
  000df	8b e5		 mov	 esp, ebp
  000e1	5d		 pop	 ebp
  000e2	c3		 ret	 0
?netSendAuraRefineCheckOut@@YAPAU_object@@PAU1@0@Z ENDP	; netSendAuraRefineCheckOut
_TEXT	ENDS
; Function compile flags: /Ogtp
; File C:\Anka2Project\Anka2Project\Source\Binary\source\UserInterface\PythonNetworkStreamModule.cpp
;	COMDAT ?netCheckUsePetItem@@YAPAU_object@@PAU1@0@Z
_TEXT	SEGMENT
_poSelf$ = 8						; size = 4
_poArgs$ = 12						; size = 4
?netCheckUsePetItem@@YAPAU_object@@PAU1@0@Z PROC	; netCheckUsePetItem, COMDAT

; 2244 : 	int petEggUse = CItemData::PET_EGG_USE_TRUE;
; 2245 : 
; 2246 : 	return Py_BuildValue("i", petEggUse);

  00000	6a 00		 push	 0
  00002	68 00 00 00 00	 push	 OFFSET ??_C@_01KBJDNOO@i@
  00007	ff 15 00 00 00
	00		 call	 DWORD PTR __imp__Py_BuildValue
  0000d	83 c4 08	 add	 esp, 8

; 2247 : }

  00010	c3		 ret	 0
?netCheckUsePetItem@@YAPAU_object@@PAU1@0@Z ENDP	; netCheckUsePetItem
_TEXT	ENDS
; Function compile flags: /Ogtp
; File C:\Anka2Project\Anka2Project\Source\Binary\source\UserInterface\PythonNetworkStreamModule.cpp
; File C:\Program Files\Microsoft Visual Studio\2022\Community\VC\Tools\MSVC\14.44.35207\include\vector
; File C:\Anka2Project\Anka2Project\Source\Binary\source\UserInterface\PythonNetworkStreamModule.cpp
; File C:\Program Files\Microsoft Visual Studio\2022\Community\VC\Tools\MSVC\14.44.35207\include\utility
; File C:\Anka2Project\Anka2Project\Source\Binary\source\UserInterface\PythonNetworkStreamModule.cpp
; File C:\Program Files\Microsoft Visual Studio\2022\Community\VC\Tools\MSVC\14.44.35207\include\vector
; File C:\Anka2Project\Anka2Project\Source\Binary\source\UserInterface\PythonNetworkStreamModule.cpp
; File C:\Program Files\Microsoft Visual Studio\2022\Community\VC\Tools\MSVC\14.44.35207\include\utility
; File C:\Program Files\Microsoft Visual Studio\2022\Community\VC\Tools\MSVC\14.44.35207\include\vector
; File C:\Anka2Project\Anka2Project\Source\Binary\source\UserInterface\PythonNetworkStreamModule.cpp
; File C:\Anka2Project\Anka2Project\Source\Binary\source\eterBase\Singleton.h
; File C:\Anka2Project\Anka2Project\Source\Binary\source\UserInterface\PythonNetworkStreamModule.cpp
; File C:\Program Files\Microsoft Visual Studio\2022\Community\VC\Tools\MSVC\14.44.35207\include\vector
; File C:\Program Files\Microsoft Visual Studio\2022\Community\VC\Tools\MSVC\14.44.35207\include\xmemory
; File C:\Program Files\Microsoft Visual Studio\2022\Community\VC\Tools\MSVC\14.44.35207\include\vector
; File C:\Program Files\Microsoft Visual Studio\2022\Community\VC\Tools\MSVC\14.44.35207\include\xmemory
; File C:\Anka2Project\Anka2Project\Source\Binary\source\UserInterface\PythonNetworkStreamModule.cpp
; File C:\Program Files\Microsoft Visual Studio\2022\Community\VC\Tools\MSVC\14.44.35207\include\xmemory
; File C:\Anka2Project\Anka2Project\Source\Binary\source\UserInterface\PythonNetworkStreamModule.cpp
;	COMDAT ?netSendPetFeedPacket@@YAPAU_object@@PAU1@0@Z
_TEXT	SEGMENT
_itemVec$ = -40						; size = 12
_iFeedIndex$ = -28					; size = 4
_pyCountList$ = -24					; size = 4
$T6 = -20						; size = 4
_pyPosList$ = -16					; size = 4
__$EHRec$ = -12						; size = 12
_poSelf$ = 8						; size = 4
_poArgs$ = 12						; size = 4
?netSendPetFeedPacket@@YAPAU_object@@PAU1@0@Z PROC	; netSendPetFeedPacket, COMDAT

; 2279 : {

  00000	55		 push	 ebp
  00001	8b ec		 mov	 ebp, esp
  00003	6a ff		 push	 -1
  00005	68 00 00 00 00	 push	 __ehhandler$?netSendPetFeedPacket@@YAPAU_object@@PAU1@0@Z
  0000a	64 a1 00 00 00
	00		 mov	 eax, DWORD PTR fs:0
  00010	50		 push	 eax
  00011	83 ec 1c	 sub	 esp, 28			; 0000001cH
  00014	53		 push	 ebx
  00015	56		 push	 esi
  00016	57		 push	 edi
  00017	a1 00 00 00 00	 mov	 eax, DWORD PTR ___security_cookie
  0001c	33 c5		 xor	 eax, ebp
  0001e	50		 push	 eax
  0001f	8d 45 f4	 lea	 eax, DWORD PTR __$EHRec$[ebp]
  00022	64 a3 00 00 00
	00		 mov	 DWORD PTR fs:0, eax
; File C:\Program Files\Microsoft Visual Studio\2022\Community\VC\Tools\MSVC\14.44.35207\include\vector

; 400  :     _CONSTEXPR20 _Vector_val() noexcept : _Myfirst(), _Mylast(), _Myend() {}

  00028	c7 45 d8 00 00
	00 00		 mov	 DWORD PTR _itemVec$[ebp], 0
  0002f	c7 45 dc 00 00
	00 00		 mov	 DWORD PTR _itemVec$[ebp+4], 0
  00036	c7 45 e0 00 00
	00 00		 mov	 DWORD PTR _itemVec$[ebp+8], 0
; File C:\Anka2Project\Anka2Project\Source\Binary\source\UserInterface\PythonNetworkStreamModule.cpp

; 2285 : 	if (!PyArg_ParseTuple(poArgs, "iOO", &iFeedIndex, &pyPosList, &pyCountList))

  0003d	8d 45 e8	 lea	 eax, DWORD PTR _pyCountList$[ebp]
  00040	c7 45 fc 00 00
	00 00		 mov	 DWORD PTR __$EHRec$[ebp+8], 0
  00047	50		 push	 eax
  00048	8d 45 f0	 lea	 eax, DWORD PTR _pyPosList$[ebp]
  0004b	50		 push	 eax
  0004c	8d 45 e4	 lea	 eax, DWORD PTR _iFeedIndex$[ebp]
  0004f	50		 push	 eax
  00050	68 00 00 00 00	 push	 OFFSET ??_C@_03JELCABFN@iOO@
  00055	ff 75 0c	 push	 DWORD PTR _poArgs$[ebp]
  00058	ff 15 00 00 00
	00		 call	 DWORD PTR __imp__PyArg_ParseTuple
  0005e	83 c4 14	 add	 esp, 20			; 00000014H
  00061	85 c0		 test	 eax, eax
  00063	75 0e		 jne	 SHORT $LN5@netSendPet

; 2286 : 		return Py_BuildException();

  00065	50		 push	 eax
  00066	e8 00 00 00 00	 call	 ?Py_BuildException@@YAPAU_object@@PBDZZ ; Py_BuildException
  0006b	83 c4 04	 add	 esp, 4
  0006e	e9 b6 00 00 00	 jmp	 $LN87@netSendPet
$LN5@netSendPet:

; 2288 : 	for (int i = 0; i < PyList_Size(pyPosList); ++i)

  00073	ff 75 f0	 push	 DWORD PTR _pyPosList$[ebp]
  00076	8b 1d 00 00 00
	00		 mov	 ebx, DWORD PTR __imp__PyList_Size
  0007c	33 f6		 xor	 esi, esi
  0007e	ff d3		 call	 ebx
  00080	83 c4 04	 add	 esp, 4
  00083	85 c0		 test	 eax, eax
  00085	7e 6d		 jle	 SHORT $LN3@netSendPet
  00087	66 0f 1f 84 00
	00 00 00 00	 npad	 9
$LL4@netSendPet:

; 2289 : 	{
; 2290 : 		PyObject *pyItemPos = PyList_GetItem(pyPosList, i);

  00090	56		 push	 esi
  00091	ff 75 f0	 push	 DWORD PTR _pyPosList$[ebp]
  00094	ff 15 00 00 00
	00		 call	 DWORD PTR __imp__PyList_GetItem

; 2291 : 		WORD itemPos = static_cast<WORD>(PyInt_AsLong(pyItemPos));

  0009a	50		 push	 eax
  0009b	ff 15 00 00 00
	00		 call	 DWORD PTR __imp__PyInt_AsLong

; 2292 : 
; 2293 : 		PyObject *pyItemCount = PyList_GetItem(pyCountList, i);

  000a1	56		 push	 esi
  000a2	ff 75 e8	 push	 DWORD PTR _pyCountList$[ebp]
  000a5	0f b7 f8	 movzx	 edi, ax
  000a8	ff 15 00 00 00
	00		 call	 DWORD PTR __imp__PyList_GetItem

; 2294 : 		WORD itemCount = static_cast<WORD>(PyInt_AsLong(pyItemCount));

  000ae	50		 push	 eax
; File C:\Program Files\Microsoft Visual Studio\2022\Community\VC\Tools\MSVC\14.44.35207\include\utility

; 274  :         : first(_STD forward<_Other1>(_Val1)), second(_STD forward<_Other2>(_Val2)) {

  000af	66 89 7d ec	 mov	 WORD PTR $T6[ebp], di
; File C:\Anka2Project\Anka2Project\Source\Binary\source\UserInterface\PythonNetworkStreamModule.cpp

; 2294 : 		WORD itemCount = static_cast<WORD>(PyInt_AsLong(pyItemCount));

  000b3	ff 15 00 00 00
	00		 call	 DWORD PTR __imp__PyInt_AsLong
; File C:\Program Files\Microsoft Visual Studio\2022\Community\VC\Tools\MSVC\14.44.35207\include\vector

; 844  :         if (_Mylast != _My_data._Myend) {

  000b9	8b 55 dc	 mov	 edx, DWORD PTR _itemVec$[ebp+4]
; File C:\Anka2Project\Anka2Project\Source\Binary\source\UserInterface\PythonNetworkStreamModule.cpp

; 2294 : 		WORD itemCount = static_cast<WORD>(PyInt_AsLong(pyItemCount));

  000bc	83 c4 18	 add	 esp, 24			; 00000018H
  000bf	0f b7 c0	 movzx	 eax, ax
; File C:\Program Files\Microsoft Visual Studio\2022\Community\VC\Tools\MSVC\14.44.35207\include\utility

; 274  :         : first(_STD forward<_Other1>(_Val1)), second(_STD forward<_Other2>(_Val2)) {

  000c2	66 89 45 ee	 mov	 WORD PTR $T6[ebp+2], ax
; File C:\Program Files\Microsoft Visual Studio\2022\Community\VC\Tools\MSVC\14.44.35207\include\vector

; 844  :         if (_Mylast != _My_data._Myend) {

  000c6	3b 55 e0	 cmp	 edx, DWORD PTR _itemVec$[ebp+8]
  000c9	74 0f		 je	 SHORT $LN51@netSendPet

; 860  :             _STD _Construct_in_place(*_Mylast, _STD forward<_Valty>(_Val)...);

  000cb	8b c8		 mov	 ecx, eax
  000cd	c1 e1 10	 shl	 ecx, 16			; 00000010H
  000d0	0b cf		 or	 ecx, edi
  000d2	89 0a		 mov	 DWORD PTR [edx], ecx

; 861  :         } else {
; 862  :             _ASAN_VECTOR_EXTEND_GUARD(static_cast<size_type>(_Mylast - _My_data._Myfirst) + 1);
; 863  :             _Alty_traits::construct(_Getal(), _Unfancy(_Mylast), _STD forward<_Valty>(_Val)...);
; 864  :             _ASAN_VECTOR_RELEASE_GUARD;
; 865  :         }
; 866  : 
; 867  :         _Orphan_range(_Mylast, _Mylast);
; 868  :         _Ty& _Result = *_Mylast;
; 869  :         ++_Mylast;

  000d4	83 45 dc 04	 add	 DWORD PTR _itemVec$[ebp+4], 4

; 845  :             return _Emplace_back_with_unused_capacity(_STD forward<_Valty>(_Val)...);

  000d8	eb 0d		 jmp	 SHORT $LN2@netSendPet
$LN51@netSendPet:

; 846  :         }
; 847  : 
; 848  :         return *_Emplace_reallocate(_Mylast, _STD forward<_Valty>(_Val)...);

  000da	8d 45 ec	 lea	 eax, DWORD PTR $T6[ebp]
  000dd	50		 push	 eax
  000de	52		 push	 edx
  000df	8d 4d d8	 lea	 ecx, DWORD PTR _itemVec$[ebp]
  000e2	e8 00 00 00 00	 call	 ??$_Emplace_reallocate@U?$pair@GG@std@@@?$vector@U?$pair@GG@std@@V?$allocator@U?$pair@GG@std@@@2@@std@@AAEPAU?$pair@GG@1@QAU21@$$QAU21@@Z ; std::vector<std::pair<unsigned short,unsigned short>,std::allocator<std::pair<unsigned short,unsigned short> > >::_Emplace_reallocate<std::pair<unsigned short,unsigned short> >
$LN2@netSendPet:
; File C:\Anka2Project\Anka2Project\Source\Binary\source\UserInterface\PythonNetworkStreamModule.cpp

; 2288 : 	for (int i = 0; i < PyList_Size(pyPosList); ++i)

  000e7	ff 75 f0	 push	 DWORD PTR _pyPosList$[ebp]
  000ea	46		 inc	 esi
  000eb	ff d3		 call	 ebx
  000ed	83 c4 04	 add	 esp, 4
  000f0	3b f0		 cmp	 esi, eax
  000f2	7c 9c		 jl	 SHORT $LL4@netSendPet
$LN3@netSendPet:
; File C:\Anka2Project\Anka2Project\Source\Binary\source\eterBase\Singleton.h

; 26   : 		assert(ms_singleton);

  000f4	8b 0d 00 00 00
	00		 mov	 ecx, DWORD PTR ?ms_singleton@?$CSingleton@VCPythonNetworkStream@@@@0PAVCPythonNetworkStream@@A ; CSingleton<CPythonNetworkStream>::ms_singleton
  000fa	85 c9		 test	 ecx, ecx
  000fc	75 1a		 jne	 SHORT $LN57@netSendPet
  000fe	6a 1a		 push	 26			; 0000001aH
  00100	68 00 00 00 00	 push	 OFFSET ??_C@_1IO@CAJLEEOI@?$AAC?$AA?3?$AA?2?$AAA?$AAn?$AAk?$AAa?$AA2?$AAP?$AAr?$AAo?$AAj?$AAe?$AAc?$AAt@
  00105	68 00 00 00 00	 push	 OFFSET ??_C@_1BK@FMEHPMFE@?$AAm?$AAs?$AA_?$AAs?$AAi?$AAn?$AAg?$AAl?$AAe?$AAt?$AAo?$AAn@
  0010a	e8 00 00 00 00	 call	 __wassert
  0010f	8b 0d 00 00 00
	00		 mov	 ecx, DWORD PTR ?ms_singleton@?$CSingleton@VCPythonNetworkStream@@@@0PAVCPythonNetworkStream@@A ; CSingleton<CPythonNetworkStream>::ms_singleton
  00115	83 c4 0c	 add	 esp, 12			; 0000000cH
$LN57@netSendPet:
; File C:\Anka2Project\Anka2Project\Source\Binary\source\UserInterface\PythonNetworkStreamModule.cpp

; 2300 : 	rns.SendPetFeedPacket(iFeedIndex, itemVec);

  00118	8d 45 d8	 lea	 eax, DWORD PTR _itemVec$[ebp]
  0011b	50		 push	 eax
  0011c	ff 75 e4	 push	 DWORD PTR _iFeedIndex$[ebp]
  0011f	e8 00 00 00 00	 call	 ?SendPetFeedPacket@CPythonNetworkStream@@QAE_NHABV?$vector@U?$pair@GG@std@@V?$allocator@U?$pair@GG@std@@@2@@std@@@Z ; CPythonNetworkStream::SendPetFeedPacket

; 2302 : 	return Py_BuildNone();

  00124	e8 00 00 00 00	 call	 ?Py_BuildNone@@YAPAU_object@@XZ ; Py_BuildNone
$LN87@netSendPet:
; File C:\Program Files\Microsoft Visual Studio\2022\Community\VC\Tools\MSVC\14.44.35207\include\vector

; 2090 :         if (_Myfirst) { // destroy and deallocate old array

  00129	8b 55 d8	 mov	 edx, DWORD PTR _itemVec$[ebp]
  0012c	8b f0		 mov	 esi, eax
  0012e	85 d2		 test	 edx, edx
  00130	74 2c		 je	 SHORT $LN68@netSendPet

; 2093 :             _Al.deallocate(_Myfirst, static_cast<size_type>(_Myend - _Myfirst));

  00132	8b 4d e0	 mov	 ecx, DWORD PTR _itemVec$[ebp+8]
; File C:\Program Files\Microsoft Visual Studio\2022\Community\VC\Tools\MSVC\14.44.35207\include\xmemory

; 985  :         _STD _Deallocate<_New_alignof<_Ty>>(_Ptr, sizeof(_Ty) * _Count);

  00135	8b c2		 mov	 eax, edx
; File C:\Program Files\Microsoft Visual Studio\2022\Community\VC\Tools\MSVC\14.44.35207\include\vector

; 2093 :             _Al.deallocate(_Myfirst, static_cast<size_type>(_Myend - _Myfirst));

  00137	2b ca		 sub	 ecx, edx
; File C:\Program Files\Microsoft Visual Studio\2022\Community\VC\Tools\MSVC\14.44.35207\include\xmemory

; 985  :         _STD _Deallocate<_New_alignof<_Ty>>(_Ptr, sizeof(_Ty) * _Count);

  00139	83 e1 fc	 and	 ecx, -4			; fffffffcH

; 284  :         if (_Bytes >= _Big_allocation_threshold) {

  0013c	81 f9 00 10 00
	00		 cmp	 ecx, 4096		; 00001000H
  00142	72 10		 jb	 SHORT $LN76@netSendPet

; 205  :     const uintptr_t _Ptr_container   = _Ptr_user[-1];

  00144	8b 50 fc	 mov	 edx, DWORD PTR [eax-4]
  00147	83 c1 23	 add	 ecx, 35			; 00000023H
  0014a	2b c2		 sub	 eax, edx

; 219  :     _STL_VERIFY(_Back_shift >= _Min_back_shift && _Back_shift <= _Non_user_size, "invalid argument");

  0014c	83 c0 fc	 add	 eax, -4			; fffffffcH
  0014f	83 f8 1f	 cmp	 eax, 31			; 0000001fH
  00152	77 1e		 ja	 SHORT $LN89@netSendPet
$LN76@netSendPet:

; 289  :         ::operator delete(_Ptr, _Bytes);

  00154	51		 push	 ecx
  00155	52		 push	 edx
  00156	e8 00 00 00 00	 call	 ??3@YAXPAXI@Z		; operator delete
  0015b	83 c4 08	 add	 esp, 8
$LN68@netSendPet:
; File C:\Anka2Project\Anka2Project\Source\Binary\source\UserInterface\PythonNetworkStreamModule.cpp

; 2302 : 	return Py_BuildNone();

  0015e	8b c6		 mov	 eax, esi

; 2303 : }

  00160	8b 4d f4	 mov	 ecx, DWORD PTR __$EHRec$[ebp]
  00163	64 89 0d 00 00
	00 00		 mov	 DWORD PTR fs:0, ecx
  0016a	59		 pop	 ecx
  0016b	5f		 pop	 edi
  0016c	5e		 pop	 esi
  0016d	5b		 pop	 ebx
  0016e	8b e5		 mov	 esp, ebp
  00170	5d		 pop	 ebp
  00171	c3		 ret	 0
$LN89@netSendPet:
; File C:\Program Files\Microsoft Visual Studio\2022\Community\VC\Tools\MSVC\14.44.35207\include\xmemory

; 219  :     _STL_VERIFY(_Back_shift >= _Min_back_shift && _Back_shift <= _Non_user_size, "invalid argument");

  00172	6a 00		 push	 0
  00174	6a 00		 push	 0
  00176	6a 00		 push	 0
  00178	6a 00		 push	 0
  0017a	6a 00		 push	 0
  0017c	e8 00 00 00 00	 call	 __invoke_watson
$LN86@netSendPet:
  00181	cc		 int	 3
_TEXT	ENDS
;	COMDAT text$x
text$x	SEGMENT
__unwindfunclet$?netSendPetFeedPacket@@YAPAU_object@@PAU1@0@Z$0:
  00000	8d 4d d8	 lea	 ecx, DWORD PTR _itemVec$[ebp]
  00003	e9 00 00 00 00	 jmp	 ??1?$vector@U?$pair@GG@std@@V?$allocator@U?$pair@GG@std@@@2@@std@@QAE@XZ ; std::vector<std::pair<unsigned short,unsigned short>,std::allocator<std::pair<unsigned short,unsigned short> > >::~vector<std::pair<unsigned short,unsigned short>,std::allocator<std::pair<unsigned short,unsigned short> > >
  00008	cc		 int	 3
  00009	cc		 int	 3
  0000a	cc		 int	 3
  0000b	cc		 int	 3
  0000c	cc		 int	 3
__ehhandler$?netSendPetFeedPacket@@YAPAU_object@@PAU1@0@Z:
  0000d	90		 npad	 1
  0000e	90		 npad	 1
  0000f	8b 54 24 08	 mov	 edx, DWORD PTR [esp+8]
  00013	8d 42 0c	 lea	 eax, DWORD PTR [edx+12]
  00016	8b 4a d4	 mov	 ecx, DWORD PTR [edx-44]
  00019	33 c8		 xor	 ecx, eax
  0001b	e8 00 00 00 00	 call	 @__security_check_cookie@4
  00020	b8 00 00 00 00	 mov	 eax, OFFSET __ehfuncinfo$?netSendPetFeedPacket@@YAPAU_object@@PAU1@0@Z
  00025	e9 00 00 00 00	 jmp	 ___CxxFrameHandler3
text$x	ENDS
?netSendPetFeedPacket@@YAPAU_object@@PAU1@0@Z ENDP	; netSendPetFeedPacket
; Function compile flags: /Ogtp
; File C:\Anka2Project\Anka2Project\Source\Binary\source\UserInterface\PythonNetworkStreamModule.cpp
; File C:\Program Files\Microsoft Visual Studio\2022\Community\VC\Tools\MSVC\14.44.35207\include\vector
; File C:\Anka2Project\Anka2Project\Source\Binary\source\UserInterface\PythonNetworkStreamModule.cpp
; File C:\Program Files\Microsoft Visual Studio\2022\Community\VC\Tools\MSVC\14.44.35207\include\utility
; File C:\Anka2Project\Anka2Project\Source\Binary\source\UserInterface\PythonNetworkStreamModule.cpp
; File C:\Program Files\Microsoft Visual Studio\2022\Community\VC\Tools\MSVC\14.44.35207\include\vector
; File C:\Anka2Project\Anka2Project\Source\Binary\source\UserInterface\PythonNetworkStreamModule.cpp
; File C:\Program Files\Microsoft Visual Studio\2022\Community\VC\Tools\MSVC\14.44.35207\include\utility
; File C:\Program Files\Microsoft Visual Studio\2022\Community\VC\Tools\MSVC\14.44.35207\include\vector
; File C:\Anka2Project\Anka2Project\Source\Binary\source\UserInterface\PythonNetworkStreamModule.cpp
; File C:\Anka2Project\Anka2Project\Source\Binary\source\eterBase\Singleton.h
; File C:\Anka2Project\Anka2Project\Source\Binary\source\UserInterface\GameType.h
; File C:\Anka2Project\Anka2Project\Source\Binary\source\UserInterface\PythonNetworkStreamModule.cpp
; File C:\Anka2Project\Anka2Project\Source\Binary\source\UserInterface\GameType.h
; File C:\Anka2Project\Anka2Project\Source\Binary\source\UserInterface\PythonNetworkStreamModule.cpp
; File C:\Program Files\Microsoft Visual Studio\2022\Community\VC\Tools\MSVC\14.44.35207\include\vector
; File C:\Program Files\Microsoft Visual Studio\2022\Community\VC\Tools\MSVC\14.44.35207\include\xmemory
; File C:\Program Files\Microsoft Visual Studio\2022\Community\VC\Tools\MSVC\14.44.35207\include\vector
; File C:\Program Files\Microsoft Visual Studio\2022\Community\VC\Tools\MSVC\14.44.35207\include\xmemory
; File C:\Anka2Project\Anka2Project\Source\Binary\source\UserInterface\PythonNetworkStreamModule.cpp
; File C:\Program Files\Microsoft Visual Studio\2022\Community\VC\Tools\MSVC\14.44.35207\include\xmemory
; File C:\Anka2Project\Anka2Project\Source\Binary\source\UserInterface\PythonNetworkStreamModule.cpp
;	COMDAT ?netSendPetRevive@@YAPAU_object@@PAU1@0@Z
_TEXT	SEGMENT
_itemVec$ = -40						; size = 12
_iUpBringingPos$ = -28					; size = 4
_pyCountList$ = -24					; size = 4
_pyPosList$ = -20					; size = 4
$T6 = -16						; size = 4
$T10 = -15						; size = 3
__$EHRec$ = -12						; size = 12
_poSelf$ = 8						; size = 4
_poArgs$ = 12						; size = 4
?netSendPetRevive@@YAPAU_object@@PAU1@0@Z PROC		; netSendPetRevive, COMDAT

; 2428 : {

  00000	55		 push	 ebp
  00001	8b ec		 mov	 ebp, esp
  00003	6a ff		 push	 -1
  00005	68 00 00 00 00	 push	 __ehhandler$?netSendPetRevive@@YAPAU_object@@PAU1@0@Z
  0000a	64 a1 00 00 00
	00		 mov	 eax, DWORD PTR fs:0
  00010	50		 push	 eax
  00011	83 ec 1c	 sub	 esp, 28			; 0000001cH
  00014	53		 push	 ebx
  00015	56		 push	 esi
  00016	57		 push	 edi
  00017	a1 00 00 00 00	 mov	 eax, DWORD PTR ___security_cookie
  0001c	33 c5		 xor	 eax, ebp
  0001e	50		 push	 eax
  0001f	8d 45 f4	 lea	 eax, DWORD PTR __$EHRec$[ebp]
  00022	64 a3 00 00 00
	00		 mov	 DWORD PTR fs:0, eax
; File C:\Program Files\Microsoft Visual Studio\2022\Community\VC\Tools\MSVC\14.44.35207\include\vector

; 400  :     _CONSTEXPR20 _Vector_val() noexcept : _Myfirst(), _Mylast(), _Myend() {}

  00028	c7 45 d8 00 00
	00 00		 mov	 DWORD PTR _itemVec$[ebp], 0
  0002f	c7 45 dc 00 00
	00 00		 mov	 DWORD PTR _itemVec$[ebp+4], 0
  00036	c7 45 e0 00 00
	00 00		 mov	 DWORD PTR _itemVec$[ebp+8], 0
; File C:\Anka2Project\Anka2Project\Source\Binary\source\UserInterface\PythonNetworkStreamModule.cpp

; 2434 : 	if (!PyArg_ParseTuple(poArgs, "iOO", &iUpBringingPos, &pyPosList, &pyCountList))

  0003d	8d 45 e8	 lea	 eax, DWORD PTR _pyCountList$[ebp]
  00040	c7 45 fc 00 00
	00 00		 mov	 DWORD PTR __$EHRec$[ebp+8], 0
  00047	50		 push	 eax
  00048	8d 45 ec	 lea	 eax, DWORD PTR _pyPosList$[ebp]
  0004b	50		 push	 eax
  0004c	8d 45 e4	 lea	 eax, DWORD PTR _iUpBringingPos$[ebp]
  0004f	50		 push	 eax
  00050	68 00 00 00 00	 push	 OFFSET ??_C@_03JELCABFN@iOO@
  00055	ff 75 0c	 push	 DWORD PTR _poArgs$[ebp]
  00058	ff 15 00 00 00
	00		 call	 DWORD PTR __imp__PyArg_ParseTuple
  0005e	83 c4 14	 add	 esp, 20			; 00000014H
  00061	85 c0		 test	 eax, eax
  00063	75 0e		 jne	 SHORT $LN5@netSendPet

; 2435 : 		return Py_BuildException();

  00065	50		 push	 eax
  00066	e8 00 00 00 00	 call	 ?Py_BuildException@@YAPAU_object@@PBDZZ ; Py_BuildException
  0006b	83 c4 04	 add	 esp, 4
  0006e	e9 cf 00 00 00	 jmp	 $LN89@netSendPet
$LN5@netSendPet:

; 2437 : 	for (int i = 0; i < PyList_Size(pyPosList); ++i)

  00073	ff 75 ec	 push	 DWORD PTR _pyPosList$[ebp]
  00076	8b 1d 00 00 00
	00		 mov	 ebx, DWORD PTR __imp__PyList_Size
  0007c	33 f6		 xor	 esi, esi
  0007e	ff d3		 call	 ebx
  00080	83 c4 04	 add	 esp, 4
  00083	85 c0		 test	 eax, eax
  00085	7e 6d		 jle	 SHORT $LN3@netSendPet
  00087	66 0f 1f 84 00
	00 00 00 00	 npad	 9
$LL4@netSendPet:

; 2438 : 	{
; 2439 : 		PyObject *pyItemPos = PyList_GetItem(pyPosList, i);

  00090	56		 push	 esi
  00091	ff 75 ec	 push	 DWORD PTR _pyPosList$[ebp]
  00094	ff 15 00 00 00
	00		 call	 DWORD PTR __imp__PyList_GetItem

; 2440 : 		WORD itemPos = static_cast<WORD>(PyInt_AsLong(pyItemPos));

  0009a	50		 push	 eax
  0009b	ff 15 00 00 00
	00		 call	 DWORD PTR __imp__PyInt_AsLong

; 2441 : 
; 2442 : 		PyObject *pyItemCount = PyList_GetItem(pyCountList, i);

  000a1	56		 push	 esi
  000a2	ff 75 e8	 push	 DWORD PTR _pyCountList$[ebp]
  000a5	0f b7 f8	 movzx	 edi, ax
  000a8	ff 15 00 00 00
	00		 call	 DWORD PTR __imp__PyList_GetItem

; 2443 : 		WORD itemCount = static_cast<WORD>(PyInt_AsLong(pyItemCount));

  000ae	50		 push	 eax
; File C:\Program Files\Microsoft Visual Studio\2022\Community\VC\Tools\MSVC\14.44.35207\include\utility

; 274  :         : first(_STD forward<_Other1>(_Val1)), second(_STD forward<_Other2>(_Val2)) {

  000af	66 89 7d f0	 mov	 WORD PTR $T6[ebp], di
; File C:\Anka2Project\Anka2Project\Source\Binary\source\UserInterface\PythonNetworkStreamModule.cpp

; 2443 : 		WORD itemCount = static_cast<WORD>(PyInt_AsLong(pyItemCount));

  000b3	ff 15 00 00 00
	00		 call	 DWORD PTR __imp__PyInt_AsLong
; File C:\Program Files\Microsoft Visual Studio\2022\Community\VC\Tools\MSVC\14.44.35207\include\vector

; 844  :         if (_Mylast != _My_data._Myend) {

  000b9	8b 55 dc	 mov	 edx, DWORD PTR _itemVec$[ebp+4]
; File C:\Anka2Project\Anka2Project\Source\Binary\source\UserInterface\PythonNetworkStreamModule.cpp

; 2443 : 		WORD itemCount = static_cast<WORD>(PyInt_AsLong(pyItemCount));

  000bc	83 c4 18	 add	 esp, 24			; 00000018H
  000bf	0f b7 c0	 movzx	 eax, ax
; File C:\Program Files\Microsoft Visual Studio\2022\Community\VC\Tools\MSVC\14.44.35207\include\utility

; 274  :         : first(_STD forward<_Other1>(_Val1)), second(_STD forward<_Other2>(_Val2)) {

  000c2	66 89 45 f2	 mov	 WORD PTR $T6[ebp+2], ax
; File C:\Program Files\Microsoft Visual Studio\2022\Community\VC\Tools\MSVC\14.44.35207\include\vector

; 844  :         if (_Mylast != _My_data._Myend) {

  000c6	3b 55 e0	 cmp	 edx, DWORD PTR _itemVec$[ebp+8]
  000c9	74 0f		 je	 SHORT $LN51@netSendPet

; 860  :             _STD _Construct_in_place(*_Mylast, _STD forward<_Valty>(_Val)...);

  000cb	8b c8		 mov	 ecx, eax
  000cd	c1 e1 10	 shl	 ecx, 16			; 00000010H
  000d0	0b cf		 or	 ecx, edi
  000d2	89 0a		 mov	 DWORD PTR [edx], ecx

; 861  :         } else {
; 862  :             _ASAN_VECTOR_EXTEND_GUARD(static_cast<size_type>(_Mylast - _My_data._Myfirst) + 1);
; 863  :             _Alty_traits::construct(_Getal(), _Unfancy(_Mylast), _STD forward<_Valty>(_Val)...);
; 864  :             _ASAN_VECTOR_RELEASE_GUARD;
; 865  :         }
; 866  : 
; 867  :         _Orphan_range(_Mylast, _Mylast);
; 868  :         _Ty& _Result = *_Mylast;
; 869  :         ++_Mylast;

  000d4	83 45 dc 04	 add	 DWORD PTR _itemVec$[ebp+4], 4

; 845  :             return _Emplace_back_with_unused_capacity(_STD forward<_Valty>(_Val)...);

  000d8	eb 0d		 jmp	 SHORT $LN2@netSendPet
$LN51@netSendPet:

; 846  :         }
; 847  : 
; 848  :         return *_Emplace_reallocate(_Mylast, _STD forward<_Valty>(_Val)...);

  000da	8d 45 f0	 lea	 eax, DWORD PTR $T6[ebp]
  000dd	50		 push	 eax
  000de	52		 push	 edx
  000df	8d 4d d8	 lea	 ecx, DWORD PTR _itemVec$[ebp]
  000e2	e8 00 00 00 00	 call	 ??$_Emplace_reallocate@U?$pair@GG@std@@@?$vector@U?$pair@GG@std@@V?$allocator@U?$pair@GG@std@@@2@@std@@AAEPAU?$pair@GG@1@QAU21@$$QAU21@@Z ; std::vector<std::pair<unsigned short,unsigned short>,std::allocator<std::pair<unsigned short,unsigned short> > >::_Emplace_reallocate<std::pair<unsigned short,unsigned short> >
$LN2@netSendPet:
; File C:\Anka2Project\Anka2Project\Source\Binary\source\UserInterface\PythonNetworkStreamModule.cpp

; 2437 : 	for (int i = 0; i < PyList_Size(pyPosList); ++i)

  000e7	ff 75 ec	 push	 DWORD PTR _pyPosList$[ebp]
  000ea	46		 inc	 esi
  000eb	ff d3		 call	 ebx
  000ed	83 c4 04	 add	 esp, 4
  000f0	3b f0		 cmp	 esi, eax
  000f2	7c 9c		 jl	 SHORT $LL4@netSendPet
$LN3@netSendPet:
; File C:\Anka2Project\Anka2Project\Source\Binary\source\eterBase\Singleton.h

; 26   : 		assert(ms_singleton);

  000f4	8b 0d 00 00 00
	00		 mov	 ecx, DWORD PTR ?ms_singleton@?$CSingleton@VCPythonNetworkStream@@@@0PAVCPythonNetworkStream@@A ; CSingleton<CPythonNetworkStream>::ms_singleton
  000fa	85 c9		 test	 ecx, ecx
  000fc	75 1a		 jne	 SHORT $LN57@netSendPet
  000fe	6a 1a		 push	 26			; 0000001aH
  00100	68 00 00 00 00	 push	 OFFSET ??_C@_1IO@CAJLEEOI@?$AAC?$AA?3?$AA?2?$AAA?$AAn?$AAk?$AAa?$AA2?$AAP?$AAr?$AAo?$AAj?$AAe?$AAc?$AAt@
  00105	68 00 00 00 00	 push	 OFFSET ??_C@_1BK@FMEHPMFE@?$AAm?$AAs?$AA_?$AAs?$AAi?$AAn?$AAg?$AAl?$AAe?$AAt?$AAo?$AAn@
  0010a	e8 00 00 00 00	 call	 __wassert
  0010f	8b 0d 00 00 00
	00		 mov	 ecx, DWORD PTR ?ms_singleton@?$CSingleton@VCPythonNetworkStream@@@@0PAVCPythonNetworkStream@@A ; CSingleton<CPythonNetworkStream>::ms_singleton
  00115	83 c4 0c	 add	 esp, 12			; 0000000cH
$LN57@netSendPet:
; File C:\Anka2Project\Anka2Project\Source\Binary\source\UserInterface\GameType.h

; 453  : 		cell = _cell;

  00118	0f b7 45 e4	 movzx	 eax, WORD PTR _iUpBringingPos$[ebp]
  0011c	66 89 45 f2	 mov	 WORD PTR $T10[ebp+1], ax
; File C:\Anka2Project\Anka2Project\Source\Binary\source\UserInterface\PythonNetworkStreamModule.cpp

; 2449 : 	rns.SendPetRevive(TItemPos(INVENTORY, iUpBringingPos), itemVec);

  00120	8d 45 d8	 lea	 eax, DWORD PTR _itemVec$[ebp]
  00123	50		 push	 eax
  00124	51		 push	 ecx
  00125	8b d4		 mov	 edx, esp
; File C:\Anka2Project\Anka2Project\Source\Binary\source\UserInterface\GameType.h

; 452  : 		window_type = _window_type;

  00127	c6 45 f1 01	 mov	 BYTE PTR $T10[ebp], 1
; File C:\Anka2Project\Anka2Project\Source\Binary\source\UserInterface\PythonNetworkStreamModule.cpp

; 2449 : 	rns.SendPetRevive(TItemPos(INVENTORY, iUpBringingPos), itemVec);

  0012b	0f b7 45 f1	 movzx	 eax, WORD PTR $T10[ebp]
  0012f	66 89 02	 mov	 WORD PTR [edx], ax
  00132	8a 45 f3	 mov	 al, BYTE PTR $T10[ebp+2]
  00135	88 42 02	 mov	 BYTE PTR [edx+2], al
  00138	e8 00 00 00 00	 call	 ?SendPetRevive@CPythonNetworkStream@@QAE_NUSItemPos@@ABV?$vector@U?$pair@GG@std@@V?$allocator@U?$pair@GG@std@@@2@@std@@@Z ; CPythonNetworkStream::SendPetRevive

; 2451 : 	return Py_BuildNone();

  0013d	e8 00 00 00 00	 call	 ?Py_BuildNone@@YAPAU_object@@XZ ; Py_BuildNone
$LN89@netSendPet:
; File C:\Program Files\Microsoft Visual Studio\2022\Community\VC\Tools\MSVC\14.44.35207\include\vector

; 2090 :         if (_Myfirst) { // destroy and deallocate old array

  00142	8b 55 d8	 mov	 edx, DWORD PTR _itemVec$[ebp]
  00145	8b f0		 mov	 esi, eax
  00147	85 d2		 test	 edx, edx
  00149	74 2c		 je	 SHORT $LN70@netSendPet

; 2093 :             _Al.deallocate(_Myfirst, static_cast<size_type>(_Myend - _Myfirst));

  0014b	8b 4d e0	 mov	 ecx, DWORD PTR _itemVec$[ebp+8]
; File C:\Program Files\Microsoft Visual Studio\2022\Community\VC\Tools\MSVC\14.44.35207\include\xmemory

; 985  :         _STD _Deallocate<_New_alignof<_Ty>>(_Ptr, sizeof(_Ty) * _Count);

  0014e	8b c2		 mov	 eax, edx
; File C:\Program Files\Microsoft Visual Studio\2022\Community\VC\Tools\MSVC\14.44.35207\include\vector

; 2093 :             _Al.deallocate(_Myfirst, static_cast<size_type>(_Myend - _Myfirst));

  00150	2b ca		 sub	 ecx, edx
; File C:\Program Files\Microsoft Visual Studio\2022\Community\VC\Tools\MSVC\14.44.35207\include\xmemory

; 985  :         _STD _Deallocate<_New_alignof<_Ty>>(_Ptr, sizeof(_Ty) * _Count);

  00152	83 e1 fc	 and	 ecx, -4			; fffffffcH

; 284  :         if (_Bytes >= _Big_allocation_threshold) {

  00155	81 f9 00 10 00
	00		 cmp	 ecx, 4096		; 00001000H
  0015b	72 10		 jb	 SHORT $LN78@netSendPet

; 205  :     const uintptr_t _Ptr_container   = _Ptr_user[-1];

  0015d	8b 50 fc	 mov	 edx, DWORD PTR [eax-4]
  00160	83 c1 23	 add	 ecx, 35			; 00000023H
  00163	2b c2		 sub	 eax, edx

; 219  :     _STL_VERIFY(_Back_shift >= _Min_back_shift && _Back_shift <= _Non_user_size, "invalid argument");

  00165	83 c0 fc	 add	 eax, -4			; fffffffcH
  00168	83 f8 1f	 cmp	 eax, 31			; 0000001fH
  0016b	77 1e		 ja	 SHORT $LN91@netSendPet
$LN78@netSendPet:

; 289  :         ::operator delete(_Ptr, _Bytes);

  0016d	51		 push	 ecx
  0016e	52		 push	 edx
  0016f	e8 00 00 00 00	 call	 ??3@YAXPAXI@Z		; operator delete
  00174	83 c4 08	 add	 esp, 8
$LN70@netSendPet:
; File C:\Anka2Project\Anka2Project\Source\Binary\source\UserInterface\PythonNetworkStreamModule.cpp

; 2451 : 	return Py_BuildNone();

  00177	8b c6		 mov	 eax, esi

; 2452 : }

  00179	8b 4d f4	 mov	 ecx, DWORD PTR __$EHRec$[ebp]
  0017c	64 89 0d 00 00
	00 00		 mov	 DWORD PTR fs:0, ecx
  00183	59		 pop	 ecx
  00184	5f		 pop	 edi
  00185	5e		 pop	 esi
  00186	5b		 pop	 ebx
  00187	8b e5		 mov	 esp, ebp
  00189	5d		 pop	 ebp
  0018a	c3		 ret	 0
$LN91@netSendPet:
; File C:\Program Files\Microsoft Visual Studio\2022\Community\VC\Tools\MSVC\14.44.35207\include\xmemory

; 219  :     _STL_VERIFY(_Back_shift >= _Min_back_shift && _Back_shift <= _Non_user_size, "invalid argument");

  0018b	6a 00		 push	 0
  0018d	6a 00		 push	 0
  0018f	6a 00		 push	 0
  00191	6a 00		 push	 0
  00193	6a 00		 push	 0
  00195	e8 00 00 00 00	 call	 __invoke_watson
$LN88@netSendPet:
  0019a	cc		 int	 3
_TEXT	ENDS
;	COMDAT text$x
text$x	SEGMENT
__unwindfunclet$?netSendPetRevive@@YAPAU_object@@PAU1@0@Z$0:
  00000	8d 4d d8	 lea	 ecx, DWORD PTR _itemVec$[ebp]
  00003	e9 00 00 00 00	 jmp	 ??1?$vector@U?$pair@GG@std@@V?$allocator@U?$pair@GG@std@@@2@@std@@QAE@XZ ; std::vector<std::pair<unsigned short,unsigned short>,std::allocator<std::pair<unsigned short,unsigned short> > >::~vector<std::pair<unsigned short,unsigned short>,std::allocator<std::pair<unsigned short,unsigned short> > >
  00008	cc		 int	 3
  00009	cc		 int	 3
  0000a	cc		 int	 3
  0000b	cc		 int	 3
  0000c	cc		 int	 3
__ehhandler$?netSendPetRevive@@YAPAU_object@@PAU1@0@Z:
  0000d	90		 npad	 1
  0000e	90		 npad	 1
  0000f	8b 54 24 08	 mov	 edx, DWORD PTR [esp+8]
  00013	8d 42 0c	 lea	 eax, DWORD PTR [edx+12]
  00016	8b 4a d4	 mov	 ecx, DWORD PTR [edx-44]
  00019	33 c8		 xor	 ecx, eax
  0001b	e8 00 00 00 00	 call	 @__security_check_cookie@4
  00020	b8 00 00 00 00	 mov	 eax, OFFSET __ehfuncinfo$?netSendPetRevive@@YAPAU_object@@PAU1@0@Z
  00025	e9 00 00 00 00	 jmp	 ___CxxFrameHandler3
text$x	ENDS
?netSendPetRevive@@YAPAU_object@@PAU1@0@Z ENDP		; netSendPetRevive
; Function compile flags: /Ogtp
; File C:\Anka2Project\Anka2Project\Source\Binary\source\UserInterface\PythonNetworkStreamModule.cpp
; File C:\Program Files\Microsoft Visual Studio\2022\Community\VC\Tools\MSVC\14.44.35207\include\xstring
; File C:\Anka2Project\Anka2Project\Source\Binary\source\UserInterface\PythonNetworkStreamModule.cpp
; File C:\Program Files\Microsoft Visual Studio\2022\Community\VC\Tools\MSVC\14.44.35207\include\xstring
; File C:\Anka2Project\Anka2Project\Source\Binary\source\UserInterface\PythonNetworkStreamModule.cpp
; File C:\Program Files\Microsoft Visual Studio\2022\Community\VC\Tools\MSVC\14.44.35207\include\xstring
; File C:\Anka2Project\Anka2Project\Source\Binary\source\UserInterface\PythonNetworkStreamModule.cpp
;	COMDAT ?initnet@@YAXXZ
_TEXT	SEGMENT
$T1 = -28						; size = 24
__$ArrayPad$ = -4					; size = 4
?initnet@@YAXXZ PROC					; initnet, COMDAT

; 2541 : {

  00000	55		 push	 ebp
  00001	8b ec		 mov	 ebp, esp
  00003	83 ec 20	 sub	 esp, 32			; 00000020H
  00006	a1 00 00 00 00	 mov	 eax, DWORD PTR ___security_cookie
  0000b	33 c5		 xor	 eax, ebp
  0000d	89 45 fc	 mov	 DWORD PTR __$ArrayPad$[ebp], eax
  00010	56		 push	 esi
  00011	57		 push	 edi

; 2820 : 	PyObject *poModule = Py_InitModule(GetModuleName(NET_MODULE).c_str(), s_methods);

  00012	8d 45 e4	 lea	 eax, DWORD PTR $T1[ebp]
  00015	6a 00		 push	 0
  00017	50		 push	 eax
  00018	e8 00 00 00 00	 call	 ?GetModuleName@@YA?AV?$basic_string@DU?$char_traits@D@std@@V?$allocator@D@2@@std@@H@Z ; GetModuleName
  0001d	83 c4 08	 add	 esp, 8
; File C:\Program Files\Microsoft Visual Studio\2022\Community\VC\Tools\MSVC\14.44.35207\include\xstring

; 453  :         return _Myres > _Small_string_capacity;

  00020	83 78 14 0f	 cmp	 DWORD PTR [eax+20], 15	; 0000000fH

; 445  :         if (_Large_mode_engaged()) {

  00024	76 02		 jbe	 SHORT $LN8@initnet

; 446  :             _Result = _Unfancy(_Bx._Ptr);

  00026	8b 00		 mov	 eax, DWORD PTR [eax]
$LN8@initnet:
; File C:\Anka2Project\Anka2Project\Source\Binary\source\UserInterface\PythonNetworkStreamModule.cpp

; 2820 : 	PyObject *poModule = Py_InitModule(GetModuleName(NET_MODULE).c_str(), s_methods);

  00028	68 f5 03 00 00	 push	 1013			; 000003f5H
  0002d	6a 00		 push	 0
  0002f	6a 00		 push	 0
  00031	68 00 00 00 00	 push	 OFFSET ?s_methods@?1??initnet@@YAXXZ@4PAUPyMethodDef@@A
  00036	50		 push	 eax
  00037	ff 15 00 00 00
	00		 call	 DWORD PTR __imp__Py_InitModule4
  0003d	83 c4 14	 add	 esp, 20			; 00000014H
; File C:\Program Files\Microsoft Visual Studio\2022\Community\VC\Tools\MSVC\14.44.35207\include\xstring

; 1383 :         _Tidy_deallocate();

  00040	8d 4d e4	 lea	 ecx, DWORD PTR $T1[ebp]
; File C:\Anka2Project\Anka2Project\Source\Binary\source\UserInterface\PythonNetworkStreamModule.cpp

; 2820 : 	PyObject *poModule = Py_InitModule(GetModuleName(NET_MODULE).c_str(), s_methods);

  00043	8b f8		 mov	 edi, eax
; File C:\Program Files\Microsoft Visual Studio\2022\Community\VC\Tools\MSVC\14.44.35207\include\xstring

; 1383 :         _Tidy_deallocate();

  00045	e8 00 00 00 00	 call	 ?_Tidy_deallocate@?$basic_string@DU?$char_traits@D@std@@V?$allocator@D@2@@std@@AAEXXZ ; std::basic_string<char,std::char_traits<char>,std::allocator<char> >::_Tidy_deallocate
; File C:\Anka2Project\Anka2Project\Source\Binary\source\UserInterface\PythonNetworkStreamModule.cpp

; 2825 : 	PyModule_AddIntConstant(poModule, "ERROR_NONE", CPythonNetworkStream::ERROR_NONE);

  0004a	8b 35 00 00 00
	00		 mov	 esi, DWORD PTR __imp__PyModule_AddIntConstant
  00050	6a 00		 push	 0
  00052	68 00 00 00 00	 push	 OFFSET ??_C@_0L@LILDODAP@ERROR_NONE@
  00057	57		 push	 edi
  00058	ff d6		 call	 esi
  0005a	83 c4 0c	 add	 esp, 12			; 0000000cH

; 2826 : 	PyModule_AddIntConstant(poModule, "ERROR_CONNECT_MARK_SERVER", CPythonNetworkStream::ERROR_CONNECT_MARK_SERVER);

  0005d	6a 02		 push	 2
  0005f	68 00 00 00 00	 push	 OFFSET ??_C@_0BK@BILAANNF@ERROR_CONNECT_MARK_SERVER@
  00064	57		 push	 edi
  00065	ff d6		 call	 esi
  00067	83 c4 0c	 add	 esp, 12			; 0000000cH

; 2827 : 	PyModule_AddIntConstant(poModule, "ERROR_LOAD_MARK", CPythonNetworkStream::ERROR_LOAD_MARK);

  0006a	6a 03		 push	 3
  0006c	68 00 00 00 00	 push	 OFFSET ??_C@_0BA@NEJKKBEJ@ERROR_LOAD_MARK@
  00071	57		 push	 edi
  00072	ff d6		 call	 esi
  00074	83 c4 0c	 add	 esp, 12			; 0000000cH

; 2828 : 	PyModule_AddIntConstant(poModule, "ERROR_MARK_WIDTH", CPythonNetworkStream::ERROR_MARK_WIDTH);

  00077	6a 04		 push	 4
  00079	68 00 00 00 00	 push	 OFFSET ??_C@_0BB@FEGLKDMB@ERROR_MARK_WIDTH@
  0007e	57		 push	 edi
  0007f	ff d6		 call	 esi
  00081	83 c4 0c	 add	 esp, 12			; 0000000cH

; 2829 : 	PyModule_AddIntConstant(poModule, "ERROR_MARK_HEIGHT", CPythonNetworkStream::ERROR_MARK_HEIGHT);

  00084	6a 05		 push	 5
  00086	68 00 00 00 00	 push	 OFFSET ??_C@_0BC@GOIIBBEJ@ERROR_MARK_HEIGHT@
  0008b	57		 push	 edi
  0008c	ff d6		 call	 esi
  0008e	83 c4 0c	 add	 esp, 12			; 0000000cH

; 2830 : 
; 2831 : 	PyModule_AddIntConstant(poModule, "ERROR_MARK_UPLOAD_NEED_RECONNECT", CPythonNetworkStream::ERROR_MARK_UPLOAD_NEED_RECONNECT);	

  00091	6a 06		 push	 6
  00093	68 00 00 00 00	 push	 OFFSET ??_C@_0CB@BOPIDGGI@ERROR_MARK_UPLOAD_NEED_RECONNEC@
  00098	57		 push	 edi
  00099	ff d6		 call	 esi
  0009b	83 c4 0c	 add	 esp, 12			; 0000000cH

; 2832 : 	PyModule_AddIntConstant(poModule, "ERROR_MARK_CHECK_NEED_RECONNECT", CPythonNetworkStream::ERROR_MARK_CHECK_NEED_RECONNECT);	

  0009e	6a 07		 push	 7
  000a0	68 00 00 00 00	 push	 OFFSET ??_C@_0CA@JMHMMKLO@ERROR_MARK_CHECK_NEED_RECONNECT@
  000a5	57		 push	 edi
  000a6	ff d6		 call	 esi
  000a8	83 c4 0c	 add	 esp, 12			; 0000000cH

; 2833 : 
; 2834 : 	PyModule_AddIntConstant(poModule, "PHASE_WINDOW_LOGIN", CPythonNetworkStream::PHASE_WINDOW_LOGIN);

  000ab	6a 01		 push	 1
  000ad	68 00 00 00 00	 push	 OFFSET ??_C@_0BD@JBLBGAIB@PHASE_WINDOW_LOGIN@
  000b2	57		 push	 edi
  000b3	ff d6		 call	 esi
  000b5	83 c4 0c	 add	 esp, 12			; 0000000cH

; 2835 : 	PyModule_AddIntConstant(poModule, "PHASE_WINDOW_SELECT", CPythonNetworkStream::PHASE_WINDOW_SELECT);

  000b8	6a 02		 push	 2
  000ba	68 00 00 00 00	 push	 OFFSET ??_C@_0BE@EBCKEIDN@PHASE_WINDOW_SELECT@
  000bf	57		 push	 edi
  000c0	ff d6		 call	 esi
  000c2	83 c4 0c	 add	 esp, 12			; 0000000cH

; 2836 : 	PyModule_AddIntConstant(poModule, "PHASE_WINDOW_CREATE", CPythonNetworkStream::PHASE_WINDOW_CREATE);

  000c5	6a 03		 push	 3
  000c7	68 00 00 00 00	 push	 OFFSET ??_C@_0BE@PAOFIFBD@PHASE_WINDOW_CREATE@
  000cc	57		 push	 edi
  000cd	ff d6		 call	 esi
  000cf	83 c4 0c	 add	 esp, 12			; 0000000cH

; 2837 : 	PyModule_AddIntConstant(poModule, "PHASE_WINDOW_LOAD", CPythonNetworkStream::PHASE_WINDOW_LOAD);

  000d2	6a 04		 push	 4
  000d4	68 00 00 00 00	 push	 OFFSET ??_C@_0BC@PFELHICG@PHASE_WINDOW_LOAD@
  000d9	57		 push	 edi
  000da	ff d6		 call	 esi
  000dc	83 c4 0c	 add	 esp, 12			; 0000000cH

; 2838 : 	PyModule_AddIntConstant(poModule, "PHASE_WINDOW_GAME", CPythonNetworkStream::PHASE_WINDOW_GAME);

  000df	6a 05		 push	 5
  000e1	68 00 00 00 00	 push	 OFFSET ??_C@_0BC@HCEFPGCB@PHASE_WINDOW_GAME@
  000e6	57		 push	 edi
  000e7	ff d6		 call	 esi
  000e9	83 c4 0c	 add	 esp, 12			; 0000000cH

; 2839 : 	PyModule_AddIntConstant(poModule, "PHASE_WINDOW_EMPIRE", CPythonNetworkStream::PHASE_WINDOW_EMPIRE);

  000ec	6a 06		 push	 6
  000ee	68 00 00 00 00	 push	 OFFSET ??_C@_0BE@IIMEMMI@PHASE_WINDOW_EMPIRE@
  000f3	57		 push	 edi
  000f4	ff d6		 call	 esi
  000f6	83 c4 0c	 add	 esp, 12			; 0000000cH

; 2840 : 	PyModule_AddIntConstant(poModule, "PHASE_WINDOW_LOGO", CPythonNetworkStream::PHASE_WINDOW_LOGO);

  000f9	6a 00		 push	 0
  000fb	68 00 00 00 00	 push	 OFFSET ??_C@_0BC@BCDCNNFP@PHASE_WINDOW_LOGO@
  00100	57		 push	 edi
  00101	ff d6		 call	 esi
  00103	83 c4 0c	 add	 esp, 12			; 0000000cH

; 2841 : 
; 2842 : 	PyModule_AddIntConstant(poModule, "ACCOUNT_CHARACTER_SLOT_ID", CPythonNetworkStream::ACCOUNT_CHARACTER_SLOT_ID);

  00106	6a 00		 push	 0
  00108	68 00 00 00 00	 push	 OFFSET ??_C@_0BK@HDGGAJBJ@ACCOUNT_CHARACTER_SLOT_ID@
  0010d	57		 push	 edi
  0010e	ff d6		 call	 esi
  00110	83 c4 0c	 add	 esp, 12			; 0000000cH

; 2843 : 	PyModule_AddIntConstant(poModule, "ACCOUNT_CHARACTER_SLOT_NAME", CPythonNetworkStream::ACCOUNT_CHARACTER_SLOT_NAME);

  00113	6a 01		 push	 1
  00115	68 00 00 00 00	 push	 OFFSET ??_C@_0BM@JCGOOLCL@ACCOUNT_CHARACTER_SLOT_NAME@
  0011a	57		 push	 edi
  0011b	ff d6		 call	 esi
  0011d	83 c4 0c	 add	 esp, 12			; 0000000cH

; 2844 : 	PyModule_AddIntConstant(poModule, "ACCOUNT_CHARACTER_SLOT_RACE", CPythonNetworkStream::ACCOUNT_CHARACTER_SLOT_RACE);

  00120	6a 02		 push	 2
  00122	68 00 00 00 00	 push	 OFFSET ??_C@_0BM@DNOALMKC@ACCOUNT_CHARACTER_SLOT_RACE@
  00127	57		 push	 edi
  00128	ff d6		 call	 esi
  0012a	83 c4 0c	 add	 esp, 12			; 0000000cH

; 2845 : 	PyModule_AddIntConstant(poModule, "ACCOUNT_CHARACTER_SLOT_LEVEL", CPythonNetworkStream::ACCOUNT_CHARACTER_SLOT_LEVEL);

  0012d	6a 03		 push	 3
  0012f	68 00 00 00 00	 push	 OFFSET ??_C@_0BN@MPLCEAPH@ACCOUNT_CHARACTER_SLOT_LEVEL@
  00134	57		 push	 edi
  00135	ff d6		 call	 esi
  00137	83 c4 0c	 add	 esp, 12			; 0000000cH

; 2846 : 	PyModule_AddIntConstant(poModule, "ACCOUNT_CHARACTER_SLOT_STR", CPythonNetworkStream::ACCOUNT_CHARACTER_SLOT_STR);

  0013a	6a 04		 push	 4
  0013c	68 00 00 00 00	 push	 OFFSET ??_C@_0BL@MPBHOFJE@ACCOUNT_CHARACTER_SLOT_STR@
  00141	57		 push	 edi
  00142	ff d6		 call	 esi
  00144	83 c4 0c	 add	 esp, 12			; 0000000cH

; 2847 : 	PyModule_AddIntConstant(poModule, "ACCOUNT_CHARACTER_SLOT_DEX", CPythonNetworkStream::ACCOUNT_CHARACTER_SLOT_DEX);

  00147	6a 05		 push	 5
  00149	68 00 00 00 00	 push	 OFFSET ??_C@_0BL@OFNCKLHP@ACCOUNT_CHARACTER_SLOT_DEX@
  0014e	57		 push	 edi
  0014f	ff d6		 call	 esi
  00151	83 c4 0c	 add	 esp, 12			; 0000000cH

; 2848 : 	PyModule_AddIntConstant(poModule, "ACCOUNT_CHARACTER_SLOT_INT", CPythonNetworkStream::ACCOUNT_CHARACTER_SLOT_INT);

  00154	6a 07		 push	 7
  00156	68 00 00 00 00	 push	 OFFSET ??_C@_0BL@LHFINDEP@ACCOUNT_CHARACTER_SLOT_INT@
  0015b	57		 push	 edi
  0015c	ff d6		 call	 esi
  0015e	83 c4 0c	 add	 esp, 12			; 0000000cH

; 2849 : 	PyModule_AddIntConstant(poModule, "ACCOUNT_CHARACTER_SLOT_HTH", CPythonNetworkStream::ACCOUNT_CHARACTER_SLOT_HTH);

  00161	6a 06		 push	 6
  00163	68 00 00 00 00	 push	 OFFSET ??_C@_0BL@PICCMPNB@ACCOUNT_CHARACTER_SLOT_HTH@
  00168	57		 push	 edi
  00169	ff d6		 call	 esi
  0016b	83 c4 0c	 add	 esp, 12			; 0000000cH

; 2850 : 	PyModule_AddIntConstant(poModule, "ACCOUNT_CHARACTER_SLOT_PLAYTIME", CPythonNetworkStream::ACCOUNT_CHARACTER_SLOT_PLAYTIME);

  0016e	6a 08		 push	 8
  00170	68 00 00 00 00	 push	 OFFSET ??_C@_0CA@KFILFMPG@ACCOUNT_CHARACTER_SLOT_PLAYTIME@
  00175	57		 push	 edi
  00176	ff d6		 call	 esi
  00178	83 c4 0c	 add	 esp, 12			; 0000000cH

; 2851 : 	PyModule_AddIntConstant(poModule, "ACCOUNT_CHARACTER_SLOT_FORM", CPythonNetworkStream::ACCOUNT_CHARACTER_SLOT_FORM);

  0017b	6a 09		 push	 9
  0017d	68 00 00 00 00	 push	 OFFSET ??_C@_0BM@JNGCLJJM@ACCOUNT_CHARACTER_SLOT_FORM@
  00182	57		 push	 edi
  00183	ff d6		 call	 esi
  00185	83 c4 0c	 add	 esp, 12			; 0000000cH

; 2852 : 	PyModule_AddIntConstant(poModule, "ACCOUNT_CHARACTER_SLOT_ADDR", CPythonNetworkStream::ACCOUNT_CHARACTER_SLOT_ADDR);

  00188	6a 0a		 push	 10			; 0000000aH
  0018a	68 00 00 00 00	 push	 OFFSET ??_C@_0BM@CNLCDDNB@ACCOUNT_CHARACTER_SLOT_ADDR@
  0018f	57		 push	 edi
  00190	ff d6		 call	 esi
  00192	83 c4 0c	 add	 esp, 12			; 0000000cH

; 2853 : 	PyModule_AddIntConstant(poModule, "ACCOUNT_CHARACTER_SLOT_PORT", CPythonNetworkStream::ACCOUNT_CHARACTER_SLOT_PORT);

  00195	6a 0b		 push	 11			; 0000000bH
  00197	68 00 00 00 00	 push	 OFFSET ??_C@_0BM@OJMCHCKG@ACCOUNT_CHARACTER_SLOT_PORT@
  0019c	57		 push	 edi
  0019d	ff d6		 call	 esi
  0019f	83 c4 0c	 add	 esp, 12			; 0000000cH

; 2854 : 	PyModule_AddIntConstant(poModule, "ACCOUNT_CHARACTER_SLOT_GUILD_ID", CPythonNetworkStream::ACCOUNT_CHARACTER_SLOT_GUILD_ID);

  001a2	6a 0c		 push	 12			; 0000000cH
  001a4	68 00 00 00 00	 push	 OFFSET ??_C@_0CA@GFKKICFN@ACCOUNT_CHARACTER_SLOT_GUILD_ID@
  001a9	57		 push	 edi
  001aa	ff d6		 call	 esi
  001ac	83 c4 0c	 add	 esp, 12			; 0000000cH

; 2855 : 	PyModule_AddIntConstant(poModule, "ACCOUNT_CHARACTER_SLOT_GUILD_NAME", CPythonNetworkStream::ACCOUNT_CHARACTER_SLOT_GUILD_NAME);

  001af	6a 0d		 push	 13			; 0000000dH
  001b1	68 00 00 00 00	 push	 OFFSET ??_C@_0CC@HMBBCNEO@ACCOUNT_CHARACTER_SLOT_GUILD_NA@
  001b6	57		 push	 edi
  001b7	ff d6		 call	 esi
  001b9	83 c4 0c	 add	 esp, 12			; 0000000cH

; 2856 : 	PyModule_AddIntConstant(poModule, "ACCOUNT_CHARACTER_SLOT_CHANGE_NAME_FLAG", CPythonNetworkStream::ACCOUNT_CHARACTER_SLOT_CHANGE_NAME_FLAG);

  001bc	6a 0e		 push	 14			; 0000000eH
  001be	68 00 00 00 00	 push	 OFFSET ??_C@_0CI@NIHCCHJE@ACCOUNT_CHARACTER_SLOT_CHANGE_N@
  001c3	57		 push	 edi
  001c4	ff d6		 call	 esi
  001c6	83 c4 0c	 add	 esp, 12			; 0000000cH

; 2857 : 	PyModule_AddIntConstant(poModule, "ACCOUNT_CHARACTER_SLOT_HAIR", CPythonNetworkStream::ACCOUNT_CHARACTER_SLOT_HAIR);

  001c9	6a 0f		 push	 15			; 0000000fH
  001cb	68 00 00 00 00	 push	 OFFSET ??_C@_0BM@BPKEDCMB@ACCOUNT_CHARACTER_SLOT_HAIR@
  001d0	57		 push	 edi
  001d1	ff d6		 call	 esi
  001d3	83 c4 0c	 add	 esp, 12			; 0000000cH

; 2858 : #ifdef ENABLE_ACCE_COSTUME_SYSTEM
; 2859 : 	PyModule_AddIntConstant(poModule, "ACCOUNT_CHARACTER_SLOT_ACCE", CPythonNetworkStream::ACCOUNT_CHARACTER_SLOT_ACCE);

  001d6	6a 10		 push	 16			; 00000010H
  001d8	68 00 00 00 00	 push	 OFFSET ??_C@_0BM@LAKJJJHL@ACCOUNT_CHARACTER_SLOT_ACCE@
  001dd	57		 push	 edi
  001de	ff d6		 call	 esi
  001e0	83 c4 0c	 add	 esp, 12			; 0000000cH

; 2860 : #endif
; 2861 : #ifdef ENABLE_AURA_COSTUME_SYSTEM
; 2862 : 	PyModule_AddIntConstant(poModule, "ACCOUNT_CHARACTER_SLOT_AURA", CPythonNetworkStream::ACCOUNT_CHARACTER_SLOT_AURA);

  001e3	6a 11		 push	 17			; 00000011H
  001e5	68 00 00 00 00	 push	 OFFSET ??_C@_0BM@LMFDJNHL@ACCOUNT_CHARACTER_SLOT_AURA@
  001ea	57		 push	 edi
  001eb	ff d6		 call	 esi
  001ed	83 c4 0c	 add	 esp, 12			; 0000000cH

; 2863 : #endif
; 2864 : 	PyModule_AddIntConstant(poModule, "ACCOUNT_CHARACTER_SLOT_LAST_PLAYTIME", CPythonNetworkStream::ACCOUNT_CHARACTER_SLOT_LAST_PLAYTIME);

  001f0	6a 12		 push	 18			; 00000012H
  001f2	68 00 00 00 00	 push	 OFFSET ??_C@_0CF@GNEHPDHB@ACCOUNT_CHARACTER_SLOT_LAST_PLA@
  001f7	57		 push	 edi
  001f8	ff d6		 call	 esi
  001fa	83 c4 0c	 add	 esp, 12			; 0000000cH

; 2865 : 	PyModule_AddIntConstant(poModule, "ACCOUNT_CHARACTER_SLOT_MAPINDEX", CPythonNetworkStream::ACCOUNT_CHARACTER_SLOT_MAPINDEX);

  001fd	6a 13		 push	 19			; 00000013H
  001ff	68 00 00 00 00	 push	 OFFSET ??_C@_0CA@IIDLBDLK@ACCOUNT_CHARACTER_SLOT_MAPINDEX@
  00204	57		 push	 edi
  00205	ff d6		 call	 esi
  00207	83 c4 0c	 add	 esp, 12			; 0000000cH

; 2866 : 
; 2867 : 	PyModule_AddIntConstant(poModule, "SERVER_COMMAND_LOG_OUT",	CPythonNetworkStream::SERVER_COMMAND_LOG_OUT);

  0020a	6a 00		 push	 0
  0020c	68 00 00 00 00	 push	 OFFSET ??_C@_0BH@IJCJGIEO@SERVER_COMMAND_LOG_OUT@
  00211	57		 push	 edi
  00212	ff d6		 call	 esi
  00214	83 c4 0c	 add	 esp, 12			; 0000000cH

; 2868 : 	PyModule_AddIntConstant(poModule, "SERVER_COMMAND_RETURN_TO_SELECT_CHARACTER", CPythonNetworkStream::SERVER_COMMAND_RETURN_TO_SELECT_CHARACTER);

  00217	6a 01		 push	 1
  00219	68 00 00 00 00	 push	 OFFSET ??_C@_0CK@IDBHOJE@SERVER_COMMAND_RETURN_TO_SELECT@
  0021e	57		 push	 edi
  0021f	ff d6		 call	 esi
  00221	83 c4 0c	 add	 esp, 12			; 0000000cH

; 2869 : 	PyModule_AddIntConstant(poModule, "SERVER_COMMAND_QUIT", CPythonNetworkStream::SERVER_COMMAND_QUIT);

  00224	6a 02		 push	 2
  00226	68 00 00 00 00	 push	 OFFSET ??_C@_0BE@FCDHFIHM@SERVER_COMMAND_QUIT@
  0022b	57		 push	 edi
  0022c	ff d6		 call	 esi
  0022e	83 c4 0c	 add	 esp, 12			; 0000000cH

; 2870 : 
; 2871 : 	PyModule_AddIntConstant(poModule, "EMPIRE_A", 1);

  00231	6a 01		 push	 1
  00233	68 00 00 00 00	 push	 OFFSET ??_C@_08FEHCOLFL@EMPIRE_A@
  00238	57		 push	 edi
  00239	ff d6		 call	 esi
  0023b	83 c4 0c	 add	 esp, 12			; 0000000cH

; 2872 : 	PyModule_AddIntConstant(poModule, "EMPIRE_B", 2);

  0023e	6a 02		 push	 2
  00240	68 00 00 00 00	 push	 OFFSET ??_C@_08HPFPLIJI@EMPIRE_B@
  00245	57		 push	 edi
  00246	ff d6		 call	 esi
  00248	83 c4 0c	 add	 esp, 12			; 0000000cH

; 2873 : 	PyModule_AddIntConstant(poModule, "EMPIRE_C", 3);

  0024b	6a 03		 push	 3
  0024d	68 00 00 00 00	 push	 OFFSET ??_C@_08GGEEIJNJ@EMPIRE_C@
  00252	57		 push	 edi
  00253	ff d6		 call	 esi
  00255	83 c4 0c	 add	 esp, 12			; 0000000cH

; 2874 : 	PyModule_AddIntConstant(poModule, "DS_SUB_HEADER_REFINE_FAIL", DS_SUB_HEADER_REFINE_FAIL);

  00258	6a 05		 push	 5
  0025a	68 00 00 00 00	 push	 OFFSET ??_C@_0BK@IMPJEABP@DS_SUB_HEADER_REFINE_FAIL@
  0025f	57		 push	 edi
  00260	ff d6		 call	 esi
  00262	83 c4 0c	 add	 esp, 12			; 0000000cH

; 2875 : 	PyModule_AddIntConstant(poModule, "DS_SUB_HEADER_REFINE_FAIL_MAX_REFINE", DS_SUB_HEADER_REFINE_FAIL_MAX_REFINE);

  00265	6a 06		 push	 6
  00267	68 00 00 00 00	 push	 OFFSET ??_C@_0CF@NHMIOPGD@DS_SUB_HEADER_REFINE_FAIL_MAX_R@
  0026c	57		 push	 edi
  0026d	ff d6		 call	 esi
  0026f	83 c4 0c	 add	 esp, 12			; 0000000cH

; 2876 : 	PyModule_AddIntConstant(poModule, "DS_SUB_HEADER_REFINE_FAIL_INVALID_MATERIAL", DS_SUB_HEADER_REFINE_FAIL_INVALID_MATERIAL);

  00272	6a 07		 push	 7
  00274	68 00 00 00 00	 push	 OFFSET ??_C@_0CL@CHMHFOOJ@DS_SUB_HEADER_REFINE_FAIL_INVAL@
  00279	57		 push	 edi
  0027a	ff d6		 call	 esi
  0027c	83 c4 0c	 add	 esp, 12			; 0000000cH

; 2877 : 	PyModule_AddIntConstant(poModule, "DS_SUB_HEADER_REFINE_FAIL_NOT_ENOUGH_MONEY", DS_SUB_HEADER_REFINE_FAIL_NOT_ENOUGH_MONEY);

  0027f	6a 08		 push	 8
  00281	68 00 00 00 00	 push	 OFFSET ??_C@_0CL@DKLCPNME@DS_SUB_HEADER_REFINE_FAIL_NOT_E@
  00286	57		 push	 edi
  00287	ff d6		 call	 esi
  00289	83 c4 0c	 add	 esp, 12			; 0000000cH

; 2878 : 	PyModule_AddIntConstant(poModule, "DS_SUB_HEADER_REFINE_FAIL_NOT_ENOUGH_MATERIAL", DS_SUB_HEADER_REFINE_FAIL_NOT_ENOUGH_MATERIAL);

  0028c	6a 09		 push	 9
  0028e	68 00 00 00 00	 push	 OFFSET ??_C@_0CO@HIKHGDBM@DS_SUB_HEADER_REFINE_FAIL_NOT_E@
  00293	57		 push	 edi
  00294	ff d6		 call	 esi
  00296	83 c4 0c	 add	 esp, 12			; 0000000cH

; 2879 : 	PyModule_AddIntConstant(poModule, "DS_SUB_HEADER_REFINE_FAIL_TOO_MUCH_MATERIAL", DS_SUB_HEADER_REFINE_FAIL_TOO_MUCH_MATERIAL);

  00299	6a 0a		 push	 10			; 0000000aH
  0029b	68 00 00 00 00	 push	 OFFSET ??_C@_0CM@PJCLJBCJ@DS_SUB_HEADER_REFINE_FAIL_TOO_M@
  002a0	57		 push	 edi
  002a1	ff d6		 call	 esi
  002a3	83 c4 0c	 add	 esp, 12			; 0000000cH

; 2880 : 	PyModule_AddIntConstant(poModule, "DS_SUB_HEADER_REFINE_SUCCEED", DS_SUB_HEADER_REFINE_SUCCEED);

  002a6	6a 0b		 push	 11			; 0000000bH
  002a8	68 00 00 00 00	 push	 OFFSET ??_C@_0BN@OJONLPHM@DS_SUB_HEADER_REFINE_SUCCEED@
  002ad	57		 push	 edi
  002ae	ff d6		 call	 esi
  002b0	83 c4 0c	 add	 esp, 12			; 0000000cH

; 2881 : 
; 2882 : #ifdef ENABLE_BIOLOG_SYSTEM
; 2883 : 	PyModule_AddIntConstant(poModule, "BIOLOG_MANAGER_OPEN", CG_BIOLOG_MANAGER_OPEN);

  002b3	6a 00		 push	 0
  002b5	68 00 00 00 00	 push	 OFFSET ??_C@_0BE@KHDCNJCA@BIOLOG_MANAGER_OPEN@
  002ba	57		 push	 edi
  002bb	ff d6		 call	 esi
  002bd	83 c4 0c	 add	 esp, 12			; 0000000cH

; 2884 : 	PyModule_AddIntConstant(poModule, "BIOLOG_MANAGER_SEND", CG_BIOLOG_MANAGER_SEND);

  002c0	6a 01		 push	 1
  002c2	68 00 00 00 00	 push	 OFFSET ??_C@_0BE@JDFPADGF@BIOLOG_MANAGER_SEND@
  002c7	57		 push	 edi
  002c8	ff d6		 call	 esi
  002ca	83 c4 0c	 add	 esp, 12			; 0000000cH

; 2885 : 	PyModule_AddIntConstant(poModule, "BIOLOG_MANAGER_TIMER", CG_BIOLOG_MANAGER_TIMER);

  002cd	6a 02		 push	 2
  002cf	68 00 00 00 00	 push	 OFFSET ??_C@_0BF@HOEEONGC@BIOLOG_MANAGER_TIMER@
  002d4	57		 push	 edi
  002d5	ff d6		 call	 esi

; 2886 : #endif
; 2887 : }

  002d7	8b 4d fc	 mov	 ecx, DWORD PTR __$ArrayPad$[ebp]
  002da	83 c4 0c	 add	 esp, 12			; 0000000cH
  002dd	33 cd		 xor	 ecx, ebp
  002df	5f		 pop	 edi
  002e0	5e		 pop	 esi
  002e1	e8 00 00 00 00	 call	 @__security_check_cookie@4
  002e6	8b e5		 mov	 esp, ebp
  002e8	5d		 pop	 ebp
  002e9	c3		 ret	 0
?initnet@@YAXXZ ENDP					; initnet
_TEXT	ENDS
; Function compile flags: /Ogtp
; File C:\Program Files\Microsoft Visual Studio\2022\Community\VC\Tools\MSVC\14.44.35207\include\type_traits
;	COMDAT ??$invoke@P8CPythonPlayerSettingsModule@@AEXXZPAV1@$$V@std@@YAX$$QAP8CPythonPlayerSettingsModule@@AEXXZ$$QAPAV1@@Z
_TEXT	SEGMENT
??$invoke@P8CPythonPlayerSettingsModule@@AEXXZPAV1@$$V@std@@YAX$$QAP8CPythonPlayerSettingsModule@@AEXXZ$$QAPAV1@@Z PROC ; std::invoke<void (__thiscall CPythonPlayerSettingsModule::*)(void),CPythonPlayerSettingsModule *>, COMDAT
; __Obj$ = ecx
; __Arg1$ = edx

; 1679 :     if constexpr (_Invoker1<_Callable, _Ty1>::_Strategy == _Invoker_strategy::_Functor) {
; 1680 :         return static_cast<_Callable&&>(_Obj)(static_cast<_Ty1&&>(_Arg1), static_cast<_Types2&&>(_Args2)...);
; 1681 :     } else if constexpr (_Invoker1<_Callable, _Ty1>::_Strategy == _Invoker_strategy::_Pmf_object) {
; 1682 :         return (static_cast<_Ty1&&>(_Arg1).*_Obj)(static_cast<_Types2&&>(_Args2)...);
; 1683 :     } else if constexpr (_Invoker1<_Callable, _Ty1>::_Strategy == _Invoker_strategy::_Pmf_refwrap) {
; 1684 :         return (_Arg1.get().*_Obj)(static_cast<_Types2&&>(_Args2)...);
; 1685 :     } else if constexpr (_Invoker1<_Callable, _Ty1>::_Strategy == _Invoker_strategy::_Pmf_pointer) {
; 1686 :         return ((*static_cast<_Ty1&&>(_Arg1)).*_Obj)(static_cast<_Types2&&>(_Args2)...);

  00000	8b 01		 mov	 eax, DWORD PTR [ecx]
  00002	8b 0a		 mov	 ecx, DWORD PTR [edx]
  00004	ff e0		 jmp	 eax
??$invoke@P8CPythonPlayerSettingsModule@@AEXXZPAV1@$$V@std@@YAX$$QAP8CPythonPlayerSettingsModule@@AEXXZ$$QAPAV1@@Z ENDP ; std::invoke<void (__thiscall CPythonPlayerSettingsModule::*)(void),CPythonPlayerSettingsModule *>
_TEXT	ENDS
END
