; Listing generated by Microsoft (R) Optimizing Compiler Version 19.44.35219.0 

	TITLE	c:\anka2project\anka2project\source\binary\vs_files\userinterface\release\serverstatechecker.obj
	.686P
	.XMM
	include listing.inc
	.model	flat

INCLUDELIB OLDNAMES

PUBLIC	??_C@_0BD@EEDMKMGJ@NotifyChannelState@		; `string'
PUBLIC	??_R2CServerStateChecker@@8			; CServerStateChecker::`RTTI Base Class Array'
PUBLIC	??_R2?$CSingleton@VCServerStateChecker@@@@8	; CSingleton<CServerStateChecker>::`RTTI Base Class Array'
PUBLIC	??_R1A@?0A@EA@?$CSingleton@VCServerStateChecker@@@@8 ; CSingleton<CServerStateChecker>::`RTTI Base Class Descriptor at (0,-1,0,64)'
PUBLIC	??_R1A@?0A@EA@CServerStateChecker@@8		; CServerStateChecker::`RTTI Base Class Descriptor at (0,-1,0,64)'
PUBLIC	??_R3?$CSingleton@VCServerStateChecker@@@@8	; CSingleton<CServerStateChecker>::`RTTI Class Hierarchy Descriptor'
PUBLIC	??_R3CServerStateChecker@@8			; CServerStateChecker::`RTTI Class Hierarchy Descriptor'
PUBLIC	??_R0?AV?$CSingleton@VCServerStateChecker@@@@@8	; CSingleton<CServerStateChecker> `RTTI Type Descriptor'
PUBLIC	??_R0?AVCServerStateChecker@@@8			; CServerStateChecker `RTTI Type Descriptor'
PUBLIC	??_R4CServerStateChecker@@6B@			; CServerStateChecker::`RTTI Complete Object Locator'
PUBLIC	??_R4?$CSingleton@VCServerStateChecker@@@@6B@	; CSingleton<CServerStateChecker>::`RTTI Complete Object Locator'
PUBLIC	??_7?$CSingleton@VCServerStateChecker@@@@6B@	; CSingleton<CServerStateChecker>::`vftable'
PUBLIC	?ms_singleton@?$CSingleton@VCServerStateChecker@@@@0PAVCServerStateChecker@@A ; CSingleton<CServerStateChecker>::ms_singleton
PUBLIC	??_7CServerStateChecker@@6B@			; CServerStateChecker::`vftable'
;	COMDAT ?ms_singleton@?$CSingleton@VCServerStateChecker@@@@0PAVCServerStateChecker@@A
_BSS	SEGMENT
?ms_singleton@?$CSingleton@VCServerStateChecker@@@@0PAVCServerStateChecker@@A DD 01H DUP (?) ; CSingleton<CServerStateChecker>::ms_singleton
_BSS	ENDS
;	COMDAT ??_7CServerStateChecker@@6B@
CONST	SEGMENT
??_7CServerStateChecker@@6B@ DD FLAT:??_R4CServerStateChecker@@6B@ ; CServerStateChecker::`vftable'
	DD	FLAT:??_ECServerStateChecker@@UAEPAXI@Z
CONST	ENDS
;	COMDAT ??_7?$CSingleton@VCServerStateChecker@@@@6B@
CONST	SEGMENT
??_7?$CSingleton@VCServerStateChecker@@@@6B@ DD FLAT:??_R4?$CSingleton@VCServerStateChecker@@@@6B@ ; CSingleton<CServerStateChecker>::`vftable'
	DD	FLAT:??_E?$CSingleton@VCServerStateChecker@@@@UAEPAXI@Z
CONST	ENDS
;	COMDAT ??_R4?$CSingleton@VCServerStateChecker@@@@6B@
rdata$r	SEGMENT
??_R4?$CSingleton@VCServerStateChecker@@@@6B@ DD 00H	; CSingleton<CServerStateChecker>::`RTTI Complete Object Locator'
	DD	00H
	DD	00H
	DD	FLAT:??_R0?AV?$CSingleton@VCServerStateChecker@@@@@8
	DD	FLAT:??_R3?$CSingleton@VCServerStateChecker@@@@8
rdata$r	ENDS
;	COMDAT ??_R4CServerStateChecker@@6B@
rdata$r	SEGMENT
??_R4CServerStateChecker@@6B@ DD 00H			; CServerStateChecker::`RTTI Complete Object Locator'
	DD	00H
	DD	00H
	DD	FLAT:??_R0?AVCServerStateChecker@@@8
	DD	FLAT:??_R3CServerStateChecker@@8
rdata$r	ENDS
;	COMDAT ??_R0?AVCServerStateChecker@@@8
data$rs	SEGMENT
??_R0?AVCServerStateChecker@@@8 DD FLAT:??_7type_info@@6B@ ; CServerStateChecker `RTTI Type Descriptor'
	DD	00H
	DB	'.?AVCServerStateChecker@@', 00H
data$rs	ENDS
;	COMDAT ??_R0?AV?$CSingleton@VCServerStateChecker@@@@@8
data$rs	SEGMENT
??_R0?AV?$CSingleton@VCServerStateChecker@@@@@8 DD FLAT:??_7type_info@@6B@ ; CSingleton<CServerStateChecker> `RTTI Type Descriptor'
	DD	00H
	DB	'.?AV?$CSingleton@VCServerStateChecker@@@@', 00H
data$rs	ENDS
;	COMDAT ??_R3CServerStateChecker@@8
rdata$r	SEGMENT
??_R3CServerStateChecker@@8 DD 00H			; CServerStateChecker::`RTTI Class Hierarchy Descriptor'
	DD	00H
	DD	02H
	DD	FLAT:??_R2CServerStateChecker@@8
rdata$r	ENDS
;	COMDAT ??_R3?$CSingleton@VCServerStateChecker@@@@8
rdata$r	SEGMENT
??_R3?$CSingleton@VCServerStateChecker@@@@8 DD 00H	; CSingleton<CServerStateChecker>::`RTTI Class Hierarchy Descriptor'
	DD	00H
	DD	01H
	DD	FLAT:??_R2?$CSingleton@VCServerStateChecker@@@@8
rdata$r	ENDS
;	COMDAT ??_R1A@?0A@EA@CServerStateChecker@@8
rdata$r	SEGMENT
??_R1A@?0A@EA@CServerStateChecker@@8 DD FLAT:??_R0?AVCServerStateChecker@@@8 ; CServerStateChecker::`RTTI Base Class Descriptor at (0,-1,0,64)'
	DD	01H
	DD	00H
	DD	0ffffffffH
	DD	00H
	DD	040H
	DD	FLAT:??_R3CServerStateChecker@@8
rdata$r	ENDS
;	COMDAT ??_R1A@?0A@EA@?$CSingleton@VCServerStateChecker@@@@8
rdata$r	SEGMENT
??_R1A@?0A@EA@?$CSingleton@VCServerStateChecker@@@@8 DD FLAT:??_R0?AV?$CSingleton@VCServerStateChecker@@@@@8 ; CSingleton<CServerStateChecker>::`RTTI Base Class Descriptor at (0,-1,0,64)'
	DD	00H
	DD	00H
	DD	0ffffffffH
	DD	00H
	DD	040H
	DD	FLAT:??_R3?$CSingleton@VCServerStateChecker@@@@8
rdata$r	ENDS
;	COMDAT ??_R2?$CSingleton@VCServerStateChecker@@@@8
rdata$r	SEGMENT
??_R2?$CSingleton@VCServerStateChecker@@@@8 DD FLAT:??_R1A@?0A@EA@?$CSingleton@VCServerStateChecker@@@@8 ; CSingleton<CServerStateChecker>::`RTTI Base Class Array'
rdata$r	ENDS
;	COMDAT ??_R2CServerStateChecker@@8
rdata$r	SEGMENT
??_R2CServerStateChecker@@8 DD FLAT:??_R1A@?0A@EA@CServerStateChecker@@8 ; CServerStateChecker::`RTTI Base Class Array'
	DD	FLAT:??_R1A@?0A@EA@?$CSingleton@VCServerStateChecker@@@@8
rdata$r	ENDS
;	COMDAT ??_C@_0BD@EEDMKMGJ@NotifyChannelState@
CONST	SEGMENT
??_C@_0BD@EEDMKMGJ@NotifyChannelState@ DB 'NotifyChannelState', 00H ; `string'
PUBLIC	?deallocate@?$allocator@U?$_List_node@USChannel@CServerStateChecker@@PAX@std@@@std@@QAEXQAU?$_List_node@USChannel@CServerStateChecker@@PAX@2@I@Z ; std::allocator<std::_List_node<CServerStateChecker::SChannel,void *> >::deallocate
PUBLIC	?_Get_first@?$_Compressed_pair@V?$allocator@U?$_List_node@USChannel@CServerStateChecker@@PAX@std@@@std@@V?$_List_val@U?$_List_simple_types@USChannel@CServerStateChecker@@@std@@@2@$00@std@@QBEABV?$allocator@U?$_List_node@USChannel@CServerStateChecker@@PAX@std@@@2@XZ ; std::_Compressed_pair<std::allocator<std::_List_node<CServerStateChecker::SChannel,void *> >,std::_List_val<std::_List_simple_types<CServerStateChecker::SChannel> >,1>::_Get_first
PUBLIC	??$construct_at@PAU?$_List_node@USChannel@CServerStateChecker@@PAX@std@@ABQAU12@@std@@YAPAPAU?$_List_node@USChannel@CServerStateChecker@@PAX@0@QAPAU10@ABQAU10@@Z ; std::construct_at<std::_List_node<CServerStateChecker::SChannel,void *> *,std::_List_node<CServerStateChecker::SChannel,void *> * const &>
PUBLIC	??$forward@ABQAU?$_List_node@USChannel@CServerStateChecker@@PAX@std@@@std@@YAABQAU?$_List_node@USChannel@CServerStateChecker@@PAX@0@ABQAU10@@Z ; std::forward<std::_List_node<CServerStateChecker::SChannel,void *> * const &>
PUBLIC	??$construct_at@USChannel@CServerStateChecker@@ABU12@@std@@YAPAUSChannel@CServerStateChecker@@QAU12@ABU12@@Z ; std::construct_at<CServerStateChecker::SChannel,CServerStateChecker::SChannel const &>
PUBLIC	??$destroy_at@USChannel@CServerStateChecker@@@std@@YAXQAUSChannel@CServerStateChecker@@@Z ; std::destroy_at<CServerStateChecker::SChannel>
PUBLIC	?_Getal@?$list@USChannel@CServerStateChecker@@V?$allocator@USChannel@CServerStateChecker@@@std@@@std@@ABEABV?$allocator@U?$_List_node@USChannel@CServerStateChecker@@PAX@std@@@2@XZ ; std::list<CServerStateChecker::SChannel,std::allocator<CServerStateChecker::SChannel> >::_Getal
PUBLIC	?deallocate@?$_Default_allocator_traits@V?$allocator@U?$_List_node@USChannel@CServerStateChecker@@PAX@std@@@std@@@std@@SAXAAV?$allocator@U?$_List_node@USChannel@CServerStateChecker@@PAX@std@@@2@QAU?$_List_node@USChannel@CServerStateChecker@@PAX@2@I@Z ; std::_Default_allocator_traits<std::allocator<std::_List_node<CServerStateChecker::SChannel,void *> > >::deallocate
PUBLIC	?max_size@?$_Default_allocator_traits@V?$allocator@U?$_List_node@USChannel@CServerStateChecker@@PAX@std@@@std@@@std@@SAIABV?$allocator@U?$_List_node@USChannel@CServerStateChecker@@PAX@std@@@2@@Z ; std::_Default_allocator_traits<std::allocator<std::_List_node<CServerStateChecker::SChannel,void *> > >::max_size
PUBLIC	??0?$_Alloc_construct_ptr@V?$allocator@U?$_List_node@USChannel@CServerStateChecker@@PAX@std@@@std@@@std@@QAE@AAV?$allocator@U?$_List_node@USChannel@CServerStateChecker@@PAX@std@@@1@@Z ; std::_Alloc_construct_ptr<std::allocator<std::_List_node<CServerStateChecker::SChannel,void *> > >::_Alloc_construct_ptr<std::allocator<std::_List_node<CServerStateChecker::SChannel,void *> > >
PUBLIC	?_Allocate@?$_Alloc_construct_ptr@V?$allocator@U?$_List_node@USChannel@CServerStateChecker@@PAX@std@@@std@@@std@@QAEXXZ ; std::_Alloc_construct_ptr<std::allocator<std::_List_node<CServerStateChecker::SChannel,void *> > >::_Allocate
PUBLIC	??1?$_Alloc_construct_ptr@V?$allocator@U?$_List_node@USChannel@CServerStateChecker@@PAX@std@@@std@@@std@@QAE@XZ ; std::_Alloc_construct_ptr<std::allocator<std::_List_node<CServerStateChecker::SChannel,void *> > >::~_Alloc_construct_ptr<std::allocator<std::_List_node<CServerStateChecker::SChannel,void *> > >
PUBLIC	??$_Construct_in_place@PAU?$_List_node@USChannel@CServerStateChecker@@PAX@std@@ABQAU12@@std@@YAXAAPAU?$_List_node@USChannel@CServerStateChecker@@PAX@0@ABQAU10@@Z ; std::_Construct_in_place<std::_List_node<CServerStateChecker::SChannel,void *> *,std::_List_node<CServerStateChecker::SChannel,void *> * const &>
PUBLIC	??$_Destroy_in_place@PAU?$_List_node@USChannel@CServerStateChecker@@PAX@std@@@std@@YAXAAPAU?$_List_node@USChannel@CServerStateChecker@@PAX@0@@Z ; std::_Destroy_in_place<std::_List_node<CServerStateChecker::SChannel,void *> *>
PUBLIC	??$construct_at@PAU?$_List_node@USChannel@CServerStateChecker@@PAX@std@@AAPAU12@@std@@YAPAPAU?$_List_node@USChannel@CServerStateChecker@@PAX@0@QAPAU10@AAPAU10@@Z ; std::construct_at<std::_List_node<CServerStateChecker::SChannel,void *> *,std::_List_node<CServerStateChecker::SChannel,void *> * &>
PUBLIC	??$forward@AAPAU?$_List_node@USChannel@CServerStateChecker@@PAX@std@@@std@@YAAAPAU?$_List_node@USChannel@CServerStateChecker@@PAX@0@AAPAU10@@Z ; std::forward<std::_List_node<CServerStateChecker::SChannel,void *> * &>
PUBLIC	??$addressof@PAU?$_List_node@USChannel@CServerStateChecker@@PAX@std@@@std@@YAPAPAU?$_List_node@USChannel@CServerStateChecker@@PAX@0@AAPAU10@@Z ; std::addressof<std::_List_node<CServerStateChecker::SChannel,void *> *>
PUBLIC	??$construct@USChannel@CServerStateChecker@@ABU12@@?$_Default_allocator_traits@V?$allocator@U?$_List_node@USChannel@CServerStateChecker@@PAX@std@@@std@@@std@@SAXAAV?$allocator@U?$_List_node@USChannel@CServerStateChecker@@PAX@std@@@1@QAUSChannel@CServerStateChecker@@ABU34@@Z ; std::_Default_allocator_traits<std::allocator<std::_List_node<CServerStateChecker::SChannel,void *> > >::construct<CServerStateChecker::SChannel,CServerStateChecker::SChannel const &>
PUBLIC	??$destroy@USChannel@CServerStateChecker@@@?$_Default_allocator_traits@V?$allocator@U?$_List_node@USChannel@CServerStateChecker@@PAX@std@@@std@@@std@@SAXAAV?$allocator@U?$_List_node@USChannel@CServerStateChecker@@PAX@std@@@1@QAUSChannel@CServerStateChecker@@@Z ; std::_Default_allocator_traits<std::allocator<std::_List_node<CServerStateChecker::SChannel,void *> > >::destroy<CServerStateChecker::SChannel>
PUBLIC	?max_size@?$list@USChannel@CServerStateChecker@@V?$allocator@USChannel@CServerStateChecker@@@std@@@std@@QBEIXZ ; std::list<CServerStateChecker::SChannel,std::allocator<CServerStateChecker::SChannel> >::max_size
PUBLIC	??0?$allocator@U?$_List_node@USChannel@CServerStateChecker@@PAX@std@@@std@@QAE@XZ ; std::allocator<std::_List_node<CServerStateChecker::SChannel,void *> >::allocator<std::_List_node<CServerStateChecker::SChannel,void *> >
PUBLIC	?allocate@?$allocator@U?$_List_node@USChannel@CServerStateChecker@@PAX@std@@@std@@QAEPAU?$_List_node@USChannel@CServerStateChecker@@PAX@2@I@Z ; std::allocator<std::_List_node<CServerStateChecker::SChannel,void *> >::allocate
PUBLIC	??0?$_List_val@U?$_List_simple_types@USChannel@CServerStateChecker@@@std@@@std@@QAE@XZ ; std::_List_val<std::_List_simple_types<CServerStateChecker::SChannel> >::_List_val<std::_List_simple_types<CServerStateChecker::SChannel> >
PUBLIC	?_Get_first@?$_Compressed_pair@V?$allocator@U?$_List_node@USChannel@CServerStateChecker@@PAX@std@@@std@@V?$_List_val@U?$_List_simple_types@USChannel@CServerStateChecker@@@std@@@2@$00@std@@QAEAAV?$allocator@U?$_List_node@USChannel@CServerStateChecker@@PAX@std@@@2@XZ ; std::_Compressed_pair<std::allocator<std::_List_node<CServerStateChecker::SChannel,void *> >,std::_List_val<std::_List_simple_types<CServerStateChecker::SChannel> >,1>::_Get_first
PUBLIC	??1?$_List_node_emplace_op2@V?$allocator@U?$_List_node@USChannel@CServerStateChecker@@PAX@std@@@std@@@std@@QAE@XZ ; std::_List_node_emplace_op2<std::allocator<std::_List_node<CServerStateChecker::SChannel,void *> > >::~_List_node_emplace_op2<std::allocator<std::_List_node<CServerStateChecker::SChannel,void *> > >
PUBLIC	?_Transfer_before@?$_List_node_emplace_op2@V?$allocator@U?$_List_node@USChannel@CServerStateChecker@@PAX@std@@@std@@@std@@QAEPAU?$_List_node@USChannel@CServerStateChecker@@PAX@2@QAU32@@Z ; std::_List_node_emplace_op2<std::allocator<std::_List_node<CServerStateChecker::SChannel,void *> > >::_Transfer_before
PUBLIC	??$_Freenode0@V?$allocator@U?$_List_node@USChannel@CServerStateChecker@@PAX@std@@@std@@@?$_List_node@USChannel@CServerStateChecker@@PAX@std@@SAXAAV?$allocator@U?$_List_node@USChannel@CServerStateChecker@@PAX@std@@@1@PAU01@@Z ; std::_List_node<CServerStateChecker::SChannel,void *>::_Freenode0<std::allocator<std::_List_node<CServerStateChecker::SChannel,void *> > >
PUBLIC	??$_Construct_in_place@PAU?$_List_node@USChannel@CServerStateChecker@@PAX@std@@AAPAU12@@std@@YAXAAPAU?$_List_node@USChannel@CServerStateChecker@@PAX@0@0@Z ; std::_Construct_in_place<std::_List_node<CServerStateChecker::SChannel,void *> *,std::_List_node<CServerStateChecker::SChannel,void *> * &>
PUBLIC	??$addressof@$$CBUSChannel@CServerStateChecker@@@std@@YAPBUSChannel@CServerStateChecker@@ABU12@@Z ; std::addressof<CServerStateChecker::SChannel const >
PUBLIC	??$addressof@USChannel@CServerStateChecker@@@std@@YAPAUSChannel@CServerStateChecker@@AAU12@@Z ; std::addressof<CServerStateChecker::SChannel>
PUBLIC	??$?0ABUSChannel@CServerStateChecker@@@?$_List_node_emplace_op2@V?$allocator@U?$_List_node@USChannel@CServerStateChecker@@PAX@std@@@std@@@std@@QAE@AAV?$allocator@U?$_List_node@USChannel@CServerStateChecker@@PAX@std@@@1@ABUSChannel@CServerStateChecker@@@Z ; std::_List_node_emplace_op2<std::allocator<std::_List_node<CServerStateChecker::SChannel,void *> > >::_List_node_emplace_op2<std::allocator<std::_List_node<CServerStateChecker::SChannel,void *> > ><CServerStateChecker::SChannel const &>
PUBLIC	??$forward@ABUSChannel@CServerStateChecker@@@std@@YAABUSChannel@CServerStateChecker@@ABU12@@Z ; std::forward<CServerStateChecker::SChannel const &>
PUBLIC	??$_Freenode@V?$allocator@U?$_List_node@USChannel@CServerStateChecker@@PAX@std@@@std@@@?$_List_node@USChannel@CServerStateChecker@@PAX@std@@SAXAAV?$allocator@U?$_List_node@USChannel@CServerStateChecker@@PAX@std@@@1@PAU01@@Z ; std::_List_node<CServerStateChecker::SChannel,void *>::_Freenode<std::allocator<std::_List_node<CServerStateChecker::SChannel,void *> > >
PUBLIC	?_Tidy@?$list@USChannel@CServerStateChecker@@V?$allocator@USChannel@CServerStateChecker@@@std@@@std@@AAEXXZ ; std::list<CServerStateChecker::SChannel,std::allocator<CServerStateChecker::SChannel> >::_Tidy
PUBLIC	?_Alloc_sentinel_and_proxy@?$list@USChannel@CServerStateChecker@@V?$allocator@USChannel@CServerStateChecker@@@std@@@std@@AAEXXZ ; std::list<CServerStateChecker::SChannel,std::allocator<CServerStateChecker::SChannel> >::_Alloc_sentinel_and_proxy
PUBLIC	?_Getal@?$list@USChannel@CServerStateChecker@@V?$allocator@USChannel@CServerStateChecker@@@std@@@std@@AAEAAV?$allocator@U?$_List_node@USChannel@CServerStateChecker@@PAX@std@@@2@XZ ; std::list<CServerStateChecker::SChannel,std::allocator<CServerStateChecker::SChannel> >::_Getal
PUBLIC	?_Orphan_non_end@?$_List_val@U?$_List_simple_types@USChannel@CServerStateChecker@@@std@@@std@@QAEXXZ ; std::_List_val<std::_List_simple_types<CServerStateChecker::SChannel> >::_Orphan_non_end
PUBLIC	??D?$_List_iterator@V?$_List_val@U?$_List_simple_types@USChannel@CServerStateChecker@@@std@@@std@@@std@@QBEAAUSChannel@CServerStateChecker@@XZ ; std::_List_iterator<std::_List_val<std::_List_simple_types<CServerStateChecker::SChannel> > >::operator*
PUBLIC	??D?$_List_const_iterator@V?$_List_val@U?$_List_simple_types@USChannel@CServerStateChecker@@@std@@@std@@@std@@QBEABUSChannel@CServerStateChecker@@XZ ; std::_List_const_iterator<std::_List_val<std::_List_simple_types<CServerStateChecker::SChannel> > >::operator*
PUBLIC	??0?$_List_unchecked_const_iterator@V?$_List_val@U?$_List_simple_types@USChannel@CServerStateChecker@@@std@@@std@@U_Iterator_base0@2@@std@@QAE@PAU?$_List_node@USChannel@CServerStateChecker@@PAX@1@PBV?$_List_val@U?$_List_simple_types@USChannel@CServerStateChecker@@@std@@@1@@Z ; std::_List_unchecked_const_iterator<std::_List_val<std::_List_simple_types<CServerStateChecker::SChannel> >,std::_Iterator_base0>::_List_unchecked_const_iterator<std::_List_val<std::_List_simple_types<CServerStateChecker::SChannel> >,std::_Iterator_base0>
PUBLIC	?pointer_to@?$pointer_traits@PBUSChannel@CServerStateChecker@@@std@@SAPBUSChannel@CServerStateChecker@@ABU34@@Z ; std::pointer_traits<CServerStateChecker::SChannel const *>::pointer_to
PUBLIC	?pointer_to@?$pointer_traits@PAUSChannel@CServerStateChecker@@@std@@SAPAUSChannel@CServerStateChecker@@AAU34@@Z ; std::pointer_traits<CServerStateChecker::SChannel *>::pointer_to
PUBLIC	??$?0$$V@?$_Compressed_pair@V?$allocator@U?$_List_node@USChannel@CServerStateChecker@@PAX@std@@@std@@V?$_List_val@U?$_List_simple_types@USChannel@CServerStateChecker@@@std@@@2@$00@std@@QAE@U_Zero_then_variadic_args_t@1@@Z ; std::_Compressed_pair<std::allocator<std::_List_node<CServerStateChecker::SChannel,void *> >,std::_List_val<std::_List_simple_types<CServerStateChecker::SChannel> >,1>::_Compressed_pair<std::allocator<std::_List_node<CServerStateChecker::SChannel,void *> >,std::_List_val<std::_List_simple_types<CServerStateChecker::SChannel> >,1><>
PUBLIC	??$addressof@V?$_List_val@U?$_List_simple_types@USChannel@CServerStateChecker@@@std@@@std@@@std@@YAPAV?$_List_val@U?$_List_simple_types@USChannel@CServerStateChecker@@@std@@@0@AAV10@@Z ; std::addressof<std::_List_val<std::_List_simple_types<CServerStateChecker::SChannel> > >
PUBLIC	??$_Emplace@ABUSChannel@CServerStateChecker@@@?$list@USChannel@CServerStateChecker@@V?$allocator@USChannel@CServerStateChecker@@@std@@@std@@QAEPAU?$_List_node@USChannel@CServerStateChecker@@PAX@1@QAU21@ABUSChannel@CServerStateChecker@@@Z ; std::list<CServerStateChecker::SChannel,std::allocator<CServerStateChecker::SChannel> >::_Emplace<CServerStateChecker::SChannel const &>
PUBLIC	??$_Free_non_head@V?$allocator@U?$_List_node@USChannel@CServerStateChecker@@PAX@std@@@std@@@?$_List_node@USChannel@CServerStateChecker@@PAX@std@@SAXAAV?$allocator@U?$_List_node@USChannel@CServerStateChecker@@PAX@std@@@1@PAU01@@Z ; std::_List_node<CServerStateChecker::SChannel,void *>::_Free_non_head<std::allocator<std::_List_node<CServerStateChecker::SChannel,void *> > >
PUBLIC	??0?$_List_const_iterator@V?$_List_val@U?$_List_simple_types@USChannel@CServerStateChecker@@@std@@@std@@@std@@QAE@PAU?$_List_node@USChannel@CServerStateChecker@@PAX@1@PBV?$_List_val@U?$_List_simple_types@USChannel@CServerStateChecker@@@std@@@1@@Z ; std::_List_const_iterator<std::_List_val<std::_List_simple_types<CServerStateChecker::SChannel> > >::_List_const_iterator<std::_List_val<std::_List_simple_types<CServerStateChecker::SChannel> > >
PUBLIC	??_G?$CSingleton@VCServerStateChecker@@@@UAEPAXI@Z ; CSingleton<CServerStateChecker>::`scalar deleting destructor'
PUBLIC	??0?$_List_iterator@V?$_List_val@U?$_List_simple_types@USChannel@CServerStateChecker@@@std@@@std@@@std@@QAE@PAU?$_List_node@USChannel@CServerStateChecker@@PAX@1@PBV?$_List_val@U?$_List_simple_types@USChannel@CServerStateChecker@@@std@@@1@@Z ; std::_List_iterator<std::_List_val<std::_List_simple_types<CServerStateChecker::SChannel> > >::_List_iterator<std::_List_val<std::_List_simple_types<CServerStateChecker::SChannel> > >
PUBLIC	??0?$CSingleton@VCServerStateChecker@@@@QAE@XZ	; CSingleton<CServerStateChecker>::CSingleton<CServerStateChecker>
PUBLIC	??1?$CSingleton@VCServerStateChecker@@@@UAE@XZ	; CSingleton<CServerStateChecker>::~CSingleton<CServerStateChecker>
PUBLIC	??0?$list@USChannel@CServerStateChecker@@V?$allocator@USChannel@CServerStateChecker@@@std@@@std@@QAE@XZ ; std::list<CServerStateChecker::SChannel,std::allocator<CServerStateChecker::SChannel> >::list<CServerStateChecker::SChannel,std::allocator<CServerStateChecker::SChannel> >
PUBLIC	??1?$list@USChannel@CServerStateChecker@@V?$allocator@USChannel@CServerStateChecker@@@std@@@std@@QAE@XZ ; std::list<CServerStateChecker::SChannel,std::allocator<CServerStateChecker::SChannel> >::~list<CServerStateChecker::SChannel,std::allocator<CServerStateChecker::SChannel> >
PUBLIC	?begin@?$list@USChannel@CServerStateChecker@@V?$allocator@USChannel@CServerStateChecker@@@std@@@std@@QAE?AV?$_List_iterator@V?$_List_val@U?$_List_simple_types@USChannel@CServerStateChecker@@@std@@@std@@@2@XZ ; std::list<CServerStateChecker::SChannel,std::allocator<CServerStateChecker::SChannel> >::begin
PUBLIC	?end@?$list@USChannel@CServerStateChecker@@V?$allocator@USChannel@CServerStateChecker@@@std@@@std@@QAE?AV?$_List_iterator@V?$_List_val@U?$_List_simple_types@USChannel@CServerStateChecker@@@std@@@std@@@2@XZ ; std::list<CServerStateChecker::SChannel,std::allocator<CServerStateChecker::SChannel> >::end
PUBLIC	?empty@?$list@USChannel@CServerStateChecker@@V?$allocator@USChannel@CServerStateChecker@@@std@@@std@@QBE_NXZ ; std::list<CServerStateChecker::SChannel,std::allocator<CServerStateChecker::SChannel> >::empty
PUBLIC	?push_back@?$list@USChannel@CServerStateChecker@@V?$allocator@USChannel@CServerStateChecker@@@std@@@std@@QAEXABUSChannel@CServerStateChecker@@@Z ; std::list<CServerStateChecker::SChannel,std::allocator<CServerStateChecker::SChannel> >::push_back
PUBLIC	?clear@?$list@USChannel@CServerStateChecker@@V?$allocator@USChannel@CServerStateChecker@@@std@@@std@@QAEXXZ ; std::list<CServerStateChecker::SChannel,std::allocator<CServerStateChecker::SChannel> >::clear
PUBLIC	??C?$_List_iterator@V?$_List_val@U?$_List_simple_types@USChannel@CServerStateChecker@@@std@@@std@@@std@@QBEPAUSChannel@CServerStateChecker@@XZ ; std::_List_iterator<std::_List_val<std::_List_simple_types<CServerStateChecker::SChannel> > >::operator->
PUBLIC	??C?$_List_const_iterator@V?$_List_val@U?$_List_simple_types@USChannel@CServerStateChecker@@@std@@@std@@@std@@QBEPBUSChannel@CServerStateChecker@@XZ ; std::_List_const_iterator<std::_List_val<std::_List_simple_types<CServerStateChecker::SChannel> > >::operator->
PUBLIC	??E?$_List_const_iterator@V?$_List_val@U?$_List_simple_types@USChannel@CServerStateChecker@@@std@@@std@@@std@@QAEAAV01@XZ ; std::_List_const_iterator<std::_List_val<std::_List_simple_types<CServerStateChecker::SChannel> > >::operator++
PUBLIC	??8?$_List_const_iterator@V?$_List_val@U?$_List_simple_types@USChannel@CServerStateChecker@@@std@@@std@@@std@@QBE_NABV01@@Z ; std::_List_const_iterator<std::_List_val<std::_List_simple_types<CServerStateChecker::SChannel> > >::operator==
PUBLIC	?Initialize@CServerStateChecker@@QAEXXZ		; CServerStateChecker::Initialize
PUBLIC	?Update@CServerStateChecker@@QAEXXZ		; CServerStateChecker::Update
PUBLIC	?Request@CServerStateChecker@@QAEXXZ		; CServerStateChecker::Request
PUBLIC	?AddChannel@CServerStateChecker@@QAEXIPBDI@Z	; CServerStateChecker::AddChannel
PUBLIC	?Create@CServerStateChecker@@QAEXPAU_object@@@Z	; CServerStateChecker::Create
PUBLIC	??_GCServerStateChecker@@UAEPAXI@Z		; CServerStateChecker::`scalar deleting destructor'
PUBLIC	??0CServerStateChecker@@QAE@XZ			; CServerStateChecker::CServerStateChecker
PUBLIC	??1CServerStateChecker@@UAE@XZ			; CServerStateChecker::~CServerStateChecker
EXTRN	??_ECServerStateChecker@@UAEPAXI@Z:PROC		; CServerStateChecker::`vector deleting destructor'
EXTRN	??_E?$CSingleton@VCServerStateChecker@@@@UAEPAXI@Z:PROC ; CSingleton<CServerStateChecker>::`vector deleting destructor'
;	COMDAT xdata$x
xdata$x	SEGMENT
__ehfuncinfo$??1CServerStateChecker@@UAE@XZ DQ 00000000019930522r ; 2.11987e-315
	DQ	00000000000000000r		; 0
	DQ	00000000000000000r		; 0
	DQ	00000000000000000r		; 0
	DD	05H
xdata$x	ENDS
;	COMDAT xdata$x
xdata$x	SEGMENT
__ehfuncinfo$??0CServerStateChecker@@QAE@XZ DQ 00000000319930522r ; 6.57797e-314
	DD	FLAT:__unwindtable$??0CServerStateChecker@@QAE@XZ
	DQ	00000000000000000r		; 0
	DQ	00000000000000000r		; 0
	DQ	00000000100000000r		; 2.122e-314
__unwindtable$??0CServerStateChecker@@QAE@XZ DD 0ffffffffH
	DD	FLAT:__unwindfunclet$??0CServerStateChecker@@QAE@XZ$0
	DD	00H
	DD	FLAT:__unwindfunclet$??0CServerStateChecker@@QAE@XZ$1
	DD	01H
	DD	FLAT:__unwindfunclet$??0CServerStateChecker@@QAE@XZ$2
xdata$x	ENDS
;	COMDAT xdata$x
xdata$x	SEGMENT
__ehfuncinfo$?AddChannel@CServerStateChecker@@QAEXIPBDI@Z DQ 00000000119930522r ; 2.33398e-314
	DD	FLAT:__unwindtable$?AddChannel@CServerStateChecker@@QAEXIPBDI@Z
	DQ	00000000000000000r		; 0
	DQ	00000000000000000r		; 0
	DQ	00000000100000000r		; 2.122e-314
__unwindtable$?AddChannel@CServerStateChecker@@QAEXIPBDI@Z DD 0ffffffffH
	DD	FLAT:__unwindfunclet$?AddChannel@CServerStateChecker@@QAEXIPBDI@Z$1
xdata$x	ENDS
;	COMDAT xdata$x
xdata$x	SEGMENT
__ehfuncinfo$?push_back@?$list@USChannel@CServerStateChecker@@V?$allocator@USChannel@CServerStateChecker@@@std@@@std@@QAEXABUSChannel@CServerStateChecker@@@Z DQ 00000000119930522r ; 2.33398e-314
	DD	FLAT:__unwindtable$?push_back@?$list@USChannel@CServerStateChecker@@V?$allocator@USChannel@CServerStateChecker@@@std@@@std@@QAEXABUSChannel@CServerStateChecker@@@Z
	DQ	00000000000000000r		; 0
	DQ	00000000000000000r		; 0
	DQ	00000000100000000r		; 2.122e-314
__unwindtable$?push_back@?$list@USChannel@CServerStateChecker@@V?$allocator@USChannel@CServerStateChecker@@@std@@@std@@QAEXABUSChannel@CServerStateChecker@@@Z DD 0ffffffffH
	DD	FLAT:__unwindfunclet$?push_back@?$list@USChannel@CServerStateChecker@@V?$allocator@USChannel@CServerStateChecker@@@std@@@std@@QAEXABUSChannel@CServerStateChecker@@@Z$1
xdata$x	ENDS
;	COMDAT xdata$x
xdata$x	SEGMENT
__ehfuncinfo$??$_Emplace@ABUSChannel@CServerStateChecker@@@?$list@USChannel@CServerStateChecker@@V?$allocator@USChannel@CServerStateChecker@@@std@@@std@@QAEPAU?$_List_node@USChannel@CServerStateChecker@@PAX@1@QAU21@ABUSChannel@CServerStateChecker@@@Z DQ 00000000119930522r ; 2.33398e-314
	DD	FLAT:__unwindtable$??$_Emplace@ABUSChannel@CServerStateChecker@@@?$list@USChannel@CServerStateChecker@@V?$allocator@USChannel@CServerStateChecker@@@std@@@std@@QAEPAU?$_List_node@USChannel@CServerStateChecker@@PAX@1@QAU21@ABUSChannel@CServerStateChecker@@@Z
	DQ	00000000000000000r		; 0
	DQ	00000000000000000r		; 0
	DQ	00000000100000000r		; 2.122e-314
__unwindtable$??$_Emplace@ABUSChannel@CServerStateChecker@@@?$list@USChannel@CServerStateChecker@@V?$allocator@USChannel@CServerStateChecker@@@std@@@std@@QAEPAU?$_List_node@USChannel@CServerStateChecker@@PAX@1@QAU21@ABUSChannel@CServerStateChecker@@@Z DD 0ffffffffH
	DD	FLAT:__unwindfunclet$??$_Emplace@ABUSChannel@CServerStateChecker@@@?$list@USChannel@CServerStateChecker@@V?$allocator@USChannel@CServerStateChecker@@@std@@@std@@QAEPAU?$_List_node@USChannel@CServerStateChecker@@PAX@1@QAU21@ABUSChannel@CServerStateChecker@@@Z$1
xdata$x	ENDS
;	COMDAT xdata$x
xdata$x	SEGMENT
__ehfuncinfo$??$?0ABUSChannel@CServerStateChecker@@@?$_List_node_emplace_op2@V?$allocator@U?$_List_node@USChannel@CServerStateChecker@@PAX@std@@@std@@@std@@QAE@AAV?$allocator@U?$_List_node@USChannel@CServerStateChecker@@PAX@std@@@1@ABUSChannel@CServerStateChecker@@@Z DQ 00000000119930522r ; 2.33398e-314
	DD	FLAT:__unwindtable$??$?0ABUSChannel@CServerStateChecker@@@?$_List_node_emplace_op2@V?$allocator@U?$_List_node@USChannel@CServerStateChecker@@PAX@std@@@std@@@std@@QAE@AAV?$allocator@U?$_List_node@USChannel@CServerStateChecker@@PAX@std@@@1@ABUSChannel@CServerStateChecker@@@Z
	DQ	00000000000000000r		; 0
	DQ	00000000000000000r		; 0
	DQ	00000000100000000r		; 2.122e-314
__unwindtable$??$?0ABUSChannel@CServerStateChecker@@@?$_List_node_emplace_op2@V?$allocator@U?$_List_node@USChannel@CServerStateChecker@@PAX@std@@@std@@@std@@QAE@AAV?$allocator@U?$_List_node@USChannel@CServerStateChecker@@PAX@std@@@1@ABUSChannel@CServerStateChecker@@@Z DD 0ffffffffH
	DD	FLAT:__unwindfunclet$??$?0ABUSChannel@CServerStateChecker@@@?$_List_node_emplace_op2@V?$allocator@U?$_List_node@USChannel@CServerStateChecker@@PAX@std@@@std@@@std@@QAE@AAV?$allocator@U?$_List_node@USChannel@CServerStateChecker@@PAX@std@@@1@ABUSChannel@CServerStateChecker@@@Z$0
; Function compile flags: /Ogtp
; File C:\Anka2Project\Anka2Project\Source\Binary\source\UserInterface\ServerStateChecker.cpp
; File C:\Program Files\Microsoft Visual Studio\2022\Community\VC\Tools\MSVC\14.44.35207\include\list
; File C:\Anka2Project\Anka2Project\Source\Binary\source\UserInterface\ServerStateChecker.cpp
; File C:\Program Files\Microsoft Visual Studio\2022\Community\VC\Tools\MSVC\14.44.35207\include\list
; File C:\Anka2Project\Anka2Project\Source\Binary\source\UserInterface\ServerStateChecker.cpp
; File C:\Program Files\Microsoft Visual Studio\2022\Community\VC\Tools\MSVC\14.44.35207\include\list
; File C:\Anka2Project\Anka2Project\Source\Binary\source\UserInterface\ServerStateChecker.cpp
; File C:\Program Files\Microsoft Visual Studio\2022\Community\VC\Tools\MSVC\14.44.35207\include\list
; File C:\Anka2Project\Anka2Project\Source\Binary\source\UserInterface\ServerStateChecker.cpp
; File C:\Program Files\Microsoft Visual Studio\2022\Community\VC\Tools\MSVC\14.44.35207\include\list
; File C:\Anka2Project\Anka2Project\Source\Binary\source\UserInterface\ServerStateChecker.cpp
; File C:\Program Files\Microsoft Visual Studio\2022\Community\VC\Tools\MSVC\14.44.35207\include\list
; File C:\Anka2Project\Anka2Project\Source\Binary\source\UserInterface\ServerStateChecker.cpp
; File C:\Program Files\Microsoft Visual Studio\2022\Community\VC\Tools\MSVC\14.44.35207\include\list
; File C:\Anka2Project\Anka2Project\Source\Binary\source\UserInterface\ServerStateChecker.cpp
; File C:\Program Files\Microsoft Visual Studio\2022\Community\VC\Tools\MSVC\14.44.35207\include\list
; File C:\Anka2Project\Anka2Project\Source\Binary\source\UserInterface\ServerStateChecker.cpp
; File C:\Program Files\Microsoft Visual Studio\2022\Community\VC\Tools\MSVC\14.44.35207\include\list
; File C:\Anka2Project\Anka2Project\Source\Binary\source\UserInterface\ServerStateChecker.cpp
;	COMDAT ?Request@CServerStateChecker@@QAEXXZ
_TEXT	SEGMENT
_bHeader$ = -1						; size = 1
?Request@CServerStateChecker@@QAEXXZ PROC		; CServerStateChecker::Request, COMDAT
; _this$ = ecx

; 44   : {

  00000	55		 push	 ebp
  00001	8b ec		 mov	 ebp, esp
  00003	51		 push	 ecx
  00004	57		 push	 edi
  00005	8b f9		 mov	 edi, ecx
; File C:\Program Files\Microsoft Visual Studio\2022\Community\VC\Tools\MSVC\14.44.35207\include\list

; 1213 :         return _Mypair._Myval2._Mysize == 0;

  00007	83 7f 0c 00	 cmp	 DWORD PTR [edi+12], 0
; File C:\Anka2Project\Anka2Project\Source\Binary\source\UserInterface\ServerStateChecker.cpp

; 45   : 	if (m_lstChannel.empty()) { 

  0000b	0f 84 ce 00 00
	00		 je	 $LN10@Request
; File C:\Program Files\Microsoft Visual Studio\2022\Community\VC\Tools\MSVC\14.44.35207\include\list

; 1105 :         return iterator(_Mypair._Myval2._Myhead->_Next, _STD addressof(_Mypair._Myval2));

  00011	8b 47 08	 mov	 eax, DWORD PTR [edi+8]
; File C:\Anka2Project\Anka2Project\Source\Binary\source\UserInterface\ServerStateChecker.cpp

; 49   : 	if (!m_kStream.Connect(m_lstChannel.begin()->c_szAddr, m_lstChannel.begin()->uPort))

  00014	8d 4f 10	 lea	 ecx, DWORD PTR [edi+16]
  00017	53		 push	 ebx
  00018	56		 push	 esi
  00019	6a 03		 push	 3
; File C:\Program Files\Microsoft Visual Studio\2022\Community\VC\Tools\MSVC\14.44.35207\include\list

; 37   :     _List_unchecked_const_iterator(_Nodeptr _Pnode, const _Mylist* _Plist) noexcept : _Ptr(_Pnode) {

  0001b	8b 00		 mov	 eax, DWORD PTR [eax]
; File C:\Anka2Project\Anka2Project\Source\Binary\source\UserInterface\ServerStateChecker.cpp

; 49   : 	if (!m_kStream.Connect(m_lstChannel.begin()->c_szAddr, m_lstChannel.begin()->uPort))

  0001d	ff 70 10	 push	 DWORD PTR [eax+16]
  00020	ff 70 0c	 push	 DWORD PTR [eax+12]
  00023	e8 00 00 00 00	 call	 ?Connect@CNetworkStream@@QAE_NPBDHH@Z ; CNetworkStream::Connect
  00028	84 c0		 test	 al, al
  0002a	75 3f		 jne	 SHORT $LN9@Request
; File C:\Program Files\Microsoft Visual Studio\2022\Community\VC\Tools\MSVC\14.44.35207\include\list

; 1105 :         return iterator(_Mypair._Myval2._Myhead->_Next, _STD addressof(_Mypair._Myval2));

  0002c	8b 47 08	 mov	 eax, DWORD PTR [edi+8]

; 37   :     _List_unchecked_const_iterator(_Nodeptr _Pnode, const _Mylist* _Plist) noexcept : _Ptr(_Pnode) {

  0002f	8b 30		 mov	 esi, DWORD PTR [eax]
  00031	3b f0		 cmp	 esi, eax
; File C:\Anka2Project\Anka2Project\Source\Binary\source\UserInterface\ServerStateChecker.cpp

; 51   : 		for (std::list<TChannel>::const_iterator it = m_lstChannel.begin(); it != m_lstChannel.end(); ++it) {

  00033	0f 84 a4 00 00
	00		 je	 $LN142@Request
  00039	8b 1d 00 00 00
	00		 mov	 ebx, DWORD PTR __imp__Py_BuildValue
  0003f	90		 npad	 1
$LL4@Request:

; 52   : 			PyCallClassMemberFunc(m_poWnd, "NotifyChannelState", Py_BuildValue("(ii)", it->uServerIndex, 0));

  00040	6a 00		 push	 0
  00042	ff 76 08	 push	 DWORD PTR [esi+8]
  00045	68 00 00 00 00	 push	 OFFSET ??_C@_04INACLLOK@?$CIii?$CJ@
  0004a	ff d3		 call	 ebx
  0004c	50		 push	 eax
  0004d	68 00 00 00 00	 push	 OFFSET ??_C@_0BD@EEDMKMGJ@NotifyChannelState@
  00052	ff 77 04	 push	 DWORD PTR [edi+4]
  00055	e8 00 00 00 00	 call	 ?PyCallClassMemberFunc@@YA_NPAU_object@@PBD0@Z ; PyCallClassMemberFunc
; File C:\Program Files\Microsoft Visual Studio\2022\Community\VC\Tools\MSVC\14.44.35207\include\list

; 164  :         this->_Ptr = this->_Ptr->_Next;

  0005a	8b 36		 mov	 esi, DWORD PTR [esi]
; File C:\Anka2Project\Anka2Project\Source\Binary\source\UserInterface\ServerStateChecker.cpp

; 52   : 			PyCallClassMemberFunc(m_poWnd, "NotifyChannelState", Py_BuildValue("(ii)", it->uServerIndex, 0));

  0005c	83 c4 18	 add	 esp, 24			; 00000018H
; File C:\Program Files\Microsoft Visual Studio\2022\Community\VC\Tools\MSVC\14.44.35207\include\list

; 197  :         return this->_Ptr == _Right._Ptr;

  0005f	3b 77 08	 cmp	 esi, DWORD PTR [edi+8]
; File C:\Anka2Project\Anka2Project\Source\Binary\source\UserInterface\ServerStateChecker.cpp

; 51   : 		for (std::list<TChannel>::const_iterator it = m_lstChannel.begin(); it != m_lstChannel.end(); ++it) {

  00062	75 dc		 jne	 SHORT $LL4@Request
  00064	5e		 pop	 esi
  00065	5b		 pop	 ebx
  00066	5f		 pop	 edi

; 67   : 		return;
; 68   : 	}
; 69   : }

  00067	8b e5		 mov	 esp, ebp
  00069	5d		 pop	 ebp
  0006a	c3		 ret	 0
$LN9@Request:

; 53   : 		}
; 54   : 		return;
; 55   : 	}
; 56   : 	m_kStream.ClearRecvBuffer();

  0006b	8d 4f 10	 lea	 ecx, DWORD PTR [edi+16]
  0006e	e8 00 00 00 00	 call	 ?ClearRecvBuffer@CNetworkStream@@QAEXXZ ; CNetworkStream::ClearRecvBuffer

; 57   : 	m_kStream.SetSendBufferSize(1024);

  00073	68 00 04 00 00	 push	 1024			; 00000400H
  00078	8d 4f 10	 lea	 ecx, DWORD PTR [edi+16]
  0007b	e8 00 00 00 00	 call	 ?SetSendBufferSize@CNetworkStream@@QAEXH@Z ; CNetworkStream::SetSendBufferSize

; 58   : 	m_kStream.SetRecvBufferSize(1024);

  00080	68 00 04 00 00	 push	 1024			; 00000400H
  00085	8d 4f 10	 lea	 ecx, DWORD PTR [edi+16]
  00088	e8 00 00 00 00	 call	 ?SetRecvBufferSize@CNetworkStream@@QAEXH@Z ; CNetworkStream::SetRecvBufferSize

; 59   : 
; 60   : 	BYTE bHeader = HEADER_CG_STATE_CHECKER;
; 61   : 	if (!m_kStream.Send(sizeof(bHeader), &bHeader))

  0008d	8d 45 ff	 lea	 eax, DWORD PTR _bHeader$[ebp]
  00090	c6 45 ff 15	 mov	 BYTE PTR _bHeader$[ebp], 21 ; 00000015H
  00094	50		 push	 eax
  00095	6a 01		 push	 1
  00097	8d 4f 10	 lea	 ecx, DWORD PTR [edi+16]
  0009a	e8 00 00 00 00	 call	 ?Send@CNetworkStream@@QAE_NHPBX@Z ; CNetworkStream::Send
  0009f	84 c0		 test	 al, al
  000a1	75 3a		 jne	 SHORT $LN142@Request
; File C:\Program Files\Microsoft Visual Studio\2022\Community\VC\Tools\MSVC\14.44.35207\include\list

; 1105 :         return iterator(_Mypair._Myval2._Myhead->_Next, _STD addressof(_Mypair._Myval2));

  000a3	8b 47 08	 mov	 eax, DWORD PTR [edi+8]

; 37   :     _List_unchecked_const_iterator(_Nodeptr _Pnode, const _Mylist* _Plist) noexcept : _Ptr(_Pnode) {

  000a6	8b 30		 mov	 esi, DWORD PTR [eax]
  000a8	3b f0		 cmp	 esi, eax
; File C:\Anka2Project\Anka2Project\Source\Binary\source\UserInterface\ServerStateChecker.cpp

; 63   : 		for (std::list<TChannel>::const_iterator it = m_lstChannel.begin(); it != m_lstChannel.end(); ++it) {

  000aa	74 2a		 je	 SHORT $LN6@Request
  000ac	8b 1d 00 00 00
	00		 mov	 ebx, DWORD PTR __imp__Py_BuildValue
$LL7@Request:

; 64   : 			PyCallClassMemberFunc(m_poWnd, "NotifyChannelState", Py_BuildValue("(ii)", it->uServerIndex, 0));

  000b2	6a 00		 push	 0
  000b4	ff 76 08	 push	 DWORD PTR [esi+8]
  000b7	68 00 00 00 00	 push	 OFFSET ??_C@_04INACLLOK@?$CIii?$CJ@
  000bc	ff d3		 call	 ebx
  000be	50		 push	 eax
  000bf	68 00 00 00 00	 push	 OFFSET ??_C@_0BD@EEDMKMGJ@NotifyChannelState@
  000c4	ff 77 04	 push	 DWORD PTR [edi+4]
  000c7	e8 00 00 00 00	 call	 ?PyCallClassMemberFunc@@YA_NPAU_object@@PBD0@Z ; PyCallClassMemberFunc
; File C:\Program Files\Microsoft Visual Studio\2022\Community\VC\Tools\MSVC\14.44.35207\include\list

; 164  :         this->_Ptr = this->_Ptr->_Next;

  000cc	8b 36		 mov	 esi, DWORD PTR [esi]
; File C:\Anka2Project\Anka2Project\Source\Binary\source\UserInterface\ServerStateChecker.cpp

; 64   : 			PyCallClassMemberFunc(m_poWnd, "NotifyChannelState", Py_BuildValue("(ii)", it->uServerIndex, 0));

  000ce	83 c4 18	 add	 esp, 24			; 00000018H
; File C:\Program Files\Microsoft Visual Studio\2022\Community\VC\Tools\MSVC\14.44.35207\include\list

; 197  :         return this->_Ptr == _Right._Ptr;

  000d1	3b 77 08	 cmp	 esi, DWORD PTR [edi+8]
; File C:\Anka2Project\Anka2Project\Source\Binary\source\UserInterface\ServerStateChecker.cpp

; 63   : 		for (std::list<TChannel>::const_iterator it = m_lstChannel.begin(); it != m_lstChannel.end(); ++it) {

  000d4	75 dc		 jne	 SHORT $LL7@Request
$LN6@Request:

; 65   : 		}
; 66   : 		Initialize();

  000d6	8b cf		 mov	 ecx, edi
  000d8	e8 00 00 00 00	 call	 ?Initialize@CServerStateChecker@@QAEXXZ ; CServerStateChecker::Initialize
$LN142@Request:
  000dd	5e		 pop	 esi
  000de	5b		 pop	 ebx
$LN10@Request:
  000df	5f		 pop	 edi

; 67   : 		return;
; 68   : 	}
; 69   : }

  000e0	8b e5		 mov	 esp, ebp
  000e2	5d		 pop	 ebp
  000e3	c3		 ret	 0
?Request@CServerStateChecker@@QAEXXZ ENDP		; CServerStateChecker::Request
_TEXT	ENDS
; Function compile flags: /Ogtp
; File C:\Anka2Project\Anka2Project\Source\Binary\source\UserInterface\ServerStateChecker.cpp
; File C:\Program Files\Microsoft Visual Studio\2022\Community\VC\Tools\MSVC\14.44.35207\include\list
; File C:\Anka2Project\Anka2Project\Source\Binary\source\UserInterface\ServerStateChecker.cpp
; File C:\Program Files\Microsoft Visual Studio\2022\Community\VC\Tools\MSVC\14.44.35207\include\list
; File C:\Anka2Project\Anka2Project\Source\Binary\source\UserInterface\ServerStateChecker.cpp
;	COMDAT ?Update@CServerStateChecker@@QAEXXZ
_TEXT	SEGMENT
_channelStatus$14 = -16					; size = 5
_nSize$ = -8						; size = 4
_bHeader$ = -1						; size = 1
?Update@CServerStateChecker@@QAEXXZ PROC		; CServerStateChecker::Update, COMDAT
; _this$ = ecx

; 72   : {

  00000	55		 push	 ebp
  00001	8b ec		 mov	 ebp, esp
  00003	83 ec 10	 sub	 esp, 16			; 00000010H
  00006	53		 push	 ebx
  00007	57		 push	 edi
  00008	8b f9		 mov	 edi, ecx

; 73   : 	m_kStream.Process();

  0000a	8d 4f 10	 lea	 ecx, DWORD PTR [edi+16]
  0000d	e8 00 00 00 00	 call	 ?Process@CNetworkStream@@QAEXXZ ; CNetworkStream::Process

; 74   : 
; 75   : 	BYTE bHeader;
; 76   : 	if (!m_kStream.Recv(sizeof(bHeader), &bHeader)) {

  00012	8d 45 ff	 lea	 eax, DWORD PTR _bHeader$[ebp]
  00015	50		 push	 eax
  00016	6a 01		 push	 1
  00018	8d 4f 10	 lea	 ecx, DWORD PTR [edi+16]
  0001b	e8 00 00 00 00	 call	 ?Recv@CNetworkStream@@QAE_NHPAX@Z ; CNetworkStream::Recv
  00020	84 c0		 test	 al, al
  00022	74 7d		 je	 SHORT $LN1@Update

; 77   : 		return;
; 78   : 	}
; 79   : 	if (HEADER_GC_RESPOND_CHANNELSTATUS != bHeader) {

  00024	80 7d ff d2	 cmp	 BYTE PTR _bHeader$[ebp], 210 ; 000000d2H
  00028	75 77		 jne	 SHORT $LN1@Update

; 80   : 		return;
; 81   : 	}
; 82   : 	int nSize;
; 83   : 	if (!m_kStream.Recv(sizeof(nSize), &nSize)) {

  0002a	8d 45 f8	 lea	 eax, DWORD PTR _nSize$[ebp]
  0002d	50		 push	 eax
  0002e	6a 04		 push	 4
  00030	8d 4f 10	 lea	 ecx, DWORD PTR [edi+16]
  00033	e8 00 00 00 00	 call	 ?Recv@CNetworkStream@@QAE_NHPAX@Z ; CNetworkStream::Recv
  00038	84 c0		 test	 al, al
  0003a	74 65		 je	 SHORT $LN1@Update

; 84   : 		return;
; 85   : 	}
; 86   : 	for (int i = 0; i < nSize; i++) {

  0003c	56		 push	 esi
  0003d	33 f6		 xor	 esi, esi
  0003f	39 75 f8	 cmp	 DWORD PTR _nSize$[ebp], esi
  00042	7e 55		 jle	 SHORT $LN3@Update
$LL4@Update:

; 87   : 		TChannelStatus channelStatus;
; 88   : 		if (!m_kStream.Recv(sizeof(channelStatus), &channelStatus)) {

  00044	8d 45 f0	 lea	 eax, DWORD PTR _channelStatus$14[ebp]
  00047	50		 push	 eax
  00048	6a 05		 push	 5
  0004a	8d 4f 10	 lea	 ecx, DWORD PTR [edi+16]
  0004d	e8 00 00 00 00	 call	 ?Recv@CNetworkStream@@QAE_NHPAX@Z ; CNetworkStream::Recv
  00052	84 c0		 test	 al, al
  00054	74 4a		 je	 SHORT $LN74@Update
; File C:\Program Files\Microsoft Visual Studio\2022\Community\VC\Tools\MSVC\14.44.35207\include\list

; 1105 :         return iterator(_Mypair._Myval2._Myhead->_Next, _STD addressof(_Mypair._Myval2));

  00056	8b 4f 08	 mov	 ecx, DWORD PTR [edi+8]

; 37   :     _List_unchecked_const_iterator(_Nodeptr _Pnode, const _Mylist* _Plist) noexcept : _Ptr(_Pnode) {

  00059	8b 01		 mov	 eax, DWORD PTR [ecx]
  0005b	3b c1		 cmp	 eax, ecx
; File C:\Anka2Project\Anka2Project\Source\Binary\source\UserInterface\ServerStateChecker.cpp

; 91   : 		for (std::list<TChannel>::const_iterator it = m_lstChannel.begin(); it != m_lstChannel.end(); ++it) {

  0005d	74 34		 je	 SHORT $LN2@Update
  0005f	8b 55 f0	 mov	 edx, DWORD PTR _channelStatus$14[ebp]
$LL7@Update:

; 92   : 			if (channelStatus.nPort == it->uPort)

  00062	3b 50 10	 cmp	 edx, DWORD PTR [eax+16]
  00065	74 08		 je	 SHORT $LN58@Update
; File C:\Program Files\Microsoft Visual Studio\2022\Community\VC\Tools\MSVC\14.44.35207\include\list

; 164  :         this->_Ptr = this->_Ptr->_Next;

  00067	8b 00		 mov	 eax, DWORD PTR [eax]

; 197  :         return this->_Ptr == _Right._Ptr;

  00069	3b c1		 cmp	 eax, ecx
; File C:\Anka2Project\Anka2Project\Source\Binary\source\UserInterface\ServerStateChecker.cpp

; 91   : 		for (std::list<TChannel>::const_iterator it = m_lstChannel.begin(); it != m_lstChannel.end(); ++it) {

  0006b	75 f5		 jne	 SHORT $LL7@Update

; 87   : 		TChannelStatus channelStatus;
; 88   : 		if (!m_kStream.Recv(sizeof(channelStatus), &channelStatus)) {

  0006d	eb 24		 jmp	 SHORT $LN2@Update
$LN58@Update:

; 93   : 			{
; 94   : 				PyCallClassMemberFunc(m_poWnd, "NotifyChannelState", Py_BuildValue("(ii)", it->uServerIndex, channelStatus.bStatus));

  0006f	0f b6 4d f4	 movzx	 ecx, BYTE PTR _channelStatus$14[ebp+4]
  00073	51		 push	 ecx
  00074	ff 70 08	 push	 DWORD PTR [eax+8]
  00077	68 00 00 00 00	 push	 OFFSET ??_C@_04INACLLOK@?$CIii?$CJ@
  0007c	ff 15 00 00 00
	00		 call	 DWORD PTR __imp__Py_BuildValue
  00082	50		 push	 eax
  00083	68 00 00 00 00	 push	 OFFSET ??_C@_0BD@EEDMKMGJ@NotifyChannelState@
  00088	ff 77 04	 push	 DWORD PTR [edi+4]
  0008b	e8 00 00 00 00	 call	 ?PyCallClassMemberFunc@@YA_NPAU_object@@PBD0@Z ; PyCallClassMemberFunc
  00090	83 c4 18	 add	 esp, 24			; 00000018H
$LN2@Update:

; 84   : 		return;
; 85   : 	}
; 86   : 	for (int i = 0; i < nSize; i++) {

  00093	46		 inc	 esi
  00094	3b 75 f8	 cmp	 esi, DWORD PTR _nSize$[ebp]
  00097	7c ab		 jl	 SHORT $LL4@Update
$LN3@Update:

; 95   : 				break;
; 96   : 			}
; 97   : 		}
; 98   : 	}
; 99   : 	Initialize();

  00099	8b cf		 mov	 ecx, edi
  0009b	e8 00 00 00 00	 call	 ?Initialize@CServerStateChecker@@QAEXXZ ; CServerStateChecker::Initialize
$LN74@Update:
  000a0	5e		 pop	 esi
$LN1@Update:
  000a1	5f		 pop	 edi

; 100  : }

  000a2	5b		 pop	 ebx
  000a3	8b e5		 mov	 esp, ebp
  000a5	5d		 pop	 ebp
  000a6	c3		 ret	 0
?Update@CServerStateChecker@@QAEXXZ ENDP		; CServerStateChecker::Update
_TEXT	ENDS
END
