; Listing generated by Microsoft (R) Optimizing Compiler Version 19.44.35219.0 

	TITLE	c:\anka2project\anka2project\source\binary\vs_files\userinterface\release\serverstatecheckermodule.obj
	.686P
	.XMM
	include listing.inc
	.model	flat

INCLUDELIB OLDNAMES

PUBLIC	??_C@_07LEAAGLHO@Request@			; `string'
PUBLIC	??_C@_0BD@FAMPLJOF@ServerStateChecker@		; `string'
PUBLIC	??_C@_0L@PMHBIDJB@AddChannel@			; `string'
;	COMDAT ?s_methods@?1??initServerStateChecker@@YAXXZ@4PAUPyMethodDef@@A
_DATA	SEGMENT
?s_methods@?1??initServerStateChecker@@YAXXZ@4PAUPyMethodDef@@A DD FLAT:??_C@_06MIKANEJK@Create@ ; `initServerStateChecker'::`2'::s_methods
	DD	FLAT:?ServerStateCheckerCreate@@YAPAU_object@@PAU1@0@Z
	DD	01H
	ORG $+4
	DD	FLAT:??_C@_06LMAGPFNF@Update@
	DD	FLAT:?ServerStateCheckerUpdate@@YAPAU_object@@PAU1@0@Z
	DD	01H
	ORG $+4
	DD	FLAT:??_C@_07LEAAGLHO@Request@
	DD	FLAT:?ServerStateCheckerRequest@@YAPAU_object@@PAU1@0@Z
	DD	01H
	ORG $+4
	DD	FLAT:??_C@_0L@PMHBIDJB@AddChannel@
	DD	FLAT:?ServerStateCheckerAddChannel@@YAPAU_object@@PAU1@0@Z
	DD	01H
	ORG $+4
	DD	FLAT:??_C@_0L@KIAPHAEH@Initialize@
	DD	FLAT:?ServerStateCheckerInitialize@@YAPAU_object@@PAU1@0@Z
	DD	01H
	ORG $+4
	DD	00H
	DD	00H
	ORG $+8
_DATA	ENDS
;	COMDAT ??_C@_0L@PMHBIDJB@AddChannel@
CONST	SEGMENT
??_C@_0L@PMHBIDJB@AddChannel@ DB 'AddChannel', 00H	; `string'
CONST	ENDS
;	COMDAT ??_C@_0BD@FAMPLJOF@ServerStateChecker@
CONST	SEGMENT
??_C@_0BD@FAMPLJOF@ServerStateChecker@ DB 'ServerStateChecker', 00H ; `string'
CONST	ENDS
;	COMDAT ??_C@_07LEAAGLHO@Request@
CONST	SEGMENT
??_C@_07LEAAGLHO@Request@ DB 'Request', 00H		; `string'
PUBLIC	?Instance@?$CSingleton@VCServerStateChecker@@@@SAAAVCServerStateChecker@@XZ ; CSingleton<CServerStateChecker>::Instance
PUBLIC	?initServerStateChecker@@YAXXZ			; initServerStateChecker
PUBLIC	?ServerStateCheckerInitialize@@YAPAU_object@@PAU1@0@Z ; ServerStateCheckerInitialize
PUBLIC	?ServerStateCheckerAddChannel@@YAPAU_object@@PAU1@0@Z ; ServerStateCheckerAddChannel
PUBLIC	?ServerStateCheckerRequest@@YAPAU_object@@PAU1@0@Z ; ServerStateCheckerRequest
PUBLIC	?ServerStateCheckerUpdate@@YAPAU_object@@PAU1@0@Z ; ServerStateCheckerUpdate
PUBLIC	?ServerStateCheckerCreate@@YAPAU_object@@PAU1@0@Z ; ServerStateCheckerCreate
END
