; Listing generated by Microsoft (R) Optimizing Compiler Version 19.44.35219.0 

	TITLE	c:\anka2project\anka2project\source\binary\vs_files\userinterface\release\stdafx.obj
	.686P
	.XMM
	include listing.inc
	.model	flat

INCLUDELIB OLDNAMES

PUBLIC	___@@_PchSym_@00@UzmpzCkilqvxgUzmpzCkilqvxgUhlfixvUyrmzibUehPurovhUfhvirmgviuzxvUivovzhvUhgwzucOlyq@4B2008FD98C1DD4
PUBLIC	_IID_IAMFilterGraphCallback
PUBLIC	_CLSID_VideoEffects1Category
PUBLIC	__Avx2WmemEnabledWeakValue
PUBLIC	_CLSID_AudioEffects2Category
PUBLIC	_CLSID_VideoEffects2Category
PUBLIC	_CLSID_AudioEffects1Category
PUBLIC	?stored_vtable@?1???$assign_to@U?$token_finderF@U?$is_any_ofF@D@detail@algorithm@boost@@@detail@algorithm@boost@@@?$function2@V?$iterator_range@PBD@boost@@PBDPBD@boost@@AAEXU?$token_finderF@U?$is_any_ofF@D@detail@algorithm@boost@@@detail@algorithm@2@@Z@4U?$basic_vtable2@V?$iterator_range@PBD@boost@@PBDPBD@function@42@B ; `boost::function2<boost::iterator_range<char const *>,char const *,char const *>::assign_to<boost::algorithm::detail::token_finderF<boost::algorithm::detail::is_any_ofF<char> > >'::`2'::stored_vtable
;	COMDAT ___@@_PchSym_@00@UzmpzCkilqvxgUzmpzCkilqvxgUhlfixvUyrmzibUehPurovhUfhvirmgviuzxvUivovzhvUhgwzucOlyq@4B2008FD98C1DD4
_BSS	SEGMENT
___@@_PchSym_@00@UzmpzCkilqvxgUzmpzCkilqvxgUhlfixvUyrmzibUehPurovhUfhvirmgviuzxvUivovzhvUhgwzucOlyq@4B2008FD98C1DD4 DD 01H DUP (?)
_BSS	ENDS
;	COMDAT __Avx2WmemEnabledWeakValue
_BSS	SEGMENT
__Avx2WmemEnabledWeakValue DD 01H DUP (?)
_BSS	ENDS
;	COMDAT ?stored_vtable@?1???$assign_to@U?$token_finderF@U?$is_any_ofF@D@detail@algorithm@boost@@@detail@algorithm@boost@@@?$function2@V?$iterator_range@PBD@boost@@PBDPBD@boost@@AAEXU?$token_finderF@U?$is_any_ofF@D@detail@algorithm@boost@@@detail@algorithm@2@@Z@4U?$basic_vtable2@V?$iterator_range@PBD@boost@@PBDPBD@function@42@B
CONST	SEGMENT
?stored_vtable@?1???$assign_to@U?$token_finderF@U?$is_any_ofF@D@detail@algorithm@boost@@@detail@algorithm@boost@@@?$function2@V?$iterator_range@PBD@boost@@PBDPBD@boost@@AAEXU?$token_finderF@U?$is_any_ofF@D@detail@algorithm@boost@@@detail@algorithm@2@@Z@4U?$basic_vtable2@V?$iterator_range@PBD@boost@@PBDPBD@function@42@B DD FLAT:?manage@?$functor_manager@U?$token_finderF@U?$is_any_ofF@D@detail@algorithm@boost@@@detail@algorithm@boost@@@function@detail@boost@@SAXABTfunction_buffer@234@AAT5234@W4functor_manager_operation_type@234@@Z ; `boost::function2<boost::iterator_range<char const *>,char const *,char const *>::assign_to<boost::algorithm::detail::token_finderF<boost::algorithm::detail::is_any_ofF<char> > >'::`2'::stored_vtable
	DD	FLAT:?invoke@?$function_obj_invoker2@U?$token_finderF@U?$is_any_ofF@D@detail@algorithm@boost@@@detail@algorithm@boost@@V?$iterator_range@PBD@4@PBDPBD@function@detail@boost@@SA?AV?$iterator_range@PBD@4@AATfunction_buffer@234@PBD1@Z
CONST	ENDS
;	COMDAT _CLSID_AudioEffects1Category
CONST	SEGMENT
_CLSID_AudioEffects1Category DD 0cc7bfb44H
	DW	0f175H
	DW	011d1H
	DB	0a3H
	DB	092H
	DB	00H
	DB	0e0H
	DB	029H
	DB	01fH
	DB	039H
	DB	059H
CONST	ENDS
;	COMDAT _CLSID_VideoEffects2Category
CONST	SEGMENT
_CLSID_VideoEffects2Category DD 0cc7bfb43H
	DW	0f175H
	DW	011d1H
	DB	0a3H
	DB	092H
	DB	00H
	DB	0e0H
	DB	029H
	DB	01fH
	DB	039H
	DB	059H
CONST	ENDS
;	COMDAT _CLSID_AudioEffects2Category
CONST	SEGMENT
_CLSID_AudioEffects2Category DD 0cc7bfb45H
	DW	0f175H
	DW	011d1H
	DB	0a3H
	DB	092H
	DB	00H
	DB	0e0H
	DB	029H
	DB	01fH
	DB	039H
	DB	059H
CONST	ENDS
;	COMDAT _CLSID_VideoEffects1Category
CONST	SEGMENT
_CLSID_VideoEffects1Category DD 0cc7bfb42H
	DW	0f175H
	DW	011d1H
	DB	0a3H
	DB	092H
	DB	00H
	DB	0e0H
	DB	029H
	DB	01fH
	DB	039H
	DB	059H
CONST	ENDS
;	COMDAT _IID_IAMFilterGraphCallback
CONST	SEGMENT
_IID_IAMFilterGraphCallback DD 056a868fdH
	DW	0ad4H
	DW	011ceH
	DB	0b0H
	DB	0a3H
	DB	00H
	DB	020H
	DB	0afH
	DB	0bH
	DB	0a7H
	DB	070H
PUBLIC	??$equal@PBDPBDU?$equal_to@X@std@@@std@@YA_NQBD00U?$equal_to@X@0@@Z ; std::equal<char const *,char const *,std::equal_to<void> >
PUBLIC	??$_Get_unwrapped_n@ABQBDH@std@@YA?A_TABQBDH@Z	; std::_Get_unwrapped_n<char const * const &,int>
PUBLIC	??$equal@PBDPBD@std@@YA_NQBD00@Z		; std::equal<char const *,char const *>
PUBLIC	??$equal_impl@PBDPBD@range_detail@boost@@YA_NPBD000Urandom_access_iterator_tag@std@@1@Z ; boost::range_detail::equal_impl<char const *,char const *>
PUBLIC	??$equal@PBDPBD@range_detail@boost@@YA_NPBD000@Z ; boost::range_detail::equal<char const *,char const *>
PUBLIC	?is_null@?$find_iterator_base@PBD@detail@algorithm@boost@@IBE_NXZ ; boost::algorithm::detail::find_iterator_base<char const *>::is_null
PUBLIC	??$equal@V?$iterator_range@PBD@boost@@V12@@range@boost@@YA_NABV?$iterator_range@PBD@1@0@Z ; boost::range::equal<boost::iterator_range<char const *>,boost::iterator_range<char const *> >
PUBLIC	?eof@?$split_iterator@PBD@algorithm@boost@@QBE_NXZ ; boost::algorithm::split_iterator<char const *>::eof
PUBLIC	??$?8PBDPBD@boost@@YA_NABV?$iterator_range@PBD@0@0@Z ; boost::operator==<char const *,char const *>
PUBLIC	?equal@?$split_iterator@PBD@algorithm@boost@@ABE_NABV123@@Z ; boost::algorithm::split_iterator<char const *>::equal
PUBLIC	?dereference@?$split_iterator@PBD@algorithm@boost@@ABEABV?$iterator_range@PBD@3@XZ ; boost::algorithm::split_iterator<char const *>::dereference
PUBLIC	?derived@?$iterator_facade_base@V?$split_iterator@PBD@algorithm@boost@@$$CBV?$iterator_range@PBD@3@Uforward_traversal_tag@iterators@3@ABV43@H$0A@$0A@@detail@iterators@boost@@IAEAAV?$split_iterator@PBD@algorithm@4@XZ ; boost::iterators::detail::iterator_facade_base<boost::algorithm::split_iterator<char const *>,boost::iterator_range<char const *> const ,boost::iterators::forward_traversal_tag,boost::iterator_range<char const *> const &,int,0,0>::derived
PUBLIC	??$increment@V?$split_iterator@PBD@algorithm@boost@@@iterator_core_access@iterators@boost@@CAXAAV?$split_iterator@PBD@algorithm@2@@Z ; boost::iterators::iterator_core_access::increment<boost::algorithm::split_iterator<char const *> >
PUBLIC	??$equal@V?$split_iterator@PBD@algorithm@boost@@V123@@iterator_core_access@iterators@boost@@CA_NABV?$split_iterator@PBD@algorithm@2@0U?$bool_@$00@mpl@2@@Z ; boost::iterators::iterator_core_access::equal<boost::algorithm::split_iterator<char const *>,boost::algorithm::split_iterator<char const *> >
PUBLIC	??$assign_functor@U?$token_finderF@U?$is_any_ofF@D@detail@algorithm@boost@@@detail@algorithm@boost@@@?$basic_vtable2@V?$iterator_range@PBD@boost@@PBDPBD@function@detail@boost@@ABEXU?$token_finderF@U?$is_any_ofF@D@detail@algorithm@boost@@@2algorithm@3@AATfunction_buffer@123@U?$bool_@$00@mpl@3@@Z ; boost::detail::function::basic_vtable2<boost::iterator_range<char const *>,char const *,char const *>::assign_functor<boost::algorithm::detail::token_finderF<boost::algorithm::detail::is_any_ofF<char> > >
PUBLIC	??E?$iterator_facade_base@V?$split_iterator@PBD@algorithm@boost@@$$CBV?$iterator_range@PBD@3@Uforward_traversal_tag@iterators@3@ABV43@H$0A@$0A@@detail@iterators@boost@@QAEAAV?$split_iterator@PBD@algorithm@3@XZ ; boost::iterators::detail::iterator_facade_base<boost::algorithm::split_iterator<char const *>,boost::iterator_range<char const *> const ,boost::iterators::forward_traversal_tag,boost::iterator_range<char const *> const &,int,0,0>::operator++
PUBLIC	?derived@?$iterator_facade_base@V?$split_iterator@PBD@algorithm@boost@@$$CBV?$iterator_range@PBD@3@Uforward_traversal_tag@iterators@3@ABV43@H$0A@$0A@@detail@iterators@boost@@IBEABV?$split_iterator@PBD@algorithm@4@XZ ; boost::iterators::detail::iterator_facade_base<boost::algorithm::split_iterator<char const *>,boost::iterator_range<char const *> const ,boost::iterators::forward_traversal_tag,boost::iterator_range<char const *> const &,int,0,0>::derived
PUBLIC	??$copy_range@V?$basic_string@DU?$char_traits@D@std@@V?$allocator@D@2@@std@@V?$iterator_range@PBD@boost@@@boost@@YA?AV?$basic_string@DU?$char_traits@D@std@@V?$allocator@D@2@@std@@ABV?$iterator_range@PBD@0@@Z ; boost::copy_range<std::basic_string<char,std::char_traits<char>,std::allocator<char> >,boost::iterator_range<char const *> >
PUBLIC	??$dereference@V?$split_iterator@PBD@algorithm@boost@@@iterator_core_access@iterators@boost@@CAABV?$iterator_range@PBD@2@ABV?$split_iterator@PBD@algorithm@2@@Z ; boost::iterators::iterator_core_access::dereference<boost::algorithm::split_iterator<char const *> >
PUBLIC	??$?8V?$split_iterator@PBD@algorithm@boost@@$$CBV?$iterator_range@PBD@2@Uforward_traversal_tag@iterators@2@ABV32@HV012@$$CBV32@U452@ABV32@H@iterators@boost@@YA_NABV?$iterator_facade@V?$split_iterator@PBD@algorithm@boost@@$$CBV?$iterator_range@PBD@3@Uforward_traversal_tag@iterators@3@ABV43@H@01@0@Z ; boost::iterators::operator==<boost::algorithm::split_iterator<char const *>,boost::iterator_range<char const *> const ,boost::iterators::forward_traversal_tag,boost::iterator_range<char const *> const &,int,boost::algorithm::split_iterator<char const *>,boost::iterator_range<char const *> const ,boost::iterators::forward_traversal_tag,boost::iterator_range<char const *> const &,int>
PUBLIC	??$assign_to@U?$token_finderF@U?$is_any_ofF@D@detail@algorithm@boost@@@detail@algorithm@boost@@@?$basic_vtable2@V?$iterator_range@PBD@boost@@PBDPBD@function@detail@boost@@ABE_NU?$token_finderF@U?$is_any_ofF@D@detail@algorithm@boost@@@2algorithm@3@AATfunction_buffer@123@Ufunction_obj_tag@123@@Z ; boost::detail::function::basic_vtable2<boost::iterator_range<char const *>,char const *,char const *>::assign_to<boost::algorithm::detail::token_finderF<boost::algorithm::detail::is_any_ofF<char> > >
PUBLIC	??0?$iterator_range_base@PBDUincrementable_traversal_tag@iterators@boost@@@iterator_range_detail@boost@@IAE@XZ ; boost::iterator_range_detail::iterator_range_base<char const *,boost::iterators::incrementable_traversal_tag>::iterator_range_base<char const *,boost::iterators::incrementable_traversal_tag>
PUBLIC	??R?$copy_iterator_rangeF@V?$basic_string@DU?$char_traits@D@std@@V?$allocator@D@2@@std@@PBD@detail@algorithm@boost@@QBE?AV?$basic_string@DU?$char_traits@D@std@@V?$allocator@D@2@@std@@ABV?$iterator_range@PBD@3@@Z ; boost::algorithm::detail::copy_iterator_rangeF<std::basic_string<char,std::char_traits<char>,std::allocator<char> >,char const *>::operator()
PUBLIC	??D?$iterator_facade_base@V?$split_iterator@PBD@algorithm@boost@@$$CBV?$iterator_range@PBD@3@Uforward_traversal_tag@iterators@3@ABV43@H$0A@$0A@@detail@iterators@boost@@QBEABV?$iterator_range@PBD@3@XZ ; boost::iterators::detail::iterator_facade_base<boost::algorithm::split_iterator<char const *>,boost::iterator_range<char const *> const ,boost::iterators::forward_traversal_tag,boost::iterator_range<char const *> const &,int,0,0>::operator*
PUBLIC	?base@?$iterator_adaptor@V?$transform_iterator@U?$copy_iterator_rangeF@V?$basic_string@DU?$char_traits@D@std@@V?$allocator@D@2@@std@@PBD@detail@algorithm@boost@@V?$split_iterator@PBD@34@Uuse_default@iterators@4@U674@@iterators@boost@@V?$split_iterator@PBD@algorithm@3@V?$basic_string@DU?$char_traits@D@std@@V?$allocator@D@2@@std@@Uuse_default@23@V67@U823@@iterators@boost@@QBEABV?$split_iterator@PBD@algorithm@3@XZ ; boost::iterators::iterator_adaptor<boost::iterators::transform_iterator<boost::algorithm::detail::copy_iterator_rangeF<std::basic_string<char,std::char_traits<char>,std::allocator<char> >,char const *>,boost::algorithm::split_iterator<char const *>,boost::iterators::use_default,boost::iterators::use_default>,boost::algorithm::split_iterator<char const *>,std::basic_string<char,std::char_traits<char>,std::allocator<char> >,boost::iterators::use_default,std::basic_string<char,std::char_traits<char>,std::allocator<char> >,boost::iterators::use_default>::base
PUBLIC	?increment@?$iterator_adaptor@V?$transform_iterator@U?$copy_iterator_rangeF@V?$basic_string@DU?$char_traits@D@std@@V?$allocator@D@2@@std@@PBD@detail@algorithm@boost@@V?$split_iterator@PBD@34@Uuse_default@iterators@4@U674@@iterators@boost@@V?$split_iterator@PBD@algorithm@3@V?$basic_string@DU?$char_traits@D@std@@V?$allocator@D@2@@std@@Uuse_default@23@V67@U823@@iterators@boost@@AAEXXZ ; boost::iterators::iterator_adaptor<boost::iterators::transform_iterator<boost::algorithm::detail::copy_iterator_rangeF<std::basic_string<char,std::char_traits<char>,std::allocator<char> >,char const *>,boost::algorithm::split_iterator<char const *>,boost::iterators::use_default,boost::iterators::use_default>,boost::algorithm::split_iterator<char const *>,std::basic_string<char,std::char_traits<char>,std::allocator<char> >,boost::iterators::use_default,std::basic_string<char,std::char_traits<char>,std::allocator<char> >,boost::iterators::use_default>::increment
PUBLIC	?invoke@?$function_obj_invoker2@U?$token_finderF@U?$is_any_ofF@D@detail@algorithm@boost@@@detail@algorithm@boost@@V?$iterator_range@PBD@4@PBDPBD@function@detail@boost@@SA?AV?$iterator_range@PBD@4@AATfunction_buffer@234@PBD1@Z ; boost::detail::function::function_obj_invoker2<boost::algorithm::detail::token_finderF<boost::algorithm::detail::is_any_ofF<char> >,boost::iterator_range<char const *>,char const *,char const *>::invoke
PUBLIC	??$forward@PBD@boost@@YA$$QAPBDAAPBD@Z		; boost::forward<char const *>
PUBLIC	??$equal@V?$transform_iterator@U?$copy_iterator_rangeF@V?$basic_string@DU?$char_traits@D@std@@V?$allocator@D@2@@std@@PBD@detail@algorithm@boost@@V?$split_iterator@PBD@34@Uuse_default@iterators@4@U674@@iterators@boost@@V?$split_iterator@PBD@algorithm@3@V?$basic_string@DU?$char_traits@D@std@@V?$allocator@D@2@@std@@Uuse_default@23@V67@U823@@?$iterator_adaptor@V?$transform_iterator@U?$copy_iterator_rangeF@V?$basic_string@DU?$char_traits@D@std@@V?$allocator@D@2@@std@@PBD@detail@algorithm@boost@@V?$split_iterator@PBD@34@Uuse_default@iterators@4@U674@@iterators@boost@@V?$split_iterator@PBD@algorithm@3@V?$basic_string@DU?$char_traits@D@std@@V?$allocator@D@2@@std@@Uuse_default@23@V67@U823@@iterators@boost@@ABE_NABV012@@Z ; boost::iterators::iterator_adaptor<boost::iterators::transform_iterator<boost::algorithm::detail::copy_iterator_rangeF<std::basic_string<char,std::char_traits<char>,std::allocator<char> >,char const *>,boost::algorithm::split_iterator<char const *>,boost::iterators::use_default,boost::iterators::use_default>,boost::algorithm::split_iterator<char const *>,std::basic_string<char,std::char_traits<char>,std::allocator<char> >,boost::iterators::use_default,std::basic_string<char,std::char_traits<char>,std::allocator<char> >,boost::iterators::use_default>::equal<boost::iterators::transform_iterator<boost::algorithm::detail::copy_iterator_rangeF<std::basic_string<char,std::char_traits<char>,std::allocator<char> >,char const *>,boost::algorithm::split_iterator<char const *>,boost::iterators::use_default,boost::iterators::use_default>,boost::algorithm::split_iterator<char const *>,std::basic_string<char,std::char_traits<char>,std::allocator<char> >,boost::iterators::use_default,std::basic_string<char,std::char_traits<char>,std::allocator<char> >,boost::iterators::use_default>
PUBLIC	??$assign_to@U?$token_finderF@U?$is_any_ofF@D@detail@algorithm@boost@@@detail@algorithm@boost@@@?$basic_vtable2@V?$iterator_range@PBD@boost@@PBDPBD@function@detail@boost@@QBE_NU?$token_finderF@U?$is_any_ofF@D@detail@algorithm@boost@@@2algorithm@3@AATfunction_buffer@123@@Z ; boost::detail::function::basic_vtable2<boost::iterator_range<char const *>,char const *,char const *>::assign_to<boost::algorithm::detail::token_finderF<boost::algorithm::detail::is_any_ofF<char> > >
PUBLIC	??0?$iterator_range_base@PBDUbidirectional_traversal_tag@iterators@boost@@@iterator_range_detail@boost@@IAE@XZ ; boost::iterator_range_detail::iterator_range_base<char const *,boost::iterators::bidirectional_traversal_tag>::iterator_range_base<char const *,boost::iterators::bidirectional_traversal_tag>
PUBLIC	?dereference@?$transform_iterator@U?$copy_iterator_rangeF@V?$basic_string@DU?$char_traits@D@std@@V?$allocator@D@2@@std@@PBD@detail@algorithm@boost@@V?$split_iterator@PBD@34@Uuse_default@iterators@4@U674@@iterators@boost@@ABE?AV?$basic_string@DU?$char_traits@D@std@@V?$allocator@D@2@@std@@XZ ; boost::iterators::transform_iterator<boost::algorithm::detail::copy_iterator_rangeF<std::basic_string<char,std::char_traits<char>,std::allocator<char> >,char const *>,boost::algorithm::split_iterator<char const *>,boost::iterators::use_default,boost::iterators::use_default>::dereference
PUBLIC	?get_vtable@?$function2@V?$iterator_range@PBD@boost@@PBDPBD@boost@@ABEPAU?$basic_vtable2@V?$iterator_range@PBD@boost@@PBDPBD@function@detail@2@XZ ; boost::function2<boost::iterator_range<char const *>,char const *,char const *>::get_vtable
PUBLIC	??R?$function2@V?$iterator_range@PBD@boost@@PBDPBD@boost@@QBE?AV?$iterator_range@PBD@1@PBD0@Z ; boost::function2<boost::iterator_range<char const *>,char const *,char const *>::operator()
PUBLIC	?assign_to_own@?$function2@V?$iterator_range@PBD@boost@@PBDPBD@boost@@AAEXABV12@@Z ; boost::function2<boost::iterator_range<char const *>,char const *,char const *>::assign_to_own
PUBLIC	?clear@?$basic_vtable2@V?$iterator_range@PBD@boost@@PBDPBD@function@detail@boost@@QBEXAATfunction_buffer@234@@Z ; boost::detail::function::basic_vtable2<boost::iterator_range<char const *>,char const *,char const *>::clear
PUBLIC	?derived@?$iterator_facade_base@V?$transform_iterator@U?$copy_iterator_rangeF@V?$basic_string@DU?$char_traits@D@std@@V?$allocator@D@2@@std@@PBD@detail@algorithm@boost@@V?$split_iterator@PBD@34@Uuse_default@iterators@4@U674@@iterators@boost@@V?$basic_string@DU?$char_traits@D@std@@V?$allocator@D@2@@std@@Uforward_traversal_tag@23@V45@H$0A@$0A@@detail@iterators@boost@@IAEAAV?$transform_iterator@U?$copy_iterator_rangeF@V?$basic_string@DU?$char_traits@D@std@@V?$allocator@D@2@@std@@PBD@detail@algorithm@boost@@V?$split_iterator@PBD@34@Uuse_default@iterators@4@U674@@34@XZ ; boost::iterators::detail::iterator_facade_base<boost::iterators::transform_iterator<boost::algorithm::detail::copy_iterator_rangeF<std::basic_string<char,std::char_traits<char>,std::allocator<char> >,char const *>,boost::algorithm::split_iterator<char const *>,boost::iterators::use_default,boost::iterators::use_default>,std::basic_string<char,std::char_traits<char>,std::allocator<char> >,boost::iterators::forward_traversal_tag,std::basic_string<char,std::char_traits<char>,std::allocator<char> >,int,0,0>::derived
PUBLIC	??$increment@V?$transform_iterator@U?$copy_iterator_rangeF@V?$basic_string@DU?$char_traits@D@std@@V?$allocator@D@2@@std@@PBD@detail@algorithm@boost@@V?$split_iterator@PBD@34@Uuse_default@iterators@4@U674@@iterators@boost@@@iterator_core_access@iterators@boost@@CAXAAV?$transform_iterator@U?$copy_iterator_rangeF@V?$basic_string@DU?$char_traits@D@std@@V?$allocator@D@2@@std@@PBD@detail@algorithm@boost@@V?$split_iterator@PBD@34@Uuse_default@iterators@4@U674@@12@@Z ; boost::iterators::iterator_core_access::increment<boost::iterators::transform_iterator<boost::algorithm::detail::copy_iterator_rangeF<std::basic_string<char,std::char_traits<char>,std::allocator<char> >,char const *>,boost::algorithm::split_iterator<char const *>,boost::iterators::use_default,boost::iterators::use_default> >
PUBLIC	??$equal@V?$transform_iterator@U?$copy_iterator_rangeF@V?$basic_string@DU?$char_traits@D@std@@V?$allocator@D@2@@std@@PBD@detail@algorithm@boost@@V?$split_iterator@PBD@34@Uuse_default@iterators@4@U674@@iterators@boost@@V123@@iterator_core_access@iterators@boost@@CA_NABV?$transform_iterator@U?$copy_iterator_rangeF@V?$basic_string@DU?$char_traits@D@std@@V?$allocator@D@2@@std@@PBD@detail@algorithm@boost@@V?$split_iterator@PBD@34@Uuse_default@iterators@4@U674@@12@0U?$bool_@$00@mpl@2@@Z ; boost::iterators::iterator_core_access::equal<boost::iterators::transform_iterator<boost::algorithm::detail::copy_iterator_rangeF<std::basic_string<char,std::char_traits<char>,std::allocator<char> >,char const *>,boost::algorithm::split_iterator<char const *>,boost::iterators::use_default,boost::iterators::use_default>,boost::iterators::transform_iterator<boost::algorithm::detail::copy_iterator_rangeF<std::basic_string<char,std::char_traits<char>,std::allocator<char> >,char const *>,boost::algorithm::split_iterator<char const *>,boost::iterators::use_default,boost::iterators::use_default> >
PUBLIC	??$assign_to@U?$token_finderF@U?$is_any_ofF@D@detail@algorithm@boost@@@detail@algorithm@boost@@@?$function2@V?$iterator_range@PBD@boost@@PBDPBD@boost@@AAEXU?$token_finderF@U?$is_any_ofF@D@detail@algorithm@boost@@@detail@algorithm@1@@Z ; boost::function2<boost::iterator_range<char const *>,char const *,char const *>::assign_to<boost::algorithm::detail::token_finderF<boost::algorithm::detail::is_any_ofF<char> > >
PUBLIC	??0?$iterator_range_base@PBDUrandom_access_traversal_tag@iterators@boost@@@iterator_range_detail@boost@@IAE@XZ ; boost::iterator_range_detail::iterator_range_base<char const *,boost::iterators::random_access_traversal_tag>::iterator_range_base<char const *,boost::iterators::random_access_traversal_tag>
PUBLIC	?do_find@?$find_iterator_base@PBD@detail@algorithm@boost@@IBE?AV?$iterator_range@PBD@4@PBD0@Z ; boost::algorithm::detail::find_iterator_base<char const *>::do_find
PUBLIC	??0?$function2@V?$iterator_range@PBD@boost@@PBDPBD@boost@@QAE@XZ ; boost::function2<boost::iterator_range<char const *>,char const *,char const *>::function2<boost::iterator_range<char const *>,char const *,char const *>
PUBLIC	??0?$function2@V?$iterator_range@PBD@boost@@PBDPBD@boost@@QAE@ABV01@@Z ; boost::function2<boost::iterator_range<char const *>,char const *,char const *>::function2<boost::iterator_range<char const *>,char const *,char const *>
PUBLIC	?clear@?$function2@V?$iterator_range@PBD@boost@@PBDPBD@boost@@QAEXXZ ; boost::function2<boost::iterator_range<char const *>,char const *,char const *>::clear
PUBLIC	??0?$iterator_adaptor@V?$transform_iterator@U?$copy_iterator_rangeF@V?$basic_string@DU?$char_traits@D@std@@V?$allocator@D@2@@std@@PBD@detail@algorithm@boost@@V?$split_iterator@PBD@34@Uuse_default@iterators@4@U674@@iterators@boost@@V?$split_iterator@PBD@algorithm@3@V?$basic_string@DU?$char_traits@D@std@@V?$allocator@D@2@@std@@Uuse_default@23@V67@U823@@iterators@boost@@QAE@ABV?$split_iterator@PBD@algorithm@2@@Z ; boost::iterators::iterator_adaptor<boost::iterators::transform_iterator<boost::algorithm::detail::copy_iterator_rangeF<std::basic_string<char,std::char_traits<char>,std::allocator<char> >,char const *>,boost::algorithm::split_iterator<char const *>,boost::iterators::use_default,boost::iterators::use_default>,boost::algorithm::split_iterator<char const *>,std::basic_string<char,std::char_traits<char>,std::allocator<char> >,boost::iterators::use_default,std::basic_string<char,std::char_traits<char>,std::allocator<char> >,boost::iterators::use_default>::iterator_adaptor<boost::iterators::transform_iterator<boost::algorithm::detail::copy_iterator_rangeF<std::basic_string<char,std::char_traits<char>,std::allocator<char> >,char const *>,boost::algorithm::split_iterator<char const *>,boost::iterators::use_default,boost::iterators::use_default>,boost::algorithm::split_iterator<char const *>,std::basic_string<char,std::char_traits<char>,std::allocator<char> >,boost::iterators::use_default,std::basic_string<char,std::char_traits<char>,std::allocator<char> >,boost::iterators::use_default>
PUBLIC	??E?$iterator_facade_base@V?$transform_iterator@U?$copy_iterator_rangeF@V?$basic_string@DU?$char_traits@D@std@@V?$allocator@D@2@@std@@PBD@detail@algorithm@boost@@V?$split_iterator@PBD@34@Uuse_default@iterators@4@U674@@iterators@boost@@V?$basic_string@DU?$char_traits@D@std@@V?$allocator@D@2@@std@@Uforward_traversal_tag@23@V45@H$0A@$0A@@detail@iterators@boost@@QAEAAV?$transform_iterator@U?$copy_iterator_rangeF@V?$basic_string@DU?$char_traits@D@std@@V?$allocator@D@2@@std@@PBD@detail@algorithm@boost@@V?$split_iterator@PBD@34@Uuse_default@iterators@4@U674@@23@XZ ; boost::iterators::detail::iterator_facade_base<boost::iterators::transform_iterator<boost::algorithm::detail::copy_iterator_rangeF<std::basic_string<char,std::char_traits<char>,std::allocator<char> >,char const *>,boost::algorithm::split_iterator<char const *>,boost::iterators::use_default,boost::iterators::use_default>,std::basic_string<char,std::char_traits<char>,std::allocator<char> >,boost::iterators::forward_traversal_tag,std::basic_string<char,std::char_traits<char>,std::allocator<char> >,int,0,0>::operator++
PUBLIC	?derived@?$iterator_facade_base@V?$transform_iterator@U?$copy_iterator_rangeF@V?$basic_string@DU?$char_traits@D@std@@V?$allocator@D@2@@std@@PBD@detail@algorithm@boost@@V?$split_iterator@PBD@34@Uuse_default@iterators@4@U674@@iterators@boost@@V?$basic_string@DU?$char_traits@D@std@@V?$allocator@D@2@@std@@Uforward_traversal_tag@23@V45@H$0A@$0A@@detail@iterators@boost@@IBEABV?$transform_iterator@U?$copy_iterator_rangeF@V?$basic_string@DU?$char_traits@D@std@@V?$allocator@D@2@@std@@PBD@detail@algorithm@boost@@V?$split_iterator@PBD@34@Uuse_default@iterators@4@U674@@34@XZ ; boost::iterators::detail::iterator_facade_base<boost::iterators::transform_iterator<boost::algorithm::detail::copy_iterator_rangeF<std::basic_string<char,std::char_traits<char>,std::allocator<char> >,char const *>,boost::algorithm::split_iterator<char const *>,boost::iterators::use_default,boost::iterators::use_default>,std::basic_string<char,std::char_traits<char>,std::allocator<char> >,boost::iterators::forward_traversal_tag,std::basic_string<char,std::char_traits<char>,std::allocator<char> >,int,0,0>::derived
PUBLIC	??$dereference@V?$transform_iterator@U?$copy_iterator_rangeF@V?$basic_string@DU?$char_traits@D@std@@V?$allocator@D@2@@std@@PBD@detail@algorithm@boost@@V?$split_iterator@PBD@34@Uuse_default@iterators@4@U674@@iterators@boost@@@iterator_core_access@iterators@boost@@CA?AV?$basic_string@DU?$char_traits@D@std@@V?$allocator@D@2@@std@@ABV?$transform_iterator@U?$copy_iterator_rangeF@V?$basic_string@DU?$char_traits@D@std@@V?$allocator@D@2@@std@@PBD@detail@algorithm@boost@@V?$split_iterator@PBD@34@Uuse_default@iterators@4@U674@@12@@Z ; boost::iterators::iterator_core_access::dereference<boost::iterators::transform_iterator<boost::algorithm::detail::copy_iterator_rangeF<std::basic_string<char,std::char_traits<char>,std::allocator<char> >,char const *>,boost::algorithm::split_iterator<char const *>,boost::iterators::use_default,boost::iterators::use_default> >
PUBLIC	??$find_if@PBDU?$is_any_ofF@D@detail@algorithm@boost@@@std@@YAPBDPBDQBDU?$is_any_ofF@D@detail@algorithm@boost@@@Z ; std::find_if<char const *,boost::algorithm::detail::is_any_ofF<char> >
PUBLIC	??$?9V?$transform_iterator@U?$copy_iterator_rangeF@V?$basic_string@DU?$char_traits@D@std@@V?$allocator@D@2@@std@@PBD@detail@algorithm@boost@@V?$split_iterator@PBD@34@Uuse_default@iterators@4@U674@@iterators@boost@@V?$basic_string@DU?$char_traits@D@std@@V?$allocator@D@2@@std@@Uforward_traversal_tag@12@V34@HV012@V34@U512@V34@H@iterators@boost@@YA_NABV?$iterator_facade@V?$transform_iterator@U?$copy_iterator_rangeF@V?$basic_string@DU?$char_traits@D@std@@V?$allocator@D@2@@std@@PBD@detail@algorithm@boost@@V?$split_iterator@PBD@34@Uuse_default@iterators@4@U674@@iterators@boost@@V?$basic_string@DU?$char_traits@D@std@@V?$allocator@D@2@@std@@Uforward_traversal_tag@23@V45@H@01@0@Z ; boost::iterators::operator!=<boost::iterators::transform_iterator<boost::algorithm::detail::copy_iterator_rangeF<std::basic_string<char,std::char_traits<char>,std::allocator<char> >,char const *>,boost::algorithm::split_iterator<char const *>,boost::iterators::use_default,boost::iterators::use_default>,std::basic_string<char,std::char_traits<char>,std::allocator<char> >,boost::iterators::forward_traversal_tag,std::basic_string<char,std::char_traits<char>,std::allocator<char> >,int,boost::iterators::transform_iterator<boost::algorithm::detail::copy_iterator_rangeF<std::basic_string<char,std::char_traits<char>,std::allocator<char> >,char const *>,boost::algorithm::split_iterator<char const *>,boost::iterators::use_default,boost::iterators::use_default>,std::basic_string<char,std::char_traits<char>,std::allocator<char> >,boost::iterators::forward_traversal_tag,std::basic_string<char,std::char_traits<char>,std::allocator<char> >,int>
PUBLIC	??$?0U?$token_finderF@U?$is_any_ofF@D@detail@algorithm@boost@@@detail@algorithm@boost@@@?$function2@V?$iterator_range@PBD@boost@@PBDPBD@boost@@QAE@U?$token_finderF@U?$is_any_ofF@D@detail@algorithm@boost@@@detail@algorithm@1@H@Z ; boost::function2<boost::iterator_range<char const *>,char const *,char const *>::function2<boost::iterator_range<char const *>,char const *,char const *><boost::algorithm::detail::token_finderF<boost::algorithm::detail::is_any_ofF<char> > >
PUBLIC	??0?$iterator_range@PBD@boost@@QAE@XZ		; boost::iterator_range<char const *>::iterator_range<char const *>
PUBLIC	?increment@?$split_iterator@PBD@algorithm@boost@@AAEXXZ ; boost::algorithm::split_iterator<char const *>::increment
PUBLIC	??0?$transform_iterator@U?$copy_iterator_rangeF@V?$basic_string@DU?$char_traits@D@std@@V?$allocator@D@2@@std@@PBD@detail@algorithm@boost@@V?$split_iterator@PBD@34@Uuse_default@iterators@4@U674@@iterators@boost@@QAE@ABV?$split_iterator@PBD@algorithm@2@U?$copy_iterator_rangeF@V?$basic_string@DU?$char_traits@D@std@@V?$allocator@D@2@@std@@PBD@detail@42@@Z ; boost::iterators::transform_iterator<boost::algorithm::detail::copy_iterator_rangeF<std::basic_string<char,std::char_traits<char>,std::allocator<char> >,char const *>,boost::algorithm::split_iterator<char const *>,boost::iterators::use_default,boost::iterators::use_default>::transform_iterator<boost::algorithm::detail::copy_iterator_rangeF<std::basic_string<char,std::char_traits<char>,std::allocator<char> >,char const *>,boost::algorithm::split_iterator<char const *>,boost::iterators::use_default,boost::iterators::use_default>
PUBLIC	??0?$find_iterator_base@PBD@detail@algorithm@boost@@IAE@XZ ; boost::algorithm::detail::find_iterator_base<char const *>::find_iterator_base<char const *>
PUBLIC	??0?$find_iterator_base@PBD@detail@algorithm@boost@@IAE@ABV0123@@Z ; boost::algorithm::detail::find_iterator_base<char const *>::find_iterator_base<char const *>
PUBLIC	??1?$function2@V?$iterator_range@PBD@boost@@PBDPBD@boost@@QAE@XZ ; boost::function2<boost::iterator_range<char const *>,char const *,char const *>::~function2<boost::iterator_range<char const *>,char const *,char const *>
PUBLIC	??D?$iterator_facade_base@V?$transform_iterator@U?$copy_iterator_rangeF@V?$basic_string@DU?$char_traits@D@std@@V?$allocator@D@2@@std@@PBD@detail@algorithm@boost@@V?$split_iterator@PBD@34@Uuse_default@iterators@4@U674@@iterators@boost@@V?$basic_string@DU?$char_traits@D@std@@V?$allocator@D@2@@std@@Uforward_traversal_tag@23@V45@H$0A@$0A@@detail@iterators@boost@@QBE?AV?$basic_string@DU?$char_traits@D@std@@V?$allocator@D@2@@std@@XZ ; boost::iterators::detail::iterator_facade_base<boost::iterators::transform_iterator<boost::algorithm::detail::copy_iterator_rangeF<std::basic_string<char,std::char_traits<char>,std::allocator<char> >,char const *>,boost::algorithm::split_iterator<char const *>,boost::iterators::use_default,boost::iterators::use_default>,std::basic_string<char,std::char_traits<char>,std::allocator<char> >,boost::iterators::forward_traversal_tag,std::basic_string<char,std::char_traits<char>,std::allocator<char> >,int,0,0>::operator*
PUBLIC	??$?RPBD@?$token_finderF@U?$is_any_ofF@D@detail@algorithm@boost@@@detail@algorithm@boost@@QBE?AV?$iterator_range@PBD@3@PBD0@Z ; boost::algorithm::detail::token_finderF<boost::algorithm::detail::is_any_ofF<char> >::operator()<char const *>
PUBLIC	??$_Append_uncounted_range@V?$transform_iterator@U?$copy_iterator_rangeF@V?$basic_string@DU?$char_traits@D@std@@V?$allocator@D@2@@std@@PBD@detail@algorithm@boost@@V?$split_iterator@PBD@34@Uuse_default@iterators@4@U674@@iterators@boost@@V123@@?$vector@V?$basic_string@DU?$char_traits@D@std@@V?$allocator@D@2@@std@@V?$allocator@V?$basic_string@DU?$char_traits@D@std@@V?$allocator@D@2@@std@@@2@@std@@AAEXV?$transform_iterator@U?$copy_iterator_rangeF@V?$basic_string@DU?$char_traits@D@std@@V?$allocator@D@2@@std@@PBD@detail@algorithm@boost@@V?$split_iterator@PBD@34@Uuse_default@iterators@4@U674@@iterators@boost@@V234@@Z ; std::vector<std::basic_string<char,std::char_traits<char>,std::allocator<char> >,std::allocator<std::basic_string<char,std::char_traits<char>,std::allocator<char> > > >::_Append_uncounted_range<boost::iterators::transform_iterator<boost::algorithm::detail::copy_iterator_rangeF<std::basic_string<char,std::char_traits<char>,std::allocator<char> >,char const *>,boost::algorithm::split_iterator<char const *>,boost::iterators::use_default,boost::iterators::use_default>,boost::iterators::transform_iterator<boost::algorithm::detail::copy_iterator_rangeF<std::basic_string<char,std::char_traits<char>,std::allocator<char> >,char const *>,boost::algorithm::split_iterator<char const *>,boost::iterators::use_default,boost::iterators::use_default> >
PUBLIC	??$move@AAV?$transform_iterator@U?$copy_iterator_rangeF@V?$basic_string@DU?$char_traits@D@std@@V?$allocator@D@2@@std@@PBD@detail@algorithm@boost@@V?$split_iterator@PBD@34@Uuse_default@iterators@4@U674@@iterators@boost@@@std@@YA$$QAV?$transform_iterator@U?$copy_iterator_rangeF@V?$basic_string@DU?$char_traits@D@std@@V?$allocator@D@2@@std@@PBD@detail@algorithm@boost@@V?$split_iterator@PBD@34@Uuse_default@iterators@4@U674@@iterators@boost@@AAV123@@Z ; std::move<boost::iterators::transform_iterator<boost::algorithm::detail::copy_iterator_rangeF<std::basic_string<char,std::char_traits<char>,std::allocator<char> >,char const *>,boost::algorithm::split_iterator<char const *>,boost::iterators::use_default,boost::iterators::use_default> &>
PUBLIC	??$_Adl_verify_range@V?$transform_iterator@U?$copy_iterator_rangeF@V?$basic_string@DU?$char_traits@D@std@@V?$allocator@D@2@@std@@PBD@detail@algorithm@boost@@V?$split_iterator@PBD@34@Uuse_default@iterators@4@U674@@iterators@boost@@V123@@std@@YAXABV?$transform_iterator@U?$copy_iterator_rangeF@V?$basic_string@DU?$char_traits@D@std@@V?$allocator@D@2@@std@@PBD@detail@algorithm@boost@@V?$split_iterator@PBD@34@Uuse_default@iterators@4@U674@@iterators@boost@@0@Z ; std::_Adl_verify_range<boost::iterators::transform_iterator<boost::algorithm::detail::copy_iterator_rangeF<std::basic_string<char,std::char_traits<char>,std::allocator<char> >,char const *>,boost::algorithm::split_iterator<char const *>,boost::iterators::use_default,boost::iterators::use_default>,boost::iterators::transform_iterator<boost::algorithm::detail::copy_iterator_rangeF<std::basic_string<char,std::char_traits<char>,std::allocator<char> >,char const *>,boost::algorithm::split_iterator<char const *>,boost::iterators::use_default,boost::iterators::use_default> >
PUBLIC	??$?0U?$token_finderF@U?$is_any_ofF@D@detail@algorithm@boost@@@detail@algorithm@boost@@@?$find_iterator_base@PBD@detail@algorithm@boost@@IAE@U?$token_finderF@U?$is_any_ofF@D@detail@algorithm@boost@@@123@H@Z ; boost::algorithm::detail::find_iterator_base<char const *>::find_iterator_base<char const *><boost::algorithm::detail::token_finderF<boost::algorithm::detail::is_any_ofF<char> > >
PUBLIC	??$range_begin@V?$iterator_range@PBD@boost@@@range_detail@boost@@YAPBDAAV?$iterator_range@PBD@1@@Z ; boost::range_detail::range_begin<boost::iterator_range<char const *> >
PUBLIC	??$range_end@V?$iterator_range@PBD@boost@@@range_detail@boost@@YAPBDAAV?$iterator_range@PBD@1@@Z ; boost::range_detail::range_end<boost::iterator_range<char const *> >
PUBLIC	??0?$iterator_adaptor@V?$transform_iterator@U?$copy_iterator_rangeF@V?$basic_string@DU?$char_traits@D@std@@V?$allocator@D@2@@std@@PBD@detail@algorithm@boost@@V?$split_iterator@PBD@34@Uuse_default@iterators@4@U674@@iterators@boost@@V?$split_iterator@PBD@algorithm@3@V?$basic_string@DU?$char_traits@D@std@@V?$allocator@D@2@@std@@Uuse_default@23@V67@U823@@iterators@boost@@QAE@$$QAV012@@Z ; boost::iterators::iterator_adaptor<boost::iterators::transform_iterator<boost::algorithm::detail::copy_iterator_rangeF<std::basic_string<char,std::char_traits<char>,std::allocator<char> >,char const *>,boost::algorithm::split_iterator<char const *>,boost::iterators::use_default,boost::iterators::use_default>,boost::algorithm::split_iterator<char const *>,std::basic_string<char,std::char_traits<char>,std::allocator<char> >,boost::iterators::use_default,std::basic_string<char,std::char_traits<char>,std::allocator<char> >,boost::iterators::use_default>::iterator_adaptor<boost::iterators::transform_iterator<boost::algorithm::detail::copy_iterator_rangeF<std::basic_string<char,std::char_traits<char>,std::allocator<char> >,char const *>,boost::algorithm::split_iterator<char const *>,boost::iterators::use_default,boost::iterators::use_default>,boost::algorithm::split_iterator<char const *>,std::basic_string<char,std::char_traits<char>,std::allocator<char> >,boost::iterators::use_default,std::basic_string<char,std::char_traits<char>,std::allocator<char> >,boost::iterators::use_default>
PUBLIC	??0?$transform_iterator@U?$copy_iterator_rangeF@V?$basic_string@DU?$char_traits@D@std@@V?$allocator@D@2@@std@@PBD@detail@algorithm@boost@@V?$split_iterator@PBD@34@Uuse_default@iterators@4@U674@@iterators@boost@@QAE@$$QAV012@@Z ; boost::iterators::transform_iterator<boost::algorithm::detail::copy_iterator_rangeF<std::basic_string<char,std::char_traits<char>,std::allocator<char> >,char const *>,boost::algorithm::split_iterator<char const *>,boost::iterators::use_default,boost::iterators::use_default>::transform_iterator<boost::algorithm::detail::copy_iterator_rangeF<std::basic_string<char,std::char_traits<char>,std::allocator<char> >,char const *>,boost::algorithm::split_iterator<char const *>,boost::iterators::use_default,boost::iterators::use_default>
PUBLIC	??0?$split_iterator@PBD@algorithm@boost@@QAE@XZ	; boost::algorithm::split_iterator<char const *>::split_iterator<char const *>
PUBLIC	??0?$split_iterator@PBD@algorithm@boost@@QAE@ABV012@@Z ; boost::algorithm::split_iterator<char const *>::split_iterator<char const *>
PUBLIC	??1?$find_iterator_base@PBD@detail@algorithm@boost@@IAE@XZ ; boost::algorithm::detail::find_iterator_base<char const *>::~find_iterator_base<char const *>
PUBLIC	??$_Get_unwrapped@AAV?$transform_iterator@U?$copy_iterator_rangeF@V?$basic_string@DU?$char_traits@D@std@@V?$allocator@D@2@@std@@PBD@detail@algorithm@boost@@V?$split_iterator@PBD@34@Uuse_default@iterators@4@U674@@iterators@boost@@@std@@YA?A_TAAV?$transform_iterator@U?$copy_iterator_rangeF@V?$basic_string@DU?$char_traits@D@std@@V?$allocator@D@2@@std@@PBD@detail@algorithm@boost@@V?$split_iterator@PBD@34@Uuse_default@iterators@4@U674@@iterators@boost@@@Z ; std::_Get_unwrapped<boost::iterators::transform_iterator<boost::algorithm::detail::copy_iterator_rangeF<std::basic_string<char,std::char_traits<char>,std::allocator<char> >,char const *>,boost::algorithm::split_iterator<char const *>,boost::iterators::use_default,boost::iterators::use_default> &>
PUBLIC	??$?0V?$transform_iterator@U?$copy_iterator_rangeF@V?$basic_string@DU?$char_traits@D@std@@V?$allocator@D@2@@std@@PBD@detail@algorithm@boost@@V?$split_iterator@PBD@34@Uuse_default@iterators@4@U674@@iterators@boost@@$0A@@?$vector@V?$basic_string@DU?$char_traits@D@std@@V?$allocator@D@2@@std@@V?$allocator@V?$basic_string@DU?$char_traits@D@std@@V?$allocator@D@2@@std@@@2@@std@@QAE@V?$transform_iterator@U?$copy_iterator_rangeF@V?$basic_string@DU?$char_traits@D@std@@V?$allocator@D@2@@std@@PBD@detail@algorithm@boost@@V?$split_iterator@PBD@34@Uuse_default@iterators@4@U674@@iterators@boost@@0ABV?$allocator@V?$basic_string@DU?$char_traits@D@std@@V?$allocator@D@2@@std@@@1@@Z ; std::vector<std::basic_string<char,std::char_traits<char>,std::allocator<char> >,std::allocator<std::basic_string<char,std::char_traits<char>,std::allocator<char> > > >::vector<std::basic_string<char,std::char_traits<char>,std::allocator<char> >,std::allocator<std::basic_string<char,std::char_traits<char>,std::allocator<char> > > ><boost::iterators::transform_iterator<boost::algorithm::detail::copy_iterator_rangeF<std::basic_string<char,std::char_traits<char>,std::allocator<char> >,char const *>,boost::algorithm::split_iterator<char const *>,boost::iterators::use_default,boost::iterators::use_default>,0>
PUBLIC	??$make_transform_iterator@U?$copy_iterator_rangeF@V?$basic_string@DU?$char_traits@D@std@@V?$allocator@D@2@@std@@PBD@detail@algorithm@boost@@V?$split_iterator@PBD@34@@iterators@boost@@YA?AV?$transform_iterator@U?$copy_iterator_rangeF@V?$basic_string@DU?$char_traits@D@std@@V?$allocator@D@2@@std@@PBD@detail@algorithm@boost@@V?$split_iterator@PBD@34@Uuse_default@iterators@4@U674@@01@V?$split_iterator@PBD@algorithm@1@U?$copy_iterator_rangeF@V?$basic_string@DU?$char_traits@D@std@@V?$allocator@D@2@@std@@PBD@detail@41@@Z ; boost::iterators::make_transform_iterator<boost::algorithm::detail::copy_iterator_rangeF<std::basic_string<char,std::char_traits<char>,std::allocator<char> >,char const *>,boost::algorithm::split_iterator<char const *> >
PUBLIC	??$?0U?$token_finderF@U?$is_any_ofF@D@detail@algorithm@boost@@@detail@algorithm@boost@@@?$split_iterator@PBD@algorithm@boost@@QAE@PBD0U?$token_finderF@U?$is_any_ofF@D@detail@algorithm@boost@@@detail@12@@Z ; boost::algorithm::split_iterator<char const *>::split_iterator<char const *><boost::algorithm::detail::token_finderF<boost::algorithm::detail::is_any_ofF<char> > >
PUBLIC	??$begin@V?$iterator_range@PBD@boost@@@range_adl_barrier@boost@@YAPBDAAV?$iterator_range@PBD@1@@Z ; boost::range_adl_barrier::begin<boost::iterator_range<char const *> >
PUBLIC	??$end@V?$iterator_range@PBD@boost@@@range_adl_barrier@boost@@YAPBDAAV?$iterator_range@PBD@1@@Z ; boost::range_adl_barrier::end<boost::iterator_range<char const *> >
PUBLIC	??$as_literal@PBD@boost@@YA?AV?$iterator_range@PBD@0@AAPBD@Z ; boost::as_literal<char const *>
PUBLIC	??0?$iterator_adaptor@V?$transform_iterator@U?$copy_iterator_rangeF@V?$basic_string@DU?$char_traits@D@std@@V?$allocator@D@2@@std@@PBD@detail@algorithm@boost@@V?$split_iterator@PBD@34@Uuse_default@iterators@4@U674@@iterators@boost@@V?$split_iterator@PBD@algorithm@3@V?$basic_string@DU?$char_traits@D@std@@V?$allocator@D@2@@std@@Uuse_default@23@V67@U823@@iterators@boost@@QAE@ABV012@@Z ; boost::iterators::iterator_adaptor<boost::iterators::transform_iterator<boost::algorithm::detail::copy_iterator_rangeF<std::basic_string<char,std::char_traits<char>,std::allocator<char> >,char const *>,boost::algorithm::split_iterator<char const *>,boost::iterators::use_default,boost::iterators::use_default>,boost::algorithm::split_iterator<char const *>,std::basic_string<char,std::char_traits<char>,std::allocator<char> >,boost::iterators::use_default,std::basic_string<char,std::char_traits<char>,std::allocator<char> >,boost::iterators::use_default>::iterator_adaptor<boost::iterators::transform_iterator<boost::algorithm::detail::copy_iterator_rangeF<std::basic_string<char,std::char_traits<char>,std::allocator<char> >,char const *>,boost::algorithm::split_iterator<char const *>,boost::iterators::use_default,boost::iterators::use_default>,boost::algorithm::split_iterator<char const *>,std::basic_string<char,std::char_traits<char>,std::allocator<char> >,boost::iterators::use_default,std::basic_string<char,std::char_traits<char>,std::allocator<char> >,boost::iterators::use_default>
PUBLIC	??0?$transform_iterator@U?$copy_iterator_rangeF@V?$basic_string@DU?$char_traits@D@std@@V?$allocator@D@2@@std@@PBD@detail@algorithm@boost@@V?$split_iterator@PBD@34@Uuse_default@iterators@4@U674@@iterators@boost@@QAE@ABV012@@Z ; boost::iterators::transform_iterator<boost::algorithm::detail::copy_iterator_rangeF<std::basic_string<char,std::char_traits<char>,std::allocator<char> >,char const *>,boost::algorithm::split_iterator<char const *>,boost::iterators::use_default,boost::iterators::use_default>::transform_iterator<boost::algorithm::detail::copy_iterator_rangeF<std::basic_string<char,std::char_traits<char>,std::allocator<char> >,char const *>,boost::algorithm::split_iterator<char const *>,boost::iterators::use_default,boost::iterators::use_default>
PUBLIC	??1?$iterator_adaptor@V?$transform_iterator@U?$copy_iterator_rangeF@V?$basic_string@DU?$char_traits@D@std@@V?$allocator@D@2@@std@@PBD@detail@algorithm@boost@@V?$split_iterator@PBD@34@Uuse_default@iterators@4@U674@@iterators@boost@@V?$split_iterator@PBD@algorithm@3@V?$basic_string@DU?$char_traits@D@std@@V?$allocator@D@2@@std@@Uuse_default@23@V67@U823@@iterators@boost@@QAE@XZ ; boost::iterators::iterator_adaptor<boost::iterators::transform_iterator<boost::algorithm::detail::copy_iterator_rangeF<std::basic_string<char,std::char_traits<char>,std::allocator<char> >,char const *>,boost::algorithm::split_iterator<char const *>,boost::iterators::use_default,boost::iterators::use_default>,boost::algorithm::split_iterator<char const *>,std::basic_string<char,std::char_traits<char>,std::allocator<char> >,boost::iterators::use_default,std::basic_string<char,std::char_traits<char>,std::allocator<char> >,boost::iterators::use_default>::~iterator_adaptor<boost::iterators::transform_iterator<boost::algorithm::detail::copy_iterator_rangeF<std::basic_string<char,std::char_traits<char>,std::allocator<char> >,char const *>,boost::algorithm::split_iterator<char const *>,boost::iterators::use_default,boost::iterators::use_default>,boost::algorithm::split_iterator<char const *>,std::basic_string<char,std::char_traits<char>,std::allocator<char> >,boost::iterators::use_default,std::basic_string<char,std::char_traits<char>,std::allocator<char> >,boost::iterators::use_default>
PUBLIC	??1?$transform_iterator@U?$copy_iterator_rangeF@V?$basic_string@DU?$char_traits@D@std@@V?$allocator@D@2@@std@@PBD@detail@algorithm@boost@@V?$split_iterator@PBD@34@Uuse_default@iterators@4@U674@@iterators@boost@@QAE@XZ ; boost::iterators::transform_iterator<boost::algorithm::detail::copy_iterator_rangeF<std::basic_string<char,std::char_traits<char>,std::allocator<char> >,char const *>,boost::algorithm::split_iterator<char const *>,boost::iterators::use_default,boost::iterators::use_default>::~transform_iterator<boost::algorithm::detail::copy_iterator_rangeF<std::basic_string<char,std::char_traits<char>,std::allocator<char> >,char const *>,boost::algorithm::split_iterator<char const *>,boost::iterators::use_default,boost::iterators::use_default>
PUBLIC	??1?$split_iterator@PBD@algorithm@boost@@QAE@XZ	; boost::algorithm::split_iterator<char const *>::~split_iterator<char const *>
PUBLIC	??$iter_split@V?$vector@V?$basic_string@DU?$char_traits@D@std@@V?$allocator@D@2@@std@@V?$allocator@V?$basic_string@DU?$char_traits@D@std@@V?$allocator@D@2@@std@@@2@@std@@PBDU?$token_finderF@U?$is_any_ofF@D@detail@algorithm@boost@@@detail@algorithm@boost@@@algorithm@boost@@YAAAV?$vector@V?$basic_string@DU?$char_traits@D@std@@V?$allocator@D@2@@std@@V?$allocator@V?$basic_string@DU?$char_traits@D@std@@V?$allocator@D@2@@std@@@2@@std@@AAV23@AAPBDU?$token_finderF@U?$is_any_ofF@D@detail@algorithm@boost@@@detail@01@@Z ; boost::algorithm::iter_split<std::vector<std::basic_string<char,std::char_traits<char>,std::allocator<char> >,std::allocator<std::basic_string<char,std::char_traits<char>,std::allocator<char> > > >,char const *,boost::algorithm::detail::token_finderF<boost::algorithm::detail::is_any_ofF<char> > >
PUBLIC	??$as_literal@PBD@boost@@YA?AV?$iterator_range@PBD@0@ABQBD@Z ; boost::as_literal<char const *>
PUBLIC	??$split@V?$vector@V?$basic_string@DU?$char_traits@D@std@@V?$allocator@D@2@@std@@V?$allocator@V?$basic_string@DU?$char_traits@D@std@@V?$allocator@D@2@@std@@@2@@std@@PBDU?$is_any_ofF@D@detail@algorithm@boost@@@algorithm@boost@@YAAAV?$vector@V?$basic_string@DU?$char_traits@D@std@@V?$allocator@D@2@@std@@V?$allocator@V?$basic_string@DU?$char_traits@D@std@@V?$allocator@D@2@@std@@@2@@std@@AAV23@AAPBDU?$is_any_ofF@D@detail@01@W4token_compress_mode_type@01@@Z ; boost::algorithm::split<std::vector<std::basic_string<char,std::char_traits<char>,std::allocator<char> >,std::allocator<std::basic_string<char,std::char_traits<char>,std::allocator<char> > > >,char const *,boost::algorithm::detail::is_any_ofF<char> >
PUBLIC	??$is_any_of@PBD@algorithm@boost@@YA?AU?$is_any_ofF@D@detail@01@ABQBD@Z ; boost::algorithm::is_any_of<char const *>
PUBLIC	??$?0PBD$0A@@?$basic_string@DU?$char_traits@D@std@@V?$allocator@D@2@@std@@QAE@PBD0ABV?$allocator@D@1@@Z ; std::basic_string<char,std::char_traits<char>,std::allocator<char> >::basic_string<char,std::char_traits<char>,std::allocator<char> ><char const *,0>
PUBLIC	?split_argument@@YAXPBDAAV?$vector@V?$basic_string@DU?$char_traits@D@std@@V?$allocator@D@2@@std@@V?$allocator@V?$basic_string@DU?$char_traits@D@std@@V?$allocator@D@2@@std@@@2@@std@@0@Z ; split_argument
PUBLIC	?GetDistanceNew@@YAMABUD3DXVECTOR3@@0@Z		; GetDistanceNew
;	COMDAT xdata$x
xdata$x	SEGMENT
__ehfuncinfo$?split_argument@@YAXPBDAAV?$vector@V?$basic_string@DU?$char_traits@D@std@@V?$allocator@D@2@@std@@V?$allocator@V?$basic_string@DU?$char_traits@D@std@@V?$allocator@D@2@@std@@@2@@std@@0@Z DQ 00000000119930522r ; 2.33398e-314
	DD	FLAT:__unwindtable$?split_argument@@YAXPBDAAV?$vector@V?$basic_string@DU?$char_traits@D@std@@V?$allocator@D@2@@std@@V?$allocator@V?$basic_string@DU?$char_traits@D@std@@V?$allocator@D@2@@std@@@2@@std@@0@Z
	DQ	00000000000000000r		; 0
	DQ	00000000000000000r		; 0
	DQ	00000000100000000r		; 2.122e-314
__unwindtable$?split_argument@@YAXPBDAAV?$vector@V?$basic_string@DU?$char_traits@D@std@@V?$allocator@D@2@@std@@V?$allocator@V?$basic_string@DU?$char_traits@D@std@@V?$allocator@D@2@@std@@@2@@std@@0@Z DD 0ffffffffH
	DD	FLAT:__unwindfunclet$?split_argument@@YAXPBDAAV?$vector@V?$basic_string@DU?$char_traits@D@std@@V?$allocator@D@2@@std@@V?$allocator@V?$basic_string@DU?$char_traits@D@std@@V?$allocator@D@2@@std@@@2@@std@@0@Z$2
xdata$x	ENDS
;	COMDAT xdata$x
xdata$x	SEGMENT
__ehfuncinfo$??$split@V?$vector@V?$basic_string@DU?$char_traits@D@std@@V?$allocator@D@2@@std@@V?$allocator@V?$basic_string@DU?$char_traits@D@std@@V?$allocator@D@2@@std@@@2@@std@@PBDU?$is_any_ofF@D@detail@algorithm@boost@@@algorithm@boost@@YAAAV?$vector@V?$basic_string@DU?$char_traits@D@std@@V?$allocator@D@2@@std@@V?$allocator@V?$basic_string@DU?$char_traits@D@std@@V?$allocator@D@2@@std@@@2@@std@@AAV23@AAPBDU?$is_any_ofF@D@detail@01@W4token_compress_mode_type@01@@Z DQ 00000000119930522r ; 2.33398e-314
	DD	FLAT:__unwindtable$??$split@V?$vector@V?$basic_string@DU?$char_traits@D@std@@V?$allocator@D@2@@std@@V?$allocator@V?$basic_string@DU?$char_traits@D@std@@V?$allocator@D@2@@std@@@2@@std@@PBDU?$is_any_ofF@D@detail@algorithm@boost@@@algorithm@boost@@YAAAV?$vector@V?$basic_string@DU?$char_traits@D@std@@V?$allocator@D@2@@std@@V?$allocator@V?$basic_string@DU?$char_traits@D@std@@V?$allocator@D@2@@std@@@2@@std@@AAV23@AAPBDU?$is_any_ofF@D@detail@01@W4token_compress_mode_type@01@@Z
	DQ	00000000000000000r		; 0
	DQ	00000000000000000r		; 0
	DQ	00000000100000000r		; 2.122e-314
__unwindtable$??$split@V?$vector@V?$basic_string@DU?$char_traits@D@std@@V?$allocator@D@2@@std@@V?$allocator@V?$basic_string@DU?$char_traits@D@std@@V?$allocator@D@2@@std@@@2@@std@@PBDU?$is_any_ofF@D@detail@algorithm@boost@@@algorithm@boost@@YAAAV?$vector@V?$basic_string@DU?$char_traits@D@std@@V?$allocator@D@2@@std@@V?$allocator@V?$basic_string@DU?$char_traits@D@std@@V?$allocator@D@2@@std@@@2@@std@@AAV23@AAPBDU?$is_any_ofF@D@detail@01@W4token_compress_mode_type@01@@Z DD 0ffffffffH
	DD	FLAT:__unwindfunclet$??$split@V?$vector@V?$basic_string@DU?$char_traits@D@std@@V?$allocator@D@2@@std@@V?$allocator@V?$basic_string@DU?$char_traits@D@std@@V?$allocator@D@2@@std@@@2@@std@@PBDU?$is_any_ofF@D@detail@algorithm@boost@@@algorithm@boost@@YAAAV?$vector@V?$basic_string@DU?$char_traits@D@std@@V?$allocator@D@2@@std@@V?$allocator@V?$basic_string@DU?$char_traits@D@std@@V?$allocator@D@2@@std@@@2@@std@@AAV23@AAPBDU?$is_any_ofF@D@detail@01@W4token_compress_mode_type@01@@Z$0
xdata$x	ENDS
;	COMDAT xdata$x
xdata$x	SEGMENT
__ehfuncinfo$??$iter_split@V?$vector@V?$basic_string@DU?$char_traits@D@std@@V?$allocator@D@2@@std@@V?$allocator@V?$basic_string@DU?$char_traits@D@std@@V?$allocator@D@2@@std@@@2@@std@@PBDU?$token_finderF@U?$is_any_ofF@D@detail@algorithm@boost@@@detail@algorithm@boost@@@algorithm@boost@@YAAAV?$vector@V?$basic_string@DU?$char_traits@D@std@@V?$allocator@D@2@@std@@V?$allocator@V?$basic_string@DU?$char_traits@D@std@@V?$allocator@D@2@@std@@@2@@std@@AAV23@AAPBDU?$token_finderF@U?$is_any_ofF@D@detail@algorithm@boost@@@detail@01@@Z DQ 00000000819930522r ; 1.7188e-313
	DD	FLAT:__unwindtable$??$iter_split@V?$vector@V?$basic_string@DU?$char_traits@D@std@@V?$allocator@D@2@@std@@V?$allocator@V?$basic_string@DU?$char_traits@D@std@@V?$allocator@D@2@@std@@@2@@std@@PBDU?$token_finderF@U?$is_any_ofF@D@detail@algorithm@boost@@@detail@algorithm@boost@@@algorithm@boost@@YAAAV?$vector@V?$basic_string@DU?$char_traits@D@std@@V?$allocator@D@2@@std@@V?$allocator@V?$basic_string@DU?$char_traits@D@std@@V?$allocator@D@2@@std@@@2@@std@@AAV23@AAPBDU?$token_finderF@U?$is_any_ofF@D@detail@algorithm@boost@@@detail@01@@Z
	DQ	00000000000000000r		; 0
	DQ	00000000000000000r		; 0
	DQ	00000000100000000r		; 2.122e-314
	ORG $+4
__unwindtable$??$iter_split@V?$vector@V?$basic_string@DU?$char_traits@D@std@@V?$allocator@D@2@@std@@V?$allocator@V?$basic_string@DU?$char_traits@D@std@@V?$allocator@D@2@@std@@@2@@std@@PBDU?$token_finderF@U?$is_any_ofF@D@detail@algorithm@boost@@@detail@algorithm@boost@@@algorithm@boost@@YAAAV?$vector@V?$basic_string@DU?$char_traits@D@std@@V?$allocator@D@2@@std@@V?$allocator@V?$basic_string@DU?$char_traits@D@std@@V?$allocator@D@2@@std@@@2@@std@@AAV23@AAPBDU?$token_finderF@U?$is_any_ofF@D@detail@algorithm@boost@@@detail@01@@Z DD 0ffffffffH
	DD	FLAT:__unwindfunclet$??$iter_split@V?$vector@V?$basic_string@DU?$char_traits@D@std@@V?$allocator@D@2@@std@@V?$allocator@V?$basic_string@DU?$char_traits@D@std@@V?$allocator@D@2@@std@@@2@@std@@PBDU?$token_finderF@U?$is_any_ofF@D@detail@algorithm@boost@@@detail@algorithm@boost@@@algorithm@boost@@YAAAV?$vector@V?$basic_string@DU?$char_traits@D@std@@V?$allocator@D@2@@std@@V?$allocator@V?$basic_string@DU?$char_traits@D@std@@V?$allocator@D@2@@std@@@2@@std@@AAV23@AAPBDU?$token_finderF@U?$is_any_ofF@D@detail@algorithm@boost@@@detail@01@@Z$0
	DD	00H
	DD	FLAT:__unwindfunclet$??$iter_split@V?$vector@V?$basic_string@DU?$char_traits@D@std@@V?$allocator@D@2@@std@@V?$allocator@V?$basic_string@DU?$char_traits@D@std@@V?$allocator@D@2@@std@@@2@@std@@PBDU?$token_finderF@U?$is_any_ofF@D@detail@algorithm@boost@@@detail@algorithm@boost@@@algorithm@boost@@YAAAV?$vector@V?$basic_string@DU?$char_traits@D@std@@V?$allocator@D@2@@std@@V?$allocator@V?$basic_string@DU?$char_traits@D@std@@V?$allocator@D@2@@std@@@2@@std@@AAV23@AAPBDU?$token_finderF@U?$is_any_ofF@D@detail@algorithm@boost@@@detail@01@@Z$10
	DD	01H
	DD	FLAT:__unwindfunclet$??$iter_split@V?$vector@V?$basic_string@DU?$char_traits@D@std@@V?$allocator@D@2@@std@@V?$allocator@V?$basic_string@DU?$char_traits@D@std@@V?$allocator@D@2@@std@@@2@@std@@PBDU?$token_finderF@U?$is_any_ofF@D@detail@algorithm@boost@@@detail@algorithm@boost@@@algorithm@boost@@YAAAV?$vector@V?$basic_string@DU?$char_traits@D@std@@V?$allocator@D@2@@std@@V?$allocator@V?$basic_string@DU?$char_traits@D@std@@V?$allocator@D@2@@std@@@2@@std@@AAV23@AAPBDU?$token_finderF@U?$is_any_ofF@D@detail@algorithm@boost@@@detail@01@@Z$12
	DD	00H
	DD	FLAT:__unwindfunclet$??$iter_split@V?$vector@V?$basic_string@DU?$char_traits@D@std@@V?$allocator@D@2@@std@@V?$allocator@V?$basic_string@DU?$char_traits@D@std@@V?$allocator@D@2@@std@@@2@@std@@PBDU?$token_finderF@U?$is_any_ofF@D@detail@algorithm@boost@@@detail@algorithm@boost@@@algorithm@boost@@YAAAV?$vector@V?$basic_string@DU?$char_traits@D@std@@V?$allocator@D@2@@std@@V?$allocator@V?$basic_string@DU?$char_traits@D@std@@V?$allocator@D@2@@std@@@2@@std@@AAV23@AAPBDU?$token_finderF@U?$is_any_ofF@D@detail@algorithm@boost@@@detail@01@@Z$3
	DD	03H
	DD	FLAT:__unwindfunclet$??$iter_split@V?$vector@V?$basic_string@DU?$char_traits@D@std@@V?$allocator@D@2@@std@@V?$allocator@V?$basic_string@DU?$char_traits@D@std@@V?$allocator@D@2@@std@@@2@@std@@PBDU?$token_finderF@U?$is_any_ofF@D@detail@algorithm@boost@@@detail@algorithm@boost@@@algorithm@boost@@YAAAV?$vector@V?$basic_string@DU?$char_traits@D@std@@V?$allocator@D@2@@std@@V?$allocator@V?$basic_string@DU?$char_traits@D@std@@V?$allocator@D@2@@std@@@2@@std@@AAV23@AAPBDU?$token_finderF@U?$is_any_ofF@D@detail@algorithm@boost@@@detail@01@@Z$5
	DD	04H
	DD	FLAT:__unwindfunclet$??$iter_split@V?$vector@V?$basic_string@DU?$char_traits@D@std@@V?$allocator@D@2@@std@@V?$allocator@V?$basic_string@DU?$char_traits@D@std@@V?$allocator@D@2@@std@@@2@@std@@PBDU?$token_finderF@U?$is_any_ofF@D@detail@algorithm@boost@@@detail@algorithm@boost@@@algorithm@boost@@YAAAV?$vector@V?$basic_string@DU?$char_traits@D@std@@V?$allocator@D@2@@std@@V?$allocator@V?$basic_string@DU?$char_traits@D@std@@V?$allocator@D@2@@std@@@2@@std@@AAV23@AAPBDU?$token_finderF@U?$is_any_ofF@D@detail@algorithm@boost@@@detail@01@@Z$6
	DD	03H
	DD	FLAT:___std_terminate
	DD	00H
	DD	FLAT:___std_terminate
xdata$x	ENDS
;	COMDAT xdata$x
xdata$x	SEGMENT
__ehfuncinfo$??1?$split_iterator@PBD@algorithm@boost@@QAE@XZ DQ 00000000119930522r ; 2.33398e-314
	DD	FLAT:__unwindtable$??1?$split_iterator@PBD@algorithm@boost@@QAE@XZ
	DQ	00000000000000000r		; 0
	DQ	00000000000000000r		; 0
	DQ	00000000500000000r		; 1.061e-313
__unwindtable$??1?$split_iterator@PBD@algorithm@boost@@QAE@XZ DD 0ffffffffH
	DD	FLAT:___std_terminate
xdata$x	ENDS
;	COMDAT xdata$x
xdata$x	SEGMENT
__ehfuncinfo$??1?$transform_iterator@U?$copy_iterator_rangeF@V?$basic_string@DU?$char_traits@D@std@@V?$allocator@D@2@@std@@PBD@detail@algorithm@boost@@V?$split_iterator@PBD@34@Uuse_default@iterators@4@U674@@iterators@boost@@QAE@XZ DQ 00000000119930522r ; 2.33398e-314
	DD	FLAT:__unwindtable$??1?$transform_iterator@U?$copy_iterator_rangeF@V?$basic_string@DU?$char_traits@D@std@@V?$allocator@D@2@@std@@PBD@detail@algorithm@boost@@V?$split_iterator@PBD@34@Uuse_default@iterators@4@U674@@iterators@boost@@QAE@XZ
	DQ	00000000000000000r		; 0
	DQ	00000000000000000r		; 0
	DQ	00000000500000000r		; 1.061e-313
__unwindtable$??1?$transform_iterator@U?$copy_iterator_rangeF@V?$basic_string@DU?$char_traits@D@std@@V?$allocator@D@2@@std@@PBD@detail@algorithm@boost@@V?$split_iterator@PBD@34@Uuse_default@iterators@4@U674@@iterators@boost@@QAE@XZ DD 0ffffffffH
	DD	FLAT:___std_terminate
xdata$x	ENDS
;	COMDAT xdata$x
xdata$x	SEGMENT
__ehfuncinfo$??1?$iterator_adaptor@V?$transform_iterator@U?$copy_iterator_rangeF@V?$basic_string@DU?$char_traits@D@std@@V?$allocator@D@2@@std@@PBD@detail@algorithm@boost@@V?$split_iterator@PBD@34@Uuse_default@iterators@4@U674@@iterators@boost@@V?$split_iterator@PBD@algorithm@3@V?$basic_string@DU?$char_traits@D@std@@V?$allocator@D@2@@std@@Uuse_default@23@V67@U823@@iterators@boost@@QAE@XZ DQ 00000000119930522r ; 2.33398e-314
	DD	FLAT:__unwindtable$??1?$iterator_adaptor@V?$transform_iterator@U?$copy_iterator_rangeF@V?$basic_string@DU?$char_traits@D@std@@V?$allocator@D@2@@std@@PBD@detail@algorithm@boost@@V?$split_iterator@PBD@34@Uuse_default@iterators@4@U674@@iterators@boost@@V?$split_iterator@PBD@algorithm@3@V?$basic_string@DU?$char_traits@D@std@@V?$allocator@D@2@@std@@Uuse_default@23@V67@U823@@iterators@boost@@QAE@XZ
	DQ	00000000000000000r		; 0
	DQ	00000000000000000r		; 0
	DQ	00000000500000000r		; 1.061e-313
__unwindtable$??1?$iterator_adaptor@V?$transform_iterator@U?$copy_iterator_rangeF@V?$basic_string@DU?$char_traits@D@std@@V?$allocator@D@2@@std@@PBD@detail@algorithm@boost@@V?$split_iterator@PBD@34@Uuse_default@iterators@4@U674@@iterators@boost@@V?$split_iterator@PBD@algorithm@3@V?$basic_string@DU?$char_traits@D@std@@V?$allocator@D@2@@std@@Uuse_default@23@V67@U823@@iterators@boost@@QAE@XZ DD 0ffffffffH
	DD	FLAT:___std_terminate
xdata$x	ENDS
;	COMDAT xdata$x
xdata$x	SEGMENT
__ehfuncinfo$??$?0U?$token_finderF@U?$is_any_ofF@D@detail@algorithm@boost@@@detail@algorithm@boost@@@?$split_iterator@PBD@algorithm@boost@@QAE@PBD0U?$token_finderF@U?$is_any_ofF@D@detail@algorithm@boost@@@detail@12@@Z DQ 00000000219930522r ; 4.45598e-314
	DD	FLAT:__unwindtable$??$?0U?$token_finderF@U?$is_any_ofF@D@detail@algorithm@boost@@@detail@algorithm@boost@@@?$split_iterator@PBD@algorithm@boost@@QAE@PBD0U?$token_finderF@U?$is_any_ofF@D@detail@algorithm@boost@@@detail@12@@Z
	DQ	00000000000000000r		; 0
	DQ	00000000000000000r		; 0
	DQ	00000000100000000r		; 2.122e-314
__unwindtable$??$?0U?$token_finderF@U?$is_any_ofF@D@detail@algorithm@boost@@@detail@algorithm@boost@@@?$split_iterator@PBD@algorithm@boost@@QAE@PBD0U?$token_finderF@U?$is_any_ofF@D@detail@algorithm@boost@@@detail@12@@Z DD 0ffffffffH
	DD	FLAT:__unwindfunclet$??$?0U?$token_finderF@U?$is_any_ofF@D@detail@algorithm@boost@@@detail@algorithm@boost@@@?$split_iterator@PBD@algorithm@boost@@QAE@PBD0U?$token_finderF@U?$is_any_ofF@D@detail@algorithm@boost@@@detail@12@@Z$0
	DD	00H
	DD	FLAT:__unwindfunclet$??$?0U?$token_finderF@U?$is_any_ofF@D@detail@algorithm@boost@@@detail@algorithm@boost@@@?$split_iterator@PBD@algorithm@boost@@QAE@PBD0U?$token_finderF@U?$is_any_ofF@D@detail@algorithm@boost@@@detail@12@@Z$2
xdata$x	ENDS
;	COMDAT xdata$x
xdata$x	SEGMENT
__ehfuncinfo$??$make_transform_iterator@U?$copy_iterator_rangeF@V?$basic_string@DU?$char_traits@D@std@@V?$allocator@D@2@@std@@PBD@detail@algorithm@boost@@V?$split_iterator@PBD@34@@iterators@boost@@YA?AV?$transform_iterator@U?$copy_iterator_rangeF@V?$basic_string@DU?$char_traits@D@std@@V?$allocator@D@2@@std@@PBD@detail@algorithm@boost@@V?$split_iterator@PBD@34@Uuse_default@iterators@4@U674@@01@V?$split_iterator@PBD@algorithm@1@U?$copy_iterator_rangeF@V?$basic_string@DU?$char_traits@D@std@@V?$allocator@D@2@@std@@PBD@detail@41@@Z DQ 00000000219930522r ; 4.45598e-314
	DD	FLAT:__unwindtable$??$make_transform_iterator@U?$copy_iterator_rangeF@V?$basic_string@DU?$char_traits@D@std@@V?$allocator@D@2@@std@@PBD@detail@algorithm@boost@@V?$split_iterator@PBD@34@@iterators@boost@@YA?AV?$transform_iterator@U?$copy_iterator_rangeF@V?$basic_string@DU?$char_traits@D@std@@V?$allocator@D@2@@std@@PBD@detail@algorithm@boost@@V?$split_iterator@PBD@34@Uuse_default@iterators@4@U674@@01@V?$split_iterator@PBD@algorithm@1@U?$copy_iterator_rangeF@V?$basic_string@DU?$char_traits@D@std@@V?$allocator@D@2@@std@@PBD@detail@41@@Z
	DQ	00000000000000000r		; 0
	DQ	00000000000000000r		; 0
	DQ	00000000100000000r		; 2.122e-314
__unwindtable$??$make_transform_iterator@U?$copy_iterator_rangeF@V?$basic_string@DU?$char_traits@D@std@@V?$allocator@D@2@@std@@PBD@detail@algorithm@boost@@V?$split_iterator@PBD@34@@iterators@boost@@YA?AV?$transform_iterator@U?$copy_iterator_rangeF@V?$basic_string@DU?$char_traits@D@std@@V?$allocator@D@2@@std@@PBD@detail@algorithm@boost@@V?$split_iterator@PBD@34@Uuse_default@iterators@4@U674@@01@V?$split_iterator@PBD@algorithm@1@U?$copy_iterator_rangeF@V?$basic_string@DU?$char_traits@D@std@@V?$allocator@D@2@@std@@PBD@detail@41@@Z DD 0ffffffffH
	DD	FLAT:__unwindfunclet$??$make_transform_iterator@U?$copy_iterator_rangeF@V?$basic_string@DU?$char_traits@D@std@@V?$allocator@D@2@@std@@PBD@detail@algorithm@boost@@V?$split_iterator@PBD@34@@iterators@boost@@YA?AV?$transform_iterator@U?$copy_iterator_rangeF@V?$basic_string@DU?$char_traits@D@std@@V?$allocator@D@2@@std@@PBD@detail@algorithm@boost@@V?$split_iterator@PBD@34@Uuse_default@iterators@4@U674@@01@V?$split_iterator@PBD@algorithm@1@U?$copy_iterator_rangeF@V?$basic_string@DU?$char_traits@D@std@@V?$allocator@D@2@@std@@PBD@detail@41@@Z$0
	DD	0ffffffffH
	DD	FLAT:___std_terminate
xdata$x	ENDS
;	COMDAT xdata$x
xdata$x	SEGMENT
__ehfuncinfo$??$?0V?$transform_iterator@U?$copy_iterator_rangeF@V?$basic_string@DU?$char_traits@D@std@@V?$allocator@D@2@@std@@PBD@detail@algorithm@boost@@V?$split_iterator@PBD@34@Uuse_default@iterators@4@U674@@iterators@boost@@$0A@@?$vector@V?$basic_string@DU?$char_traits@D@std@@V?$allocator@D@2@@std@@V?$allocator@V?$basic_string@DU?$char_traits@D@std@@V?$allocator@D@2@@std@@@2@@std@@QAE@V?$transform_iterator@U?$copy_iterator_rangeF@V?$basic_string@DU?$char_traits@D@std@@V?$allocator@D@2@@std@@PBD@detail@algorithm@boost@@V?$split_iterator@PBD@34@Uuse_default@iterators@4@U674@@iterators@boost@@0ABV?$allocator@V?$basic_string@DU?$char_traits@D@std@@V?$allocator@D@2@@std@@@1@@Z DQ 00000000a19930522r ; 2.14319e-313
	DD	FLAT:__unwindtable$??$?0V?$transform_iterator@U?$copy_iterator_rangeF@V?$basic_string@DU?$char_traits@D@std@@V?$allocator@D@2@@std@@PBD@detail@algorithm@boost@@V?$split_iterator@PBD@34@Uuse_default@iterators@4@U674@@iterators@boost@@$0A@@?$vector@V?$basic_string@DU?$char_traits@D@std@@V?$allocator@D@2@@std@@V?$allocator@V?$basic_string@DU?$char_traits@D@std@@V?$allocator@D@2@@std@@@2@@std@@QAE@V?$transform_iterator@U?$copy_iterator_rangeF@V?$basic_string@DU?$char_traits@D@std@@V?$allocator@D@2@@std@@PBD@detail@algorithm@boost@@V?$split_iterator@PBD@34@Uuse_default@iterators@4@U674@@iterators@boost@@0ABV?$allocator@V?$basic_string@DU?$char_traits@D@std@@V?$allocator@D@2@@std@@@1@@Z
	DQ	00000000000000000r		; 0
	DQ	00000000000000000r		; 0
	DQ	00000000100000000r		; 2.122e-314
	ORG $+4
__unwindtable$??$?0V?$transform_iterator@U?$copy_iterator_rangeF@V?$basic_string@DU?$char_traits@D@std@@V?$allocator@D@2@@std@@PBD@detail@algorithm@boost@@V?$split_iterator@PBD@34@Uuse_default@iterators@4@U674@@iterators@boost@@$0A@@?$vector@V?$basic_string@DU?$char_traits@D@std@@V?$allocator@D@2@@std@@V?$allocator@V?$basic_string@DU?$char_traits@D@std@@V?$allocator@D@2@@std@@@2@@std@@QAE@V?$transform_iterator@U?$copy_iterator_rangeF@V?$basic_string@DU?$char_traits@D@std@@V?$allocator@D@2@@std@@PBD@detail@algorithm@boost@@V?$split_iterator@PBD@34@Uuse_default@iterators@4@U674@@iterators@boost@@0ABV?$allocator@V?$basic_string@DU?$char_traits@D@std@@V?$allocator@D@2@@std@@@1@@Z DD 0ffffffffH
	DD	FLAT:__unwindfunclet$??$?0V?$transform_iterator@U?$copy_iterator_rangeF@V?$basic_string@DU?$char_traits@D@std@@V?$allocator@D@2@@std@@PBD@detail@algorithm@boost@@V?$split_iterator@PBD@34@Uuse_default@iterators@4@U674@@iterators@boost@@$0A@@?$vector@V?$basic_string@DU?$char_traits@D@std@@V?$allocator@D@2@@std@@V?$allocator@V?$basic_string@DU?$char_traits@D@std@@V?$allocator@D@2@@std@@@2@@std@@QAE@V?$transform_iterator@U?$copy_iterator_rangeF@V?$basic_string@DU?$char_traits@D@std@@V?$allocator@D@2@@std@@PBD@detail@algorithm@boost@@V?$split_iterator@PBD@34@Uuse_default@iterators@4@U674@@iterators@boost@@0ABV?$allocator@V?$basic_string@DU?$char_traits@D@std@@V?$allocator@D@2@@std@@@1@@Z$0
	DD	00H
	DD	FLAT:__unwindfunclet$??$?0V?$transform_iterator@U?$copy_iterator_rangeF@V?$basic_string@DU?$char_traits@D@std@@V?$allocator@D@2@@std@@PBD@detail@algorithm@boost@@V?$split_iterator@PBD@34@Uuse_default@iterators@4@U674@@iterators@boost@@$0A@@?$vector@V?$basic_string@DU?$char_traits@D@std@@V?$allocator@D@2@@std@@V?$allocator@V?$basic_string@DU?$char_traits@D@std@@V?$allocator@D@2@@std@@@2@@std@@QAE@V?$transform_iterator@U?$copy_iterator_rangeF@V?$basic_string@DU?$char_traits@D@std@@V?$allocator@D@2@@std@@PBD@detail@algorithm@boost@@V?$split_iterator@PBD@34@Uuse_default@iterators@4@U674@@iterators@boost@@0ABV?$allocator@V?$basic_string@DU?$char_traits@D@std@@V?$allocator@D@2@@std@@@1@@Z$1
	DD	01H
	DD	FLAT:__unwindfunclet$??$?0V?$transform_iterator@U?$copy_iterator_rangeF@V?$basic_string@DU?$char_traits@D@std@@V?$allocator@D@2@@std@@PBD@detail@algorithm@boost@@V?$split_iterator@PBD@34@Uuse_default@iterators@4@U674@@iterators@boost@@$0A@@?$vector@V?$basic_string@DU?$char_traits@D@std@@V?$allocator@D@2@@std@@V?$allocator@V?$basic_string@DU?$char_traits@D@std@@V?$allocator@D@2@@std@@@2@@std@@QAE@V?$transform_iterator@U?$copy_iterator_rangeF@V?$basic_string@DU?$char_traits@D@std@@V?$allocator@D@2@@std@@PBD@detail@algorithm@boost@@V?$split_iterator@PBD@34@Uuse_default@iterators@4@U674@@iterators@boost@@0ABV?$allocator@V?$basic_string@DU?$char_traits@D@std@@V?$allocator@D@2@@std@@@1@@Z$2
	DD	02H
	DD	FLAT:__unwindfunclet$??$?0V?$transform_iterator@U?$copy_iterator_rangeF@V?$basic_string@DU?$char_traits@D@std@@V?$allocator@D@2@@std@@PBD@detail@algorithm@boost@@V?$split_iterator@PBD@34@Uuse_default@iterators@4@U674@@iterators@boost@@$0A@@?$vector@V?$basic_string@DU?$char_traits@D@std@@V?$allocator@D@2@@std@@V?$allocator@V?$basic_string@DU?$char_traits@D@std@@V?$allocator@D@2@@std@@@2@@std@@QAE@V?$transform_iterator@U?$copy_iterator_rangeF@V?$basic_string@DU?$char_traits@D@std@@V?$allocator@D@2@@std@@PBD@detail@algorithm@boost@@V?$split_iterator@PBD@34@Uuse_default@iterators@4@U674@@iterators@boost@@0ABV?$allocator@V?$basic_string@DU?$char_traits@D@std@@V?$allocator@D@2@@std@@@1@@Z$3
	DD	03H
	DD	FLAT:__unwindfunclet$??$?0V?$transform_iterator@U?$copy_iterator_rangeF@V?$basic_string@DU?$char_traits@D@std@@V?$allocator@D@2@@std@@PBD@detail@algorithm@boost@@V?$split_iterator@PBD@34@Uuse_default@iterators@4@U674@@iterators@boost@@$0A@@?$vector@V?$basic_string@DU?$char_traits@D@std@@V?$allocator@D@2@@std@@V?$allocator@V?$basic_string@DU?$char_traits@D@std@@V?$allocator@D@2@@std@@@2@@std@@QAE@V?$transform_iterator@U?$copy_iterator_rangeF@V?$basic_string@DU?$char_traits@D@std@@V?$allocator@D@2@@std@@PBD@detail@algorithm@boost@@V?$split_iterator@PBD@34@Uuse_default@iterators@4@U674@@iterators@boost@@0ABV?$allocator@V?$basic_string@DU?$char_traits@D@std@@V?$allocator@D@2@@std@@@1@@Z$4
	DD	04H
	DD	FLAT:__unwindfunclet$??$?0V?$transform_iterator@U?$copy_iterator_rangeF@V?$basic_string@DU?$char_traits@D@std@@V?$allocator@D@2@@std@@PBD@detail@algorithm@boost@@V?$split_iterator@PBD@34@Uuse_default@iterators@4@U674@@iterators@boost@@$0A@@?$vector@V?$basic_string@DU?$char_traits@D@std@@V?$allocator@D@2@@std@@V?$allocator@V?$basic_string@DU?$char_traits@D@std@@V?$allocator@D@2@@std@@@2@@std@@QAE@V?$transform_iterator@U?$copy_iterator_rangeF@V?$basic_string@DU?$char_traits@D@std@@V?$allocator@D@2@@std@@PBD@detail@algorithm@boost@@V?$split_iterator@PBD@34@Uuse_default@iterators@4@U674@@iterators@boost@@0ABV?$allocator@V?$basic_string@DU?$char_traits@D@std@@V?$allocator@D@2@@std@@@1@@Z$5
	DD	02H
	DD	FLAT:___std_terminate
	DD	01H
	DD	FLAT:___std_terminate
	DD	00H
	DD	FLAT:___std_terminate
	DD	0ffffffffH
	DD	FLAT:___std_terminate
xdata$x	ENDS
;	COMDAT xdata$x
xdata$x	SEGMENT
__ehfuncinfo$??1?$find_iterator_base@PBD@detail@algorithm@boost@@IAE@XZ DQ 00000000119930522r ; 2.33398e-314
	DD	FLAT:__unwindtable$??1?$find_iterator_base@PBD@detail@algorithm@boost@@IAE@XZ
	DQ	00000000000000000r		; 0
	DQ	00000000000000000r		; 0
	DQ	00000000500000000r		; 1.061e-313
__unwindtable$??1?$find_iterator_base@PBD@detail@algorithm@boost@@IAE@XZ DD 0ffffffffH
	DD	FLAT:___std_terminate
xdata$x	ENDS
;	COMDAT xdata$x
xdata$x	SEGMENT
__ehfuncinfo$??$?0U?$token_finderF@U?$is_any_ofF@D@detail@algorithm@boost@@@detail@algorithm@boost@@@?$find_iterator_base@PBD@detail@algorithm@boost@@IAE@U?$token_finderF@U?$is_any_ofF@D@detail@algorithm@boost@@@123@H@Z DQ 00000000319930522r ; 6.57797e-314
	DD	FLAT:__unwindtable$??$?0U?$token_finderF@U?$is_any_ofF@D@detail@algorithm@boost@@@detail@algorithm@boost@@@?$find_iterator_base@PBD@detail@algorithm@boost@@IAE@U?$token_finderF@U?$is_any_ofF@D@detail@algorithm@boost@@@123@H@Z
	DQ	00000000000000000r		; 0
	DQ	00000000000000000r		; 0
	DQ	00000000100000000r		; 2.122e-314
__unwindtable$??$?0U?$token_finderF@U?$is_any_ofF@D@detail@algorithm@boost@@@detail@algorithm@boost@@@?$find_iterator_base@PBD@detail@algorithm@boost@@IAE@U?$token_finderF@U?$is_any_ofF@D@detail@algorithm@boost@@@123@H@Z DD 0ffffffffH
	DD	FLAT:__unwindfunclet$??$?0U?$token_finderF@U?$is_any_ofF@D@detail@algorithm@boost@@@detail@algorithm@boost@@@?$find_iterator_base@PBD@detail@algorithm@boost@@IAE@U?$token_finderF@U?$is_any_ofF@D@detail@algorithm@boost@@@123@H@Z$0
	DD	00H
	DD	FLAT:__unwindfunclet$??$?0U?$token_finderF@U?$is_any_ofF@D@detail@algorithm@boost@@@detail@algorithm@boost@@@?$find_iterator_base@PBD@detail@algorithm@boost@@IAE@U?$token_finderF@U?$is_any_ofF@D@detail@algorithm@boost@@@123@H@Z$4
	DD	01H
	DD	FLAT:__unwindfunclet$??$?0U?$token_finderF@U?$is_any_ofF@D@detail@algorithm@boost@@@detail@algorithm@boost@@@?$find_iterator_base@PBD@detail@algorithm@boost@@IAE@U?$token_finderF@U?$is_any_ofF@D@detail@algorithm@boost@@@123@H@Z$7
xdata$x	ENDS
;	COMDAT xdata$x
xdata$x	SEGMENT
__ehfuncinfo$??$_Append_uncounted_range@V?$transform_iterator@U?$copy_iterator_rangeF@V?$basic_string@DU?$char_traits@D@std@@V?$allocator@D@2@@std@@PBD@detail@algorithm@boost@@V?$split_iterator@PBD@34@Uuse_default@iterators@4@U674@@iterators@boost@@V123@@?$vector@V?$basic_string@DU?$char_traits@D@std@@V?$allocator@D@2@@std@@V?$allocator@V?$basic_string@DU?$char_traits@D@std@@V?$allocator@D@2@@std@@@2@@std@@AAEXV?$transform_iterator@U?$copy_iterator_rangeF@V?$basic_string@DU?$char_traits@D@std@@V?$allocator@D@2@@std@@PBD@detail@algorithm@boost@@V?$split_iterator@PBD@34@Uuse_default@iterators@4@U674@@iterators@boost@@V234@@Z DQ 00000000519930522r ; 1.0822e-313
	DD	FLAT:__unwindtable$??$_Append_uncounted_range@V?$transform_iterator@U?$copy_iterator_rangeF@V?$basic_string@DU?$char_traits@D@std@@V?$allocator@D@2@@std@@PBD@detail@algorithm@boost@@V?$split_iterator@PBD@34@Uuse_default@iterators@4@U674@@iterators@boost@@V123@@?$vector@V?$basic_string@DU?$char_traits@D@std@@V?$allocator@D@2@@std@@V?$allocator@V?$basic_string@DU?$char_traits@D@std@@V?$allocator@D@2@@std@@@2@@std@@AAEXV?$transform_iterator@U?$copy_iterator_rangeF@V?$basic_string@DU?$char_traits@D@std@@V?$allocator@D@2@@std@@PBD@detail@algorithm@boost@@V?$split_iterator@PBD@34@Uuse_default@iterators@4@U674@@iterators@boost@@V234@@Z
	DQ	00000000000000000r		; 0
	DQ	00000000000000000r		; 0
	DQ	00000000100000000r		; 2.122e-314
__unwindtable$??$_Append_uncounted_range@V?$transform_iterator@U?$copy_iterator_rangeF@V?$basic_string@DU?$char_traits@D@std@@V?$allocator@D@2@@std@@PBD@detail@algorithm@boost@@V?$split_iterator@PBD@34@Uuse_default@iterators@4@U674@@iterators@boost@@V123@@?$vector@V?$basic_string@DU?$char_traits@D@std@@V?$allocator@D@2@@std@@V?$allocator@V?$basic_string@DU?$char_traits@D@std@@V?$allocator@D@2@@std@@@2@@std@@AAEXV?$transform_iterator@U?$copy_iterator_rangeF@V?$basic_string@DU?$char_traits@D@std@@V?$allocator@D@2@@std@@PBD@detail@algorithm@boost@@V?$split_iterator@PBD@34@Uuse_default@iterators@4@U674@@iterators@boost@@V234@@Z DD 0ffffffffH
	DD	FLAT:__unwindfunclet$??$_Append_uncounted_range@V?$transform_iterator@U?$copy_iterator_rangeF@V?$basic_string@DU?$char_traits@D@std@@V?$allocator@D@2@@std@@PBD@detail@algorithm@boost@@V?$split_iterator@PBD@34@Uuse_default@iterators@4@U674@@iterators@boost@@V123@@?$vector@V?$basic_string@DU?$char_traits@D@std@@V?$allocator@D@2@@std@@V?$allocator@V?$basic_string@DU?$char_traits@D@std@@V?$allocator@D@2@@std@@@2@@std@@AAEXV?$transform_iterator@U?$copy_iterator_rangeF@V?$basic_string@DU?$char_traits@D@std@@V?$allocator@D@2@@std@@PBD@detail@algorithm@boost@@V?$split_iterator@PBD@34@Uuse_default@iterators@4@U674@@iterators@boost@@V234@@Z$0
	DD	00H
	DD	FLAT:__unwindfunclet$??$_Append_uncounted_range@V?$transform_iterator@U?$copy_iterator_rangeF@V?$basic_string@DU?$char_traits@D@std@@V?$allocator@D@2@@std@@PBD@detail@algorithm@boost@@V?$split_iterator@PBD@34@Uuse_default@iterators@4@U674@@iterators@boost@@V123@@?$vector@V?$basic_string@DU?$char_traits@D@std@@V?$allocator@D@2@@std@@V?$allocator@V?$basic_string@DU?$char_traits@D@std@@V?$allocator@D@2@@std@@@2@@std@@AAEXV?$transform_iterator@U?$copy_iterator_rangeF@V?$basic_string@DU?$char_traits@D@std@@V?$allocator@D@2@@std@@PBD@detail@algorithm@boost@@V?$split_iterator@PBD@34@Uuse_default@iterators@4@U674@@iterators@boost@@V234@@Z$1
	DD	01H
	DD	FLAT:__unwindfunclet$??$_Append_uncounted_range@V?$transform_iterator@U?$copy_iterator_rangeF@V?$basic_string@DU?$char_traits@D@std@@V?$allocator@D@2@@std@@PBD@detail@algorithm@boost@@V?$split_iterator@PBD@34@Uuse_default@iterators@4@U674@@iterators@boost@@V123@@?$vector@V?$basic_string@DU?$char_traits@D@std@@V?$allocator@D@2@@std@@V?$allocator@V?$basic_string@DU?$char_traits@D@std@@V?$allocator@D@2@@std@@@2@@std@@AAEXV?$transform_iterator@U?$copy_iterator_rangeF@V?$basic_string@DU?$char_traits@D@std@@V?$allocator@D@2@@std@@PBD@detail@algorithm@boost@@V?$split_iterator@PBD@34@Uuse_default@iterators@4@U674@@iterators@boost@@V234@@Z$2
	DD	00H
	DD	FLAT:___std_terminate
	DD	0ffffffffH
	DD	FLAT:___std_terminate
xdata$x	ENDS
;	COMDAT xdata$x
xdata$x	SEGMENT
__ehfuncinfo$??1?$function2@V?$iterator_range@PBD@boost@@PBDPBD@boost@@QAE@XZ DQ 00000000019930522r ; 2.11987e-315
	DQ	00000000000000000r		; 0
	DQ	00000000000000000r		; 0
	DQ	00000000000000000r		; 0
	DD	05H
xdata$x	ENDS
;	COMDAT xdata$x
xdata$x	SEGMENT
__ehfuncinfo$?increment@?$split_iterator@PBD@algorithm@boost@@AAEXXZ DQ 00000000119930522r ; 2.33398e-314
	DD	FLAT:__unwindtable$?increment@?$split_iterator@PBD@algorithm@boost@@AAEXXZ
	DQ	00000000000000000r		; 0
	DQ	00000000000000000r		; 0
	DQ	00000000100000000r		; 2.122e-314
__unwindtable$?increment@?$split_iterator@PBD@algorithm@boost@@AAEXXZ DQ 000000000ffffffffr ; 2.122e-314
xdata$x	ENDS
;	COMDAT xdata$x
xdata$x	SEGMENT
__ehfuncinfo$??$?0U?$token_finderF@U?$is_any_ofF@D@detail@algorithm@boost@@@detail@algorithm@boost@@@?$function2@V?$iterator_range@PBD@boost@@PBDPBD@boost@@QAE@U?$token_finderF@U?$is_any_ofF@D@detail@algorithm@boost@@@detail@algorithm@1@H@Z DQ 00000000219930522r ; 4.45598e-314
	DD	FLAT:__unwindtable$??$?0U?$token_finderF@U?$is_any_ofF@D@detail@algorithm@boost@@@detail@algorithm@boost@@@?$function2@V?$iterator_range@PBD@boost@@PBDPBD@boost@@QAE@U?$token_finderF@U?$is_any_ofF@D@detail@algorithm@boost@@@detail@algorithm@1@H@Z
	DQ	00000000000000000r		; 0
	DQ	00000000000000000r		; 0
	DQ	00000000100000000r		; 2.122e-314
__unwindtable$??$?0U?$token_finderF@U?$is_any_ofF@D@detail@algorithm@boost@@@detail@algorithm@boost@@@?$function2@V?$iterator_range@PBD@boost@@PBDPBD@boost@@QAE@U?$token_finderF@U?$is_any_ofF@D@detail@algorithm@boost@@@detail@algorithm@1@H@Z DD 0ffffffffH
	DD	FLAT:__unwindfunclet$??$?0U?$token_finderF@U?$is_any_ofF@D@detail@algorithm@boost@@@detail@algorithm@boost@@@?$function2@V?$iterator_range@PBD@boost@@PBDPBD@boost@@QAE@U?$token_finderF@U?$is_any_ofF@D@detail@algorithm@boost@@@detail@algorithm@1@H@Z$0
	DD	00H
	DD	FLAT:__unwindfunclet$??$?0U?$token_finderF@U?$is_any_ofF@D@detail@algorithm@boost@@@detail@algorithm@boost@@@?$function2@V?$iterator_range@PBD@boost@@PBDPBD@boost@@QAE@U?$token_finderF@U?$is_any_ofF@D@detail@algorithm@boost@@@detail@algorithm@1@H@Z$3
xdata$x	ENDS
;	COMDAT xdata$x
xdata$x	SEGMENT
__ehfuncinfo$?do_find@?$find_iterator_base@PBD@detail@algorithm@boost@@IBE?AV?$iterator_range@PBD@4@PBD0@Z DQ 00000000119930522r ; 2.33398e-314
	DD	FLAT:__unwindtable$?do_find@?$find_iterator_base@PBD@detail@algorithm@boost@@IBE?AV?$iterator_range@PBD@4@PBD0@Z
	DQ	00000000000000000r		; 0
	DQ	00000000000000000r		; 0
	DQ	00000000100000000r		; 2.122e-314
__unwindtable$?do_find@?$find_iterator_base@PBD@detail@algorithm@boost@@IBE?AV?$iterator_range@PBD@4@PBD0@Z DQ 000000000ffffffffr ; 2.122e-314
xdata$x	ENDS
;	COMDAT xdata$x
xdata$x	SEGMENT
__ehfuncinfo$??$assign_to@U?$token_finderF@U?$is_any_ofF@D@detail@algorithm@boost@@@detail@algorithm@boost@@@?$function2@V?$iterator_range@PBD@boost@@PBDPBD@boost@@AAEXU?$token_finderF@U?$is_any_ofF@D@detail@algorithm@boost@@@detail@algorithm@1@@Z DQ 00000000119930522r ; 2.33398e-314
	DD	FLAT:__unwindtable$??$assign_to@U?$token_finderF@U?$is_any_ofF@D@detail@algorithm@boost@@@detail@algorithm@boost@@@?$function2@V?$iterator_range@PBD@boost@@PBDPBD@boost@@AAEXU?$token_finderF@U?$is_any_ofF@D@detail@algorithm@boost@@@detail@algorithm@1@@Z
	DQ	00000000000000000r		; 0
	DQ	00000000000000000r		; 0
	DQ	00000000100000000r		; 2.122e-314
__unwindtable$??$assign_to@U?$token_finderF@U?$is_any_ofF@D@detail@algorithm@boost@@@detail@algorithm@boost@@@?$function2@V?$iterator_range@PBD@boost@@PBDPBD@boost@@AAEXU?$token_finderF@U?$is_any_ofF@D@detail@algorithm@boost@@@detail@algorithm@1@@Z DD 0ffffffffH
	DD	FLAT:__unwindfunclet$??$assign_to@U?$token_finderF@U?$is_any_ofF@D@detail@algorithm@boost@@@detail@algorithm@boost@@@?$function2@V?$iterator_range@PBD@boost@@PBDPBD@boost@@AAEXU?$token_finderF@U?$is_any_ofF@D@detail@algorithm@boost@@@detail@algorithm@1@@Z$0
xdata$x	ENDS
;	COMDAT xdata$x
xdata$x	SEGMENT
__ehfuncinfo$??R?$function2@V?$iterator_range@PBD@boost@@PBDPBD@boost@@QBE?AV?$iterator_range@PBD@1@PBD0@Z DQ 00000000119930522r ; 2.33398e-314
	DD	FLAT:__unwindtable$??R?$function2@V?$iterator_range@PBD@boost@@PBDPBD@boost@@QBE?AV?$iterator_range@PBD@1@PBD0@Z
	DQ	00000000000000000r		; 0
	DQ	00000000000000000r		; 0
	DQ	00000000100000000r		; 2.122e-314
__unwindtable$??R?$function2@V?$iterator_range@PBD@boost@@PBDPBD@boost@@QBE?AV?$iterator_range@PBD@1@PBD0@Z DD 0ffffffffH
	DD	FLAT:__unwindfunclet$??R?$function2@V?$iterator_range@PBD@boost@@PBDPBD@boost@@QBE?AV?$iterator_range@PBD@1@PBD0@Z$0
xdata$x	ENDS
;	COMDAT xdata$x
xdata$x	SEGMENT
__ehfuncinfo$??$assign_to@U?$token_finderF@U?$is_any_ofF@D@detail@algorithm@boost@@@detail@algorithm@boost@@@?$basic_vtable2@V?$iterator_range@PBD@boost@@PBDPBD@function@detail@boost@@QBE_NU?$token_finderF@U?$is_any_ofF@D@detail@algorithm@boost@@@2algorithm@3@AATfunction_buffer@123@@Z DQ 00000000319930522r ; 6.57797e-314
	DD	FLAT:__unwindtable$??$assign_to@U?$token_finderF@U?$is_any_ofF@D@detail@algorithm@boost@@@detail@algorithm@boost@@@?$basic_vtable2@V?$iterator_range@PBD@boost@@PBDPBD@function@detail@boost@@QBE_NU?$token_finderF@U?$is_any_ofF@D@detail@algorithm@boost@@@2algorithm@3@AATfunction_buffer@123@@Z
	DQ	00000000000000000r		; 0
	DQ	00000000000000000r		; 0
	DQ	00000000100000000r		; 2.122e-314
__unwindtable$??$assign_to@U?$token_finderF@U?$is_any_ofF@D@detail@algorithm@boost@@@detail@algorithm@boost@@@?$basic_vtable2@V?$iterator_range@PBD@boost@@PBDPBD@function@detail@boost@@QBE_NU?$token_finderF@U?$is_any_ofF@D@detail@algorithm@boost@@@2algorithm@3@AATfunction_buffer@123@@Z DD 0ffffffffH
	DD	FLAT:__unwindfunclet$??$assign_to@U?$token_finderF@U?$is_any_ofF@D@detail@algorithm@boost@@@detail@algorithm@boost@@@?$basic_vtable2@V?$iterator_range@PBD@boost@@PBDPBD@function@detail@boost@@QBE_NU?$token_finderF@U?$is_any_ofF@D@detail@algorithm@boost@@@2algorithm@3@AATfunction_buffer@123@@Z$0
	DD	00H
	DD	FLAT:__unwindfunclet$??$assign_to@U?$token_finderF@U?$is_any_ofF@D@detail@algorithm@boost@@@detail@algorithm@boost@@@?$basic_vtable2@V?$iterator_range@PBD@boost@@PBDPBD@function@detail@boost@@QBE_NU?$token_finderF@U?$is_any_ofF@D@detail@algorithm@boost@@@2algorithm@3@AATfunction_buffer@123@@Z$3
	DD	01H
	DD	FLAT:__unwindfunclet$??$assign_to@U?$token_finderF@U?$is_any_ofF@D@detail@algorithm@boost@@@detail@algorithm@boost@@@?$basic_vtable2@V?$iterator_range@PBD@boost@@PBDPBD@function@detail@boost@@QBE_NU?$token_finderF@U?$is_any_ofF@D@detail@algorithm@boost@@@2algorithm@3@AATfunction_buffer@123@@Z$6
xdata$x	ENDS
;	COMDAT xdata$x
xdata$x	SEGMENT
__ehfuncinfo$??$assign_to@U?$token_finderF@U?$is_any_ofF@D@detail@algorithm@boost@@@detail@algorithm@boost@@@?$basic_vtable2@V?$iterator_range@PBD@boost@@PBDPBD@function@detail@boost@@ABE_NU?$token_finderF@U?$is_any_ofF@D@detail@algorithm@boost@@@2algorithm@3@AATfunction_buffer@123@Ufunction_obj_tag@123@@Z DQ 00000000219930522r ; 4.45598e-314
	DD	FLAT:__unwindtable$??$assign_to@U?$token_finderF@U?$is_any_ofF@D@detail@algorithm@boost@@@detail@algorithm@boost@@@?$basic_vtable2@V?$iterator_range@PBD@boost@@PBDPBD@function@detail@boost@@ABE_NU?$token_finderF@U?$is_any_ofF@D@detail@algorithm@boost@@@2algorithm@3@AATfunction_buffer@123@Ufunction_obj_tag@123@@Z
	DQ	00000000000000000r		; 0
	DQ	00000000000000000r		; 0
	DQ	00000000100000000r		; 2.122e-314
__unwindtable$??$assign_to@U?$token_finderF@U?$is_any_ofF@D@detail@algorithm@boost@@@detail@algorithm@boost@@@?$basic_vtable2@V?$iterator_range@PBD@boost@@PBDPBD@function@detail@boost@@ABE_NU?$token_finderF@U?$is_any_ofF@D@detail@algorithm@boost@@@2algorithm@3@AATfunction_buffer@123@Ufunction_obj_tag@123@@Z DD 0ffffffffH
	DD	FLAT:__unwindfunclet$??$assign_to@U?$token_finderF@U?$is_any_ofF@D@detail@algorithm@boost@@@detail@algorithm@boost@@@?$basic_vtable2@V?$iterator_range@PBD@boost@@PBDPBD@function@detail@boost@@ABE_NU?$token_finderF@U?$is_any_ofF@D@detail@algorithm@boost@@@2algorithm@3@AATfunction_buffer@123@Ufunction_obj_tag@123@@Z$0
	DD	00H
	DD	FLAT:__unwindfunclet$??$assign_to@U?$token_finderF@U?$is_any_ofF@D@detail@algorithm@boost@@@detail@algorithm@boost@@@?$basic_vtable2@V?$iterator_range@PBD@boost@@PBDPBD@function@detail@boost@@ABE_NU?$token_finderF@U?$is_any_ofF@D@detail@algorithm@boost@@@2algorithm@3@AATfunction_buffer@123@Ufunction_obj_tag@123@@Z$3
xdata$x	ENDS
;	COMDAT xdata$x
xdata$x	SEGMENT
__ehfuncinfo$??$assign_functor@U?$token_finderF@U?$is_any_ofF@D@detail@algorithm@boost@@@detail@algorithm@boost@@@?$basic_vtable2@V?$iterator_range@PBD@boost@@PBDPBD@function@detail@boost@@ABEXU?$token_finderF@U?$is_any_ofF@D@detail@algorithm@boost@@@2algorithm@3@AATfunction_buffer@123@U?$bool_@$00@mpl@3@@Z DQ 00000000119930522r ; 2.33398e-314
	DD	FLAT:__unwindtable$??$assign_functor@U?$token_finderF@U?$is_any_ofF@D@detail@algorithm@boost@@@detail@algorithm@boost@@@?$basic_vtable2@V?$iterator_range@PBD@boost@@PBDPBD@function@detail@boost@@ABEXU?$token_finderF@U?$is_any_ofF@D@detail@algorithm@boost@@@2algorithm@3@AATfunction_buffer@123@U?$bool_@$00@mpl@3@@Z
	DQ	00000000000000000r		; 0
	DQ	00000000000000000r		; 0
	DQ	00000000100000000r		; 2.122e-314
__unwindtable$??$assign_functor@U?$token_finderF@U?$is_any_ofF@D@detail@algorithm@boost@@@detail@algorithm@boost@@@?$basic_vtable2@V?$iterator_range@PBD@boost@@PBDPBD@function@detail@boost@@ABEXU?$token_finderF@U?$is_any_ofF@D@detail@algorithm@boost@@@2algorithm@3@AATfunction_buffer@123@U?$bool_@$00@mpl@3@@Z DD 0ffffffffH
	DD	FLAT:__unwindfunclet$??$assign_functor@U?$token_finderF@U?$is_any_ofF@D@detail@algorithm@boost@@@detail@algorithm@boost@@@?$basic_vtable2@V?$iterator_range@PBD@boost@@PBDPBD@function@detail@boost@@ABEXU?$token_finderF@U?$is_any_ofF@D@detail@algorithm@boost@@@2algorithm@3@AATfunction_buffer@123@U?$bool_@$00@mpl@3@@Z$0
?NPOS@@3USItemPos@@B DW 0ff00H				; NPOS
	DB	0ffH
END
