; Listing generated by Microsoft (R) Optimizing Compiler Version 19.44.35219.0 

	TITLE	c:\anka2project\anka2project\source\binary\vs_files\userinterface\release\userinterface.obj
	.686P
	.XMM
	include listing.inc
	.model	flat

INCLUDELIB OLDNAMES

PUBLIC	??_C@_0N@CMMKLLC@UserDict?4pyc@			; `string'
PUBLIC	??_C@_0N@GCNFBOJN@copy_reg?4pyc@		; `string'
PUBLIC	??_C@_0P@KBODAEKE@__future__?4pyc@		; `string'
PUBLIC	??_C@_0L@HJCEJGHC@ntpath?4pyc@			; `string'
PUBLIC	??_C@_0O@COBIIGAD@linecache?4pyc@		; `string'
PUBLIC	??_C@_08FPFMJPEC@site?4pyc@			; `string'
PUBLIC	??_C@_06JCOFDJKA@os?4pyc@			; `string'
PUBLIC	??_C@_0L@NDKNFNNI@string?4pyc@			; `string'
PUBLIC	??_C@_08EFIONJOP@stat?4pyc@			; `string'
PUBLIC	??_C@_09EHIBBABK@types?4pyc@			; `string'
PUBLIC	??_C@_0O@PMKHJGGH@traceback?4pyc@		; `string'
PUBLIC	??_C@_08GCAMGOFC@pack?1bgm@			; `string'
PUBLIC	??_C@_04HOGMCHDB@lib?2@				; `string'
PUBLIC	??_C@_0L@KHFEEPGE@pack?1guild@			; `string'
PUBLIC	??_C@_0M@OJOBOCDO@pack?1effect@			; `string'
PUBLIC	??_C@_09GODLLBIE@pack?1item@			; `string'
PUBLIC	??_C@_09IFEPAILH@pack?1icon@			; `string'
PUBLIC	??_C@_0N@EJCFPPHF@pack?1monster@		; `string'
PUBLIC	??_C@_0M@EEHBIKCP@pack?1locale@			; `string'
PUBLIC	??_C@_08KPDAEJJB@pack?1npc@			; `string'
PUBLIC	??_C@_0O@MNFGPEDN@pack?1monster2@		; `string'
PUBLIC	??_C@_0N@DHKLPFLL@pack?1npc_pet@		; `string'
PUBLIC	??_C@_0P@IOLIHCBC@pack?1npc_mount@		; `string'
PUBLIC	??_C@_0M@OOBKPPAB@pack?1others@			; `string'
PUBLIC	??_C@_09GKNHMHOK@pack?1npc2@			; `string'
PUBLIC	??_C@_07JJLOCCKD@pack?1pc@			; `string'
PUBLIC	??_C@_0N@DCKMAEKP@pack?1outdoor@		; `string'
PUBLIC	??_C@_0L@MAILMID@pack?1sound@			; `string'
PUBLIC	??_C@_08KCDGBIAB@pack?1pc2@			; `string'
PUBLIC	??_C@_0BA@ILDNBDOM@pack?1textureset@		; `string'
PUBLIC	??_C@_0BB@GJEJEBHI@pack?1terrainmaps@		; `string'
PUBLIC	??_C@_09KOPOJKB@pack?1zone@			; `string'
PUBLIC	??_C@_09BLPJDHGD@pack?1tree@			; `string'
PUBLIC	??_C@_0M@EILMOIBE@__builtin__@			; `string'
PUBLIC	??_C@_04NBFCGMPH@root@				; `string'
PUBLIC	??_C@_0BH@NBEHHPDF@__USE_DYNAMIC_MODULE__@	; `string'
PUBLIC	??_C@_09KMAGPBGM@__DEBUG__@			; `string'
PUBLIC	??_C@_04JFPGDMCL@?9ncs@				; `string'
PUBLIC	??_C@_03MCGAAIEM@?9cs@				; `string'
PUBLIC	??_C@_0BK@DPMNHJLC@RegisterCommandLine?5Error@	; `string'
PUBLIC	??_C@_0BE@FPKDPBJI@__COMMAND_LINE__?5?$DN?5@	; `string'
PUBLIC	??_C@_05PDJBBECF@pause@				; `string'
PUBLIC	??_C@_0BN@KIGJPBEF@?9?9pause?9before?9create?9window@ ; `string'
PUBLIC	??_C@_0O@BEEPKJML@RunMain?5Error@		; `string'
PUBLIC	??_C@_09LEIJOBCA@system?4py@			; `string'
PUBLIC	??_C@_04IPANLPFO@pack@				; `string'
PUBLIC	??_C@_0L@MFNMKHHD@config?4cfg@			; `string'
PUBLIC	??_C@_0M@PFDHIIAP@eter?4python@			; `string'
PUBLIC	??_C@_0DB@BGMLOPGB@Pack?5Initialization?5failed?4?5Che@ ; `string'
PUBLIC	??_C@_0M@DDFJOLIE@HEADQUARTER@			; `string'
PUBLIC	??_C@_0M@JNAFICFM@headquarter@			; `string'
PUBLIC	??_C@_08HHCOKFGB@FACILITY@			; `string'
PUBLIC	??_C@_08IICJLEG@facility@			; `string'
PUBLIC	??_C@_06IAMCMNFI@OBJECT@			; `string'
PUBLIC	??_C@_06IEOJBDIK@object@			; `string'
PUBLIC	??_C@_04LFAKFAMM@WALL@				; `string'
PUBLIC	??_C@_05EIKACAIN@fence@				; `string'
PUBLIC	??_C@_0CN@OHDPHKKH@FATAL?5ERROR?$CB?$CB?5Python?5Library?5fi@ ; `string'
PUBLIC	??_C@_0BA@OEEELOKH@Metin2GameMutex@		; `string'
PUBLIC	??_C@_0BJ@PLHBCABC@Sun?5Nov?523?520?327?349?52025@ ; `string'
PUBLIC	??_C@_0L@HBFAHJLE@?1timestamp@			; `string'
PUBLIC	??_C@_08LJMAFCGB@?9?9locale@			; `string'
PUBLIC	??_C@_0DL@IHCMKBOK@METIN2?5BINARY?5DISTRIBUTE?5VERSIO@ ; `string'
PUBLIC	??_C@_0BE@FJLABEAB@?9?9perforce?9revision@	; `string'
PUBLIC	??_R2CPythonPlayerSettingsModule@@8		; CPythonPlayerSettingsModule::`RTTI Base Class Array'
PUBLIC	??_R2?$CSingleton@VCPythonPlayerSettingsModule@@@@8 ; CSingleton<CPythonPlayerSettingsModule>::`RTTI Base Class Array'
PUBLIC	??_R1A@?0A@EA@CPythonPlayerSettingsModule@@8	; CPythonPlayerSettingsModule::`RTTI Base Class Descriptor at (0,-1,0,64)'
PUBLIC	??_R1A@?0A@EA@?$CSingleton@VCPythonPlayerSettingsModule@@@@8 ; CSingleton<CPythonPlayerSettingsModule>::`RTTI Base Class Descriptor at (0,-1,0,64)'
PUBLIC	??_R3?$CSingleton@VCPythonPlayerSettingsModule@@@@8 ; CSingleton<CPythonPlayerSettingsModule>::`RTTI Class Hierarchy Descriptor'
PUBLIC	??_R3CPythonPlayerSettingsModule@@8		; CPythonPlayerSettingsModule::`RTTI Class Hierarchy Descriptor'
PUBLIC	??_R0?AV?$CSingleton@VCPythonPlayerSettingsModule@@@@@8 ; CSingleton<CPythonPlayerSettingsModule> `RTTI Type Descriptor'
PUBLIC	??_R0?AVCPythonPlayerSettingsModule@@@8		; CPythonPlayerSettingsModule `RTTI Type Descriptor'
PUBLIC	??_R4?$CSingleton@VCPythonPlayerSettingsModule@@@@6B@ ; CSingleton<CPythonPlayerSettingsModule>::`RTTI Complete Object Locator'
PUBLIC	??_R4CPythonPlayerSettingsModule@@6B@		; CPythonPlayerSettingsModule::`RTTI Complete Object Locator'
PUBLIC	??_7?$CSingleton@VCPythonPlayerSettingsModule@@@@6B@ ; CSingleton<CPythonPlayerSettingsModule>::`vftable'
PUBLIC	??_7CPythonPlayerSettingsModule@@6B@		; CPythonPlayerSettingsModule::`vftable'
PUBLIC	_NvOptimusEnablement
PUBLIC	_AmdPowerXpressRequestHighPerformance
EXTRN	__imp__timeBeginPeriod@4:PROC
EXTRN	__imp__GrannySetLogCallback@4:PROC
EXTRN	__imp__timeGetDevCaps@8:PROC
EXTRN	?MINMAX@@YAHHHH@Z:PROC				; MINMAX
EXTRN	_WebBrowser_Cleanup:PROC
EXTRN	__imp__CoUninitialize@0:PROC
EXTRN	__imp__GlobalFree@4:PROC
EXTRN	?LogBoxf@@YAXPBDZZ:PROC				; LogBoxf
EXTRN	?CommandLineToArgv@@YAPAPADPADPAH@Z:PROC	; CommandLineToArgv
EXTRN	_WebBrowser_Startup:PROC
EXTRN	__imp__CreateMutexA@12:PROC
EXTRN	__imp__ReleaseMutex@4:PROC
EXTRN	?Clear@CPythonLauncher@@QAEXXZ:PROC		; CPythonLauncher::Clear
EXTRN	??1CEterPackManager@@UAE@XZ:PROC		; CEterPackManager::~CEterPackManager
EXTRN	??1CLZO@@UAE@XZ:PROC				; CLZO::~CLZO
EXTRN	?SetExceptionSender@@YAXPAVIPythonExceptionSender@@@Z:PROC ; SetExceptionSender
EXTRN	?Create@CPythonLauncher@@QAE_NPBD@Z:PROC	; CPythonLauncher::Create
EXTRN	__imp__timeEndPeriod@4:PROC
EXTRN	?Initialize@CMSApplication@@QAEXPAUHINSTANCE__@@@Z:PROC ; CMSApplication::Initialize
EXTRN	??0CPythonLauncher@@QAE@XZ:PROC			; CPythonLauncher::CPythonLauncher
EXTRN	??1CPythonLauncher@@UAE@XZ:PROC			; CPythonLauncher::~CPythonLauncher
EXTRN	??0CEterPackManager@@QAE@XZ:PROC		; CEterPackManager::CEterPackManager
EXTRN	??0CLZO@@QAE@XZ:PROC				; CLZO::CLZO
EXTRN	?OpenLogFile@@YAX_N@Z:PROC			; OpenLogFile
EXTRN	?srandom@@YAXK@Z:PROC				; srandom
EXTRN	_srand:PROC
EXTRN	?SetLogLevel@@YAXI@Z:PROC			; SetLogLevel
EXTRN	__imp__ilInit@0:PROC
EXTRN	?RunLine@CPythonLauncher@@QAE_NPBD@Z:PROC	; CPythonLauncher::RunLine
EXTRN	_system:PROC
EXTRN	?initgrpText@@YAXXZ:PROC			; initgrpText
EXTRN	?initwndMgr@@YAXXZ:PROC				; initwndMgr
EXTRN	?SplitLine@@YA_NPBD0PAV?$vector@V?$basic_string@DU?$char_traits@D@std@@V?$allocator@D@2@@std@@V?$allocator@V?$basic_string@DU?$char_traits@D@std@@V?$allocator@D@2@@std@@@2@@std@@@Z:PROC ; SplitLine
EXTRN	?base64_decode@@YAXPBDPAD@Z:PROC		; base64_decode
EXTRN	?RegisterRootPack@CEterPackManager@@QAEXPBD@Z:PROC ; CEterPackManager::RegisterRootPack
EXTRN	?initdbg@@YAXXZ:PROC				; initdbg
EXTRN	?initgrp@@YAXXZ:PROC				; initgrp
EXTRN	?initgrpImage@@YAXXZ:PROC			; initgrpImage
EXTRN	?SetCacheMode@CEterPackManager@@QAEXXZ:PROC	; CEterPackManager::SetCacheMode
EXTRN	?SetSearchMode@CEterPackManager@@QAEX_N@Z:PROC	; CEterPackManager::SetSearchMode
EXTRN	?SetPackMode@CSoundData@@SAXXZ:PROC		; CSoundData::SetPackMode
EXTRN	?RegisterPack@CEterPackManager@@QAE_NPBD0PBE@Z:PROC ; CEterPackManager::RegisterPack
EXTRN	__imp__MoveFileA@8:PROC
EXTRN	?SetCacheMode@CTextFileLoader@@SAXXZ:PROC	; CTextFileLoader::SetCacheMode
EXTRN	__fltused:DWORD
;	COMDAT ??_7CPythonPlayerSettingsModule@@6B@
CONST	SEGMENT
??_7CPythonPlayerSettingsModule@@6B@ DD FLAT:??_R4CPythonPlayerSettingsModule@@6B@ ; CPythonPlayerSettingsModule::`vftable'
	DD	FLAT:??_ECPythonPlayerSettingsModule@@UAEPAXI@Z
CONST	ENDS
;	COMDAT ??_7?$CSingleton@VCPythonPlayerSettingsModule@@@@6B@
CONST	SEGMENT
??_7?$CSingleton@VCPythonPlayerSettingsModule@@@@6B@ DD FLAT:??_R4?$CSingleton@VCPythonPlayerSettingsModule@@@@6B@ ; CSingleton<CPythonPlayerSettingsModule>::`vftable'
	DD	FLAT:??_E?$CSingleton@VCPythonPlayerSettingsModule@@@@UAEPAXI@Z
CONST	ENDS
;	COMDAT ??_R4CPythonPlayerSettingsModule@@6B@
rdata$r	SEGMENT
??_R4CPythonPlayerSettingsModule@@6B@ DD 00H		; CPythonPlayerSettingsModule::`RTTI Complete Object Locator'
	DD	00H
	DD	00H
	DD	FLAT:??_R0?AVCPythonPlayerSettingsModule@@@8
	DD	FLAT:??_R3CPythonPlayerSettingsModule@@8
rdata$r	ENDS
;	COMDAT ??_R4?$CSingleton@VCPythonPlayerSettingsModule@@@@6B@
rdata$r	SEGMENT
??_R4?$CSingleton@VCPythonPlayerSettingsModule@@@@6B@ DD 00H ; CSingleton<CPythonPlayerSettingsModule>::`RTTI Complete Object Locator'
	DD	00H
	DD	00H
	DD	FLAT:??_R0?AV?$CSingleton@VCPythonPlayerSettingsModule@@@@@8
	DD	FLAT:??_R3?$CSingleton@VCPythonPlayerSettingsModule@@@@8
rdata$r	ENDS
;	COMDAT ??_R0?AVCPythonPlayerSettingsModule@@@8
data$rs	SEGMENT
??_R0?AVCPythonPlayerSettingsModule@@@8 DD FLAT:??_7type_info@@6B@ ; CPythonPlayerSettingsModule `RTTI Type Descriptor'
	DD	00H
	DB	'.?AVCPythonPlayerSettingsModule@@', 00H
data$rs	ENDS
;	COMDAT ??_R0?AV?$CSingleton@VCPythonPlayerSettingsModule@@@@@8
data$rs	SEGMENT
??_R0?AV?$CSingleton@VCPythonPlayerSettingsModule@@@@@8 DD FLAT:??_7type_info@@6B@ ; CSingleton<CPythonPlayerSettingsModule> `RTTI Type Descriptor'
	DD	00H
	DB	'.?AV?$CSingleton@VCPythonPlayerSettingsModule@@@@', 00H
data$rs	ENDS
;	COMDAT ??_R3CPythonPlayerSettingsModule@@8
rdata$r	SEGMENT
??_R3CPythonPlayerSettingsModule@@8 DD 00H		; CPythonPlayerSettingsModule::`RTTI Class Hierarchy Descriptor'
	DD	00H
	DD	02H
	DD	FLAT:??_R2CPythonPlayerSettingsModule@@8
rdata$r	ENDS
;	COMDAT ??_R3?$CSingleton@VCPythonPlayerSettingsModule@@@@8
rdata$r	SEGMENT
??_R3?$CSingleton@VCPythonPlayerSettingsModule@@@@8 DD 00H ; CSingleton<CPythonPlayerSettingsModule>::`RTTI Class Hierarchy Descriptor'
	DD	00H
	DD	01H
	DD	FLAT:??_R2?$CSingleton@VCPythonPlayerSettingsModule@@@@8
rdata$r	ENDS
;	COMDAT ??_R1A@?0A@EA@?$CSingleton@VCPythonPlayerSettingsModule@@@@8
rdata$r	SEGMENT
??_R1A@?0A@EA@?$CSingleton@VCPythonPlayerSettingsModule@@@@8 DD FLAT:??_R0?AV?$CSingleton@VCPythonPlayerSettingsModule@@@@@8 ; CSingleton<CPythonPlayerSettingsModule>::`RTTI Base Class Descriptor at (0,-1,0,64)'
	DD	00H
	DD	00H
	DD	0ffffffffH
	DD	00H
	DD	040H
	DD	FLAT:??_R3?$CSingleton@VCPythonPlayerSettingsModule@@@@8
rdata$r	ENDS
;	COMDAT ??_R1A@?0A@EA@CPythonPlayerSettingsModule@@8
rdata$r	SEGMENT
??_R1A@?0A@EA@CPythonPlayerSettingsModule@@8 DD FLAT:??_R0?AVCPythonPlayerSettingsModule@@@8 ; CPythonPlayerSettingsModule::`RTTI Base Class Descriptor at (0,-1,0,64)'
	DD	01H
	DD	00H
	DD	0ffffffffH
	DD	00H
	DD	040H
	DD	FLAT:??_R3CPythonPlayerSettingsModule@@8
rdata$r	ENDS
;	COMDAT ??_R2?$CSingleton@VCPythonPlayerSettingsModule@@@@8
rdata$r	SEGMENT
??_R2?$CSingleton@VCPythonPlayerSettingsModule@@@@8 DD FLAT:??_R1A@?0A@EA@?$CSingleton@VCPythonPlayerSettingsModule@@@@8 ; CSingleton<CPythonPlayerSettingsModule>::`RTTI Base Class Array'
rdata$r	ENDS
;	COMDAT ??_R2CPythonPlayerSettingsModule@@8
rdata$r	SEGMENT
??_R2CPythonPlayerSettingsModule@@8 DD FLAT:??_R1A@?0A@EA@CPythonPlayerSettingsModule@@8 ; CPythonPlayerSettingsModule::`RTTI Base Class Array'
	DD	FLAT:??_R1A@?0A@EA@?$CSingleton@VCPythonPlayerSettingsModule@@@@8
rdata$r	ENDS
;	COMDAT ??_C@_0BE@FJLABEAB@?9?9perforce?9revision@
CONST	SEGMENT
??_C@_0BE@FJLABEAB@?9?9perforce?9revision@ DB '--perforce-revision', 00H ; `string'
CONST	ENDS
;	COMDAT ??_C@_0DL@IHCMKBOK@METIN2?5BINARY?5DISTRIBUTE?5VERSIO@
CONST	SEGMENT
??_C@_0DL@IHCMKBOK@METIN2?5BINARY?5DISTRIBUTE?5VERSIO@ DB 'METIN2 BINARY '
	DB	'DISTRIBUTE VERSION %s ( MS C++ %d Compiled )', 00H ; `string'
CONST	ENDS
;	COMDAT ??_C@_08LJMAFCGB@?9?9locale@
CONST	SEGMENT
??_C@_08LJMAFCGB@?9?9locale@ DB '--locale', 00H		; `string'
CONST	ENDS
;	COMDAT ??_C@_0L@HBFAHJLE@?1timestamp@
CONST	SEGMENT
??_C@_0L@HBFAHJLE@?1timestamp@ DB '/timestamp', 00H	; `string'
CONST	ENDS
;	COMDAT ??_C@_0BJ@PLHBCABC@Sun?5Nov?523?520?327?349?52025@
CONST	SEGMENT
??_C@_0BJ@PLHBCABC@Sun?5Nov?523?520?327?349?52025@ DB 'Sun Nov 23 20:27:4'
	DB	'9 2025', 00H				; `string'
CONST	ENDS
;	COMDAT ??_C@_0BA@OEEELOKH@Metin2GameMutex@
CONST	SEGMENT
??_C@_0BA@OEEELOKH@Metin2GameMutex@ DB 'Metin2GameMutex', 00H ; `string'
CONST	ENDS
;	COMDAT ??_C@_0CN@OHDPHKKH@FATAL?5ERROR?$CB?$CB?5Python?5Library?5fi@
CONST	SEGMENT
??_C@_0CN@OHDPHKKH@FATAL?5ERROR?$CB?$CB?5Python?5Library?5fi@ DB 'FATAL E'
	DB	'RROR!! Python Library file not exist!', 00H	; `string'
CONST	ENDS
;	COMDAT ??_C@_05EIKACAIN@fence@
CONST	SEGMENT
??_C@_05EIKACAIN@fence@ DB 'fence', 00H			; `string'
CONST	ENDS
;	COMDAT ??_C@_04LFAKFAMM@WALL@
CONST	SEGMENT
??_C@_04LFAKFAMM@WALL@ DB 'WALL', 00H			; `string'
CONST	ENDS
;	COMDAT ??_C@_06IEOJBDIK@object@
CONST	SEGMENT
??_C@_06IEOJBDIK@object@ DB 'object', 00H		; `string'
CONST	ENDS
;	COMDAT ??_C@_06IAMCMNFI@OBJECT@
CONST	SEGMENT
??_C@_06IAMCMNFI@OBJECT@ DB 'OBJECT', 00H		; `string'
CONST	ENDS
;	COMDAT ??_C@_08IICJLEG@facility@
CONST	SEGMENT
??_C@_08IICJLEG@facility@ DB 'facility', 00H		; `string'
CONST	ENDS
;	COMDAT ??_C@_08HHCOKFGB@FACILITY@
CONST	SEGMENT
??_C@_08HHCOKFGB@FACILITY@ DB 'FACILITY', 00H		; `string'
CONST	ENDS
;	COMDAT ??_C@_0M@JNAFICFM@headquarter@
CONST	SEGMENT
??_C@_0M@JNAFICFM@headquarter@ DB 'headquarter', 00H	; `string'
CONST	ENDS
;	COMDAT ??_C@_0M@DDFJOLIE@HEADQUARTER@
CONST	SEGMENT
??_C@_0M@DDFJOLIE@HEADQUARTER@ DB 'HEADQUARTER', 00H	; `string'
CONST	ENDS
;	COMDAT ??_C@_0DB@BGMLOPGB@Pack?5Initialization?5failed?4?5Che@
CONST	SEGMENT
??_C@_0DB@BGMLOPGB@Pack?5Initialization?5failed?4?5Che@ DB 'Pack Initiali'
	DB	'zation failed. Check log.txt file..', 00H	; `string'
CONST	ENDS
;	COMDAT ??_C@_0M@PFDHIIAP@eter?4python@
CONST	SEGMENT
??_C@_0M@PFDHIIAP@eter?4python@ DB 'eter.python', 00H	; `string'
CONST	ENDS
;	COMDAT ??_C@_0L@MFNMKHHD@config?4cfg@
CONST	SEGMENT
??_C@_0L@MFNMKHHD@config?4cfg@ DB 'config.cfg', 00H	; `string'
CONST	ENDS
;	COMDAT ??_C@_04IPANLPFO@pack@
CONST	SEGMENT
??_C@_04IPANLPFO@pack@ DB 'pack', 00H			; `string'
CONST	ENDS
;	COMDAT ??_C@_09LEIJOBCA@system?4py@
CONST	SEGMENT
??_C@_09LEIJOBCA@system?4py@ DB 'system.py', 00H	; `string'
CONST	ENDS
;	COMDAT ??_C@_0O@BEEPKJML@RunMain?5Error@
CONST	SEGMENT
??_C@_0O@BEEPKJML@RunMain?5Error@ DB 'RunMain Error', 00H ; `string'
CONST	ENDS
;	COMDAT ??_C@_0BN@KIGJPBEF@?9?9pause?9before?9create?9window@
CONST	SEGMENT
??_C@_0BN@KIGJPBEF@?9?9pause?9before?9create?9window@ DB '--pause-before-'
	DB	'create-window', 00H				; `string'
CONST	ENDS
;	COMDAT ??_C@_05PDJBBECF@pause@
CONST	SEGMENT
??_C@_05PDJBBECF@pause@ DB 'pause', 00H			; `string'
CONST	ENDS
;	COMDAT ??_C@_0BE@FPKDPBJI@__COMMAND_LINE__?5?$DN?5@
CONST	SEGMENT
??_C@_0BE@FPKDPBJI@__COMMAND_LINE__?5?$DN?5@ DB '__COMMAND_LINE__ = ', 00H ; `string'
CONST	ENDS
;	COMDAT ??_C@_0BK@DPMNHJLC@RegisterCommandLine?5Error@
CONST	SEGMENT
??_C@_0BK@DPMNHJLC@RegisterCommandLine?5Error@ DB 'RegisterCommandLine Er'
	DB	'ror', 00H					; `string'
CONST	ENDS
;	COMDAT ??_C@_03MCGAAIEM@?9cs@
CONST	SEGMENT
??_C@_03MCGAAIEM@?9cs@ DB '-cs', 00H			; `string'
CONST	ENDS
;	COMDAT ??_C@_04JFPGDMCL@?9ncs@
CONST	SEGMENT
??_C@_04JFPGDMCL@?9ncs@ DB '-ncs', 00H			; `string'
CONST	ENDS
;	COMDAT ??_C@_09KMAGPBGM@__DEBUG__@
CONST	SEGMENT
??_C@_09KMAGPBGM@__DEBUG__@ DB '__DEBUG__', 00H		; `string'
CONST	ENDS
;	COMDAT ??_C@_0BH@NBEHHPDF@__USE_DYNAMIC_MODULE__@
CONST	SEGMENT
??_C@_0BH@NBEHHPDF@__USE_DYNAMIC_MODULE__@ DB '__USE_DYNAMIC_MODULE__', 00H ; `string'
CONST	ENDS
;	COMDAT ??_C@_04NBFCGMPH@root@
CONST	SEGMENT
??_C@_04NBFCGMPH@root@ DB 'root', 00H			; `string'
CONST	ENDS
;	COMDAT ??_C@_0M@EILMOIBE@__builtin__@
CONST	SEGMENT
??_C@_0M@EILMOIBE@__builtin__@ DB '__builtin__', 00H	; `string'
CONST	ENDS
;	COMDAT ??_C@_09BLPJDHGD@pack?1tree@
CONST	SEGMENT
??_C@_09BLPJDHGD@pack?1tree@ DB 'pack/tree', 00H	; `string'
CONST	ENDS
;	COMDAT ??_C@_09KOPOJKB@pack?1zone@
CONST	SEGMENT
??_C@_09KOPOJKB@pack?1zone@ DB 'pack/zone', 00H		; `string'
CONST	ENDS
;	COMDAT ??_C@_0BB@GJEJEBHI@pack?1terrainmaps@
CONST	SEGMENT
??_C@_0BB@GJEJEBHI@pack?1terrainmaps@ DB 'pack/terrainmaps', 00H ; `string'
CONST	ENDS
;	COMDAT ??_C@_0BA@ILDNBDOM@pack?1textureset@
CONST	SEGMENT
??_C@_0BA@ILDNBDOM@pack?1textureset@ DB 'pack/textureset', 00H ; `string'
CONST	ENDS
;	COMDAT ??_C@_08KCDGBIAB@pack?1pc2@
CONST	SEGMENT
??_C@_08KCDGBIAB@pack?1pc2@ DB 'pack/pc2', 00H		; `string'
CONST	ENDS
;	COMDAT ??_C@_0L@MAILMID@pack?1sound@
CONST	SEGMENT
??_C@_0L@MAILMID@pack?1sound@ DB 'pack/sound', 00H	; `string'
CONST	ENDS
;	COMDAT ??_C@_0N@DCKMAEKP@pack?1outdoor@
CONST	SEGMENT
??_C@_0N@DCKMAEKP@pack?1outdoor@ DB 'pack/outdoor', 00H	; `string'
CONST	ENDS
;	COMDAT ??_C@_07JJLOCCKD@pack?1pc@
CONST	SEGMENT
??_C@_07JJLOCCKD@pack?1pc@ DB 'pack/pc', 00H		; `string'
CONST	ENDS
;	COMDAT ??_C@_09GKNHMHOK@pack?1npc2@
CONST	SEGMENT
??_C@_09GKNHMHOK@pack?1npc2@ DB 'pack/npc2', 00H	; `string'
CONST	ENDS
;	COMDAT ??_C@_0M@OOBKPPAB@pack?1others@
CONST	SEGMENT
??_C@_0M@OOBKPPAB@pack?1others@ DB 'pack/others', 00H	; `string'
CONST	ENDS
;	COMDAT ??_C@_0P@IOLIHCBC@pack?1npc_mount@
CONST	SEGMENT
??_C@_0P@IOLIHCBC@pack?1npc_mount@ DB 'pack/npc_mount', 00H ; `string'
CONST	ENDS
;	COMDAT ??_C@_0N@DHKLPFLL@pack?1npc_pet@
CONST	SEGMENT
??_C@_0N@DHKLPFLL@pack?1npc_pet@ DB 'pack/npc_pet', 00H	; `string'
CONST	ENDS
;	COMDAT ??_C@_0O@MNFGPEDN@pack?1monster2@
CONST	SEGMENT
??_C@_0O@MNFGPEDN@pack?1monster2@ DB 'pack/monster2', 00H ; `string'
CONST	ENDS
;	COMDAT ??_C@_08KPDAEJJB@pack?1npc@
CONST	SEGMENT
??_C@_08KPDAEJJB@pack?1npc@ DB 'pack/npc', 00H		; `string'
CONST	ENDS
;	COMDAT ??_C@_0M@EEHBIKCP@pack?1locale@
CONST	SEGMENT
??_C@_0M@EEHBIKCP@pack?1locale@ DB 'pack/locale', 00H	; `string'
CONST	ENDS
;	COMDAT ??_C@_0N@EJCFPPHF@pack?1monster@
CONST	SEGMENT
??_C@_0N@EJCFPPHF@pack?1monster@ DB 'pack/monster', 00H	; `string'
CONST	ENDS
;	COMDAT ??_C@_09IFEPAILH@pack?1icon@
CONST	SEGMENT
??_C@_09IFEPAILH@pack?1icon@ DB 'pack/icon', 00H	; `string'
CONST	ENDS
;	COMDAT ??_C@_09GODLLBIE@pack?1item@
CONST	SEGMENT
??_C@_09GODLLBIE@pack?1item@ DB 'pack/item', 00H	; `string'
CONST	ENDS
;	COMDAT ??_C@_0M@OJOBOCDO@pack?1effect@
CONST	SEGMENT
??_C@_0M@OJOBOCDO@pack?1effect@ DB 'pack/effect', 00H	; `string'
CONST	ENDS
;	COMDAT ??_C@_0L@KHFEEPGE@pack?1guild@
CONST	SEGMENT
??_C@_0L@KHFEEPGE@pack?1guild@ DB 'pack/guild', 00H	; `string'
CONST	ENDS
;	COMDAT ??_C@_04HOGMCHDB@lib?2@
CONST	SEGMENT
??_C@_04HOGMCHDB@lib?2@ DB 'lib\', 00H			; `string'
CONST	ENDS
;	COMDAT ??_C@_08GCAMGOFC@pack?1bgm@
CONST	SEGMENT
??_C@_08GCAMGOFC@pack?1bgm@ DB 'pack/bgm', 00H		; `string'
CONST	ENDS
;	COMDAT ??_C@_0O@PMKHJGGH@traceback?4pyc@
CONST	SEGMENT
??_C@_0O@PMKHJGGH@traceback?4pyc@ DB 'traceback.pyc', 00H ; `string'
CONST	ENDS
;	COMDAT ??_C@_09EHIBBABK@types?4pyc@
CONST	SEGMENT
??_C@_09EHIBBABK@types?4pyc@ DB 'types.pyc', 00H	; `string'
CONST	ENDS
;	COMDAT ??_C@_08EFIONJOP@stat?4pyc@
CONST	SEGMENT
??_C@_08EFIONJOP@stat?4pyc@ DB 'stat.pyc', 00H		; `string'
CONST	ENDS
;	COMDAT ??_C@_0L@NDKNFNNI@string?4pyc@
CONST	SEGMENT
??_C@_0L@NDKNFNNI@string?4pyc@ DB 'string.pyc', 00H	; `string'
CONST	ENDS
;	COMDAT ??_C@_06JCOFDJKA@os?4pyc@
CONST	SEGMENT
??_C@_06JCOFDJKA@os?4pyc@ DB 'os.pyc', 00H		; `string'
CONST	ENDS
;	COMDAT ??_C@_08FPFMJPEC@site?4pyc@
CONST	SEGMENT
??_C@_08FPFMJPEC@site?4pyc@ DB 'site.pyc', 00H		; `string'
CONST	ENDS
;	COMDAT ??_C@_0O@COBIIGAD@linecache?4pyc@
CONST	SEGMENT
??_C@_0O@COBIIGAD@linecache?4pyc@ DB 'linecache.pyc', 00H ; `string'
CONST	ENDS
;	COMDAT ??_C@_0L@HJCEJGHC@ntpath?4pyc@
CONST	SEGMENT
??_C@_0L@HJCEJGHC@ntpath?4pyc@ DB 'ntpath.pyc', 00H	; `string'
CONST	ENDS
;	COMDAT ??_C@_0P@KBODAEKE@__future__?4pyc@
CONST	SEGMENT
??_C@_0P@KBODAEKE@__future__?4pyc@ DB '__future__.pyc', 00H ; `string'
CONST	ENDS
;	COMDAT ??_C@_0N@GCNFBOJN@copy_reg?4pyc@
CONST	SEGMENT
??_C@_0N@GCNFBOJN@copy_reg?4pyc@ DB 'copy_reg.pyc', 00H	; `string'
CONST	ENDS
;	COMDAT ??_C@_0N@CMMKLLC@UserDict?4pyc@
CONST	SEGMENT
??_C@_0N@CMMKLLC@UserDict?4pyc@ DB 'UserDict.pyc', 00H	; `string'
_NvOptimusEnablement DD 01H
_AmdPowerXpressRequestHighPerformance DD 01H
?sc_apszPythonLibraryFilenames@@3PAPBDA DD FLAT:??_C@_0N@CMMKLLC@UserDict?4pyc@ ; sc_apszPythonLibraryFilenames
	DD	FLAT:??_C@_0P@KBODAEKE@__future__?4pyc@
	DD	FLAT:??_C@_0N@GCNFBOJN@copy_reg?4pyc@
	DD	FLAT:??_C@_0O@COBIIGAD@linecache?4pyc@
	DD	FLAT:??_C@_0L@HJCEJGHC@ntpath?4pyc@
	DD	FLAT:??_C@_06JCOFDJKA@os?4pyc@
	DD	FLAT:??_C@_08FPFMJPEC@site?4pyc@
	DD	FLAT:??_C@_08EFIONJOP@stat?4pyc@
	DD	FLAT:??_C@_0L@NDKNFNNI@string?4pyc@
	DD	FLAT:??_C@_0O@PMKHJGGH@traceback?4pyc@
	DD	FLAT:??_C@_09EHIBBABK@types?4pyc@
	DD	FLAT:??_C@_01EEMJAFIK@?6@
PUBLIC	??$swap@DU?$char_traits@D@std@@V?$allocator@D@2@@std@@YAXAAV?$basic_string@DU?$char_traits@D@std@@V?$allocator@D@2@@0@0@Z ; std::swap<char,std::char_traits<char>,std::allocator<char> >
PUBLIC	?swap@?$basic_string@DU?$char_traits@D@std@@V?$allocator@D@2@@std@@QAEXAAV12@@Z ; std::basic_string<char,std::char_traits<char>,std::allocator<char> >::swap
PUBLIC	?_Swap_data@?$basic_string@DU?$char_traits@D@std@@V?$allocator@D@2@@std@@QAEXAAV12@@Z ; std::basic_string<char,std::char_traits<char>,std::allocator<char> >::_Swap_data
PUBLIC	?_Swap_bx_large_with_small@?$basic_string@DU?$char_traits@D@std@@V?$allocator@D@2@@std@@SAXAAV?$_String_val@U?$_Simple_types@D@std@@@2@0@Z ; std::basic_string<char,std::char_traits<char>,std::allocator<char> >::_Swap_bx_large_with_small
PUBLIC	??$swap@PAD$0A@@std@@YAXAAPAD0@Z		; std::swap<char *,0>
PUBLIC	??$_Pocs@V?$allocator@D@std@@@std@@YAXAAV?$allocator@D@0@0@Z ; std::_Pocs<std::allocator<char> >
PUBLIC	??0?$pair@$$CBV?$basic_string_view@DU?$char_traits@D@std@@@std@@V?$basic_string@DU?$char_traits@D@std@@V?$allocator@D@2@@2@@std@@QAE@ABU01@@Z ; std::pair<std::basic_string_view<char,std::char_traits<char> > const ,std::basic_string<char,std::char_traits<char>,std::allocator<char> > >::pair<std::basic_string_view<char,std::char_traits<char> > const ,std::basic_string<char,std::char_traits<char>,std::allocator<char> > >
PUBLIC	?_Max@?$_Tree_val@U?$_Tree_simple_types@U?$pair@$$CBV?$basic_string_view@DU?$char_traits@D@std@@@std@@V?$basic_string@DU?$char_traits@D@std@@V?$allocator@D@2@@2@@std@@@std@@@std@@SAPAU?$_Tree_node@U?$pair@$$CBV?$basic_string_view@DU?$char_traits@D@std@@@std@@V?$basic_string@DU?$char_traits@D@std@@V?$allocator@D@2@@2@@std@@PAX@2@PAU32@@Z ; std::_Tree_val<std::_Tree_simple_types<std::pair<std::basic_string_view<char,std::char_traits<char> > const ,std::basic_string<char,std::char_traits<char>,std::allocator<char> > > > >::_Max
PUBLIC	?_Min@?$_Tree_val@U?$_Tree_simple_types@U?$pair@$$CBV?$basic_string_view@DU?$char_traits@D@std@@@std@@V?$basic_string@DU?$char_traits@D@std@@V?$allocator@D@2@@2@@std@@@std@@@std@@SAPAU?$_Tree_node@U?$pair@$$CBV?$basic_string_view@DU?$char_traits@D@std@@@std@@V?$basic_string@DU?$char_traits@D@std@@V?$allocator@D@2@@2@@std@@PAX@2@PAU32@@Z ; std::_Tree_val<std::_Tree_simple_types<std::pair<std::basic_string_view<char,std::char_traits<char> > const ,std::basic_string<char,std::char_traits<char>,std::allocator<char> > > > >::_Min
PUBLIC	??$construct_at@U?$pair@$$CBV?$basic_string_view@DU?$char_traits@D@std@@@std@@V?$basic_string@DU?$char_traits@D@std@@V?$allocator@D@2@@2@@std@@ABU12@@std@@YAPAU?$pair@$$CBV?$basic_string_view@DU?$char_traits@D@std@@@std@@V?$basic_string@DU?$char_traits@D@std@@V?$allocator@D@2@@2@@0@QAU10@ABU10@@Z ; std::construct_at<std::pair<std::basic_string_view<char,std::char_traits<char> > const ,std::basic_string<char,std::char_traits<char>,std::allocator<char> > >,std::pair<std::basic_string_view<char,std::char_traits<char> > const ,std::basic_string<char,std::char_traits<char>,std::allocator<char> > > const &>
PUBLIC	??0?$_Tree_unchecked_const_iterator@V?$_Tree_val@U?$_Tree_simple_types@U?$pair@$$CBV?$basic_string_view@DU?$char_traits@D@std@@@std@@V?$basic_string@DU?$char_traits@D@std@@V?$allocator@D@2@@2@@std@@@std@@@std@@U_Iterator_base0@2@@std@@QAE@PAU?$_Tree_node@U?$pair@$$CBV?$basic_string_view@DU?$char_traits@D@std@@@std@@V?$basic_string@DU?$char_traits@D@std@@V?$allocator@D@2@@2@@std@@PAX@1@PBV?$_Tree_val@U?$_Tree_simple_types@U?$pair@$$CBV?$basic_string_view@DU?$char_traits@D@std@@@std@@V?$basic_string@DU?$char_traits@D@std@@V?$allocator@D@2@@2@@std@@@std@@@1@@Z ; std::_Tree_unchecked_const_iterator<std::_Tree_val<std::_Tree_simple_types<std::pair<std::basic_string_view<char,std::char_traits<char> > const ,std::basic_string<char,std::char_traits<char>,std::allocator<char> > > > >,std::_Iterator_base0>::_Tree_unchecked_const_iterator<std::_Tree_val<std::_Tree_simple_types<std::pair<std::basic_string_view<char,std::char_traits<char> > const ,std::basic_string<char,std::char_traits<char>,std::allocator<char> > > > >,std::_Iterator_base0>
PUBLIC	??E?$_Tree_unchecked_const_iterator@V?$_Tree_val@U?$_Tree_simple_types@U?$pair@$$CBV?$basic_string_view@DU?$char_traits@D@std@@@std@@V?$basic_string@DU?$char_traits@D@std@@V?$allocator@D@2@@2@@std@@@std@@@std@@U_Iterator_base0@2@@std@@QAEAAV01@XZ ; std::_Tree_unchecked_const_iterator<std::_Tree_val<std::_Tree_simple_types<std::pair<std::basic_string_view<char,std::char_traits<char> > const ,std::basic_string<char,std::char_traits<char>,std::allocator<char> > > > >,std::_Iterator_base0>::operator++
PUBLIC	??F?$_Tree_unchecked_const_iterator@V?$_Tree_val@U?$_Tree_simple_types@U?$pair@$$CBV?$basic_string_view@DU?$char_traits@D@std@@@std@@V?$basic_string@DU?$char_traits@D@std@@V?$allocator@D@2@@2@@std@@@std@@@std@@U_Iterator_base0@2@@std@@QAEAAV01@XZ ; std::_Tree_unchecked_const_iterator<std::_Tree_val<std::_Tree_simple_types<std::pair<std::basic_string_view<char,std::char_traits<char> > const ,std::basic_string<char,std::char_traits<char>,std::allocator<char> > > > >,std::_Iterator_base0>::operator--
PUBLIC	??$construct_at@PAU?$_Tree_node@U?$pair@$$CBV?$basic_string_view@DU?$char_traits@D@std@@@std@@V?$basic_string@DU?$char_traits@D@std@@V?$allocator@D@2@@2@@std@@PAX@std@@ABQAU12@@std@@YAPAPAU?$_Tree_node@U?$pair@$$CBV?$basic_string_view@DU?$char_traits@D@std@@@std@@V?$basic_string@DU?$char_traits@D@std@@V?$allocator@D@2@@2@@std@@PAX@0@QAPAU10@ABQAU10@@Z ; std::construct_at<std::_Tree_node<std::pair<std::basic_string_view<char,std::char_traits<char> > const ,std::basic_string<char,std::char_traits<char>,std::allocator<char> > >,void *> *,std::_Tree_node<std::pair<std::basic_string_view<char,std::char_traits<char> > const ,std::basic_string<char,std::char_traits<char>,std::allocator<char> > >,void *> * const &>
PUBLIC	??$construct@U?$pair@$$CBV?$basic_string_view@DU?$char_traits@D@std@@@std@@V?$basic_string@DU?$char_traits@D@std@@V?$allocator@D@2@@2@@std@@ABU12@@?$_Default_allocator_traits@V?$allocator@U?$_Tree_node@U?$pair@$$CBV?$basic_string_view@DU?$char_traits@D@std@@@std@@V?$basic_string@DU?$char_traits@D@std@@V?$allocator@D@2@@2@@std@@PAX@std@@@std@@@std@@SAXAAV?$allocator@U?$_Tree_node@U?$pair@$$CBV?$basic_string_view@DU?$char_traits@D@std@@@std@@V?$basic_string@DU?$char_traits@D@std@@V?$allocator@D@2@@2@@std@@PAX@std@@@1@QAU?$pair@$$CBV?$basic_string_view@DU?$char_traits@D@std@@@std@@V?$basic_string@DU?$char_traits@D@std@@V?$allocator@D@2@@2@@1@ABU31@@Z ; std::_Default_allocator_traits<std::allocator<std::_Tree_node<std::pair<std::basic_string_view<char,std::char_traits<char> > const ,std::basic_string<char,std::char_traits<char>,std::allocator<char> > >,void *> > >::construct<std::pair<std::basic_string_view<char,std::char_traits<char> > const ,std::basic_string<char,std::char_traits<char>,std::allocator<char> > >,std::pair<std::basic_string_view<char,std::char_traits<char> > const ,std::basic_string<char,std::char_traits<char>,std::allocator<char> > > const &>
PUBLIC	??0?$allocator@U?$_Tree_node@U?$pair@$$CBV?$basic_string_view@DU?$char_traits@D@std@@@std@@V?$basic_string@DU?$char_traits@D@std@@V?$allocator@D@2@@2@@std@@PAX@std@@@std@@QAE@XZ ; std::allocator<std::_Tree_node<std::pair<std::basic_string_view<char,std::char_traits<char> > const ,std::basic_string<char,std::char_traits<char>,std::allocator<char> > >,void *> >::allocator<std::_Tree_node<std::pair<std::basic_string_view<char,std::char_traits<char> > const ,std::basic_string<char,std::char_traits<char>,std::allocator<char> > >,void *> >
PUBLIC	??0?$_Tree_val@U?$_Tree_simple_types@U?$pair@$$CBV?$basic_string_view@DU?$char_traits@D@std@@@std@@V?$basic_string@DU?$char_traits@D@std@@V?$allocator@D@2@@2@@std@@@std@@@std@@QAE@XZ ; std::_Tree_val<std::_Tree_simple_types<std::pair<std::basic_string_view<char,std::char_traits<char> > const ,std::basic_string<char,std::char_traits<char>,std::allocator<char> > > > >::_Tree_val<std::_Tree_simple_types<std::pair<std::basic_string_view<char,std::char_traits<char> > const ,std::basic_string<char,std::char_traits<char>,std::allocator<char> > > > >
PUBLIC	?_Extract@?$_In_place_key_extract_map_impl@V?$basic_string_view@DU?$char_traits@D@std@@@std@@U?$pair@$$CBV?$basic_string_view@DU?$char_traits@D@std@@@std@@V?$basic_string@DU?$char_traits@D@std@@V?$allocator@D@2@@2@@2@@std@@SAABV?$basic_string_view@DU?$char_traits@D@std@@@2@ABU?$pair@$$CBV?$basic_string_view@DU?$char_traits@D@std@@@std@@V?$basic_string@DU?$char_traits@D@std@@V?$allocator@D@2@@2@@2@@Z ; std::_In_place_key_extract_map_impl<std::basic_string_view<char,std::char_traits<char> >,std::pair<std::basic_string_view<char,std::char_traits<char> > const ,std::basic_string<char,std::char_traits<char>,std::allocator<char> > > >::_Extract
PUBLIC	??$_Construct_in_place@PAU?$_Tree_node@U?$pair@$$CBV?$basic_string_view@DU?$char_traits@D@std@@@std@@V?$basic_string@DU?$char_traits@D@std@@V?$allocator@D@2@@2@@std@@PAX@std@@ABQAU12@@std@@YAXAAPAU?$_Tree_node@U?$pair@$$CBV?$basic_string_view@DU?$char_traits@D@std@@@std@@V?$basic_string@DU?$char_traits@D@std@@V?$allocator@D@2@@2@@std@@PAX@0@ABQAU10@@Z ; std::_Construct_in_place<std::_Tree_node<std::pair<std::basic_string_view<char,std::char_traits<char> > const ,std::basic_string<char,std::char_traits<char>,std::allocator<char> > >,void *> *,std::_Tree_node<std::pair<std::basic_string_view<char,std::char_traits<char> > const ,std::basic_string<char,std::char_traits<char>,std::allocator<char> > >,void *> * const &>
PUBLIC	??$?0ABU?$pair@$$CBV?$basic_string_view@DU?$char_traits@D@std@@@std@@V?$basic_string@DU?$char_traits@D@std@@V?$allocator@D@2@@2@@std@@@?$_Tree_temp_node@V?$allocator@U?$_Tree_node@U?$pair@$$CBV?$basic_string_view@DU?$char_traits@D@std@@@std@@V?$basic_string@DU?$char_traits@D@std@@V?$allocator@D@2@@2@@std@@PAX@std@@@std@@@std@@QAE@AAV?$allocator@U?$_Tree_node@U?$pair@$$CBV?$basic_string_view@DU?$char_traits@D@std@@@std@@V?$basic_string@DU?$char_traits@D@std@@V?$allocator@D@2@@2@@std@@PAX@std@@@1@PAU?$_Tree_node@U?$pair@$$CBV?$basic_string_view@DU?$char_traits@D@std@@@std@@V?$basic_string@DU?$char_traits@D@std@@V?$allocator@D@2@@2@@std@@PAX@1@ABU?$pair@$$CBV?$basic_string_view@DU?$char_traits@D@std@@@std@@V?$basic_string@DU?$char_traits@D@std@@V?$allocator@D@2@@2@@1@@Z ; std::_Tree_temp_node<std::allocator<std::_Tree_node<std::pair<std::basic_string_view<char,std::char_traits<char> > const ,std::basic_string<char,std::char_traits<char>,std::allocator<char> > >,void *> > >::_Tree_temp_node<std::allocator<std::_Tree_node<std::pair<std::basic_string_view<char,std::char_traits<char> > const ,std::basic_string<char,std::char_traits<char>,std::allocator<char> > >,void *> > ><std::pair<std::basic_string_view<char,std::char_traits<char> > const ,std::basic_string<char,std::char_traits<char>,std::allocator<char> > > const &>
PUBLIC	??$forward@ABU?$pair@$$CBV?$basic_string_view@DU?$char_traits@D@std@@@std@@V?$basic_string@DU?$char_traits@D@std@@V?$allocator@D@2@@2@@std@@@std@@YAABU?$pair@$$CBV?$basic_string_view@DU?$char_traits@D@std@@@std@@V?$basic_string@DU?$char_traits@D@std@@V?$allocator@D@2@@2@@0@ABU10@@Z ; std::forward<std::pair<std::basic_string_view<char,std::char_traits<char> > const ,std::basic_string<char,std::char_traits<char>,std::allocator<char> > > const &>
PUBLIC	??$_Find_hint@V?$basic_string_view@DU?$char_traits@D@std@@@std@@@?$_Tree@V?$_Tmap_traits@V?$basic_string_view@DU?$char_traits@D@std@@@std@@V?$basic_string@DU?$char_traits@D@std@@V?$allocator@D@2@@2@U?$less@V?$basic_string_view@DU?$char_traits@D@std@@@std@@@2@V?$allocator@U?$pair@$$CBV?$basic_string_view@DU?$char_traits@D@std@@@std@@V?$basic_string@DU?$char_traits@D@std@@V?$allocator@D@2@@2@@std@@@2@$0A@@std@@@std@@IBE?AU?$_Tree_find_hint_result@PAU?$_Tree_node@U?$pair@$$CBV?$basic_string_view@DU?$char_traits@D@std@@@std@@V?$basic_string@DU?$char_traits@D@std@@V?$allocator@D@2@@2@@std@@PAX@std@@@1@QAU?$_Tree_node@U?$pair@$$CBV?$basic_string_view@DU?$char_traits@D@std@@@std@@V?$basic_string@DU?$char_traits@D@std@@V?$allocator@D@2@@2@@std@@PAX@1@ABV?$basic_string_view@DU?$char_traits@D@std@@@1@@Z ; std::_Tree<std::_Tmap_traits<std::basic_string_view<char,std::char_traits<char> >,std::basic_string<char,std::char_traits<char>,std::allocator<char> >,std::less<std::basic_string_view<char,std::char_traits<char> > >,std::allocator<std::pair<std::basic_string_view<char,std::char_traits<char> > const ,std::basic_string<char,std::char_traits<char>,std::allocator<char> > > >,0> >::_Find_hint<std::basic_string_view<char,std::char_traits<char> > >
PUBLIC	?deallocate@?$_Default_allocator_traits@V?$allocator@U?$_Tree_node@U?$pair@$$CBV?$basic_string_view@DU?$char_traits@D@std@@@std@@V?$basic_string@DU?$char_traits@D@std@@V?$allocator@D@2@@2@@std@@PAX@std@@@std@@@std@@SAXAAV?$allocator@U?$_Tree_node@U?$pair@$$CBV?$basic_string_view@DU?$char_traits@D@std@@@std@@V?$basic_string@DU?$char_traits@D@std@@V?$allocator@D@2@@2@@std@@PAX@std@@@2@QAU?$_Tree_node@U?$pair@$$CBV?$basic_string_view@DU?$char_traits@D@std@@@std@@V?$basic_string@DU?$char_traits@D@std@@V?$allocator@D@2@@2@@std@@PAX@2@I@Z ; std::_Default_allocator_traits<std::allocator<std::_Tree_node<std::pair<std::basic_string_view<char,std::char_traits<char> > const ,std::basic_string<char,std::char_traits<char>,std::allocator<char> > >,void *> > >::deallocate
PUBLIC	??$_Buyheadnode@V?$allocator@U?$_Tree_node@U?$pair@$$CBV?$basic_string_view@DU?$char_traits@D@std@@@std@@V?$basic_string@DU?$char_traits@D@std@@V?$allocator@D@2@@2@@std@@PAX@std@@@std@@@?$_Tree_node@U?$pair@$$CBV?$basic_string_view@DU?$char_traits@D@std@@@std@@V?$basic_string@DU?$char_traits@D@std@@V?$allocator@D@2@@2@@std@@PAX@std@@SAPAU01@AAV?$allocator@U?$_Tree_node@U?$pair@$$CBV?$basic_string_view@DU?$char_traits@D@std@@@std@@V?$basic_string@DU?$char_traits@D@std@@V?$allocator@D@2@@2@@std@@PAX@std@@@1@@Z ; std::_Tree_node<std::pair<std::basic_string_view<char,std::char_traits<char> > const ,std::basic_string<char,std::char_traits<char>,std::allocator<char> > >,void *>::_Buyheadnode<std::allocator<std::_Tree_node<std::pair<std::basic_string_view<char,std::char_traits<char> > const ,std::basic_string<char,std::char_traits<char>,std::allocator<char> > >,void *> > >
PUBLIC	??$forward@ABU?$less@V?$basic_string_view@DU?$char_traits@D@std@@@std@@@std@@@std@@YAABU?$less@V?$basic_string_view@DU?$char_traits@D@std@@@std@@@0@ABU10@@Z ; std::forward<std::less<std::basic_string_view<char,std::char_traits<char> > > const &>
PUBLIC	??$_Emplace_hint@ABU?$pair@$$CBV?$basic_string_view@DU?$char_traits@D@std@@@std@@V?$basic_string@DU?$char_traits@D@std@@V?$allocator@D@2@@2@@std@@@?$_Tree@V?$_Tmap_traits@V?$basic_string_view@DU?$char_traits@D@std@@@std@@V?$basic_string@DU?$char_traits@D@std@@V?$allocator@D@2@@2@U?$less@V?$basic_string_view@DU?$char_traits@D@std@@@std@@@2@V?$allocator@U?$pair@$$CBV?$basic_string_view@DU?$char_traits@D@std@@@std@@V?$basic_string@DU?$char_traits@D@std@@V?$allocator@D@2@@2@@std@@@2@$0A@@std@@@std@@IAEPAU?$_Tree_node@U?$pair@$$CBV?$basic_string_view@DU?$char_traits@D@std@@@std@@V?$basic_string@DU?$char_traits@D@std@@V?$allocator@D@2@@2@@std@@PAX@1@QAU21@ABU?$pair@$$CBV?$basic_string_view@DU?$char_traits@D@std@@@std@@V?$basic_string@DU?$char_traits@D@std@@V?$allocator@D@2@@2@@1@@Z ; std::_Tree<std::_Tmap_traits<std::basic_string_view<char,std::char_traits<char> >,std::basic_string<char,std::char_traits<char>,std::allocator<char> >,std::less<std::basic_string_view<char,std::char_traits<char> > >,std::allocator<std::pair<std::basic_string_view<char,std::char_traits<char> > const ,std::basic_string<char,std::char_traits<char>,std::allocator<char> > > >,0> >::_Emplace_hint<std::pair<std::basic_string_view<char,std::char_traits<char> > const ,std::basic_string<char,std::char_traits<char>,std::allocator<char> > > const &>
PUBLIC	??$_Freenode@V?$allocator@U?$_Tree_node@U?$pair@$$CBV?$basic_string_view@DU?$char_traits@D@std@@@std@@V?$basic_string@DU?$char_traits@D@std@@V?$allocator@D@2@@2@@std@@PAX@std@@@std@@@?$_Tree_node@U?$pair@$$CBV?$basic_string_view@DU?$char_traits@D@std@@@std@@V?$basic_string@DU?$char_traits@D@std@@V?$allocator@D@2@@2@@std@@PAX@std@@SAXAAV?$allocator@U?$_Tree_node@U?$pair@$$CBV?$basic_string_view@DU?$char_traits@D@std@@@std@@V?$basic_string@DU?$char_traits@D@std@@V?$allocator@D@2@@2@@std@@PAX@std@@@1@PAU01@@Z ; std::_Tree_node<std::pair<std::basic_string_view<char,std::char_traits<char> > const ,std::basic_string<char,std::char_traits<char>,std::allocator<char> > >,void *>::_Freenode<std::allocator<std::_Tree_node<std::pair<std::basic_string_view<char,std::char_traits<char> > const ,std::basic_string<char,std::char_traits<char>,std::allocator<char> > >,void *> > >
PUBLIC	??$exchange@PAU?$_Tree_node@U?$pair@$$CBV?$basic_string_view@DU?$char_traits@D@std@@@std@@V?$basic_string@DU?$char_traits@D@std@@V?$allocator@D@2@@2@@std@@PAX@std@@AAPAU12@@std@@YAPAU?$_Tree_node@U?$pair@$$CBV?$basic_string_view@DU?$char_traits@D@std@@@std@@V?$basic_string@DU?$char_traits@D@std@@V?$allocator@D@2@@2@@std@@PAX@0@AAPAU10@0@Z ; std::exchange<std::_Tree_node<std::pair<std::basic_string_view<char,std::char_traits<char> > const ,std::basic_string<char,std::char_traits<char>,std::allocator<char> > >,void *> *,std::_Tree_node<std::pair<std::basic_string_view<char,std::char_traits<char> > const ,std::basic_string<char,std::char_traits<char>,std::allocator<char> > >,void *> * &>
PUBLIC	??$?0$$V@?$_Compressed_pair@V?$allocator@U?$_Tree_node@U?$pair@$$CBV?$basic_string_view@DU?$char_traits@D@std@@@std@@V?$basic_string@DU?$char_traits@D@std@@V?$allocator@D@2@@2@@std@@PAX@std@@@std@@V?$_Tree_val@U?$_Tree_simple_types@U?$pair@$$CBV?$basic_string_view@DU?$char_traits@D@std@@@std@@V?$basic_string@DU?$char_traits@D@std@@V?$allocator@D@2@@2@@std@@@std@@@2@$00@std@@QAE@U_Zero_then_variadic_args_t@1@@Z ; std::_Compressed_pair<std::allocator<std::_Tree_node<std::pair<std::basic_string_view<char,std::char_traits<char> > const ,std::basic_string<char,std::char_traits<char>,std::allocator<char> > >,void *> >,std::_Tree_val<std::_Tree_simple_types<std::pair<std::basic_string_view<char,std::char_traits<char> > const ,std::basic_string<char,std::char_traits<char>,std::allocator<char> > > > >,1>::_Compressed_pair<std::allocator<std::_Tree_node<std::pair<std::basic_string_view<char,std::char_traits<char> > const ,std::basic_string<char,std::char_traits<char>,std::allocator<char> > >,void *> >,std::_Tree_val<std::_Tree_simple_types<std::pair<std::basic_string_view<char,std::char_traits<char> > const ,std::basic_string<char,std::char_traits<char>,std::allocator<char> > > > >,1><>
PUBLIC	?_Alloc_sentinel_and_proxy@?$_Tree@V?$_Tmap_traits@V?$basic_string_view@DU?$char_traits@D@std@@@std@@V?$basic_string@DU?$char_traits@D@std@@V?$allocator@D@2@@2@U?$less@V?$basic_string_view@DU?$char_traits@D@std@@@std@@@2@V?$allocator@U?$pair@$$CBV?$basic_string_view@DU?$char_traits@D@std@@@std@@V?$basic_string@DU?$char_traits@D@std@@V?$allocator@D@2@@2@@std@@@2@$0A@@std@@@std@@IAEXXZ ; std::_Tree<std::_Tmap_traits<std::basic_string_view<char,std::char_traits<char> >,std::basic_string<char,std::char_traits<char>,std::allocator<char> >,std::less<std::basic_string_view<char,std::char_traits<char> > >,std::allocator<std::pair<std::basic_string_view<char,std::char_traits<char> > const ,std::basic_string<char,std::char_traits<char>,std::allocator<char> > > >,0> >::_Alloc_sentinel_and_proxy
PUBLIC	?begin@?$initializer_list@U?$pair@$$CBV?$basic_string_view@DU?$char_traits@D@std@@@std@@V?$basic_string@DU?$char_traits@D@std@@V?$allocator@D@2@@2@@std@@@std@@QBEPBU?$pair@$$CBV?$basic_string_view@DU?$char_traits@D@std@@@std@@V?$basic_string@DU?$char_traits@D@std@@V?$allocator@D@2@@2@@2@XZ ; std::initializer_list<std::pair<std::basic_string_view<char,std::char_traits<char> > const ,std::basic_string<char,std::char_traits<char>,std::allocator<char> > > >::begin
PUBLIC	?end@?$initializer_list@U?$pair@$$CBV?$basic_string_view@DU?$char_traits@D@std@@@std@@V?$basic_string@DU?$char_traits@D@std@@V?$allocator@D@2@@2@@std@@@std@@QBEPBU?$pair@$$CBV?$basic_string_view@DU?$char_traits@D@std@@@std@@V?$basic_string@DU?$char_traits@D@std@@V?$allocator@D@2@@2@@2@XZ ; std::initializer_list<std::pair<std::basic_string_view<char,std::char_traits<char> > const ,std::basic_string<char,std::char_traits<char>,std::allocator<char> > > >::end
PUBLIC	??$_Reallocate_grow_by@V<lambda_1>@?1??push_back@?$basic_string@DU?$char_traits@D@std@@V?$allocator@D@2@@std@@QAEXD@Z@D@?$basic_string@DU?$char_traits@D@std@@V?$allocator@D@2@@std@@AAEAAV01@IV<lambda_1>@?1??push_back@01@QAEXD@Z@D@Z ; std::basic_string<char,std::char_traits<char>,std::allocator<char> >::_Reallocate_grow_by<`std::basic_string<char,std::char_traits<char>,std::allocator<char> >::push_back'::`2'::<lambda_1>,char>
PUBLIC	??$?0ABU?$less@V?$basic_string_view@DU?$char_traits@D@std@@@std@@@std@@U_Zero_then_variadic_args_t@1@@?$_Compressed_pair@U?$less@V?$basic_string_view@DU?$char_traits@D@std@@@std@@@std@@V?$_Compressed_pair@V?$allocator@U?$_Tree_node@U?$pair@$$CBV?$basic_string_view@DU?$char_traits@D@std@@@std@@V?$basic_string@DU?$char_traits@D@std@@V?$allocator@D@2@@2@@std@@PAX@std@@@std@@V?$_Tree_val@U?$_Tree_simple_types@U?$pair@$$CBV?$basic_string_view@DU?$char_traits@D@std@@@std@@V?$basic_string@DU?$char_traits@D@std@@V?$allocator@D@2@@2@@std@@@std@@@2@$00@2@$00@std@@QAE@U_One_then_variadic_args_t@1@ABU?$less@V?$basic_string_view@DU?$char_traits@D@std@@@std@@@1@$$QAU_Zero_then_variadic_args_t@1@@Z ; std::_Compressed_pair<std::less<std::basic_string_view<char,std::char_traits<char> > >,std::_Compressed_pair<std::allocator<std::_Tree_node<std::pair<std::basic_string_view<char,std::char_traits<char> > const ,std::basic_string<char,std::char_traits<char>,std::allocator<char> > >,void *> >,std::_Tree_val<std::_Tree_simple_types<std::pair<std::basic_string_view<char,std::char_traits<char> > const ,std::basic_string<char,std::char_traits<char>,std::allocator<char> > > > >,1>,1>::_Compressed_pair<std::less<std::basic_string_view<char,std::char_traits<char> > >,std::_Compressed_pair<std::allocator<std::_Tree_node<std::pair<std::basic_string_view<char,std::char_traits<char> > const ,std::basic_string<char,std::char_traits<char>,std::allocator<char> > >,void *> >,std::_Tree_val<std::_Tree_simple_types<std::pair<std::basic_string_view<char,std::char_traits<char> > const ,std::basic_string<char,std::char_traits<char>,std::allocator<char> > > > >,1>,1><std::less<std::basic_string_view<char,std::char_traits<char> > > const &,std::_Zero_then_variadic_args_t>
PUBLIC	??$_Insert_range_unchecked@PBU?$pair@$$CBV?$basic_string_view@DU?$char_traits@D@std@@@std@@V?$basic_string@DU?$char_traits@D@std@@V?$allocator@D@2@@2@@std@@PBU12@@?$_Tree@V?$_Tmap_traits@V?$basic_string_view@DU?$char_traits@D@std@@@std@@V?$basic_string@DU?$char_traits@D@std@@V?$allocator@D@2@@2@U?$less@V?$basic_string_view@DU?$char_traits@D@std@@@std@@@2@V?$allocator@U?$pair@$$CBV?$basic_string_view@DU?$char_traits@D@std@@@std@@V?$basic_string@DU?$char_traits@D@std@@V?$allocator@D@2@@2@@std@@@2@$0A@@std@@@std@@IAEXPBU?$pair@$$CBV?$basic_string_view@DU?$char_traits@D@std@@@std@@V?$basic_string@DU?$char_traits@D@std@@V?$allocator@D@2@@2@@1@QBU21@@Z ; std::_Tree<std::_Tmap_traits<std::basic_string_view<char,std::char_traits<char> >,std::basic_string<char,std::char_traits<char>,std::allocator<char> >,std::less<std::basic_string_view<char,std::char_traits<char> > >,std::allocator<std::pair<std::basic_string_view<char,std::char_traits<char> > const ,std::basic_string<char,std::char_traits<char>,std::allocator<char> > > >,0> >::_Insert_range_unchecked<std::pair<std::basic_string_view<char,std::char_traits<char> > const ,std::basic_string<char,std::char_traits<char>,std::allocator<char> > > const *,std::pair<std::basic_string_view<char,std::char_traits<char> > const ,std::basic_string<char,std::char_traits<char>,std::allocator<char> > > const *>
PUBLIC	??$_Freenode0@V?$allocator@U?$_Tree_node@U?$pair@$$CBV?$basic_string_view@DU?$char_traits@D@std@@@std@@V?$basic_string@DU?$char_traits@D@std@@V?$allocator@D@2@@2@@std@@PAX@std@@@std@@@?$_Tree_node@U?$pair@$$CBV?$basic_string_view@DU?$char_traits@D@std@@@std@@V?$basic_string@DU?$char_traits@D@std@@V?$allocator@D@2@@2@@std@@PAX@std@@SAXAAV?$allocator@U?$_Tree_node@U?$pair@$$CBV?$basic_string_view@DU?$char_traits@D@std@@@std@@V?$basic_string@DU?$char_traits@D@std@@V?$allocator@D@2@@2@@std@@PAX@std@@@1@PAU01@@Z ; std::_Tree_node<std::pair<std::basic_string_view<char,std::char_traits<char> > const ,std::basic_string<char,std::char_traits<char>,std::allocator<char> > >,void *>::_Freenode0<std::allocator<std::_Tree_node<std::pair<std::basic_string_view<char,std::char_traits<char> > const ,std::basic_string<char,std::char_traits<char>,std::allocator<char> > >,void *> > >
PUBLIC	??$_Erase_tree@V?$allocator@U?$_Tree_node@U?$pair@$$CBV?$basic_string_view@DU?$char_traits@D@std@@@std@@V?$basic_string@DU?$char_traits@D@std@@V?$allocator@D@2@@2@@std@@PAX@std@@@std@@@?$_Tree_val@U?$_Tree_simple_types@U?$pair@$$CBV?$basic_string_view@DU?$char_traits@D@std@@@std@@V?$basic_string@DU?$char_traits@D@std@@V?$allocator@D@2@@2@@std@@@std@@@std@@QAEXAAV?$allocator@U?$_Tree_node@U?$pair@$$CBV?$basic_string_view@DU?$char_traits@D@std@@@std@@V?$basic_string@DU?$char_traits@D@std@@V?$allocator@D@2@@2@@std@@PAX@std@@@1@PAU?$_Tree_node@U?$pair@$$CBV?$basic_string_view@DU?$char_traits@D@std@@@std@@V?$basic_string@DU?$char_traits@D@std@@V?$allocator@D@2@@2@@std@@PAX@1@@Z ; std::_Tree_val<std::_Tree_simple_types<std::pair<std::basic_string_view<char,std::char_traits<char> > const ,std::basic_string<char,std::char_traits<char>,std::allocator<char> > > > >::_Erase_tree<std::allocator<std::_Tree_node<std::pair<std::basic_string_view<char,std::char_traits<char> > const ,std::basic_string<char,std::char_traits<char>,std::allocator<char> > >,void *> > >
PUBLIC	??0?$basic_string_view@DU?$char_traits@D@std@@@std@@QAE@QBD@Z ; std::basic_string_view<char,std::char_traits<char> >::basic_string_view<char,std::char_traits<char> >
PUBLIC	?insert@?$basic_string@DU?$char_traits@D@std@@V?$allocator@D@2@@std@@QAEAAV12@IABV12@@Z ; std::basic_string<char,std::char_traits<char>,std::allocator<char> >::insert
PUBLIC	??R<lambda_1>@?1??push_back@?$basic_string@DU?$char_traits@D@std@@V?$allocator@D@2@@std@@QAEXD@Z@QBE@QADQBDID@Z ; `std::basic_string<char,std::char_traits<char>,std::allocator<char> >::push_back'::`2'::<lambda_1>::operator()
PUBLIC	?push_back@?$basic_string@DU?$char_traits@D@std@@V?$allocator@D@2@@std@@QAEXD@Z ; std::basic_string<char,std::char_traits<char>,std::allocator<char> >::push_back
PUBLIC	??E?$_Vector_const_iterator@V?$_Vector_val@U?$_Simple_types@V?$basic_string@DU?$char_traits@D@std@@V?$allocator@D@2@@std@@@std@@@std@@@std@@QAE?AV01@H@Z ; std::_Vector_const_iterator<std::_Vector_val<std::_Simple_types<std::basic_string<char,std::char_traits<char>,std::allocator<char> > > > >::operator++
PUBLIC	??F?$_Vector_const_iterator@V?$_Vector_val@U?$_Simple_types@V?$basic_string@DU?$char_traits@D@std@@V?$allocator@D@2@@std@@@std@@@std@@@std@@QAEAAV01@XZ ; std::_Vector_const_iterator<std::_Vector_val<std::_Simple_types<std::basic_string<char,std::char_traits<char>,std::allocator<char> > > > >::operator--
PUBLIC	??0?$_Tree@V?$_Tmap_traits@V?$basic_string_view@DU?$char_traits@D@std@@@std@@V?$basic_string@DU?$char_traits@D@std@@V?$allocator@D@2@@2@U?$less@V?$basic_string_view@DU?$char_traits@D@std@@@std@@@2@V?$allocator@U?$pair@$$CBV?$basic_string_view@DU?$char_traits@D@std@@@std@@V?$basic_string@DU?$char_traits@D@std@@V?$allocator@D@2@@2@@std@@@2@$0A@@std@@@std@@QAE@ABU?$less@V?$basic_string_view@DU?$char_traits@D@std@@@std@@@1@@Z ; std::_Tree<std::_Tmap_traits<std::basic_string_view<char,std::char_traits<char> >,std::basic_string<char,std::char_traits<char>,std::allocator<char> >,std::less<std::basic_string_view<char,std::char_traits<char> > >,std::allocator<std::pair<std::basic_string_view<char,std::char_traits<char> > const ,std::basic_string<char,std::char_traits<char>,std::allocator<char> > > >,0> >::_Tree<std::_Tmap_traits<std::basic_string_view<char,std::char_traits<char> >,std::basic_string<char,std::char_traits<char>,std::allocator<char> >,std::less<std::basic_string_view<char,std::char_traits<char> > >,std::allocator<std::pair<std::basic_string_view<char,std::char_traits<char> > const ,std::basic_string<char,std::char_traits<char>,std::allocator<char> > > >,0> >
PUBLIC	?insert@?$_Tree@V?$_Tmap_traits@V?$basic_string_view@DU?$char_traits@D@std@@@std@@V?$basic_string@DU?$char_traits@D@std@@V?$allocator@D@2@@2@U?$less@V?$basic_string_view@DU?$char_traits@D@std@@@std@@@2@V?$allocator@U?$pair@$$CBV?$basic_string_view@DU?$char_traits@D@std@@@std@@V?$basic_string@DU?$char_traits@D@std@@V?$allocator@D@2@@2@@std@@@2@$0A@@std@@@std@@QAEXV?$initializer_list@U?$pair@$$CBV?$basic_string_view@DU?$char_traits@D@std@@@std@@V?$basic_string@DU?$char_traits@D@std@@V?$allocator@D@2@@2@@std@@@2@@Z ; std::_Tree<std::_Tmap_traits<std::basic_string_view<char,std::char_traits<char> >,std::basic_string<char,std::char_traits<char>,std::allocator<char> >,std::less<std::basic_string_view<char,std::char_traits<char> > >,std::allocator<std::pair<std::basic_string_view<char,std::char_traits<char> > const ,std::basic_string<char,std::char_traits<char>,std::allocator<char> > > >,0> >::insert
PUBLIC	??$_Erase_head@V?$allocator@U?$_Tree_node@U?$pair@$$CBV?$basic_string_view@DU?$char_traits@D@std@@@std@@V?$basic_string@DU?$char_traits@D@std@@V?$allocator@D@2@@2@@std@@PAX@std@@@std@@@?$_Tree_val@U?$_Tree_simple_types@U?$pair@$$CBV?$basic_string_view@DU?$char_traits@D@std@@@std@@V?$basic_string@DU?$char_traits@D@std@@V?$allocator@D@2@@2@@std@@@std@@@std@@QAEXAAV?$allocator@U?$_Tree_node@U?$pair@$$CBV?$basic_string_view@DU?$char_traits@D@std@@@std@@V?$basic_string@DU?$char_traits@D@std@@V?$allocator@D@2@@2@@std@@PAX@std@@@1@@Z ; std::_Tree_val<std::_Tree_simple_types<std::pair<std::basic_string_view<char,std::char_traits<char> > const ,std::basic_string<char,std::char_traits<char>,std::allocator<char> > > > >::_Erase_head<std::allocator<std::_Tree_node<std::pair<std::basic_string_view<char,std::char_traits<char> > const ,std::basic_string<char,std::char_traits<char>,std::allocator<char> > >,void *> > >
PUBLIC	??_G?$CSingleton@VCPythonPlayerSettingsModule@@@@UAEPAXI@Z ; CSingleton<CPythonPlayerSettingsModule>::`scalar deleting destructor'
PUBLIC	??Y?$basic_string@DU?$char_traits@D@std@@V?$allocator@D@2@@std@@QAEAAV01@D@Z ; std::basic_string<char,std::char_traits<char>,std::allocator<char> >::operator+=
PUBLIC	??0?$CSingleton@VCPythonPlayerSettingsModule@@@@QAE@XZ ; CSingleton<CPythonPlayerSettingsModule>::CSingleton<CPythonPlayerSettingsModule>
PUBLIC	??1?$CSingleton@VCPythonPlayerSettingsModule@@@@UAE@XZ ; CSingleton<CPythonPlayerSettingsModule>::~CSingleton<CPythonPlayerSettingsModule>
PUBLIC	??0?$map@V?$basic_string_view@DU?$char_traits@D@std@@@std@@V?$basic_string@DU?$char_traits@D@std@@V?$allocator@D@2@@2@U?$less@V?$basic_string_view@DU?$char_traits@D@std@@@std@@@2@V?$allocator@U?$pair@$$CBV?$basic_string_view@DU?$char_traits@D@std@@@std@@V?$basic_string@DU?$char_traits@D@std@@V?$allocator@D@2@@2@@std@@@2@@std@@QAE@V?$initializer_list@U?$pair@$$CBV?$basic_string_view@DU?$char_traits@D@std@@@std@@V?$basic_string@DU?$char_traits@D@std@@V?$allocator@D@2@@2@@std@@@1@@Z ; std::map<std::basic_string_view<char,std::char_traits<char> >,std::basic_string<char,std::char_traits<char>,std::allocator<char> >,std::less<std::basic_string_view<char,std::char_traits<char> > >,std::allocator<std::pair<std::basic_string_view<char,std::char_traits<char> > const ,std::basic_string<char,std::char_traits<char>,std::allocator<char> > > > >::map<std::basic_string_view<char,std::char_traits<char> >,std::basic_string<char,std::char_traits<char>,std::allocator<char> >,std::less<std::basic_string_view<char,std::char_traits<char> > >,std::allocator<std::pair<std::basic_string_view<char,std::char_traits<char> > const ,std::basic_string<char,std::char_traits<char>,std::allocator<char> > > > >
PUBLIC	??1?$_Tree@V?$_Tmap_traits@V?$basic_string_view@DU?$char_traits@D@std@@@std@@V?$basic_string@DU?$char_traits@D@std@@V?$allocator@D@2@@2@U?$less@V?$basic_string_view@DU?$char_traits@D@std@@@std@@@2@V?$allocator@U?$pair@$$CBV?$basic_string_view@DU?$char_traits@D@std@@@std@@V?$basic_string@DU?$char_traits@D@std@@V?$allocator@D@2@@2@@std@@@2@$0A@@std@@@std@@QAE@XZ ; std::_Tree<std::_Tmap_traits<std::basic_string_view<char,std::char_traits<char> >,std::basic_string<char,std::char_traits<char>,std::allocator<char> >,std::less<std::basic_string_view<char,std::char_traits<char> > >,std::allocator<std::pair<std::basic_string_view<char,std::char_traits<char> > const ,std::basic_string<char,std::char_traits<char>,std::allocator<char> > > >,0> >::~_Tree<std::_Tmap_traits<std::basic_string_view<char,std::char_traits<char> >,std::basic_string<char,std::char_traits<char>,std::allocator<char> >,std::less<std::basic_string_view<char,std::char_traits<char> > >,std::allocator<std::pair<std::basic_string_view<char,std::char_traits<char> > const ,std::basic_string<char,std::char_traits<char>,std::allocator<char> > > >,0> >
PUBLIC	??0?$initializer_list@U?$pair@$$CBV?$basic_string_view@DU?$char_traits@D@std@@@std@@V?$basic_string@DU?$char_traits@D@std@@V?$allocator@D@2@@2@@std@@@std@@QAE@PBU?$pair@$$CBV?$basic_string_view@DU?$char_traits@D@std@@@std@@V?$basic_string@DU?$char_traits@D@std@@V?$allocator@D@2@@2@@1@0@Z ; std::initializer_list<std::pair<std::basic_string_view<char,std::char_traits<char> > const ,std::basic_string<char,std::char_traits<char>,std::allocator<char> > > >::initializer_list<std::pair<std::basic_string_view<char,std::char_traits<char> > const ,std::basic_string<char,std::char_traits<char>,std::allocator<char> > > >
PUBLIC	??$string_join@V?$vector@V?$basic_string@DU?$char_traits@D@std@@V?$allocator@D@2@@std@@V?$allocator@V?$basic_string@DU?$char_traits@D@std@@V?$allocator@D@2@@std@@@2@@std@@@@YAXABV?$basic_string@DU?$char_traits@D@std@@V?$allocator@D@2@@std@@ABV?$vector@V?$basic_string@DU?$char_traits@D@std@@V?$allocator@D@2@@std@@V?$allocator@V?$basic_string@DU?$char_traits@D@std@@V?$allocator@D@2@@std@@@2@@1@PAV01@@Z ; string_join<std::vector<std::basic_string<char,std::char_traits<char>,std::allocator<char> >,std::allocator<std::basic_string<char,std::char_traits<char>,std::allocator<char> > > > >
PUBLIC	??$?0AAY04$$CBDAAY05$$CBD$0A@@?$pair@$$CBV?$basic_string_view@DU?$char_traits@D@std@@@std@@V?$basic_string@DU?$char_traits@D@std@@V?$allocator@D@2@@2@@std@@QAE@AAY04$$CBDAAY05$$CBD@Z ; std::pair<std::basic_string_view<char,std::char_traits<char> > const ,std::basic_string<char,std::char_traits<char>,std::allocator<char> > >::pair<std::basic_string_view<char,std::char_traits<char> > const ,std::basic_string<char,std::char_traits<char>,std::allocator<char> > ><char const (&)[5],char const (&)[6],0>
PUBLIC	??$?0AAY06$$CBDAAY06$$CBD$0A@@?$pair@$$CBV?$basic_string_view@DU?$char_traits@D@std@@@std@@V?$basic_string@DU?$char_traits@D@std@@V?$allocator@D@2@@2@@std@@QAE@AAY06$$CBD0@Z ; std::pair<std::basic_string_view<char,std::char_traits<char> > const ,std::basic_string<char,std::char_traits<char>,std::allocator<char> > >::pair<std::basic_string_view<char,std::char_traits<char> > const ,std::basic_string<char,std::char_traits<char>,std::allocator<char> > ><char const (&)[7],char const (&)[7],0>
PUBLIC	??$?0AAY08$$CBDAAY08$$CBD$0A@@?$pair@$$CBV?$basic_string_view@DU?$char_traits@D@std@@@std@@V?$basic_string@DU?$char_traits@D@std@@V?$allocator@D@2@@2@@std@@QAE@AAY08$$CBD0@Z ; std::pair<std::basic_string_view<char,std::char_traits<char> > const ,std::basic_string<char,std::char_traits<char>,std::allocator<char> > >::pair<std::basic_string_view<char,std::char_traits<char> > const ,std::basic_string<char,std::char_traits<char>,std::allocator<char> > ><char const (&)[9],char const (&)[9],0>
PUBLIC	??$?0AAY0M@$$CBDAAY0M@$$CBD$0A@@?$pair@$$CBV?$basic_string_view@DU?$char_traits@D@std@@@std@@V?$basic_string@DU?$char_traits@D@std@@V?$allocator@D@2@@2@@std@@QAE@AAY0M@$$CBD0@Z ; std::pair<std::basic_string_view<char,std::char_traits<char> > const ,std::basic_string<char,std::char_traits<char>,std::allocator<char> > >::pair<std::basic_string_view<char,std::char_traits<char> > const ,std::basic_string<char,std::char_traits<char>,std::allocator<char> > ><char const (&)[12],char const (&)[12],0>
PUBLIC	??$?HDU?$char_traits@D@std@@V?$allocator@D@1@@std@@YA?AV?$basic_string@DU?$char_traits@D@std@@V?$allocator@D@2@@0@ABV10@$$QAV10@@Z ; std::operator+<char,std::char_traits<char>,std::allocator<char> >
PUBLIC	?Setup@@YAHPAD@Z				; Setup
PUBLIC	_WinMain@16
PUBLIC	?__ErrorPythonLibraryIsNotExist@@YAXXZ		; __ErrorPythonLibraryIsNotExist
PUBLIC	??_GCPythonPlayerSettingsModule@@UAEPAXI@Z	; CPythonPlayerSettingsModule::`scalar deleting destructor'
PUBLIC	??1?$map@V?$basic_string_view@DU?$char_traits@D@std@@@std@@V?$basic_string@DU?$char_traits@D@std@@V?$allocator@D@2@@2@U?$less@V?$basic_string_view@DU?$char_traits@D@std@@@std@@@2@V?$allocator@U?$pair@$$CBV?$basic_string_view@DU?$char_traits@D@std@@@std@@V?$basic_string@DU?$char_traits@D@std@@V?$allocator@D@2@@2@@std@@@2@@std@@QAE@XZ ; std::map<std::basic_string_view<char,std::char_traits<char> >,std::basic_string<char,std::char_traits<char>,std::allocator<char> >,std::less<std::basic_string_view<char,std::char_traits<char> > >,std::allocator<std::pair<std::basic_string_view<char,std::char_traits<char> > const ,std::basic_string<char,std::char_traits<char>,std::allocator<char> > > > >::~map<std::basic_string_view<char,std::char_traits<char> >,std::basic_string<char,std::char_traits<char>,std::allocator<char> >,std::less<std::basic_string_view<char,std::char_traits<char> > >,std::allocator<std::pair<std::basic_string_view<char,std::char_traits<char> > const ,std::basic_string<char,std::char_traits<char>,std::allocator<char> > > > >
PUBLIC	??1CPythonPlayerSettingsModule@@UAE@XZ		; CPythonPlayerSettingsModule::~CPythonPlayerSettingsModule
PUBLIC	??0CPythonPlayerSettingsModule@@QAE@XZ		; CPythonPlayerSettingsModule::CPythonPlayerSettingsModule
PUBLIC	?Main@@YA_NPAUHINSTANCE__@@PAD@Z		; Main
PUBLIC	?RunMainScript@@YA_NAAVCPythonLauncher@@PBD@Z	; RunMainScript
PUBLIC	?PackInitialize@@YA_NPBD@Z			; PackInitialize
PUBLIC	?CheckPythonLibraryFilenames@@YA_NXZ		; CheckPythonLibraryFilenames
PUBLIC	??0thread@std@@QAE@XZ				; std::thread::thread
PUBLIC	__AVOID_FLOATING_POINT_LIBRARY_BUG
EXTRN	??_ECPythonPlayerSettingsModule@@UAEPAXI@Z:PROC	; CPythonPlayerSettingsModule::`vector deleting destructor'
EXTRN	??_E?$CSingleton@VCPythonPlayerSettingsModule@@@@UAEPAXI@Z:PROC ; CSingleton<CPythonPlayerSettingsModule>::`vector deleting destructor'
?vecDropSoundFileName@@3V?$array@U?$pair@KV?$basic_string@DU?$char_traits@D@std@@V?$allocator@D@2@@std@@@std@@$04@std@@B DB 08cH DUP (?) ; vecDropSoundFileName
?vecEffectList@@3V?$vector@V?$tuple@IPBDPBD_N@std@@V?$allocator@V?$tuple@IPBDPBD_N@std@@@2@@std@@B DB 0cH DUP (?) ; vecEffectList
?characterNameColors@@3V?$map@EV?$array@E$02@std@@U?$less@E@2@V?$allocator@U?$pair@$$CBEV?$array@E$02@std@@@std@@@2@@std@@B DQ 01H DUP (?) ; characterNameColors
?characterTitleColors@@3V?$map@EV?$array@E$02@std@@U?$less@E@2@V?$allocator@U?$pair@$$CBEV?$array@E$02@std@@@std@@@2@@std@@B DQ 01H DUP (?) ; characterTitleColors
?characterTitleSystemColors@@3V?$map@EV?$array@E$02@std@@U?$less@E@2@V?$allocator@U?$pair@$$CBEV?$array@E$02@std@@@std@@@2@@std@@B DQ 01H DUP (?) ; characterTitleSystemColors
?emotionIcons@@3V?$map@EPBDU?$less@E@std@@V?$allocator@U?$pair@$$CBEPBD@std@@@2@@std@@B DQ 01H DUP (?) ; emotionIcons
?skillIndexes@@3V?$map@EV?$map@EV?$vector@EV?$allocator@E@std@@@std@@U?$less@E@2@V?$allocator@U?$pair@$$CBEV?$vector@EV?$allocator@E@std@@@std@@@std@@@2@@std@@U?$less@E@2@V?$allocator@U?$pair@$$CBEV?$map@EV?$vector@EV?$allocator@E@std@@@std@@U?$less@E@2@V?$allocator@U?$pair@$$CBEV?$vector@EV?$allocator@E@std@@@std@@@std@@@2@@std@@@std@@@2@@std@@B DQ 01H DUP (?) ; skillIndexes
?guildSkills@@3V?$map@V?$basic_string@DU?$char_traits@D@std@@V?$allocator@D@2@@std@@V?$vector@EV?$allocator@E@std@@@2@U?$less@V?$basic_string@DU?$char_traits@D@std@@V?$allocator@D@2@@std@@@2@V?$allocator@U?$pair@$$CBV?$basic_string@DU?$char_traits@D@std@@V?$allocator@D@2@@std@@V?$vector@EV?$allocator@E@std@@@2@@std@@@2@@std@@B DQ 01H DUP (?) ; guildSkills
__AVOID_FLOATING_POINT_LIBRARY_BUG DD 01H DUP (?)
_BSS	ENDS
;	COMDAT ?$TSS0@?1??Main@@YA_NPAUHINSTANCE__@@PAD@Z@4HA
_BSS	SEGMENT
?$TSS0@?1??Main@@YA_NPAUHINSTANCE__@@PAD@Z@4HA DD 01H DUP (?) ; `Main'::`2'::$TSS0
_BSS	ENDS
;	COMDAT ?lzo@?1??Main@@YA_NPAUHINSTANCE__@@PAD@Z@4VCLZO@@A
_BSS	SEGMENT
?lzo@?1??Main@@YA_NPAUHINSTANCE__@@PAD@Z@4VCLZO@@A DQ 01H DUP (?) ; `Main'::`2'::lzo
_BSS	ENDS
;	COMDAT ?$TSS1@?1??Main@@YA_NPAUHINSTANCE__@@PAD@Z@4HA
_BSS	SEGMENT
?$TSS1@?1??Main@@YA_NPAUHINSTANCE__@@PAD@Z@4HA DD 01H DUP (?) ; `Main'::`2'::$TSS1
_BSS	ENDS
;	COMDAT ?EterPackManager@?1??Main@@YA_NPAUHINSTANCE__@@PAD@Z@4VCEterPackManager@@A
_BSS	SEGMENT
?EterPackManager@?1??Main@@YA_NPAUHINSTANCE__@@PAD@Z@4VCEterPackManager@@A DB 01490H DUP (?) ; `Main'::`2'::EterPackManager
_BSS	ENDS
;	COMDAT ?$TSS2@?1??Main@@YA_NPAUHINSTANCE__@@PAD@Z@4HA
_BSS	SEGMENT
?$TSS2@?1??Main@@YA_NPAUHINSTANCE__@@PAD@Z@4HA DD 01H DUP (?) ; `Main'::`2'::$TSS2
_BSS	ENDS
;	COMDAT ?PlayerSettings@?1??Main@@YA_NPAUHINSTANCE__@@PAD@Z@4VCPythonPlayerSettingsModule@@A
_BSS	SEGMENT
?PlayerSettings@?1??Main@@YA_NPAUHINSTANCE__@@PAD@Z@4VCPythonPlayerSettingsModule@@A DB 01cH DUP (?) ; `Main'::`2'::PlayerSettings
_BSS	ENDS
;	COMDAT ?$TSS3@?1??Main@@YA_NPAUHINSTANCE__@@PAD@Z@4HA
_BSS	SEGMENT
?$TSS3@?1??Main@@YA_NPAUHINSTANCE__@@PAD@Z@4HA DD 01H DUP (?) ; `Main'::`2'::$TSS3
_BSS	ENDS
;	COMDAT ?m_pyConfig@?1??Main@@YA_NPAUHINSTANCE__@@PAD@Z@4VCPythonConfig@@A
_BSS	SEGMENT
?m_pyConfig@?1??Main@@YA_NPAUHINSTANCE__@@PAD@Z@4VCPythonConfig@@A DB 020H DUP (?) ; `Main'::`2'::m_pyConfig
_BSS	ENDS
;	COMDAT xdata$x
xdata$x	SEGMENT
__ehfuncinfo$??__EvecUseSoundFileName@@YAXXZ DD 019930522H
	DD	06H
	DD	FLAT:__unwindtable$??__EvecUseSoundFileName@@YAXXZ
	DD	2 DUP(00H)
	DD	2 DUP(00H)
	DD	00H
	DD	01H
__unwindtable$??__EvecUseSoundFileName@@YAXXZ DD 0ffffffffH
	DD	FLAT:__unwindfunclet$??__EvecUseSoundFileName@@YAXXZ$0
	DD	00H
	DD	FLAT:__unwindfunclet$??__EvecUseSoundFileName@@YAXXZ$1
	DD	01H
	DD	FLAT:__unwindfunclet$??__EvecUseSoundFileName@@YAXXZ$2
	DD	02H
	DD	FLAT:__unwindfunclet$??__EvecUseSoundFileName@@YAXXZ$3
	DD	03H
	DD	FLAT:__unwindfunclet$??__EvecUseSoundFileName@@YAXXZ$4
	DD	04H
	DD	FLAT:__unwindfunclet$??__EvecUseSoundFileName@@YAXXZ$5
xdata$x	ENDS
;	COMDAT xdata$x
xdata$x	SEGMENT
__ehfuncinfo$??__FvecUseSoundFileName@@YAXXZ DD 019930522H
	DD	01H
	DD	FLAT:__unwindtable$??__FvecUseSoundFileName@@YAXXZ
	DD	2 DUP(00H)
	DD	2 DUP(00H)
	DD	00H
	DD	01H
__unwindtable$??__FvecUseSoundFileName@@YAXXZ DD 0ffffffffH
	DD	FLAT:___std_terminate
xdata$x	ENDS
;	COMDAT xdata$x
xdata$x	SEGMENT
__ehfuncinfo$??__EvecDropSoundFileName@@YAXXZ DD 019930522H
	DD	04H
	DD	FLAT:__unwindtable$??__EvecDropSoundFileName@@YAXXZ
	DD	2 DUP(00H)
	DD	2 DUP(00H)
	DD	00H
	DD	01H
__unwindtable$??__EvecDropSoundFileName@@YAXXZ DD 0ffffffffH
	DD	FLAT:__unwindfunclet$??__EvecDropSoundFileName@@YAXXZ$0
	DD	00H
	DD	FLAT:__unwindfunclet$??__EvecDropSoundFileName@@YAXXZ$1
	DD	01H
	DD	FLAT:__unwindfunclet$??__EvecDropSoundFileName@@YAXXZ$2
	DD	02H
	DD	FLAT:__unwindfunclet$??__EvecDropSoundFileName@@YAXXZ$3
xdata$x	ENDS
;	COMDAT xdata$x
xdata$x	SEGMENT
__ehfuncinfo$??__FvecDropSoundFileName@@YAXXZ DD 019930522H
	DD	01H
	DD	FLAT:__unwindtable$??__FvecDropSoundFileName@@YAXXZ
	DD	2 DUP(00H)
	DD	2 DUP(00H)
	DD	00H
	DD	01H
__unwindtable$??__FvecDropSoundFileName@@YAXXZ DD 0ffffffffH
	DD	FLAT:___std_terminate
xdata$x	ENDS
;	COMDAT xdata$x
xdata$x	SEGMENT
__ehfuncinfo$??__EskillIndexes@@YAXXZ DD 019930522H
	DD	028H
	DD	FLAT:__unwindtable$??__EskillIndexes@@YAXXZ
	DD	2 DUP(00H)
	DD	2 DUP(00H)
	DD	00H
	DD	01H
	ORG $+4
__unwindtable$??__EskillIndexes@@YAXXZ DD 0ffffffffH
	DD	FLAT:__unwindfunclet$??__EskillIndexes@@YAXXZ$0
	DD	00H
	DD	FLAT:__unwindfunclet$??__EskillIndexes@@YAXXZ$1
	DD	01H
	DD	FLAT:__unwindfunclet$??__EskillIndexes@@YAXXZ$2
	DD	00H
	DD	FLAT:__unwindfunclet$??__EskillIndexes@@YAXXZ$2
	DD	03H
	DD	FLAT:__unwindfunclet$??__EskillIndexes@@YAXXZ$4
	DD	04H
	DD	FLAT:__unwindfunclet$??__EskillIndexes@@YAXXZ$5
	DD	05H
	DD	FLAT:__unwindfunclet$??__EskillIndexes@@YAXXZ$6
	DD	06H
	DD	FLAT:__unwindfunclet$??__EskillIndexes@@YAXXZ$7
	DD	07H
	DD	FLAT:__unwindfunclet$??__EskillIndexes@@YAXXZ$8
	DD	08H
	DD	FLAT:__unwindfunclet$??__EskillIndexes@@YAXXZ$9
	DD	07H
	DD	FLAT:__unwindfunclet$??__EskillIndexes@@YAXXZ$9
	DD	0aH
	DD	FLAT:__unwindfunclet$??__EskillIndexes@@YAXXZ$11
	DD	0bH
	DD	FLAT:__unwindfunclet$??__EskillIndexes@@YAXXZ$12
	DD	0cH
	DD	FLAT:__unwindfunclet$??__EskillIndexes@@YAXXZ$13
	DD	0dH
	DD	FLAT:__unwindfunclet$??__EskillIndexes@@YAXXZ$14
	DD	0eH
	DD	FLAT:__unwindfunclet$??__EskillIndexes@@YAXXZ$15
	DD	0fH
	DD	FLAT:__unwindfunclet$??__EskillIndexes@@YAXXZ$16
	DD	0eH
	DD	FLAT:__unwindfunclet$??__EskillIndexes@@YAXXZ$16
	DD	011H
	DD	FLAT:__unwindfunclet$??__EskillIndexes@@YAXXZ$18
	DD	012H
	DD	FLAT:__unwindfunclet$??__EskillIndexes@@YAXXZ$19
	DD	013H
	DD	FLAT:__unwindfunclet$??__EskillIndexes@@YAXXZ$20
	DD	014H
	DD	FLAT:__unwindfunclet$??__EskillIndexes@@YAXXZ$21
	DD	015H
	DD	FLAT:__unwindfunclet$??__EskillIndexes@@YAXXZ$22
	DD	016H
	DD	FLAT:__unwindfunclet$??__EskillIndexes@@YAXXZ$23
	DD	015H
	DD	FLAT:__unwindfunclet$??__EskillIndexes@@YAXXZ$23
	DD	018H
	DD	FLAT:__unwindfunclet$??__EskillIndexes@@YAXXZ$25
	DD	019H
	DD	FLAT:__unwindfunclet$??__EskillIndexes@@YAXXZ$26
	DD	05H
	DD	FLAT:__unwindfunclet$??__EskillIndexes@@YAXXZ$7
	DD	01bH
	DD	FLAT:__unwindfunclet$??__EskillIndexes@@YAXXZ$9
	DD	01cH
	DD	FLAT:__unwindfunclet$??__EskillIndexes@@YAXXZ$11
	DD	01dH
	DD	FLAT:__unwindfunclet$??__EskillIndexes@@YAXXZ$12
	DD	01eH
	DD	FLAT:__unwindfunclet$??__EskillIndexes@@YAXXZ$14
	DD	01fH
	DD	FLAT:__unwindfunclet$??__EskillIndexes@@YAXXZ$16
	DD	020H
	DD	FLAT:__unwindfunclet$??__EskillIndexes@@YAXXZ$18
	DD	021H
	DD	FLAT:__unwindfunclet$??__EskillIndexes@@YAXXZ$19
	DD	022H
	DD	FLAT:__unwindfunclet$??__EskillIndexes@@YAXXZ$21
	DD	023H
	DD	FLAT:__unwindfunclet$??__EskillIndexes@@YAXXZ$23
	DD	024H
	DD	FLAT:__unwindfunclet$??__EskillIndexes@@YAXXZ$25
	DD	025H
	DD	FLAT:__unwindfunclet$??__EskillIndexes@@YAXXZ$26
	DD	026H
	DD	FLAT:__unwindfunclet$??__EskillIndexes@@YAXXZ$28
xdata$x	ENDS
;	COMDAT xdata$x
xdata$x	SEGMENT
__ehfuncinfo$??__EguildSkills@@YAXXZ DD 019930522H
	DD	0aH
	DD	FLAT:__unwindtable$??__EguildSkills@@YAXXZ
	DD	2 DUP(00H)
	DD	2 DUP(00H)
	DD	00H
	DD	01H
	ORG $+4
__unwindtable$??__EguildSkills@@YAXXZ DD 0ffffffffH
	DD	FLAT:__unwindfunclet$??__EguildSkills@@YAXXZ$0
	DD	00H
	DD	FLAT:__unwindfunclet$??__EguildSkills@@YAXXZ$1
	DD	01H
	DD	FLAT:__unwindfunclet$??__EguildSkills@@YAXXZ$10
	DD	01H
	DD	FLAT:__unwindfunclet$??__EguildSkills@@YAXXZ$2
	DD	03H
	DD	FLAT:__unwindfunclet$??__EguildSkills@@YAXXZ$3
	DD	04H
	DD	FLAT:__unwindfunclet$??__EguildSkills@@YAXXZ$4
	DD	05H
	DD	FLAT:__unwindfunclet$??__EguildSkills@@YAXXZ$16
	DD	01H
	DD	FLAT:__unwindfunclet$??__EguildSkills@@YAXXZ$3
	DD	07H
	DD	FLAT:__unwindfunclet$??__EguildSkills@@YAXXZ$4
	DD	08H
	DD	FLAT:__unwindfunclet$??__EguildSkills@@YAXXZ$6
xdata$x	ENDS
;	COMDAT xdata$x
xdata$x	SEGMENT
__ehfuncinfo$?CheckPythonLibraryFilenames@@YA_NXZ DD 019930522H
	DD	01H
	DD	FLAT:__unwindtable$?CheckPythonLibraryFilenames@@YA_NXZ
	DD	2 DUP(00H)
	DD	2 DUP(00H)
	DD	00H
	DD	01H
__unwindtable$?CheckPythonLibraryFilenames@@YA_NXZ DD 0ffffffffH
	DD	FLAT:__unwindfunclet$?CheckPythonLibraryFilenames@@YA_NXZ$0
xdata$x	ENDS
;	COMDAT xdata$x
xdata$x	SEGMENT
__ehfuncinfo$?PackInitialize@@YA_NPBD@Z DQ 00000000319930522r ; 6.57797e-314
	DD	FLAT:__unwindtable$?PackInitialize@@YA_NPBD@Z
	DQ	00000000000000000r		; 0
	DQ	00000000000000000r		; 0
	DQ	00000000100000000r		; 2.122e-314
__unwindtable$?PackInitialize@@YA_NPBD@Z DD 0ffffffffH
	DD	FLAT:__unwindfunclet$?PackInitialize@@YA_NPBD@Z$0
	DD	00H
	DD	FLAT:__unwindfunclet$?PackInitialize@@YA_NPBD@Z$1
	DD	01H
	DD	FLAT:__unwindfunclet$?PackInitialize@@YA_NPBD@Z$2
xdata$x	ENDS
;	COMDAT xdata$x
xdata$x	SEGMENT
__ehfuncinfo$?RunMainScript@@YA_NAAVCPythonLauncher@@PBD@Z DD 019930522H
	DD	06H
	DD	FLAT:__unwindtable$?RunMainScript@@YA_NAAVCPythonLauncher@@PBD@Z
	DD	2 DUP(00H)
	DD	2 DUP(00H)
	DD	00H
	DD	01H
__unwindtable$?RunMainScript@@YA_NAAVCPythonLauncher@@PBD@Z DD 0ffffffffH
	DD	FLAT:__unwindfunclet$?RunMainScript@@YA_NAAVCPythonLauncher@@PBD@Z$0
	DD	00H
	DD	FLAT:__unwindfunclet$?RunMainScript@@YA_NAAVCPythonLauncher@@PBD@Z$1
	DD	01H
	DD	FLAT:__unwindfunclet$?RunMainScript@@YA_NAAVCPythonLauncher@@PBD@Z$2
	DD	02H
	DD	FLAT:__unwindfunclet$?RunMainScript@@YA_NAAVCPythonLauncher@@PBD@Z$3
	DD	02H
	DD	FLAT:__unwindfunclet$?RunMainScript@@YA_NAAVCPythonLauncher@@PBD@Z$4
	DD	0ffffffffH
	DD	FLAT:__unwindfunclet$?RunMainScript@@YA_NAAVCPythonLauncher@@PBD@Z$5
xdata$x	ENDS
;	COMDAT xdata$x
xdata$x	SEGMENT
__ehfuncinfo$?Main@@YA_NPAUHINSTANCE__@@PAD@Z DD 019930522H
	DD	07H
	DD	FLAT:__unwindtable$?Main@@YA_NPAUHINSTANCE__@@PAD@Z
	DD	2 DUP(00H)
	DD	2 DUP(00H)
	DD	00H
	DD	01H
__unwindtable$?Main@@YA_NPAUHINSTANCE__@@PAD@Z DD 0ffffffffH
	DD	FLAT:__unwindfunclet$?Main@@YA_NPAUHINSTANCE__@@PAD@Z$0
	DD	0ffffffffH
	DD	FLAT:__unwindfunclet$?Main@@YA_NPAUHINSTANCE__@@PAD@Z$1
	DD	0ffffffffH
	DD	FLAT:__unwindfunclet$?Main@@YA_NPAUHINSTANCE__@@PAD@Z$2
	DD	0ffffffffH
	DD	FLAT:__unwindfunclet$?Main@@YA_NPAUHINSTANCE__@@PAD@Z$4
	DD	0ffffffffH
	DD	FLAT:__unwindfunclet$?Main@@YA_NPAUHINSTANCE__@@PAD@Z$5
	DD	0ffffffffH
	DD	FLAT:__unwindfunclet$?Main@@YA_NPAUHINSTANCE__@@PAD@Z$6
	DD	05H
	DD	FLAT:__unwindfunclet$?Main@@YA_NPAUHINSTANCE__@@PAD@Z$7
xdata$x	ENDS
;	COMDAT xdata$x
xdata$x	SEGMENT
__ehfuncinfo$??0CPythonPlayerSettingsModule@@QAE@XZ DQ 00000000a19930522r ; 2.14319e-313
	DD	FLAT:__unwindtable$??0CPythonPlayerSettingsModule@@QAE@XZ
	DQ	00000000000000000r		; 0
	DQ	00000000000000000r		; 0
	DQ	00000000100000000r		; 2.122e-314
	ORG $+4
__unwindtable$??0CPythonPlayerSettingsModule@@QAE@XZ DD 0ffffffffH
	DD	FLAT:__unwindfunclet$??0CPythonPlayerSettingsModule@@QAE@XZ$0
	DD	00H
	DD	FLAT:__unwindfunclet$??0CPythonPlayerSettingsModule@@QAE@XZ$1
	DD	01H
	DD	FLAT:__unwindfunclet$??0CPythonPlayerSettingsModule@@QAE@XZ$2
	DD	02H
	DD	FLAT:__unwindfunclet$??0CPythonPlayerSettingsModule@@QAE@XZ$3
	DD	00H
	DD	FLAT:__unwindfunclet$??0CPythonPlayerSettingsModule@@QAE@XZ$5
	DD	04H
	DD	FLAT:__unwindfunclet$??0CPythonPlayerSettingsModule@@QAE@XZ$20
	DD	05H
	DD	FLAT:__unwindfunclet$??0CPythonPlayerSettingsModule@@QAE@XZ$23
	DD	05H
	DD	FLAT:__unwindfunclet$??0CPythonPlayerSettingsModule@@QAE@XZ$22
	DD	04H
	DD	FLAT:__unwindfunclet$??0CPythonPlayerSettingsModule@@QAE@XZ$6
	DD	00H
	DD	FLAT:__unwindfunclet$??0CPythonPlayerSettingsModule@@QAE@XZ$6
xdata$x	ENDS
;	COMDAT xdata$x
xdata$x	SEGMENT
__ehfuncinfo$??$string_join@V?$vector@V?$basic_string@DU?$char_traits@D@std@@V?$allocator@D@2@@std@@V?$allocator@V?$basic_string@DU?$char_traits@D@std@@V?$allocator@D@2@@std@@@2@@std@@@@YAXABV?$basic_string@DU?$char_traits@D@std@@V?$allocator@D@2@@std@@ABV?$vector@V?$basic_string@DU?$char_traits@D@std@@V?$allocator@D@2@@std@@V?$allocator@V?$basic_string@DU?$char_traits@D@std@@V?$allocator@D@2@@std@@@2@@1@PAV01@@Z DQ 00000000119930522r ; 2.33398e-314
	DD	FLAT:__unwindtable$??$string_join@V?$vector@V?$basic_string@DU?$char_traits@D@std@@V?$allocator@D@2@@std@@V?$allocator@V?$basic_string@DU?$char_traits@D@std@@V?$allocator@D@2@@std@@@2@@std@@@@YAXABV?$basic_string@DU?$char_traits@D@std@@V?$allocator@D@2@@std@@ABV?$vector@V?$basic_string@DU?$char_traits@D@std@@V?$allocator@D@2@@std@@V?$allocator@V?$basic_string@DU?$char_traits@D@std@@V?$allocator@D@2@@std@@@2@@1@PAV01@@Z
	DQ	00000000000000000r		; 0
	DQ	00000000000000000r		; 0
	DQ	00000000100000000r		; 2.122e-314
__unwindtable$??$string_join@V?$vector@V?$basic_string@DU?$char_traits@D@std@@V?$allocator@D@2@@std@@V?$allocator@V?$basic_string@DU?$char_traits@D@std@@V?$allocator@D@2@@std@@@2@@std@@@@YAXABV?$basic_string@DU?$char_traits@D@std@@V?$allocator@D@2@@std@@ABV?$vector@V?$basic_string@DU?$char_traits@D@std@@V?$allocator@D@2@@std@@V?$allocator@V?$basic_string@DU?$char_traits@D@std@@V?$allocator@D@2@@std@@@2@@1@PAV01@@Z DD 0ffffffffH
	DD	FLAT:__unwindfunclet$??$string_join@V?$vector@V?$basic_string@DU?$char_traits@D@std@@V?$allocator@D@2@@std@@V?$allocator@V?$basic_string@DU?$char_traits@D@std@@V?$allocator@D@2@@std@@@2@@std@@@@YAXABV?$basic_string@DU?$char_traits@D@std@@V?$allocator@D@2@@std@@ABV?$vector@V?$basic_string@DU?$char_traits@D@std@@V?$allocator@D@2@@std@@V?$allocator@V?$basic_string@DU?$char_traits@D@std@@V?$allocator@D@2@@std@@@2@@1@PAV01@@Z$0
xdata$x	ENDS
;	COMDAT xdata$x
xdata$x	SEGMENT
__ehfuncinfo$??0?$map@V?$basic_string_view@DU?$char_traits@D@std@@@std@@V?$basic_string@DU?$char_traits@D@std@@V?$allocator@D@2@@2@U?$less@V?$basic_string_view@DU?$char_traits@D@std@@@std@@@2@V?$allocator@U?$pair@$$CBV?$basic_string_view@DU?$char_traits@D@std@@@std@@V?$basic_string@DU?$char_traits@D@std@@V?$allocator@D@2@@2@@std@@@2@@std@@QAE@V?$initializer_list@U?$pair@$$CBV?$basic_string_view@DU?$char_traits@D@std@@@std@@V?$basic_string@DU?$char_traits@D@std@@V?$allocator@D@2@@2@@std@@@1@@Z DQ 00000000319930522r ; 6.57797e-314
	DD	FLAT:__unwindtable$??0?$map@V?$basic_string_view@DU?$char_traits@D@std@@@std@@V?$basic_string@DU?$char_traits@D@std@@V?$allocator@D@2@@2@U?$less@V?$basic_string_view@DU?$char_traits@D@std@@@std@@@2@V?$allocator@U?$pair@$$CBV?$basic_string_view@DU?$char_traits@D@std@@@std@@V?$basic_string@DU?$char_traits@D@std@@V?$allocator@D@2@@2@@std@@@2@@std@@QAE@V?$initializer_list@U?$pair@$$CBV?$basic_string_view@DU?$char_traits@D@std@@@std@@V?$basic_string@DU?$char_traits@D@std@@V?$allocator@D@2@@2@@std@@@1@@Z
	DQ	00000000000000000r		; 0
	DQ	00000000000000000r		; 0
	DQ	00000000100000000r		; 2.122e-314
__unwindtable$??0?$map@V?$basic_string_view@DU?$char_traits@D@std@@@std@@V?$basic_string@DU?$char_traits@D@std@@V?$allocator@D@2@@2@U?$less@V?$basic_string_view@DU?$char_traits@D@std@@@std@@@2@V?$allocator@U?$pair@$$CBV?$basic_string_view@DU?$char_traits@D@std@@@std@@V?$basic_string@DU?$char_traits@D@std@@V?$allocator@D@2@@2@@std@@@2@@std@@QAE@V?$initializer_list@U?$pair@$$CBV?$basic_string_view@DU?$char_traits@D@std@@@std@@V?$basic_string@DU?$char_traits@D@std@@V?$allocator@D@2@@2@@std@@@1@@Z DD 0ffffffffH
	DD	FLAT:__unwindfunclet$??0?$map@V?$basic_string_view@DU?$char_traits@D@std@@@std@@V?$basic_string@DU?$char_traits@D@std@@V?$allocator@D@2@@2@U?$less@V?$basic_string_view@DU?$char_traits@D@std@@@std@@@2@V?$allocator@U?$pair@$$CBV?$basic_string_view@DU?$char_traits@D@std@@@std@@V?$basic_string@DU?$char_traits@D@std@@V?$allocator@D@2@@2@@std@@@2@@std@@QAE@V?$initializer_list@U?$pair@$$CBV?$basic_string_view@DU?$char_traits@D@std@@@std@@V?$basic_string@DU?$char_traits@D@std@@V?$allocator@D@2@@2@@std@@@1@@Z$0
	DD	00H
	DD	FLAT:__unwindfunclet$??0?$map@V?$basic_string_view@DU?$char_traits@D@std@@@std@@V?$basic_string@DU?$char_traits@D@std@@V?$allocator@D@2@@2@U?$less@V?$basic_string_view@DU?$char_traits@D@std@@@std@@@2@V?$allocator@U?$pair@$$CBV?$basic_string_view@DU?$char_traits@D@std@@@std@@V?$basic_string@DU?$char_traits@D@std@@V?$allocator@D@2@@2@@std@@@2@@std@@QAE@V?$initializer_list@U?$pair@$$CBV?$basic_string_view@DU?$char_traits@D@std@@@std@@V?$basic_string@DU?$char_traits@D@std@@V?$allocator@D@2@@2@@std@@@1@@Z$3
	DD	00H
	DD	FLAT:__unwindfunclet$??0?$map@V?$basic_string_view@DU?$char_traits@D@std@@@std@@V?$basic_string@DU?$char_traits@D@std@@V?$allocator@D@2@@2@U?$less@V?$basic_string_view@DU?$char_traits@D@std@@@std@@@2@V?$allocator@U?$pair@$$CBV?$basic_string_view@DU?$char_traits@D@std@@@std@@V?$basic_string@DU?$char_traits@D@std@@V?$allocator@D@2@@2@@std@@@2@@std@@QAE@V?$initializer_list@U?$pair@$$CBV?$basic_string_view@DU?$char_traits@D@std@@@std@@V?$basic_string@DU?$char_traits@D@std@@V?$allocator@D@2@@2@@std@@@1@@Z$2
xdata$x	ENDS
;	COMDAT xdata$x
xdata$x	SEGMENT
__ehfuncinfo$?insert@?$_Tree@V?$_Tmap_traits@V?$basic_string_view@DU?$char_traits@D@std@@@std@@V?$basic_string@DU?$char_traits@D@std@@V?$allocator@D@2@@2@U?$less@V?$basic_string_view@DU?$char_traits@D@std@@@std@@@2@V?$allocator@U?$pair@$$CBV?$basic_string_view@DU?$char_traits@D@std@@@std@@V?$basic_string@DU?$char_traits@D@std@@V?$allocator@D@2@@2@@std@@@2@$0A@@std@@@std@@QAEXV?$initializer_list@U?$pair@$$CBV?$basic_string_view@DU?$char_traits@D@std@@@std@@V?$basic_string@DU?$char_traits@D@std@@V?$allocator@D@2@@2@@std@@@2@@Z DQ 00000000219930522r ; 4.45598e-314
	DD	FLAT:__unwindtable$?insert@?$_Tree@V?$_Tmap_traits@V?$basic_string_view@DU?$char_traits@D@std@@@std@@V?$basic_string@DU?$char_traits@D@std@@V?$allocator@D@2@@2@U?$less@V?$basic_string_view@DU?$char_traits@D@std@@@std@@@2@V?$allocator@U?$pair@$$CBV?$basic_string_view@DU?$char_traits@D@std@@@std@@V?$basic_string@DU?$char_traits@D@std@@V?$allocator@D@2@@2@@std@@@2@$0A@@std@@@std@@QAEXV?$initializer_list@U?$pair@$$CBV?$basic_string_view@DU?$char_traits@D@std@@@std@@V?$basic_string@DU?$char_traits@D@std@@V?$allocator@D@2@@2@@std@@@2@@Z
	DQ	00000000000000000r		; 0
	DQ	00000000000000000r		; 0
	DQ	00000000100000000r		; 2.122e-314
__unwindtable$?insert@?$_Tree@V?$_Tmap_traits@V?$basic_string_view@DU?$char_traits@D@std@@@std@@V?$basic_string@DU?$char_traits@D@std@@V?$allocator@D@2@@2@U?$less@V?$basic_string_view@DU?$char_traits@D@std@@@std@@@2@V?$allocator@U?$pair@$$CBV?$basic_string_view@DU?$char_traits@D@std@@@std@@V?$basic_string@DU?$char_traits@D@std@@V?$allocator@D@2@@2@@std@@@2@$0A@@std@@@std@@QAEXV?$initializer_list@U?$pair@$$CBV?$basic_string_view@DU?$char_traits@D@std@@@std@@V?$basic_string@DU?$char_traits@D@std@@V?$allocator@D@2@@2@@std@@@2@@Z DD 0ffffffffH
	DD	FLAT:__unwindfunclet$?insert@?$_Tree@V?$_Tmap_traits@V?$basic_string_view@DU?$char_traits@D@std@@@std@@V?$basic_string@DU?$char_traits@D@std@@V?$allocator@D@2@@2@U?$less@V?$basic_string_view@DU?$char_traits@D@std@@@std@@@2@V?$allocator@U?$pair@$$CBV?$basic_string_view@DU?$char_traits@D@std@@@std@@V?$basic_string@DU?$char_traits@D@std@@V?$allocator@D@2@@2@@std@@@2@$0A@@std@@@std@@QAEXV?$initializer_list@U?$pair@$$CBV?$basic_string_view@DU?$char_traits@D@std@@@std@@V?$basic_string@DU?$char_traits@D@std@@V?$allocator@D@2@@2@@std@@@2@@Z$2
	DD	0ffffffffH
	DD	FLAT:__unwindfunclet$?insert@?$_Tree@V?$_Tmap_traits@V?$basic_string_view@DU?$char_traits@D@std@@@std@@V?$basic_string@DU?$char_traits@D@std@@V?$allocator@D@2@@2@U?$less@V?$basic_string_view@DU?$char_traits@D@std@@@std@@@2@V?$allocator@U?$pair@$$CBV?$basic_string_view@DU?$char_traits@D@std@@@std@@V?$basic_string@DU?$char_traits@D@std@@V?$allocator@D@2@@2@@std@@@2@$0A@@std@@@std@@QAEXV?$initializer_list@U?$pair@$$CBV?$basic_string_view@DU?$char_traits@D@std@@@std@@V?$basic_string@DU?$char_traits@D@std@@V?$allocator@D@2@@2@@std@@@2@@Z$1
xdata$x	ENDS
;	COMDAT xdata$x
xdata$x	SEGMENT
__ehfuncinfo$??$_Insert_range_unchecked@PBU?$pair@$$CBV?$basic_string_view@DU?$char_traits@D@std@@@std@@V?$basic_string@DU?$char_traits@D@std@@V?$allocator@D@2@@2@@std@@PBU12@@?$_Tree@V?$_Tmap_traits@V?$basic_string_view@DU?$char_traits@D@std@@@std@@V?$basic_string@DU?$char_traits@D@std@@V?$allocator@D@2@@2@U?$less@V?$basic_string_view@DU?$char_traits@D@std@@@std@@@2@V?$allocator@U?$pair@$$CBV?$basic_string_view@DU?$char_traits@D@std@@@std@@V?$basic_string@DU?$char_traits@D@std@@V?$allocator@D@2@@2@@std@@@2@$0A@@std@@@std@@IAEXPBU?$pair@$$CBV?$basic_string_view@DU?$char_traits@D@std@@@std@@V?$basic_string@DU?$char_traits@D@std@@V?$allocator@D@2@@2@@1@QBU21@@Z DQ 00000000219930522r ; 4.45598e-314
	DD	FLAT:__unwindtable$??$_Insert_range_unchecked@PBU?$pair@$$CBV?$basic_string_view@DU?$char_traits@D@std@@@std@@V?$basic_string@DU?$char_traits@D@std@@V?$allocator@D@2@@2@@std@@PBU12@@?$_Tree@V?$_Tmap_traits@V?$basic_string_view@DU?$char_traits@D@std@@@std@@V?$basic_string@DU?$char_traits@D@std@@V?$allocator@D@2@@2@U?$less@V?$basic_string_view@DU?$char_traits@D@std@@@std@@@2@V?$allocator@U?$pair@$$CBV?$basic_string_view@DU?$char_traits@D@std@@@std@@V?$basic_string@DU?$char_traits@D@std@@V?$allocator@D@2@@2@@std@@@2@$0A@@std@@@std@@IAEXPBU?$pair@$$CBV?$basic_string_view@DU?$char_traits@D@std@@@std@@V?$basic_string@DU?$char_traits@D@std@@V?$allocator@D@2@@2@@1@QBU21@@Z
	DQ	00000000000000000r		; 0
	DQ	00000000000000000r		; 0
	DQ	00000000100000000r		; 2.122e-314
__unwindtable$??$_Insert_range_unchecked@PBU?$pair@$$CBV?$basic_string_view@DU?$char_traits@D@std@@@std@@V?$basic_string@DU?$char_traits@D@std@@V?$allocator@D@2@@2@@std@@PBU12@@?$_Tree@V?$_Tmap_traits@V?$basic_string_view@DU?$char_traits@D@std@@@std@@V?$basic_string@DU?$char_traits@D@std@@V?$allocator@D@2@@2@U?$less@V?$basic_string_view@DU?$char_traits@D@std@@@std@@@2@V?$allocator@U?$pair@$$CBV?$basic_string_view@DU?$char_traits@D@std@@@std@@V?$basic_string@DU?$char_traits@D@std@@V?$allocator@D@2@@2@@std@@@2@$0A@@std@@@std@@IAEXPBU?$pair@$$CBV?$basic_string_view@DU?$char_traits@D@std@@@std@@V?$basic_string@DU?$char_traits@D@std@@V?$allocator@D@2@@2@@1@QBU21@@Z DD 0ffffffffH
	DD	FLAT:__unwindfunclet$??$_Insert_range_unchecked@PBU?$pair@$$CBV?$basic_string_view@DU?$char_traits@D@std@@@std@@V?$basic_string@DU?$char_traits@D@std@@V?$allocator@D@2@@2@@std@@PBU12@@?$_Tree@V?$_Tmap_traits@V?$basic_string_view@DU?$char_traits@D@std@@@std@@V?$basic_string@DU?$char_traits@D@std@@V?$allocator@D@2@@2@U?$less@V?$basic_string_view@DU?$char_traits@D@std@@@std@@@2@V?$allocator@U?$pair@$$CBV?$basic_string_view@DU?$char_traits@D@std@@@std@@V?$basic_string@DU?$char_traits@D@std@@V?$allocator@D@2@@2@@std@@@2@$0A@@std@@@std@@IAEXPBU?$pair@$$CBV?$basic_string_view@DU?$char_traits@D@std@@@std@@V?$basic_string@DU?$char_traits@D@std@@V?$allocator@D@2@@2@@1@QBU21@@Z$2
	DD	0ffffffffH
	DD	FLAT:__unwindfunclet$??$_Insert_range_unchecked@PBU?$pair@$$CBV?$basic_string_view@DU?$char_traits@D@std@@@std@@V?$basic_string@DU?$char_traits@D@std@@V?$allocator@D@2@@2@@std@@PBU12@@?$_Tree@V?$_Tmap_traits@V?$basic_string_view@DU?$char_traits@D@std@@@std@@V?$basic_string@DU?$char_traits@D@std@@V?$allocator@D@2@@2@U?$less@V?$basic_string_view@DU?$char_traits@D@std@@@std@@@2@V?$allocator@U?$pair@$$CBV?$basic_string_view@DU?$char_traits@D@std@@@std@@V?$basic_string@DU?$char_traits@D@std@@V?$allocator@D@2@@2@@std@@@2@$0A@@std@@@std@@IAEXPBU?$pair@$$CBV?$basic_string_view@DU?$char_traits@D@std@@@std@@V?$basic_string@DU?$char_traits@D@std@@V?$allocator@D@2@@2@@1@QBU21@@Z$1
xdata$x	ENDS
;	COMDAT xdata$x
xdata$x	SEGMENT
__ehfuncinfo$??$_Emplace_hint@ABU?$pair@$$CBV?$basic_string_view@DU?$char_traits@D@std@@@std@@V?$basic_string@DU?$char_traits@D@std@@V?$allocator@D@2@@2@@std@@@?$_Tree@V?$_Tmap_traits@V?$basic_string_view@DU?$char_traits@D@std@@@std@@V?$basic_string@DU?$char_traits@D@std@@V?$allocator@D@2@@2@U?$less@V?$basic_string_view@DU?$char_traits@D@std@@@std@@@2@V?$allocator@U?$pair@$$CBV?$basic_string_view@DU?$char_traits@D@std@@@std@@V?$basic_string@DU?$char_traits@D@std@@V?$allocator@D@2@@2@@std@@@2@$0A@@std@@@std@@IAEPAU?$_Tree_node@U?$pair@$$CBV?$basic_string_view@DU?$char_traits@D@std@@@std@@V?$basic_string@DU?$char_traits@D@std@@V?$allocator@D@2@@2@@std@@PAX@1@QAU21@ABU?$pair@$$CBV?$basic_string_view@DU?$char_traits@D@std@@@std@@V?$basic_string@DU?$char_traits@D@std@@V?$allocator@D@2@@2@@1@@Z DQ 00000000219930522r ; 4.45598e-314
	DD	FLAT:__unwindtable$??$_Emplace_hint@ABU?$pair@$$CBV?$basic_string_view@DU?$char_traits@D@std@@@std@@V?$basic_string@DU?$char_traits@D@std@@V?$allocator@D@2@@2@@std@@@?$_Tree@V?$_Tmap_traits@V?$basic_string_view@DU?$char_traits@D@std@@@std@@V?$basic_string@DU?$char_traits@D@std@@V?$allocator@D@2@@2@U?$less@V?$basic_string_view@DU?$char_traits@D@std@@@std@@@2@V?$allocator@U?$pair@$$CBV?$basic_string_view@DU?$char_traits@D@std@@@std@@V?$basic_string@DU?$char_traits@D@std@@V?$allocator@D@2@@2@@std@@@2@$0A@@std@@@std@@IAEPAU?$_Tree_node@U?$pair@$$CBV?$basic_string_view@DU?$char_traits@D@std@@@std@@V?$basic_string@DU?$char_traits@D@std@@V?$allocator@D@2@@2@@std@@PAX@1@QAU21@ABU?$pair@$$CBV?$basic_string_view@DU?$char_traits@D@std@@@std@@V?$basic_string@DU?$char_traits@D@std@@V?$allocator@D@2@@2@@1@@Z
	DQ	00000000000000000r		; 0
	DQ	00000000000000000r		; 0
	DQ	00000000100000000r		; 2.122e-314
__unwindtable$??$_Emplace_hint@ABU?$pair@$$CBV?$basic_string_view@DU?$char_traits@D@std@@@std@@V?$basic_string@DU?$char_traits@D@std@@V?$allocator@D@2@@2@@std@@@?$_Tree@V?$_Tmap_traits@V?$basic_string_view@DU?$char_traits@D@std@@@std@@V?$basic_string@DU?$char_traits@D@std@@V?$allocator@D@2@@2@U?$less@V?$basic_string_view@DU?$char_traits@D@std@@@std@@@2@V?$allocator@U?$pair@$$CBV?$basic_string_view@DU?$char_traits@D@std@@@std@@V?$basic_string@DU?$char_traits@D@std@@V?$allocator@D@2@@2@@std@@@2@$0A@@std@@@std@@IAEPAU?$_Tree_node@U?$pair@$$CBV?$basic_string_view@DU?$char_traits@D@std@@@std@@V?$basic_string@DU?$char_traits@D@std@@V?$allocator@D@2@@2@@std@@PAX@1@QAU21@ABU?$pair@$$CBV?$basic_string_view@DU?$char_traits@D@std@@@std@@V?$basic_string@DU?$char_traits@D@std@@V?$allocator@D@2@@2@@1@@Z DD 0ffffffffH
	DD	FLAT:__unwindfunclet$??$_Emplace_hint@ABU?$pair@$$CBV?$basic_string_view@DU?$char_traits@D@std@@@std@@V?$basic_string@DU?$char_traits@D@std@@V?$allocator@D@2@@2@@std@@@?$_Tree@V?$_Tmap_traits@V?$basic_string_view@DU?$char_traits@D@std@@@std@@V?$basic_string@DU?$char_traits@D@std@@V?$allocator@D@2@@2@U?$less@V?$basic_string_view@DU?$char_traits@D@std@@@std@@@2@V?$allocator@U?$pair@$$CBV?$basic_string_view@DU?$char_traits@D@std@@@std@@V?$basic_string@DU?$char_traits@D@std@@V?$allocator@D@2@@2@@std@@@2@$0A@@std@@@std@@IAEPAU?$_Tree_node@U?$pair@$$CBV?$basic_string_view@DU?$char_traits@D@std@@@std@@V?$basic_string@DU?$char_traits@D@std@@V?$allocator@D@2@@2@@std@@PAX@1@QAU21@ABU?$pair@$$CBV?$basic_string_view@DU?$char_traits@D@std@@@std@@V?$basic_string@DU?$char_traits@D@std@@V?$allocator@D@2@@2@@1@@Z$2
	DD	0ffffffffH
	DD	FLAT:__unwindfunclet$??$_Emplace_hint@ABU?$pair@$$CBV?$basic_string_view@DU?$char_traits@D@std@@@std@@V?$basic_string@DU?$char_traits@D@std@@V?$allocator@D@2@@2@@std@@@?$_Tree@V?$_Tmap_traits@V?$basic_string_view@DU?$char_traits@D@std@@@std@@V?$basic_string@DU?$char_traits@D@std@@V?$allocator@D@2@@2@U?$less@V?$basic_string_view@DU?$char_traits@D@std@@@std@@@2@V?$allocator@U?$pair@$$CBV?$basic_string_view@DU?$char_traits@D@std@@@std@@V?$basic_string@DU?$char_traits@D@std@@V?$allocator@D@2@@2@@std@@@2@$0A@@std@@@std@@IAEPAU?$_Tree_node@U?$pair@$$CBV?$basic_string_view@DU?$char_traits@D@std@@@std@@V?$basic_string@DU?$char_traits@D@std@@V?$allocator@D@2@@2@@std@@PAX@1@QAU21@ABU?$pair@$$CBV?$basic_string_view@DU?$char_traits@D@std@@@std@@V?$basic_string@DU?$char_traits@D@std@@V?$allocator@D@2@@2@@1@@Z$1
xdata$x	ENDS
;	COMDAT xdata$x
xdata$x	SEGMENT
__ehfuncinfo$??$?0ABU?$pair@$$CBV?$basic_string_view@DU?$char_traits@D@std@@@std@@V?$basic_string@DU?$char_traits@D@std@@V?$allocator@D@2@@2@@std@@@?$_Tree_temp_node@V?$allocator@U?$_Tree_node@U?$pair@$$CBV?$basic_string_view@DU?$char_traits@D@std@@@std@@V?$basic_string@DU?$char_traits@D@std@@V?$allocator@D@2@@2@@std@@PAX@std@@@std@@@std@@QAE@AAV?$allocator@U?$_Tree_node@U?$pair@$$CBV?$basic_string_view@DU?$char_traits@D@std@@@std@@V?$basic_string@DU?$char_traits@D@std@@V?$allocator@D@2@@2@@std@@PAX@std@@@1@PAU?$_Tree_node@U?$pair@$$CBV?$basic_string_view@DU?$char_traits@D@std@@@std@@V?$basic_string@DU?$char_traits@D@std@@V?$allocator@D@2@@2@@std@@PAX@1@ABU?$pair@$$CBV?$basic_string_view@DU?$char_traits@D@std@@@std@@V?$basic_string@DU?$char_traits@D@std@@V?$allocator@D@2@@2@@1@@Z DQ 00000000219930522r ; 4.45598e-314
	DD	FLAT:__unwindtable$??$?0ABU?$pair@$$CBV?$basic_string_view@DU?$char_traits@D@std@@@std@@V?$basic_string@DU?$char_traits@D@std@@V?$allocator@D@2@@2@@std@@@?$_Tree_temp_node@V?$allocator@U?$_Tree_node@U?$pair@$$CBV?$basic_string_view@DU?$char_traits@D@std@@@std@@V?$basic_string@DU?$char_traits@D@std@@V?$allocator@D@2@@2@@std@@PAX@std@@@std@@@std@@QAE@AAV?$allocator@U?$_Tree_node@U?$pair@$$CBV?$basic_string_view@DU?$char_traits@D@std@@@std@@V?$basic_string@DU?$char_traits@D@std@@V?$allocator@D@2@@2@@std@@PAX@std@@@1@PAU?$_Tree_node@U?$pair@$$CBV?$basic_string_view@DU?$char_traits@D@std@@@std@@V?$basic_string@DU?$char_traits@D@std@@V?$allocator@D@2@@2@@std@@PAX@1@ABU?$pair@$$CBV?$basic_string_view@DU?$char_traits@D@std@@@std@@V?$basic_string@DU?$char_traits@D@std@@V?$allocator@D@2@@2@@1@@Z
	DQ	00000000000000000r		; 0
	DQ	00000000000000000r		; 0
	DQ	00000000100000000r		; 2.122e-314
__unwindtable$??$?0ABU?$pair@$$CBV?$basic_string_view@DU?$char_traits@D@std@@@std@@V?$basic_string@DU?$char_traits@D@std@@V?$allocator@D@2@@2@@std@@@?$_Tree_temp_node@V?$allocator@U?$_Tree_node@U?$pair@$$CBV?$basic_string_view@DU?$char_traits@D@std@@@std@@V?$basic_string@DU?$char_traits@D@std@@V?$allocator@D@2@@2@@std@@PAX@std@@@std@@@std@@QAE@AAV?$allocator@U?$_Tree_node@U?$pair@$$CBV?$basic_string_view@DU?$char_traits@D@std@@@std@@V?$basic_string@DU?$char_traits@D@std@@V?$allocator@D@2@@2@@std@@PAX@std@@@1@PAU?$_Tree_node@U?$pair@$$CBV?$basic_string_view@DU?$char_traits@D@std@@@std@@V?$basic_string@DU?$char_traits@D@std@@V?$allocator@D@2@@2@@std@@PAX@1@ABU?$pair@$$CBV?$basic_string_view@DU?$char_traits@D@std@@@std@@V?$basic_string@DU?$char_traits@D@std@@V?$allocator@D@2@@2@@1@@Z DD 0ffffffffH
	DD	FLAT:__unwindfunclet$??$?0ABU?$pair@$$CBV?$basic_string_view@DU?$char_traits@D@std@@@std@@V?$basic_string@DU?$char_traits@D@std@@V?$allocator@D@2@@2@@std@@@?$_Tree_temp_node@V?$allocator@U?$_Tree_node@U?$pair@$$CBV?$basic_string_view@DU?$char_traits@D@std@@@std@@V?$basic_string@DU?$char_traits@D@std@@V?$allocator@D@2@@2@@std@@PAX@std@@@std@@@std@@QAE@AAV?$allocator@U?$_Tree_node@U?$pair@$$CBV?$basic_string_view@DU?$char_traits@D@std@@@std@@V?$basic_string@DU?$char_traits@D@std@@V?$allocator@D@2@@2@@std@@PAX@std@@@1@PAU?$_Tree_node@U?$pair@$$CBV?$basic_string_view@DU?$char_traits@D@std@@@std@@V?$basic_string@DU?$char_traits@D@std@@V?$allocator@D@2@@2@@std@@PAX@1@ABU?$pair@$$CBV?$basic_string_view@DU?$char_traits@D@std@@@std@@V?$basic_string@DU?$char_traits@D@std@@V?$allocator@D@2@@2@@1@@Z$1
	DD	0ffffffffH
	DD	FLAT:__unwindfunclet$??$?0ABU?$pair@$$CBV?$basic_string_view@DU?$char_traits@D@std@@@std@@V?$basic_string@DU?$char_traits@D@std@@V?$allocator@D@2@@2@@std@@@?$_Tree_temp_node@V?$allocator@U?$_Tree_node@U?$pair@$$CBV?$basic_string_view@DU?$char_traits@D@std@@@std@@V?$basic_string@DU?$char_traits@D@std@@V?$allocator@D@2@@2@@std@@PAX@std@@@std@@@std@@QAE@AAV?$allocator@U?$_Tree_node@U?$pair@$$CBV?$basic_string_view@DU?$char_traits@D@std@@@std@@V?$basic_string@DU?$char_traits@D@std@@V?$allocator@D@2@@2@@std@@PAX@std@@@1@PAU?$_Tree_node@U?$pair@$$CBV?$basic_string_view@DU?$char_traits@D@std@@@std@@V?$basic_string@DU?$char_traits@D@std@@V?$allocator@D@2@@2@@std@@PAX@1@ABU?$pair@$$CBV?$basic_string_view@DU?$char_traits@D@std@@@std@@V?$basic_string@DU?$char_traits@D@std@@V?$allocator@D@2@@2@@1@@Z$0
	ORG $+4
?vecUseSoundFileName@@3V?$array@U?$pair@KV?$basic_string@DU?$char_traits@D@std@@V?$allocator@D@2@@std@@@std@@$06@std@@B DD 01H ; vecUseSoundFileName
	DB	16 DUP(00H)
	DD	00H
	DD	00H
?vecUseSoundFileName$initializer$@@3P6AXXZA DD FLAT:??__EvecUseSoundFileName@@YAXXZ ; vecUseSoundFileName$initializer$
?vecDropSoundFileName$initializer$@@3P6AXXZA DD FLAT:??__EvecDropSoundFileName@@YAXXZ ; vecDropSoundFileName$initializer$
?vecEffectList$initializer$@@3P6AXXZA DD FLAT:??__EvecEffectList@@YAXXZ ; vecEffectList$initializer$
?characterNameColors$initializer$@@3P6AXXZA DD FLAT:??__EcharacterNameColors@@YAXXZ ; characterNameColors$initializer$
?characterTitleColors$initializer$@@3P6AXXZA DD FLAT:??__EcharacterTitleColors@@YAXXZ ; characterTitleColors$initializer$
?characterTitleSystemColors$initializer$@@3P6AXXZA DD FLAT:??__EcharacterTitleSystemColors@@YAXXZ ; characterTitleSystemColors$initializer$
?emotionIcons$initializer$@@3P6AXXZA DD FLAT:??__EemotionIcons@@YAXXZ ; emotionIcons$initializer$
?skillIndexes$initializer$@@3P6AXXZA DD FLAT:??__EskillIndexes@@YAXXZ ; skillIndexes$initializer$
?guildSkills$initializer$@@3P6AXXZA DD FLAT:??__EguildSkills@@YAXXZ ; guildSkills$initializer$
?_AVOID_FLOATING_POINT_LIBRARY_BUG$initializer$@@3P6AXXZA DD FLAT:??__E_AVOID_FLOATING_POINT_LIBRARY_BUG@@YAXXZ ; _AVOID_FLOATING_POINT_LIBRARY_BUG$initializer$
?__iob_func$initializer$@@3P6AXXZA DD FLAT:??__E__iob_func@@YAXXZ ; __iob_func$initializer$
; Function compile flags: /Ogtp
; File C:\Anka2Project\Anka2Project\Source\Binary\source\UserInterface\PythonPlayerSettingsModule.h
; File C:\Program Files\Microsoft Visual Studio\2022\Community\VC\Tools\MSVC\14.44.35207\include\xmemory
; File C:\Program Files\Microsoft Visual Studio\2022\Community\VC\Tools\MSVC\14.44.35207\include\__msvc_string_view.hpp
; File C:\Program Files\Microsoft Visual Studio\2022\Community\VC\Tools\MSVC\14.44.35207\include\xstring
; File C:\Program Files\Microsoft Visual Studio\2022\Community\VC\Tools\MSVC\14.44.35207\include\__msvc_string_view.hpp
; File C:\Program Files\Microsoft Visual Studio\2022\Community\VC\Tools\MSVC\14.44.35207\include\xstring
; File C:\Anka2Project\Anka2Project\Source\Binary\source\UserInterface\PythonPlayerSettingsModule.h
; File C:\Program Files\Microsoft Visual Studio\2022\Community\VC\Tools\MSVC\14.44.35207\include\xmemory
; File C:\Program Files\Microsoft Visual Studio\2022\Community\VC\Tools\MSVC\14.44.35207\include\utility
; File C:\Program Files\Microsoft Visual Studio\2022\Community\VC\Tools\MSVC\14.44.35207\include\xstring
; File C:\Program Files\Microsoft Visual Studio\2022\Community\VC\Tools\MSVC\14.44.35207\include\xmemory
; File C:\Program Files\Microsoft Visual Studio\2022\Community\VC\Tools\MSVC\14.44.35207\include\__msvc_string_view.hpp
; File C:\Program Files\Microsoft Visual Studio\2022\Community\VC\Tools\MSVC\14.44.35207\include\xmemory
; File C:\Program Files\Microsoft Visual Studio\2022\Community\VC\Tools\MSVC\14.44.35207\include\xstring
; File C:\Program Files\Microsoft Visual Studio\2022\Community\VC\Tools\MSVC\14.44.35207\include\__msvc_string_view.hpp
; File C:\Program Files\Microsoft Visual Studio\2022\Community\VC\Tools\MSVC\14.44.35207\include\xstring
; File C:\Anka2Project\Anka2Project\Source\Binary\source\UserInterface\PythonPlayerSettingsModule.h
; File C:\Program Files\Microsoft Visual Studio\2022\Community\VC\Tools\MSVC\14.44.35207\include\xmemory
; File C:\Program Files\Microsoft Visual Studio\2022\Community\VC\Tools\MSVC\14.44.35207\include\utility
; File C:\Program Files\Microsoft Visual Studio\2022\Community\VC\Tools\MSVC\14.44.35207\include\xstring
; File C:\Program Files\Microsoft Visual Studio\2022\Community\VC\Tools\MSVC\14.44.35207\include\xmemory
; File C:\Program Files\Microsoft Visual Studio\2022\Community\VC\Tools\MSVC\14.44.35207\include\__msvc_string_view.hpp
; File C:\Program Files\Microsoft Visual Studio\2022\Community\VC\Tools\MSVC\14.44.35207\include\xmemory
; File C:\Program Files\Microsoft Visual Studio\2022\Community\VC\Tools\MSVC\14.44.35207\include\xstring
; File C:\Program Files\Microsoft Visual Studio\2022\Community\VC\Tools\MSVC\14.44.35207\include\__msvc_string_view.hpp
; File C:\Program Files\Microsoft Visual Studio\2022\Community\VC\Tools\MSVC\14.44.35207\include\xstring
; File C:\Anka2Project\Anka2Project\Source\Binary\source\UserInterface\PythonPlayerSettingsModule.h
; File C:\Program Files\Microsoft Visual Studio\2022\Community\VC\Tools\MSVC\14.44.35207\include\xmemory
; File C:\Program Files\Microsoft Visual Studio\2022\Community\VC\Tools\MSVC\14.44.35207\include\utility
; File C:\Program Files\Microsoft Visual Studio\2022\Community\VC\Tools\MSVC\14.44.35207\include\xstring
; File C:\Program Files\Microsoft Visual Studio\2022\Community\VC\Tools\MSVC\14.44.35207\include\xmemory
; File C:\Program Files\Microsoft Visual Studio\2022\Community\VC\Tools\MSVC\14.44.35207\include\__msvc_string_view.hpp
; File C:\Program Files\Microsoft Visual Studio\2022\Community\VC\Tools\MSVC\14.44.35207\include\xstring
; File C:\Program Files\Microsoft Visual Studio\2022\Community\VC\Tools\MSVC\14.44.35207\include\__msvc_string_view.hpp
; File C:\Program Files\Microsoft Visual Studio\2022\Community\VC\Tools\MSVC\14.44.35207\include\xstring
; File C:\Anka2Project\Anka2Project\Source\Binary\source\UserInterface\PythonPlayerSettingsModule.h
; File C:\Program Files\Microsoft Visual Studio\2022\Community\VC\Tools\MSVC\14.44.35207\include\utility
; File C:\Program Files\Microsoft Visual Studio\2022\Community\VC\Tools\MSVC\14.44.35207\include\xstring
; File C:\Program Files\Microsoft Visual Studio\2022\Community\VC\Tools\MSVC\14.44.35207\include\xmemory
; File C:\Program Files\Microsoft Visual Studio\2022\Community\VC\Tools\MSVC\14.44.35207\include\__msvc_string_view.hpp
; File C:\Program Files\Microsoft Visual Studio\2022\Community\VC\Tools\MSVC\14.44.35207\include\xmemory
; File C:\Program Files\Microsoft Visual Studio\2022\Community\VC\Tools\MSVC\14.44.35207\include\xstring
; File C:\Program Files\Microsoft Visual Studio\2022\Community\VC\Tools\MSVC\14.44.35207\include\__msvc_string_view.hpp
; File C:\Program Files\Microsoft Visual Studio\2022\Community\VC\Tools\MSVC\14.44.35207\include\xstring
; File C:\Anka2Project\Anka2Project\Source\Binary\source\UserInterface\PythonPlayerSettingsModule.h
; File C:\Program Files\Microsoft Visual Studio\2022\Community\VC\Tools\MSVC\14.44.35207\include\xmemory
; File C:\Program Files\Microsoft Visual Studio\2022\Community\VC\Tools\MSVC\14.44.35207\include\utility
; File C:\Program Files\Microsoft Visual Studio\2022\Community\VC\Tools\MSVC\14.44.35207\include\xstring
; File C:\Program Files\Microsoft Visual Studio\2022\Community\VC\Tools\MSVC\14.44.35207\include\xmemory
; File C:\Program Files\Microsoft Visual Studio\2022\Community\VC\Tools\MSVC\14.44.35207\include\__msvc_string_view.hpp
; File C:\Program Files\Microsoft Visual Studio\2022\Community\VC\Tools\MSVC\14.44.35207\include\xmemory
; File C:\Program Files\Microsoft Visual Studio\2022\Community\VC\Tools\MSVC\14.44.35207\include\xstring
; File C:\Program Files\Microsoft Visual Studio\2022\Community\VC\Tools\MSVC\14.44.35207\include\__msvc_string_view.hpp
; File C:\Program Files\Microsoft Visual Studio\2022\Community\VC\Tools\MSVC\14.44.35207\include\xstring
; File C:\Anka2Project\Anka2Project\Source\Binary\source\UserInterface\PythonPlayerSettingsModule.h
; File C:\Program Files\Microsoft Visual Studio\2022\Community\VC\Tools\MSVC\14.44.35207\include\xmemory
; File C:\Program Files\Microsoft Visual Studio\2022\Community\VC\Tools\MSVC\14.44.35207\include\utility
; File C:\Program Files\Microsoft Visual Studio\2022\Community\VC\Tools\MSVC\14.44.35207\include\xstring
; File C:\Program Files\Microsoft Visual Studio\2022\Community\VC\Tools\MSVC\14.44.35207\include\xmemory
; File C:\Program Files\Microsoft Visual Studio\2022\Community\VC\Tools\MSVC\14.44.35207\include\__msvc_string_view.hpp
; File C:\Program Files\Microsoft Visual Studio\2022\Community\VC\Tools\MSVC\14.44.35207\include\xstring
; File C:\Program Files\Microsoft Visual Studio\2022\Community\VC\Tools\MSVC\14.44.35207\include\__msvc_string_view.hpp
; File C:\Anka2Project\Anka2Project\Source\Binary\source\UserInterface\PythonPlayerSettingsModule.h
; File C:\Program Files\Microsoft Visual Studio\2022\Community\VC\Tools\MSVC\14.44.35207\include\__msvc_string_view.hpp
; File C:\Program Files\Microsoft Visual Studio\2022\Community\VC\Tools\MSVC\14.44.35207\include\xstring
; File C:\Anka2Project\Anka2Project\Source\Binary\source\UserInterface\PythonPlayerSettingsModule.h
;	COMDAT ??__EvecUseSoundFileName@@YAXXZ
text$di	SEGMENT
__$EHRec$ = -12						; size = 12
??__EvecUseSoundFileName@@YAXXZ PROC			; `dynamic initializer for 'vecUseSoundFileName'', COMDAT

; 142  : } };

  00000	55		 push	 ebp
  00001	8b ec		 mov	 ebp, esp
  00003	6a ff		 push	 -1
  00005	68 00 00 00 00	 push	 __ehhandler$??__EvecUseSoundFileName@@YAXXZ
  0000a	64 a1 00 00 00
	00		 mov	 eax, DWORD PTR fs:0
  00010	50		 push	 eax
  00011	a1 00 00 00 00	 mov	 eax, DWORD PTR ___security_cookie
  00016	33 c5		 xor	 eax, ebp
  00018	50		 push	 eax
  00019	8d 45 f4	 lea	 eax, DWORD PTR __$EHRec$[ebp]
  0001c	64 a3 00 00 00
	00		 mov	 DWORD PTR fs:0, eax
; File C:\Program Files\Microsoft Visual Studio\2022\Community\VC\Tools\MSVC\14.44.35207\include\xmemory

; 136  :         return ::operator new(_Bytes);

  00022	6a 20		 push	 32			; 00000020H
  00024	e8 00 00 00 00	 call	 ??2@YAPAXI@Z		; operator new
; File C:\Program Files\Microsoft Visual Studio\2022\Community\VC\Tools\MSVC\14.44.35207\include\__msvc_string_view.hpp

; 121  :         _CSTD memcpy(_First1, _First2, _Count * sizeof(_Elem));

  00029	0f 10 05 00 00
	00 00		 movups	 xmm0, XMMWORD PTR ??_C@_0BC@NAJLHID@sound?1ui?1drop?4wav@
; File C:\Program Files\Microsoft Visual Studio\2022\Community\VC\Tools\MSVC\14.44.35207\include\xstring

; 913  :         _Construct_in_place(_My_data._Bx._Ptr, _New_ptr);

  00030	a3 04 00 00 00	 mov	 DWORD PTR ?vecUseSoundFileName@@3V?$array@U?$pair@KV?$basic_string@DU?$char_traits@D@std@@V?$allocator@D@2@@std@@@std@@$06@std@@B+4, eax

; 915  :         _My_data._Mysize = _Count;

  00035	c7 05 14 00 00
	00 11 00 00 00	 mov	 DWORD PTR ?vecUseSoundFileName@@3V?$array@U?$pair@KV?$basic_string@DU?$char_traits@D@std@@V?$allocator@D@2@@std@@@std@@$06@std@@B+20, 17 ; 00000011H

; 916  :         _My_data._Myres  = _New_capacity;

  0003f	c7 05 18 00 00
	00 1f 00 00 00	 mov	 DWORD PTR ?vecUseSoundFileName@@3V?$array@U?$pair@KV?$basic_string@DU?$char_traits@D@std@@V?$allocator@D@2@@std@@@std@@$06@std@@B+24, 31 ; 0000001fH
; File C:\Program Files\Microsoft Visual Studio\2022\Community\VC\Tools\MSVC\14.44.35207\include\__msvc_string_view.hpp

; 121  :         _CSTD memcpy(_First1, _First2, _Count * sizeof(_Elem));

  00049	0f 11 00	 movups	 XMMWORD PTR [eax], xmm0
  0004c	0f b6 0d 10 00
	00 00		 movzx	 ecx, BYTE PTR ??_C@_0BC@NAJLHID@sound?1ui?1drop?4wav@+16
  00053	88 48 10	 mov	 BYTE PTR [eax+16], cl
; File C:\Program Files\Microsoft Visual Studio\2022\Community\VC\Tools\MSVC\14.44.35207\include\xstring

; 922  :             _Traits::assign(_Unfancy(_New_ptr)[_Count], _Elem());

  00056	c6 40 11 00	 mov	 BYTE PTR [eax+17], 0
; File C:\Anka2Project\Anka2Project\Source\Binary\source\UserInterface\PythonPlayerSettingsModule.h

; 135  : 	{CPythonItem::USESOUND_DEFAULT, "sound/ui/drop.wav"},

  0005a	c7 45 fc 00 00
	00 00		 mov	 DWORD PTR __$EHRec$[ebp+8], 0
  00061	0f 57 c0	 xorps	 xmm0, xmm0
; File C:\Program Files\Microsoft Visual Studio\2022\Community\VC\Tools\MSVC\14.44.35207\include\xmemory

; 136  :         return ::operator new(_Bytes);

  00064	6a 20		 push	 32			; 00000020H
; File C:\Program Files\Microsoft Visual Studio\2022\Community\VC\Tools\MSVC\14.44.35207\include\utility

; 274  :         : first(_STD forward<_Other1>(_Val1)), second(_STD forward<_Other2>(_Val2)) {

  00066	c7 05 1c 00 00
	00 05 00 00 00	 mov	 DWORD PTR ?vecUseSoundFileName@@3V?$array@U?$pair@KV?$basic_string@DU?$char_traits@D@std@@V?$allocator@D@2@@std@@@std@@$06@std@@B+28, 5
; File C:\Program Files\Microsoft Visual Studio\2022\Community\VC\Tools\MSVC\14.44.35207\include\xstring

; 493  :         _CONSTEXPR20 _Bxty() noexcept : _Buf() {} // user-provided, for fancy pointers

  00070	0f 11 05 20 00
	00 00		 movups	 XMMWORD PTR ?vecUseSoundFileName@@3V?$array@U?$pair@KV?$basic_string@DU?$char_traits@D@std@@V?$allocator@D@2@@std@@@std@@$06@std@@B+32, xmm0

; 517  :     size_type _Mysize = 0; // current length of string (size)

  00077	c7 05 30 00 00
	00 00 00 00 00	 mov	 DWORD PTR ?vecUseSoundFileName@@3V?$array@U?$pair@KV?$basic_string@DU?$char_traits@D@std@@V?$allocator@D@2@@std@@@std@@$06@std@@B+48, 0

; 518  :     size_type _Myres  = 0; // current storage reserved for string (capacity)

  00081	c7 05 34 00 00
	00 00 00 00 00	 mov	 DWORD PTR ?vecUseSoundFileName@@3V?$array@U?$pair@KV?$basic_string@DU?$char_traits@D@std@@V?$allocator@D@2@@std@@@std@@$06@std@@B+52, 0
; File C:\Program Files\Microsoft Visual Studio\2022\Community\VC\Tools\MSVC\14.44.35207\include\xmemory

; 136  :         return ::operator new(_Bytes);

  0008b	e8 00 00 00 00	 call	 ??2@YAPAXI@Z		; operator new
; File C:\Program Files\Microsoft Visual Studio\2022\Community\VC\Tools\MSVC\14.44.35207\include\__msvc_string_view.hpp

; 121  :         _CSTD memcpy(_First1, _First2, _Count * sizeof(_Elem));

  00090	0f 10 05 00 00
	00 00		 movups	 xmm0, XMMWORD PTR ??_C@_0BP@BMHKPOHF@sound?1ui?1equip_ring_amulet?4wav@
; File C:\Program Files\Microsoft Visual Studio\2022\Community\VC\Tools\MSVC\14.44.35207\include\xmemory

; 256  :         return _Traits::_Allocate(_Bytes);

  00097	8b d0		 mov	 edx, eax
; File C:\Program Files\Microsoft Visual Studio\2022\Community\VC\Tools\MSVC\14.44.35207\include\xstring

; 915  :         _My_data._Mysize = _Count;

  00099	c7 05 30 00 00
	00 1e 00 00 00	 mov	 DWORD PTR ?vecUseSoundFileName@@3V?$array@U?$pair@KV?$basic_string@DU?$char_traits@D@std@@V?$allocator@D@2@@std@@@std@@$06@std@@B+48, 30 ; 0000001eH
  000a3	89 15 20 00 00
	00		 mov	 DWORD PTR ?vecUseSoundFileName@@3V?$array@U?$pair@KV?$basic_string@DU?$char_traits@D@std@@V?$allocator@D@2@@std@@@std@@$06@std@@B+32, edx

; 916  :         _My_data._Myres  = _New_capacity;

  000a9	c7 05 34 00 00
	00 1f 00 00 00	 mov	 DWORD PTR ?vecUseSoundFileName@@3V?$array@U?$pair@KV?$basic_string@DU?$char_traits@D@std@@V?$allocator@D@2@@std@@@std@@$06@std@@B+52, 31 ; 0000001fH
; File C:\Program Files\Microsoft Visual Studio\2022\Community\VC\Tools\MSVC\14.44.35207\include\__msvc_string_view.hpp

; 121  :         _CSTD memcpy(_First1, _First2, _Count * sizeof(_Elem));

  000b3	0f 11 02	 movups	 XMMWORD PTR [edx], xmm0
  000b6	f3 0f 7e 05 10
	00 00 00	 movq	 xmm0, QWORD PTR ??_C@_0BP@BMHKPOHF@sound?1ui?1equip_ring_amulet?4wav@+16
  000be	66 0f d6 42 10	 movq	 QWORD PTR [edx+16], xmm0
  000c3	8b 0d 18 00 00
	00		 mov	 ecx, DWORD PTR ??_C@_0BP@BMHKPOHF@sound?1ui?1equip_ring_amulet?4wav@+24
  000c9	89 4a 18	 mov	 DWORD PTR [edx+24], ecx
  000cc	0f b7 05 1c 00
	00 00		 movzx	 eax, WORD PTR ??_C@_0BP@BMHKPOHF@sound?1ui?1equip_ring_amulet?4wav@+28
  000d3	66 89 42 1c	 mov	 WORD PTR [edx+28], ax
; File C:\Program Files\Microsoft Visual Studio\2022\Community\VC\Tools\MSVC\14.44.35207\include\xstring

; 922  :             _Traits::assign(_Unfancy(_New_ptr)[_Count], _Elem());

  000d7	c6 42 1e 00	 mov	 BYTE PTR [edx+30], 0
; File C:\Anka2Project\Anka2Project\Source\Binary\source\UserInterface\PythonPlayerSettingsModule.h

; 136  : 	{CPythonItem::USESOUND_ACCESSORY, "sound/ui/equip_ring_amulet.wav"},

  000db	c6 45 fc 01	 mov	 BYTE PTR __$EHRec$[ebp+8], 1
  000df	0f 57 c0	 xorps	 xmm0, xmm0
; File C:\Program Files\Microsoft Visual Studio\2022\Community\VC\Tools\MSVC\14.44.35207\include\xmemory

; 136  :         return ::operator new(_Bytes);

  000e2	6a 20		 push	 32			; 00000020H
; File C:\Program Files\Microsoft Visual Studio\2022\Community\VC\Tools\MSVC\14.44.35207\include\utility

; 274  :         : first(_STD forward<_Other1>(_Val1)), second(_STD forward<_Other2>(_Val2)) {

  000e4	c7 05 38 00 00
	00 02 00 00 00	 mov	 DWORD PTR ?vecUseSoundFileName@@3V?$array@U?$pair@KV?$basic_string@DU?$char_traits@D@std@@V?$allocator@D@2@@std@@@std@@$06@std@@B+56, 2
; File C:\Program Files\Microsoft Visual Studio\2022\Community\VC\Tools\MSVC\14.44.35207\include\xstring

; 493  :         _CONSTEXPR20 _Bxty() noexcept : _Buf() {} // user-provided, for fancy pointers

  000ee	0f 11 05 3c 00
	00 00		 movups	 XMMWORD PTR ?vecUseSoundFileName@@3V?$array@U?$pair@KV?$basic_string@DU?$char_traits@D@std@@V?$allocator@D@2@@std@@@std@@$06@std@@B+60, xmm0

; 517  :     size_type _Mysize = 0; // current length of string (size)

  000f5	c7 05 4c 00 00
	00 00 00 00 00	 mov	 DWORD PTR ?vecUseSoundFileName@@3V?$array@U?$pair@KV?$basic_string@DU?$char_traits@D@std@@V?$allocator@D@2@@std@@@std@@$06@std@@B+76, 0

; 518  :     size_type _Myres  = 0; // current storage reserved for string (capacity)

  000ff	c7 05 50 00 00
	00 00 00 00 00	 mov	 DWORD PTR ?vecUseSoundFileName@@3V?$array@U?$pair@KV?$basic_string@DU?$char_traits@D@std@@V?$allocator@D@2@@std@@@std@@$06@std@@B+80, 0
; File C:\Program Files\Microsoft Visual Studio\2022\Community\VC\Tools\MSVC\14.44.35207\include\xmemory

; 136  :         return ::operator new(_Bytes);

  00109	e8 00 00 00 00	 call	 ??2@YAPAXI@Z		; operator new
; File C:\Program Files\Microsoft Visual Studio\2022\Community\VC\Tools\MSVC\14.44.35207\include\__msvc_string_view.hpp

; 121  :         _CSTD memcpy(_First1, _First2, _Count * sizeof(_Elem));

  0010e	0f 10 05 00 00
	00 00		 movups	 xmm0, XMMWORD PTR ??_C@_0BP@PMFHICHL@sound?1ui?1equip_metal_armor?4wav@
; File C:\Program Files\Microsoft Visual Studio\2022\Community\VC\Tools\MSVC\14.44.35207\include\xmemory

; 256  :         return _Traits::_Allocate(_Bytes);

  00115	8b d0		 mov	 edx, eax
; File C:\Program Files\Microsoft Visual Studio\2022\Community\VC\Tools\MSVC\14.44.35207\include\xstring

; 915  :         _My_data._Mysize = _Count;

  00117	c7 05 4c 00 00
	00 1e 00 00 00	 mov	 DWORD PTR ?vecUseSoundFileName@@3V?$array@U?$pair@KV?$basic_string@DU?$char_traits@D@std@@V?$allocator@D@2@@std@@@std@@$06@std@@B+76, 30 ; 0000001eH
  00121	89 15 3c 00 00
	00		 mov	 DWORD PTR ?vecUseSoundFileName@@3V?$array@U?$pair@KV?$basic_string@DU?$char_traits@D@std@@V?$allocator@D@2@@std@@@std@@$06@std@@B+60, edx

; 916  :         _My_data._Myres  = _New_capacity;

  00127	c7 05 50 00 00
	00 1f 00 00 00	 mov	 DWORD PTR ?vecUseSoundFileName@@3V?$array@U?$pair@KV?$basic_string@DU?$char_traits@D@std@@V?$allocator@D@2@@std@@@std@@$06@std@@B+80, 31 ; 0000001fH
; File C:\Program Files\Microsoft Visual Studio\2022\Community\VC\Tools\MSVC\14.44.35207\include\__msvc_string_view.hpp

; 121  :         _CSTD memcpy(_First1, _First2, _Count * sizeof(_Elem));

  00131	0f 11 02	 movups	 XMMWORD PTR [edx], xmm0
  00134	f3 0f 7e 05 10
	00 00 00	 movq	 xmm0, QWORD PTR ??_C@_0BP@PMFHICHL@sound?1ui?1equip_metal_armor?4wav@+16
  0013c	66 0f d6 42 10	 movq	 QWORD PTR [edx+16], xmm0
  00141	8b 0d 18 00 00
	00		 mov	 ecx, DWORD PTR ??_C@_0BP@PMFHICHL@sound?1ui?1equip_metal_armor?4wav@+24
  00147	89 4a 18	 mov	 DWORD PTR [edx+24], ecx
  0014a	0f b7 05 1c 00
	00 00		 movzx	 eax, WORD PTR ??_C@_0BP@PMFHICHL@sound?1ui?1equip_metal_armor?4wav@+28
  00151	66 89 42 1c	 mov	 WORD PTR [edx+28], ax
; File C:\Program Files\Microsoft Visual Studio\2022\Community\VC\Tools\MSVC\14.44.35207\include\xstring

; 922  :             _Traits::assign(_Unfancy(_New_ptr)[_Count], _Elem());

  00155	c6 42 1e 00	 mov	 BYTE PTR [edx+30], 0
; File C:\Anka2Project\Anka2Project\Source\Binary\source\UserInterface\PythonPlayerSettingsModule.h

; 137  : 	{CPythonItem::USESOUND_ARMOR, "sound/ui/equip_metal_armor.wav"},

  00159	c6 45 fc 02	 mov	 BYTE PTR __$EHRec$[ebp+8], 2
  0015d	0f 57 c0	 xorps	 xmm0, xmm0
; File C:\Program Files\Microsoft Visual Studio\2022\Community\VC\Tools\MSVC\14.44.35207\include\xmemory

; 136  :         return ::operator new(_Bytes);

  00160	6a 20		 push	 32			; 00000020H
; File C:\Program Files\Microsoft Visual Studio\2022\Community\VC\Tools\MSVC\14.44.35207\include\utility

; 274  :         : first(_STD forward<_Other1>(_Val1)), second(_STD forward<_Other2>(_Val2)) {

  00162	c7 05 54 00 00
	00 04 00 00 00	 mov	 DWORD PTR ?vecUseSoundFileName@@3V?$array@U?$pair@KV?$basic_string@DU?$char_traits@D@std@@V?$allocator@D@2@@std@@@std@@$06@std@@B+84, 4
; File C:\Program Files\Microsoft Visual Studio\2022\Community\VC\Tools\MSVC\14.44.35207\include\xstring

; 493  :         _CONSTEXPR20 _Bxty() noexcept : _Buf() {} // user-provided, for fancy pointers

  0016c	0f 11 05 58 00
	00 00		 movups	 XMMWORD PTR ?vecUseSoundFileName@@3V?$array@U?$pair@KV?$basic_string@DU?$char_traits@D@std@@V?$allocator@D@2@@std@@@std@@$06@std@@B+88, xmm0

; 517  :     size_type _Mysize = 0; // current length of string (size)

  00173	c7 05 68 00 00
	00 00 00 00 00	 mov	 DWORD PTR ?vecUseSoundFileName@@3V?$array@U?$pair@KV?$basic_string@DU?$char_traits@D@std@@V?$allocator@D@2@@std@@@std@@$06@std@@B+104, 0

; 518  :     size_type _Myres  = 0; // current storage reserved for string (capacity)

  0017d	c7 05 6c 00 00
	00 00 00 00 00	 mov	 DWORD PTR ?vecUseSoundFileName@@3V?$array@U?$pair@KV?$basic_string@DU?$char_traits@D@std@@V?$allocator@D@2@@std@@@std@@$06@std@@B+108, 0
; File C:\Program Files\Microsoft Visual Studio\2022\Community\VC\Tools\MSVC\14.44.35207\include\xmemory

; 136  :         return ::operator new(_Bytes);

  00187	e8 00 00 00 00	 call	 ??2@YAPAXI@Z		; operator new
; File C:\Program Files\Microsoft Visual Studio\2022\Community\VC\Tools\MSVC\14.44.35207\include\__msvc_string_view.hpp

; 121  :         _CSTD memcpy(_First1, _First2, _Count * sizeof(_Elem));

  0018c	0f 10 05 00 00
	00 00		 movups	 xmm0, XMMWORD PTR ??_C@_0BH@JDLOIICI@sound?1ui?1equip_bow?4wav@
; File C:\Program Files\Microsoft Visual Studio\2022\Community\VC\Tools\MSVC\14.44.35207\include\xstring

; 913  :         _Construct_in_place(_My_data._Bx._Ptr, _New_ptr);

  00193	a3 58 00 00 00	 mov	 DWORD PTR ?vecUseSoundFileName@@3V?$array@U?$pair@KV?$basic_string@DU?$char_traits@D@std@@V?$allocator@D@2@@std@@@std@@$06@std@@B+88, eax

; 915  :         _My_data._Mysize = _Count;

  00198	c7 05 68 00 00
	00 16 00 00 00	 mov	 DWORD PTR ?vecUseSoundFileName@@3V?$array@U?$pair@KV?$basic_string@DU?$char_traits@D@std@@V?$allocator@D@2@@std@@@std@@$06@std@@B+104, 22 ; 00000016H

; 916  :         _My_data._Myres  = _New_capacity;

  001a2	c7 05 6c 00 00
	00 1f 00 00 00	 mov	 DWORD PTR ?vecUseSoundFileName@@3V?$array@U?$pair@KV?$basic_string@DU?$char_traits@D@std@@V?$allocator@D@2@@std@@@std@@$06@std@@B+108, 31 ; 0000001fH
; File C:\Program Files\Microsoft Visual Studio\2022\Community\VC\Tools\MSVC\14.44.35207\include\__msvc_string_view.hpp

; 121  :         _CSTD memcpy(_First1, _First2, _Count * sizeof(_Elem));

  001ac	0f 11 00	 movups	 XMMWORD PTR [eax], xmm0
  001af	8b 0d 10 00 00
	00		 mov	 ecx, DWORD PTR ??_C@_0BH@JDLOIICI@sound?1ui?1equip_bow?4wav@+16
  001b5	89 48 10	 mov	 DWORD PTR [eax+16], ecx
  001b8	0f b7 0d 14 00
	00 00		 movzx	 ecx, WORD PTR ??_C@_0BH@JDLOIICI@sound?1ui?1equip_bow?4wav@+20
  001bf	66 89 48 14	 mov	 WORD PTR [eax+20], cx
; File C:\Program Files\Microsoft Visual Studio\2022\Community\VC\Tools\MSVC\14.44.35207\include\xstring

; 922  :             _Traits::assign(_Unfancy(_New_ptr)[_Count], _Elem());

  001c3	c6 40 16 00	 mov	 BYTE PTR [eax+22], 0
; File C:\Anka2Project\Anka2Project\Source\Binary\source\UserInterface\PythonPlayerSettingsModule.h

; 138  : 	{CPythonItem::USESOUND_BOW, "sound/ui/equip_bow.wav"},

  001c7	c6 45 fc 03	 mov	 BYTE PTR __$EHRec$[ebp+8], 3
  001cb	0f 57 c0	 xorps	 xmm0, xmm0
; File C:\Program Files\Microsoft Visual Studio\2022\Community\VC\Tools\MSVC\14.44.35207\include\utility

; 274  :         : first(_STD forward<_Other1>(_Val1)), second(_STD forward<_Other2>(_Val2)) {

  001ce	c7 05 70 00 00
	00 03 00 00 00	 mov	 DWORD PTR ?vecUseSoundFileName@@3V?$array@U?$pair@KV?$basic_string@DU?$char_traits@D@std@@V?$allocator@D@2@@std@@@std@@$06@std@@B+112, 3
; File C:\Program Files\Microsoft Visual Studio\2022\Community\VC\Tools\MSVC\14.44.35207\include\xstring

; 493  :         _CONSTEXPR20 _Bxty() noexcept : _Buf() {} // user-provided, for fancy pointers

  001d8	0f 11 05 74 00
	00 00		 movups	 XMMWORD PTR ?vecUseSoundFileName@@3V?$array@U?$pair@KV?$basic_string@DU?$char_traits@D@std@@V?$allocator@D@2@@std@@@std@@$06@std@@B+116, xmm0

; 517  :     size_type _Mysize = 0; // current length of string (size)

  001df	c7 05 84 00 00
	00 00 00 00 00	 mov	 DWORD PTR ?vecUseSoundFileName@@3V?$array@U?$pair@KV?$basic_string@DU?$char_traits@D@std@@V?$allocator@D@2@@std@@@std@@$06@std@@B+132, 0

; 518  :     size_type _Myres  = 0; // current storage reserved for string (capacity)

  001e9	c7 05 88 00 00
	00 00 00 00 00	 mov	 DWORD PTR ?vecUseSoundFileName@@3V?$array@U?$pair@KV?$basic_string@DU?$char_traits@D@std@@V?$allocator@D@2@@std@@@std@@$06@std@@B+136, 0
; File C:\Program Files\Microsoft Visual Studio\2022\Community\VC\Tools\MSVC\14.44.35207\include\xmemory

; 136  :         return ::operator new(_Bytes);

  001f3	6a 20		 push	 32			; 00000020H
  001f5	e8 00 00 00 00	 call	 ??2@YAPAXI@Z		; operator new
; File C:\Program Files\Microsoft Visual Studio\2022\Community\VC\Tools\MSVC\14.44.35207\include\__msvc_string_view.hpp

; 121  :         _CSTD memcpy(_First1, _First2, _Count * sizeof(_Elem));

  001fa	0f 10 05 00 00
	00 00		 movups	 xmm0, XMMWORD PTR ??_C@_0CA@COJJICKC@sound?1ui?1equip_metal_weapon?4wav@
; File C:\Program Files\Microsoft Visual Studio\2022\Community\VC\Tools\MSVC\14.44.35207\include\xmemory

; 256  :         return _Traits::_Allocate(_Bytes);

  00201	8b d0		 mov	 edx, eax
; File C:\Program Files\Microsoft Visual Studio\2022\Community\VC\Tools\MSVC\14.44.35207\include\xstring

; 915  :         _My_data._Mysize = _Count;

  00203	c7 05 84 00 00
	00 1f 00 00 00	 mov	 DWORD PTR ?vecUseSoundFileName@@3V?$array@U?$pair@KV?$basic_string@DU?$char_traits@D@std@@V?$allocator@D@2@@std@@@std@@$06@std@@B+132, 31 ; 0000001fH
  0020d	89 15 74 00 00
	00		 mov	 DWORD PTR ?vecUseSoundFileName@@3V?$array@U?$pair@KV?$basic_string@DU?$char_traits@D@std@@V?$allocator@D@2@@std@@@std@@$06@std@@B+116, edx

; 916  :         _My_data._Myres  = _New_capacity;

  00213	c7 05 88 00 00
	00 1f 00 00 00	 mov	 DWORD PTR ?vecUseSoundFileName@@3V?$array@U?$pair@KV?$basic_string@DU?$char_traits@D@std@@V?$allocator@D@2@@std@@@std@@$06@std@@B+136, 31 ; 0000001fH
; File C:\Program Files\Microsoft Visual Studio\2022\Community\VC\Tools\MSVC\14.44.35207\include\__msvc_string_view.hpp

; 121  :         _CSTD memcpy(_First1, _First2, _Count * sizeof(_Elem));

  0021d	0f 11 02	 movups	 XMMWORD PTR [edx], xmm0
  00220	f3 0f 7e 05 10
	00 00 00	 movq	 xmm0, QWORD PTR ??_C@_0CA@COJJICKC@sound?1ui?1equip_metal_weapon?4wav@+16
  00228	66 0f d6 42 10	 movq	 QWORD PTR [edx+16], xmm0
  0022d	8b 0d 18 00 00
	00		 mov	 ecx, DWORD PTR ??_C@_0CA@COJJICKC@sound?1ui?1equip_metal_weapon?4wav@+24
  00233	89 4a 18	 mov	 DWORD PTR [edx+24], ecx
  00236	0f b7 05 1c 00
	00 00		 movzx	 eax, WORD PTR ??_C@_0CA@COJJICKC@sound?1ui?1equip_metal_weapon?4wav@+28
  0023d	66 89 42 1c	 mov	 WORD PTR [edx+28], ax
  00241	0f b6 05 1e 00
	00 00		 movzx	 eax, BYTE PTR ??_C@_0CA@COJJICKC@sound?1ui?1equip_metal_weapon?4wav@+30
  00248	88 42 1e	 mov	 BYTE PTR [edx+30], al
; File C:\Program Files\Microsoft Visual Studio\2022\Community\VC\Tools\MSVC\14.44.35207\include\xstring

; 922  :             _Traits::assign(_Unfancy(_New_ptr)[_Count], _Elem());

  0024b	c6 42 1f 00	 mov	 BYTE PTR [edx+31], 0
; File C:\Anka2Project\Anka2Project\Source\Binary\source\UserInterface\PythonPlayerSettingsModule.h

; 139  : 	{CPythonItem::USESOUND_WEAPON, "sound/ui/equip_metal_weapon.wav"},

  0024f	c6 45 fc 04	 mov	 BYTE PTR __$EHRec$[ebp+8], 4
  00253	0f 57 c0	 xorps	 xmm0, xmm0
; File C:\Program Files\Microsoft Visual Studio\2022\Community\VC\Tools\MSVC\14.44.35207\include\xmemory

; 136  :         return ::operator new(_Bytes);

  00256	6a 20		 push	 32			; 00000020H
; File C:\Program Files\Microsoft Visual Studio\2022\Community\VC\Tools\MSVC\14.44.35207\include\utility

; 274  :         : first(_STD forward<_Other1>(_Val1)), second(_STD forward<_Other2>(_Val2)) {

  00258	c7 05 8c 00 00
	00 06 00 00 00	 mov	 DWORD PTR ?vecUseSoundFileName@@3V?$array@U?$pair@KV?$basic_string@DU?$char_traits@D@std@@V?$allocator@D@2@@std@@@std@@$06@std@@B+140, 6
; File C:\Program Files\Microsoft Visual Studio\2022\Community\VC\Tools\MSVC\14.44.35207\include\xstring

; 493  :         _CONSTEXPR20 _Bxty() noexcept : _Buf() {} // user-provided, for fancy pointers

  00262	0f 11 05 90 00
	00 00		 movups	 XMMWORD PTR ?vecUseSoundFileName@@3V?$array@U?$pair@KV?$basic_string@DU?$char_traits@D@std@@V?$allocator@D@2@@std@@@std@@$06@std@@B+144, xmm0

; 517  :     size_type _Mysize = 0; // current length of string (size)

  00269	c7 05 a0 00 00
	00 00 00 00 00	 mov	 DWORD PTR ?vecUseSoundFileName@@3V?$array@U?$pair@KV?$basic_string@DU?$char_traits@D@std@@V?$allocator@D@2@@std@@@std@@$06@std@@B+160, 0

; 518  :     size_type _Myres  = 0; // current storage reserved for string (capacity)

  00273	c7 05 a4 00 00
	00 00 00 00 00	 mov	 DWORD PTR ?vecUseSoundFileName@@3V?$array@U?$pair@KV?$basic_string@DU?$char_traits@D@std@@V?$allocator@D@2@@std@@@std@@$06@std@@B+164, 0
; File C:\Program Files\Microsoft Visual Studio\2022\Community\VC\Tools\MSVC\14.44.35207\include\xmemory

; 136  :         return ::operator new(_Bytes);

  0027d	e8 00 00 00 00	 call	 ??2@YAPAXI@Z		; operator new
; File C:\Program Files\Microsoft Visual Studio\2022\Community\VC\Tools\MSVC\14.44.35207\include\__msvc_string_view.hpp

; 121  :         _CSTD memcpy(_First1, _First2, _Count * sizeof(_Elem));

  00282	0f 10 05 00 00
	00 00		 movups	 xmm0, XMMWORD PTR ??_C@_0BI@HPEEMGIC@sound?1ui?1eat_potion?4wav@
; File C:\Program Files\Microsoft Visual Studio\2022\Community\VC\Tools\MSVC\14.44.35207\include\xmemory

; 256  :         return _Traits::_Allocate(_Bytes);

  00289	8b d0		 mov	 edx, eax
; File C:\Program Files\Microsoft Visual Studio\2022\Community\VC\Tools\MSVC\14.44.35207\include\xstring

; 915  :         _My_data._Mysize = _Count;

  0028b	c7 05 a0 00 00
	00 17 00 00 00	 mov	 DWORD PTR ?vecUseSoundFileName@@3V?$array@U?$pair@KV?$basic_string@DU?$char_traits@D@std@@V?$allocator@D@2@@std@@@std@@$06@std@@B+160, 23 ; 00000017H
  00295	89 15 90 00 00
	00		 mov	 DWORD PTR ?vecUseSoundFileName@@3V?$array@U?$pair@KV?$basic_string@DU?$char_traits@D@std@@V?$allocator@D@2@@std@@@std@@$06@std@@B+144, edx

; 916  :         _My_data._Myres  = _New_capacity;

  0029b	c7 05 a4 00 00
	00 1f 00 00 00	 mov	 DWORD PTR ?vecUseSoundFileName@@3V?$array@U?$pair@KV?$basic_string@DU?$char_traits@D@std@@V?$allocator@D@2@@std@@@std@@$06@std@@B+164, 31 ; 0000001fH
; File C:\Program Files\Microsoft Visual Studio\2022\Community\VC\Tools\MSVC\14.44.35207\include\__msvc_string_view.hpp

; 121  :         _CSTD memcpy(_First1, _First2, _Count * sizeof(_Elem));

  002a5	0f 11 02	 movups	 XMMWORD PTR [edx], xmm0
  002a8	8b 0d 10 00 00
	00		 mov	 ecx, DWORD PTR ??_C@_0BI@HPEEMGIC@sound?1ui?1eat_potion?4wav@+16
  002ae	89 4a 10	 mov	 DWORD PTR [edx+16], ecx
  002b1	0f b7 0d 14 00
	00 00		 movzx	 ecx, WORD PTR ??_C@_0BI@HPEEMGIC@sound?1ui?1eat_potion?4wav@+20
  002b8	66 89 4a 14	 mov	 WORD PTR [edx+20], cx
  002bc	0f b6 05 16 00
	00 00		 movzx	 eax, BYTE PTR ??_C@_0BI@HPEEMGIC@sound?1ui?1eat_potion?4wav@+22
  002c3	88 42 16	 mov	 BYTE PTR [edx+22], al
; File C:\Program Files\Microsoft Visual Studio\2022\Community\VC\Tools\MSVC\14.44.35207\include\xstring

; 922  :             _Traits::assign(_Unfancy(_New_ptr)[_Count], _Elem());

  002c6	c6 42 17 00	 mov	 BYTE PTR [edx+23], 0
; File C:\Anka2Project\Anka2Project\Source\Binary\source\UserInterface\PythonPlayerSettingsModule.h

; 140  : 	{CPythonItem::USESOUND_POTION, "sound/ui/eat_potion.wav"},

  002ca	c6 45 fc 05	 mov	 BYTE PTR __$EHRec$[ebp+8], 5
  002ce	0f 57 c0	 xorps	 xmm0, xmm0
; File C:\Program Files\Microsoft Visual Studio\2022\Community\VC\Tools\MSVC\14.44.35207\include\xmemory

; 136  :         return ::operator new(_Bytes);

  002d1	6a 20		 push	 32			; 00000020H
; File C:\Program Files\Microsoft Visual Studio\2022\Community\VC\Tools\MSVC\14.44.35207\include\utility

; 274  :         : first(_STD forward<_Other1>(_Val1)), second(_STD forward<_Other2>(_Val2)) {

  002d3	c7 05 a8 00 00
	00 07 00 00 00	 mov	 DWORD PTR ?vecUseSoundFileName@@3V?$array@U?$pair@KV?$basic_string@DU?$char_traits@D@std@@V?$allocator@D@2@@std@@@std@@$06@std@@B+168, 7
; File C:\Program Files\Microsoft Visual Studio\2022\Community\VC\Tools\MSVC\14.44.35207\include\xstring

; 493  :         _CONSTEXPR20 _Bxty() noexcept : _Buf() {} // user-provided, for fancy pointers

  002dd	0f 11 05 ac 00
	00 00		 movups	 XMMWORD PTR ?vecUseSoundFileName@@3V?$array@U?$pair@KV?$basic_string@DU?$char_traits@D@std@@V?$allocator@D@2@@std@@@std@@$06@std@@B+172, xmm0

; 517  :     size_type _Mysize = 0; // current length of string (size)

  002e4	c7 05 bc 00 00
	00 00 00 00 00	 mov	 DWORD PTR ?vecUseSoundFileName@@3V?$array@U?$pair@KV?$basic_string@DU?$char_traits@D@std@@V?$allocator@D@2@@std@@@std@@$06@std@@B+188, 0

; 518  :     size_type _Myres  = 0; // current storage reserved for string (capacity)

  002ee	c7 05 c0 00 00
	00 00 00 00 00	 mov	 DWORD PTR ?vecUseSoundFileName@@3V?$array@U?$pair@KV?$basic_string@DU?$char_traits@D@std@@V?$allocator@D@2@@std@@@std@@$06@std@@B+192, 0
; File C:\Program Files\Microsoft Visual Studio\2022\Community\VC\Tools\MSVC\14.44.35207\include\xmemory

; 136  :         return ::operator new(_Bytes);

  002f8	e8 00 00 00 00	 call	 ??2@YAPAXI@Z		; operator new
; File C:\Program Files\Microsoft Visual Studio\2022\Community\VC\Tools\MSVC\14.44.35207\include\__msvc_string_view.hpp

; 121  :         _CSTD memcpy(_First1, _First2, _Count * sizeof(_Elem));

  002fd	0f 10 05 00 00
	00 00		 movups	 xmm0, XMMWORD PTR ??_C@_0BK@KFMADICD@sound?1ui?1potal_scroll?4wav@
; File C:\Program Files\Microsoft Visual Studio\2022\Community\VC\Tools\MSVC\14.44.35207\include\xstring

; 913  :         _Construct_in_place(_My_data._Bx._Ptr, _New_ptr);

  00304	a3 ac 00 00 00	 mov	 DWORD PTR ?vecUseSoundFileName@@3V?$array@U?$pair@KV?$basic_string@DU?$char_traits@D@std@@V?$allocator@D@2@@std@@@std@@$06@std@@B+172, eax

; 915  :         _My_data._Mysize = _Count;

  00309	c7 05 bc 00 00
	00 19 00 00 00	 mov	 DWORD PTR ?vecUseSoundFileName@@3V?$array@U?$pair@KV?$basic_string@DU?$char_traits@D@std@@V?$allocator@D@2@@std@@@std@@$06@std@@B+188, 25 ; 00000019H

; 916  :         _My_data._Myres  = _New_capacity;

  00313	c7 05 c0 00 00
	00 1f 00 00 00	 mov	 DWORD PTR ?vecUseSoundFileName@@3V?$array@U?$pair@KV?$basic_string@DU?$char_traits@D@std@@V?$allocator@D@2@@std@@@std@@$06@std@@B+192, 31 ; 0000001fH
; File C:\Program Files\Microsoft Visual Studio\2022\Community\VC\Tools\MSVC\14.44.35207\include\__msvc_string_view.hpp

; 121  :         _CSTD memcpy(_First1, _First2, _Count * sizeof(_Elem));

  0031d	0f 11 00	 movups	 XMMWORD PTR [eax], xmm0
; File C:\Anka2Project\Anka2Project\Source\Binary\source\UserInterface\PythonPlayerSettingsModule.h

; 133  : static const std::array<TSoundFileName, CPythonItem::USESOUND_NUM - 1> vecUseSoundFileName =

  00320	68 00 00 00 00	 push	 OFFSET ??__FvecUseSoundFileName@@YAXXZ ; `dynamic atexit destructor for 'vecUseSoundFileName''
; File C:\Program Files\Microsoft Visual Studio\2022\Community\VC\Tools\MSVC\14.44.35207\include\__msvc_string_view.hpp

; 121  :         _CSTD memcpy(_First1, _First2, _Count * sizeof(_Elem));

  00325	f3 0f 7e 05 10
	00 00 00	 movq	 xmm0, QWORD PTR ??_C@_0BK@KFMADICD@sound?1ui?1potal_scroll?4wav@+16
  0032d	66 0f d6 40 10	 movq	 QWORD PTR [eax+16], xmm0
  00332	0f b6 0d 18 00
	00 00		 movzx	 ecx, BYTE PTR ??_C@_0BK@KFMADICD@sound?1ui?1potal_scroll?4wav@+24
  00339	88 48 18	 mov	 BYTE PTR [eax+24], cl
; File C:\Program Files\Microsoft Visual Studio\2022\Community\VC\Tools\MSVC\14.44.35207\include\xstring

; 922  :             _Traits::assign(_Unfancy(_New_ptr)[_Count], _Elem());

  0033c	c6 40 19 00	 mov	 BYTE PTR [eax+25], 0
; File C:\Anka2Project\Anka2Project\Source\Binary\source\UserInterface\PythonPlayerSettingsModule.h

; 133  : static const std::array<TSoundFileName, CPythonItem::USESOUND_NUM - 1> vecUseSoundFileName =

  00340	e8 00 00 00 00	 call	 _atexit
  00345	83 c4 20	 add	 esp, 32			; 00000020H
  00348	8b 4d f4	 mov	 ecx, DWORD PTR __$EHRec$[ebp]
  0034b	64 89 0d 00 00
	00 00		 mov	 DWORD PTR fs:0, ecx
  00352	59		 pop	 ecx
  00353	8b e5		 mov	 esp, ebp
  00355	5d		 pop	 ebp
  00356	c3		 ret	 0
text$di	ENDS
;	COMDAT text$x
text$x	SEGMENT
__unwindfunclet$??__EvecUseSoundFileName@@YAXXZ$0:
  00000	b9 00 00 00 00	 mov	 ecx, OFFSET ?vecUseSoundFileName@@3V?$array@U?$pair@KV?$basic_string@DU?$char_traits@D@std@@V?$allocator@D@2@@std@@@std@@$06@std@@B
  00005	e9 00 00 00 00	 jmp	 ??1?$pair@KV?$basic_string@DU?$char_traits@D@std@@V?$allocator@D@2@@std@@@std@@QAE@XZ
__unwindfunclet$??__EvecUseSoundFileName@@YAXXZ$1:
  0000a	b9 1c 00 00 00	 mov	 ecx, OFFSET ?vecUseSoundFileName@@3V?$array@U?$pair@KV?$basic_string@DU?$char_traits@D@std@@V?$allocator@D@2@@std@@@std@@$06@std@@B+28
  0000f	e9 00 00 00 00	 jmp	 ??1?$pair@KV?$basic_string@DU?$char_traits@D@std@@V?$allocator@D@2@@std@@@std@@QAE@XZ
__unwindfunclet$??__EvecUseSoundFileName@@YAXXZ$2:
  00014	b9 38 00 00 00	 mov	 ecx, OFFSET ?vecUseSoundFileName@@3V?$array@U?$pair@KV?$basic_string@DU?$char_traits@D@std@@V?$allocator@D@2@@std@@@std@@$06@std@@B+56
  00019	e9 00 00 00 00	 jmp	 ??1?$pair@KV?$basic_string@DU?$char_traits@D@std@@V?$allocator@D@2@@std@@@std@@QAE@XZ
__unwindfunclet$??__EvecUseSoundFileName@@YAXXZ$3:
  0001e	b9 54 00 00 00	 mov	 ecx, OFFSET ?vecUseSoundFileName@@3V?$array@U?$pair@KV?$basic_string@DU?$char_traits@D@std@@V?$allocator@D@2@@std@@@std@@$06@std@@B+84
  00023	e9 00 00 00 00	 jmp	 ??1?$pair@KV?$basic_string@DU?$char_traits@D@std@@V?$allocator@D@2@@std@@@std@@QAE@XZ
__unwindfunclet$??__EvecUseSoundFileName@@YAXXZ$4:
  00028	b9 70 00 00 00	 mov	 ecx, OFFSET ?vecUseSoundFileName@@3V?$array@U?$pair@KV?$basic_string@DU?$char_traits@D@std@@V?$allocator@D@2@@std@@@std@@$06@std@@B+112
  0002d	e9 00 00 00 00	 jmp	 ??1?$pair@KV?$basic_string@DU?$char_traits@D@std@@V?$allocator@D@2@@std@@@std@@QAE@XZ
__unwindfunclet$??__EvecUseSoundFileName@@YAXXZ$5:
  00032	b9 8c 00 00 00	 mov	 ecx, OFFSET ?vecUseSoundFileName@@3V?$array@U?$pair@KV?$basic_string@DU?$char_traits@D@std@@V?$allocator@D@2@@std@@@std@@$06@std@@B+140
  00037	e9 00 00 00 00	 jmp	 ??1?$pair@KV?$basic_string@DU?$char_traits@D@std@@V?$allocator@D@2@@std@@@std@@QAE@XZ
  0003c	cc		 int	 3
  0003d	cc		 int	 3
  0003e	cc		 int	 3
  0003f	cc		 int	 3
  00040	cc		 int	 3
__ehhandler$??__EvecUseSoundFileName@@YAXXZ:
  00041	90		 npad	 1
  00042	90		 npad	 1
  00043	8b 54 24 08	 mov	 edx, DWORD PTR [esp+8]
  00047	8d 42 0c	 lea	 eax, DWORD PTR [edx+12]
  0004a	8b 4a fc	 mov	 ecx, DWORD PTR [edx-4]
  0004d	33 c8		 xor	 ecx, eax
  0004f	e8 00 00 00 00	 call	 @__security_check_cookie@4
  00054	b8 00 00 00 00	 mov	 eax, OFFSET __ehfuncinfo$??__EvecUseSoundFileName@@YAXXZ
  00059	e9 00 00 00 00	 jmp	 ___CxxFrameHandler3
text$x	ENDS
??__EvecUseSoundFileName@@YAXXZ ENDP			; `dynamic initializer for 'vecUseSoundFileName''
; Function compile flags: /Ogtp
;	COMDAT ??__FvecUseSoundFileName@@YAXXZ
text$yd	SEGMENT
__$EHRec$ = -12						; size = 12
??__FvecUseSoundFileName@@YAXXZ PROC			; `dynamic atexit destructor for 'vecUseSoundFileName'', COMDAT
  00000	55		 push	 ebp
  00001	8b ec		 mov	 ebp, esp
  00003	6a ff		 push	 -1
  00005	68 00 00 00 00	 push	 __ehhandler$??__FvecUseSoundFileName@@YAXXZ
  0000a	64 a1 00 00 00
	00		 mov	 eax, DWORD PTR fs:0
  00010	50		 push	 eax
  00011	a1 00 00 00 00	 mov	 eax, DWORD PTR ___security_cookie
  00016	33 c5		 xor	 eax, ebp
  00018	50		 push	 eax
  00019	8d 45 f4	 lea	 eax, DWORD PTR __$EHRec$[ebp]
  0001c	64 a3 00 00 00
	00		 mov	 DWORD PTR fs:0, eax
  00022	68 00 00 00 00	 push	 OFFSET ??1?$pair@KV?$basic_string@DU?$char_traits@D@std@@V?$allocator@D@2@@std@@@std@@QAE@XZ
  00027	6a 07		 push	 7
  00029	6a 1c		 push	 28			; 0000001cH
  0002b	68 00 00 00 00	 push	 OFFSET ?vecUseSoundFileName@@3V?$array@U?$pair@KV?$basic_string@DU?$char_traits@D@std@@V?$allocator@D@2@@std@@@std@@$06@std@@B
  00030	c7 45 fc 00 00
	00 00		 mov	 DWORD PTR __$EHRec$[ebp+8], 0
  00037	e8 00 00 00 00	 call	 ??_M@YGXPAXIIP6EX0@Z@Z
  0003c	8b 4d f4	 mov	 ecx, DWORD PTR __$EHRec$[ebp]
  0003f	64 89 0d 00 00
	00 00		 mov	 DWORD PTR fs:0, ecx
  00046	59		 pop	 ecx
  00047	8b e5		 mov	 esp, ebp
  00049	5d		 pop	 ebp
  0004a	c3		 ret	 0
  0004b	cc		 int	 3
  0004c	cc		 int	 3
  0004d	cc		 int	 3
  0004e	cc		 int	 3
  0004f	cc		 int	 3
text$yd	ENDS
;	COMDAT text$x
text$x	SEGMENT
__ehhandler$??__FvecUseSoundFileName@@YAXXZ:
  00000	90		 npad	 1
  00001	90		 npad	 1
  00002	8b 54 24 08	 mov	 edx, DWORD PTR [esp+8]
  00006	8d 42 0c	 lea	 eax, DWORD PTR [edx+12]
  00009	8b 4a fc	 mov	 ecx, DWORD PTR [edx-4]
  0000c	33 c8		 xor	 ecx, eax
  0000e	e8 00 00 00 00	 call	 @__security_check_cookie@4
  00013	b8 00 00 00 00	 mov	 eax, OFFSET __ehfuncinfo$??__FvecUseSoundFileName@@YAXXZ
  00018	e9 00 00 00 00	 jmp	 ___CxxFrameHandler3
text$x	ENDS
??__FvecUseSoundFileName@@YAXXZ ENDP			; `dynamic atexit destructor for 'vecUseSoundFileName''
; Function compile flags: /Ogtp
; File C:\Anka2Project\Anka2Project\Source\Binary\source\UserInterface\PythonPlayerSettingsModule.h
; File C:\Program Files\Microsoft Visual Studio\2022\Community\VC\Tools\MSVC\14.44.35207\include\xmemory
; File C:\Program Files\Microsoft Visual Studio\2022\Community\VC\Tools\MSVC\14.44.35207\include\__msvc_string_view.hpp
; File C:\Program Files\Microsoft Visual Studio\2022\Community\VC\Tools\MSVC\14.44.35207\include\xstring
; File C:\Program Files\Microsoft Visual Studio\2022\Community\VC\Tools\MSVC\14.44.35207\include\__msvc_string_view.hpp
; File C:\Program Files\Microsoft Visual Studio\2022\Community\VC\Tools\MSVC\14.44.35207\include\xstring
; File C:\Anka2Project\Anka2Project\Source\Binary\source\UserInterface\PythonPlayerSettingsModule.h
; File C:\Program Files\Microsoft Visual Studio\2022\Community\VC\Tools\MSVC\14.44.35207\include\xmemory
; File C:\Program Files\Microsoft Visual Studio\2022\Community\VC\Tools\MSVC\14.44.35207\include\utility
; File C:\Program Files\Microsoft Visual Studio\2022\Community\VC\Tools\MSVC\14.44.35207\include\xstring
; File C:\Program Files\Microsoft Visual Studio\2022\Community\VC\Tools\MSVC\14.44.35207\include\xmemory
; File C:\Program Files\Microsoft Visual Studio\2022\Community\VC\Tools\MSVC\14.44.35207\include\__msvc_string_view.hpp
; File C:\Program Files\Microsoft Visual Studio\2022\Community\VC\Tools\MSVC\14.44.35207\include\xmemory
; File C:\Program Files\Microsoft Visual Studio\2022\Community\VC\Tools\MSVC\14.44.35207\include\xstring
; File C:\Program Files\Microsoft Visual Studio\2022\Community\VC\Tools\MSVC\14.44.35207\include\__msvc_string_view.hpp
; File C:\Program Files\Microsoft Visual Studio\2022\Community\VC\Tools\MSVC\14.44.35207\include\xstring
; File C:\Anka2Project\Anka2Project\Source\Binary\source\UserInterface\PythonPlayerSettingsModule.h
; File C:\Program Files\Microsoft Visual Studio\2022\Community\VC\Tools\MSVC\14.44.35207\include\xmemory
; File C:\Program Files\Microsoft Visual Studio\2022\Community\VC\Tools\MSVC\14.44.35207\include\utility
; File C:\Program Files\Microsoft Visual Studio\2022\Community\VC\Tools\MSVC\14.44.35207\include\xstring
; File C:\Program Files\Microsoft Visual Studio\2022\Community\VC\Tools\MSVC\14.44.35207\include\xmemory
; File C:\Program Files\Microsoft Visual Studio\2022\Community\VC\Tools\MSVC\14.44.35207\include\__msvc_string_view.hpp
; File C:\Program Files\Microsoft Visual Studio\2022\Community\VC\Tools\MSVC\14.44.35207\include\xmemory
; File C:\Program Files\Microsoft Visual Studio\2022\Community\VC\Tools\MSVC\14.44.35207\include\xstring
; File C:\Program Files\Microsoft Visual Studio\2022\Community\VC\Tools\MSVC\14.44.35207\include\__msvc_string_view.hpp
; File C:\Program Files\Microsoft Visual Studio\2022\Community\VC\Tools\MSVC\14.44.35207\include\xstring
; File C:\Anka2Project\Anka2Project\Source\Binary\source\UserInterface\PythonPlayerSettingsModule.h
; File C:\Program Files\Microsoft Visual Studio\2022\Community\VC\Tools\MSVC\14.44.35207\include\xmemory
; File C:\Program Files\Microsoft Visual Studio\2022\Community\VC\Tools\MSVC\14.44.35207\include\utility
; File C:\Program Files\Microsoft Visual Studio\2022\Community\VC\Tools\MSVC\14.44.35207\include\xstring
; File C:\Program Files\Microsoft Visual Studio\2022\Community\VC\Tools\MSVC\14.44.35207\include\xmemory
; File C:\Program Files\Microsoft Visual Studio\2022\Community\VC\Tools\MSVC\14.44.35207\include\__msvc_string_view.hpp
; File C:\Program Files\Microsoft Visual Studio\2022\Community\VC\Tools\MSVC\14.44.35207\include\xstring
; File C:\Program Files\Microsoft Visual Studio\2022\Community\VC\Tools\MSVC\14.44.35207\include\__msvc_string_view.hpp
; File C:\Program Files\Microsoft Visual Studio\2022\Community\VC\Tools\MSVC\14.44.35207\include\xstring
; File C:\Anka2Project\Anka2Project\Source\Binary\source\UserInterface\PythonPlayerSettingsModule.h
; File C:\Program Files\Microsoft Visual Studio\2022\Community\VC\Tools\MSVC\14.44.35207\include\utility
; File C:\Program Files\Microsoft Visual Studio\2022\Community\VC\Tools\MSVC\14.44.35207\include\xstring
; File C:\Program Files\Microsoft Visual Studio\2022\Community\VC\Tools\MSVC\14.44.35207\include\xmemory
; File C:\Program Files\Microsoft Visual Studio\2022\Community\VC\Tools\MSVC\14.44.35207\include\__msvc_string_view.hpp
; File C:\Program Files\Microsoft Visual Studio\2022\Community\VC\Tools\MSVC\14.44.35207\include\xmemory
; File C:\Program Files\Microsoft Visual Studio\2022\Community\VC\Tools\MSVC\14.44.35207\include\xstring
; File C:\Anka2Project\Anka2Project\Source\Binary\source\UserInterface\PythonPlayerSettingsModule.h
; File C:\Program Files\Microsoft Visual Studio\2022\Community\VC\Tools\MSVC\14.44.35207\include\__msvc_string_view.hpp
; File C:\Program Files\Microsoft Visual Studio\2022\Community\VC\Tools\MSVC\14.44.35207\include\xstring
; File C:\Anka2Project\Anka2Project\Source\Binary\source\UserInterface\PythonPlayerSettingsModule.h
;	COMDAT ??__EvecDropSoundFileName@@YAXXZ
text$di	SEGMENT
__$EHRec$ = -12						; size = 12
??__EvecDropSoundFileName@@YAXXZ PROC			; `dynamic initializer for 'vecDropSoundFileName'', COMDAT

; 151  : } };

  00000	55		 push	 ebp
  00001	8b ec		 mov	 ebp, esp
  00003	6a ff		 push	 -1
  00005	68 00 00 00 00	 push	 __ehhandler$??__EvecDropSoundFileName@@YAXXZ
  0000a	64 a1 00 00 00
	00		 mov	 eax, DWORD PTR fs:0
  00010	50		 push	 eax
  00011	a1 00 00 00 00	 mov	 eax, DWORD PTR ___security_cookie
  00016	33 c5		 xor	 eax, ebp
  00018	50		 push	 eax
  00019	8d 45 f4	 lea	 eax, DWORD PTR __$EHRec$[ebp]
  0001c	64 a3 00 00 00
	00		 mov	 DWORD PTR fs:0, eax
; File C:\Program Files\Microsoft Visual Studio\2022\Community\VC\Tools\MSVC\14.44.35207\include\xmemory

; 136  :         return ::operator new(_Bytes);

  00022	6a 20		 push	 32			; 00000020H
  00024	e8 00 00 00 00	 call	 ??2@YAPAXI@Z		; operator new
; File C:\Program Files\Microsoft Visual Studio\2022\Community\VC\Tools\MSVC\14.44.35207\include\__msvc_string_view.hpp

; 121  :         _CSTD memcpy(_First1, _First2, _Count * sizeof(_Elem));

  00029	0f 10 05 00 00
	00 00		 movups	 xmm0, XMMWORD PTR ??_C@_0BC@NAJLHID@sound?1ui?1drop?4wav@
; File C:\Program Files\Microsoft Visual Studio\2022\Community\VC\Tools\MSVC\14.44.35207\include\xstring

; 913  :         _Construct_in_place(_My_data._Bx._Ptr, _New_ptr);

  00030	a3 04 00 00 00	 mov	 DWORD PTR ?vecDropSoundFileName@@3V?$array@U?$pair@KV?$basic_string@DU?$char_traits@D@std@@V?$allocator@D@2@@std@@@std@@$04@std@@B+4, eax

; 915  :         _My_data._Mysize = _Count;

  00035	c7 05 14 00 00
	00 11 00 00 00	 mov	 DWORD PTR ?vecDropSoundFileName@@3V?$array@U?$pair@KV?$basic_string@DU?$char_traits@D@std@@V?$allocator@D@2@@std@@@std@@$04@std@@B+20, 17 ; 00000011H

; 916  :         _My_data._Myres  = _New_capacity;

  0003f	c7 05 18 00 00
	00 1f 00 00 00	 mov	 DWORD PTR ?vecDropSoundFileName@@3V?$array@U?$pair@KV?$basic_string@DU?$char_traits@D@std@@V?$allocator@D@2@@std@@@std@@$04@std@@B+24, 31 ; 0000001fH
; File C:\Program Files\Microsoft Visual Studio\2022\Community\VC\Tools\MSVC\14.44.35207\include\__msvc_string_view.hpp

; 121  :         _CSTD memcpy(_First1, _First2, _Count * sizeof(_Elem));

  00049	0f 11 00	 movups	 XMMWORD PTR [eax], xmm0
  0004c	8a 0d 10 00 00
	00		 mov	 cl, BYTE PTR ??_C@_0BC@NAJLHID@sound?1ui?1drop?4wav@+16
  00052	88 48 10	 mov	 BYTE PTR [eax+16], cl
; File C:\Program Files\Microsoft Visual Studio\2022\Community\VC\Tools\MSVC\14.44.35207\include\xstring

; 922  :             _Traits::assign(_Unfancy(_New_ptr)[_Count], _Elem());

  00055	c6 40 11 00	 mov	 BYTE PTR [eax+17], 0
; File C:\Anka2Project\Anka2Project\Source\Binary\source\UserInterface\PythonPlayerSettingsModule.h

; 146  : 		{CPythonItem::DROPSOUND_DEFAULT, "sound/ui/drop.wav"},

  00059	c7 45 fc 00 00
	00 00		 mov	 DWORD PTR __$EHRec$[ebp+8], 0
  00060	0f 57 c0	 xorps	 xmm0, xmm0
; File C:\Program Files\Microsoft Visual Studio\2022\Community\VC\Tools\MSVC\14.44.35207\include\xmemory

; 136  :         return ::operator new(_Bytes);

  00063	6a 20		 push	 32			; 00000020H
; File C:\Program Files\Microsoft Visual Studio\2022\Community\VC\Tools\MSVC\14.44.35207\include\utility

; 274  :         : first(_STD forward<_Other1>(_Val1)), second(_STD forward<_Other2>(_Val2)) {

  00065	c7 05 1c 00 00
	00 04 00 00 00	 mov	 DWORD PTR ?vecDropSoundFileName@@3V?$array@U?$pair@KV?$basic_string@DU?$char_traits@D@std@@V?$allocator@D@2@@std@@@std@@$04@std@@B+28, 4
; File C:\Program Files\Microsoft Visual Studio\2022\Community\VC\Tools\MSVC\14.44.35207\include\xstring

; 493  :         _CONSTEXPR20 _Bxty() noexcept : _Buf() {} // user-provided, for fancy pointers

  0006f	0f 11 05 20 00
	00 00		 movups	 XMMWORD PTR ?vecDropSoundFileName@@3V?$array@U?$pair@KV?$basic_string@DU?$char_traits@D@std@@V?$allocator@D@2@@std@@@std@@$04@std@@B+32, xmm0

; 517  :     size_type _Mysize = 0; // current length of string (size)

  00076	c7 05 30 00 00
	00 00 00 00 00	 mov	 DWORD PTR ?vecDropSoundFileName@@3V?$array@U?$pair@KV?$basic_string@DU?$char_traits@D@std@@V?$allocator@D@2@@std@@@std@@$04@std@@B+48, 0

; 518  :     size_type _Myres  = 0; // current storage reserved for string (capacity)

  00080	c7 05 34 00 00
	00 00 00 00 00	 mov	 DWORD PTR ?vecDropSoundFileName@@3V?$array@U?$pair@KV?$basic_string@DU?$char_traits@D@std@@V?$allocator@D@2@@std@@@std@@$04@std@@B+52, 0
; File C:\Program Files\Microsoft Visual Studio\2022\Community\VC\Tools\MSVC\14.44.35207\include\xmemory

; 136  :         return ::operator new(_Bytes);

  0008a	e8 00 00 00 00	 call	 ??2@YAPAXI@Z		; operator new
; File C:\Program Files\Microsoft Visual Studio\2022\Community\VC\Tools\MSVC\14.44.35207\include\__msvc_string_view.hpp

; 121  :         _CSTD memcpy(_First1, _First2, _Count * sizeof(_Elem));

  0008f	0f 10 05 00 00
	00 00		 movups	 xmm0, XMMWORD PTR ??_C@_0BP@BMHKPOHF@sound?1ui?1equip_ring_amulet?4wav@
; File C:\Program Files\Microsoft Visual Studio\2022\Community\VC\Tools\MSVC\14.44.35207\include\xmemory

; 256  :         return _Traits::_Allocate(_Bytes);

  00096	8b d0		 mov	 edx, eax
; File C:\Program Files\Microsoft Visual Studio\2022\Community\VC\Tools\MSVC\14.44.35207\include\xstring

; 915  :         _My_data._Mysize = _Count;

  00098	c7 05 30 00 00
	00 1e 00 00 00	 mov	 DWORD PTR ?vecDropSoundFileName@@3V?$array@U?$pair@KV?$basic_string@DU?$char_traits@D@std@@V?$allocator@D@2@@std@@@std@@$04@std@@B+48, 30 ; 0000001eH
  000a2	89 15 20 00 00
	00		 mov	 DWORD PTR ?vecDropSoundFileName@@3V?$array@U?$pair@KV?$basic_string@DU?$char_traits@D@std@@V?$allocator@D@2@@std@@@std@@$04@std@@B+32, edx

; 916  :         _My_data._Myres  = _New_capacity;

  000a8	c7 05 34 00 00
	00 1f 00 00 00	 mov	 DWORD PTR ?vecDropSoundFileName@@3V?$array@U?$pair@KV?$basic_string@DU?$char_traits@D@std@@V?$allocator@D@2@@std@@@std@@$04@std@@B+52, 31 ; 0000001fH
; File C:\Program Files\Microsoft Visual Studio\2022\Community\VC\Tools\MSVC\14.44.35207\include\__msvc_string_view.hpp

; 121  :         _CSTD memcpy(_First1, _First2, _Count * sizeof(_Elem));

  000b2	0f 11 02	 movups	 XMMWORD PTR [edx], xmm0
  000b5	f3 0f 7e 05 10
	00 00 00	 movq	 xmm0, QWORD PTR ??_C@_0BP@BMHKPOHF@sound?1ui?1equip_ring_amulet?4wav@+16
  000bd	66 0f d6 42 10	 movq	 QWORD PTR [edx+16], xmm0
  000c2	8b 0d 18 00 00
	00		 mov	 ecx, DWORD PTR ??_C@_0BP@BMHKPOHF@sound?1ui?1equip_ring_amulet?4wav@+24
  000c8	89 4a 18	 mov	 DWORD PTR [edx+24], ecx
  000cb	0f b7 05 1c 00
	00 00		 movzx	 eax, WORD PTR ??_C@_0BP@BMHKPOHF@sound?1ui?1equip_ring_amulet?4wav@+28
  000d2	66 89 42 1c	 mov	 WORD PTR [edx+28], ax
; File C:\Program Files\Microsoft Visual Studio\2022\Community\VC\Tools\MSVC\14.44.35207\include\xstring

; 922  :             _Traits::assign(_Unfancy(_New_ptr)[_Count], _Elem());

  000d6	c6 42 1e 00	 mov	 BYTE PTR [edx+30], 0
; File C:\Anka2Project\Anka2Project\Source\Binary\source\UserInterface\PythonPlayerSettingsModule.h

; 147  : 		{CPythonItem::DROPSOUND_ACCESSORY, "sound/ui/equip_ring_amulet.wav"},

  000da	c6 45 fc 01	 mov	 BYTE PTR __$EHRec$[ebp+8], 1
  000de	0f 57 c0	 xorps	 xmm0, xmm0
; File C:\Program Files\Microsoft Visual Studio\2022\Community\VC\Tools\MSVC\14.44.35207\include\xmemory

; 136  :         return ::operator new(_Bytes);

  000e1	6a 20		 push	 32			; 00000020H
; File C:\Program Files\Microsoft Visual Studio\2022\Community\VC\Tools\MSVC\14.44.35207\include\utility

; 274  :         : first(_STD forward<_Other1>(_Val1)), second(_STD forward<_Other2>(_Val2)) {

  000e3	c7 05 38 00 00
	00 01 00 00 00	 mov	 DWORD PTR ?vecDropSoundFileName@@3V?$array@U?$pair@KV?$basic_string@DU?$char_traits@D@std@@V?$allocator@D@2@@std@@@std@@$04@std@@B+56, 1
; File C:\Program Files\Microsoft Visual Studio\2022\Community\VC\Tools\MSVC\14.44.35207\include\xstring

; 493  :         _CONSTEXPR20 _Bxty() noexcept : _Buf() {} // user-provided, for fancy pointers

  000ed	0f 11 05 3c 00
	00 00		 movups	 XMMWORD PTR ?vecDropSoundFileName@@3V?$array@U?$pair@KV?$basic_string@DU?$char_traits@D@std@@V?$allocator@D@2@@std@@@std@@$04@std@@B+60, xmm0

; 517  :     size_type _Mysize = 0; // current length of string (size)

  000f4	c7 05 4c 00 00
	00 00 00 00 00	 mov	 DWORD PTR ?vecDropSoundFileName@@3V?$array@U?$pair@KV?$basic_string@DU?$char_traits@D@std@@V?$allocator@D@2@@std@@@std@@$04@std@@B+76, 0

; 518  :     size_type _Myres  = 0; // current storage reserved for string (capacity)

  000fe	c7 05 50 00 00
	00 00 00 00 00	 mov	 DWORD PTR ?vecDropSoundFileName@@3V?$array@U?$pair@KV?$basic_string@DU?$char_traits@D@std@@V?$allocator@D@2@@std@@@std@@$04@std@@B+80, 0
; File C:\Program Files\Microsoft Visual Studio\2022\Community\VC\Tools\MSVC\14.44.35207\include\xmemory

; 136  :         return ::operator new(_Bytes);

  00108	e8 00 00 00 00	 call	 ??2@YAPAXI@Z		; operator new
; File C:\Program Files\Microsoft Visual Studio\2022\Community\VC\Tools\MSVC\14.44.35207\include\__msvc_string_view.hpp

; 121  :         _CSTD memcpy(_First1, _First2, _Count * sizeof(_Elem));

  0010d	0f 10 05 00 00
	00 00		 movups	 xmm0, XMMWORD PTR ??_C@_0BP@PMFHICHL@sound?1ui?1equip_metal_armor?4wav@
; File C:\Program Files\Microsoft Visual Studio\2022\Community\VC\Tools\MSVC\14.44.35207\include\xmemory

; 256  :         return _Traits::_Allocate(_Bytes);

  00114	8b d0		 mov	 edx, eax
; File C:\Program Files\Microsoft Visual Studio\2022\Community\VC\Tools\MSVC\14.44.35207\include\xstring

; 915  :         _My_data._Mysize = _Count;

  00116	c7 05 4c 00 00
	00 1e 00 00 00	 mov	 DWORD PTR ?vecDropSoundFileName@@3V?$array@U?$pair@KV?$basic_string@DU?$char_traits@D@std@@V?$allocator@D@2@@std@@@std@@$04@std@@B+76, 30 ; 0000001eH
  00120	89 15 3c 00 00
	00		 mov	 DWORD PTR ?vecDropSoundFileName@@3V?$array@U?$pair@KV?$basic_string@DU?$char_traits@D@std@@V?$allocator@D@2@@std@@@std@@$04@std@@B+60, edx

; 916  :         _My_data._Myres  = _New_capacity;

  00126	c7 05 50 00 00
	00 1f 00 00 00	 mov	 DWORD PTR ?vecDropSoundFileName@@3V?$array@U?$pair@KV?$basic_string@DU?$char_traits@D@std@@V?$allocator@D@2@@std@@@std@@$04@std@@B+80, 31 ; 0000001fH
; File C:\Program Files\Microsoft Visual Studio\2022\Community\VC\Tools\MSVC\14.44.35207\include\__msvc_string_view.hpp

; 121  :         _CSTD memcpy(_First1, _First2, _Count * sizeof(_Elem));

  00130	0f 11 02	 movups	 XMMWORD PTR [edx], xmm0
  00133	f3 0f 7e 05 10
	00 00 00	 movq	 xmm0, QWORD PTR ??_C@_0BP@PMFHICHL@sound?1ui?1equip_metal_armor?4wav@+16
  0013b	66 0f d6 42 10	 movq	 QWORD PTR [edx+16], xmm0
  00140	8b 0d 18 00 00
	00		 mov	 ecx, DWORD PTR ??_C@_0BP@PMFHICHL@sound?1ui?1equip_metal_armor?4wav@+24
  00146	89 4a 18	 mov	 DWORD PTR [edx+24], ecx
  00149	0f b7 05 1c 00
	00 00		 movzx	 eax, WORD PTR ??_C@_0BP@PMFHICHL@sound?1ui?1equip_metal_armor?4wav@+28
  00150	66 89 42 1c	 mov	 WORD PTR [edx+28], ax
; File C:\Program Files\Microsoft Visual Studio\2022\Community\VC\Tools\MSVC\14.44.35207\include\xstring

; 922  :             _Traits::assign(_Unfancy(_New_ptr)[_Count], _Elem());

  00154	c6 42 1e 00	 mov	 BYTE PTR [edx+30], 0
; File C:\Anka2Project\Anka2Project\Source\Binary\source\UserInterface\PythonPlayerSettingsModule.h

; 148  : 		{CPythonItem::DROPSOUND_ARMOR, "sound/ui/equip_metal_armor.wav"},

  00158	c6 45 fc 02	 mov	 BYTE PTR __$EHRec$[ebp+8], 2
  0015c	0f 57 c0	 xorps	 xmm0, xmm0
; File C:\Program Files\Microsoft Visual Studio\2022\Community\VC\Tools\MSVC\14.44.35207\include\xmemory

; 136  :         return ::operator new(_Bytes);

  0015f	6a 20		 push	 32			; 00000020H
; File C:\Program Files\Microsoft Visual Studio\2022\Community\VC\Tools\MSVC\14.44.35207\include\utility

; 274  :         : first(_STD forward<_Other1>(_Val1)), second(_STD forward<_Other2>(_Val2)) {

  00161	c7 05 54 00 00
	00 03 00 00 00	 mov	 DWORD PTR ?vecDropSoundFileName@@3V?$array@U?$pair@KV?$basic_string@DU?$char_traits@D@std@@V?$allocator@D@2@@std@@@std@@$04@std@@B+84, 3
; File C:\Program Files\Microsoft Visual Studio\2022\Community\VC\Tools\MSVC\14.44.35207\include\xstring

; 493  :         _CONSTEXPR20 _Bxty() noexcept : _Buf() {} // user-provided, for fancy pointers

  0016b	0f 11 05 58 00
	00 00		 movups	 XMMWORD PTR ?vecDropSoundFileName@@3V?$array@U?$pair@KV?$basic_string@DU?$char_traits@D@std@@V?$allocator@D@2@@std@@@std@@$04@std@@B+88, xmm0

; 517  :     size_type _Mysize = 0; // current length of string (size)

  00172	c7 05 68 00 00
	00 00 00 00 00	 mov	 DWORD PTR ?vecDropSoundFileName@@3V?$array@U?$pair@KV?$basic_string@DU?$char_traits@D@std@@V?$allocator@D@2@@std@@@std@@$04@std@@B+104, 0

; 518  :     size_type _Myres  = 0; // current storage reserved for string (capacity)

  0017c	c7 05 6c 00 00
	00 00 00 00 00	 mov	 DWORD PTR ?vecDropSoundFileName@@3V?$array@U?$pair@KV?$basic_string@DU?$char_traits@D@std@@V?$allocator@D@2@@std@@@std@@$04@std@@B+108, 0
; File C:\Program Files\Microsoft Visual Studio\2022\Community\VC\Tools\MSVC\14.44.35207\include\xmemory

; 136  :         return ::operator new(_Bytes);

  00186	e8 00 00 00 00	 call	 ??2@YAPAXI@Z		; operator new
; File C:\Program Files\Microsoft Visual Studio\2022\Community\VC\Tools\MSVC\14.44.35207\include\__msvc_string_view.hpp

; 121  :         _CSTD memcpy(_First1, _First2, _Count * sizeof(_Elem));

  0018b	0f 10 05 00 00
	00 00		 movups	 xmm0, XMMWORD PTR ??_C@_0BH@JDLOIICI@sound?1ui?1equip_bow?4wav@
; File C:\Program Files\Microsoft Visual Studio\2022\Community\VC\Tools\MSVC\14.44.35207\include\xstring

; 913  :         _Construct_in_place(_My_data._Bx._Ptr, _New_ptr);

  00192	a3 58 00 00 00	 mov	 DWORD PTR ?vecDropSoundFileName@@3V?$array@U?$pair@KV?$basic_string@DU?$char_traits@D@std@@V?$allocator@D@2@@std@@@std@@$04@std@@B+88, eax

; 915  :         _My_data._Mysize = _Count;

  00197	c7 05 68 00 00
	00 16 00 00 00	 mov	 DWORD PTR ?vecDropSoundFileName@@3V?$array@U?$pair@KV?$basic_string@DU?$char_traits@D@std@@V?$allocator@D@2@@std@@@std@@$04@std@@B+104, 22 ; 00000016H

; 916  :         _My_data._Myres  = _New_capacity;

  001a1	c7 05 6c 00 00
	00 1f 00 00 00	 mov	 DWORD PTR ?vecDropSoundFileName@@3V?$array@U?$pair@KV?$basic_string@DU?$char_traits@D@std@@V?$allocator@D@2@@std@@@std@@$04@std@@B+108, 31 ; 0000001fH
; File C:\Program Files\Microsoft Visual Studio\2022\Community\VC\Tools\MSVC\14.44.35207\include\__msvc_string_view.hpp

; 121  :         _CSTD memcpy(_First1, _First2, _Count * sizeof(_Elem));

  001ab	0f 11 00	 movups	 XMMWORD PTR [eax], xmm0
  001ae	8b 0d 10 00 00
	00		 mov	 ecx, DWORD PTR ??_C@_0BH@JDLOIICI@sound?1ui?1equip_bow?4wav@+16
  001b4	89 48 10	 mov	 DWORD PTR [eax+16], ecx
  001b7	66 8b 0d 14 00
	00 00		 mov	 cx, WORD PTR ??_C@_0BH@JDLOIICI@sound?1ui?1equip_bow?4wav@+20
  001be	66 89 48 14	 mov	 WORD PTR [eax+20], cx
; File C:\Program Files\Microsoft Visual Studio\2022\Community\VC\Tools\MSVC\14.44.35207\include\xstring

; 922  :             _Traits::assign(_Unfancy(_New_ptr)[_Count], _Elem());

  001c2	c6 40 16 00	 mov	 BYTE PTR [eax+22], 0
; File C:\Anka2Project\Anka2Project\Source\Binary\source\UserInterface\PythonPlayerSettingsModule.h

; 149  : 		{CPythonItem::DROPSOUND_BOW, "sound/ui/equip_bow.wav"},

  001c6	c6 45 fc 03	 mov	 BYTE PTR __$EHRec$[ebp+8], 3
  001ca	0f 57 c0	 xorps	 xmm0, xmm0
; File C:\Program Files\Microsoft Visual Studio\2022\Community\VC\Tools\MSVC\14.44.35207\include\utility

; 274  :         : first(_STD forward<_Other1>(_Val1)), second(_STD forward<_Other2>(_Val2)) {

  001cd	c7 05 70 00 00
	00 02 00 00 00	 mov	 DWORD PTR ?vecDropSoundFileName@@3V?$array@U?$pair@KV?$basic_string@DU?$char_traits@D@std@@V?$allocator@D@2@@std@@@std@@$04@std@@B+112, 2
; File C:\Program Files\Microsoft Visual Studio\2022\Community\VC\Tools\MSVC\14.44.35207\include\xstring

; 493  :         _CONSTEXPR20 _Bxty() noexcept : _Buf() {} // user-provided, for fancy pointers

  001d7	0f 11 05 74 00
	00 00		 movups	 XMMWORD PTR ?vecDropSoundFileName@@3V?$array@U?$pair@KV?$basic_string@DU?$char_traits@D@std@@V?$allocator@D@2@@std@@@std@@$04@std@@B+116, xmm0

; 517  :     size_type _Mysize = 0; // current length of string (size)

  001de	c7 05 84 00 00
	00 00 00 00 00	 mov	 DWORD PTR ?vecDropSoundFileName@@3V?$array@U?$pair@KV?$basic_string@DU?$char_traits@D@std@@V?$allocator@D@2@@std@@@std@@$04@std@@B+132, 0

; 518  :     size_type _Myres  = 0; // current storage reserved for string (capacity)

  001e8	c7 05 88 00 00
	00 00 00 00 00	 mov	 DWORD PTR ?vecDropSoundFileName@@3V?$array@U?$pair@KV?$basic_string@DU?$char_traits@D@std@@V?$allocator@D@2@@std@@@std@@$04@std@@B+136, 0
; File C:\Program Files\Microsoft Visual Studio\2022\Community\VC\Tools\MSVC\14.44.35207\include\xmemory

; 136  :         return ::operator new(_Bytes);

  001f2	6a 20		 push	 32			; 00000020H
  001f4	e8 00 00 00 00	 call	 ??2@YAPAXI@Z		; operator new
; File C:\Program Files\Microsoft Visual Studio\2022\Community\VC\Tools\MSVC\14.44.35207\include\__msvc_string_view.hpp

; 121  :         _CSTD memcpy(_First1, _First2, _Count * sizeof(_Elem));

  001f9	0f 10 05 00 00
	00 00		 movups	 xmm0, XMMWORD PTR ??_C@_0CA@COJJICKC@sound?1ui?1equip_metal_weapon?4wav@
; File C:\Program Files\Microsoft Visual Studio\2022\Community\VC\Tools\MSVC\14.44.35207\include\xmemory

; 256  :         return _Traits::_Allocate(_Bytes);

  00200	8b d0		 mov	 edx, eax
; File C:\Program Files\Microsoft Visual Studio\2022\Community\VC\Tools\MSVC\14.44.35207\include\xstring

; 915  :         _My_data._Mysize = _Count;

  00202	c7 05 84 00 00
	00 1f 00 00 00	 mov	 DWORD PTR ?vecDropSoundFileName@@3V?$array@U?$pair@KV?$basic_string@DU?$char_traits@D@std@@V?$allocator@D@2@@std@@@std@@$04@std@@B+132, 31 ; 0000001fH
  0020c	89 15 74 00 00
	00		 mov	 DWORD PTR ?vecDropSoundFileName@@3V?$array@U?$pair@KV?$basic_string@DU?$char_traits@D@std@@V?$allocator@D@2@@std@@@std@@$04@std@@B+116, edx

; 916  :         _My_data._Myres  = _New_capacity;

  00212	c7 05 88 00 00
	00 1f 00 00 00	 mov	 DWORD PTR ?vecDropSoundFileName@@3V?$array@U?$pair@KV?$basic_string@DU?$char_traits@D@std@@V?$allocator@D@2@@std@@@std@@$04@std@@B+136, 31 ; 0000001fH
; File C:\Anka2Project\Anka2Project\Source\Binary\source\UserInterface\PythonPlayerSettingsModule.h

; 144  : static const std::array<TSoundFileName, CPythonItem::DROPSOUND_NUM> vecDropSoundFileName =

  0021c	68 00 00 00 00	 push	 OFFSET ??__FvecDropSoundFileName@@YAXXZ ; `dynamic atexit destructor for 'vecDropSoundFileName''
; File C:\Program Files\Microsoft Visual Studio\2022\Community\VC\Tools\MSVC\14.44.35207\include\__msvc_string_view.hpp

; 121  :         _CSTD memcpy(_First1, _First2, _Count * sizeof(_Elem));

  00221	0f 11 02	 movups	 XMMWORD PTR [edx], xmm0
  00224	f3 0f 7e 05 10
	00 00 00	 movq	 xmm0, QWORD PTR ??_C@_0CA@COJJICKC@sound?1ui?1equip_metal_weapon?4wav@+16
  0022c	66 0f d6 42 10	 movq	 QWORD PTR [edx+16], xmm0
  00231	8b 0d 18 00 00
	00		 mov	 ecx, DWORD PTR ??_C@_0CA@COJJICKC@sound?1ui?1equip_metal_weapon?4wav@+24
  00237	89 4a 18	 mov	 DWORD PTR [edx+24], ecx
  0023a	0f b7 05 1c 00
	00 00		 movzx	 eax, WORD PTR ??_C@_0CA@COJJICKC@sound?1ui?1equip_metal_weapon?4wav@+28
  00241	66 89 42 1c	 mov	 WORD PTR [edx+28], ax
  00245	a0 1e 00 00 00	 mov	 al, BYTE PTR ??_C@_0CA@COJJICKC@sound?1ui?1equip_metal_weapon?4wav@+30
  0024a	88 42 1e	 mov	 BYTE PTR [edx+30], al
; File C:\Program Files\Microsoft Visual Studio\2022\Community\VC\Tools\MSVC\14.44.35207\include\xstring

; 922  :             _Traits::assign(_Unfancy(_New_ptr)[_Count], _Elem());

  0024d	c6 42 1f 00	 mov	 BYTE PTR [edx+31], 0
; File C:\Anka2Project\Anka2Project\Source\Binary\source\UserInterface\PythonPlayerSettingsModule.h

; 144  : static const std::array<TSoundFileName, CPythonItem::DROPSOUND_NUM> vecDropSoundFileName =

  00251	e8 00 00 00 00	 call	 _atexit
  00256	83 c4 18	 add	 esp, 24			; 00000018H
  00259	8b 4d f4	 mov	 ecx, DWORD PTR __$EHRec$[ebp]
  0025c	64 89 0d 00 00
	00 00		 mov	 DWORD PTR fs:0, ecx
  00263	59		 pop	 ecx
  00264	8b e5		 mov	 esp, ebp
  00266	5d		 pop	 ebp
  00267	c3		 ret	 0
text$di	ENDS
;	COMDAT text$x
text$x	SEGMENT
__unwindfunclet$??__EvecDropSoundFileName@@YAXXZ$0:
  00000	b9 00 00 00 00	 mov	 ecx, OFFSET ?vecDropSoundFileName@@3V?$array@U?$pair@KV?$basic_string@DU?$char_traits@D@std@@V?$allocator@D@2@@std@@@std@@$04@std@@B
  00005	e9 00 00 00 00	 jmp	 ??1?$pair@KV?$basic_string@DU?$char_traits@D@std@@V?$allocator@D@2@@std@@@std@@QAE@XZ
__unwindfunclet$??__EvecDropSoundFileName@@YAXXZ$1:
  0000a	b9 1c 00 00 00	 mov	 ecx, OFFSET ?vecDropSoundFileName@@3V?$array@U?$pair@KV?$basic_string@DU?$char_traits@D@std@@V?$allocator@D@2@@std@@@std@@$04@std@@B+28
  0000f	e9 00 00 00 00	 jmp	 ??1?$pair@KV?$basic_string@DU?$char_traits@D@std@@V?$allocator@D@2@@std@@@std@@QAE@XZ
__unwindfunclet$??__EvecDropSoundFileName@@YAXXZ$2:
  00014	b9 38 00 00 00	 mov	 ecx, OFFSET ?vecDropSoundFileName@@3V?$array@U?$pair@KV?$basic_string@DU?$char_traits@D@std@@V?$allocator@D@2@@std@@@std@@$04@std@@B+56
  00019	e9 00 00 00 00	 jmp	 ??1?$pair@KV?$basic_string@DU?$char_traits@D@std@@V?$allocator@D@2@@std@@@std@@QAE@XZ
__unwindfunclet$??__EvecDropSoundFileName@@YAXXZ$3:
  0001e	b9 54 00 00 00	 mov	 ecx, OFFSET ?vecDropSoundFileName@@3V?$array@U?$pair@KV?$basic_string@DU?$char_traits@D@std@@V?$allocator@D@2@@std@@@std@@$04@std@@B+84
  00023	e9 00 00 00 00	 jmp	 ??1?$pair@KV?$basic_string@DU?$char_traits@D@std@@V?$allocator@D@2@@std@@@std@@QAE@XZ
  00028	cc		 int	 3
  00029	cc		 int	 3
  0002a	cc		 int	 3
  0002b	cc		 int	 3
  0002c	cc		 int	 3
__ehhandler$??__EvecDropSoundFileName@@YAXXZ:
  0002d	90		 npad	 1
  0002e	90		 npad	 1
  0002f	8b 54 24 08	 mov	 edx, DWORD PTR [esp+8]
  00033	8d 42 0c	 lea	 eax, DWORD PTR [edx+12]
  00036	8b 4a fc	 mov	 ecx, DWORD PTR [edx-4]
  00039	33 c8		 xor	 ecx, eax
  0003b	e8 00 00 00 00	 call	 @__security_check_cookie@4
  00040	b8 00 00 00 00	 mov	 eax, OFFSET __ehfuncinfo$??__EvecDropSoundFileName@@YAXXZ
  00045	e9 00 00 00 00	 jmp	 ___CxxFrameHandler3
text$x	ENDS
??__EvecDropSoundFileName@@YAXXZ ENDP			; `dynamic initializer for 'vecDropSoundFileName''
; Function compile flags: /Ogtp
;	COMDAT ??__FvecDropSoundFileName@@YAXXZ
text$yd	SEGMENT
__$EHRec$ = -12						; size = 12
??__FvecDropSoundFileName@@YAXXZ PROC			; `dynamic atexit destructor for 'vecDropSoundFileName'', COMDAT
  00000	55		 push	 ebp
  00001	8b ec		 mov	 ebp, esp
  00003	6a ff		 push	 -1
  00005	68 00 00 00 00	 push	 __ehhandler$??__FvecDropSoundFileName@@YAXXZ
  0000a	64 a1 00 00 00
	00		 mov	 eax, DWORD PTR fs:0
  00010	50		 push	 eax
  00011	a1 00 00 00 00	 mov	 eax, DWORD PTR ___security_cookie
  00016	33 c5		 xor	 eax, ebp
  00018	50		 push	 eax
  00019	8d 45 f4	 lea	 eax, DWORD PTR __$EHRec$[ebp]
  0001c	64 a3 00 00 00
	00		 mov	 DWORD PTR fs:0, eax
  00022	68 00 00 00 00	 push	 OFFSET ??1?$pair@KV?$basic_string@DU?$char_traits@D@std@@V?$allocator@D@2@@std@@@std@@QAE@XZ
  00027	6a 05		 push	 5
  00029	6a 1c		 push	 28			; 0000001cH
  0002b	68 00 00 00 00	 push	 OFFSET ?vecDropSoundFileName@@3V?$array@U?$pair@KV?$basic_string@DU?$char_traits@D@std@@V?$allocator@D@2@@std@@@std@@$04@std@@B
  00030	c7 45 fc 00 00
	00 00		 mov	 DWORD PTR __$EHRec$[ebp+8], 0
  00037	e8 00 00 00 00	 call	 ??_M@YGXPAXIIP6EX0@Z@Z
  0003c	8b 4d f4	 mov	 ecx, DWORD PTR __$EHRec$[ebp]
  0003f	64 89 0d 00 00
	00 00		 mov	 DWORD PTR fs:0, ecx
  00046	59		 pop	 ecx
  00047	8b e5		 mov	 esp, ebp
  00049	5d		 pop	 ebp
  0004a	c3		 ret	 0
  0004b	cc		 int	 3
  0004c	cc		 int	 3
  0004d	cc		 int	 3
  0004e	cc		 int	 3
  0004f	cc		 int	 3
text$yd	ENDS
;	COMDAT text$x
text$x	SEGMENT
__ehhandler$??__FvecDropSoundFileName@@YAXXZ:
  00000	90		 npad	 1
  00001	90		 npad	 1
  00002	8b 54 24 08	 mov	 edx, DWORD PTR [esp+8]
  00006	8d 42 0c	 lea	 eax, DWORD PTR [edx+12]
  00009	8b 4a fc	 mov	 ecx, DWORD PTR [edx-4]
  0000c	33 c8		 xor	 ecx, eax
  0000e	e8 00 00 00 00	 call	 @__security_check_cookie@4
  00013	b8 00 00 00 00	 mov	 eax, OFFSET __ehfuncinfo$??__FvecDropSoundFileName@@YAXXZ
  00018	e9 00 00 00 00	 jmp	 ___CxxFrameHandler3
text$x	ENDS
??__FvecDropSoundFileName@@YAXXZ ENDP			; `dynamic atexit destructor for 'vecDropSoundFileName''
; Function compile flags: /Ogtp
; File C:\Anka2Project\Anka2Project\Source\Binary\source\UserInterface\PythonPlayerSettingsModule.h
; File C:\Program Files\Microsoft Visual Studio\2022\Community\VC\Tools\MSVC\14.44.35207\include\tuple
; File C:\Anka2Project\Anka2Project\Source\Binary\source\UserInterface\PythonPlayerSettingsModule.h
; File C:\Program Files\Microsoft Visual Studio\2022\Community\VC\Tools\MSVC\14.44.35207\include\tuple
; File C:\Anka2Project\Anka2Project\Source\Binary\source\UserInterface\PythonPlayerSettingsModule.h
; File C:\Program Files\Microsoft Visual Studio\2022\Community\VC\Tools\MSVC\14.44.35207\include\tuple
; File C:\Anka2Project\Anka2Project\Source\Binary\source\UserInterface\PythonPlayerSettingsModule.h
; File C:\Program Files\Microsoft Visual Studio\2022\Community\VC\Tools\MSVC\14.44.35207\include\tuple
; File C:\Anka2Project\Anka2Project\Source\Binary\source\UserInterface\PythonPlayerSettingsModule.h
; File C:\Program Files\Microsoft Visual Studio\2022\Community\VC\Tools\MSVC\14.44.35207\include\initializer_list
; File C:\Anka2Project\Anka2Project\Source\Binary\source\UserInterface\PythonPlayerSettingsModule.h
; File C:\Program Files\Microsoft Visual Studio\2022\Community\VC\Tools\MSVC\14.44.35207\include\initializer_list
; File C:\Anka2Project\Anka2Project\Source\Binary\source\UserInterface\PythonPlayerSettingsModule.h
;	COMDAT ??__EvecEffectList@@YAXXZ
text$di	SEGMENT
$T742 = -2040						; size = 1
$T744 = -2039						; size = 1
$T746 = -2038						; size = 1
$T1 = -2037						; size = 1
$T741 = -2036						; size = 4
$T743 = -2032						; size = 4
$T745 = -2028						; size = 4
$T4 = -2024						; size = 2016
__$ArrayPad$ = -4					; size = 4
??__EvecEffectList@@YAXXZ PROC				; `dynamic initializer for 'vecEffectList'', COMDAT

; 403  : };

  00000	55		 push	 ebp
  00001	8b ec		 mov	 ebp, esp
  00003	83 e4 f8	 and	 esp, -8			; fffffff8H
  00006	81 ec f8 07 00
	00		 sub	 esp, 2040		; 000007f8H
  0000c	a1 00 00 00 00	 mov	 eax, DWORD PTR ___security_cookie
  00011	33 c4		 xor	 eax, esp
  00013	89 84 24 f4 07
	00 00		 mov	 DWORD PTR __$ArrayPad$[esp+2040], eax
; File C:\Program Files\Microsoft Visual Studio\2022\Community\VC\Tools\MSVC\14.44.35207\include\tuple

; 132  :     constexpr _Tuple_val(_Other&& _Arg) : _Val(_STD forward<_Other>(_Arg)) {}

  0001a	c6 44 24 10 01	 mov	 BYTE PTR $T4[esp+2040], 1
  0001f	c7 44 24 14 00
	00 00 00	 mov	 DWORD PTR $T4[esp+2044], OFFSET ??_C@_0DG@MNIDINPI@d?3?1ymir?5work?1effect?1etc?1appear_@
  00027	c7 44 24 18 00
	00 00 00	 mov	 DWORD PTR $T4[esp+2048], OFFSET ??_C@_05BBIGKCLJ@Bip01@
  0002f	c7 44 24 1c 09
	00 00 00	 mov	 DWORD PTR $T4[esp+2052], 9
  00037	c6 44 24 20 01	 mov	 BYTE PTR $T4[esp+2056], 1
  0003c	c7 44 24 24 00
	00 00 00	 mov	 DWORD PTR $T4[esp+2060], OFFSET ??_C@_0DD@JEPOMPGJ@d?3?1ymir?5work?1effect?1etc?1appear_@
  00044	c7 44 24 28 00
	00 00 00	 mov	 DWORD PTR $T4[esp+2064], OFFSET ??_C@_05BBIGKCLJ@Bip01@
  0004c	c7 44 24 2c 0a
	00 00 00	 mov	 DWORD PTR $T4[esp+2068], 10 ; 0000000aH
  00054	c6 44 24 30 01	 mov	 BYTE PTR $T4[esp+2072], 1
  00059	c7 44 24 34 00
	00 00 00	 mov	 DWORD PTR $T4[esp+2076], OFFSET ??_C@_0DG@KJDCFPII@d?3?1ymir?5work?1effect?1hit?1blow_fl@
  00061	c7 44 24 38 00
	00 00 00	 mov	 DWORD PTR $T4[esp+2080], OFFSET ??_C@_0BB@BPFBADGN@equip_right_hand@
  00069	c7 44 24 3c 03
	00 00 00	 mov	 DWORD PTR $T4[esp+2084], 3
  00071	c6 44 24 40 01	 mov	 BYTE PTR $T4[esp+2088], 1
  00076	c7 44 24 44 00
	00 00 00	 mov	 DWORD PTR $T4[esp+2092], OFFSET ??_C@_0DE@OJIBILHC@d?3?1ymir?5work?1effect?1hit?1blow_fl@
  0007e	c7 44 24 48 00
	00 00 00	 mov	 DWORD PTR $T4[esp+2096], OFFSET ??_C@_00CNPNBAHC@@
  00086	c7 44 24 4c 04
	00 00 00	 mov	 DWORD PTR $T4[esp+2100], 4
  0008e	c6 44 24 50 01	 mov	 BYTE PTR $T4[esp+2104], 1
  00093	c7 44 24 54 00
	00 00 00	 mov	 DWORD PTR $T4[esp+2108], OFFSET ??_C@_0DE@FPADLJBL@d?3?1ymir?5work?1effect?1hit?1blow_fl@
  0009b	c7 44 24 58 00
	00 00 00	 mov	 DWORD PTR $T4[esp+2112], OFFSET ??_C@_00CNPNBAHC@@
  000a3	c7 44 24 5c 05
	00 00 00	 mov	 DWORD PTR $T4[esp+2116], 5
  000ab	c6 44 24 60 01	 mov	 BYTE PTR $T4[esp+2120], 1
  000b0	c7 44 24 64 00
	00 00 00	 mov	 DWORD PTR $T4[esp+2124], OFFSET ??_C@_0DJ@JDHCNJPF@d?3?1ymir?5work?1effect?1hit?1blow_el@
  000b8	c7 44 24 68 00
	00 00 00	 mov	 DWORD PTR $T4[esp+2128], OFFSET ??_C@_0M@OLLEIOHA@equip_right@
  000c0	c7 44 24 6c 06
	00 00 00	 mov	 DWORD PTR $T4[esp+2132], 6
  000c8	c6 44 24 70 01	 mov	 BYTE PTR $T4[esp+2136], 1
  000cd	c7 44 24 74 00
	00 00 00	 mov	 DWORD PTR $T4[esp+2140], OFFSET ??_C@_0DH@DBPGLNCF@d?3?1ymir?5work?1effect?1hit?1blow_el@
  000d5	c7 44 24 78 00
	00 00 00	 mov	 DWORD PTR $T4[esp+2144], OFFSET ??_C@_00CNPNBAHC@@
  000dd	c7 44 24 7c 07
	00 00 00	 mov	 DWORD PTR $T4[esp+2148], 7
  000e5	c6 84 24 80 00
	00 00 01	 mov	 BYTE PTR $T4[esp+2152], 1
  000ed	c7 84 24 84 00
	00 00 00 00 00
	00		 mov	 DWORD PTR $T4[esp+2156], OFFSET ??_C@_0DH@IHHEIPEM@d?3?1ymir?5work?1effect?1hit?1blow_el@
  000f8	c7 84 24 88 00
	00 00 00 00 00
	00		 mov	 DWORD PTR $T4[esp+2160], OFFSET ??_C@_00CNPNBAHC@@
  00103	c7 84 24 8c 00
	00 00 08 00 00
	00		 mov	 DWORD PTR $T4[esp+2164], 8
  0010e	c6 84 24 90 00
	00 00 01	 mov	 BYTE PTR $T4[esp+2168], 1
  00116	c7 84 24 94 00
	00 00 00 00 00
	00		 mov	 DWORD PTR $T4[esp+2172], OFFSET ??_C@_0CN@NIGJEOKG@d?3?1ymir?5work?1effect?1etc?1boss_ef@
  00121	c7 84 24 98 00
	00 00 00 00 00
	00		 mov	 DWORD PTR $T4[esp+2176], OFFSET ??_C@_00CNPNBAHC@@
  0012c	c7 84 24 9c 00
	00 00 2c 01 00
	00		 mov	 DWORD PTR $T4[esp+2180], 300 ; 0000012cH
  00137	c6 84 24 a0 00
	00 00 01	 mov	 BYTE PTR $T4[esp+2184], 1
  0013f	c7 84 24 a4 00
	00 00 00 00 00
	00		 mov	 DWORD PTR $T4[esp+2188], OFFSET ??_C@_0CP@IEGOOEJL@d?3?1ymir?5work?1effect?1etc?1levelup@
  0014a	c7 84 24 a8 00
	00 00 00 00 00
	00		 mov	 DWORD PTR $T4[esp+2192], OFFSET ??_C@_00CNPNBAHC@@
  00155	c7 84 24 ac 00
	00 00 0b 00 00
	00		 mov	 DWORD PTR $T4[esp+2196], 11 ; 0000000bH
  00160	c6 84 24 b0 00
	00 00 01	 mov	 BYTE PTR $T4[esp+2200], 1
  00168	c7 84 24 b4 00
	00 00 00 00 00
	00		 mov	 DWORD PTR $T4[esp+2204], OFFSET ??_C@_0CO@BGKHBBGO@d?3?1ymir?5work?1effect?1etc?1skillup@
  00173	c7 84 24 b8 00
	00 00 00 00 00
	00		 mov	 DWORD PTR $T4[esp+2208], OFFSET ??_C@_00CNPNBAHC@@
  0017e	c7 84 24 bc 00
	00 00 0c 00 00
	00		 mov	 DWORD PTR $T4[esp+2212], 12 ; 0000000cH
  00189	c6 84 24 c0 00
	00 00 01	 mov	 BYTE PTR $T4[esp+2216], 1
  00191	c7 84 24 c4 00
	00 00 00 00 00
	00		 mov	 DWORD PTR $T4[esp+2220], OFFSET ??_C@_0CM@IHKFDKKE@d?3?1ymir?5work?1effect?1etc?1empire?1@
  0019c	c7 84 24 c8 00
	00 00 00 00 00
	00		 mov	 DWORD PTR $T4[esp+2224], OFFSET ??_C@_05BBIGKCLJ@Bip01@
  001a7	c7 84 24 cc 00
	00 00 e0 00 00
	00		 mov	 DWORD PTR $T4[esp+2228], 224 ; 000000e0H
  001b2	c6 84 24 d0 00
	00 00 01	 mov	 BYTE PTR $T4[esp+2232], 1
  001ba	c7 84 24 d4 00
	00 00 00 00 00
	00		 mov	 DWORD PTR $T4[esp+2236], OFFSET ??_C@_0CM@BDBEIAK@d?3?1ymir?5work?1effect?1etc?1empire?1@
  001c5	c7 84 24 d8 00
	00 00 00 00 00
	00		 mov	 DWORD PTR $T4[esp+2240], OFFSET ??_C@_05BBIGKCLJ@Bip01@
  001d0	c7 84 24 dc 00
	00 00 e1 00 00
	00		 mov	 DWORD PTR $T4[esp+2244], 225 ; 000000e1H
  001db	c6 84 24 e0 00
	00 00 01	 mov	 BYTE PTR $T4[esp+2248], 1
  001e3	c7 84 24 e4 00
	00 00 00 00 00
	00		 mov	 DWORD PTR $T4[esp+2252], OFFSET ??_C@_0CM@MKGNJLKP@d?3?1ymir?5work?1effect?1etc?1empire?1@
  001ee	c7 84 24 e8 00
	00 00 00 00 00
	00		 mov	 DWORD PTR $T4[esp+2256], OFFSET ??_C@_05BBIGKCLJ@Bip01@
  001f9	c7 84 24 ec 00
	00 00 e2 00 00
	00		 mov	 DWORD PTR $T4[esp+2260], 226 ; 000000e2H
  00204	c6 84 24 f0 00
	00 00 01	 mov	 BYTE PTR $T4[esp+2264], 1
  0020c	c7 84 24 f4 00
	00 00 00 00 00
	00		 mov	 DWORD PTR $T4[esp+2268], OFFSET ??_C@_0DD@EOBPHODL@d?3?1ymir?5work?1pc?1warrior?1effect?1@
  00217	c7 84 24 f8 00
	00 00 00 00 00
	00		 mov	 DWORD PTR $T4[esp+2272], OFFSET ??_C@_0BB@BPFBADGN@equip_right_hand@
  00222	c7 84 24 fc 00
	00 00 18 00 00
	00		 mov	 DWORD PTR $T4[esp+2276], 24 ; 00000018H
  0022d	c6 84 24 00 01
	00 00 01	 mov	 BYTE PTR $T4[esp+2280], 1
  00235	c7 84 24 04 01
	00 00 00 00 00
	00		 mov	 DWORD PTR $T4[esp+2284], OFFSET ??_C@_0DD@CMEIIDFJ@d?3?1ymir?5work?1pc?1warrior?1effect?1@
  00240	c7 84 24 08 01
	00 00 00 00 00
	00		 mov	 DWORD PTR $T4[esp+2288], OFFSET ??_C@_0BB@BPFBADGN@equip_right_hand@
  0024b	c7 84 24 0c 01
	00 00 19 00 00
	00		 mov	 DWORD PTR $T4[esp+2292], 25 ; 00000019H
  00256	c6 84 24 10 01
	00 00 01	 mov	 BYTE PTR $T4[esp+2296], 1
  0025e	c7 84 24 14 01
	00 00 00 00 00
	00		 mov	 DWORD PTR $T4[esp+2300], OFFSET ??_C@_0DE@KJMEEODN@d?3?1ymir?5work?1effect?1hit?1blow_po@
  00269	c7 84 24 18 01
	00 00 00 00 00
	00		 mov	 DWORD PTR $T4[esp+2304], OFFSET ??_C@_05BBIGKCLJ@Bip01@
  00274	c7 84 24 1c 01
	00 00 1e 00 00
	00		 mov	 DWORD PTR $T4[esp+2308], 30 ; 0000001eH
  0027f	c6 84 24 20 01
	00 00 01	 mov	 BYTE PTR $T4[esp+2312], 1
  00287	c7 84 24 24 01
	00 00 00 00 00
	00		 mov	 DWORD PTR $T4[esp+2316], OFFSET ??_C@_0CE@FPDCDHKE@d?3?1ymir?5work?1effect?1affect?1slow@
  00292	c7 84 24 28 01
	00 00 00 00 00
	00		 mov	 DWORD PTR $T4[esp+2320], OFFSET ??_C@_00CNPNBAHC@@
  0029d	c7 84 24 2c 01
	00 00 1f 00 00
	00		 mov	 DWORD PTR $T4[esp+2324], 31 ; 0000001fH
  002a8	c6 84 24 30 01
	00 00 01	 mov	 BYTE PTR $T4[esp+2328], 1
  002b0	c7 84 24 34 01
	00 00 00 00 00
	00		 mov	 DWORD PTR $T4[esp+2332], OFFSET ??_C@_0CL@IPGAJMDP@d?3?1ymir?5work?1effect?1etc?1stun?1st@
  002bb	c7 84 24 38 01
	00 00 00 00 00
	00		 mov	 DWORD PTR $T4[esp+2336], OFFSET ??_C@_0L@GHIHOBPC@Bip01?5Head@
  002c6	c7 84 24 3c 01
	00 00 20 00 00
	00		 mov	 DWORD PTR $T4[esp+2340], 32 ; 00000020H
  002d1	c6 84 24 40 01
	00 00 01	 mov	 BYTE PTR $T4[esp+2344], 1
  002d9	c7 84 24 44 01
	00 00 00 00 00
	00		 mov	 DWORD PTR $T4[esp+2348], OFFSET ??_C@_0CI@CBNNNGMC@d?3?1ymir?5work?1effect?1etc?1ready?1r@
  002e4	c7 84 24 48 01
	00 00 00 00 00
	00		 mov	 DWORD PTR $T4[esp+2352], OFFSET ??_C@_00CNPNBAHC@@
  002ef	c7 84 24 4c 01
	00 00 21 00 00
	00		 mov	 DWORD PTR $T4[esp+2356], 33 ; 00000021H
  002fa	c6 84 24 50 01
	00 00 01	 mov	 BYTE PTR $T4[esp+2360], 1
  00302	c7 84 24 54 01
	00 00 00 00 00
	00		 mov	 DWORD PTR $T4[esp+2364], OFFSET ??_C@_0DG@JMJLCJCB@d?3?1ymir?5work?1pc?1warrior?1effect?1@
  0030d	c7 84 24 58 01
	00 00 00 00 00
	00		 mov	 DWORD PTR $T4[esp+2368], OFFSET ??_C@_00CNPNBAHC@@
  00318	c7 84 24 5c 01
	00 00 2b 00 00
	00		 mov	 DWORD PTR $T4[esp+2372], 43 ; 0000002bH
  00323	c6 84 24 60 01
	00 00 01	 mov	 BYTE PTR $T4[esp+2376], 1
  0032b	c7 84 24 64 01
	00 00 00 00 00
	00		 mov	 DWORD PTR $T4[esp+2380], OFFSET ??_C@_0DE@JCKMOOOL@d?3?1ymir?5work?1pc?1assassin?1effect@
  00336	c7 84 24 68 01
	00 00 00 00 00
	00		 mov	 DWORD PTR $T4[esp+2384], OFFSET ??_C@_00CNPNBAHC@@
  00341	c7 84 24 6c 01
	00 00 2c 00 00
	00		 mov	 DWORD PTR $T4[esp+2388], 44 ; 0000002cH
  0034c	c6 84 24 70 01
	00 00 01	 mov	 BYTE PTR $T4[esp+2392], 1
  00354	c7 84 24 74 01
	00 00 00 00 00
	00		 mov	 DWORD PTR $T4[esp+2396], OFFSET ??_C@_0CN@LGPPPMOM@d?3?1ymir?5work?1pc?1sura?1effect?1gwi@
  0035f	c7 84 24 78 01
	00 00 00 00 00
	00		 mov	 DWORD PTR $T4[esp+2400], OFFSET ??_C@_0BA@LANKCOK@Bip01?5R?5Finger2@
  0036a	c7 84 24 7c 01
	00 00 2e 00 00
	00		 mov	 DWORD PTR $T4[esp+2404], 46 ; 0000002eH
  00375	c6 84 24 80 01
	00 00 01	 mov	 BYTE PTR $T4[esp+2408], 1
  0037d	c7 84 24 84 01
	00 00 00 00 00
	00		 mov	 DWORD PTR $T4[esp+2412], OFFSET ??_C@_0CK@CIALJCLA@d?3?1ymir?5work?1pc?1sura?1effect?1fea@
  00388	c7 84 24 88 01
	00 00 00 00 00
	00		 mov	 DWORD PTR $T4[esp+2416], OFFSET ??_C@_00CNPNBAHC@@
  00393	c7 84 24 8c 01
	00 00 2f 00 00
	00		 mov	 DWORD PTR $T4[esp+2420], 47 ; 0000002fH
  0039e	c6 84 24 90 01
	00 00 01	 mov	 BYTE PTR $T4[esp+2424], 1
  003a6	c7 84 24 94 01
	00 00 00 00 00
	00		 mov	 DWORD PTR $T4[esp+2428], OFFSET ??_C@_0CN@LNFALLNB@d?3?1ymir?5work?1pc?1sura?1effect?1jum@
  003b1	c7 84 24 98 01
	00 00 00 00 00
	00		 mov	 DWORD PTR $T4[esp+2432], OFFSET ??_C@_00CNPNBAHC@@
  003bc	c7 84 24 9c 01
	00 00 30 00 00
	00		 mov	 DWORD PTR $T4[esp+2436], 48 ; 00000030H
  003c7	c6 84 24 a0 01
	00 00 01	 mov	 BYTE PTR $T4[esp+2440], 1
  003cf	c7 84 24 a4 01
	00 00 00 00 00
	00		 mov	 DWORD PTR $T4[esp+2444], OFFSET ??_C@_0CO@IDBDIMLN@d?3?1ymir?5work?1pc?1shaman?1effect?13@
  003da	c7 84 24 a8 01
	00 00 00 00 00
	00		 mov	 DWORD PTR $T4[esp+2448], OFFSET ??_C@_00CNPNBAHC@@
  003e5	c7 84 24 ac 01
	00 00 31 00 00
	00		 mov	 DWORD PTR $T4[esp+2452], 49 ; 00000031H
  003f0	c6 84 24 b0 01
	00 00 01	 mov	 BYTE PTR $T4[esp+2456], 1
  003f8	c7 84 24 b4 01
	00 00 00 00 00
	00		 mov	 DWORD PTR $T4[esp+2460], OFFSET ??_C@_0CM@LPKODKL@d?3?1ymir?5work?1pc?1shaman?1effect?1b@
  00403	c7 84 24 b8 01
	00 00 00 00 00
	00		 mov	 DWORD PTR $T4[esp+2464], OFFSET ??_C@_00CNPNBAHC@@
  0040e	c7 84 24 bc 01
	00 00 32 00 00
	00		 mov	 DWORD PTR $T4[esp+2468], 50 ; 00000032H
  00419	c6 84 24 c0 01
	00 00 01	 mov	 BYTE PTR $T4[esp+2472], 1
  00421	c7 84 24 c4 01
	00 00 00 00 00
	00		 mov	 DWORD PTR $T4[esp+2476], OFFSET ??_C@_0DB@JOKHCNEG@d?3?1ymir?5work?1pc?1shaman?1effect?11@
  0042c	c7 84 24 c8 01
	00 00 00 00 00
	00		 mov	 DWORD PTR $T4[esp+2480], OFFSET ??_C@_00CNPNBAHC@@
  00437	c7 84 24 cc 01
	00 00 33 00 00
	00		 mov	 DWORD PTR $T4[esp+2484], 51 ; 00000033H
  00442	c6 84 24 d0 01
	00 00 01	 mov	 BYTE PTR $T4[esp+2488], 1
  0044a	c7 84 24 d4 01
	00 00 00 00 00
	00		 mov	 DWORD PTR $T4[esp+2492], OFFSET ??_C@_0CN@FIKFMJKE@d?3?1ymir?5work?1pc?1sura?1effect?1heu@
  00455	c7 84 24 d8 01
	00 00 00 00 00
	00		 mov	 DWORD PTR $T4[esp+2496], OFFSET ??_C@_00CNPNBAHC@@
  00460	c7 84 24 dc 01
	00 00 34 00 00
	00		 mov	 DWORD PTR $T4[esp+2500], 52 ; 00000034H
  0046b	c6 84 24 e0 01
	00 00 01	 mov	 BYTE PTR $T4[esp+2504], 1
  00473	c7 84 24 e4 01
	00 00 00 00 00
	00		 mov	 DWORD PTR $T4[esp+2508], OFFSET ??_C@_0CN@OFCKCPPJ@d?3?1ymir?5work?1pc?1sura?1effect?1muy@
  0047e	c7 84 24 e8 01
	00 00 00 00 00
	00		 mov	 DWORD PTR $T4[esp+2512], OFFSET ??_C@_00CNPNBAHC@@
  00489	c7 84 24 ec 01
	00 00 35 00 00
	00		 mov	 DWORD PTR $T4[esp+2516], 53 ; 00000035H
  00494	c6 84 24 f0 01
	00 00 01	 mov	 BYTE PTR $T4[esp+2520], 1
  0049c	c7 84 24 f4 01
	00 00 00 00 00
	00		 mov	 DWORD PTR $T4[esp+2524], OFFSET ??_C@_0DC@JEFOLNDJ@d?3?1ymir?5work?1effect?1hit?1blow_fl@
  004a7	c7 84 24 f8 01
	00 00 00 00 00
	00		 mov	 DWORD PTR $T4[esp+2528], OFFSET ??_C@_05BBIGKCLJ@Bip01@
  004b2	c7 84 24 fc 01
	00 00 37 00 00
	00		 mov	 DWORD PTR $T4[esp+2532], 55 ; 00000037H
  004bd	c6 84 24 00 02
	00 00 01	 mov	 BYTE PTR $T4[esp+2536], 1
  004c5	c7 84 24 04 02
	00 00 00 00 00
	00		 mov	 DWORD PTR $T4[esp+2540], OFFSET ??_C@_0DA@CCOAHJOP@d?3?1ymir?5work?1pc?1shaman?1effect?16@
  004d0	c7 84 24 08 02
	00 00 00 00 00
	00		 mov	 DWORD PTR $T4[esp+2544], OFFSET ??_C@_0N@NFGLJLMH@Bip01?5R?5Hand@
  004db	c7 84 24 0c 02
	00 00 38 00 00
	00		 mov	 DWORD PTR $T4[esp+2548], 56 ; 00000038H
  004e6	c6 84 24 10 02
	00 00 01	 mov	 BYTE PTR $T4[esp+2552], 1
  004ee	c7 84 24 14 02
	00 00 00 00 00
	00		 mov	 DWORD PTR $T4[esp+2556], OFFSET ??_C@_0DC@GCFCFGML@d?3?1ymir?5work?1pc?1shaman?1effect?1j@
  004f9	c7 84 24 18 02
	00 00 00 00 00
	00		 mov	 DWORD PTR $T4[esp+2560], OFFSET ??_C@_0N@OCIKHMFE@Bip01?5L?5Hand@
  00504	c7 84 24 1c 02
	00 00 39 00 00
	00		 mov	 DWORD PTR $T4[esp+2564], 57 ; 00000039H
  0050f	c6 84 24 20 02
	00 00 01	 mov	 BYTE PTR $T4[esp+2568], 1
  00517	c7 84 24 24 02
	00 00 00 00 00
	00		 mov	 DWORD PTR $T4[esp+2572], OFFSET ??_C@_0CM@CCAFDLBP@d?3?1ymir?5work?1pc?1sura?1effect?1pab@
  00522	c7 84 24 28 02
	00 00 00 00 00
	00		 mov	 DWORD PTR $T4[esp+2576], OFFSET ??_C@_0L@GHIHOBPC@Bip01?5Head@
  0052d	c7 84 24 2c 02
	00 00 3b 00 00
	00		 mov	 DWORD PTR $T4[esp+2580], 59 ; 0000003bH
  00538	c6 84 24 30 02
	00 00 01	 mov	 BYTE PTR $T4[esp+2584], 1
  00540	c7 84 24 34 02
	00 00 00 00 00
	00		 mov	 DWORD PTR $T4[esp+2588], OFFSET ??_C@_0DG@JMJLCJCB@d?3?1ymir?5work?1pc?1warrior?1effect?1@
  0054b	c7 84 24 38 02
	00 00 00 00 00
	00		 mov	 DWORD PTR $T4[esp+2592], OFFSET ??_C@_00CNPNBAHC@@
  00556	c7 84 24 3c 02
	00 00 3c 00 00
	00		 mov	 DWORD PTR $T4[esp+2596], 60 ; 0000003cH
  00561	c6 84 24 40 02
	00 00 01	 mov	 BYTE PTR $T4[esp+2600], 1
  00569	c7 84 24 44 02
	00 00 00 00 00
	00		 mov	 DWORD PTR $T4[esp+2604], OFFSET ??_C@_0DE@OPIDGJBC@d?3?1ymir?5work?1effect?1etc?1guild_w@
  00574	c7 84 24 48 02
	00 00 00 00 00
	00		 mov	 DWORD PTR $T4[esp+2608], OFFSET ??_C@_00CNPNBAHC@@
  0057f	c7 84 24 4c 02
	00 00 3e 00 00
	00		 mov	 DWORD PTR $T4[esp+2612], 62 ; 0000003eH
  0058a	c6 84 24 50 02
	00 00 01	 mov	 BYTE PTR $T4[esp+2616], 1
  00592	c7 84 24 54 02
	00 00 00 00 00
	00		 mov	 DWORD PTR $T4[esp+2620], OFFSET ??_C@_0DF@ELFLIELL@d?3?1ymir?5work?1effect?1etc?1guild_w@
  0059d	c7 84 24 58 02
	00 00 00 00 00
	00		 mov	 DWORD PTR $T4[esp+2624], OFFSET ??_C@_00CNPNBAHC@@
  005a8	c7 84 24 5c 02
	00 00 3f 00 00
	00		 mov	 DWORD PTR $T4[esp+2628], 63 ; 0000003fH
  005b3	c6 84 24 60 02
	00 00 01	 mov	 BYTE PTR $T4[esp+2632], 1
  005bb	c7 84 24 64 02
	00 00 00 00 00
	00		 mov	 DWORD PTR $T4[esp+2636], OFFSET ??_C@_0DH@IIDBMJBL@d?3?1ymir?5work?1effect?1etc?1guild_w@
  005c6	c7 84 24 68 02
	00 00 00 00 00
	00		 mov	 DWORD PTR $T4[esp+2640], OFFSET ??_C@_00CNPNBAHC@@
  005d1	c7 84 24 6c 02
	00 00 40 00 00
	00		 mov	 DWORD PTR $T4[esp+2644], 64 ; 00000040H
  005dc	c6 84 24 70 02
	00 00 01	 mov	 BYTE PTR $T4[esp+2648], 1
  005e4	c7 84 24 74 02
	00 00 00 00 00
	00		 mov	 DWORD PTR $T4[esp+2652], OFFSET ??_C@_0CL@OEFHPFHK@d?3?1ymir?5work?1effect?1autohunt?1au@
  005ef	c7 84 24 78 02
	00 00 00 00 00
	00		 mov	 DWORD PTR $T4[esp+2656], OFFSET ??_C@_05BBIGKCLJ@Bip01@
  005fa	c7 84 24 7c 02
	00 00 41 00 00
	00		 mov	 DWORD PTR $T4[esp+2660], 65 ; 00000041H
  00605	c6 84 24 80 02
	00 00 01	 mov	 BYTE PTR $T4[esp+2664], 1
  0060d	c7 84 24 84 02
	00 00 00 00 00
	00		 mov	 DWORD PTR $T4[esp+2668], OFFSET ??_C@_0CM@GNEGOGBH@d?3?1ymir?5work?1ui?1game?1staff_effe@
  00618	c7 84 24 88 02
	00 00 00 00 00
	00		 mov	 DWORD PTR $T4[esp+2672], OFFSET ??_C@_05BBIGKCLJ@Bip01@
  00623	c7 84 24 8c 02
	00 00 45 00 00
	00		 mov	 DWORD PTR $T4[esp+2676], 69 ; 00000045H
  0062e	c6 84 24 90 02
	00 00 01	 mov	 BYTE PTR $T4[esp+2680], 1
  00636	c7 84 24 94 02
	00 00 00 00 00
	00		 mov	 DWORD PTR $T4[esp+2684], OFFSET ??_C@_0CM@NAJCHPFI@d?3?1ymir?5work?1ui?1game?1staff_effe@
  00641	c7 84 24 98 02
	00 00 00 00 00
	00		 mov	 DWORD PTR $T4[esp+2688], OFFSET ??_C@_05BBIGKCLJ@Bip01@
  0064c	c7 84 24 9c 02
	00 00 46 00 00
	00		 mov	 DWORD PTR $T4[esp+2692], 70 ; 00000046H
  00657	c6 84 24 a0 02
	00 00 01	 mov	 BYTE PTR $T4[esp+2696], 1
  0065f	c7 84 24 a4 02
	00 00 00 00 00
	00		 mov	 DWORD PTR $T4[esp+2700], OFFSET ??_C@_0CM@EBGEEMDH@d?3?1ymir?5work?1ui?1game?1staff_effe@
  0066a	c7 84 24 a8 02
	00 00 00 00 00
	00		 mov	 DWORD PTR $T4[esp+2704], OFFSET ??_C@_05BBIGKCLJ@Bip01@
  00675	c7 84 24 ac 02
	00 00 47 00 00
	00		 mov	 DWORD PTR $T4[esp+2708], 71 ; 00000047H
  00680	c6 84 24 b0 02
	00 00 01	 mov	 BYTE PTR $T4[esp+2712], 1
  00688	c7 84 24 b4 02
	00 00 00 00 00
	00		 mov	 DWORD PTR $T4[esp+2716], OFFSET ??_C@_0CO@HACMINDF@d?3?1ymir?5work?1ui?1game?1staff_effe@
  00693	c7 84 24 b8 02
	00 00 00 00 00
	00		 mov	 DWORD PTR $T4[esp+2720], OFFSET ??_C@_05BBIGKCLJ@Bip01@
  0069e	c7 84 24 bc 02
	00 00 48 00 00
	00		 mov	 DWORD PTR $T4[esp+2724], 72 ; 00000048H
  006a9	c6 84 24 c0 02
	00 00 01	 mov	 BYTE PTR $T4[esp+2728], 1
  006b1	c7 84 24 c4 02
	00 00 00 00 00
	00		 mov	 DWORD PTR $T4[esp+2732], OFFSET ??_C@_0DA@GECHCBE@D?3?1ymir?5work?1pc?1common?1effect?1s@
  006bc	c7 84 24 c8 02
	00 00 00 00 00
	00		 mov	 DWORD PTR $T4[esp+2736], OFFSET ??_C@_0M@LDILJIBN@PART_WEAPON@
  006c7	c7 84 24 cc 02
	00 00 e6 00 00
	00		 mov	 DWORD PTR $T4[esp+2740], 230 ; 000000e6H
  006d2	c6 84 24 d0 02
	00 00 01	 mov	 BYTE PTR $T4[esp+2744], 1
  006da	c7 84 24 d4 02
	00 00 00 00 00
	00		 mov	 DWORD PTR $T4[esp+2748], OFFSET ??_C@_0DA@PHBEMAMB@D?3?1ymir?5work?1pc?1common?1effect?1s@
  006e5	c7 84 24 d8 02
	00 00 00 00 00
	00		 mov	 DWORD PTR $T4[esp+2752], OFFSET ??_C@_0M@LDILJIBN@PART_WEAPON@
  006f0	c7 84 24 dc 02
	00 00 e7 00 00
	00		 mov	 DWORD PTR $T4[esp+2756], 231 ; 000000e7H
  006fb	c6 84 24 e0 02
	00 00 01	 mov	 BYTE PTR $T4[esp+2760], 1
  00703	c7 84 24 e4 02
	00 00 00 00 00
	00		 mov	 DWORD PTR $T4[esp+2764], OFFSET ??_C@_0DA@DMEIBDGE@D?3?1ymir?5work?1pc?1common?1effect?1s@
  0070e	c7 84 24 e8 02
	00 00 00 00 00
	00		 mov	 DWORD PTR $T4[esp+2768], OFFSET ??_C@_0M@LDILJIBN@PART_WEAPON@
  00719	c7 84 24 ec 02
	00 00 e8 00 00
	00		 mov	 DWORD PTR $T4[esp+2772], 232 ; 000000e8H
  00724	c6 84 24 f0 02
	00 00 01	 mov	 BYTE PTR $T4[esp+2776], 1
  0072c	c7 84 24 f4 02
	00 00 00 00 00
	00		 mov	 DWORD PTR $T4[esp+2780], OFFSET ??_C@_0DC@GAOGMCDD@D?3?1ymir?5work?1pc?1common?1effect?1s@
  00737	c7 84 24 f8 02
	00 00 00 00 00
	00		 mov	 DWORD PTR $T4[esp+2784], OFFSET ??_C@_0BB@KENNFNCF@PART_WEAPON_LEFT@
  00742	c7 84 24 fc 02
	00 00 e9 00 00
	00		 mov	 DWORD PTR $T4[esp+2788], 233 ; 000000e9H
  0074d	c6 84 24 00 03
	00 00 01	 mov	 BYTE PTR $T4[esp+2792], 1
  00755	c7 84 24 04 03
	00 00 00 00 00
	00		 mov	 DWORD PTR $T4[esp+2796], OFFSET ??_C@_0DC@LJMGNAJP@D?3?1ymir?5work?1pc?1common?1effect?1s@
  00760	c7 84 24 08 03
	00 00 00 00 00
	00		 mov	 DWORD PTR $T4[esp+2800], OFFSET ??_C@_0BB@KENNFNCF@PART_WEAPON_LEFT@
  0076b	c7 84 24 0c 03
	00 00 ea 00 00
	00		 mov	 DWORD PTR $T4[esp+2804], 234 ; 000000eaH
  00776	c6 84 24 10 03
	00 00 01	 mov	 BYTE PTR $T4[esp+2808], 1
  0077e	c7 84 24 14 03
	00 00 00 00 00
	00		 mov	 DWORD PTR $T4[esp+2812], OFFSET ??_C@_0DC@HFGMNAAB@D?3?1ymir?5work?1pc?1common?1effect?1s@
  00789	c7 84 24 18 03
	00 00 00 00 00
	00		 mov	 DWORD PTR $T4[esp+2816], OFFSET ??_C@_0BB@KENNFNCF@PART_WEAPON_LEFT@
  00794	c7 84 24 1c 03
	00 00 eb 00 00
	00		 mov	 DWORD PTR $T4[esp+2820], 235 ; 000000ebH
  0079f	c6 84 24 20 03
	00 00 01	 mov	 BYTE PTR $T4[esp+2824], 1
  007a7	c7 84 24 24 03
	00 00 00 00 00
	00		 mov	 DWORD PTR $T4[esp+2828], OFFSET ??_C@_0DC@PLHHIACF@D?3?1ymir?5work?1pc?1common?1effect?1s@
  007b2	c7 84 24 28 03
	00 00 00 00 00
	00		 mov	 DWORD PTR $T4[esp+2832], OFFSET ??_C@_0M@LDILJIBN@PART_WEAPON@
  007bd	c7 84 24 2c 03
	00 00 ec 00 00
	00		 mov	 DWORD PTR $T4[esp+2836], 236 ; 000000ecH
  007c8	c6 84 24 30 03
	00 00 01	 mov	 BYTE PTR $T4[esp+2840], 1
  007d0	c7 84 24 34 03
	00 00 00 00 00
	00		 mov	 DWORD PTR $T4[esp+2844], OFFSET ??_C@_0DC@CCFHJCIJ@D?3?1ymir?5work?1pc?1common?1effect?1s@
  007db	c7 84 24 38 03
	00 00 00 00 00
	00		 mov	 DWORD PTR $T4[esp+2848], OFFSET ??_C@_0M@LDILJIBN@PART_WEAPON@
  007e6	c7 84 24 3c 03
	00 00 ed 00 00
	00		 mov	 DWORD PTR $T4[esp+2852], 237 ; 000000edH
  007f1	c6 84 24 40 03
	00 00 01	 mov	 BYTE PTR $T4[esp+2856], 1
  007f9	c7 84 24 44 03
	00 00 00 00 00
	00		 mov	 DWORD PTR $T4[esp+2860], OFFSET ??_C@_0DC@OOPNJCBH@D?3?1ymir?5work?1pc?1common?1effect?1s@
  00804	c7 84 24 48 03
	00 00 00 00 00
	00		 mov	 DWORD PTR $T4[esp+2864], OFFSET ??_C@_0M@LDILJIBN@PART_WEAPON@
  0080f	c7 84 24 4c 03
	00 00 ee 00 00
	00		 mov	 DWORD PTR $T4[esp+2868], 238 ; 000000eeH
  0081a	c6 84 24 50 03
	00 00 01	 mov	 BYTE PTR $T4[esp+2872], 1
  00822	c7 84 24 54 03
	00 00 00 00 00
	00		 mov	 DWORD PTR $T4[esp+2876], OFFSET ??_C@_0DC@KIGMBDAN@D?3?1ymir?5work?1pc?1common?1effect?1s@
  0082d	c7 84 24 58 03
	00 00 00 00 00
	00		 mov	 DWORD PTR $T4[esp+2880], OFFSET ??_C@_0M@LDILJIBN@PART_WEAPON@
  00838	c7 84 24 5c 03
	00 00 ef 00 00
	00		 mov	 DWORD PTR $T4[esp+2884], 239 ; 000000efH
  00843	c6 84 24 60 03
	00 00 01	 mov	 BYTE PTR $T4[esp+2888], 1
  0084b	c7 84 24 64 03
	00 00 00 00 00
	00		 mov	 DWORD PTR $T4[esp+2892], OFFSET ??_C@_0DC@HBEMABKB@D?3?1ymir?5work?1pc?1common?1effect?1s@
  00856	c7 84 24 68 03
	00 00 00 00 00
	00		 mov	 DWORD PTR $T4[esp+2896], OFFSET ??_C@_0M@LDILJIBN@PART_WEAPON@
  00861	c7 84 24 6c 03
	00 00 f0 00 00
	00		 mov	 DWORD PTR $T4[esp+2900], 240 ; 000000f0H
  0086c	c6 84 24 70 03
	00 00 01	 mov	 BYTE PTR $T4[esp+2904], 1
  00874	c7 84 24 74 03
	00 00 00 00 00
	00		 mov	 DWORD PTR $T4[esp+2908], OFFSET ??_C@_0DC@LNOGABDP@D?3?1ymir?5work?1pc?1common?1effect?1s@
  0087f	c7 84 24 78 03
	00 00 00 00 00
	00		 mov	 DWORD PTR $T4[esp+2912], OFFSET ??_C@_0M@LDILJIBN@PART_WEAPON@
  0088a	c7 84 24 7c 03
	00 00 f1 00 00
	00		 mov	 DWORD PTR $T4[esp+2916], 241 ; 000000f1H
  00895	c6 84 24 80 03
	00 00 01	 mov	 BYTE PTR $T4[esp+2920], 1
  0089d	c7 84 24 84 03
	00 00 00 00 00
	00		 mov	 DWORD PTR $T4[esp+2924], OFFSET ??_C@_0DC@KIGMBDAN@D?3?1ymir?5work?1pc?1common?1effect?1s@
  008a8	c7 84 24 88 03
	00 00 00 00 00
	00		 mov	 DWORD PTR $T4[esp+2928], OFFSET ??_C@_0BB@KENNFNCF@PART_WEAPON_LEFT@
  008b3	c7 84 24 8c 03
	00 00 f2 00 00
	00		 mov	 DWORD PTR $T4[esp+2932], 242 ; 000000f2H
  008be	c6 84 24 90 03
	00 00 01	 mov	 BYTE PTR $T4[esp+2936], 1
  008c6	c7 84 24 94 03
	00 00 00 00 00
	00		 mov	 DWORD PTR $T4[esp+2940], OFFSET ??_C@_0DC@HBEMABKB@D?3?1ymir?5work?1pc?1common?1effect?1s@
  008d1	c7 84 24 98 03
	00 00 00 00 00
	00		 mov	 DWORD PTR $T4[esp+2944], OFFSET ??_C@_0BB@KENNFNCF@PART_WEAPON_LEFT@
  008dc	c7 84 24 9c 03
	00 00 f3 00 00
	00		 mov	 DWORD PTR $T4[esp+2948], 243 ; 000000f3H
  008e7	c6 84 24 a0 03
	00 00 01	 mov	 BYTE PTR $T4[esp+2952], 1
  008ef	c7 84 24 a4 03
	00 00 00 00 00
	00		 mov	 DWORD PTR $T4[esp+2956], OFFSET ??_C@_0DC@LNOGABDP@D?3?1ymir?5work?1pc?1common?1effect?1s@
  008fa	c7 84 24 a8 03
	00 00 00 00 00
	00		 mov	 DWORD PTR $T4[esp+2960], OFFSET ??_C@_0BB@KENNFNCF@PART_WEAPON_LEFT@
  00905	c7 84 24 ac 03
	00 00 f4 00 00
	00		 mov	 DWORD PTR $T4[esp+2964], 244 ; 000000f4H
  00910	c6 84 24 b0 03
	00 00 01	 mov	 BYTE PTR $T4[esp+2968], 1
  00918	c7 84 24 b4 03
	00 00 00 00 00
	00		 mov	 DWORD PTR $T4[esp+2972], OFFSET ??_C@_0DA@KPNIEGP@D?3?1ymir?5work?1pc?1common?1effect?1a@
  00923	c7 84 24 b8 03
	00 00 00 00 00
	00		 mov	 DWORD PTR $T4[esp+2976], OFFSET ??_C@_05BBIGKCLJ@Bip01@
  0092e	c7 84 24 bc 03
	00 00 f5 00 00
	00		 mov	 DWORD PTR $T4[esp+2980], 245 ; 000000f5H
  00939	c6 84 24 c0 03
	00 00 01	 mov	 BYTE PTR $T4[esp+2984], 1
  00941	c7 84 24 c4 03
	00 00 00 00 00
	00		 mov	 DWORD PTR $T4[esp+2988], OFFSET ??_C@_0DA@PLKLDGLK@D?3?1ymir?5work?1pc?1common?1effect?1a@
  0094c	c7 84 24 c8 03
	00 00 00 00 00
	00		 mov	 DWORD PTR $T4[esp+2992], OFFSET ??_C@_05BBIGKCLJ@Bip01@
  00957	c7 84 24 cc 03
	00 00 f6 00 00
	00		 mov	 DWORD PTR $T4[esp+2996], 246 ; 000000f6H
  00962	c6 84 24 d0 03
	00 00 01	 mov	 BYTE PTR $T4[esp+3000], 1
  0096a	c7 84 24 d4 03
	00 00 00 00 00
	00		 mov	 DWORD PTR $T4[esp+3004], OFFSET ??_C@_0DA@DAPHOFBP@D?3?1ymir?5work?1pc?1common?1effect?1a@
  00975	c7 84 24 d8 03
	00 00 00 00 00
	00		 mov	 DWORD PTR $T4[esp+3008], OFFSET ??_C@_05BBIGKCLJ@Bip01@
  00980	c7 84 24 dc 03
	00 00 f7 00 00
	00		 mov	 DWORD PTR $T4[esp+3012], 247 ; 000000f7H
  0098b	c6 84 24 e0 03
	00 00 01	 mov	 BYTE PTR $T4[esp+3016], 1
  00993	c7 84 24 e4 03
	00 00 00 00 00
	00		 mov	 DWORD PTR $T4[esp+3020], OFFSET ??_C@_0DE@CBDJIACC@D?3?1ymir?5work?1pc?1common?1effect?1a@
  0099e	c7 84 24 e8 03
	00 00 00 00 00
	00		 mov	 DWORD PTR $T4[esp+3024], OFFSET ??_C@_05BBIGKCLJ@Bip01@
  009a9	c7 84 24 ec 03
	00 00 f8 00 00
	00		 mov	 DWORD PTR $T4[esp+3028], 248 ; 000000f8H
  009b4	c6 84 24 f0 03
	00 00 01	 mov	 BYTE PTR $T4[esp+3032], 1
  009bc	c7 84 24 f4 03
	00 00 00 00 00
	00		 mov	 DWORD PTR $T4[esp+3036], OFFSET ??_C@_0DE@KHKNPCIM@D?3?1ymir?5work?1pc?1common?1effect?1a@
  009c7	c7 84 24 f8 03
	00 00 00 00 00
	00		 mov	 DWORD PTR $T4[esp+3040], OFFSET ??_C@_05BBIGKCLJ@Bip01@
  009d2	c7 84 24 fc 03
	00 00 f9 00 00
	00		 mov	 DWORD PTR $T4[esp+3044], 249 ; 000000f9H
  009dd	c6 84 24 00 04
	00 00 01	 mov	 BYTE PTR $T4[esp+3048], 1
  009e5	c7 84 24 04 04
	00 00 00 00 00
	00		 mov	 DWORD PTR $T4[esp+3052], OFFSET ??_C@_0CP@IMBNOLN@d?3?1ymir?5work?1pc?1common?1effect?1a@
  009f0	c7 84 24 08 04
	00 00 00 00 00
	00		 mov	 DWORD PTR $T4[esp+3056], OFFSET ??_C@_05BBIGKCLJ@Bip01@
  009fb	c7 84 24 0c 04
	00 00 fa 00 00
	00		 mov	 DWORD PTR $T4[esp+3060], 250 ; 000000faH
  00a06	c6 84 24 10 04
	00 00 01	 mov	 BYTE PTR $T4[esp+3064], 1
  00a0e	c7 84 24 14 04
	00 00 00 00 00
	00		 mov	 DWORD PTR $T4[esp+3068], OFFSET ??_C@_0CC@GDMANCJ@D?3?1ymir?5work?1effect?1sword?1fms?4m@
  00a19	c7 84 24 18 04
	00 00 00 00 00
	00		 mov	 DWORD PTR $T4[esp+3072], OFFSET ??_C@_0M@LDILJIBN@PART_WEAPON@
  00a24	c7 84 24 1c 04
	00 00 fb 00 00
	00		 mov	 DWORD PTR $T4[esp+3076], 251 ; 000000fbH
  00a2f	c6 84 24 20 04
	00 00 01	 mov	 BYTE PTR $T4[esp+3080], 1
  00a37	c7 84 24 24 04
	00 00 00 00 00
	00		 mov	 DWORD PTR $T4[esp+3084], OFFSET ??_C@_0CF@FMCPLCFN@D?3?1ymir?5work?1effect?1sword?1tryto@
  00a42	c7 84 24 28 04
	00 00 00 00 00
	00		 mov	 DWORD PTR $T4[esp+3088], OFFSET ??_C@_0M@LDILJIBN@PART_WEAPON@
  00a4d	c7 84 24 2c 04
	00 00 fc 00 00
	00		 mov	 DWORD PTR $T4[esp+3092], 252 ; 000000fcH
  00a58	c6 84 24 30 04
	00 00 01	 mov	 BYTE PTR $T4[esp+3096], 1
  00a60	c7 84 24 34 04
	00 00 00 00 00
	00		 mov	 DWORD PTR $T4[esp+3100], OFFSET ??_C@_0CH@OJKFEBAD@D?3?1ymir?5work?1effect?1sword?1zatru@
  00a6b	c7 84 24 38 04
	00 00 00 00 00
	00		 mov	 DWORD PTR $T4[esp+3104], OFFSET ??_C@_0M@LDILJIBN@PART_WEAPON@
  00a76	c7 84 24 3c 04
	00 00 fd 00 00
	00		 mov	 DWORD PTR $T4[esp+3108], 253 ; 000000fdH
  00a81	c6 84 24 40 04
	00 00 01	 mov	 BYTE PTR $T4[esp+3112], 1
  00a89	c7 84 24 44 04
	00 00 00 00 00
	00		 mov	 DWORD PTR $T4[esp+3116], OFFSET ??_C@_0CC@PGBPPDJM@D?3?1ymir?5work?1effect?1sword?1lwi?4m@
  00a94	c7 84 24 48 04
	00 00 00 00 00
	00		 mov	 DWORD PTR $T4[esp+3120], OFFSET ??_C@_0M@LDILJIBN@PART_WEAPON@
  00a9f	c7 84 24 4c 04
	00 00 fe 00 00
	00		 mov	 DWORD PTR $T4[esp+3124], 254 ; 000000feH
  00aaa	c6 84 24 50 04
	00 00 01	 mov	 BYTE PTR $T4[esp+3128], 1
  00ab2	c7 84 24 54 04
	00 00 00 00 00
	00		 mov	 DWORD PTR $T4[esp+3132], OFFSET ??_C@_0CH@JHALOLH@D?3?1ymir?5work?1effect?1sword?1brzeg@
  00abd	c7 84 24 58 04
	00 00 00 00 00
	00		 mov	 DWORD PTR $T4[esp+3136], OFFSET ??_C@_0M@LDILJIBN@PART_WEAPON@
  00ac8	c7 84 24 5c 04
	00 00 ff 00 00
	00		 mov	 DWORD PTR $T4[esp+3140], 255 ; 000000ffH
  00ad3	c6 84 24 60 04
	00 00 01	 mov	 BYTE PTR $T4[esp+3144], 1
  00adb	c7 84 24 64 04
	00 00 00 00 00
	00		 mov	 DWORD PTR $T4[esp+3148], OFFSET ??_C@_0CF@PEOGOFEJ@D?3?1ymir?5work?1effect?1sword?1swiet@
  00ae6	c7 84 24 68 04
	00 00 00 00 00
	00		 mov	 DWORD PTR $T4[esp+3152], OFFSET ??_C@_0M@LDILJIBN@PART_WEAPON@
  00af1	c7 84 24 6c 04
	00 00 00 01 00
	00		 mov	 DWORD PTR $T4[esp+3156], 256 ; 00000100H
  00afc	c6 84 24 70 04
	00 00 01	 mov	 BYTE PTR $T4[esp+3160], 1
  00b04	c7 84 24 74 04
	00 00 00 00 00
	00		 mov	 DWORD PTR $T4[esp+3164], OFFSET ??_C@_0CC@MCAIMHNF@D?3?1ymir?5work?1effect?1sword?1rib?4m@
  00b0f	c7 84 24 78 04
	00 00 00 00 00
	00		 mov	 DWORD PTR $T4[esp+3168], OFFSET ??_C@_0M@LDILJIBN@PART_WEAPON@
  00b1a	c7 84 24 7c 04
	00 00 01 01 00
	00		 mov	 DWORD PTR $T4[esp+3172], 257 ; 00000101H
  00b25	c6 84 24 80 04
	00 00 01	 mov	 BYTE PTR $T4[esp+3176], 1
  00b2d	c7 84 24 84 04
	00 00 00 00 00
	00		 mov	 DWORD PTR $T4[esp+3180], OFFSET ??_C@_0CC@BIAIPDHH@D?3?1ymir?5work?1effect?1sword?1zal?4m@
  00b38	c7 84 24 88 04
	00 00 00 00 00
	00		 mov	 DWORD PTR $T4[esp+3184], OFFSET ??_C@_0M@LDILJIBN@PART_WEAPON@
  00b43	c7 84 24 8c 04
	00 00 02 01 00
	00		 mov	 DWORD PTR $T4[esp+3188], 258 ; 00000102H
  00b4e	c6 84 24 90 04
	00 00 01	 mov	 BYTE PTR $T4[esp+3192], 1
  00b56	c7 84 24 94 04
	00 00 00 00 00
	00		 mov	 DWORD PTR $T4[esp+3196], OFFSET ??_C@_0CG@KGPMPGPP@D?3?1ymir?5work?1effect?1sword?1jelon@
  00b61	c7 84 24 98 04
	00 00 00 00 00
	00		 mov	 DWORD PTR $T4[esp+3200], OFFSET ??_C@_0BB@KENNFNCF@PART_WEAPON_LEFT@
  00b6c	c7 84 24 9c 04
	00 00 03 01 00
	00		 mov	 DWORD PTR $T4[esp+3204], 259 ; 00000103H
  00b77	c6 84 24 a0 04
	00 00 01	 mov	 BYTE PTR $T4[esp+3208], 1
  00b7f	c7 84 24 a4 04
	00 00 00 00 00
	00		 mov	 DWORD PTR $T4[esp+3212], OFFSET ??_C@_0CD@IFJBIMEB@D?3?1ymir?5work?1effect?1sword?1kruk?4@
  00b8a	c7 84 24 a8 04
	00 00 00 00 00
	00		 mov	 DWORD PTR $T4[esp+3216], OFFSET ??_C@_0BB@KENNFNCF@PART_WEAPON_LEFT@
  00b95	c7 84 24 ac 04
	00 00 04 01 00
	00		 mov	 DWORD PTR $T4[esp+3220], 260 ; 00000104H
  00ba0	c6 84 24 b0 04
	00 00 01	 mov	 BYTE PTR $T4[esp+3224], 1
  00ba8	c7 84 24 b4 04
	00 00 00 00 00
	00		 mov	 DWORD PTR $T4[esp+3228], OFFSET ??_C@_0CH@PHJGNKLC@D?3?1ymir?5work?1effect?1sword?1diabl@
  00bb3	c7 84 24 b8 04
	00 00 00 00 00
	00		 mov	 DWORD PTR $T4[esp+3232], OFFSET ??_C@_0BB@KENNFNCF@PART_WEAPON_LEFT@
  00bbe	c7 84 24 bc 04
	00 00 05 01 00
	00		 mov	 DWORD PTR $T4[esp+3236], 261 ; 00000105H
  00bc9	c6 84 24 c0 04
	00 00 01	 mov	 BYTE PTR $T4[esp+3240], 1
  00bd1	c7 84 24 c4 04
	00 00 00 00 00
	00		 mov	 DWORD PTR $T4[esp+3244], OFFSET ??_C@_0CE@JAECJFJF@D?3?1ymir?5work?1effect?1sword?1antyk@
  00bdc	c7 84 24 c8 04
	00 00 00 00 00
	00		 mov	 DWORD PTR $T4[esp+3248], OFFSET ??_C@_0M@LDILJIBN@PART_WEAPON@
  00be7	c7 84 24 cc 04
	00 00 06 01 00
	00		 mov	 DWORD PTR $T4[esp+3252], 262 ; 00000106H
  00bf2	c6 84 24 d0 04
	00 00 01	 mov	 BYTE PTR $T4[esp+3256], 1
  00bfa	c7 84 24 d4 04
	00 00 00 00 00
	00		 mov	 DWORD PTR $T4[esp+3260], OFFSET ??_C@_0CF@OBOLHPCK@D?3?1ymir?5work?1effect?1sword?1bambu@
  00c05	c7 84 24 d8 04
	00 00 00 00 00
	00		 mov	 DWORD PTR $T4[esp+3264], OFFSET ??_C@_0M@LDILJIBN@PART_WEAPON@
  00c10	c7 84 24 dc 04
	00 00 07 01 00
	00		 mov	 DWORD PTR $T4[esp+3268], 263 ; 00000107H
  00c1b	c6 84 24 e0 04
	00 00 01	 mov	 BYTE PTR $T4[esp+3272], 1
  00c23	c7 84 24 e4 04
	00 00 00 00 00
	00		 mov	 DWORD PTR $T4[esp+3276], OFFSET ??_C@_0CG@FNICILCM@D?3?1ymir?5work?1effect?1sword?1szcze@
  00c2e	c7 84 24 e8 04
	00 00 00 00 00
	00		 mov	 DWORD PTR $T4[esp+3280], OFFSET ??_C@_0M@LDILJIBN@PART_WEAPON@
  00c39	c7 84 24 ec 04
	00 00 08 01 00
	00		 mov	 DWORD PTR $T4[esp+3284], 264 ; 00000108H
  00c44	c6 84 24 f0 04
	00 00 01	 mov	 BYTE PTR $T4[esp+3288], 1
  00c4c	c7 84 24 f4 04
	00 00 00 00 00
	00		 mov	 DWORD PTR $T4[esp+3292], OFFSET ??_C@_0CE@OCEPJPOD@D?3?1ymir?5work?1effect?1sword?1kozik@
  00c57	c7 84 24 f8 04
	00 00 00 00 00
	00		 mov	 DWORD PTR $T4[esp+3296], OFFSET ??_C@_0M@LDILJIBN@PART_WEAPON@
  00c62	c7 84 24 fc 04
	00 00 09 01 00
	00		 mov	 DWORD PTR $T4[esp+3300], 265 ; 00000109H
  00c6d	c6 84 24 00 05
	00 00 01	 mov	 BYTE PTR $T4[esp+3304], 1
  00c75	c7 84 24 04 05
	00 00 00 00 00
	00		 mov	 DWORD PTR $T4[esp+3308], OFFSET ??_C@_0CE@OCEPJPOD@D?3?1ymir?5work?1effect?1sword?1kozik@
  00c80	c7 84 24 08 05
	00 00 00 00 00
	00		 mov	 DWORD PTR $T4[esp+3312], OFFSET ??_C@_0BB@KENNFNCF@PART_WEAPON_LEFT@
  00c8b	c7 84 24 0c 05
	00 00 0a 01 00
	00		 mov	 DWORD PTR $T4[esp+3316], 266 ; 0000010aH
  00c96	c6 84 24 10 05
	00 00 01	 mov	 BYTE PTR $T4[esp+3320], 1
  00c9e	c7 84 24 14 05
	00 00 00 00 00
	00		 mov	 DWORD PTR $T4[esp+3324], OFFSET ??_C@_0CH@FKBGCCDC@D?3?1ymir?5work?1effect?1sword?1skrzy@
  00ca9	c7 84 24 18 05
	00 00 00 00 00
	00		 mov	 DWORD PTR $T4[esp+3328], OFFSET ??_C@_0M@LDILJIBN@PART_WEAPON@
  00cb4	c7 84 24 1c 05
	00 00 0b 01 00
	00		 mov	 DWORD PTR $T4[esp+3332], 267 ; 0000010bH
  00cbf	c6 84 24 20 05
	00 00 01	 mov	 BYTE PTR $T4[esp+3336], 1
  00cc7	c7 84 24 24 05
	00 00 00 00 00
	00		 mov	 DWORD PTR $T4[esp+3340], OFFSET ??_C@_0CH@FKBGCCDC@D?3?1ymir?5work?1effect?1sword?1skrzy@
  00cd2	c7 84 24 28 05
	00 00 00 00 00
	00		 mov	 DWORD PTR $T4[esp+3344], OFFSET ??_C@_0BB@KENNFNCF@PART_WEAPON_LEFT@
  00cdd	c7 84 24 2c 05
	00 00 0c 01 00
	00		 mov	 DWORD PTR $T4[esp+3348], 268 ; 0000010cH
  00ce8	c6 84 24 30 05
	00 00 01	 mov	 BYTE PTR $T4[esp+3352], 1
  00cf0	c7 84 24 34 05
	00 00 00 00 00
	00		 mov	 DWORD PTR $T4[esp+3356], OFFSET ??_C@_0CI@GHHADAPC@D?3?1ymir?5work?1effect?1sword?1bezdu@
  00cfb	c7 84 24 38 05
	00 00 00 00 00
	00		 mov	 DWORD PTR $T4[esp+3360], OFFSET ??_C@_0M@LDILJIBN@PART_WEAPON@
  00d06	c7 84 24 3c 05
	00 00 0d 01 00
	00		 mov	 DWORD PTR $T4[esp+3364], 269 ; 0000010dH
  00d11	c6 84 24 40 05
	00 00 01	 mov	 BYTE PTR $T4[esp+3368], 1
  00d19	c7 84 24 44 05
	00 00 00 00 00
	00		 mov	 DWORD PTR $T4[esp+3372], OFFSET ??_C@_0CI@GHHADAPC@D?3?1ymir?5work?1effect?1sword?1bezdu@
  00d24	c7 84 24 48 05
	00 00 00 00 00
	00		 mov	 DWORD PTR $T4[esp+3376], OFFSET ??_C@_0BB@KENNFNCF@PART_WEAPON_LEFT@
  00d2f	c7 84 24 4c 05
	00 00 0e 01 00
	00		 mov	 DWORD PTR $T4[esp+3380], 270 ; 0000010eH
  00d3a	c6 84 24 50 05
	00 00 01	 mov	 BYTE PTR $T4[esp+3384], 1
  00d42	c7 84 24 54 05
	00 00 00 00 00
	00		 mov	 DWORD PTR $T4[esp+3388], OFFSET ??_C@_0CF@BHENGJGF@D?3?1ymir?5work?1effect?1sword?1jesio@
  00d4d	c7 84 24 58 05
	00 00 00 00 00
	00		 mov	 DWORD PTR $T4[esp+3392], OFFSET ??_C@_0M@LDILJIBN@PART_WEAPON@
  00d58	c7 84 24 5c 05
	00 00 0f 01 00
	00		 mov	 DWORD PTR $T4[esp+3396], 271 ; 0000010fH
  00d63	c6 84 24 60 05
	00 00 01	 mov	 BYTE PTR $T4[esp+3400], 1
  00d6b	c7 84 24 64 05
	00 00 00 00 00
	00		 mov	 DWORD PTR $T4[esp+3404], OFFSET ??_C@_0CF@BHENGJGF@D?3?1ymir?5work?1effect?1sword?1jesio@
  00d76	c7 84 24 68 05
	00 00 00 00 00
	00		 mov	 DWORD PTR $T4[esp+3408], OFFSET ??_C@_0BB@KENNFNCF@PART_WEAPON_LEFT@
  00d81	c7 84 24 6c 05
	00 00 10 01 00
	00		 mov	 DWORD PTR $T4[esp+3412], 272 ; 00000110H
  00d8c	c6 84 24 70 05
	00 00 01	 mov	 BYTE PTR $T4[esp+3416], 1
  00d94	c7 84 24 74 05
	00 00 00 00 00
	00		 mov	 DWORD PTR $T4[esp+3420], OFFSET ??_C@_0CH@JOIHCIOK@D?3?1ymir?5work?1effect?1sword?1diabl@
  00d9f	c7 84 24 78 05
	00 00 00 00 00
	00		 mov	 DWORD PTR $T4[esp+3424], OFFSET ??_C@_0M@LDILJIBN@PART_WEAPON@
  00daa	c7 84 24 7c 05
	00 00 11 01 00
	00		 mov	 DWORD PTR $T4[esp+3428], 273 ; 00000111H
  00db5	c6 84 24 80 05
	00 00 01	 mov	 BYTE PTR $T4[esp+3432], 1
  00dbd	c7 84 24 84 05
	00 00 00 00 00
	00		 mov	 DWORD PTR $T4[esp+3436], OFFSET ??_C@_0CH@JOIHCIOK@D?3?1ymir?5work?1effect?1sword?1diabl@
  00dc8	c7 84 24 88 05
	00 00 00 00 00
	00		 mov	 DWORD PTR $T4[esp+3440], OFFSET ??_C@_0BB@KENNFNCF@PART_WEAPON_LEFT@
  00dd3	c7 84 24 8c 05
	00 00 12 01 00
	00		 mov	 DWORD PTR $T4[esp+3444], 274 ; 00000112H
  00dde	c6 84 24 90 05
	00 00 01	 mov	 BYTE PTR $T4[esp+3448], 1
  00de6	c7 84 24 94 05
	00 00 00 00 00
	00		 mov	 DWORD PTR $T4[esp+3452], OFFSET ??_C@_0CI@MPPOJFLC@D?3?1ymir?5work?1effect?1sword?1pieki@
  00df1	c7 84 24 98 05
	00 00 00 00 00
	00		 mov	 DWORD PTR $T4[esp+3456], OFFSET ??_C@_0M@LDILJIBN@PART_WEAPON@
  00dfc	c7 84 24 9c 05
	00 00 13 01 00
	00		 mov	 DWORD PTR $T4[esp+3460], 275 ; 00000113H
  00e07	c6 84 24 a0 05
	00 00 01	 mov	 BYTE PTR $T4[esp+3464], 1
  00e0f	c7 84 24 a4 05
	00 00 00 00 00
	00		 mov	 DWORD PTR $T4[esp+3468], OFFSET ??_C@_0CG@FNIDGDAD@d?3?1ymir?5work?1effect?1etc?1dust?1du@
  00e1a	c7 84 24 a8 05
	00 00 00 00 00
	00		 mov	 DWORD PTR $T4[esp+3472], OFFSET ??_C@_00CNPNBAHC@@
  00e25	c7 84 24 ac 05
	00 00 00 00 00
	00		 mov	 DWORD PTR $T4[esp+3476], 0
  00e30	c6 84 24 b0 05
	00 00 01	 mov	 BYTE PTR $T4[esp+3480], 1
  00e38	c7 84 24 b4 05
	00 00 00 00 00
	00		 mov	 DWORD PTR $T4[esp+3484], OFFSET ??_C@_0CO@FHOIMEIA@d?3?1ymir?5work?1effect?1etc?1dust?1ru@
  00e43	c7 84 24 b8 05
	00 00 00 00 00
	00		 mov	 DWORD PTR $T4[esp+3488], OFFSET ??_C@_00CNPNBAHC@@
  00e4e	c7 84 24 bc 05
	00 00 e4 00 00
	00		 mov	 DWORD PTR $T4[esp+3492], 228 ; 000000e4H
  00e59	c6 84 24 c0 05
	00 00 01	 mov	 BYTE PTR $T4[esp+3496], 1
  00e61	c7 84 24 c4 05
	00 00 00 00 00
	00		 mov	 DWORD PTR $T4[esp+3500], OFFSET ??_C@_0CO@GCOGPOPI@d?3?1ymir?5work?1effect?1hit?1blow_1?1@
  00e6c	c7 84 24 c8 05
	00 00 00 00 00
	00		 mov	 DWORD PTR $T4[esp+3504], OFFSET ??_C@_00CNPNBAHC@@
  00e77	c7 84 24 cc 05
	00 00 02 00 00
	00		 mov	 DWORD PTR $T4[esp+3508], 2
  00e82	c6 84 24 d0 05
	00 00 01	 mov	 BYTE PTR $T4[esp+3512], 1
  00e8a	c7 84 24 d4 05
	00 00 00 00 00
	00		 mov	 DWORD PTR $T4[esp+3516], OFFSET ??_C@_0DE@KDBGJFJN@d?3?1ymir?5work?1effect?1etc?1recuper@
  00e95	c7 84 24 d8 05
	00 00 00 00 00
	00		 mov	 DWORD PTR $T4[esp+3520], OFFSET ??_C@_00CNPNBAHC@@
  00ea0	c7 84 24 dc 05
	00 00 0d 00 00
	00		 mov	 DWORD PTR $T4[esp+3524], 13 ; 0000000dH
  00eab	c6 84 24 e0 05
	00 00 01	 mov	 BYTE PTR $T4[esp+3528], 1
  00eb3	c7 84 24 e4 05
	00 00 00 00 00
	00		 mov	 DWORD PTR $T4[esp+3532], OFFSET ??_C@_0DF@DGBAIPPG@d?3?1ymir?5work?1effect?1etc?1recuper@
  00ebe	c7 84 24 e8 05
	00 00 00 00 00
	00		 mov	 DWORD PTR $T4[esp+3536], OFFSET ??_C@_00CNPNBAHC@@
  00ec9	c7 84 24 ec 05
	00 00 0e 00 00
	00		 mov	 DWORD PTR $T4[esp+3540], 14 ; 0000000eH
  00ed4	c6 84 24 f0 05
	00 00 01	 mov	 BYTE PTR $T4[esp+3544], 1
  00edc	c7 84 24 f4 05
	00 00 00 00 00
	00		 mov	 DWORD PTR $T4[esp+3548], OFFSET ??_C@_0DG@KJEGMFD@d?3?1ymir?5work?1effect?1etc?1recuper@
  00ee7	c7 84 24 f8 05
	00 00 00 00 00
	00		 mov	 DWORD PTR $T4[esp+3552], OFFSET ??_C@_00CNPNBAHC@@
  00ef2	c7 84 24 fc 05
	00 00 0f 00 00
	00		 mov	 DWORD PTR $T4[esp+3556], 15 ; 0000000fH
  00efd	c6 84 24 00 06
	00 00 01	 mov	 BYTE PTR $T4[esp+3560], 1
  00f05	c7 84 24 04 06
	00 00 00 00 00
	00		 mov	 DWORD PTR $T4[esp+3564], OFFSET ??_C@_0DH@DGDHOHHH@d?3?1ymir?5work?1effect?1etc?1recuper@
  00f10	c7 84 24 08 06
	00 00 00 00 00
	00		 mov	 DWORD PTR $T4[esp+3568], OFFSET ??_C@_00CNPNBAHC@@
  00f1b	c7 84 24 0c 06
	00 00 10 00 00
	00		 mov	 DWORD PTR $T4[esp+3572], 16 ; 00000010H
  00f26	c6 84 24 10 06
	00 00 01	 mov	 BYTE PTR $T4[esp+3576], 1
  00f2e	c7 84 24 14 06
	00 00 00 00 00
	00		 mov	 DWORD PTR $T4[esp+3580], OFFSET ??_C@_0DI@DJOLHMEJ@d?3?1ymir?5work?1effect?1etc?1recuper@
  00f39	c7 84 24 18 06
	00 00 00 00 00
	00		 mov	 DWORD PTR $T4[esp+3584], OFFSET ??_C@_00CNPNBAHC@@
  00f44	c7 84 24 1c 06
	00 00 23 01 00
	00		 mov	 DWORD PTR $T4[esp+3588], 291 ; 00000123H
  00f4f	c6 84 24 20 06
	00 00 01	 mov	 BYTE PTR $T4[esp+3592], 1
  00f57	c7 84 24 24 06
	00 00 00 00 00
	00		 mov	 DWORD PTR $T4[esp+3596], OFFSET ??_C@_0DJ@LHDEGENC@d?3?1ymir?5work?1effect?1etc?1recuper@
  00f62	c7 84 24 28 06
	00 00 00 00 00
	00		 mov	 DWORD PTR $T4[esp+3600], OFFSET ??_C@_00CNPNBAHC@@
  00f6d	c7 84 24 2c 06
	00 00 24 01 00
	00		 mov	 DWORD PTR $T4[esp+3604], 292 ; 00000124H
  00f78	c6 84 24 30 06
	00 00 01	 mov	 BYTE PTR $T4[esp+3608], 1
  00f80	c7 84 24 34 06
	00 00 00 00 00
	00		 mov	 DWORD PTR $T4[esp+3612], OFFSET ??_C@_0CM@KLIJIODA@d?3?1ymir?5work?1effect?1etc?1buff?1bu@
  00f8b	c7 84 24 38 06
	00 00 00 00 00
	00		 mov	 DWORD PTR $T4[esp+3616], OFFSET ??_C@_00CNPNBAHC@@
  00f96	c7 84 24 3c 06
	00 00 25 01 00
	00		 mov	 DWORD PTR $T4[esp+3620], 293 ; 00000125H
  00fa1	c6 84 24 40 06
	00 00 01	 mov	 BYTE PTR $T4[esp+3624], 1
  00fa9	c7 84 24 44 06
	00 00 00 00 00
	00		 mov	 DWORD PTR $T4[esp+3628], OFFSET ??_C@_0CM@CNBNPMJO@d?3?1ymir?5work?1effect?1etc?1buff?1bu@
  00fb4	c7 84 24 48 06
	00 00 00 00 00
	00		 mov	 DWORD PTR $T4[esp+3632], OFFSET ??_C@_00CNPNBAHC@@
  00fbf	c7 84 24 4c 06
	00 00 26 01 00
	00		 mov	 DWORD PTR $T4[esp+3636], 294 ; 00000126H
  00fca	c6 84 24 50 06
	00 00 01	 mov	 BYTE PTR $T4[esp+3640], 1
  00fd2	c7 84 24 54 06
	00 00 00 00 00
	00		 mov	 DWORD PTR $T4[esp+3644], OFFSET ??_C@_0CM@OGEBCPDL@d?3?1ymir?5work?1effect?1etc?1buff?1bu@
  00fdd	c7 84 24 58 06
	00 00 00 00 00
	00		 mov	 DWORD PTR $T4[esp+3648], OFFSET ??_C@_00CNPNBAHC@@
  00fe8	c7 84 24 5c 06
	00 00 27 01 00
	00		 mov	 DWORD PTR $T4[esp+3652], 295 ; 00000127H
  00ff3	c6 84 24 60 06
	00 00 01	 mov	 BYTE PTR $T4[esp+3656], 1
  00ffb	c7 84 24 64 06
	00 00 00 00 00
	00		 mov	 DWORD PTR $T4[esp+3660], OFFSET ??_C@_0CM@PLEEBPID@d?3?1ymir?5work?1effect?1etc?1buff?1bu@
  01006	c7 84 24 68 06
	00 00 00 00 00
	00		 mov	 DWORD PTR $T4[esp+3664], OFFSET ??_C@_00CNPNBAHC@@
  01011	c7 84 24 6c 06
	00 00 28 01 00
	00		 mov	 DWORD PTR $T4[esp+3668], 296 ; 00000128H
  0101c	c6 84 24 70 06
	00 00 01	 mov	 BYTE PTR $T4[esp+3672], 1
  01024	c7 84 24 74 06
	00 00 00 00 00
	00		 mov	 DWORD PTR $T4[esp+3676], OFFSET ??_C@_0CM@LGIMLOII@d?3?1ymir?5work?1effect?1etc?1buff?1bu@
  0102f	c7 84 24 78 06
	00 00 00 00 00
	00		 mov	 DWORD PTR $T4[esp+3680], OFFSET ??_C@_00CNPNBAHC@@
  0103a	c7 84 24 7c 06
	00 00 2a 01 00
	00		 mov	 DWORD PTR $T4[esp+3684], 298 ; 0000012aH
  01045	c6 84 24 80 06
	00 00 01	 mov	 BYTE PTR $T4[esp+3688], 1
  0104d	c7 84 24 84 06
	00 00 00 00 00
	00		 mov	 DWORD PTR $T4[esp+3692], OFFSET ??_C@_0CM@HNNAGNCN@d?3?1ymir?5work?1effect?1etc?1buff?1bu@
  01058	c7 84 24 88 06
	00 00 00 00 00
	00		 mov	 DWORD PTR $T4[esp+3696], OFFSET ??_C@_00CNPNBAHC@@
  01063	c7 84 24 8c 06
	00 00 2b 01 00
	00		 mov	 DWORD PTR $T4[esp+3700], 299 ; 0000012bH
  0106e	c6 84 24 90 06
	00 00 01	 mov	 BYTE PTR $T4[esp+3704], 1
  01076	c7 84 24 94 06
	00 00 00 00 00
	00		 mov	 DWORD PTR $T4[esp+3708], OFFSET ??_C@_0CF@MCCGBFIH@d?3?1ymir?5work?1effect?1hit?1gwanton@
  01081	c7 84 24 98 06
	00 00 00 00 00
	00		 mov	 DWORD PTR $T4[esp+3712], OFFSET ??_C@_05BBIGKCLJ@Bip01@
  0108c	c7 84 24 9c 06
	00 00 12 00 00
	00		 mov	 DWORD PTR $T4[esp+3716], 18 ; 00000012H
  01097	c6 84 24 a0 06
	00 00 01	 mov	 BYTE PTR $T4[esp+3720], 1
  0109f	c7 84 24 a4 06
	00 00 00 00 00
	00		 mov	 DWORD PTR $T4[esp+3724], OFFSET ??_C@_0DM@LMNPCMLO@d?3?1ymir?5work?1effect?1etc?1firecra@
  010aa	c7 84 24 a8 06
	00 00 00 00 00
	00		 mov	 DWORD PTR $T4[esp+3728], OFFSET ??_C@_00CNPNBAHC@@
  010b5	c7 84 24 ac 06
	00 00 15 00 00
	00		 mov	 DWORD PTR $T4[esp+3732], 21 ; 00000015H
  010c0	c6 84 24 b0 06
	00 00 01	 mov	 BYTE PTR $T4[esp+3736], 1
  010c8	c7 84 24 b4 06
	00 00 00 00 00
	00		 mov	 DWORD PTR $T4[esp+3740], OFFSET ??_C@_0DA@OKHBFDHO@d?3?1ymir?5work?1effect?1etc?1firecra@
  010d3	c7 84 24 b8 06
	00 00 00 00 00
	00		 mov	 DWORD PTR $T4[esp+3744], OFFSET ??_C@_00CNPNBAHC@@
  010de	c7 84 24 bc 06
	00 00 16 00 00
	00		 mov	 DWORD PTR $T4[esp+3748], 22 ; 00000016H
  010e9	c6 84 24 c0 06
	00 00 01	 mov	 BYTE PTR $T4[esp+3752], 1
  010f1	c7 84 24 c4 06
	00 00 00 00 00
	00		 mov	 DWORD PTR $T4[esp+3756], OFFSET ??_C@_0CP@NMKNLCNB@d?3?1ymir?5work?1effect?1etc?1click?1c@
  010fc	c7 84 24 c8 06
	00 00 00 00 00
	00		 mov	 DWORD PTR $T4[esp+3760], OFFSET ??_C@_00CNPNBAHC@@
  01107	c7 84 24 cc 06
	00 00 dd 00 00
	00		 mov	 DWORD PTR $T4[esp+3764], 221 ; 000000ddH
  01112	c6 84 24 d0 06
	00 00 01	 mov	 BYTE PTR $T4[esp+3768], 1
  0111a	c7 84 24 d4 06
	00 00 00 00 00
	00		 mov	 DWORD PTR $T4[esp+3772], OFFSET ??_C@_0DE@OKJDPEOH@d?3?1ymir?5work?1effect?1etc?1click?1c@
  01125	c7 84 24 d8 06
	00 00 00 00 00
	00		 mov	 DWORD PTR $T4[esp+3776], OFFSET ??_C@_00CNPNBAHC@@
  01130	c7 84 24 dc 06
	00 00 de 00 00
	00		 mov	 DWORD PTR $T4[esp+3780], 222 ; 000000deH
  0113b	c6 84 24 e0 06
	00 00 01	 mov	 BYTE PTR $T4[esp+3784], 1
  01143	c7 84 24 e4 06
	00 00 00 00 00
	00		 mov	 DWORD PTR $T4[esp+3788], OFFSET ??_C@_0CG@OFJICOGE@d?3?1ymir?5work?1effect?1etc?1stun?1st@
  0114e	c7 84 24 e8 06
	00 00 00 00 00
	00		 mov	 DWORD PTR $T4[esp+3792], OFFSET ??_C@_0L@GHIHOBPC@Bip01?5Head@
  01159	c7 84 24 ec 06
	00 00 01 00 00
	00		 mov	 DWORD PTR $T4[esp+3796], 1
  01164	c6 84 24 f0 06
	00 00 01	 mov	 BYTE PTR $T4[esp+3800], 1
  0116c	c7 84 24 f4 06
	00 00 00 00 00
	00		 mov	 DWORD PTR $T4[esp+3804], OFFSET ??_C@_0CF@IGNMMICG@d?3?1ymir?5work?1effect?1hit?1critica@
  01177	c7 84 24 f8 06
	00 00 00 00 00
	00		 mov	 DWORD PTR $T4[esp+3808], OFFSET ??_C@_0N@NFGLJLMH@Bip01?5R?5Hand@
  01182	c7 84 24 fc 06
	00 00 11 00 00
	00		 mov	 DWORD PTR $T4[esp+3812], 17 ; 00000011H
  0118d	c6 84 24 00 07
	00 00 01	 mov	 BYTE PTR $T4[esp+3816], 1
  01195	c7 84 24 04 07
	00 00 00 00 00
	00		 mov	 DWORD PTR $T4[esp+3820], OFFSET ??_C@_0DC@ELCGDOJC@d?3?1ymir?5work?1effect?1affect?1dama@
  011a0	c7 84 24 08 07
	00 00 00 00 00
	00		 mov	 DWORD PTR $T4[esp+3824], OFFSET ??_C@_00CNPNBAHC@@
  011ab	c7 84 24 0c 07
	00 00 15 01 00
	00		 mov	 DWORD PTR $T4[esp+3828], 277 ; 00000115H
  011b6	c6 84 24 10 07
	00 00 01	 mov	 BYTE PTR $T4[esp+3832], 1
  011be	c7 84 24 14 07
	00 00 00 00 00
	00		 mov	 DWORD PTR $T4[esp+3836], OFFSET ??_C@_0DF@NHKBGLCB@d?3?1ymir?5work?1effect?1affect?1dama@
  011c9	c7 84 24 18 07
	00 00 00 00 00
	00		 mov	 DWORD PTR $T4[esp+3840], OFFSET ??_C@_00CNPNBAHC@@
  011d4	c7 84 24 1c 07
	00 00 16 01 00
	00		 mov	 DWORD PTR $T4[esp+3844], 278 ; 00000116H
  011df	c6 84 24 20 07
	00 00 01	 mov	 BYTE PTR $T4[esp+3848], 1
  011e7	c7 84 24 24 07
	00 00 00 00 00
	00		 mov	 DWORD PTR $T4[esp+3852], OFFSET ??_C@_0DC@PNDLOGJ@d?3?1ymir?5work?1effect?1affect?1dama@
  011f2	c7 84 24 28 07
	00 00 00 00 00
	00		 mov	 DWORD PTR $T4[esp+3856], OFFSET ??_C@_00CNPNBAHC@@
  011fd	c7 84 24 2c 07
	00 00 17 01 00
	00		 mov	 DWORD PTR $T4[esp+3860], 279 ; 00000117H
  01208	c6 84 24 30 07
	00 00 01	 mov	 BYTE PTR $T4[esp+3864], 1
  01210	c7 84 24 34 07
	00 00 00 00 00
	00		 mov	 DWORD PTR $T4[esp+3868], OFFSET ??_C@_0DE@OCLPDINL@d?3?1ymir?5work?1effect?1affect?1dama@
  0121b	c7 84 24 38 07
	00 00 00 00 00
	00		 mov	 DWORD PTR $T4[esp+3872], OFFSET ??_C@_00CNPNBAHC@@
  01226	c7 84 24 3c 07
	00 00 18 01 00
	00		 mov	 DWORD PTR $T4[esp+3876], 280 ; 00000118H
  01231	c6 84 24 40 07
	00 00 01	 mov	 BYTE PTR $T4[esp+3880], 1
  01239	c7 84 24 44 07
	00 00 00 00 00
	00		 mov	 DWORD PTR $T4[esp+3884], OFFSET ??_C@_0DC@DFGPOAGN@d?3?1ymir?5work?1effect?1affect?1dama@
  01244	c7 84 24 48 07
	00 00 00 00 00
	00		 mov	 DWORD PTR $T4[esp+3888], OFFSET ??_C@_00CNPNBAHC@@
  0124f	c7 84 24 4c 07
	00 00 19 01 00
	00		 mov	 DWORD PTR $T4[esp+3892], 281 ; 00000119H
  0125a	c6 84 24 50 07
	00 00 01	 mov	 BYTE PTR $T4[esp+3896], 1
  01262	c7 84 24 54 07
	00 00 00 00 00
	00		 mov	 DWORD PTR $T4[esp+3900], OFFSET ??_C@_0DA@GCPGFOFF@d?3?1ymir?5work?1effect?1affect?1dama@
  0126d	c7 84 24 58 07
	00 00 00 00 00
	00		 mov	 DWORD PTR $T4[esp+3904], OFFSET ??_C@_00CNPNBAHC@@
  01278	c7 84 24 5c 07
	00 00 1a 01 00
	00		 mov	 DWORD PTR $T4[esp+3908], 282 ; 0000011aH
  01283	c6 84 24 60 07
	00 00 01	 mov	 BYTE PTR $T4[esp+3912], 1
  0128b	c7 84 24 64 07
	00 00 00 00 00
	00		 mov	 DWORD PTR $T4[esp+3916], OFFSET ??_C@_0DH@BALHLFPA@d?3?1ymir?5work?1effect?1affect?1dama@
  01296	c7 84 24 68 07
	00 00 00 00 00
	00		 mov	 DWORD PTR $T4[esp+3920], OFFSET ??_C@_00CNPNBAHC@@
  012a1	c7 84 24 6c 07
	00 00 1b 01 00
	00		 mov	 DWORD PTR $T4[esp+3924], 283 ; 0000011bH
  012ac	c6 84 24 70 07
	00 00 01	 mov	 BYTE PTR $T4[esp+3928], 1
  012b4	c7 84 24 74 07
	00 00 00 00 00
	00		 mov	 DWORD PTR $T4[esp+3932], OFFSET ??_C@_0CM@KFAIMBLD@d?3?1ymir?5work?1effect?1hit?1percent@
  012bf	c7 84 24 78 07
	00 00 00 00 00
	00		 mov	 DWORD PTR $T4[esp+3936], OFFSET ??_C@_00CNPNBAHC@@
  012ca	c7 84 24 7c 07
	00 00 20 01 00
	00		 mov	 DWORD PTR $T4[esp+3940], 288 ; 00000120H
  012d5	c6 84 24 80 07
	00 00 01	 mov	 BYTE PTR $T4[esp+3944], 1
  012dd	c7 84 24 84 07
	00 00 00 00 00
	00		 mov	 DWORD PTR $T4[esp+3948], OFFSET ??_C@_0CM@CDJMLDBN@d?3?1ymir?5work?1effect?1hit?1percent@
  012e8	c7 84 24 88 07
	00 00 00 00 00
	00		 mov	 DWORD PTR $T4[esp+3952], OFFSET ??_C@_00CNPNBAHC@@
  012f3	c7 84 24 8c 07
	00 00 21 01 00
	00		 mov	 DWORD PTR $T4[esp+3956], 289 ; 00000121H
  012fe	c6 84 24 90 07
	00 00 01	 mov	 BYTE PTR $T4[esp+3960], 1
  01306	c7 84 24 94 07
	00 00 00 00 00
	00		 mov	 DWORD PTR $T4[esp+3964], OFFSET ??_C@_0CM@OIMAGALI@d?3?1ymir?5work?1effect?1hit?1percent@
  01311	c7 84 24 98 07
	00 00 00 00 00
	00		 mov	 DWORD PTR $T4[esp+3968], OFFSET ??_C@_00CNPNBAHC@@
  0131c	c7 84 24 9c 07
	00 00 22 01 00
	00		 mov	 DWORD PTR $T4[esp+3972], 290 ; 00000122H
  01327	c6 84 24 a0 07
	00 00 01	 mov	 BYTE PTR $T4[esp+3976], 1
  0132f	c7 84 24 a4 07
	00 00 00 00 00
	00		 mov	 DWORD PTR $T4[esp+3980], OFFSET ??_C@_0DL@JAMGHMDJ@d?3?1ymir?5work?1effect?1battlepass?1@
; File C:\Anka2Project\Anka2Project\Source\Binary\source\UserInterface\PythonPlayerSettingsModule.h

; 249  : {

  0133a	8d 04 24	 lea	 eax, DWORD PTR $T742[esp+2040]
; File C:\Program Files\Microsoft Visual Studio\2022\Community\VC\Tools\MSVC\14.44.35207\include\tuple

; 132  :     constexpr _Tuple_val(_Other&& _Arg) : _Val(_STD forward<_Other>(_Arg)) {}

  0133d	c7 84 24 a8 07
	00 00 00 00 00
	00		 mov	 DWORD PTR $T4[esp+3984], OFFSET ??_C@_00CNPNBAHC@@
; File C:\Anka2Project\Anka2Project\Source\Binary\source\UserInterface\PythonPlayerSettingsModule.h

; 249  : {

  01348	50		 push	 eax
  01349	68 00 00 00 00	 push	 OFFSET ??_C@_0DO@BLNOCHAN@d?3?1ymir?5work?1effect?1battlepass?1@
  0134e	68 00 00 00 00	 push	 OFFSET ??_C@_00CNPNBAHC@@
  01353	8d 44 24 10	 lea	 eax, DWORD PTR $T741[esp+2052]
; File C:\Program Files\Microsoft Visual Studio\2022\Community\VC\Tools\MSVC\14.44.35207\include\tuple

; 132  :     constexpr _Tuple_val(_Other&& _Arg) : _Val(_STD forward<_Other>(_Arg)) {}

  01357	c7 84 24 b8 07
	00 00 2d 01 00
	00		 mov	 DWORD PTR $T4[esp+4000], 301 ; 0000012dH
; File C:\Anka2Project\Anka2Project\Source\Binary\source\UserInterface\PythonPlayerSettingsModule.h

; 249  : {

  01362	50		 push	 eax
  01363	8d 8c 24 d0 07
	00 00		 lea	 ecx, DWORD PTR $T4[esp+4024]
; File C:\Program Files\Microsoft Visual Studio\2022\Community\VC\Tools\MSVC\14.44.35207\include\tuple

; 132  :     constexpr _Tuple_val(_Other&& _Arg) : _Val(_STD forward<_Other>(_Arg)) {}

  0136a	c6 84 24 c0 07
	00 00 01	 mov	 BYTE PTR $T4[esp+4008], 1
  01372	c7 84 24 c4 07
	00 00 00 00 00
	00		 mov	 DWORD PTR $T4[esp+4012], OFFSET ??_C@_0DM@MHMMIOAK@d?3?1ymir?5work?1effect?1battlepass?1@
  0137d	c7 84 24 c8 07
	00 00 00 00 00
	00		 mov	 DWORD PTR $T4[esp+4016], OFFSET ??_C@_00CNPNBAHC@@
  01388	c7 84 24 cc 07
	00 00 2e 01 00
	00		 mov	 DWORD PTR $T4[esp+4020], 302 ; 0000012eH
; File C:\Anka2Project\Anka2Project\Source\Binary\source\UserInterface\PythonPlayerSettingsModule.h

; 249  : {

  01393	c7 44 24 14 2f
	01 00 00	 mov	 DWORD PTR $T741[esp+2056], 303 ; 0000012fH
  0139b	c6 44 24 10 01	 mov	 BYTE PTR $T742[esp+2056], 1
  013a0	e8 00 00 00 00	 call	 ??$?0W4<unnamed-enum-EFFECT_DUST>@CInstanceBase@@AAY00$$CBDAAY0DO@$$CBD_N$0A@@?$tuple@IPBDPBD_N@std@@QAE@$$QAW4<unnamed-enum-EFFECT_DUST>@CInstanceBase@@AAY00$$CBDAAY0DO@$$CBD$$QA_N@Z ; std::tuple<unsigned int,char const *,char const *,bool>::tuple<unsigned int,char const *,char const *,bool><enum CInstanceBase::<unnamed-enum-EFFECT_DUST>,char const (&)[1],char const (&)[62],bool,0>
  013a5	8d 44 24 01	 lea	 eax, DWORD PTR $T744[esp+2040]
  013a9	c7 44 24 08 30
	01 00 00	 mov	 DWORD PTR $T743[esp+2040], 304 ; 00000130H
  013b1	50		 push	 eax
  013b2	68 00 00 00 00	 push	 OFFSET ??_C@_0DP@PLKMBGLC@d?3?1ymir?5work?1effect?1battlepass?1@
  013b7	68 00 00 00 00	 push	 OFFSET ??_C@_00CNPNBAHC@@
  013bc	8d 44 24 14	 lea	 eax, DWORD PTR $T743[esp+2052]
  013c0	c6 44 24 0d 01	 mov	 BYTE PTR $T744[esp+2052], 1
  013c5	50		 push	 eax
  013c6	8d 8c 24 e0 07
	00 00		 lea	 ecx, DWORD PTR $T4[esp+4040]
  013cd	e8 00 00 00 00	 call	 ??$?0W4<unnamed-enum-EFFECT_DUST>@CInstanceBase@@AAY00$$CBDAAY0DP@$$CBD_N$0A@@?$tuple@IPBDPBD_N@std@@QAE@$$QAW4<unnamed-enum-EFFECT_DUST>@CInstanceBase@@AAY00$$CBDAAY0DP@$$CBD$$QA_N@Z ; std::tuple<unsigned int,char const *,char const *,bool>::tuple<unsigned int,char const *,char const *,bool><enum CInstanceBase::<unnamed-enum-EFFECT_DUST>,char const (&)[1],char const (&)[63],bool,0>
  013d2	8d 44 24 02	 lea	 eax, DWORD PTR $T746[esp+2040]
  013d6	c7 44 24 0c 31
	01 00 00	 mov	 DWORD PTR $T745[esp+2040], 305 ; 00000131H
  013de	50		 push	 eax
  013df	68 00 00 00 00	 push	 OFFSET ??_C@_0CM@GHEHNBJK@d?3?1ymir?5work?1effect?1hit?1gyeongg@
  013e4	68 00 00 00 00	 push	 OFFSET ??_C@_00CNPNBAHC@@
  013e9	8d 44 24 18	 lea	 eax, DWORD PTR $T745[esp+2052]
  013ed	c6 44 24 0e 01	 mov	 BYTE PTR $T746[esp+2052], 1
  013f2	50		 push	 eax
  013f3	8d 8c 24 f0 07
	00 00		 lea	 ecx, DWORD PTR $T4[esp+4056]
  013fa	e8 00 00 00 00	 call	 ??$?0W4<unnamed-enum-EFFECT_DUST>@CInstanceBase@@AAY00$$CBDAAY0CM@$$CBD_N$0A@@?$tuple@IPBDPBD_N@std@@QAE@$$QAW4<unnamed-enum-EFFECT_DUST>@CInstanceBase@@AAY00$$CBDAAY0CM@$$CBD$$QA_N@Z ; std::tuple<unsigned int,char const *,char const *,bool>::tuple<unsigned int,char const *,char const *,bool><enum CInstanceBase::<unnamed-enum-EFFECT_DUST>,char const (&)[1],char const (&)[44],bool,0>
  013ff	8d 44 24 03	 lea	 eax, DWORD PTR $T1[esp+2040]
  01403	50		 push	 eax
; File C:\Program Files\Microsoft Visual Studio\2022\Community\VC\Tools\MSVC\14.44.35207\include\initializer_list

; 34   :         : _First(_First_arg), _Last(_Last_arg) {}

  01404	8d 8c 24 f4 07
	00 00		 lea	 ecx, DWORD PTR $T4[esp+4060]
; File C:\Anka2Project\Anka2Project\Source\Binary\source\UserInterface\PythonPlayerSettingsModule.h

; 249  : {

  0140b	51		 push	 ecx
; File C:\Program Files\Microsoft Visual Studio\2022\Community\VC\Tools\MSVC\14.44.35207\include\initializer_list

; 34   :         : _First(_First_arg), _Last(_Last_arg) {}

  0140c	8d 54 24 18	 lea	 edx, DWORD PTR $T4[esp+2048]
; File C:\Anka2Project\Anka2Project\Source\Binary\source\UserInterface\PythonPlayerSettingsModule.h

; 249  : {

  01410	b9 00 00 00 00	 mov	 ecx, OFFSET ?vecEffectList@@3V?$vector@V?$tuple@IPBDPBD_N@std@@V?$allocator@V?$tuple@IPBDPBD_N@std@@@2@@std@@B
  01415	52		 push	 edx
  01416	e8 00 00 00 00	 call	 ??0?$vector@V?$tuple@IPBDPBD_N@std@@V?$allocator@V?$tuple@IPBDPBD_N@std@@@2@@std@@QAE@V?$initializer_list@V?$tuple@IPBDPBD_N@std@@@1@ABV?$allocator@V?$tuple@IPBDPBD_N@std@@@1@@Z ; std::vector<std::tuple<unsigned int,char const *,char const *,bool>,std::allocator<std::tuple<unsigned int,char const *,char const *,bool> > >::vector<std::tuple<unsigned int,char const *,char const *,bool>,std::allocator<std::tuple<unsigned int,char const *,char const *,bool> > >
  0141b	68 00 00 00 00	 push	 OFFSET ??__FvecEffectList@@YAXXZ ; `dynamic atexit destructor for 'vecEffectList''
  01420	e8 00 00 00 00	 call	 _atexit
  01425	8b 8c 24 f8 07
	00 00		 mov	 ecx, DWORD PTR __$ArrayPad$[esp+2044]
  0142c	83 c4 04	 add	 esp, 4
  0142f	33 cc		 xor	 ecx, esp
  01431	e8 00 00 00 00	 call	 @__security_check_cookie@4

; 248  : static const std::vector<TEffectList> vecEffectList =

  01436	8b e5		 mov	 esp, ebp
  01438	5d		 pop	 ebp
  01439	c3		 ret	 0
??__EvecEffectList@@YAXXZ ENDP				; `dynamic initializer for 'vecEffectList''
text$di	ENDS
; Function compile flags: /Ogtp
; File C:\Program Files\Microsoft Visual Studio\2022\Community\VC\Tools\MSVC\14.44.35207\include\vector
;	COMDAT ??__FvecEffectList@@YAXXZ
text$yd	SEGMENT
??__FvecEffectList@@YAXXZ PROC				; `dynamic atexit destructor for 'vecEffectList'', COMDAT

; 830  :         _Tidy();

  00000	b9 00 00 00 00	 mov	 ecx, OFFSET ?vecEffectList@@3V?$vector@V?$tuple@IPBDPBD_N@std@@V?$allocator@V?$tuple@IPBDPBD_N@std@@@2@@std@@B
  00005	e9 00 00 00 00	 jmp	 ?_Tidy@?$vector@V?$tuple@IPBDPBD_N@std@@V?$allocator@V?$tuple@IPBDPBD_N@std@@@2@@std@@AAEXXZ ; std::vector<std::tuple<unsigned int,char const *,char const *,bool>,std::allocator<std::tuple<unsigned int,char const *,char const *,bool> > >::_Tidy
??__FvecEffectList@@YAXXZ ENDP				; `dynamic atexit destructor for 'vecEffectList''
text$yd	ENDS
; Function compile flags: /Ogtp
; File C:\Anka2Project\Anka2Project\Source\Binary\source\UserInterface\PythonPlayerSettingsModule.h
; File C:\Program Files\Microsoft Visual Studio\2022\Community\VC\Tools\MSVC\14.44.35207\include\initializer_list
; File C:\Program Files\Microsoft Visual Studio\2022\Community\VC\Tools\MSVC\14.44.35207\include\utility
; File C:\Program Files\Microsoft Visual Studio\2022\Community\VC\Tools\MSVC\14.44.35207\include\initializer_list
; File C:\Program Files\Microsoft Visual Studio\2022\Community\VC\Tools\MSVC\14.44.35207\include\utility
; File C:\Anka2Project\Anka2Project\Source\Binary\source\UserInterface\PythonPlayerSettingsModule.h
; File C:\Program Files\Microsoft Visual Studio\2022\Community\VC\Tools\MSVC\14.44.35207\include\utility
; File C:\Anka2Project\Anka2Project\Source\Binary\source\UserInterface\PythonPlayerSettingsModule.h
;	COMDAT ??__EcharacterNameColors@@YAXXZ
text$di	SEGMENT
$T3 = -64						; size = 60
__$ArrayPad$ = -4					; size = 4
??__EcharacterNameColors@@YAXXZ PROC			; `dynamic initializer for 'characterNameColors'', COMDAT

; 523  : };

  00000	55		 push	 ebp
  00001	8b ec		 mov	 ebp, esp
  00003	83 e4 f8	 and	 esp, -8			; fffffff8H
  00006	83 ec 40	 sub	 esp, 64			; 00000040H
  00009	a1 00 00 00 00	 mov	 eax, DWORD PTR ___security_cookie
  0000e	33 c4		 xor	 eax, esp
  00010	89 44 24 3c	 mov	 DWORD PTR __$ArrayPad$[esp+64], eax
; File C:\Program Files\Microsoft Visual Studio\2022\Community\VC\Tools\MSVC\14.44.35207\include\initializer_list

; 34   :         : _First(_First_arg), _Last(_Last_arg) {}

  00014	8d 44 24 3c	 lea	 eax, DWORD PTR $T3[esp+124]
; File C:\Program Files\Microsoft Visual Studio\2022\Community\VC\Tools\MSVC\14.44.35207\include\utility

; 263  :         : first(_Val1), second(_Val2) {}

  00018	c7 04 24 09 ff
	d7 4c		 mov	 DWORD PTR $T3[esp+64], 1289223945 ; 4cd7ff09H
; File C:\Program Files\Microsoft Visual Studio\2022\Community\VC\Tools\MSVC\14.44.35207\include\initializer_list

; 34   :         : _First(_First_arg), _Last(_Last_arg) {}

  0001f	8d 0c 24	 lea	 ecx, DWORD PTR $T3[esp+64]
; File C:\Program Files\Microsoft Visual Studio\2022\Community\VC\Tools\MSVC\14.44.35207\include\utility

; 263  :         : first(_Val1), second(_Val2) {}

  00022	c7 44 24 04 08
	7a e7 5d	 mov	 DWORD PTR $T3[esp+68], 1575451144 ; 5de77a08H
; File C:\Anka2Project\Anka2Project\Source\Binary\source\UserInterface\PythonPlayerSettingsModule.h

; 503  : {

  0002a	50		 push	 eax
  0002b	51		 push	 ecx
  0002c	b9 00 00 00 00	 mov	 ecx, OFFSET ?characterNameColors@@3V?$map@EV?$array@E$02@std@@U?$less@E@2@V?$allocator@U?$pair@$$CBEV?$array@E$02@std@@@std@@@2@@std@@B
; File C:\Program Files\Microsoft Visual Studio\2022\Community\VC\Tools\MSVC\14.44.35207\include\utility

; 263  :         : first(_Val1), second(_Val2) {}

  00031	c7 44 24 10 07
	eb 16 09	 mov	 DWORD PTR $T3[esp+80], 152496903 ; 0916eb07H
  00039	c7 44 24 14 17
	ee 36 df	 mov	 DWORD PTR $T3[esp+84], -550048233 ; df36ee17H
  00041	c7 44 24 18 16
	b4 64 00	 mov	 DWORD PTR $T3[esp+88], 6599702 ; 0064b416H
  00049	c7 44 24 1c 18
	80 c0 ff	 mov	 DWORD PTR $T3[esp+92], -4161512 ; ffc08018H
  00051	c7 44 24 20 19
	88 da f1	 mov	 DWORD PTR $T3[esp+96], -237336551 ; f1da8819H
  00059	c7 44 24 24 1a
	ff ff ff	 mov	 DWORD PTR $T3[esp+100], -230 ; ffffff1aH
  00061	c7 44 24 28 0e
	eb 16 09	 mov	 DWORD PTR $T3[esp+104], 152496910 ; 0916eb0eH
  00069	c7 44 24 2c 0f
	7a e7 5d	 mov	 DWORD PTR $T3[esp+108], 1575451151 ; 5de77a0fH
  00071	c7 44 24 30 11
	9d 00 00	 mov	 DWORD PTR $T3[esp+112], 40209 ; 00009d11H
  00079	c7 44 24 34 12
	de a0 2f	 mov	 DWORD PTR $T3[esp+116], 799071762 ; 2fa0de12H
  00081	c7 44 24 38 13
	17 1e 8a	 mov	 DWORD PTR $T3[esp+120], -1977739501 ; 8a1e1713H
  00089	c7 44 24 3c 1b
	f0 ff ff	 mov	 DWORD PTR $T3[esp+124], -4069 ; fffff01bH
  00091	c7 44 24 40 1c
	ff d7 4c	 mov	 DWORD PTR $T3[esp+128], 1289223964 ; 4cd7ff1cH
; File C:\Anka2Project\Anka2Project\Source\Binary\source\UserInterface\PythonPlayerSettingsModule.h

; 503  : {

  00099	e8 00 00 00 00	 call	 ??0?$map@EV?$array@E$02@std@@U?$less@E@2@V?$allocator@U?$pair@$$CBEV?$array@E$02@std@@@std@@@2@@std@@QAE@V?$initializer_list@U?$pair@$$CBEV?$array@E$02@std@@@std@@@1@@Z ; std::map<unsigned char,std::array<unsigned char,3>,std::less<unsigned char>,std::allocator<std::pair<unsigned char const ,std::array<unsigned char,3> > > >::map<unsigned char,std::array<unsigned char,3>,std::less<unsigned char>,std::allocator<std::pair<unsigned char const ,std::array<unsigned char,3> > > >
  0009e	68 00 00 00 00	 push	 OFFSET ??__FcharacterNameColors@@YAXXZ ; `dynamic atexit destructor for 'characterNameColors''
  000a3	e8 00 00 00 00	 call	 _atexit
  000a8	8b 4c 24 40	 mov	 ecx, DWORD PTR __$ArrayPad$[esp+68]
  000ac	83 c4 04	 add	 esp, 4
  000af	33 cc		 xor	 ecx, esp
  000b1	e8 00 00 00 00	 call	 @__security_check_cookie@4

; 502  : static const TCharacterColorMap characterNameColors

  000b6	8b e5		 mov	 esp, ebp
  000b8	5d		 pop	 ebp
  000b9	c3		 ret	 0
??__EcharacterNameColors@@YAXXZ ENDP			; `dynamic initializer for 'characterNameColors''
text$di	ENDS
; Function compile flags: /Ogtp
;	COMDAT ??__FcharacterNameColors@@YAXXZ
text$yd	SEGMENT
??__FcharacterNameColors@@YAXXZ PROC			; `dynamic atexit destructor for 'characterNameColors'', COMDAT
  00000	b9 00 00 00 00	 mov	 ecx, OFFSET ?characterNameColors@@3V?$map@EV?$array@E$02@std@@U?$less@E@2@V?$allocator@U?$pair@$$CBEV?$array@E$02@std@@@std@@@2@@std@@B
  00005	e9 00 00 00 00	 jmp	 ??1?$_Tree@V?$_Tmap_traits@EV?$array@E$02@std@@U?$less@E@2@V?$allocator@U?$pair@$$CBEV?$array@E$02@std@@@std@@@2@$0A@@std@@@std@@QAE@XZ ; std::_Tree<std::_Tmap_traits<unsigned char,std::array<unsigned char,3>,std::less<unsigned char>,std::allocator<std::pair<unsigned char const ,std::array<unsigned char,3> > >,0> >::~_Tree<std::_Tmap_traits<unsigned char,std::array<unsigned char,3>,std::less<unsigned char>,std::allocator<std::pair<unsigned char const ,std::array<unsigned char,3> > >,0> >
??__FcharacterNameColors@@YAXXZ ENDP			; `dynamic atexit destructor for 'characterNameColors''
text$yd	ENDS
; Function compile flags: /Ogtp
; File C:\Anka2Project\Anka2Project\Source\Binary\source\UserInterface\PythonPlayerSettingsModule.h
; File C:\Program Files\Microsoft Visual Studio\2022\Community\VC\Tools\MSVC\14.44.35207\include\initializer_list
; File C:\Program Files\Microsoft Visual Studio\2022\Community\VC\Tools\MSVC\14.44.35207\include\utility
; File C:\Program Files\Microsoft Visual Studio\2022\Community\VC\Tools\MSVC\14.44.35207\include\initializer_list
; File C:\Program Files\Microsoft Visual Studio\2022\Community\VC\Tools\MSVC\14.44.35207\include\utility
; File C:\Anka2Project\Anka2Project\Source\Binary\source\UserInterface\PythonPlayerSettingsModule.h
; File C:\Program Files\Microsoft Visual Studio\2022\Community\VC\Tools\MSVC\14.44.35207\include\utility
; File C:\Anka2Project\Anka2Project\Source\Binary\source\UserInterface\PythonPlayerSettingsModule.h
;	COMDAT ??__EcharacterTitleColors@@YAXXZ
text$di	SEGMENT
$T3 = -40						; size = 36
__$ArrayPad$ = -4					; size = 4
??__EcharacterTitleColors@@YAXXZ PROC			; `dynamic initializer for 'characterTitleColors'', COMDAT

; 536  : };

  00000	55		 push	 ebp
  00001	8b ec		 mov	 ebp, esp
  00003	83 e4 f8	 and	 esp, -8			; fffffff8H
  00006	83 ec 28	 sub	 esp, 40			; 00000028H
  00009	a1 00 00 00 00	 mov	 eax, DWORD PTR ___security_cookie
  0000e	33 c4		 xor	 eax, esp
  00010	89 44 24 24	 mov	 DWORD PTR __$ArrayPad$[esp+40], eax
; File C:\Program Files\Microsoft Visual Studio\2022\Community\VC\Tools\MSVC\14.44.35207\include\initializer_list

; 34   :         : _First(_First_arg), _Last(_Last_arg) {}

  00014	8d 44 24 24	 lea	 eax, DWORD PTR $T3[esp+76]
; File C:\Program Files\Microsoft Visual Studio\2022\Community\VC\Tools\MSVC\14.44.35207\include\utility

; 263  :         : first(_Val1), second(_Val2) {}

  00018	c7 04 24 00 00
	cc ff		 mov	 DWORD PTR $T3[esp+40], -3407872 ; ffcc0000H
; File C:\Program Files\Microsoft Visual Studio\2022\Community\VC\Tools\MSVC\14.44.35207\include\initializer_list

; 34   :         : _First(_First_arg), _Last(_Last_arg) {}

  0001f	8d 0c 24	 lea	 ecx, DWORD PTR $T3[esp+40]
; File C:\Program Files\Microsoft Visual Studio\2022\Community\VC\Tools\MSVC\14.44.35207\include\utility

; 263  :         : first(_Val1), second(_Val2) {}

  00022	c7 44 24 04 01
	00 90 ff	 mov	 DWORD PTR $T3[esp+44], -7340031 ; ff900001H
; File C:\Anka2Project\Anka2Project\Source\Binary\source\UserInterface\PythonPlayerSettingsModule.h

; 526  : {

  0002a	50		 push	 eax
  0002b	51		 push	 ecx
  0002c	b9 00 00 00 00	 mov	 ecx, OFFSET ?characterTitleColors@@3V?$map@EV?$array@E$02@std@@U?$less@E@2@V?$allocator@U?$pair@$$CBEV?$array@E$02@std@@@std@@@2@@std@@B
; File C:\Program Files\Microsoft Visual Studio\2022\Community\VC\Tools\MSVC\14.44.35207\include\utility

; 263  :         : first(_Val1), second(_Val2) {}

  00031	c7 44 24 10 02
	5c 6e ff	 mov	 DWORD PTR $T3[esp+56], -9544702 ; ff6e5c02H
  00039	c7 44 24 14 03
	9b 9b ff	 mov	 DWORD PTR $T3[esp+60], -6579453 ; ff9b9b03H
  00041	c7 44 24 18 04
	ff ff ff	 mov	 DWORD PTR $T3[esp+64], -252 ; ffffff04H
  00049	c7 44 24 1c 05
	cf 75 00	 mov	 DWORD PTR $T3[esp+68], 7720709 ; 0075cf05H
  00051	c7 44 24 20 06
	eb 53 00	 mov	 DWORD PTR $T3[esp+72], 5499654 ; 0053eb06H
  00059	c7 44 24 24 07
	e3 00 00	 mov	 DWORD PTR $T3[esp+76], 58119 ; 0000e307H
  00061	c7 44 24 28 08
	ff 00 00	 mov	 DWORD PTR $T3[esp+80], 65288 ; 0000ff08H
; File C:\Anka2Project\Anka2Project\Source\Binary\source\UserInterface\PythonPlayerSettingsModule.h

; 526  : {

  00069	e8 00 00 00 00	 call	 ??0?$map@EV?$array@E$02@std@@U?$less@E@2@V?$allocator@U?$pair@$$CBEV?$array@E$02@std@@@std@@@2@@std@@QAE@V?$initializer_list@U?$pair@$$CBEV?$array@E$02@std@@@std@@@1@@Z ; std::map<unsigned char,std::array<unsigned char,3>,std::less<unsigned char>,std::allocator<std::pair<unsigned char const ,std::array<unsigned char,3> > > >::map<unsigned char,std::array<unsigned char,3>,std::less<unsigned char>,std::allocator<std::pair<unsigned char const ,std::array<unsigned char,3> > > >
  0006e	68 00 00 00 00	 push	 OFFSET ??__FcharacterTitleColors@@YAXXZ ; `dynamic atexit destructor for 'characterTitleColors''
  00073	e8 00 00 00 00	 call	 _atexit
  00078	8b 4c 24 28	 mov	 ecx, DWORD PTR __$ArrayPad$[esp+44]
  0007c	83 c4 04	 add	 esp, 4
  0007f	33 cc		 xor	 ecx, esp
  00081	e8 00 00 00 00	 call	 @__security_check_cookie@4

; 525  : static const TCharacterColorMap characterTitleColors

  00086	8b e5		 mov	 esp, ebp
  00088	5d		 pop	 ebp
  00089	c3		 ret	 0
??__EcharacterTitleColors@@YAXXZ ENDP			; `dynamic initializer for 'characterTitleColors''
text$di	ENDS
; Function compile flags: /Ogtp
;	COMDAT ??__FcharacterTitleColors@@YAXXZ
text$yd	SEGMENT
??__FcharacterTitleColors@@YAXXZ PROC			; `dynamic atexit destructor for 'characterTitleColors'', COMDAT
  00000	b9 00 00 00 00	 mov	 ecx, OFFSET ?characterTitleColors@@3V?$map@EV?$array@E$02@std@@U?$less@E@2@V?$allocator@U?$pair@$$CBEV?$array@E$02@std@@@std@@@2@@std@@B
  00005	e9 00 00 00 00	 jmp	 ??1?$_Tree@V?$_Tmap_traits@EV?$array@E$02@std@@U?$less@E@2@V?$allocator@U?$pair@$$CBEV?$array@E$02@std@@@std@@@2@$0A@@std@@@std@@QAE@XZ ; std::_Tree<std::_Tmap_traits<unsigned char,std::array<unsigned char,3>,std::less<unsigned char>,std::allocator<std::pair<unsigned char const ,std::array<unsigned char,3> > >,0> >::~_Tree<std::_Tmap_traits<unsigned char,std::array<unsigned char,3>,std::less<unsigned char>,std::allocator<std::pair<unsigned char const ,std::array<unsigned char,3> > >,0> >
??__FcharacterTitleColors@@YAXXZ ENDP			; `dynamic atexit destructor for 'characterTitleColors''
text$yd	ENDS
; Function compile flags: /Ogtp
; File C:\Anka2Project\Anka2Project\Source\Binary\source\UserInterface\PythonPlayerSettingsModule.h
; File C:\Program Files\Microsoft Visual Studio\2022\Community\VC\Tools\MSVC\14.44.35207\include\initializer_list
; File C:\Program Files\Microsoft Visual Studio\2022\Community\VC\Tools\MSVC\14.44.35207\include\utility
; File C:\Program Files\Microsoft Visual Studio\2022\Community\VC\Tools\MSVC\14.44.35207\include\initializer_list
; File C:\Program Files\Microsoft Visual Studio\2022\Community\VC\Tools\MSVC\14.44.35207\include\utility
; File C:\Anka2Project\Anka2Project\Source\Binary\source\UserInterface\PythonPlayerSettingsModule.h
; File C:\Program Files\Microsoft Visual Studio\2022\Community\VC\Tools\MSVC\14.44.35207\include\utility
; File C:\Anka2Project\Anka2Project\Source\Binary\source\UserInterface\PythonPlayerSettingsModule.h
;	COMDAT ??__EcharacterTitleSystemColors@@YAXXZ
text$di	SEGMENT
$T3 = -96						; size = 84
__$ArrayPad$ = -4					; size = 4
??__EcharacterTitleSystemColors@@YAXXZ PROC		; `dynamic initializer for 'characterTitleSystemColors'', COMDAT

; 562  : };

  00000	55		 push	 ebp
  00001	8b ec		 mov	 ebp, esp
  00003	83 e4 f8	 and	 esp, -8			; fffffff8H
  00006	83 ec 60	 sub	 esp, 96			; 00000060H
  00009	a1 00 00 00 00	 mov	 eax, DWORD PTR ___security_cookie
  0000e	33 c4		 xor	 eax, esp
  00010	89 44 24 5c	 mov	 DWORD PTR __$ArrayPad$[esp+96], eax
; File C:\Program Files\Microsoft Visual Studio\2022\Community\VC\Tools\MSVC\14.44.35207\include\initializer_list

; 34   :         : _First(_First_arg), _Last(_Last_arg) {}

  00014	8d 44 24 54	 lea	 eax, DWORD PTR $T3[esp+180]
; File C:\Program Files\Microsoft Visual Studio\2022\Community\VC\Tools\MSVC\14.44.35207\include\utility

; 263  :         : first(_Val1), second(_Val2) {}

  00018	c7 04 24 00 ff
	e6 ba		 mov	 DWORD PTR $T3[esp+96], -1159266560 ; bae6ff00H
; File C:\Program Files\Microsoft Visual Studio\2022\Community\VC\Tools\MSVC\14.44.35207\include\initializer_list

; 34   :         : _First(_First_arg), _Last(_Last_arg) {}

  0001f	8d 0c 24	 lea	 ecx, DWORD PTR $T3[esp+96]
; File C:\Program Files\Microsoft Visual Studio\2022\Community\VC\Tools\MSVC\14.44.35207\include\utility

; 263  :         : first(_Val1), second(_Val2) {}

  00022	c7 44 24 04 01
	ff e6 ba	 mov	 DWORD PTR $T3[esp+100], -1159266559 ; bae6ff01H
; File C:\Anka2Project\Anka2Project\Source\Binary\source\UserInterface\PythonPlayerSettingsModule.h

; 540  : {

  0002a	50		 push	 eax
  0002b	51		 push	 ecx
  0002c	b9 00 00 00 00	 mov	 ecx, OFFSET ?characterTitleSystemColors@@3V?$map@EV?$array@E$02@std@@U?$less@E@2@V?$allocator@U?$pair@$$CBEV?$array@E$02@std@@@std@@@2@@std@@B
; File C:\Program Files\Microsoft Visual Studio\2022\Community\VC\Tools\MSVC\14.44.35207\include\utility

; 263  :         : first(_Val1), second(_Val2) {}

  00031	c7 44 24 10 02
	ff e6 ba	 mov	 DWORD PTR $T3[esp+112], -1159266558 ; bae6ff02H
  00039	c7 44 24 14 03
	ff e6 ba	 mov	 DWORD PTR $T3[esp+116], -1159266557 ; bae6ff03H
  00041	c7 44 24 18 04
	ff e6 ba	 mov	 DWORD PTR $T3[esp+120], -1159266556 ; bae6ff04H
  00049	c7 44 24 1c 05
	ff e6 ba	 mov	 DWORD PTR $T3[esp+124], -1159266555 ; bae6ff05H
  00051	c7 44 24 20 06
	ff e6 ba	 mov	 DWORD PTR $T3[esp+128], -1159266554 ; bae6ff06H
  00059	c7 44 24 24 07
	ff e6 ba	 mov	 DWORD PTR $T3[esp+132], -1159266553 ; bae6ff07H
  00061	c7 44 24 28 08
	ff e6 ba	 mov	 DWORD PTR $T3[esp+136], -1159266552 ; bae6ff08H
  00069	c7 44 24 2c 09
	ff e6 ba	 mov	 DWORD PTR $T3[esp+140], -1159266551 ; bae6ff09H
  00071	c7 44 24 30 0a
	ff e6 ba	 mov	 DWORD PTR $T3[esp+144], -1159266550 ; bae6ff0aH
  00079	c7 44 24 34 0b
	ff e6 ba	 mov	 DWORD PTR $T3[esp+148], -1159266549 ; bae6ff0bH
  00081	c7 44 24 38 0c
	ff e6 ba	 mov	 DWORD PTR $T3[esp+152], -1159266548 ; bae6ff0cH
  00089	c7 44 24 3c 0d
	ff e6 ba	 mov	 DWORD PTR $T3[esp+156], -1159266547 ; bae6ff0dH
  00091	c7 44 24 40 0e
	ff e6 ba	 mov	 DWORD PTR $T3[esp+160], -1159266546 ; bae6ff0eH
  00099	c7 44 24 44 0f
	ff e6 ba	 mov	 DWORD PTR $T3[esp+164], -1159266545 ; bae6ff0fH
  000a1	c7 44 24 48 10
	ff e6 ba	 mov	 DWORD PTR $T3[esp+168], -1159266544 ; bae6ff10H
  000a9	c7 44 24 4c 11
	ff e6 ba	 mov	 DWORD PTR $T3[esp+172], -1159266543 ; bae6ff11H
  000b1	c7 44 24 50 12
	ff e6 ba	 mov	 DWORD PTR $T3[esp+176], -1159266542 ; bae6ff12H
  000b9	c7 44 24 54 13
	ff e6 ba	 mov	 DWORD PTR $T3[esp+180], -1159266541 ; bae6ff13H
  000c1	c7 44 24 58 14
	ff e6 ba	 mov	 DWORD PTR $T3[esp+184], -1159266540 ; bae6ff14H
; File C:\Anka2Project\Anka2Project\Source\Binary\source\UserInterface\PythonPlayerSettingsModule.h

; 540  : {

  000c9	e8 00 00 00 00	 call	 ??0?$map@EV?$array@E$02@std@@U?$less@E@2@V?$allocator@U?$pair@$$CBEV?$array@E$02@std@@@std@@@2@@std@@QAE@V?$initializer_list@U?$pair@$$CBEV?$array@E$02@std@@@std@@@1@@Z ; std::map<unsigned char,std::array<unsigned char,3>,std::less<unsigned char>,std::allocator<std::pair<unsigned char const ,std::array<unsigned char,3> > > >::map<unsigned char,std::array<unsigned char,3>,std::less<unsigned char>,std::allocator<std::pair<unsigned char const ,std::array<unsigned char,3> > > >
  000ce	68 00 00 00 00	 push	 OFFSET ??__FcharacterTitleSystemColors@@YAXXZ ; `dynamic atexit destructor for 'characterTitleSystemColors''
  000d3	e8 00 00 00 00	 call	 _atexit
  000d8	8b 4c 24 60	 mov	 ecx, DWORD PTR __$ArrayPad$[esp+100]
  000dc	83 c4 04	 add	 esp, 4
  000df	33 cc		 xor	 ecx, esp
  000e1	e8 00 00 00 00	 call	 @__security_check_cookie@4

; 539  : static const TCharacterColorMap characterTitleSystemColors

  000e6	8b e5		 mov	 esp, ebp
  000e8	5d		 pop	 ebp
  000e9	c3		 ret	 0
??__EcharacterTitleSystemColors@@YAXXZ ENDP		; `dynamic initializer for 'characterTitleSystemColors''
text$di	ENDS
; Function compile flags: /Ogtp
;	COMDAT ??__FcharacterTitleSystemColors@@YAXXZ
text$yd	SEGMENT
??__FcharacterTitleSystemColors@@YAXXZ PROC		; `dynamic atexit destructor for 'characterTitleSystemColors'', COMDAT
  00000	b9 00 00 00 00	 mov	 ecx, OFFSET ?characterTitleSystemColors@@3V?$map@EV?$array@E$02@std@@U?$less@E@2@V?$allocator@U?$pair@$$CBEV?$array@E$02@std@@@std@@@2@@std@@B
  00005	e9 00 00 00 00	 jmp	 ??1?$_Tree@V?$_Tmap_traits@EV?$array@E$02@std@@U?$less@E@2@V?$allocator@U?$pair@$$CBEV?$array@E$02@std@@@std@@@2@$0A@@std@@@std@@QAE@XZ ; std::_Tree<std::_Tmap_traits<unsigned char,std::array<unsigned char,3>,std::less<unsigned char>,std::allocator<std::pair<unsigned char const ,std::array<unsigned char,3> > >,0> >::~_Tree<std::_Tmap_traits<unsigned char,std::array<unsigned char,3>,std::less<unsigned char>,std::allocator<std::pair<unsigned char const ,std::array<unsigned char,3> > >,0> >
??__FcharacterTitleSystemColors@@YAXXZ ENDP		; `dynamic atexit destructor for 'characterTitleSystemColors''
text$yd	ENDS
; Function compile flags: /Ogtp
; File C:\Anka2Project\Anka2Project\Source\Binary\source\UserInterface\PythonPlayerSettingsModule.h
; File C:\Program Files\Microsoft Visual Studio\2022\Community\VC\Tools\MSVC\14.44.35207\include\utility
; File C:\Program Files\Microsoft Visual Studio\2022\Community\VC\Tools\MSVC\14.44.35207\include\initializer_list
; File C:\Program Files\Microsoft Visual Studio\2022\Community\VC\Tools\MSVC\14.44.35207\include\utility
; File C:\Program Files\Microsoft Visual Studio\2022\Community\VC\Tools\MSVC\14.44.35207\include\initializer_list
; File C:\Program Files\Microsoft Visual Studio\2022\Community\VC\Tools\MSVC\14.44.35207\include\utility
; File C:\Anka2Project\Anka2Project\Source\Binary\source\UserInterface\PythonPlayerSettingsModule.h
; File C:\Program Files\Microsoft Visual Studio\2022\Community\VC\Tools\MSVC\14.44.35207\include\utility
; File C:\Anka2Project\Anka2Project\Source\Binary\source\UserInterface\PythonPlayerSettingsModule.h
;	COMDAT ??__EemotionIcons@@YAXXZ
text$di	SEGMENT
$T2 = -400						; size = 392
__$ArrayPad$ = -4					; size = 4
??__EemotionIcons@@YAXXZ PROC				; `dynamic initializer for 'emotionIcons'', COMDAT

; 616  : };

  00000	55		 push	 ebp
  00001	8b ec		 mov	 ebp, esp
  00003	83 e4 f8	 and	 esp, -8			; fffffff8H
  00006	81 ec 90 01 00
	00		 sub	 esp, 400		; 00000190H
  0000c	a1 00 00 00 00	 mov	 eax, DWORD PTR ___security_cookie
  00011	33 c4		 xor	 eax, esp
  00013	89 84 24 8c 01
	00 00		 mov	 DWORD PTR __$ArrayPad$[esp+400], eax
; File C:\Program Files\Microsoft Visual Studio\2022\Community\VC\Tools\MSVC\14.44.35207\include\utility

; 274  :         : first(_STD forward<_Other1>(_Val1)), second(_STD forward<_Other2>(_Val2)) {

  0001a	c6 04 24 01	 mov	 BYTE PTR $T2[esp+400], 1
  0001e	c7 44 24 04 00
	00 00 00	 mov	 DWORD PTR $T2[esp+404], OFFSET ??_C@_0CO@MFCEALPI@d?3?1ymir?5work?1ui?1game?1windows?1em@
  00026	c6 44 24 08 0b	 mov	 BYTE PTR $T2[esp+408], 11 ; 0000000bH
  0002b	c7 44 24 0c 00
	00 00 00	 mov	 DWORD PTR $T2[esp+412], OFFSET ??_C@_0DC@FAACJHAB@d?3?1ymir?5work?1ui?1game?1windows?1em@
  00033	c6 44 24 10 0c	 mov	 BYTE PTR $T2[esp+416], 12 ; 0000000cH
  00038	c7 44 24 14 00
	00 00 00	 mov	 DWORD PTR $T2[esp+420], OFFSET ??_C@_0DC@NGJGOFKP@d?3?1ymir?5work?1ui?1game?1windows?1em@
  00040	c6 44 24 18 0d	 mov	 BYTE PTR $T2[esp+424], 13 ; 0000000dH
  00045	c7 44 24 1c 00
	00 00 00	 mov	 DWORD PTR $T2[esp+428], OFFSET ??_C@_0BH@OMFLFAKO@icon?1action?1dance1?4tga@
  0004d	c6 44 24 20 0e	 mov	 BYTE PTR $T2[esp+432], 14 ; 0000000eH
  00052	c7 44 24 24 00
	00 00 00	 mov	 DWORD PTR $T2[esp+436], OFFSET ??_C@_0BH@GKMPCCAA@icon?1action?1dance2?4tga@
  0005a	c6 44 24 28 02	 mov	 BYTE PTR $T2[esp+440], 2
  0005f	c7 44 24 2c 00
	00 00 00	 mov	 DWORD PTR $T2[esp+444], OFFSET ??_C@_0BP@GFFNIAJA@icon?1action?1congratulation?4tga@
  00067	c6 44 24 30 03	 mov	 BYTE PTR $T2[esp+448], 3
  0006c	c7 44 24 34 00
	00 00 00	 mov	 DWORD PTR $T2[esp+452], OFFSET ??_C@_0BI@BEEJPNBE@icon?1action?1forgive?4tga@
  00074	c6 44 24 38 04	 mov	 BYTE PTR $T2[esp+456], 4
  00079	c7 44 24 3c 00
	00 00 00	 mov	 DWORD PTR $T2[esp+460], OFFSET ??_C@_0BG@JPEPMGBB@icon?1action?1angry?4tga@
  00081	c6 44 24 40 05	 mov	 BYTE PTR $T2[esp+464], 5
  00086	c7 44 24 44 00
	00 00 00	 mov	 DWORD PTR $T2[esp+468], OFFSET ??_C@_0BL@FJINJML@icon?1action?1attractive?4tga@
  0008e	c6 44 24 48 06	 mov	 BYTE PTR $T2[esp+472], 6
  00093	c7 44 24 4c 00
	00 00 00	 mov	 DWORD PTR $T2[esp+476], OFFSET ??_C@_0BE@PHMEGIFH@icon?1action?1sad?4tga@
  0009b	c6 44 24 50 07	 mov	 BYTE PTR $T2[esp+480], 7
  000a0	c7 44 24 54 00
	00 00 00	 mov	 DWORD PTR $T2[esp+484], OFFSET ??_C@_0BE@NNBEDMMB@icon?1action?1shy?4tga@
  000a8	c6 44 24 58 08	 mov	 BYTE PTR $T2[esp+488], 8
  000ad	c7 44 24 5c 00
	00 00 00	 mov	 DWORD PTR $T2[esp+492], OFFSET ??_C@_0BI@NHHIJFI@icon?1action?1cheerup?4tga@
  000b5	c6 44 24 60 09	 mov	 BYTE PTR $T2[esp+496], 9
  000ba	c7 44 24 64 00
	00 00 00	 mov	 DWORD PTR $T2[esp+500], OFFSET ??_C@_0BH@PLFMNKBN@icon?1action?1banter?4tga@
  000c2	c6 44 24 68 0a	 mov	 BYTE PTR $T2[esp+504], 10 ; 0000000aH
  000c7	c7 44 24 6c 00
	00 00 00	 mov	 DWORD PTR $T2[esp+508], OFFSET ??_C@_0BE@HLEHCIEP@icon?1action?1joy?4tga@
  000cf	c6 44 24 70 0d	 mov	 BYTE PTR $T2[esp+512], 13 ; 0000000dH
  000d4	c7 44 24 74 00
	00 00 00	 mov	 DWORD PTR $T2[esp+516], OFFSET ??_C@_0BH@OMFLFAKO@icon?1action?1dance1?4tga@
  000dc	c6 44 24 78 0e	 mov	 BYTE PTR $T2[esp+520], 14 ; 0000000eH
  000e1	c7 44 24 7c 00
	00 00 00	 mov	 DWORD PTR $T2[esp+524], OFFSET ??_C@_0BH@GKMPCCAA@icon?1action?1dance2?4tga@
  000e9	c6 84 24 80 00
	00 00 0f	 mov	 BYTE PTR $T2[esp+528], 15 ; 0000000fH
  000f1	c7 84 24 84 00
	00 00 00 00 00
	00		 mov	 DWORD PTR $T2[esp+532], OFFSET ??_C@_0BH@KBJDPBKF@icon?1action?1dance3?4tga@
  000fc	c6 84 24 88 00
	00 00 10	 mov	 BYTE PTR $T2[esp+536], 16 ; 00000010H
  00104	c7 84 24 8c 00
	00 00 00 00 00
	00		 mov	 DWORD PTR $T2[esp+540], OFFSET ??_C@_0BH@LMJGMBBN@icon?1action?1dance4?4tga@
  0010f	c6 84 24 90 00
	00 00 11	 mov	 BYTE PTR $T2[esp+544], 17 ; 00000011H
  00117	c7 84 24 94 00
	00 00 00 00 00
	00		 mov	 DWORD PTR $T2[esp+548], OFFSET ??_C@_0BH@HHMKBCLI@icon?1action?1dance5?4tga@
  00122	c6 84 24 98 00
	00 00 12	 mov	 BYTE PTR $T2[esp+552], 18 ; 00000012H
  0012a	c7 84 24 9c 00
	00 00 00 00 00
	00		 mov	 DWORD PTR $T2[esp+556], OFFSET ??_C@_0BH@PBFOGABG@icon?1action?1dance6?4tga@
  00135	c6 84 24 a0 00
	00 00 13	 mov	 BYTE PTR $T2[esp+560], 19 ; 00000013H
  0013d	c7 84 24 a4 00
	00 00 00 00 00
	00		 mov	 DWORD PTR $T2[esp+564], OFFSET ??_C@_0BH@DKACLDLD@icon?1action?1dance7?4tga@
  00148	c6 84 24 a8 00
	00 00 14	 mov	 BYTE PTR $T2[esp+568], 20 ; 00000014H
  00150	c7 84 24 ac 00
	00 00 00 00 00
	00		 mov	 DWORD PTR $T2[esp+572], OFFSET ??_C@_0BH@FENECHOL@icon?1action?1selfie?4tga@
  0015b	c6 84 24 b0 00
	00 00 15	 mov	 BYTE PTR $T2[esp+576], 21 ; 00000015H
  00163	c7 84 24 b4 00
	00 00 00 00 00
	00		 mov	 DWORD PTR $T2[esp+580], OFFSET ??_C@_0BF@DCMJCJMG@icon?1action?1doze?4tga@
  0016e	c6 84 24 b8 00
	00 00 16	 mov	 BYTE PTR $T2[esp+584], 22 ; 00000016H
  00176	c7 84 24 bc 00
	00 00 00 00 00
	00		 mov	 DWORD PTR $T2[esp+588], OFFSET ??_C@_0BJ@IAIOJNNE@icon?1action?1exercise?4tga@
  00181	c6 84 24 c0 00
	00 00 17	 mov	 BYTE PTR $T2[esp+592], 23 ; 00000017H
  00189	c7 84 24 c4 00
	00 00 00 00 00
	00		 mov	 DWORD PTR $T2[esp+596], OFFSET ??_C@_0BH@HPAODKAC@icon?1action?1pushup?4tga@
  00194	c6 84 24 c8 00
	00 00 3d	 mov	 BYTE PTR $T2[esp+600], 61 ; 0000003dH
  0019c	c7 84 24 cc 00
	00 00 00 00 00
	00		 mov	 DWORD PTR $T2[esp+604], OFFSET ??_C@_0BK@BPOFCBBP@icon?1action?1emotion_1?4tga@
  001a7	c6 84 24 d0 00
	00 00 3e	 mov	 BYTE PTR $T2[esp+608], 62 ; 0000003eH
  001af	c7 84 24 d4 00
	00 00 00 00 00
	00		 mov	 DWORD PTR $T2[esp+612], OFFSET ??_C@_0BK@JJHBFDLB@icon?1action?1emotion_2?4tga@
  001ba	c6 84 24 d8 00
	00 00 3f	 mov	 BYTE PTR $T2[esp+616], 63 ; 0000003fH
  001c2	c7 84 24 dc 00
	00 00 00 00 00
	00		 mov	 DWORD PTR $T2[esp+620], OFFSET ??_C@_0BK@FCCNIABE@icon?1action?1emotion_3?4tga@
  001cd	c6 84 24 e0 00
	00 00 40	 mov	 BYTE PTR $T2[esp+624], 64 ; 00000040H
  001d5	c7 84 24 e4 00
	00 00 00 00 00
	00		 mov	 DWORD PTR $T2[esp+628], OFFSET ??_C@_0BK@EPCILAKM@icon?1action?1emotion_4?4tga@
  001e0	c6 84 24 e8 00
	00 00 41	 mov	 BYTE PTR $T2[esp+632], 65 ; 00000041H
  001e8	c7 84 24 ec 00
	00 00 00 00 00
	00		 mov	 DWORD PTR $T2[esp+636], OFFSET ??_C@_0BK@IEHEGDAJ@icon?1action?1emotion_5?4tga@
  001f3	c6 84 24 f0 00
	00 00 42	 mov	 BYTE PTR $T2[esp+640], 66 ; 00000042H
  001fb	c7 84 24 f4 00
	00 00 00 00 00
	00		 mov	 DWORD PTR $T2[esp+644], OFFSET ??_C@_0BK@COABBKH@icon?1action?1emotion_6?4tga@
  00206	c6 84 24 f8 00
	00 00 43	 mov	 BYTE PTR $T2[esp+648], 67 ; 00000043H
  0020e	c7 84 24 fc 00
	00 00 00 00 00
	00		 mov	 DWORD PTR $T2[esp+652], OFFSET ??_C@_0BK@MJLMMCAC@icon?1action?1emotion_7?4tga@
  00219	c6 84 24 00 01
	00 00 44	 mov	 BYTE PTR $T2[esp+656], 68 ; 00000044H
  00221	c7 84 24 04 01
	00 00 00 00 00
	00		 mov	 DWORD PTR $T2[esp+660], OFFSET ??_C@_0BK@DIOKHANH@icon?1action?1emotion_8?4tga@
  0022c	c6 84 24 08 01
	00 00 45	 mov	 BYTE PTR $T2[esp+664], 69 ; 00000045H
  00234	c7 84 24 0c 01
	00 00 00 00 00
	00		 mov	 DWORD PTR $T2[esp+668], OFFSET ??_C@_0BK@PDLGKDHC@icon?1action?1emotion_9?4tga@
  0023f	c6 84 24 10 01
	00 00 46	 mov	 BYTE PTR $T2[esp+672], 70 ; 00000046H
  00247	c7 84 24 14 01
	00 00 00 00 00
	00		 mov	 DWORD PTR $T2[esp+676], OFFSET ??_C@_0BL@PMKPICHA@icon?1action?1emotion_10?4tga@
  00252	c6 84 24 18 01
	00 00 47	 mov	 BYTE PTR $T2[esp+680], 71 ; 00000047H
  0025a	c7 84 24 1c 01
	00 00 00 00 00
	00		 mov	 DWORD PTR $T2[esp+684], OFFSET ??_C@_0BL@DHPDFBNF@icon?1action?1emotion_11?4tga@
  00265	c6 84 24 20 01
	00 00 48	 mov	 BYTE PTR $T2[esp+688], 72 ; 00000048H
  0026d	c7 84 24 24 01
	00 00 00 00 00
	00		 mov	 DWORD PTR $T2[esp+692], OFFSET ??_C@_0BL@LBGHCDHL@icon?1action?1emotion_12?4tga@
  00278	c6 84 24 28 01
	00 00 49	 mov	 BYTE PTR $T2[esp+696], 73 ; 00000049H
  00280	c7 84 24 2c 01
	00 00 00 00 00
	00		 mov	 DWORD PTR $T2[esp+700], OFFSET ??_C@_0BF@LAAKDKNI@icon?1action?1bani?4tga@
  0028b	c6 84 24 30 01
	00 00 4a	 mov	 BYTE PTR $T2[esp+704], 74 ; 0000004aH
  00293	c7 84 24 34 01
	00 00 00 00 00
	00		 mov	 DWORD PTR $T2[esp+708], OFFSET ??_C@_0BF@LAAKDKNI@icon?1action?1bani?4tga@
  0029e	c6 84 24 38 01
	00 00 4b	 mov	 BYTE PTR $T2[esp+712], 75 ; 0000004bH
  002a6	c7 84 24 3c 01
	00 00 00 00 00
	00		 mov	 DWORD PTR $T2[esp+716], OFFSET ??_C@_0BF@LAAKDKNI@icon?1action?1bani?4tga@
  002b1	c6 84 24 40 01
	00 00 4c	 mov	 BYTE PTR $T2[esp+720], 76 ; 0000004cH
; File C:\Program Files\Microsoft Visual Studio\2022\Community\VC\Tools\MSVC\14.44.35207\include\initializer_list

; 34   :         : _First(_First_arg), _Last(_Last_arg) {}

  002b9	8d 84 24 88 01
	00 00		 lea	 eax, DWORD PTR $T2[esp+792]
; File C:\Program Files\Microsoft Visual Studio\2022\Community\VC\Tools\MSVC\14.44.35207\include\utility

; 274  :         : first(_STD forward<_Other1>(_Val1)), second(_STD forward<_Other2>(_Val2)) {

  002c0	c7 84 24 44 01
	00 00 00 00 00
	00		 mov	 DWORD PTR $T2[esp+724], OFFSET ??_C@_0BK@ELOIPPLP@icon?1action?1bestmates?4tga@
; File C:\Program Files\Microsoft Visual Studio\2022\Community\VC\Tools\MSVC\14.44.35207\include\initializer_list

; 34   :         : _First(_First_arg), _Last(_Last_arg) {}

  002cb	8d 0c 24	 lea	 ecx, DWORD PTR $T2[esp+400]
; File C:\Program Files\Microsoft Visual Studio\2022\Community\VC\Tools\MSVC\14.44.35207\include\utility

; 274  :         : first(_STD forward<_Other1>(_Val1)), second(_STD forward<_Other2>(_Val2)) {

  002ce	c6 84 24 48 01
	00 00 4d	 mov	 BYTE PTR $T2[esp+728], 77 ; 0000004dH
; File C:\Anka2Project\Anka2Project\Source\Binary\source\UserInterface\PythonPlayerSettingsModule.h

; 566  : {

  002d6	50		 push	 eax
  002d7	51		 push	 ecx
  002d8	b9 00 00 00 00	 mov	 ecx, OFFSET ?emotionIcons@@3V?$map@EPBDU?$less@E@std@@V?$allocator@U?$pair@$$CBEPBD@std@@@2@@std@@B
; File C:\Program Files\Microsoft Visual Studio\2022\Community\VC\Tools\MSVC\14.44.35207\include\utility

; 274  :         : first(_STD forward<_Other1>(_Val1)), second(_STD forward<_Other2>(_Val2)) {

  002dd	c7 84 24 54 01
	00 00 00 00 00
	00		 mov	 DWORD PTR $T2[esp+740], OFFSET ??_C@_0BG@JKBEMEJO@icon?1action?1flair?4tga@
  002e8	c6 84 24 58 01
	00 00 4e	 mov	 BYTE PTR $T2[esp+744], 78 ; 0000004eH
  002f0	c7 84 24 5c 01
	00 00 00 00 00
	00		 mov	 DWORD PTR $T2[esp+748], OFFSET ??_C@_0BG@FIKAAJPK@icon?1action?1horon?4tga@
  002fb	c6 84 24 60 01
	00 00 4f	 mov	 BYTE PTR $T2[esp+752], 79 ; 0000004fH
  00303	c7 84 24 64 01
	00 00 00 00 00
	00		 mov	 DWORD PTR $T2[esp+756], OFFSET ??_C@_0BL@BLFBHANH@icon?1action?1robotdance?4tga@
  0030e	c6 84 24 68 01
	00 00 50	 mov	 BYTE PTR $T2[esp+760], 80 ; 00000050H
  00316	c7 84 24 6c 01
	00 00 00 00 00
	00		 mov	 DWORD PTR $T2[esp+764], OFFSET ??_C@_0BJ@BMIINBG@icon?1action?1snowball?4tga@
  00321	c6 84 24 70 01
	00 00 51	 mov	 BYTE PTR $T2[esp+768], 81 ; 00000051H
  00329	c7 84 24 74 01
	00 00 00 00 00
	00		 mov	 DWORD PTR $T2[esp+772], OFFSET ??_C@_0BL@MKJPKIAM@icon?1action?1surprised2?4tga@
  00334	c6 84 24 78 01
	00 00 33	 mov	 BYTE PTR $T2[esp+776], 51 ; 00000033H
  0033c	c7 84 24 7c 01
	00 00 00 00 00
	00		 mov	 DWORD PTR $T2[esp+780], OFFSET ??_C@_0CO@EAMJFIMN@d?3?1ymir?5work?1ui?1game?1windows?1em@
  00347	c6 84 24 80 01
	00 00 34	 mov	 BYTE PTR $T2[esp+784], 52 ; 00000034H
  0034f	c7 84 24 84 01
	00 00 00 00 00
	00		 mov	 DWORD PTR $T2[esp+788], OFFSET ??_C@_0DF@IGFOIPMD@d?3?1ymir?5work?1ui?1game?1windows?1em@
  0035a	c6 84 24 88 01
	00 00 35	 mov	 BYTE PTR $T2[esp+792], 53 ; 00000035H
  00362	c7 84 24 8c 01
	00 00 00 00 00
	00		 mov	 DWORD PTR $T2[esp+796], OFFSET ??_C@_0CO@GJOEEJIJ@d?3?1ymir?5work?1ui?1game?1windows?1em@
; File C:\Anka2Project\Anka2Project\Source\Binary\source\UserInterface\PythonPlayerSettingsModule.h

; 566  : {

  0036d	e8 00 00 00 00	 call	 ??0?$map@EPBDU?$less@E@std@@V?$allocator@U?$pair@$$CBEPBD@std@@@2@@std@@QAE@V?$initializer_list@U?$pair@$$CBEPBD@std@@@1@@Z ; std::map<unsigned char,char const *,std::less<unsigned char>,std::allocator<std::pair<unsigned char const ,char const *> > >::map<unsigned char,char const *,std::less<unsigned char>,std::allocator<std::pair<unsigned char const ,char const *> > >
  00372	68 00 00 00 00	 push	 OFFSET ??__FemotionIcons@@YAXXZ ; `dynamic atexit destructor for 'emotionIcons''
  00377	e8 00 00 00 00	 call	 _atexit
  0037c	8b 8c 24 90 01
	00 00		 mov	 ecx, DWORD PTR __$ArrayPad$[esp+404]
  00383	83 c4 04	 add	 esp, 4
  00386	33 cc		 xor	 ecx, esp
  00388	e8 00 00 00 00	 call	 @__security_check_cookie@4

; 565  : static const std::map<uint8_t, const char*> emotionIcons =

  0038d	8b e5		 mov	 esp, ebp
  0038f	5d		 pop	 ebp
  00390	c3		 ret	 0
??__EemotionIcons@@YAXXZ ENDP				; `dynamic initializer for 'emotionIcons''
text$di	ENDS
; Function compile flags: /Ogtp
;	COMDAT ??__FemotionIcons@@YAXXZ
text$yd	SEGMENT
??__FemotionIcons@@YAXXZ PROC				; `dynamic atexit destructor for 'emotionIcons'', COMDAT
  00000	b9 00 00 00 00	 mov	 ecx, OFFSET ?emotionIcons@@3V?$map@EPBDU?$less@E@std@@V?$allocator@U?$pair@$$CBEPBD@std@@@2@@std@@B
  00005	e9 00 00 00 00	 jmp	 ??1?$_Tree@V?$_Tmap_traits@EPBDU?$less@E@std@@V?$allocator@U?$pair@$$CBEPBD@std@@@2@$0A@@std@@@std@@QAE@XZ ; std::_Tree<std::_Tmap_traits<unsigned char,char const *,std::less<unsigned char>,std::allocator<std::pair<unsigned char const ,char const *> >,0> >::~_Tree<std::_Tmap_traits<unsigned char,char const *,std::less<unsigned char>,std::allocator<std::pair<unsigned char const ,char const *> >,0> >
??__FemotionIcons@@YAXXZ ENDP				; `dynamic atexit destructor for 'emotionIcons''
text$yd	ENDS
; Function compile flags: /Ogtp
; File C:\Anka2Project\Anka2Project\Source\Binary\source\UserInterface\PythonPlayerSettingsModule.h
; File C:\Program Files\Microsoft Visual Studio\2022\Community\VC\Tools\MSVC\14.44.35207\include\vector
; File C:\Anka2Project\Anka2Project\Source\Binary\source\UserInterface\PythonPlayerSettingsModule.h
; File C:\Program Files\Microsoft Visual Studio\2022\Community\VC\Tools\MSVC\14.44.35207\include\initializer_list
; File C:\Anka2Project\Anka2Project\Source\Binary\source\UserInterface\PythonPlayerSettingsModule.h
; File C:\Program Files\Microsoft Visual Studio\2022\Community\VC\Tools\MSVC\14.44.35207\include\initializer_list
; File C:\Anka2Project\Anka2Project\Source\Binary\source\UserInterface\PythonPlayerSettingsModule.h
; File C:\Program Files\Microsoft Visual Studio\2022\Community\VC\Tools\MSVC\14.44.35207\include\vector
; File C:\Anka2Project\Anka2Project\Source\Binary\source\UserInterface\PythonPlayerSettingsModule.h
; File C:\Program Files\Microsoft Visual Studio\2022\Community\VC\Tools\MSVC\14.44.35207\include\vector
; File C:\Program Files\Microsoft Visual Studio\2022\Community\VC\Tools\MSVC\14.44.35207\include\xmemory
; File C:\Program Files\Microsoft Visual Studio\2022\Community\VC\Tools\MSVC\14.44.35207\include\vector
; File C:\Program Files\Microsoft Visual Studio\2022\Community\VC\Tools\MSVC\14.44.35207\include\xmemory
; File C:\Program Files\Microsoft Visual Studio\2022\Community\VC\Tools\MSVC\14.44.35207\include\vector
; File C:\Anka2Project\Anka2Project\Source\Binary\source\UserInterface\PythonPlayerSettingsModule.h
; File C:\Program Files\Microsoft Visual Studio\2022\Community\VC\Tools\MSVC\14.44.35207\include\utility
; File C:\Program Files\Microsoft Visual Studio\2022\Community\VC\Tools\MSVC\14.44.35207\include\vector
; File C:\Program Files\Microsoft Visual Studio\2022\Community\VC\Tools\MSVC\14.44.35207\include\xmemory
; File C:\Program Files\Microsoft Visual Studio\2022\Community\VC\Tools\MSVC\14.44.35207\include\vector
; File C:\Program Files\Microsoft Visual Studio\2022\Community\VC\Tools\MSVC\14.44.35207\include\xmemory
; File C:\Program Files\Microsoft Visual Studio\2022\Community\VC\Tools\MSVC\14.44.35207\include\vector
; File C:\Program Files\Microsoft Visual Studio\2022\Community\VC\Tools\MSVC\14.44.35207\include\xmemory
; File C:\Program Files\Microsoft Visual Studio\2022\Community\VC\Tools\MSVC\14.44.35207\include\vector
; File C:\Anka2Project\Anka2Project\Source\Binary\source\UserInterface\PythonPlayerSettingsModule.h
; File C:\Program Files\Microsoft Visual Studio\2022\Community\VC\Tools\MSVC\14.44.35207\include\initializer_list
; File C:\Program Files\Microsoft Visual Studio\2022\Community\VC\Tools\MSVC\14.44.35207\include\vector
; File C:\Anka2Project\Anka2Project\Source\Binary\source\UserInterface\PythonPlayerSettingsModule.h
; File C:\Program Files\Microsoft Visual Studio\2022\Community\VC\Tools\MSVC\14.44.35207\include\initializer_list
; File C:\Anka2Project\Anka2Project\Source\Binary\source\UserInterface\PythonPlayerSettingsModule.h
; File C:\Program Files\Microsoft Visual Studio\2022\Community\VC\Tools\MSVC\14.44.35207\include\vector
; File C:\Anka2Project\Anka2Project\Source\Binary\source\UserInterface\PythonPlayerSettingsModule.h
; File C:\Program Files\Microsoft Visual Studio\2022\Community\VC\Tools\MSVC\14.44.35207\include\vector
; File C:\Program Files\Microsoft Visual Studio\2022\Community\VC\Tools\MSVC\14.44.35207\include\xmemory
; File C:\Program Files\Microsoft Visual Studio\2022\Community\VC\Tools\MSVC\14.44.35207\include\vector
; File C:\Program Files\Microsoft Visual Studio\2022\Community\VC\Tools\MSVC\14.44.35207\include\xmemory
; File C:\Program Files\Microsoft Visual Studio\2022\Community\VC\Tools\MSVC\14.44.35207\include\vector
; File C:\Anka2Project\Anka2Project\Source\Binary\source\UserInterface\PythonPlayerSettingsModule.h
; File C:\Program Files\Microsoft Visual Studio\2022\Community\VC\Tools\MSVC\14.44.35207\include\utility
; File C:\Program Files\Microsoft Visual Studio\2022\Community\VC\Tools\MSVC\14.44.35207\include\vector
; File C:\Program Files\Microsoft Visual Studio\2022\Community\VC\Tools\MSVC\14.44.35207\include\xmemory
; File C:\Program Files\Microsoft Visual Studio\2022\Community\VC\Tools\MSVC\14.44.35207\include\vector
; File C:\Program Files\Microsoft Visual Studio\2022\Community\VC\Tools\MSVC\14.44.35207\include\xmemory
; File C:\Program Files\Microsoft Visual Studio\2022\Community\VC\Tools\MSVC\14.44.35207\include\vector
; File C:\Program Files\Microsoft Visual Studio\2022\Community\VC\Tools\MSVC\14.44.35207\include\xmemory
; File C:\Program Files\Microsoft Visual Studio\2022\Community\VC\Tools\MSVC\14.44.35207\include\vector
; File C:\Program Files\Microsoft Visual Studio\2022\Community\VC\Tools\MSVC\14.44.35207\include\initializer_list
; File C:\Anka2Project\Anka2Project\Source\Binary\source\UserInterface\PythonPlayerSettingsModule.h
; File C:\Program Files\Microsoft Visual Studio\2022\Community\VC\Tools\MSVC\14.44.35207\include\initializer_list
; File C:\Anka2Project\Anka2Project\Source\Binary\source\UserInterface\PythonPlayerSettingsModule.h
; File C:\Program Files\Microsoft Visual Studio\2022\Community\VC\Tools\MSVC\14.44.35207\include\utility
; File C:\Anka2Project\Anka2Project\Source\Binary\source\UserInterface\PythonPlayerSettingsModule.h
; File C:\Program Files\Microsoft Visual Studio\2022\Community\VC\Tools\MSVC\14.44.35207\include\utility
; File C:\Anka2Project\Anka2Project\Source\Binary\source\UserInterface\PythonPlayerSettingsModule.h
; File C:\Program Files\Microsoft Visual Studio\2022\Community\VC\Tools\MSVC\14.44.35207\include\initializer_list
; File C:\Program Files\Microsoft Visual Studio\2022\Community\VC\Tools\MSVC\14.44.35207\include\vector
; File C:\Anka2Project\Anka2Project\Source\Binary\source\UserInterface\PythonPlayerSettingsModule.h
; File C:\Program Files\Microsoft Visual Studio\2022\Community\VC\Tools\MSVC\14.44.35207\include\initializer_list
; File C:\Anka2Project\Anka2Project\Source\Binary\source\UserInterface\PythonPlayerSettingsModule.h
; File C:\Program Files\Microsoft Visual Studio\2022\Community\VC\Tools\MSVC\14.44.35207\include\vector
; File C:\Anka2Project\Anka2Project\Source\Binary\source\UserInterface\PythonPlayerSettingsModule.h
; File C:\Program Files\Microsoft Visual Studio\2022\Community\VC\Tools\MSVC\14.44.35207\include\vector
; File C:\Program Files\Microsoft Visual Studio\2022\Community\VC\Tools\MSVC\14.44.35207\include\xmemory
; File C:\Program Files\Microsoft Visual Studio\2022\Community\VC\Tools\MSVC\14.44.35207\include\vector
; File C:\Program Files\Microsoft Visual Studio\2022\Community\VC\Tools\MSVC\14.44.35207\include\xmemory
; File C:\Program Files\Microsoft Visual Studio\2022\Community\VC\Tools\MSVC\14.44.35207\include\vector
; File C:\Anka2Project\Anka2Project\Source\Binary\source\UserInterface\PythonPlayerSettingsModule.h
; File C:\Program Files\Microsoft Visual Studio\2022\Community\VC\Tools\MSVC\14.44.35207\include\utility
; File C:\Program Files\Microsoft Visual Studio\2022\Community\VC\Tools\MSVC\14.44.35207\include\vector
; File C:\Program Files\Microsoft Visual Studio\2022\Community\VC\Tools\MSVC\14.44.35207\include\xmemory
; File C:\Program Files\Microsoft Visual Studio\2022\Community\VC\Tools\MSVC\14.44.35207\include\vector
; File C:\Program Files\Microsoft Visual Studio\2022\Community\VC\Tools\MSVC\14.44.35207\include\xmemory
; File C:\Program Files\Microsoft Visual Studio\2022\Community\VC\Tools\MSVC\14.44.35207\include\vector
; File C:\Program Files\Microsoft Visual Studio\2022\Community\VC\Tools\MSVC\14.44.35207\include\xmemory
; File C:\Program Files\Microsoft Visual Studio\2022\Community\VC\Tools\MSVC\14.44.35207\include\vector
; File C:\Anka2Project\Anka2Project\Source\Binary\source\UserInterface\PythonPlayerSettingsModule.h
; File C:\Program Files\Microsoft Visual Studio\2022\Community\VC\Tools\MSVC\14.44.35207\include\initializer_list
; File C:\Program Files\Microsoft Visual Studio\2022\Community\VC\Tools\MSVC\14.44.35207\include\vector
; File C:\Anka2Project\Anka2Project\Source\Binary\source\UserInterface\PythonPlayerSettingsModule.h
; File C:\Program Files\Microsoft Visual Studio\2022\Community\VC\Tools\MSVC\14.44.35207\include\initializer_list
; File C:\Anka2Project\Anka2Project\Source\Binary\source\UserInterface\PythonPlayerSettingsModule.h
; File C:\Program Files\Microsoft Visual Studio\2022\Community\VC\Tools\MSVC\14.44.35207\include\vector
; File C:\Anka2Project\Anka2Project\Source\Binary\source\UserInterface\PythonPlayerSettingsModule.h
; File C:\Program Files\Microsoft Visual Studio\2022\Community\VC\Tools\MSVC\14.44.35207\include\vector
; File C:\Program Files\Microsoft Visual Studio\2022\Community\VC\Tools\MSVC\14.44.35207\include\xmemory
; File C:\Program Files\Microsoft Visual Studio\2022\Community\VC\Tools\MSVC\14.44.35207\include\vector
; File C:\Program Files\Microsoft Visual Studio\2022\Community\VC\Tools\MSVC\14.44.35207\include\xmemory
; File C:\Program Files\Microsoft Visual Studio\2022\Community\VC\Tools\MSVC\14.44.35207\include\vector
; File C:\Anka2Project\Anka2Project\Source\Binary\source\UserInterface\PythonPlayerSettingsModule.h
; File C:\Program Files\Microsoft Visual Studio\2022\Community\VC\Tools\MSVC\14.44.35207\include\utility
; File C:\Program Files\Microsoft Visual Studio\2022\Community\VC\Tools\MSVC\14.44.35207\include\vector
; File C:\Program Files\Microsoft Visual Studio\2022\Community\VC\Tools\MSVC\14.44.35207\include\xmemory
; File C:\Program Files\Microsoft Visual Studio\2022\Community\VC\Tools\MSVC\14.44.35207\include\vector
; File C:\Program Files\Microsoft Visual Studio\2022\Community\VC\Tools\MSVC\14.44.35207\include\xmemory
; File C:\Program Files\Microsoft Visual Studio\2022\Community\VC\Tools\MSVC\14.44.35207\include\vector
; File C:\Program Files\Microsoft Visual Studio\2022\Community\VC\Tools\MSVC\14.44.35207\include\xmemory
; File C:\Program Files\Microsoft Visual Studio\2022\Community\VC\Tools\MSVC\14.44.35207\include\vector
; File C:\Program Files\Microsoft Visual Studio\2022\Community\VC\Tools\MSVC\14.44.35207\include\initializer_list
; File C:\Anka2Project\Anka2Project\Source\Binary\source\UserInterface\PythonPlayerSettingsModule.h
; File C:\Program Files\Microsoft Visual Studio\2022\Community\VC\Tools\MSVC\14.44.35207\include\initializer_list
; File C:\Anka2Project\Anka2Project\Source\Binary\source\UserInterface\PythonPlayerSettingsModule.h
; File C:\Program Files\Microsoft Visual Studio\2022\Community\VC\Tools\MSVC\14.44.35207\include\utility
; File C:\Anka2Project\Anka2Project\Source\Binary\source\UserInterface\PythonPlayerSettingsModule.h
; File C:\Program Files\Microsoft Visual Studio\2022\Community\VC\Tools\MSVC\14.44.35207\include\utility
; File C:\Anka2Project\Anka2Project\Source\Binary\source\UserInterface\PythonPlayerSettingsModule.h
; File C:\Program Files\Microsoft Visual Studio\2022\Community\VC\Tools\MSVC\14.44.35207\include\initializer_list
; File C:\Program Files\Microsoft Visual Studio\2022\Community\VC\Tools\MSVC\14.44.35207\include\vector
; File C:\Anka2Project\Anka2Project\Source\Binary\source\UserInterface\PythonPlayerSettingsModule.h
; File C:\Program Files\Microsoft Visual Studio\2022\Community\VC\Tools\MSVC\14.44.35207\include\initializer_list
; File C:\Anka2Project\Anka2Project\Source\Binary\source\UserInterface\PythonPlayerSettingsModule.h
; File C:\Program Files\Microsoft Visual Studio\2022\Community\VC\Tools\MSVC\14.44.35207\include\vector
; File C:\Anka2Project\Anka2Project\Source\Binary\source\UserInterface\PythonPlayerSettingsModule.h
; File C:\Program Files\Microsoft Visual Studio\2022\Community\VC\Tools\MSVC\14.44.35207\include\vector
; File C:\Program Files\Microsoft Visual Studio\2022\Community\VC\Tools\MSVC\14.44.35207\include\xmemory
; File C:\Program Files\Microsoft Visual Studio\2022\Community\VC\Tools\MSVC\14.44.35207\include\vector
; File C:\Program Files\Microsoft Visual Studio\2022\Community\VC\Tools\MSVC\14.44.35207\include\xmemory
; File C:\Program Files\Microsoft Visual Studio\2022\Community\VC\Tools\MSVC\14.44.35207\include\vector
; File C:\Anka2Project\Anka2Project\Source\Binary\source\UserInterface\PythonPlayerSettingsModule.h
; File C:\Program Files\Microsoft Visual Studio\2022\Community\VC\Tools\MSVC\14.44.35207\include\utility
; File C:\Program Files\Microsoft Visual Studio\2022\Community\VC\Tools\MSVC\14.44.35207\include\vector
; File C:\Program Files\Microsoft Visual Studio\2022\Community\VC\Tools\MSVC\14.44.35207\include\xmemory
; File C:\Program Files\Microsoft Visual Studio\2022\Community\VC\Tools\MSVC\14.44.35207\include\vector
; File C:\Program Files\Microsoft Visual Studio\2022\Community\VC\Tools\MSVC\14.44.35207\include\xmemory
; File C:\Program Files\Microsoft Visual Studio\2022\Community\VC\Tools\MSVC\14.44.35207\include\vector
; File C:\Program Files\Microsoft Visual Studio\2022\Community\VC\Tools\MSVC\14.44.35207\include\xmemory
; File C:\Program Files\Microsoft Visual Studio\2022\Community\VC\Tools\MSVC\14.44.35207\include\vector
; File C:\Anka2Project\Anka2Project\Source\Binary\source\UserInterface\PythonPlayerSettingsModule.h
; File C:\Program Files\Microsoft Visual Studio\2022\Community\VC\Tools\MSVC\14.44.35207\include\initializer_list
; File C:\Program Files\Microsoft Visual Studio\2022\Community\VC\Tools\MSVC\14.44.35207\include\vector
; File C:\Anka2Project\Anka2Project\Source\Binary\source\UserInterface\PythonPlayerSettingsModule.h
; File C:\Program Files\Microsoft Visual Studio\2022\Community\VC\Tools\MSVC\14.44.35207\include\initializer_list
; File C:\Anka2Project\Anka2Project\Source\Binary\source\UserInterface\PythonPlayerSettingsModule.h
; File C:\Program Files\Microsoft Visual Studio\2022\Community\VC\Tools\MSVC\14.44.35207\include\vector
; File C:\Anka2Project\Anka2Project\Source\Binary\source\UserInterface\PythonPlayerSettingsModule.h
; File C:\Program Files\Microsoft Visual Studio\2022\Community\VC\Tools\MSVC\14.44.35207\include\vector
; File C:\Program Files\Microsoft Visual Studio\2022\Community\VC\Tools\MSVC\14.44.35207\include\xmemory
; File C:\Program Files\Microsoft Visual Studio\2022\Community\VC\Tools\MSVC\14.44.35207\include\vector
; File C:\Program Files\Microsoft Visual Studio\2022\Community\VC\Tools\MSVC\14.44.35207\include\xmemory
; File C:\Program Files\Microsoft Visual Studio\2022\Community\VC\Tools\MSVC\14.44.35207\include\vector
; File C:\Anka2Project\Anka2Project\Source\Binary\source\UserInterface\PythonPlayerSettingsModule.h
; File C:\Program Files\Microsoft Visual Studio\2022\Community\VC\Tools\MSVC\14.44.35207\include\utility
; File C:\Program Files\Microsoft Visual Studio\2022\Community\VC\Tools\MSVC\14.44.35207\include\vector
; File C:\Program Files\Microsoft Visual Studio\2022\Community\VC\Tools\MSVC\14.44.35207\include\xmemory
; File C:\Program Files\Microsoft Visual Studio\2022\Community\VC\Tools\MSVC\14.44.35207\include\vector
; File C:\Program Files\Microsoft Visual Studio\2022\Community\VC\Tools\MSVC\14.44.35207\include\xmemory
; File C:\Program Files\Microsoft Visual Studio\2022\Community\VC\Tools\MSVC\14.44.35207\include\vector
; File C:\Program Files\Microsoft Visual Studio\2022\Community\VC\Tools\MSVC\14.44.35207\include\xmemory
; File C:\Program Files\Microsoft Visual Studio\2022\Community\VC\Tools\MSVC\14.44.35207\include\vector
; File C:\Program Files\Microsoft Visual Studio\2022\Community\VC\Tools\MSVC\14.44.35207\include\initializer_list
; File C:\Anka2Project\Anka2Project\Source\Binary\source\UserInterface\PythonPlayerSettingsModule.h
; File C:\Program Files\Microsoft Visual Studio\2022\Community\VC\Tools\MSVC\14.44.35207\include\initializer_list
; File C:\Anka2Project\Anka2Project\Source\Binary\source\UserInterface\PythonPlayerSettingsModule.h
; File C:\Program Files\Microsoft Visual Studio\2022\Community\VC\Tools\MSVC\14.44.35207\include\utility
; File C:\Anka2Project\Anka2Project\Source\Binary\source\UserInterface\PythonPlayerSettingsModule.h
; File C:\Program Files\Microsoft Visual Studio\2022\Community\VC\Tools\MSVC\14.44.35207\include\utility
; File C:\Anka2Project\Anka2Project\Source\Binary\source\UserInterface\PythonPlayerSettingsModule.h
; File C:\Program Files\Microsoft Visual Studio\2022\Community\VC\Tools\MSVC\14.44.35207\include\initializer_list
; File C:\Program Files\Microsoft Visual Studio\2022\Community\VC\Tools\MSVC\14.44.35207\include\vector
; File C:\Anka2Project\Anka2Project\Source\Binary\source\UserInterface\PythonPlayerSettingsModule.h
; File C:\Program Files\Microsoft Visual Studio\2022\Community\VC\Tools\MSVC\14.44.35207\include\initializer_list
; File C:\Anka2Project\Anka2Project\Source\Binary\source\UserInterface\PythonPlayerSettingsModule.h
; File C:\Program Files\Microsoft Visual Studio\2022\Community\VC\Tools\MSVC\14.44.35207\include\vector
; File C:\Anka2Project\Anka2Project\Source\Binary\source\UserInterface\PythonPlayerSettingsModule.h
; File C:\Program Files\Microsoft Visual Studio\2022\Community\VC\Tools\MSVC\14.44.35207\include\vector
; File C:\Program Files\Microsoft Visual Studio\2022\Community\VC\Tools\MSVC\14.44.35207\include\xmemory
; File C:\Program Files\Microsoft Visual Studio\2022\Community\VC\Tools\MSVC\14.44.35207\include\vector
; File C:\Program Files\Microsoft Visual Studio\2022\Community\VC\Tools\MSVC\14.44.35207\include\xmemory
; File C:\Program Files\Microsoft Visual Studio\2022\Community\VC\Tools\MSVC\14.44.35207\include\vector
; File C:\Anka2Project\Anka2Project\Source\Binary\source\UserInterface\PythonPlayerSettingsModule.h
; File C:\Program Files\Microsoft Visual Studio\2022\Community\VC\Tools\MSVC\14.44.35207\include\utility
; File C:\Program Files\Microsoft Visual Studio\2022\Community\VC\Tools\MSVC\14.44.35207\include\vector
; File C:\Program Files\Microsoft Visual Studio\2022\Community\VC\Tools\MSVC\14.44.35207\include\xmemory
; File C:\Program Files\Microsoft Visual Studio\2022\Community\VC\Tools\MSVC\14.44.35207\include\vector
; File C:\Program Files\Microsoft Visual Studio\2022\Community\VC\Tools\MSVC\14.44.35207\include\xmemory
; File C:\Program Files\Microsoft Visual Studio\2022\Community\VC\Tools\MSVC\14.44.35207\include\vector
; File C:\Program Files\Microsoft Visual Studio\2022\Community\VC\Tools\MSVC\14.44.35207\include\xmemory
; File C:\Program Files\Microsoft Visual Studio\2022\Community\VC\Tools\MSVC\14.44.35207\include\vector
; File C:\Anka2Project\Anka2Project\Source\Binary\source\UserInterface\PythonPlayerSettingsModule.h
; File C:\Program Files\Microsoft Visual Studio\2022\Community\VC\Tools\MSVC\14.44.35207\include\initializer_list
; File C:\Program Files\Microsoft Visual Studio\2022\Community\VC\Tools\MSVC\14.44.35207\include\vector
; File C:\Anka2Project\Anka2Project\Source\Binary\source\UserInterface\PythonPlayerSettingsModule.h
; File C:\Program Files\Microsoft Visual Studio\2022\Community\VC\Tools\MSVC\14.44.35207\include\initializer_list
; File C:\Anka2Project\Anka2Project\Source\Binary\source\UserInterface\PythonPlayerSettingsModule.h
; File C:\Program Files\Microsoft Visual Studio\2022\Community\VC\Tools\MSVC\14.44.35207\include\vector
; File C:\Anka2Project\Anka2Project\Source\Binary\source\UserInterface\PythonPlayerSettingsModule.h
; File C:\Program Files\Microsoft Visual Studio\2022\Community\VC\Tools\MSVC\14.44.35207\include\vector
; File C:\Program Files\Microsoft Visual Studio\2022\Community\VC\Tools\MSVC\14.44.35207\include\xmemory
; File C:\Program Files\Microsoft Visual Studio\2022\Community\VC\Tools\MSVC\14.44.35207\include\vector
; File C:\Program Files\Microsoft Visual Studio\2022\Community\VC\Tools\MSVC\14.44.35207\include\xmemory
; File C:\Program Files\Microsoft Visual Studio\2022\Community\VC\Tools\MSVC\14.44.35207\include\vector
; File C:\Anka2Project\Anka2Project\Source\Binary\source\UserInterface\PythonPlayerSettingsModule.h
; File C:\Program Files\Microsoft Visual Studio\2022\Community\VC\Tools\MSVC\14.44.35207\include\utility
; File C:\Program Files\Microsoft Visual Studio\2022\Community\VC\Tools\MSVC\14.44.35207\include\vector
; File C:\Program Files\Microsoft Visual Studio\2022\Community\VC\Tools\MSVC\14.44.35207\include\xmemory
; File C:\Program Files\Microsoft Visual Studio\2022\Community\VC\Tools\MSVC\14.44.35207\include\vector
; File C:\Program Files\Microsoft Visual Studio\2022\Community\VC\Tools\MSVC\14.44.35207\include\xmemory
; File C:\Program Files\Microsoft Visual Studio\2022\Community\VC\Tools\MSVC\14.44.35207\include\vector
; File C:\Program Files\Microsoft Visual Studio\2022\Community\VC\Tools\MSVC\14.44.35207\include\xmemory
; File C:\Program Files\Microsoft Visual Studio\2022\Community\VC\Tools\MSVC\14.44.35207\include\vector
; File C:\Program Files\Microsoft Visual Studio\2022\Community\VC\Tools\MSVC\14.44.35207\include\initializer_list
; File C:\Anka2Project\Anka2Project\Source\Binary\source\UserInterface\PythonPlayerSettingsModule.h
; File C:\Program Files\Microsoft Visual Studio\2022\Community\VC\Tools\MSVC\14.44.35207\include\initializer_list
; File C:\Anka2Project\Anka2Project\Source\Binary\source\UserInterface\PythonPlayerSettingsModule.h
; File C:\Program Files\Microsoft Visual Studio\2022\Community\VC\Tools\MSVC\14.44.35207\include\utility
; File C:\Anka2Project\Anka2Project\Source\Binary\source\UserInterface\PythonPlayerSettingsModule.h
; File C:\Program Files\Microsoft Visual Studio\2022\Community\VC\Tools\MSVC\14.44.35207\include\utility
; File C:\Program Files\Microsoft Visual Studio\2022\Community\VC\Tools\MSVC\14.44.35207\include\initializer_list
; File C:\Anka2Project\Anka2Project\Source\Binary\source\UserInterface\PythonPlayerSettingsModule.h
; File C:\Program Files\Microsoft Visual Studio\2022\Community\VC\Tools\MSVC\14.44.35207\include\initializer_list
; File C:\Anka2Project\Anka2Project\Source\Binary\source\UserInterface\PythonPlayerSettingsModule.h
; File C:\Program Files\Microsoft Visual Studio\2022\Community\VC\Tools\MSVC\14.44.35207\include\xtree
; File C:\Program Files\Microsoft Visual Studio\2022\Community\VC\Tools\MSVC\14.44.35207\include\xmemory
; File C:\Anka2Project\Anka2Project\Source\Binary\source\UserInterface\PythonPlayerSettingsModule.h
; File C:\Program Files\Microsoft Visual Studio\2022\Community\VC\Tools\MSVC\14.44.35207\include\vector
; File C:\Program Files\Microsoft Visual Studio\2022\Community\VC\Tools\MSVC\14.44.35207\include\xmemory
; File C:\Program Files\Microsoft Visual Studio\2022\Community\VC\Tools\MSVC\14.44.35207\include\vector
; File C:\Program Files\Microsoft Visual Studio\2022\Community\VC\Tools\MSVC\14.44.35207\include\xmemory
; File C:\Program Files\Microsoft Visual Studio\2022\Community\VC\Tools\MSVC\14.44.35207\include\vector
; File C:\Anka2Project\Anka2Project\Source\Binary\source\UserInterface\PythonPlayerSettingsModule.h
; File C:\Program Files\Microsoft Visual Studio\2022\Community\VC\Tools\MSVC\14.44.35207\include\vector
; File C:\Program Files\Microsoft Visual Studio\2022\Community\VC\Tools\MSVC\14.44.35207\include\xmemory
; File C:\Program Files\Microsoft Visual Studio\2022\Community\VC\Tools\MSVC\14.44.35207\include\vector
; File C:\Program Files\Microsoft Visual Studio\2022\Community\VC\Tools\MSVC\14.44.35207\include\xmemory
; File C:\Program Files\Microsoft Visual Studio\2022\Community\VC\Tools\MSVC\14.44.35207\include\vector
; File C:\Program Files\Microsoft Visual Studio\2022\Community\VC\Tools\MSVC\14.44.35207\include\xtree
; File C:\Program Files\Microsoft Visual Studio\2022\Community\VC\Tools\MSVC\14.44.35207\include\xmemory
; File C:\Anka2Project\Anka2Project\Source\Binary\source\UserInterface\PythonPlayerSettingsModule.h
; File C:\Program Files\Microsoft Visual Studio\2022\Community\VC\Tools\MSVC\14.44.35207\include\vector
; File C:\Program Files\Microsoft Visual Studio\2022\Community\VC\Tools\MSVC\14.44.35207\include\xmemory
; File C:\Program Files\Microsoft Visual Studio\2022\Community\VC\Tools\MSVC\14.44.35207\include\vector
; File C:\Program Files\Microsoft Visual Studio\2022\Community\VC\Tools\MSVC\14.44.35207\include\xmemory
; File C:\Program Files\Microsoft Visual Studio\2022\Community\VC\Tools\MSVC\14.44.35207\include\vector
; File C:\Anka2Project\Anka2Project\Source\Binary\source\UserInterface\PythonPlayerSettingsModule.h
; File C:\Program Files\Microsoft Visual Studio\2022\Community\VC\Tools\MSVC\14.44.35207\include\vector
; File C:\Program Files\Microsoft Visual Studio\2022\Community\VC\Tools\MSVC\14.44.35207\include\xmemory
; File C:\Program Files\Microsoft Visual Studio\2022\Community\VC\Tools\MSVC\14.44.35207\include\vector
; File C:\Program Files\Microsoft Visual Studio\2022\Community\VC\Tools\MSVC\14.44.35207\include\xmemory
; File C:\Program Files\Microsoft Visual Studio\2022\Community\VC\Tools\MSVC\14.44.35207\include\vector
; File C:\Program Files\Microsoft Visual Studio\2022\Community\VC\Tools\MSVC\14.44.35207\include\xtree
; File C:\Program Files\Microsoft Visual Studio\2022\Community\VC\Tools\MSVC\14.44.35207\include\xmemory
; File C:\Anka2Project\Anka2Project\Source\Binary\source\UserInterface\PythonPlayerSettingsModule.h
; File C:\Program Files\Microsoft Visual Studio\2022\Community\VC\Tools\MSVC\14.44.35207\include\vector
; File C:\Program Files\Microsoft Visual Studio\2022\Community\VC\Tools\MSVC\14.44.35207\include\xmemory
; File C:\Program Files\Microsoft Visual Studio\2022\Community\VC\Tools\MSVC\14.44.35207\include\vector
; File C:\Program Files\Microsoft Visual Studio\2022\Community\VC\Tools\MSVC\14.44.35207\include\xmemory
; File C:\Program Files\Microsoft Visual Studio\2022\Community\VC\Tools\MSVC\14.44.35207\include\vector
; File C:\Anka2Project\Anka2Project\Source\Binary\source\UserInterface\PythonPlayerSettingsModule.h
; File C:\Program Files\Microsoft Visual Studio\2022\Community\VC\Tools\MSVC\14.44.35207\include\vector
; File C:\Program Files\Microsoft Visual Studio\2022\Community\VC\Tools\MSVC\14.44.35207\include\xmemory
; File C:\Program Files\Microsoft Visual Studio\2022\Community\VC\Tools\MSVC\14.44.35207\include\vector
; File C:\Program Files\Microsoft Visual Studio\2022\Community\VC\Tools\MSVC\14.44.35207\include\xmemory
; File C:\Program Files\Microsoft Visual Studio\2022\Community\VC\Tools\MSVC\14.44.35207\include\vector
; File C:\Program Files\Microsoft Visual Studio\2022\Community\VC\Tools\MSVC\14.44.35207\include\xtree
; File C:\Program Files\Microsoft Visual Studio\2022\Community\VC\Tools\MSVC\14.44.35207\include\xmemory
; File C:\Anka2Project\Anka2Project\Source\Binary\source\UserInterface\PythonPlayerSettingsModule.h
; File C:\Program Files\Microsoft Visual Studio\2022\Community\VC\Tools\MSVC\14.44.35207\include\vector
; File C:\Program Files\Microsoft Visual Studio\2022\Community\VC\Tools\MSVC\14.44.35207\include\xmemory
; File C:\Program Files\Microsoft Visual Studio\2022\Community\VC\Tools\MSVC\14.44.35207\include\vector
; File C:\Program Files\Microsoft Visual Studio\2022\Community\VC\Tools\MSVC\14.44.35207\include\xmemory
; File C:\Program Files\Microsoft Visual Studio\2022\Community\VC\Tools\MSVC\14.44.35207\include\vector
; File C:\Program Files\Microsoft Visual Studio\2022\Community\VC\Tools\MSVC\14.44.35207\include\xmemory
; File C:\Program Files\Microsoft Visual Studio\2022\Community\VC\Tools\MSVC\14.44.35207\include\vector
; File C:\Program Files\Microsoft Visual Studio\2022\Community\VC\Tools\MSVC\14.44.35207\include\xmemory
; File C:\Anka2Project\Anka2Project\Source\Binary\source\UserInterface\PythonPlayerSettingsModule.h
; File C:\Program Files\Microsoft Visual Studio\2022\Community\VC\Tools\MSVC\14.44.35207\include\xmemory
; File C:\Anka2Project\Anka2Project\Source\Binary\source\UserInterface\PythonPlayerSettingsModule.h
;	COMDAT ??__EskillIndexes@@YAXXZ
text$di	SEGMENT
$T17 = -452						; size = 32
$T74 = -420						; size = 32
$T130 = -388						; size = 32
$T186 = -356						; size = 32
$T55 = -324						; size = 8
$T112 = -316						; size = 8
$T168 = -308						; size = 8
$T224 = -300						; size = 8
$T8 = -292						; size = 12
$T34 = -280						; size = 12
$T65 = -268						; size = 12
$T91 = -256						; size = 12
$T121 = -244						; size = 12
$T147 = -232						; size = 12
$T177 = -220						; size = 12
$T203 = -208						; size = 12
__Dest$1$ = -196					; size = 4
__Dest$1$ = -196					; size = 4
__Dest$1$ = -196					; size = 4
__Dest$1$ = -196					; size = 4
__Dest$1$ = -196					; size = 4
__Dest$1$ = -196					; size = 4
__Dest$1$ = -196					; size = 4
__Dest$1$ = -196					; size = 4
$T56 = -192						; size = 48
$T87 = -144						; size = 15
$T61 = -128						; size = 15
$T199 = -112						; size = 14
$T173 = -96						; size = 14
$T143 = -80						; size = 14
$T117 = -64						; size = 14
$T30 = -48						; size = 14
$T4 = -32						; size = 14
__$ArrayPad$ = -16					; size = 4
__$EHRec$ = -12						; size = 12
??__EskillIndexes@@YAXXZ PROC				; `dynamic initializer for 'skillIndexes'', COMDAT

; 635  : };

  00000	55		 push	 ebp
  00001	8b ec		 mov	 ebp, esp
  00003	6a ff		 push	 -1
  00005	68 00 00 00 00	 push	 __ehhandler$??__EskillIndexes@@YAXXZ
  0000a	64 a1 00 00 00
	00		 mov	 eax, DWORD PTR fs:0
  00010	50		 push	 eax
  00011	81 ec b8 01 00
	00		 sub	 esp, 440		; 000001b8H
  00017	a1 00 00 00 00	 mov	 eax, DWORD PTR ___security_cookie
  0001c	33 c5		 xor	 eax, ebp
  0001e	89 45 f0	 mov	 DWORD PTR __$ArrayPad$[ebp], eax
  00021	56		 push	 esi
  00022	57		 push	 edi
  00023	50		 push	 eax
  00024	8d 45 f4	 lea	 eax, DWORD PTR __$EHRec$[ebp]
  00027	64 a3 00 00 00
	00		 mov	 DWORD PTR fs:0, eax
; File C:\Program Files\Microsoft Visual Studio\2022\Community\VC\Tools\MSVC\14.44.35207\include\vector

; 400  :     _CONSTEXPR20 _Vector_val() noexcept : _Myfirst(), _Mylast(), _Myend() {}

  0002d	33 c0		 xor	 eax, eax
; File C:\Anka2Project\Anka2Project\Source\Binary\source\UserInterface\PythonPlayerSettingsModule.h

; 618  : static const std::map<uint8_t, std::map<uint8_t, std::vector<uint8_t>>> skillIndexes{

  0002f	c7 45 e0 01 02
	03 04		 mov	 DWORD PTR $T4[ebp], 67305985 ; 04030201H
; File C:\Program Files\Microsoft Visual Studio\2022\Community\VC\Tools\MSVC\14.44.35207\include\initializer_list

; 34   :         : _First(_First_arg), _Last(_Last_arg) {}

  00036	8d 55 e0	 lea	 edx, DWORD PTR $T4[ebp]
; File C:\Anka2Project\Anka2Project\Source\Binary\source\UserInterface\PythonPlayerSettingsModule.h

; 618  : static const std::map<uint8_t, std::map<uint8_t, std::vector<uint8_t>>> skillIndexes{

  00039	c7 45 e4 05 00
	00 00		 mov	 DWORD PTR $T4[ebp+4], 5
; File C:\Program Files\Microsoft Visual Studio\2022\Community\VC\Tools\MSVC\14.44.35207\include\initializer_list

; 34   :         : _First(_First_arg), _Last(_Last_arg) {}

  00040	8d 7d ee	 lea	 edi, DWORD PTR $T4[ebp+14]
; File C:\Anka2Project\Anka2Project\Source\Binary\source\UserInterface\PythonPlayerSettingsModule.h

; 618  : static const std::map<uint8_t, std::map<uint8_t, std::vector<uint8_t>>> skillIndexes{

  00043	c7 45 e8 89 00
	8a 00		 mov	 DWORD PTR $T4[ebp+8], 9044105 ; 008a0089H
; File C:\Program Files\Microsoft Visual Studio\2022\Community\VC\Tools\MSVC\14.44.35207\include\vector

; 400  :     _CONSTEXPR20 _Vector_val() noexcept : _Myfirst(), _Mylast(), _Myend() {}

  0004a	33 c9		 xor	 ecx, ecx
; File C:\Anka2Project\Anka2Project\Source\Binary\source\UserInterface\PythonPlayerSettingsModule.h

; 618  : static const std::map<uint8_t, std::map<uint8_t, std::vector<uint8_t>>> skillIndexes{

  0004c	66 c7 45 ec 8b
	00		 mov	 WORD PTR $T4[ebp+12], 139 ; 0000008bH
; File C:\Program Files\Microsoft Visual Studio\2022\Community\VC\Tools\MSVC\14.44.35207\include\vector

; 400  :     _CONSTEXPR20 _Vector_val() noexcept : _Myfirst(), _Mylast(), _Myend() {}

  00052	89 8d dc fe ff
	ff		 mov	 DWORD PTR $T8[ebp], ecx
  00058	89 85 e0 fe ff
	ff		 mov	 DWORD PTR $T8[ebp+4], eax
  0005e	89 85 e4 fe ff
	ff		 mov	 DWORD PTR $T8[ebp+8], eax

; 721  :         _Construct_n(_Convert_size<size_type>(_Ilist.size()), _Ilist.begin(), _Ilist.end());

  00064	2b fa		 sub	 edi, edx

; 2111 :         if (_Count != 0) {

  00066	74 32		 je	 SHORT $LN63@dynamic

; 2112 :             _Buy_nonzero(_Count);

  00068	57		 push	 edi
  00069	8d 8d dc fe ff
	ff		 lea	 ecx, DWORD PTR $T8[ebp]
  0006f	e8 00 00 00 00	 call	 ?_Buy_nonzero@?$vector@EV?$allocator@E@std@@@std@@AAEXI@Z ; std::vector<unsigned char,std::allocator<unsigned char> >::_Buy_nonzero

; 2120 :                 _My_data._Mylast = _STD _Uninitialized_copy(_STD forward<_Valty>(_Val)..., _My_data._Myfirst, _Al);

  00074	8b b5 dc fe ff
	ff		 mov	 esi, DWORD PTR $T8[ebp]
; File C:\Program Files\Microsoft Visual Studio\2022\Community\VC\Tools\MSVC\14.44.35207\include\xmemory

; 1889 :                 _STD _Copy_memmove(_STD _To_address(_UFirst), _STD _To_address(_ULast), _STD _Unfancy(_Dest));

  0007a	8d 45 ee	 lea	 eax, DWORD PTR $T4[ebp+14]
  0007d	56		 push	 esi
  0007e	50		 push	 eax
  0007f	8d 45 e0	 lea	 eax, DWORD PTR $T4[ebp]
  00082	50		 push	 eax
  00083	e8 00 00 00 00	 call	 ??$_Copy_memmove@PBEPAE@std@@YAPAEPBE0PAE@Z ; std::_Copy_memmove<unsigned char const *,unsigned char *>
; File C:\Program Files\Microsoft Visual Studio\2022\Community\VC\Tools\MSVC\14.44.35207\include\vector

; 2120 :                 _My_data._Mylast = _STD _Uninitialized_copy(_STD forward<_Valty>(_Val)..., _My_data._Myfirst, _Al);

  00088	8b 8d dc fe ff
	ff		 mov	 ecx, DWORD PTR $T8[ebp]
; File C:\Program Files\Microsoft Visual Studio\2022\Community\VC\Tools\MSVC\14.44.35207\include\xmemory

; 1890 :                 _Dest += _ULast - _UFirst;

  0008e	8d 04 37	 lea	 eax, DWORD PTR [edi+esi]
  00091	83 c4 0c	 add	 esp, 12			; 0000000cH
; File C:\Program Files\Microsoft Visual Studio\2022\Community\VC\Tools\MSVC\14.44.35207\include\vector

; 2120 :                 _My_data._Mylast = _STD _Uninitialized_copy(_STD forward<_Valty>(_Val)..., _My_data._Myfirst, _Al);

  00094	89 85 e0 fe ff
	ff		 mov	 DWORD PTR $T8[ebp+4], eax
$LN63@dynamic:
; File C:\Anka2Project\Anka2Project\Source\Binary\source\UserInterface\PythonPlayerSettingsModule.h

; 618  : static const std::map<uint8_t, std::map<uint8_t, std::vector<uint8_t>>> skillIndexes{

  0009a	c7 45 fc 00 00
	00 00		 mov	 DWORD PTR __$EHRec$[ebp+8], 0
; File C:\Program Files\Microsoft Visual Studio\2022\Community\VC\Tools\MSVC\14.44.35207\include\utility

; 263  :         : first(_Val1), second(_Val2) {}

  000a1	c6 85 3c fe ff
	ff 01		 mov	 BYTE PTR $T17[ebp], 1
; File C:\Program Files\Microsoft Visual Studio\2022\Community\VC\Tools\MSVC\14.44.35207\include\vector

; 400  :     _CONSTEXPR20 _Vector_val() noexcept : _Myfirst(), _Mylast(), _Myend() {}

  000a8	c7 85 40 fe ff
	ff 00 00 00 00	 mov	 DWORD PTR $T17[ebp+4], 0
  000b2	c7 85 44 fe ff
	ff 00 00 00 00	 mov	 DWORD PTR $T17[ebp+8], 0
  000bc	c7 85 48 fe ff
	ff 00 00 00 00	 mov	 DWORD PTR $T17[ebp+12], 0

; 748  :         const auto _Count       = static_cast<size_type>(_Right_data._Mylast - _Right_data._Myfirst);

  000c6	2b c1		 sub	 eax, ecx

; 2111 :         if (_Count != 0) {

  000c8	74 3d		 je	 SHORT $LN94@dynamic

; 2112 :             _Buy_nonzero(_Count);

  000ca	50		 push	 eax
  000cb	8d 8d 40 fe ff
	ff		 lea	 ecx, DWORD PTR $T17[ebp+4]
  000d1	e8 00 00 00 00	 call	 ?_Buy_nonzero@?$vector@EV?$allocator@E@std@@@std@@AAEXI@Z ; std::vector<unsigned char,std::allocator<unsigned char> >::_Buy_nonzero

; 2120 :                 _My_data._Mylast = _STD _Uninitialized_copy(_STD forward<_Valty>(_Val)..., _My_data._Myfirst, _Al);

  000d6	8b 85 40 fe ff
	ff		 mov	 eax, DWORD PTR $T17[ebp+4]
; File C:\Program Files\Microsoft Visual Studio\2022\Community\VC\Tools\MSVC\14.44.35207\include\xmemory

; 1872 :     auto _ULast  = _RANGES _Unwrap_sent<_InIt>(_STD move(_Last));

  000dc	8b bd e0 fe ff
	ff		 mov	 edi, DWORD PTR $T8[ebp+4]
  000e2	8b b5 dc fe ff
	ff		 mov	 esi, DWORD PTR $T8[ebp]

; 1889 :                 _STD _Copy_memmove(_STD _To_address(_UFirst), _STD _To_address(_ULast), _STD _Unfancy(_Dest));

  000e8	50		 push	 eax
  000e9	57		 push	 edi
  000ea	56		 push	 esi
; File C:\Program Files\Microsoft Visual Studio\2022\Community\VC\Tools\MSVC\14.44.35207\include\vector

; 2120 :                 _My_data._Mylast = _STD _Uninitialized_copy(_STD forward<_Valty>(_Val)..., _My_data._Myfirst, _Al);

  000eb	89 85 3c ff ff
	ff		 mov	 DWORD PTR __Dest$1$[ebp], eax
; File C:\Program Files\Microsoft Visual Studio\2022\Community\VC\Tools\MSVC\14.44.35207\include\xmemory

; 1889 :                 _STD _Copy_memmove(_STD _To_address(_UFirst), _STD _To_address(_ULast), _STD _Unfancy(_Dest));

  000f1	e8 00 00 00 00	 call	 ??$_Copy_memmove@PAEPAE@std@@YAPAEPAE00@Z ; std::_Copy_memmove<unsigned char *,unsigned char *>
; File C:\Program Files\Microsoft Visual Studio\2022\Community\VC\Tools\MSVC\14.44.35207\include\vector

; 2120 :                 _My_data._Mylast = _STD _Uninitialized_copy(_STD forward<_Valty>(_Val)..., _My_data._Myfirst, _Al);

  000f6	2b fe		 sub	 edi, esi
; File C:\Program Files\Microsoft Visual Studio\2022\Community\VC\Tools\MSVC\14.44.35207\include\xmemory

; 1889 :                 _STD _Copy_memmove(_STD _To_address(_UFirst), _STD _To_address(_ULast), _STD _Unfancy(_Dest));

  000f8	83 c4 0c	 add	 esp, 12			; 0000000cH

; 1890 :                 _Dest += _ULast - _UFirst;

  000fb	03 bd 3c ff ff
	ff		 add	 edi, DWORD PTR __Dest$1$[ebp]
; File C:\Program Files\Microsoft Visual Studio\2022\Community\VC\Tools\MSVC\14.44.35207\include\vector

; 2120 :                 _My_data._Mylast = _STD _Uninitialized_copy(_STD forward<_Valty>(_Val)..., _My_data._Myfirst, _Al);

  00101	89 bd 44 fe ff
	ff		 mov	 DWORD PTR $T17[ebp+8], edi
$LN94@dynamic:
; File C:\Anka2Project\Anka2Project\Source\Binary\source\UserInterface\PythonPlayerSettingsModule.h

; 618  : static const std::map<uint8_t, std::map<uint8_t, std::vector<uint8_t>>> skillIndexes{

  00107	c6 45 fc 01	 mov	 BYTE PTR __$EHRec$[ebp+8], 1
; File C:\Program Files\Microsoft Visual Studio\2022\Community\VC\Tools\MSVC\14.44.35207\include\initializer_list

; 34   :         : _First(_First_arg), _Last(_Last_arg) {}

  0010b	8d 55 d0	 lea	 edx, DWORD PTR $T30[ebp]
; File C:\Program Files\Microsoft Visual Studio\2022\Community\VC\Tools\MSVC\14.44.35207\include\vector

; 400  :     _CONSTEXPR20 _Vector_val() noexcept : _Myfirst(), _Mylast(), _Myend() {}

  0010e	33 c0		 xor	 eax, eax
; File C:\Anka2Project\Anka2Project\Source\Binary\source\UserInterface\PythonPlayerSettingsModule.h

; 618  : static const std::map<uint8_t, std::map<uint8_t, std::vector<uint8_t>>> skillIndexes{

  00110	c7 45 d0 10 11
	12 13		 mov	 DWORD PTR $T30[ebp], 319951120 ; 13121110H
; File C:\Program Files\Microsoft Visual Studio\2022\Community\VC\Tools\MSVC\14.44.35207\include\initializer_list

; 34   :         : _First(_First_arg), _Last(_Last_arg) {}

  00117	8d 7d de	 lea	 edi, DWORD PTR $T30[ebp+14]
; File C:\Anka2Project\Anka2Project\Source\Binary\source\UserInterface\PythonPlayerSettingsModule.h

; 618  : static const std::map<uint8_t, std::map<uint8_t, std::vector<uint8_t>>> skillIndexes{

  0011a	c7 45 d4 14 00
	00 00		 mov	 DWORD PTR $T30[ebp+4], 20 ; 00000014H
; File C:\Program Files\Microsoft Visual Studio\2022\Community\VC\Tools\MSVC\14.44.35207\include\vector

; 400  :     _CONSTEXPR20 _Vector_val() noexcept : _Myfirst(), _Mylast(), _Myend() {}

  00121	33 c9		 xor	 ecx, ecx
; File C:\Anka2Project\Anka2Project\Source\Binary\source\UserInterface\PythonPlayerSettingsModule.h

; 618  : static const std::map<uint8_t, std::map<uint8_t, std::vector<uint8_t>>> skillIndexes{

  00123	c7 45 d8 89 00
	8a 00		 mov	 DWORD PTR $T30[ebp+8], 9044105 ; 008a0089H
  0012a	66 c7 45 dc 8b
	00		 mov	 WORD PTR $T30[ebp+12], 139 ; 0000008bH
; File C:\Program Files\Microsoft Visual Studio\2022\Community\VC\Tools\MSVC\14.44.35207\include\vector

; 400  :     _CONSTEXPR20 _Vector_val() noexcept : _Myfirst(), _Mylast(), _Myend() {}

  00130	89 8d e8 fe ff
	ff		 mov	 DWORD PTR $T34[ebp], ecx
  00136	89 85 ec fe ff
	ff		 mov	 DWORD PTR $T34[ebp+4], eax
  0013c	89 85 f0 fe ff
	ff		 mov	 DWORD PTR $T34[ebp+8], eax

; 721  :         _Construct_n(_Convert_size<size_type>(_Ilist.size()), _Ilist.begin(), _Ilist.end());

  00142	2b fa		 sub	 edi, edx

; 2111 :         if (_Count != 0) {

  00144	74 32		 je	 SHORT $LN128@dynamic

; 2112 :             _Buy_nonzero(_Count);

  00146	57		 push	 edi
  00147	8d 8d e8 fe ff
	ff		 lea	 ecx, DWORD PTR $T34[ebp]
  0014d	e8 00 00 00 00	 call	 ?_Buy_nonzero@?$vector@EV?$allocator@E@std@@@std@@AAEXI@Z ; std::vector<unsigned char,std::allocator<unsigned char> >::_Buy_nonzero

; 2120 :                 _My_data._Mylast = _STD _Uninitialized_copy(_STD forward<_Valty>(_Val)..., _My_data._Myfirst, _Al);

  00152	8b b5 e8 fe ff
	ff		 mov	 esi, DWORD PTR $T34[ebp]
; File C:\Program Files\Microsoft Visual Studio\2022\Community\VC\Tools\MSVC\14.44.35207\include\xmemory

; 1889 :                 _STD _Copy_memmove(_STD _To_address(_UFirst), _STD _To_address(_ULast), _STD _Unfancy(_Dest));

  00158	8d 45 de	 lea	 eax, DWORD PTR $T30[ebp+14]
  0015b	56		 push	 esi
  0015c	50		 push	 eax
  0015d	8d 45 d0	 lea	 eax, DWORD PTR $T30[ebp]
  00160	50		 push	 eax
  00161	e8 00 00 00 00	 call	 ??$_Copy_memmove@PBEPAE@std@@YAPAEPBE0PAE@Z ; std::_Copy_memmove<unsigned char const *,unsigned char *>
; File C:\Program Files\Microsoft Visual Studio\2022\Community\VC\Tools\MSVC\14.44.35207\include\vector

; 2120 :                 _My_data._Mylast = _STD _Uninitialized_copy(_STD forward<_Valty>(_Val)..., _My_data._Myfirst, _Al);

  00166	8b 8d e8 fe ff
	ff		 mov	 ecx, DWORD PTR $T34[ebp]
; File C:\Program Files\Microsoft Visual Studio\2022\Community\VC\Tools\MSVC\14.44.35207\include\xmemory

; 1890 :                 _Dest += _ULast - _UFirst;

  0016c	8d 04 37	 lea	 eax, DWORD PTR [edi+esi]
  0016f	83 c4 0c	 add	 esp, 12			; 0000000cH
; File C:\Program Files\Microsoft Visual Studio\2022\Community\VC\Tools\MSVC\14.44.35207\include\vector

; 2120 :                 _My_data._Mylast = _STD _Uninitialized_copy(_STD forward<_Valty>(_Val)..., _My_data._Myfirst, _Al);

  00172	89 85 ec fe ff
	ff		 mov	 DWORD PTR $T34[ebp+4], eax
$LN128@dynamic:
; File C:\Anka2Project\Anka2Project\Source\Binary\source\UserInterface\PythonPlayerSettingsModule.h

; 618  : static const std::map<uint8_t, std::map<uint8_t, std::vector<uint8_t>>> skillIndexes{

  00178	c6 45 fc 02	 mov	 BYTE PTR __$EHRec$[ebp+8], 2
; File C:\Program Files\Microsoft Visual Studio\2022\Community\VC\Tools\MSVC\14.44.35207\include\utility

; 263  :         : first(_Val1), second(_Val2) {}

  0017c	c6 85 4c fe ff
	ff 02		 mov	 BYTE PTR $T17[ebp+16], 2
; File C:\Program Files\Microsoft Visual Studio\2022\Community\VC\Tools\MSVC\14.44.35207\include\vector

; 400  :     _CONSTEXPR20 _Vector_val() noexcept : _Myfirst(), _Mylast(), _Myend() {}

  00183	c7 85 50 fe ff
	ff 00 00 00 00	 mov	 DWORD PTR $T17[ebp+20], 0
  0018d	c7 85 54 fe ff
	ff 00 00 00 00	 mov	 DWORD PTR $T17[ebp+24], 0
  00197	c7 85 58 fe ff
	ff 00 00 00 00	 mov	 DWORD PTR $T17[ebp+28], 0

; 748  :         const auto _Count       = static_cast<size_type>(_Right_data._Mylast - _Right_data._Myfirst);

  001a1	2b c1		 sub	 eax, ecx

; 2111 :         if (_Count != 0) {

  001a3	74 3d		 je	 SHORT $LN159@dynamic

; 2112 :             _Buy_nonzero(_Count);

  001a5	50		 push	 eax
  001a6	8d 8d 50 fe ff
	ff		 lea	 ecx, DWORD PTR $T17[ebp+20]
  001ac	e8 00 00 00 00	 call	 ?_Buy_nonzero@?$vector@EV?$allocator@E@std@@@std@@AAEXI@Z ; std::vector<unsigned char,std::allocator<unsigned char> >::_Buy_nonzero

; 2120 :                 _My_data._Mylast = _STD _Uninitialized_copy(_STD forward<_Valty>(_Val)..., _My_data._Myfirst, _Al);

  001b1	8b 85 50 fe ff
	ff		 mov	 eax, DWORD PTR $T17[ebp+20]
; File C:\Program Files\Microsoft Visual Studio\2022\Community\VC\Tools\MSVC\14.44.35207\include\xmemory

; 1872 :     auto _ULast  = _RANGES _Unwrap_sent<_InIt>(_STD move(_Last));

  001b7	8b bd ec fe ff
	ff		 mov	 edi, DWORD PTR $T34[ebp+4]
  001bd	8b b5 e8 fe ff
	ff		 mov	 esi, DWORD PTR $T34[ebp]

; 1889 :                 _STD _Copy_memmove(_STD _To_address(_UFirst), _STD _To_address(_ULast), _STD _Unfancy(_Dest));

  001c3	50		 push	 eax
  001c4	57		 push	 edi
  001c5	56		 push	 esi
; File C:\Program Files\Microsoft Visual Studio\2022\Community\VC\Tools\MSVC\14.44.35207\include\vector

; 2120 :                 _My_data._Mylast = _STD _Uninitialized_copy(_STD forward<_Valty>(_Val)..., _My_data._Myfirst, _Al);

  001c6	89 85 3c ff ff
	ff		 mov	 DWORD PTR __Dest$1$[ebp], eax
; File C:\Program Files\Microsoft Visual Studio\2022\Community\VC\Tools\MSVC\14.44.35207\include\xmemory

; 1889 :                 _STD _Copy_memmove(_STD _To_address(_UFirst), _STD _To_address(_ULast), _STD _Unfancy(_Dest));

  001cc	e8 00 00 00 00	 call	 ??$_Copy_memmove@PAEPAE@std@@YAPAEPAE00@Z ; std::_Copy_memmove<unsigned char *,unsigned char *>
; File C:\Program Files\Microsoft Visual Studio\2022\Community\VC\Tools\MSVC\14.44.35207\include\vector

; 2120 :                 _My_data._Mylast = _STD _Uninitialized_copy(_STD forward<_Valty>(_Val)..., _My_data._Myfirst, _Al);

  001d1	2b fe		 sub	 edi, esi
; File C:\Program Files\Microsoft Visual Studio\2022\Community\VC\Tools\MSVC\14.44.35207\include\xmemory

; 1889 :                 _STD _Copy_memmove(_STD _To_address(_UFirst), _STD _To_address(_ULast), _STD _Unfancy(_Dest));

  001d3	83 c4 0c	 add	 esp, 12			; 0000000cH

; 1890 :                 _Dest += _ULast - _UFirst;

  001d6	03 bd 3c ff ff
	ff		 add	 edi, DWORD PTR __Dest$1$[ebp]
; File C:\Program Files\Microsoft Visual Studio\2022\Community\VC\Tools\MSVC\14.44.35207\include\vector

; 2120 :                 _My_data._Mylast = _STD _Uninitialized_copy(_STD forward<_Valty>(_Val)..., _My_data._Myfirst, _Al);

  001dc	89 bd 54 fe ff
	ff		 mov	 DWORD PTR $T17[ebp+24], edi
$LN159@dynamic:
; File C:\Program Files\Microsoft Visual Studio\2022\Community\VC\Tools\MSVC\14.44.35207\include\initializer_list

; 34   :         : _First(_First_arg), _Last(_Last_arg) {}

  001e2	8d 85 5c fe ff
	ff		 lea	 eax, DWORD PTR $T17[ebp+32]
; File C:\Anka2Project\Anka2Project\Source\Binary\source\UserInterface\PythonPlayerSettingsModule.h

; 618  : static const std::map<uint8_t, std::map<uint8_t, std::vector<uint8_t>>> skillIndexes{

  001e8	c6 45 fc 04	 mov	 BYTE PTR __$EHRec$[ebp+8], 4
; File C:\Program Files\Microsoft Visual Studio\2022\Community\VC\Tools\MSVC\14.44.35207\include\initializer_list

; 34   :         : _First(_First_arg), _Last(_Last_arg) {}

  001ec	8d 8d 3c fe ff
	ff		 lea	 ecx, DWORD PTR $T17[ebp]
; File C:\Anka2Project\Anka2Project\Source\Binary\source\UserInterface\PythonPlayerSettingsModule.h

; 618  : static const std::map<uint8_t, std::map<uint8_t, std::vector<uint8_t>>> skillIndexes{

  001f2	50		 push	 eax
  001f3	51		 push	 ecx
  001f4	8d 8d bc fe ff
	ff		 lea	 ecx, DWORD PTR $T55[ebp]
  001fa	e8 00 00 00 00	 call	 ??0?$map@EV?$vector@EV?$allocator@E@std@@@std@@U?$less@E@2@V?$allocator@U?$pair@$$CBEV?$vector@EV?$allocator@E@std@@@std@@@std@@@2@@std@@QAE@V?$initializer_list@U?$pair@$$CBEV?$vector@EV?$allocator@E@std@@@std@@@std@@@1@@Z ; std::map<unsigned char,std::vector<unsigned char,std::allocator<unsigned char> >,std::less<unsigned char>,std::allocator<std::pair<unsigned char const ,std::vector<unsigned char,std::allocator<unsigned char> > > > >::map<unsigned char,std::vector<unsigned char,std::allocator<unsigned char> >,std::less<unsigned char>,std::allocator<std::pair<unsigned char const ,std::vector<unsigned char,std::allocator<unsigned char> > > > >
; File C:\Program Files\Microsoft Visual Studio\2022\Community\VC\Tools\MSVC\14.44.35207\include\utility

; 263  :         : first(_Val1), second(_Val2) {}

  001ff	8d 85 bc fe ff
	ff		 lea	 eax, DWORD PTR $T55[ebp]
; File C:\Anka2Project\Anka2Project\Source\Binary\source\UserInterface\PythonPlayerSettingsModule.h

; 618  : static const std::map<uint8_t, std::map<uint8_t, std::vector<uint8_t>>> skillIndexes{

  00205	c6 45 fc 05	 mov	 BYTE PTR __$EHRec$[ebp+8], 5
; File C:\Program Files\Microsoft Visual Studio\2022\Community\VC\Tools\MSVC\14.44.35207\include\utility

; 263  :         : first(_Val1), second(_Val2) {}

  00209	50		 push	 eax
  0020a	8d 8d 44 ff ff
	ff		 lea	 ecx, DWORD PTR $T56[ebp+4]
  00210	c6 85 40 ff ff
	ff 00		 mov	 BYTE PTR $T56[ebp], 0
  00217	e8 00 00 00 00	 call	 ??0?$map@EV?$vector@EV?$allocator@E@std@@@std@@U?$less@E@2@V?$allocator@U?$pair@$$CBEV?$vector@EV?$allocator@E@std@@@std@@@std@@@2@@std@@QAE@ABV01@@Z ; std::map<unsigned char,std::vector<unsigned char,std::allocator<unsigned char> >,std::less<unsigned char>,std::allocator<std::pair<unsigned char const ,std::vector<unsigned char,std::allocator<unsigned char> > > > >::map<unsigned char,std::vector<unsigned char,std::allocator<unsigned char> >,std::less<unsigned char>,std::allocator<std::pair<unsigned char const ,std::vector<unsigned char,std::allocator<unsigned char> > > > >
; File C:\Anka2Project\Anka2Project\Source\Binary\source\UserInterface\PythonPlayerSettingsModule.h

; 618  : static const std::map<uint8_t, std::map<uint8_t, std::vector<uint8_t>>> skillIndexes{

  0021c	c6 45 fc 06	 mov	 BYTE PTR __$EHRec$[ebp+8], 6
; File C:\Program Files\Microsoft Visual Studio\2022\Community\VC\Tools\MSVC\14.44.35207\include\initializer_list

; 34   :         : _First(_First_arg), _Last(_Last_arg) {}

  00220	8d 55 80	 lea	 edx, DWORD PTR $T61[ebp]
; File C:\Program Files\Microsoft Visual Studio\2022\Community\VC\Tools\MSVC\14.44.35207\include\vector

; 400  :     _CONSTEXPR20 _Vector_val() noexcept : _Myfirst(), _Mylast(), _Myend() {}

  00223	33 c0		 xor	 eax, eax
; File C:\Anka2Project\Anka2Project\Source\Binary\source\UserInterface\PythonPlayerSettingsModule.h

; 618  : static const std::map<uint8_t, std::map<uint8_t, std::vector<uint8_t>>> skillIndexes{

  00225	c7 45 80 1f 20
	21 22		 mov	 DWORD PTR $T61[ebp], 572596255 ; 2221201fH
; File C:\Program Files\Microsoft Visual Studio\2022\Community\VC\Tools\MSVC\14.44.35207\include\initializer_list

; 34   :         : _First(_First_arg), _Last(_Last_arg) {}

  0022c	8d 7d 8f	 lea	 edi, DWORD PTR $T61[ebp+15]
; File C:\Anka2Project\Anka2Project\Source\Binary\source\UserInterface\PythonPlayerSettingsModule.h

; 618  : static const std::map<uint8_t, std::map<uint8_t, std::vector<uint8_t>>> skillIndexes{

  0022f	c7 45 84 23 00
	00 00		 mov	 DWORD PTR $T61[ebp+4], 35 ; 00000023H
; File C:\Program Files\Microsoft Visual Studio\2022\Community\VC\Tools\MSVC\14.44.35207\include\vector

; 400  :     _CONSTEXPR20 _Vector_val() noexcept : _Myfirst(), _Mylast(), _Myend() {}

  00236	33 c9		 xor	 ecx, ecx
; File C:\Anka2Project\Anka2Project\Source\Binary\source\UserInterface\PythonPlayerSettingsModule.h

; 618  : static const std::map<uint8_t, std::map<uint8_t, std::vector<uint8_t>>> skillIndexes{

  00238	c7 45 88 89 00
	8a 00		 mov	 DWORD PTR $T61[ebp+8], 9044105 ; 008a0089H
  0023f	66 c7 45 8c 8b
	00		 mov	 WORD PTR $T61[ebp+12], 139 ; 0000008bH
  00245	c6 45 8e 8c	 mov	 BYTE PTR $T61[ebp+14], 140 ; 0000008cH
; File C:\Program Files\Microsoft Visual Studio\2022\Community\VC\Tools\MSVC\14.44.35207\include\vector

; 400  :     _CONSTEXPR20 _Vector_val() noexcept : _Myfirst(), _Mylast(), _Myend() {}

  00249	89 8d f4 fe ff
	ff		 mov	 DWORD PTR $T65[ebp], ecx
  0024f	89 85 f8 fe ff
	ff		 mov	 DWORD PTR $T65[ebp+4], eax
  00255	89 85 fc fe ff
	ff		 mov	 DWORD PTR $T65[ebp+8], eax

; 721  :         _Construct_n(_Convert_size<size_type>(_Ilist.size()), _Ilist.begin(), _Ilist.end());

  0025b	2b fa		 sub	 edi, edx

; 2111 :         if (_Count != 0) {

  0025d	74 32		 je	 SHORT $LN199@dynamic

; 2112 :             _Buy_nonzero(_Count);

  0025f	57		 push	 edi
  00260	8d 8d f4 fe ff
	ff		 lea	 ecx, DWORD PTR $T65[ebp]
  00266	e8 00 00 00 00	 call	 ?_Buy_nonzero@?$vector@EV?$allocator@E@std@@@std@@AAEXI@Z ; std::vector<unsigned char,std::allocator<unsigned char> >::_Buy_nonzero

; 2120 :                 _My_data._Mylast = _STD _Uninitialized_copy(_STD forward<_Valty>(_Val)..., _My_data._Myfirst, _Al);

  0026b	8b b5 f4 fe ff
	ff		 mov	 esi, DWORD PTR $T65[ebp]
; File C:\Program Files\Microsoft Visual Studio\2022\Community\VC\Tools\MSVC\14.44.35207\include\xmemory

; 1889 :                 _STD _Copy_memmove(_STD _To_address(_UFirst), _STD _To_address(_ULast), _STD _Unfancy(_Dest));

  00271	8d 45 8f	 lea	 eax, DWORD PTR $T61[ebp+15]
  00274	56		 push	 esi
  00275	50		 push	 eax
  00276	8d 45 80	 lea	 eax, DWORD PTR $T61[ebp]
  00279	50		 push	 eax
  0027a	e8 00 00 00 00	 call	 ??$_Copy_memmove@PBEPAE@std@@YAPAEPBE0PAE@Z ; std::_Copy_memmove<unsigned char const *,unsigned char *>
; File C:\Program Files\Microsoft Visual Studio\2022\Community\VC\Tools\MSVC\14.44.35207\include\vector

; 2120 :                 _My_data._Mylast = _STD _Uninitialized_copy(_STD forward<_Valty>(_Val)..., _My_data._Myfirst, _Al);

  0027f	8b 8d f4 fe ff
	ff		 mov	 ecx, DWORD PTR $T65[ebp]
; File C:\Program Files\Microsoft Visual Studio\2022\Community\VC\Tools\MSVC\14.44.35207\include\xmemory

; 1890 :                 _Dest += _ULast - _UFirst;

  00285	8d 04 3e	 lea	 eax, DWORD PTR [esi+edi]
  00288	83 c4 0c	 add	 esp, 12			; 0000000cH
; File C:\Program Files\Microsoft Visual Studio\2022\Community\VC\Tools\MSVC\14.44.35207\include\vector

; 2120 :                 _My_data._Mylast = _STD _Uninitialized_copy(_STD forward<_Valty>(_Val)..., _My_data._Myfirst, _Al);

  0028b	89 85 f8 fe ff
	ff		 mov	 DWORD PTR $T65[ebp+4], eax
$LN199@dynamic:
; File C:\Anka2Project\Anka2Project\Source\Binary\source\UserInterface\PythonPlayerSettingsModule.h

; 618  : static const std::map<uint8_t, std::map<uint8_t, std::vector<uint8_t>>> skillIndexes{

  00291	c6 45 fc 07	 mov	 BYTE PTR __$EHRec$[ebp+8], 7
; File C:\Program Files\Microsoft Visual Studio\2022\Community\VC\Tools\MSVC\14.44.35207\include\utility

; 263  :         : first(_Val1), second(_Val2) {}

  00295	c6 85 5c fe ff
	ff 01		 mov	 BYTE PTR $T74[ebp], 1
; File C:\Program Files\Microsoft Visual Studio\2022\Community\VC\Tools\MSVC\14.44.35207\include\vector

; 400  :     _CONSTEXPR20 _Vector_val() noexcept : _Myfirst(), _Mylast(), _Myend() {}

  0029c	c7 85 60 fe ff
	ff 00 00 00 00	 mov	 DWORD PTR $T74[ebp+4], 0
  002a6	c7 85 64 fe ff
	ff 00 00 00 00	 mov	 DWORD PTR $T74[ebp+8], 0
  002b0	c7 85 68 fe ff
	ff 00 00 00 00	 mov	 DWORD PTR $T74[ebp+12], 0

; 748  :         const auto _Count       = static_cast<size_type>(_Right_data._Mylast - _Right_data._Myfirst);

  002ba	2b c1		 sub	 eax, ecx

; 2111 :         if (_Count != 0) {

  002bc	74 3d		 je	 SHORT $LN230@dynamic

; 2112 :             _Buy_nonzero(_Count);

  002be	50		 push	 eax
  002bf	8d 8d 60 fe ff
	ff		 lea	 ecx, DWORD PTR $T74[ebp+4]
  002c5	e8 00 00 00 00	 call	 ?_Buy_nonzero@?$vector@EV?$allocator@E@std@@@std@@AAEXI@Z ; std::vector<unsigned char,std::allocator<unsigned char> >::_Buy_nonzero

; 2120 :                 _My_data._Mylast = _STD _Uninitialized_copy(_STD forward<_Valty>(_Val)..., _My_data._Myfirst, _Al);

  002ca	8b 85 60 fe ff
	ff		 mov	 eax, DWORD PTR $T74[ebp+4]
; File C:\Program Files\Microsoft Visual Studio\2022\Community\VC\Tools\MSVC\14.44.35207\include\xmemory

; 1872 :     auto _ULast  = _RANGES _Unwrap_sent<_InIt>(_STD move(_Last));

  002d0	8b bd f8 fe ff
	ff		 mov	 edi, DWORD PTR $T65[ebp+4]
  002d6	8b b5 f4 fe ff
	ff		 mov	 esi, DWORD PTR $T65[ebp]

; 1889 :                 _STD _Copy_memmove(_STD _To_address(_UFirst), _STD _To_address(_ULast), _STD _Unfancy(_Dest));

  002dc	50		 push	 eax
  002dd	57		 push	 edi
  002de	56		 push	 esi
; File C:\Program Files\Microsoft Visual Studio\2022\Community\VC\Tools\MSVC\14.44.35207\include\vector

; 2120 :                 _My_data._Mylast = _STD _Uninitialized_copy(_STD forward<_Valty>(_Val)..., _My_data._Myfirst, _Al);

  002df	89 85 3c ff ff
	ff		 mov	 DWORD PTR __Dest$1$[ebp], eax
; File C:\Program Files\Microsoft Visual Studio\2022\Community\VC\Tools\MSVC\14.44.35207\include\xmemory

; 1889 :                 _STD _Copy_memmove(_STD _To_address(_UFirst), _STD _To_address(_ULast), _STD _Unfancy(_Dest));

  002e5	e8 00 00 00 00	 call	 ??$_Copy_memmove@PAEPAE@std@@YAPAEPAE00@Z ; std::_Copy_memmove<unsigned char *,unsigned char *>
; File C:\Program Files\Microsoft Visual Studio\2022\Community\VC\Tools\MSVC\14.44.35207\include\vector

; 2120 :                 _My_data._Mylast = _STD _Uninitialized_copy(_STD forward<_Valty>(_Val)..., _My_data._Myfirst, _Al);

  002ea	2b fe		 sub	 edi, esi
; File C:\Program Files\Microsoft Visual Studio\2022\Community\VC\Tools\MSVC\14.44.35207\include\xmemory

; 1889 :                 _STD _Copy_memmove(_STD _To_address(_UFirst), _STD _To_address(_ULast), _STD _Unfancy(_Dest));

  002ec	83 c4 0c	 add	 esp, 12			; 0000000cH

; 1890 :                 _Dest += _ULast - _UFirst;

  002ef	03 bd 3c ff ff
	ff		 add	 edi, DWORD PTR __Dest$1$[ebp]
; File C:\Program Files\Microsoft Visual Studio\2022\Community\VC\Tools\MSVC\14.44.35207\include\vector

; 2120 :                 _My_data._Mylast = _STD _Uninitialized_copy(_STD forward<_Valty>(_Val)..., _My_data._Myfirst, _Al);

  002f5	89 bd 64 fe ff
	ff		 mov	 DWORD PTR $T74[ebp+8], edi
$LN230@dynamic:
; File C:\Anka2Project\Anka2Project\Source\Binary\source\UserInterface\PythonPlayerSettingsModule.h

; 618  : static const std::map<uint8_t, std::map<uint8_t, std::vector<uint8_t>>> skillIndexes{

  002fb	c6 45 fc 08	 mov	 BYTE PTR __$EHRec$[ebp+8], 8
; File C:\Program Files\Microsoft Visual Studio\2022\Community\VC\Tools\MSVC\14.44.35207\include\initializer_list

; 34   :         : _First(_First_arg), _Last(_Last_arg) {}

  002ff	8d 95 70 ff ff
	ff		 lea	 edx, DWORD PTR $T87[ebp]
; File C:\Program Files\Microsoft Visual Studio\2022\Community\VC\Tools\MSVC\14.44.35207\include\vector

; 400  :     _CONSTEXPR20 _Vector_val() noexcept : _Myfirst(), _Mylast(), _Myend() {}

  00305	33 c0		 xor	 eax, eax
; File C:\Anka2Project\Anka2Project\Source\Binary\source\UserInterface\PythonPlayerSettingsModule.h

; 618  : static const std::map<uint8_t, std::map<uint8_t, std::vector<uint8_t>>> skillIndexes{

  00307	c7 85 70 ff ff
	ff 2e 2f 30 31	 mov	 DWORD PTR $T87[ebp], 825241390 ; 31302f2eH
; File C:\Program Files\Microsoft Visual Studio\2022\Community\VC\Tools\MSVC\14.44.35207\include\initializer_list

; 34   :         : _First(_First_arg), _Last(_Last_arg) {}

  00311	8d bd 7f ff ff
	ff		 lea	 edi, DWORD PTR $T87[ebp+15]
; File C:\Anka2Project\Anka2Project\Source\Binary\source\UserInterface\PythonPlayerSettingsModule.h

; 618  : static const std::map<uint8_t, std::map<uint8_t, std::vector<uint8_t>>> skillIndexes{

  00317	c7 85 74 ff ff
	ff 32 00 00 00	 mov	 DWORD PTR $T87[ebp+4], 50 ; 00000032H
; File C:\Program Files\Microsoft Visual Studio\2022\Community\VC\Tools\MSVC\14.44.35207\include\vector

; 400  :     _CONSTEXPR20 _Vector_val() noexcept : _Myfirst(), _Mylast(), _Myend() {}

  00321	33 c9		 xor	 ecx, ecx
; File C:\Anka2Project\Anka2Project\Source\Binary\source\UserInterface\PythonPlayerSettingsModule.h

; 618  : static const std::map<uint8_t, std::map<uint8_t, std::vector<uint8_t>>> skillIndexes{

  00323	c7 85 78 ff ff
	ff 89 00 8a 00	 mov	 DWORD PTR $T87[ebp+8], 9044105 ; 008a0089H
  0032d	66 c7 85 7c ff
	ff ff 8b 00	 mov	 WORD PTR $T87[ebp+12], 139 ; 0000008bH
  00336	c6 85 7e ff ff
	ff 8c		 mov	 BYTE PTR $T87[ebp+14], 140 ; 0000008cH
; File C:\Program Files\Microsoft Visual Studio\2022\Community\VC\Tools\MSVC\14.44.35207\include\vector

; 400  :     _CONSTEXPR20 _Vector_val() noexcept : _Myfirst(), _Mylast(), _Myend() {}

  0033d	89 8d 00 ff ff
	ff		 mov	 DWORD PTR $T91[ebp], ecx
  00343	89 85 04 ff ff
	ff		 mov	 DWORD PTR $T91[ebp+4], eax
  00349	89 85 08 ff ff
	ff		 mov	 DWORD PTR $T91[ebp+8], eax

; 721  :         _Construct_n(_Convert_size<size_type>(_Ilist.size()), _Ilist.begin(), _Ilist.end());

  0034f	2b fa		 sub	 edi, edx

; 2111 :         if (_Count != 0) {

  00351	74 38		 je	 SHORT $LN264@dynamic

; 2112 :             _Buy_nonzero(_Count);

  00353	57		 push	 edi
  00354	8d 8d 00 ff ff
	ff		 lea	 ecx, DWORD PTR $T91[ebp]
  0035a	e8 00 00 00 00	 call	 ?_Buy_nonzero@?$vector@EV?$allocator@E@std@@@std@@AAEXI@Z ; std::vector<unsigned char,std::allocator<unsigned char> >::_Buy_nonzero

; 2120 :                 _My_data._Mylast = _STD _Uninitialized_copy(_STD forward<_Valty>(_Val)..., _My_data._Myfirst, _Al);

  0035f	8b b5 00 ff ff
	ff		 mov	 esi, DWORD PTR $T91[ebp]
; File C:\Program Files\Microsoft Visual Studio\2022\Community\VC\Tools\MSVC\14.44.35207\include\xmemory

; 1889 :                 _STD _Copy_memmove(_STD _To_address(_UFirst), _STD _To_address(_ULast), _STD _Unfancy(_Dest));

  00365	8d 85 7f ff ff
	ff		 lea	 eax, DWORD PTR $T87[ebp+15]
  0036b	56		 push	 esi
  0036c	50		 push	 eax
  0036d	8d 85 70 ff ff
	ff		 lea	 eax, DWORD PTR $T87[ebp]
  00373	50		 push	 eax
  00374	e8 00 00 00 00	 call	 ??$_Copy_memmove@PBEPAE@std@@YAPAEPBE0PAE@Z ; std::_Copy_memmove<unsigned char const *,unsigned char *>
; File C:\Program Files\Microsoft Visual Studio\2022\Community\VC\Tools\MSVC\14.44.35207\include\vector

; 2120 :                 _My_data._Mylast = _STD _Uninitialized_copy(_STD forward<_Valty>(_Val)..., _My_data._Myfirst, _Al);

  00379	8b 8d 00 ff ff
	ff		 mov	 ecx, DWORD PTR $T91[ebp]
; File C:\Program Files\Microsoft Visual Studio\2022\Community\VC\Tools\MSVC\14.44.35207\include\xmemory

; 1890 :                 _Dest += _ULast - _UFirst;

  0037f	8d 04 3e	 lea	 eax, DWORD PTR [esi+edi]
  00382	83 c4 0c	 add	 esp, 12			; 0000000cH
; File C:\Program Files\Microsoft Visual Studio\2022\Community\VC\Tools\MSVC\14.44.35207\include\vector

; 2120 :                 _My_data._Mylast = _STD _Uninitialized_copy(_STD forward<_Valty>(_Val)..., _My_data._Myfirst, _Al);

  00385	89 85 04 ff ff
	ff		 mov	 DWORD PTR $T91[ebp+4], eax
$LN264@dynamic:
; File C:\Anka2Project\Anka2Project\Source\Binary\source\UserInterface\PythonPlayerSettingsModule.h

; 618  : static const std::map<uint8_t, std::map<uint8_t, std::vector<uint8_t>>> skillIndexes{

  0038b	c6 45 fc 09	 mov	 BYTE PTR __$EHRec$[ebp+8], 9
; File C:\Program Files\Microsoft Visual Studio\2022\Community\VC\Tools\MSVC\14.44.35207\include\utility

; 263  :         : first(_Val1), second(_Val2) {}

  0038f	c6 85 6c fe ff
	ff 02		 mov	 BYTE PTR $T74[ebp+16], 2
; File C:\Program Files\Microsoft Visual Studio\2022\Community\VC\Tools\MSVC\14.44.35207\include\vector

; 400  :     _CONSTEXPR20 _Vector_val() noexcept : _Myfirst(), _Mylast(), _Myend() {}

  00396	c7 85 70 fe ff
	ff 00 00 00 00	 mov	 DWORD PTR $T74[ebp+20], 0
  003a0	c7 85 74 fe ff
	ff 00 00 00 00	 mov	 DWORD PTR $T74[ebp+24], 0
  003aa	c7 85 78 fe ff
	ff 00 00 00 00	 mov	 DWORD PTR $T74[ebp+28], 0

; 748  :         const auto _Count       = static_cast<size_type>(_Right_data._Mylast - _Right_data._Myfirst);

  003b4	2b c1		 sub	 eax, ecx

; 2111 :         if (_Count != 0) {

  003b6	74 3d		 je	 SHORT $LN295@dynamic

; 2112 :             _Buy_nonzero(_Count);

  003b8	50		 push	 eax
  003b9	8d 8d 70 fe ff
	ff		 lea	 ecx, DWORD PTR $T74[ebp+20]
  003bf	e8 00 00 00 00	 call	 ?_Buy_nonzero@?$vector@EV?$allocator@E@std@@@std@@AAEXI@Z ; std::vector<unsigned char,std::allocator<unsigned char> >::_Buy_nonzero

; 2120 :                 _My_data._Mylast = _STD _Uninitialized_copy(_STD forward<_Valty>(_Val)..., _My_data._Myfirst, _Al);

  003c4	8b 85 70 fe ff
	ff		 mov	 eax, DWORD PTR $T74[ebp+20]
; File C:\Program Files\Microsoft Visual Studio\2022\Community\VC\Tools\MSVC\14.44.35207\include\xmemory

; 1872 :     auto _ULast  = _RANGES _Unwrap_sent<_InIt>(_STD move(_Last));

  003ca	8b bd 04 ff ff
	ff		 mov	 edi, DWORD PTR $T91[ebp+4]
  003d0	8b b5 00 ff ff
	ff		 mov	 esi, DWORD PTR $T91[ebp]

; 1889 :                 _STD _Copy_memmove(_STD _To_address(_UFirst), _STD _To_address(_ULast), _STD _Unfancy(_Dest));

  003d6	50		 push	 eax
  003d7	57		 push	 edi
  003d8	56		 push	 esi
; File C:\Program Files\Microsoft Visual Studio\2022\Community\VC\Tools\MSVC\14.44.35207\include\vector

; 2120 :                 _My_data._Mylast = _STD _Uninitialized_copy(_STD forward<_Valty>(_Val)..., _My_data._Myfirst, _Al);

  003d9	89 85 3c ff ff
	ff		 mov	 DWORD PTR __Dest$1$[ebp], eax
; File C:\Program Files\Microsoft Visual Studio\2022\Community\VC\Tools\MSVC\14.44.35207\include\xmemory

; 1889 :                 _STD _Copy_memmove(_STD _To_address(_UFirst), _STD _To_address(_ULast), _STD _Unfancy(_Dest));

  003df	e8 00 00 00 00	 call	 ??$_Copy_memmove@PAEPAE@std@@YAPAEPAE00@Z ; std::_Copy_memmove<unsigned char *,unsigned char *>
; File C:\Program Files\Microsoft Visual Studio\2022\Community\VC\Tools\MSVC\14.44.35207\include\vector

; 2120 :                 _My_data._Mylast = _STD _Uninitialized_copy(_STD forward<_Valty>(_Val)..., _My_data._Myfirst, _Al);

  003e4	2b fe		 sub	 edi, esi
; File C:\Program Files\Microsoft Visual Studio\2022\Community\VC\Tools\MSVC\14.44.35207\include\xmemory

; 1889 :                 _STD _Copy_memmove(_STD _To_address(_UFirst), _STD _To_address(_ULast), _STD _Unfancy(_Dest));

  003e6	83 c4 0c	 add	 esp, 12			; 0000000cH

; 1890 :                 _Dest += _ULast - _UFirst;

  003e9	03 bd 3c ff ff
	ff		 add	 edi, DWORD PTR __Dest$1$[ebp]
; File C:\Program Files\Microsoft Visual Studio\2022\Community\VC\Tools\MSVC\14.44.35207\include\vector

; 2120 :                 _My_data._Mylast = _STD _Uninitialized_copy(_STD forward<_Valty>(_Val)..., _My_data._Myfirst, _Al);

  003ef	89 bd 74 fe ff
	ff		 mov	 DWORD PTR $T74[ebp+24], edi
$LN295@dynamic:
; File C:\Program Files\Microsoft Visual Studio\2022\Community\VC\Tools\MSVC\14.44.35207\include\initializer_list

; 34   :         : _First(_First_arg), _Last(_Last_arg) {}

  003f5	8d 85 7c fe ff
	ff		 lea	 eax, DWORD PTR $T74[ebp+32]
; File C:\Anka2Project\Anka2Project\Source\Binary\source\UserInterface\PythonPlayerSettingsModule.h

; 618  : static const std::map<uint8_t, std::map<uint8_t, std::vector<uint8_t>>> skillIndexes{

  003fb	c6 45 fc 0b	 mov	 BYTE PTR __$EHRec$[ebp+8], 11 ; 0000000bH
; File C:\Program Files\Microsoft Visual Studio\2022\Community\VC\Tools\MSVC\14.44.35207\include\initializer_list

; 34   :         : _First(_First_arg), _Last(_Last_arg) {}

  003ff	8d 8d 5c fe ff
	ff		 lea	 ecx, DWORD PTR $T74[ebp]
; File C:\Anka2Project\Anka2Project\Source\Binary\source\UserInterface\PythonPlayerSettingsModule.h

; 618  : static const std::map<uint8_t, std::map<uint8_t, std::vector<uint8_t>>> skillIndexes{

  00405	50		 push	 eax
  00406	51		 push	 ecx
  00407	8d 8d c4 fe ff
	ff		 lea	 ecx, DWORD PTR $T112[ebp]
  0040d	e8 00 00 00 00	 call	 ??0?$map@EV?$vector@EV?$allocator@E@std@@@std@@U?$less@E@2@V?$allocator@U?$pair@$$CBEV?$vector@EV?$allocator@E@std@@@std@@@std@@@2@@std@@QAE@V?$initializer_list@U?$pair@$$CBEV?$vector@EV?$allocator@E@std@@@std@@@std@@@1@@Z ; std::map<unsigned char,std::vector<unsigned char,std::allocator<unsigned char> >,std::less<unsigned char>,std::allocator<std::pair<unsigned char const ,std::vector<unsigned char,std::allocator<unsigned char> > > > >::map<unsigned char,std::vector<unsigned char,std::allocator<unsigned char> >,std::less<unsigned char>,std::allocator<std::pair<unsigned char const ,std::vector<unsigned char,std::allocator<unsigned char> > > > >
; File C:\Program Files\Microsoft Visual Studio\2022\Community\VC\Tools\MSVC\14.44.35207\include\utility

; 263  :         : first(_Val1), second(_Val2) {}

  00412	8d 85 c4 fe ff
	ff		 lea	 eax, DWORD PTR $T112[ebp]
; File C:\Anka2Project\Anka2Project\Source\Binary\source\UserInterface\PythonPlayerSettingsModule.h

; 618  : static const std::map<uint8_t, std::map<uint8_t, std::vector<uint8_t>>> skillIndexes{

  00418	c6 45 fc 0c	 mov	 BYTE PTR __$EHRec$[ebp+8], 12 ; 0000000cH
; File C:\Program Files\Microsoft Visual Studio\2022\Community\VC\Tools\MSVC\14.44.35207\include\utility

; 263  :         : first(_Val1), second(_Val2) {}

  0041c	50		 push	 eax
  0041d	8d 8d 50 ff ff
	ff		 lea	 ecx, DWORD PTR $T56[ebp+16]
  00423	c6 85 4c ff ff
	ff 01		 mov	 BYTE PTR $T56[ebp+12], 1
  0042a	e8 00 00 00 00	 call	 ??0?$map@EV?$vector@EV?$allocator@E@std@@@std@@U?$less@E@2@V?$allocator@U?$pair@$$CBEV?$vector@EV?$allocator@E@std@@@std@@@std@@@2@@std@@QAE@ABV01@@Z ; std::map<unsigned char,std::vector<unsigned char,std::allocator<unsigned char> >,std::less<unsigned char>,std::allocator<std::pair<unsigned char const ,std::vector<unsigned char,std::allocator<unsigned char> > > > >::map<unsigned char,std::vector<unsigned char,std::allocator<unsigned char> >,std::less<unsigned char>,std::allocator<std::pair<unsigned char const ,std::vector<unsigned char,std::allocator<unsigned char> > > > >
; File C:\Anka2Project\Anka2Project\Source\Binary\source\UserInterface\PythonPlayerSettingsModule.h

; 618  : static const std::map<uint8_t, std::map<uint8_t, std::vector<uint8_t>>> skillIndexes{

  0042f	c6 45 fc 0d	 mov	 BYTE PTR __$EHRec$[ebp+8], 13 ; 0000000dH
; File C:\Program Files\Microsoft Visual Studio\2022\Community\VC\Tools\MSVC\14.44.35207\include\initializer_list

; 34   :         : _First(_First_arg), _Last(_Last_arg) {}

  00433	8d 55 c0	 lea	 edx, DWORD PTR $T117[ebp]
; File C:\Program Files\Microsoft Visual Studio\2022\Community\VC\Tools\MSVC\14.44.35207\include\vector

; 400  :     _CONSTEXPR20 _Vector_val() noexcept : _Myfirst(), _Mylast(), _Myend() {}

  00436	33 c0		 xor	 eax, eax
; File C:\Anka2Project\Anka2Project\Source\Binary\source\UserInterface\PythonPlayerSettingsModule.h

; 618  : static const std::map<uint8_t, std::map<uint8_t, std::vector<uint8_t>>> skillIndexes{

  00438	c7 45 c0 3d 3e
	3f 40		 mov	 DWORD PTR $T117[ebp], 1077886525 ; 403f3e3dH
; File C:\Program Files\Microsoft Visual Studio\2022\Community\VC\Tools\MSVC\14.44.35207\include\initializer_list

; 34   :         : _First(_First_arg), _Last(_Last_arg) {}

  0043f	8d 7d ce	 lea	 edi, DWORD PTR $T117[ebp+14]
; File C:\Anka2Project\Anka2Project\Source\Binary\source\UserInterface\PythonPlayerSettingsModule.h

; 618  : static const std::map<uint8_t, std::map<uint8_t, std::vector<uint8_t>>> skillIndexes{

  00442	c7 45 c4 41 42
	00 00		 mov	 DWORD PTR $T117[ebp+4], 16961 ; 00004241H
; File C:\Program Files\Microsoft Visual Studio\2022\Community\VC\Tools\MSVC\14.44.35207\include\vector

; 400  :     _CONSTEXPR20 _Vector_val() noexcept : _Myfirst(), _Mylast(), _Myend() {}

  00449	33 c9		 xor	 ecx, ecx
; File C:\Anka2Project\Anka2Project\Source\Binary\source\UserInterface\PythonPlayerSettingsModule.h

; 618  : static const std::map<uint8_t, std::map<uint8_t, std::vector<uint8_t>>> skillIndexes{

  0044b	c7 45 c8 89 00
	8a 00		 mov	 DWORD PTR $T117[ebp+8], 9044105 ; 008a0089H
  00452	66 c7 45 cc 8b
	00		 mov	 WORD PTR $T117[ebp+12], 139 ; 0000008bH
; File C:\Program Files\Microsoft Visual Studio\2022\Community\VC\Tools\MSVC\14.44.35207\include\vector

; 400  :     _CONSTEXPR20 _Vector_val() noexcept : _Myfirst(), _Mylast(), _Myend() {}

  00458	89 8d 0c ff ff
	ff		 mov	 DWORD PTR $T121[ebp], ecx
  0045e	89 85 10 ff ff
	ff		 mov	 DWORD PTR $T121[ebp+4], eax
  00464	89 85 14 ff ff
	ff		 mov	 DWORD PTR $T121[ebp+8], eax

; 721  :         _Construct_n(_Convert_size<size_type>(_Ilist.size()), _Ilist.begin(), _Ilist.end());

  0046a	2b fa		 sub	 edi, edx

; 2111 :         if (_Count != 0) {

  0046c	74 32		 je	 SHORT $LN335@dynamic

; 2112 :             _Buy_nonzero(_Count);

  0046e	57		 push	 edi
  0046f	8d 8d 0c ff ff
	ff		 lea	 ecx, DWORD PTR $T121[ebp]
  00475	e8 00 00 00 00	 call	 ?_Buy_nonzero@?$vector@EV?$allocator@E@std@@@std@@AAEXI@Z ; std::vector<unsigned char,std::allocator<unsigned char> >::_Buy_nonzero

; 2120 :                 _My_data._Mylast = _STD _Uninitialized_copy(_STD forward<_Valty>(_Val)..., _My_data._Myfirst, _Al);

  0047a	8b b5 0c ff ff
	ff		 mov	 esi, DWORD PTR $T121[ebp]
; File C:\Program Files\Microsoft Visual Studio\2022\Community\VC\Tools\MSVC\14.44.35207\include\xmemory

; 1889 :                 _STD _Copy_memmove(_STD _To_address(_UFirst), _STD _To_address(_ULast), _STD _Unfancy(_Dest));

  00480	8d 45 ce	 lea	 eax, DWORD PTR $T117[ebp+14]
  00483	56		 push	 esi
  00484	50		 push	 eax
  00485	8d 45 c0	 lea	 eax, DWORD PTR $T117[ebp]
  00488	50		 push	 eax
  00489	e8 00 00 00 00	 call	 ??$_Copy_memmove@PBEPAE@std@@YAPAEPBE0PAE@Z ; std::_Copy_memmove<unsigned char const *,unsigned char *>
; File C:\Program Files\Microsoft Visual Studio\2022\Community\VC\Tools\MSVC\14.44.35207\include\vector

; 2120 :                 _My_data._Mylast = _STD _Uninitialized_copy(_STD forward<_Valty>(_Val)..., _My_data._Myfirst, _Al);

  0048e	8b 8d 0c ff ff
	ff		 mov	 ecx, DWORD PTR $T121[ebp]
; File C:\Program Files\Microsoft Visual Studio\2022\Community\VC\Tools\MSVC\14.44.35207\include\xmemory

; 1890 :                 _Dest += _ULast - _UFirst;

  00494	8d 04 3e	 lea	 eax, DWORD PTR [esi+edi]
  00497	83 c4 0c	 add	 esp, 12			; 0000000cH
; File C:\Program Files\Microsoft Visual Studio\2022\Community\VC\Tools\MSVC\14.44.35207\include\vector

; 2120 :                 _My_data._Mylast = _STD _Uninitialized_copy(_STD forward<_Valty>(_Val)..., _My_data._Myfirst, _Al);

  0049a	89 85 10 ff ff
	ff		 mov	 DWORD PTR $T121[ebp+4], eax
$LN335@dynamic:
; File C:\Anka2Project\Anka2Project\Source\Binary\source\UserInterface\PythonPlayerSettingsModule.h

; 618  : static const std::map<uint8_t, std::map<uint8_t, std::vector<uint8_t>>> skillIndexes{

  004a0	c6 45 fc 0e	 mov	 BYTE PTR __$EHRec$[ebp+8], 14 ; 0000000eH
; File C:\Program Files\Microsoft Visual Studio\2022\Community\VC\Tools\MSVC\14.44.35207\include\utility

; 263  :         : first(_Val1), second(_Val2) {}

  004a4	c6 85 7c fe ff
	ff 01		 mov	 BYTE PTR $T130[ebp], 1
; File C:\Program Files\Microsoft Visual Studio\2022\Community\VC\Tools\MSVC\14.44.35207\include\vector

; 400  :     _CONSTEXPR20 _Vector_val() noexcept : _Myfirst(), _Mylast(), _Myend() {}

  004ab	c7 85 80 fe ff
	ff 00 00 00 00	 mov	 DWORD PTR $T130[ebp+4], 0
  004b5	c7 85 84 fe ff
	ff 00 00 00 00	 mov	 DWORD PTR $T130[ebp+8], 0
  004bf	c7 85 88 fe ff
	ff 00 00 00 00	 mov	 DWORD PTR $T130[ebp+12], 0

; 748  :         const auto _Count       = static_cast<size_type>(_Right_data._Mylast - _Right_data._Myfirst);

  004c9	2b c1		 sub	 eax, ecx

; 2111 :         if (_Count != 0) {

  004cb	74 3d		 je	 SHORT $LN366@dynamic

; 2112 :             _Buy_nonzero(_Count);

  004cd	50		 push	 eax
  004ce	8d 8d 80 fe ff
	ff		 lea	 ecx, DWORD PTR $T130[ebp+4]
  004d4	e8 00 00 00 00	 call	 ?_Buy_nonzero@?$vector@EV?$allocator@E@std@@@std@@AAEXI@Z ; std::vector<unsigned char,std::allocator<unsigned char> >::_Buy_nonzero

; 2120 :                 _My_data._Mylast = _STD _Uninitialized_copy(_STD forward<_Valty>(_Val)..., _My_data._Myfirst, _Al);

  004d9	8b 85 80 fe ff
	ff		 mov	 eax, DWORD PTR $T130[ebp+4]
; File C:\Program Files\Microsoft Visual Studio\2022\Community\VC\Tools\MSVC\14.44.35207\include\xmemory

; 1872 :     auto _ULast  = _RANGES _Unwrap_sent<_InIt>(_STD move(_Last));

  004df	8b bd 10 ff ff
	ff		 mov	 edi, DWORD PTR $T121[ebp+4]
  004e5	8b b5 0c ff ff
	ff		 mov	 esi, DWORD PTR $T121[ebp]

; 1889 :                 _STD _Copy_memmove(_STD _To_address(_UFirst), _STD _To_address(_ULast), _STD _Unfancy(_Dest));

  004eb	50		 push	 eax
  004ec	57		 push	 edi
  004ed	56		 push	 esi
; File C:\Program Files\Microsoft Visual Studio\2022\Community\VC\Tools\MSVC\14.44.35207\include\vector

; 2120 :                 _My_data._Mylast = _STD _Uninitialized_copy(_STD forward<_Valty>(_Val)..., _My_data._Myfirst, _Al);

  004ee	89 85 3c ff ff
	ff		 mov	 DWORD PTR __Dest$1$[ebp], eax
; File C:\Program Files\Microsoft Visual Studio\2022\Community\VC\Tools\MSVC\14.44.35207\include\xmemory

; 1889 :                 _STD _Copy_memmove(_STD _To_address(_UFirst), _STD _To_address(_ULast), _STD _Unfancy(_Dest));

  004f4	e8 00 00 00 00	 call	 ??$_Copy_memmove@PAEPAE@std@@YAPAEPAE00@Z ; std::_Copy_memmove<unsigned char *,unsigned char *>
; File C:\Program Files\Microsoft Visual Studio\2022\Community\VC\Tools\MSVC\14.44.35207\include\vector

; 2120 :                 _My_data._Mylast = _STD _Uninitialized_copy(_STD forward<_Valty>(_Val)..., _My_data._Myfirst, _Al);

  004f9	2b fe		 sub	 edi, esi
; File C:\Program Files\Microsoft Visual Studio\2022\Community\VC\Tools\MSVC\14.44.35207\include\xmemory

; 1889 :                 _STD _Copy_memmove(_STD _To_address(_UFirst), _STD _To_address(_ULast), _STD _Unfancy(_Dest));

  004fb	83 c4 0c	 add	 esp, 12			; 0000000cH

; 1890 :                 _Dest += _ULast - _UFirst;

  004fe	03 bd 3c ff ff
	ff		 add	 edi, DWORD PTR __Dest$1$[ebp]
; File C:\Program Files\Microsoft Visual Studio\2022\Community\VC\Tools\MSVC\14.44.35207\include\vector

; 2120 :                 _My_data._Mylast = _STD _Uninitialized_copy(_STD forward<_Valty>(_Val)..., _My_data._Myfirst, _Al);

  00504	89 bd 84 fe ff
	ff		 mov	 DWORD PTR $T130[ebp+8], edi
$LN366@dynamic:
; File C:\Anka2Project\Anka2Project\Source\Binary\source\UserInterface\PythonPlayerSettingsModule.h

; 618  : static const std::map<uint8_t, std::map<uint8_t, std::vector<uint8_t>>> skillIndexes{

  0050a	c6 45 fc 0f	 mov	 BYTE PTR __$EHRec$[ebp+8], 15 ; 0000000fH
; File C:\Program Files\Microsoft Visual Studio\2022\Community\VC\Tools\MSVC\14.44.35207\include\initializer_list

; 34   :         : _First(_First_arg), _Last(_Last_arg) {}

  0050e	8d 55 b0	 lea	 edx, DWORD PTR $T143[ebp]
; File C:\Program Files\Microsoft Visual Studio\2022\Community\VC\Tools\MSVC\14.44.35207\include\vector

; 400  :     _CONSTEXPR20 _Vector_val() noexcept : _Myfirst(), _Mylast(), _Myend() {}

  00511	33 c0		 xor	 eax, eax
; File C:\Anka2Project\Anka2Project\Source\Binary\source\UserInterface\PythonPlayerSettingsModule.h

; 618  : static const std::map<uint8_t, std::map<uint8_t, std::vector<uint8_t>>> skillIndexes{

  00513	c7 45 b0 4c 4d
	4e 4f		 mov	 DWORD PTR $T143[ebp], 1330531660 ; 4f4e4d4cH
; File C:\Program Files\Microsoft Visual Studio\2022\Community\VC\Tools\MSVC\14.44.35207\include\initializer_list

; 34   :         : _First(_First_arg), _Last(_Last_arg) {}

  0051a	8d 7d be	 lea	 edi, DWORD PTR $T143[ebp+14]
; File C:\Anka2Project\Anka2Project\Source\Binary\source\UserInterface\PythonPlayerSettingsModule.h

; 618  : static const std::map<uint8_t, std::map<uint8_t, std::vector<uint8_t>>> skillIndexes{

  0051d	c7 45 b4 50 51
	00 00		 mov	 DWORD PTR $T143[ebp+4], 20816 ; 00005150H
; File C:\Program Files\Microsoft Visual Studio\2022\Community\VC\Tools\MSVC\14.44.35207\include\vector

; 400  :     _CONSTEXPR20 _Vector_val() noexcept : _Myfirst(), _Mylast(), _Myend() {}

  00524	33 c9		 xor	 ecx, ecx
; File C:\Anka2Project\Anka2Project\Source\Binary\source\UserInterface\PythonPlayerSettingsModule.h

; 618  : static const std::map<uint8_t, std::map<uint8_t, std::vector<uint8_t>>> skillIndexes{

  00526	c7 45 b8 89 00
	8a 00		 mov	 DWORD PTR $T143[ebp+8], 9044105 ; 008a0089H
  0052d	66 c7 45 bc 8b
	00		 mov	 WORD PTR $T143[ebp+12], 139 ; 0000008bH
; File C:\Program Files\Microsoft Visual Studio\2022\Community\VC\Tools\MSVC\14.44.35207\include\vector

; 400  :     _CONSTEXPR20 _Vector_val() noexcept : _Myfirst(), _Mylast(), _Myend() {}

  00533	89 8d 18 ff ff
	ff		 mov	 DWORD PTR $T147[ebp], ecx
  00539	89 85 1c ff ff
	ff		 mov	 DWORD PTR $T147[ebp+4], eax
  0053f	89 85 20 ff ff
	ff		 mov	 DWORD PTR $T147[ebp+8], eax

; 721  :         _Construct_n(_Convert_size<size_type>(_Ilist.size()), _Ilist.begin(), _Ilist.end());

  00545	2b fa		 sub	 edi, edx

; 2111 :         if (_Count != 0) {

  00547	74 32		 je	 SHORT $LN400@dynamic

; 2112 :             _Buy_nonzero(_Count);

  00549	57		 push	 edi
  0054a	8d 8d 18 ff ff
	ff		 lea	 ecx, DWORD PTR $T147[ebp]
  00550	e8 00 00 00 00	 call	 ?_Buy_nonzero@?$vector@EV?$allocator@E@std@@@std@@AAEXI@Z ; std::vector<unsigned char,std::allocator<unsigned char> >::_Buy_nonzero

; 2120 :                 _My_data._Mylast = _STD _Uninitialized_copy(_STD forward<_Valty>(_Val)..., _My_data._Myfirst, _Al);

  00555	8b b5 18 ff ff
	ff		 mov	 esi, DWORD PTR $T147[ebp]
; File C:\Program Files\Microsoft Visual Studio\2022\Community\VC\Tools\MSVC\14.44.35207\include\xmemory

; 1889 :                 _STD _Copy_memmove(_STD _To_address(_UFirst), _STD _To_address(_ULast), _STD _Unfancy(_Dest));

  0055b	8d 45 be	 lea	 eax, DWORD PTR $T143[ebp+14]
  0055e	56		 push	 esi
  0055f	50		 push	 eax
  00560	8d 45 b0	 lea	 eax, DWORD PTR $T143[ebp]
  00563	50		 push	 eax
  00564	e8 00 00 00 00	 call	 ??$_Copy_memmove@PBEPAE@std@@YAPAEPBE0PAE@Z ; std::_Copy_memmove<unsigned char const *,unsigned char *>
; File C:\Program Files\Microsoft Visual Studio\2022\Community\VC\Tools\MSVC\14.44.35207\include\vector

; 2120 :                 _My_data._Mylast = _STD _Uninitialized_copy(_STD forward<_Valty>(_Val)..., _My_data._Myfirst, _Al);

  00569	8b 8d 18 ff ff
	ff		 mov	 ecx, DWORD PTR $T147[ebp]
; File C:\Program Files\Microsoft Visual Studio\2022\Community\VC\Tools\MSVC\14.44.35207\include\xmemory

; 1890 :                 _Dest += _ULast - _UFirst;

  0056f	8d 04 37	 lea	 eax, DWORD PTR [edi+esi]
  00572	83 c4 0c	 add	 esp, 12			; 0000000cH
; File C:\Program Files\Microsoft Visual Studio\2022\Community\VC\Tools\MSVC\14.44.35207\include\vector

; 2120 :                 _My_data._Mylast = _STD _Uninitialized_copy(_STD forward<_Valty>(_Val)..., _My_data._Myfirst, _Al);

  00575	89 85 1c ff ff
	ff		 mov	 DWORD PTR $T147[ebp+4], eax
$LN400@dynamic:
; File C:\Anka2Project\Anka2Project\Source\Binary\source\UserInterface\PythonPlayerSettingsModule.h

; 618  : static const std::map<uint8_t, std::map<uint8_t, std::vector<uint8_t>>> skillIndexes{

  0057b	c6 45 fc 10	 mov	 BYTE PTR __$EHRec$[ebp+8], 16 ; 00000010H
; File C:\Program Files\Microsoft Visual Studio\2022\Community\VC\Tools\MSVC\14.44.35207\include\utility

; 263  :         : first(_Val1), second(_Val2) {}

  0057f	c6 85 8c fe ff
	ff 02		 mov	 BYTE PTR $T130[ebp+16], 2
; File C:\Program Files\Microsoft Visual Studio\2022\Community\VC\Tools\MSVC\14.44.35207\include\vector

; 400  :     _CONSTEXPR20 _Vector_val() noexcept : _Myfirst(), _Mylast(), _Myend() {}

  00586	c7 85 90 fe ff
	ff 00 00 00 00	 mov	 DWORD PTR $T130[ebp+20], 0
  00590	c7 85 94 fe ff
	ff 00 00 00 00	 mov	 DWORD PTR $T130[ebp+24], 0
  0059a	c7 85 98 fe ff
	ff 00 00 00 00	 mov	 DWORD PTR $T130[ebp+28], 0

; 748  :         const auto _Count       = static_cast<size_type>(_Right_data._Mylast - _Right_data._Myfirst);

  005a4	2b c1		 sub	 eax, ecx

; 2111 :         if (_Count != 0) {

  005a6	74 3d		 je	 SHORT $LN431@dynamic

; 2112 :             _Buy_nonzero(_Count);

  005a8	50		 push	 eax
  005a9	8d 8d 90 fe ff
	ff		 lea	 ecx, DWORD PTR $T130[ebp+20]
  005af	e8 00 00 00 00	 call	 ?_Buy_nonzero@?$vector@EV?$allocator@E@std@@@std@@AAEXI@Z ; std::vector<unsigned char,std::allocator<unsigned char> >::_Buy_nonzero

; 2120 :                 _My_data._Mylast = _STD _Uninitialized_copy(_STD forward<_Valty>(_Val)..., _My_data._Myfirst, _Al);

  005b4	8b 85 90 fe ff
	ff		 mov	 eax, DWORD PTR $T130[ebp+20]
; File C:\Program Files\Microsoft Visual Studio\2022\Community\VC\Tools\MSVC\14.44.35207\include\xmemory

; 1872 :     auto _ULast  = _RANGES _Unwrap_sent<_InIt>(_STD move(_Last));

  005ba	8b bd 1c ff ff
	ff		 mov	 edi, DWORD PTR $T147[ebp+4]
  005c0	8b b5 18 ff ff
	ff		 mov	 esi, DWORD PTR $T147[ebp]

; 1889 :                 _STD _Copy_memmove(_STD _To_address(_UFirst), _STD _To_address(_ULast), _STD _Unfancy(_Dest));

  005c6	50		 push	 eax
  005c7	57		 push	 edi
  005c8	56		 push	 esi
; File C:\Program Files\Microsoft Visual Studio\2022\Community\VC\Tools\MSVC\14.44.35207\include\vector

; 2120 :                 _My_data._Mylast = _STD _Uninitialized_copy(_STD forward<_Valty>(_Val)..., _My_data._Myfirst, _Al);

  005c9	89 85 3c ff ff
	ff		 mov	 DWORD PTR __Dest$1$[ebp], eax
; File C:\Program Files\Microsoft Visual Studio\2022\Community\VC\Tools\MSVC\14.44.35207\include\xmemory

; 1889 :                 _STD _Copy_memmove(_STD _To_address(_UFirst), _STD _To_address(_ULast), _STD _Unfancy(_Dest));

  005cf	e8 00 00 00 00	 call	 ??$_Copy_memmove@PAEPAE@std@@YAPAEPAE00@Z ; std::_Copy_memmove<unsigned char *,unsigned char *>
; File C:\Program Files\Microsoft Visual Studio\2022\Community\VC\Tools\MSVC\14.44.35207\include\vector

; 2120 :                 _My_data._Mylast = _STD _Uninitialized_copy(_STD forward<_Valty>(_Val)..., _My_data._Myfirst, _Al);

  005d4	2b fe		 sub	 edi, esi
; File C:\Program Files\Microsoft Visual Studio\2022\Community\VC\Tools\MSVC\14.44.35207\include\xmemory

; 1889 :                 _STD _Copy_memmove(_STD _To_address(_UFirst), _STD _To_address(_ULast), _STD _Unfancy(_Dest));

  005d6	83 c4 0c	 add	 esp, 12			; 0000000cH

; 1890 :                 _Dest += _ULast - _UFirst;

  005d9	03 bd 3c ff ff
	ff		 add	 edi, DWORD PTR __Dest$1$[ebp]
; File C:\Program Files\Microsoft Visual Studio\2022\Community\VC\Tools\MSVC\14.44.35207\include\vector

; 2120 :                 _My_data._Mylast = _STD _Uninitialized_copy(_STD forward<_Valty>(_Val)..., _My_data._Myfirst, _Al);

  005df	89 bd 94 fe ff
	ff		 mov	 DWORD PTR $T130[ebp+24], edi
$LN431@dynamic:
; File C:\Program Files\Microsoft Visual Studio\2022\Community\VC\Tools\MSVC\14.44.35207\include\initializer_list

; 34   :         : _First(_First_arg), _Last(_Last_arg) {}

  005e5	8d 85 9c fe ff
	ff		 lea	 eax, DWORD PTR $T130[ebp+32]
; File C:\Anka2Project\Anka2Project\Source\Binary\source\UserInterface\PythonPlayerSettingsModule.h

; 618  : static const std::map<uint8_t, std::map<uint8_t, std::vector<uint8_t>>> skillIndexes{

  005eb	c6 45 fc 12	 mov	 BYTE PTR __$EHRec$[ebp+8], 18 ; 00000012H
; File C:\Program Files\Microsoft Visual Studio\2022\Community\VC\Tools\MSVC\14.44.35207\include\initializer_list

; 34   :         : _First(_First_arg), _Last(_Last_arg) {}

  005ef	8d 8d 7c fe ff
	ff		 lea	 ecx, DWORD PTR $T130[ebp]
; File C:\Anka2Project\Anka2Project\Source\Binary\source\UserInterface\PythonPlayerSettingsModule.h

; 618  : static const std::map<uint8_t, std::map<uint8_t, std::vector<uint8_t>>> skillIndexes{

  005f5	50		 push	 eax
  005f6	51		 push	 ecx
  005f7	8d 8d cc fe ff
	ff		 lea	 ecx, DWORD PTR $T168[ebp]
  005fd	e8 00 00 00 00	 call	 ??0?$map@EV?$vector@EV?$allocator@E@std@@@std@@U?$less@E@2@V?$allocator@U?$pair@$$CBEV?$vector@EV?$allocator@E@std@@@std@@@std@@@2@@std@@QAE@V?$initializer_list@U?$pair@$$CBEV?$vector@EV?$allocator@E@std@@@std@@@std@@@1@@Z ; std::map<unsigned char,std::vector<unsigned char,std::allocator<unsigned char> >,std::less<unsigned char>,std::allocator<std::pair<unsigned char const ,std::vector<unsigned char,std::allocator<unsigned char> > > > >::map<unsigned char,std::vector<unsigned char,std::allocator<unsigned char> >,std::less<unsigned char>,std::allocator<std::pair<unsigned char const ,std::vector<unsigned char,std::allocator<unsigned char> > > > >
; File C:\Program Files\Microsoft Visual Studio\2022\Community\VC\Tools\MSVC\14.44.35207\include\utility

; 263  :         : first(_Val1), second(_Val2) {}

  00602	8d 85 cc fe ff
	ff		 lea	 eax, DWORD PTR $T168[ebp]
; File C:\Anka2Project\Anka2Project\Source\Binary\source\UserInterface\PythonPlayerSettingsModule.h

; 618  : static const std::map<uint8_t, std::map<uint8_t, std::vector<uint8_t>>> skillIndexes{

  00608	c6 45 fc 13	 mov	 BYTE PTR __$EHRec$[ebp+8], 19 ; 00000013H
; File C:\Program Files\Microsoft Visual Studio\2022\Community\VC\Tools\MSVC\14.44.35207\include\utility

; 263  :         : first(_Val1), second(_Val2) {}

  0060c	50		 push	 eax
  0060d	8d 8d 5c ff ff
	ff		 lea	 ecx, DWORD PTR $T56[ebp+28]
  00613	c6 85 58 ff ff
	ff 02		 mov	 BYTE PTR $T56[ebp+24], 2
  0061a	e8 00 00 00 00	 call	 ??0?$map@EV?$vector@EV?$allocator@E@std@@@std@@U?$less@E@2@V?$allocator@U?$pair@$$CBEV?$vector@EV?$allocator@E@std@@@std@@@std@@@2@@std@@QAE@ABV01@@Z ; std::map<unsigned char,std::vector<unsigned char,std::allocator<unsigned char> >,std::less<unsigned char>,std::allocator<std::pair<unsigned char const ,std::vector<unsigned char,std::allocator<unsigned char> > > > >::map<unsigned char,std::vector<unsigned char,std::allocator<unsigned char> >,std::less<unsigned char>,std::allocator<std::pair<unsigned char const ,std::vector<unsigned char,std::allocator<unsigned char> > > > >
; File C:\Anka2Project\Anka2Project\Source\Binary\source\UserInterface\PythonPlayerSettingsModule.h

; 618  : static const std::map<uint8_t, std::map<uint8_t, std::vector<uint8_t>>> skillIndexes{

  0061f	c6 45 fc 14	 mov	 BYTE PTR __$EHRec$[ebp+8], 20 ; 00000014H
; File C:\Program Files\Microsoft Visual Studio\2022\Community\VC\Tools\MSVC\14.44.35207\include\initializer_list

; 34   :         : _First(_First_arg), _Last(_Last_arg) {}

  00623	8d 55 a0	 lea	 edx, DWORD PTR $T173[ebp]
; File C:\Program Files\Microsoft Visual Studio\2022\Community\VC\Tools\MSVC\14.44.35207\include\vector

; 400  :     _CONSTEXPR20 _Vector_val() noexcept : _Myfirst(), _Mylast(), _Myend() {}

  00626	33 c0		 xor	 eax, eax
; File C:\Anka2Project\Anka2Project\Source\Binary\source\UserInterface\PythonPlayerSettingsModule.h

; 618  : static const std::map<uint8_t, std::map<uint8_t, std::vector<uint8_t>>> skillIndexes{

  00628	c7 45 a0 5b 5c
	5d 5e		 mov	 DWORD PTR $T173[ebp], 1583176795 ; 5e5d5c5bH
; File C:\Program Files\Microsoft Visual Studio\2022\Community\VC\Tools\MSVC\14.44.35207\include\initializer_list

; 34   :         : _First(_First_arg), _Last(_Last_arg) {}

  0062f	8d 7d ae	 lea	 edi, DWORD PTR $T173[ebp+14]
; File C:\Anka2Project\Anka2Project\Source\Binary\source\UserInterface\PythonPlayerSettingsModule.h

; 618  : static const std::map<uint8_t, std::map<uint8_t, std::vector<uint8_t>>> skillIndexes{

  00632	c7 45 a4 5f 60
	00 00		 mov	 DWORD PTR $T173[ebp+4], 24671 ; 0000605fH
; File C:\Program Files\Microsoft Visual Studio\2022\Community\VC\Tools\MSVC\14.44.35207\include\vector

; 400  :     _CONSTEXPR20 _Vector_val() noexcept : _Myfirst(), _Mylast(), _Myend() {}

  00639	33 c9		 xor	 ecx, ecx
; File C:\Anka2Project\Anka2Project\Source\Binary\source\UserInterface\PythonPlayerSettingsModule.h

; 618  : static const std::map<uint8_t, std::map<uint8_t, std::vector<uint8_t>>> skillIndexes{

  0063b	c7 45 a8 89 00
	8a 00		 mov	 DWORD PTR $T173[ebp+8], 9044105 ; 008a0089H
  00642	66 c7 45 ac 8b
	00		 mov	 WORD PTR $T173[ebp+12], 139 ; 0000008bH
; File C:\Program Files\Microsoft Visual Studio\2022\Community\VC\Tools\MSVC\14.44.35207\include\vector

; 400  :     _CONSTEXPR20 _Vector_val() noexcept : _Myfirst(), _Mylast(), _Myend() {}

  00648	89 8d 24 ff ff
	ff		 mov	 DWORD PTR $T177[ebp], ecx
  0064e	89 85 28 ff ff
	ff		 mov	 DWORD PTR $T177[ebp+4], eax
  00654	89 85 2c ff ff
	ff		 mov	 DWORD PTR $T177[ebp+8], eax

; 721  :         _Construct_n(_Convert_size<size_type>(_Ilist.size()), _Ilist.begin(), _Ilist.end());

  0065a	2b fa		 sub	 edi, edx

; 2111 :         if (_Count != 0) {

  0065c	74 32		 je	 SHORT $LN471@dynamic

; 2112 :             _Buy_nonzero(_Count);

  0065e	57		 push	 edi
  0065f	8d 8d 24 ff ff
	ff		 lea	 ecx, DWORD PTR $T177[ebp]
  00665	e8 00 00 00 00	 call	 ?_Buy_nonzero@?$vector@EV?$allocator@E@std@@@std@@AAEXI@Z ; std::vector<unsigned char,std::allocator<unsigned char> >::_Buy_nonzero

; 2120 :                 _My_data._Mylast = _STD _Uninitialized_copy(_STD forward<_Valty>(_Val)..., _My_data._Myfirst, _Al);

  0066a	8b b5 24 ff ff
	ff		 mov	 esi, DWORD PTR $T177[ebp]
; File C:\Program Files\Microsoft Visual Studio\2022\Community\VC\Tools\MSVC\14.44.35207\include\xmemory

; 1889 :                 _STD _Copy_memmove(_STD _To_address(_UFirst), _STD _To_address(_ULast), _STD _Unfancy(_Dest));

  00670	8d 45 ae	 lea	 eax, DWORD PTR $T173[ebp+14]
  00673	56		 push	 esi
  00674	50		 push	 eax
  00675	8d 45 a0	 lea	 eax, DWORD PTR $T173[ebp]
  00678	50		 push	 eax
  00679	e8 00 00 00 00	 call	 ??$_Copy_memmove@PBEPAE@std@@YAPAEPBE0PAE@Z ; std::_Copy_memmove<unsigned char const *,unsigned char *>
; File C:\Program Files\Microsoft Visual Studio\2022\Community\VC\Tools\MSVC\14.44.35207\include\vector

; 2120 :                 _My_data._Mylast = _STD _Uninitialized_copy(_STD forward<_Valty>(_Val)..., _My_data._Myfirst, _Al);

  0067e	8b 8d 24 ff ff
	ff		 mov	 ecx, DWORD PTR $T177[ebp]
; File C:\Program Files\Microsoft Visual Studio\2022\Community\VC\Tools\MSVC\14.44.35207\include\xmemory

; 1890 :                 _Dest += _ULast - _UFirst;

  00684	8d 04 3e	 lea	 eax, DWORD PTR [esi+edi]
  00687	83 c4 0c	 add	 esp, 12			; 0000000cH
; File C:\Program Files\Microsoft Visual Studio\2022\Community\VC\Tools\MSVC\14.44.35207\include\vector

; 2120 :                 _My_data._Mylast = _STD _Uninitialized_copy(_STD forward<_Valty>(_Val)..., _My_data._Myfirst, _Al);

  0068a	89 85 28 ff ff
	ff		 mov	 DWORD PTR $T177[ebp+4], eax
$LN471@dynamic:
; File C:\Anka2Project\Anka2Project\Source\Binary\source\UserInterface\PythonPlayerSettingsModule.h

; 618  : static const std::map<uint8_t, std::map<uint8_t, std::vector<uint8_t>>> skillIndexes{

  00690	c6 45 fc 15	 mov	 BYTE PTR __$EHRec$[ebp+8], 21 ; 00000015H
; File C:\Program Files\Microsoft Visual Studio\2022\Community\VC\Tools\MSVC\14.44.35207\include\utility

; 263  :         : first(_Val1), second(_Val2) {}

  00694	c6 85 9c fe ff
	ff 01		 mov	 BYTE PTR $T186[ebp], 1
; File C:\Program Files\Microsoft Visual Studio\2022\Community\VC\Tools\MSVC\14.44.35207\include\vector

; 400  :     _CONSTEXPR20 _Vector_val() noexcept : _Myfirst(), _Mylast(), _Myend() {}

  0069b	c7 85 a0 fe ff
	ff 00 00 00 00	 mov	 DWORD PTR $T186[ebp+4], 0
  006a5	c7 85 a4 fe ff
	ff 00 00 00 00	 mov	 DWORD PTR $T186[ebp+8], 0
  006af	c7 85 a8 fe ff
	ff 00 00 00 00	 mov	 DWORD PTR $T186[ebp+12], 0

; 748  :         const auto _Count       = static_cast<size_type>(_Right_data._Mylast - _Right_data._Myfirst);

  006b9	2b c1		 sub	 eax, ecx

; 2111 :         if (_Count != 0) {

  006bb	74 3d		 je	 SHORT $LN502@dynamic

; 2112 :             _Buy_nonzero(_Count);

  006bd	50		 push	 eax
  006be	8d 8d a0 fe ff
	ff		 lea	 ecx, DWORD PTR $T186[ebp+4]
  006c4	e8 00 00 00 00	 call	 ?_Buy_nonzero@?$vector@EV?$allocator@E@std@@@std@@AAEXI@Z ; std::vector<unsigned char,std::allocator<unsigned char> >::_Buy_nonzero

; 2120 :                 _My_data._Mylast = _STD _Uninitialized_copy(_STD forward<_Valty>(_Val)..., _My_data._Myfirst, _Al);

  006c9	8b 85 a0 fe ff
	ff		 mov	 eax, DWORD PTR $T186[ebp+4]
; File C:\Program Files\Microsoft Visual Studio\2022\Community\VC\Tools\MSVC\14.44.35207\include\xmemory

; 1872 :     auto _ULast  = _RANGES _Unwrap_sent<_InIt>(_STD move(_Last));

  006cf	8b bd 28 ff ff
	ff		 mov	 edi, DWORD PTR $T177[ebp+4]
  006d5	8b b5 24 ff ff
	ff		 mov	 esi, DWORD PTR $T177[ebp]

; 1889 :                 _STD _Copy_memmove(_STD _To_address(_UFirst), _STD _To_address(_ULast), _STD _Unfancy(_Dest));

  006db	50		 push	 eax
  006dc	57		 push	 edi
  006dd	56		 push	 esi
; File C:\Program Files\Microsoft Visual Studio\2022\Community\VC\Tools\MSVC\14.44.35207\include\vector

; 2120 :                 _My_data._Mylast = _STD _Uninitialized_copy(_STD forward<_Valty>(_Val)..., _My_data._Myfirst, _Al);

  006de	89 85 3c ff ff
	ff		 mov	 DWORD PTR __Dest$1$[ebp], eax
; File C:\Program Files\Microsoft Visual Studio\2022\Community\VC\Tools\MSVC\14.44.35207\include\xmemory

; 1889 :                 _STD _Copy_memmove(_STD _To_address(_UFirst), _STD _To_address(_ULast), _STD _Unfancy(_Dest));

  006e4	e8 00 00 00 00	 call	 ??$_Copy_memmove@PAEPAE@std@@YAPAEPAE00@Z ; std::_Copy_memmove<unsigned char *,unsigned char *>
; File C:\Program Files\Microsoft Visual Studio\2022\Community\VC\Tools\MSVC\14.44.35207\include\vector

; 2120 :                 _My_data._Mylast = _STD _Uninitialized_copy(_STD forward<_Valty>(_Val)..., _My_data._Myfirst, _Al);

  006e9	2b fe		 sub	 edi, esi
; File C:\Program Files\Microsoft Visual Studio\2022\Community\VC\Tools\MSVC\14.44.35207\include\xmemory

; 1889 :                 _STD _Copy_memmove(_STD _To_address(_UFirst), _STD _To_address(_ULast), _STD _Unfancy(_Dest));

  006eb	83 c4 0c	 add	 esp, 12			; 0000000cH

; 1890 :                 _Dest += _ULast - _UFirst;

  006ee	03 bd 3c ff ff
	ff		 add	 edi, DWORD PTR __Dest$1$[ebp]
; File C:\Program Files\Microsoft Visual Studio\2022\Community\VC\Tools\MSVC\14.44.35207\include\vector

; 2120 :                 _My_data._Mylast = _STD _Uninitialized_copy(_STD forward<_Valty>(_Val)..., _My_data._Myfirst, _Al);

  006f4	89 bd a4 fe ff
	ff		 mov	 DWORD PTR $T186[ebp+8], edi
$LN502@dynamic:
; File C:\Anka2Project\Anka2Project\Source\Binary\source\UserInterface\PythonPlayerSettingsModule.h

; 618  : static const std::map<uint8_t, std::map<uint8_t, std::vector<uint8_t>>> skillIndexes{

  006fa	c6 45 fc 16	 mov	 BYTE PTR __$EHRec$[ebp+8], 22 ; 00000016H
; File C:\Program Files\Microsoft Visual Studio\2022\Community\VC\Tools\MSVC\14.44.35207\include\initializer_list

; 34   :         : _First(_First_arg), _Last(_Last_arg) {}

  006fe	8d 55 90	 lea	 edx, DWORD PTR $T199[ebp]
; File C:\Program Files\Microsoft Visual Studio\2022\Community\VC\Tools\MSVC\14.44.35207\include\vector

; 400  :     _CONSTEXPR20 _Vector_val() noexcept : _Myfirst(), _Mylast(), _Myend() {}

  00701	33 c0		 xor	 eax, eax
; File C:\Anka2Project\Anka2Project\Source\Binary\source\UserInterface\PythonPlayerSettingsModule.h

; 618  : static const std::map<uint8_t, std::map<uint8_t, std::vector<uint8_t>>> skillIndexes{

  00703	c7 45 90 6a 6b
	6c 6d		 mov	 DWORD PTR $T199[ebp], 1835821930 ; 6d6c6b6aH
; File C:\Program Files\Microsoft Visual Studio\2022\Community\VC\Tools\MSVC\14.44.35207\include\initializer_list

; 34   :         : _First(_First_arg), _Last(_Last_arg) {}

  0070a	8d 7d 9e	 lea	 edi, DWORD PTR $T199[ebp+14]
; File C:\Anka2Project\Anka2Project\Source\Binary\source\UserInterface\PythonPlayerSettingsModule.h

; 618  : static const std::map<uint8_t, std::map<uint8_t, std::vector<uint8_t>>> skillIndexes{

  0070d	c7 45 94 6e 6f
	00 00		 mov	 DWORD PTR $T199[ebp+4], 28526 ; 00006f6eH
; File C:\Program Files\Microsoft Visual Studio\2022\Community\VC\Tools\MSVC\14.44.35207\include\vector

; 400  :     _CONSTEXPR20 _Vector_val() noexcept : _Myfirst(), _Mylast(), _Myend() {}

  00714	33 c9		 xor	 ecx, ecx
; File C:\Anka2Project\Anka2Project\Source\Binary\source\UserInterface\PythonPlayerSettingsModule.h

; 618  : static const std::map<uint8_t, std::map<uint8_t, std::vector<uint8_t>>> skillIndexes{

  00716	c7 45 98 89 00
	8a 00		 mov	 DWORD PTR $T199[ebp+8], 9044105 ; 008a0089H
  0071d	66 c7 45 9c 8b
	00		 mov	 WORD PTR $T199[ebp+12], 139 ; 0000008bH
; File C:\Program Files\Microsoft Visual Studio\2022\Community\VC\Tools\MSVC\14.44.35207\include\vector

; 400  :     _CONSTEXPR20 _Vector_val() noexcept : _Myfirst(), _Mylast(), _Myend() {}

  00723	89 8d 30 ff ff
	ff		 mov	 DWORD PTR $T203[ebp], ecx
  00729	89 85 34 ff ff
	ff		 mov	 DWORD PTR $T203[ebp+4], eax
  0072f	89 85 38 ff ff
	ff		 mov	 DWORD PTR $T203[ebp+8], eax

; 721  :         _Construct_n(_Convert_size<size_type>(_Ilist.size()), _Ilist.begin(), _Ilist.end());

  00735	2b fa		 sub	 edi, edx

; 2111 :         if (_Count != 0) {

  00737	74 32		 je	 SHORT $LN536@dynamic

; 2112 :             _Buy_nonzero(_Count);

  00739	57		 push	 edi
  0073a	8d 8d 30 ff ff
	ff		 lea	 ecx, DWORD PTR $T203[ebp]
  00740	e8 00 00 00 00	 call	 ?_Buy_nonzero@?$vector@EV?$allocator@E@std@@@std@@AAEXI@Z ; std::vector<unsigned char,std::allocator<unsigned char> >::_Buy_nonzero

; 2120 :                 _My_data._Mylast = _STD _Uninitialized_copy(_STD forward<_Valty>(_Val)..., _My_data._Myfirst, _Al);

  00745	8b b5 30 ff ff
	ff		 mov	 esi, DWORD PTR $T203[ebp]
; File C:\Program Files\Microsoft Visual Studio\2022\Community\VC\Tools\MSVC\14.44.35207\include\xmemory

; 1889 :                 _STD _Copy_memmove(_STD _To_address(_UFirst), _STD _To_address(_ULast), _STD _Unfancy(_Dest));

  0074b	8d 45 9e	 lea	 eax, DWORD PTR $T199[ebp+14]
  0074e	56		 push	 esi
  0074f	50		 push	 eax
  00750	8d 45 90	 lea	 eax, DWORD PTR $T199[ebp]
  00753	50		 push	 eax
  00754	e8 00 00 00 00	 call	 ??$_Copy_memmove@PBEPAE@std@@YAPAEPBE0PAE@Z ; std::_Copy_memmove<unsigned char const *,unsigned char *>
; File C:\Program Files\Microsoft Visual Studio\2022\Community\VC\Tools\MSVC\14.44.35207\include\vector

; 2120 :                 _My_data._Mylast = _STD _Uninitialized_copy(_STD forward<_Valty>(_Val)..., _My_data._Myfirst, _Al);

  00759	8b 8d 30 ff ff
	ff		 mov	 ecx, DWORD PTR $T203[ebp]
; File C:\Program Files\Microsoft Visual Studio\2022\Community\VC\Tools\MSVC\14.44.35207\include\xmemory

; 1890 :                 _Dest += _ULast - _UFirst;

  0075f	8d 04 3e	 lea	 eax, DWORD PTR [esi+edi]
  00762	83 c4 0c	 add	 esp, 12			; 0000000cH
; File C:\Program Files\Microsoft Visual Studio\2022\Community\VC\Tools\MSVC\14.44.35207\include\vector

; 2120 :                 _My_data._Mylast = _STD _Uninitialized_copy(_STD forward<_Valty>(_Val)..., _My_data._Myfirst, _Al);

  00765	89 85 34 ff ff
	ff		 mov	 DWORD PTR $T203[ebp+4], eax
$LN536@dynamic:
; File C:\Anka2Project\Anka2Project\Source\Binary\source\UserInterface\PythonPlayerSettingsModule.h

; 618  : static const std::map<uint8_t, std::map<uint8_t, std::vector<uint8_t>>> skillIndexes{

  0076b	c6 45 fc 17	 mov	 BYTE PTR __$EHRec$[ebp+8], 23 ; 00000017H
; File C:\Program Files\Microsoft Visual Studio\2022\Community\VC\Tools\MSVC\14.44.35207\include\utility

; 263  :         : first(_Val1), second(_Val2) {}

  0076f	c6 85 ac fe ff
	ff 02		 mov	 BYTE PTR $T186[ebp+16], 2
; File C:\Program Files\Microsoft Visual Studio\2022\Community\VC\Tools\MSVC\14.44.35207\include\vector

; 400  :     _CONSTEXPR20 _Vector_val() noexcept : _Myfirst(), _Mylast(), _Myend() {}

  00776	c7 85 b0 fe ff
	ff 00 00 00 00	 mov	 DWORD PTR $T186[ebp+20], 0
  00780	c7 85 b4 fe ff
	ff 00 00 00 00	 mov	 DWORD PTR $T186[ebp+24], 0
  0078a	c7 85 b8 fe ff
	ff 00 00 00 00	 mov	 DWORD PTR $T186[ebp+28], 0

; 748  :         const auto _Count       = static_cast<size_type>(_Right_data._Mylast - _Right_data._Myfirst);

  00794	2b c1		 sub	 eax, ecx

; 2111 :         if (_Count != 0) {

  00796	74 3d		 je	 SHORT $LN567@dynamic

; 2112 :             _Buy_nonzero(_Count);

  00798	50		 push	 eax
  00799	8d 8d b0 fe ff
	ff		 lea	 ecx, DWORD PTR $T186[ebp+20]
  0079f	e8 00 00 00 00	 call	 ?_Buy_nonzero@?$vector@EV?$allocator@E@std@@@std@@AAEXI@Z ; std::vector<unsigned char,std::allocator<unsigned char> >::_Buy_nonzero

; 2120 :                 _My_data._Mylast = _STD _Uninitialized_copy(_STD forward<_Valty>(_Val)..., _My_data._Myfirst, _Al);

  007a4	8b 85 b0 fe ff
	ff		 mov	 eax, DWORD PTR $T186[ebp+20]
; File C:\Program Files\Microsoft Visual Studio\2022\Community\VC\Tools\MSVC\14.44.35207\include\xmemory

; 1872 :     auto _ULast  = _RANGES _Unwrap_sent<_InIt>(_STD move(_Last));

  007aa	8b bd 34 ff ff
	ff		 mov	 edi, DWORD PTR $T203[ebp+4]
  007b0	8b b5 30 ff ff
	ff		 mov	 esi, DWORD PTR $T203[ebp]

; 1889 :                 _STD _Copy_memmove(_STD _To_address(_UFirst), _STD _To_address(_ULast), _STD _Unfancy(_Dest));

  007b6	50		 push	 eax
  007b7	57		 push	 edi
  007b8	56		 push	 esi
; File C:\Program Files\Microsoft Visual Studio\2022\Community\VC\Tools\MSVC\14.44.35207\include\vector

; 2120 :                 _My_data._Mylast = _STD _Uninitialized_copy(_STD forward<_Valty>(_Val)..., _My_data._Myfirst, _Al);

  007b9	89 85 3c ff ff
	ff		 mov	 DWORD PTR __Dest$1$[ebp], eax
; File C:\Program Files\Microsoft Visual Studio\2022\Community\VC\Tools\MSVC\14.44.35207\include\xmemory

; 1889 :                 _STD _Copy_memmove(_STD _To_address(_UFirst), _STD _To_address(_ULast), _STD _Unfancy(_Dest));

  007bf	e8 00 00 00 00	 call	 ??$_Copy_memmove@PAEPAE@std@@YAPAEPAE00@Z ; std::_Copy_memmove<unsigned char *,unsigned char *>
; File C:\Program Files\Microsoft Visual Studio\2022\Community\VC\Tools\MSVC\14.44.35207\include\vector

; 2120 :                 _My_data._Mylast = _STD _Uninitialized_copy(_STD forward<_Valty>(_Val)..., _My_data._Myfirst, _Al);

  007c4	2b fe		 sub	 edi, esi
; File C:\Program Files\Microsoft Visual Studio\2022\Community\VC\Tools\MSVC\14.44.35207\include\xmemory

; 1889 :                 _STD _Copy_memmove(_STD _To_address(_UFirst), _STD _To_address(_ULast), _STD _Unfancy(_Dest));

  007c6	83 c4 0c	 add	 esp, 12			; 0000000cH

; 1890 :                 _Dest += _ULast - _UFirst;

  007c9	03 bd 3c ff ff
	ff		 add	 edi, DWORD PTR __Dest$1$[ebp]
; File C:\Program Files\Microsoft Visual Studio\2022\Community\VC\Tools\MSVC\14.44.35207\include\vector

; 2120 :                 _My_data._Mylast = _STD _Uninitialized_copy(_STD forward<_Valty>(_Val)..., _My_data._Myfirst, _Al);

  007cf	89 bd b4 fe ff
	ff		 mov	 DWORD PTR $T186[ebp+24], edi
$LN567@dynamic:
; File C:\Program Files\Microsoft Visual Studio\2022\Community\VC\Tools\MSVC\14.44.35207\include\initializer_list

; 34   :         : _First(_First_arg), _Last(_Last_arg) {}

  007d5	8d 85 bc fe ff
	ff		 lea	 eax, DWORD PTR $T186[ebp+32]
; File C:\Anka2Project\Anka2Project\Source\Binary\source\UserInterface\PythonPlayerSettingsModule.h

; 618  : static const std::map<uint8_t, std::map<uint8_t, std::vector<uint8_t>>> skillIndexes{

  007db	c6 45 fc 19	 mov	 BYTE PTR __$EHRec$[ebp+8], 25 ; 00000019H
; File C:\Program Files\Microsoft Visual Studio\2022\Community\VC\Tools\MSVC\14.44.35207\include\initializer_list

; 34   :         : _First(_First_arg), _Last(_Last_arg) {}

  007df	8d 8d 9c fe ff
	ff		 lea	 ecx, DWORD PTR $T186[ebp]
; File C:\Anka2Project\Anka2Project\Source\Binary\source\UserInterface\PythonPlayerSettingsModule.h

; 618  : static const std::map<uint8_t, std::map<uint8_t, std::vector<uint8_t>>> skillIndexes{

  007e5	50		 push	 eax
  007e6	51		 push	 ecx
  007e7	8d 8d d4 fe ff
	ff		 lea	 ecx, DWORD PTR $T224[ebp]
  007ed	e8 00 00 00 00	 call	 ??0?$map@EV?$vector@EV?$allocator@E@std@@@std@@U?$less@E@2@V?$allocator@U?$pair@$$CBEV?$vector@EV?$allocator@E@std@@@std@@@std@@@2@@std@@QAE@V?$initializer_list@U?$pair@$$CBEV?$vector@EV?$allocator@E@std@@@std@@@std@@@1@@Z ; std::map<unsigned char,std::vector<unsigned char,std::allocator<unsigned char> >,std::less<unsigned char>,std::allocator<std::pair<unsigned char const ,std::vector<unsigned char,std::allocator<unsigned char> > > > >::map<unsigned char,std::vector<unsigned char,std::allocator<unsigned char> >,std::less<unsigned char>,std::allocator<std::pair<unsigned char const ,std::vector<unsigned char,std::allocator<unsigned char> > > > >
; File C:\Program Files\Microsoft Visual Studio\2022\Community\VC\Tools\MSVC\14.44.35207\include\utility

; 263  :         : first(_Val1), second(_Val2) {}

  007f2	8d 85 d4 fe ff
	ff		 lea	 eax, DWORD PTR $T224[ebp]
; File C:\Anka2Project\Anka2Project\Source\Binary\source\UserInterface\PythonPlayerSettingsModule.h

; 618  : static const std::map<uint8_t, std::map<uint8_t, std::vector<uint8_t>>> skillIndexes{

  007f8	c6 45 fc 1a	 mov	 BYTE PTR __$EHRec$[ebp+8], 26 ; 0000001aH
; File C:\Program Files\Microsoft Visual Studio\2022\Community\VC\Tools\MSVC\14.44.35207\include\utility

; 263  :         : first(_Val1), second(_Val2) {}

  007fc	50		 push	 eax
  007fd	8d 8d 68 ff ff
	ff		 lea	 ecx, DWORD PTR $T56[ebp+40]
  00803	c6 85 64 ff ff
	ff 03		 mov	 BYTE PTR $T56[ebp+36], 3
  0080a	e8 00 00 00 00	 call	 ??0?$map@EV?$vector@EV?$allocator@E@std@@@std@@U?$less@E@2@V?$allocator@U?$pair@$$CBEV?$vector@EV?$allocator@E@std@@@std@@@std@@@2@@std@@QAE@ABV01@@Z ; std::map<unsigned char,std::vector<unsigned char,std::allocator<unsigned char> >,std::less<unsigned char>,std::allocator<std::pair<unsigned char const ,std::vector<unsigned char,std::allocator<unsigned char> > > > >::map<unsigned char,std::vector<unsigned char,std::allocator<unsigned char> >,std::less<unsigned char>,std::allocator<std::pair<unsigned char const ,std::vector<unsigned char,std::allocator<unsigned char> > > > >
; File C:\Program Files\Microsoft Visual Studio\2022\Community\VC\Tools\MSVC\14.44.35207\include\initializer_list

; 34   :         : _First(_First_arg), _Last(_Last_arg) {}

  0080f	8d 85 70 ff ff
	ff		 lea	 eax, DWORD PTR $T56[ebp+48]
; File C:\Anka2Project\Anka2Project\Source\Binary\source\UserInterface\PythonPlayerSettingsModule.h

; 618  : static const std::map<uint8_t, std::map<uint8_t, std::vector<uint8_t>>> skillIndexes{

  00815	c6 45 fc 27	 mov	 BYTE PTR __$EHRec$[ebp+8], 39 ; 00000027H
; File C:\Program Files\Microsoft Visual Studio\2022\Community\VC\Tools\MSVC\14.44.35207\include\initializer_list

; 34   :         : _First(_First_arg), _Last(_Last_arg) {}

  00819	8d 8d 40 ff ff
	ff		 lea	 ecx, DWORD PTR $T56[ebp]
; File C:\Anka2Project\Anka2Project\Source\Binary\source\UserInterface\PythonPlayerSettingsModule.h

; 618  : static const std::map<uint8_t, std::map<uint8_t, std::vector<uint8_t>>> skillIndexes{

  0081f	50		 push	 eax
  00820	51		 push	 ecx
  00821	b9 00 00 00 00	 mov	 ecx, OFFSET ?skillIndexes@@3V?$map@EV?$map@EV?$vector@EV?$allocator@E@std@@@std@@U?$less@E@2@V?$allocator@U?$pair@$$CBEV?$vector@EV?$allocator@E@std@@@std@@@std@@@2@@std@@U?$less@E@2@V?$allocator@U?$pair@$$CBEV?$map@EV?$vector@EV?$allocator@E@std@@@std@@U?$less@E@2@V?$allocator@U?$pair@$$CBEV?$vector@EV?$allocator@E@std@@@std@@@std@@@2@@std@@@std@@@2@@std@@B
  00826	e8 00 00 00 00	 call	 ??0?$map@EV?$map@EV?$vector@EV?$allocator@E@std@@@std@@U?$less@E@2@V?$allocator@U?$pair@$$CBEV?$vector@EV?$allocator@E@std@@@std@@@std@@@2@@std@@U?$less@E@2@V?$allocator@U?$pair@$$CBEV?$map@EV?$vector@EV?$allocator@E@std@@@std@@U?$less@E@2@V?$allocator@U?$pair@$$CBEV?$vector@EV?$allocator@E@std@@@std@@@std@@@2@@std@@@std@@@2@@std@@QAE@V?$initializer_list@U?$pair@$$CBEV?$map@EV?$vector@EV?$allocator@E@std@@@std@@U?$less@E@2@V?$allocator@U?$pair@$$CBEV?$vector@EV?$allocator@E@std@@@std@@@std@@@2@@std@@@std@@@1@@Z ; std::map<unsigned char,std::map<unsigned char,std::vector<unsigned char,std::allocator<unsigned char> >,std::less<unsigned char>,std::allocator<std::pair<unsigned char const ,std::vector<unsigned char,std::allocator<unsigned char> > > > >,std::less<unsigned char>,std::allocator<std::pair<unsigned char const ,std::map<unsigned char,std::vector<unsigned char,std::allocator<unsigned char> >,std::less<unsigned char>,std::allocator<std::pair<unsigned char const ,std::vector<unsigned char,std::allocator<unsigned char> > > > > > > >::map<unsigned char,std::map<unsigned char,std::vector<unsigned char,std::allocator<unsigned char> >,std::less<unsigned char>,std::allocator<std::pair<unsigned char const ,std::vector<unsigned char,std::allocator<unsigned char> > > > >,std::less<unsigned char>,std::allocator<std::pair<unsigned char const ,std::map<unsigned char,std::vector<unsigned char,std::allocator<unsigned char> >,std::less<unsigned char>,std::allocator<std::pair<unsigned char const ,std::vector<unsigned char,std::allocator<unsigned char> > > > > > > >
  0082b	68 00 00 00 00	 push	 OFFSET ??1?$pair@$$CBEV?$map@EV?$vector@EV?$allocator@E@std@@@std@@U?$less@E@2@V?$allocator@U?$pair@$$CBEV?$vector@EV?$allocator@E@std@@@std@@@std@@@2@@std@@@std@@QAE@XZ
  00830	6a 04		 push	 4
  00832	6a 0c		 push	 12			; 0000000cH
  00834	8d 85 40 ff ff
	ff		 lea	 eax, DWORD PTR $T56[ebp]
  0083a	c6 45 fc 26	 mov	 BYTE PTR __$EHRec$[ebp+8], 38 ; 00000026H
  0083e	50		 push	 eax
  0083f	e8 00 00 00 00	 call	 ??_M@YGXPAXIIP6EX0@Z@Z
; File C:\Program Files\Microsoft Visual Studio\2022\Community\VC\Tools\MSVC\14.44.35207\include\xtree

; 777  :         _Erase_tree(_Al, _Myhead->_Parent);

  00844	8b 85 d4 fe ff
	ff		 mov	 eax, DWORD PTR $T224[ebp]
  0084a	ff 70 04	 push	 DWORD PTR [eax+4]
  0084d	8d 85 d4 fe ff
	ff		 lea	 eax, DWORD PTR $T224[ebp]
  00853	50		 push	 eax
  00854	8b c8		 mov	 ecx, eax
  00856	e8 00 00 00 00	 call	 ??$_Erase_tree@V?$allocator@U?$_Tree_node@U?$pair@$$CBEV?$vector@EV?$allocator@E@std@@@std@@@std@@PAX@std@@@std@@@?$_Tree_val@U?$_Tree_simple_types@U?$pair@$$CBEV?$vector@EV?$allocator@E@std@@@std@@@std@@@std@@@std@@QAEXAAV?$allocator@U?$_Tree_node@U?$pair@$$CBEV?$vector@EV?$allocator@E@std@@@std@@@std@@PAX@std@@@1@PAU?$_Tree_node@U?$pair@$$CBEV?$vector@EV?$allocator@E@std@@@std@@@std@@PAX@1@@Z ; std::_Tree_val<std::_Tree_simple_types<std::pair<unsigned char const ,std::vector<unsigned char,std::allocator<unsigned char> > > > >::_Erase_tree<std::allocator<std::_Tree_node<std::pair<unsigned char const ,std::vector<unsigned char,std::allocator<unsigned char> > >,void *> > >
; File C:\Program Files\Microsoft Visual Studio\2022\Community\VC\Tools\MSVC\14.44.35207\include\xmemory

; 289  :         ::operator delete(_Ptr, _Bytes);

  0085b	6a 20		 push	 32			; 00000020H
  0085d	ff b5 d4 fe ff
	ff		 push	 DWORD PTR $T224[ebp]
  00863	e8 00 00 00 00	 call	 ??3@YAXPAXI@Z		; operator delete
  00868	83 c4 08	 add	 esp, 8
; File C:\Anka2Project\Anka2Project\Source\Binary\source\UserInterface\PythonPlayerSettingsModule.h

; 618  : static const std::map<uint8_t, std::map<uint8_t, std::vector<uint8_t>>> skillIndexes{

  0086b	c6 45 fc 24	 mov	 BYTE PTR __$EHRec$[ebp+8], 36 ; 00000024H
  0086f	8d 85 9c fe ff
	ff		 lea	 eax, DWORD PTR $T186[ebp]
  00875	68 00 00 00 00	 push	 OFFSET ??1?$pair@$$CBEV?$vector@EV?$allocator@E@std@@@std@@@std@@QAE@XZ
  0087a	6a 02		 push	 2
  0087c	6a 10		 push	 16			; 00000010H
  0087e	50		 push	 eax
  0087f	e8 00 00 00 00	 call	 ??_M@YGXPAXIIP6EX0@Z@Z
  00884	c6 45 fc 23	 mov	 BYTE PTR __$EHRec$[ebp+8], 35 ; 00000023H
; File C:\Program Files\Microsoft Visual Studio\2022\Community\VC\Tools\MSVC\14.44.35207\include\vector

; 2090 :         if (_Myfirst) { // destroy and deallocate old array

  00888	8b 95 30 ff ff
	ff		 mov	 edx, DWORD PTR $T203[ebp]
  0088e	85 d2		 test	 edx, edx
  00890	74 4e		 je	 SHORT $LN632@dynamic

; 2093 :             _Al.deallocate(_Myfirst, static_cast<size_type>(_Myend - _Myfirst));

  00892	8b 8d 38 ff ff
	ff		 mov	 ecx, DWORD PTR $T203[ebp+8]
; File C:\Program Files\Microsoft Visual Studio\2022\Community\VC\Tools\MSVC\14.44.35207\include\xmemory

; 985  :         _STD _Deallocate<_New_alignof<_Ty>>(_Ptr, sizeof(_Ty) * _Count);

  00898	8b c2		 mov	 eax, edx
; File C:\Program Files\Microsoft Visual Studio\2022\Community\VC\Tools\MSVC\14.44.35207\include\vector

; 2093 :             _Al.deallocate(_Myfirst, static_cast<size_type>(_Myend - _Myfirst));

  0089a	2b ca		 sub	 ecx, edx
; File C:\Program Files\Microsoft Visual Studio\2022\Community\VC\Tools\MSVC\14.44.35207\include\xmemory

; 284  :         if (_Bytes >= _Big_allocation_threshold) {

  0089c	81 f9 00 10 00
	00		 cmp	 ecx, 4096		; 00001000H
  008a2	72 14		 jb	 SHORT $LN646@dynamic

; 205  :     const uintptr_t _Ptr_container   = _Ptr_user[-1];

  008a4	8b 50 fc	 mov	 edx, DWORD PTR [eax-4]
  008a7	83 c1 23	 add	 ecx, 35			; 00000023H
  008aa	2b c2		 sub	 eax, edx

; 219  :     _STL_VERIFY(_Back_shift >= _Min_back_shift && _Back_shift <= _Non_user_size, "invalid argument");

  008ac	83 c0 fc	 add	 eax, -4			; fffffffcH
  008af	83 f8 1f	 cmp	 eax, 31			; 0000001fH
  008b2	0f 87 6a 03 00
	00		 ja	 $LN950@dynamic
$LN646@dynamic:

; 289  :         ::operator delete(_Ptr, _Bytes);

  008b8	51		 push	 ecx
  008b9	52		 push	 edx
  008ba	e8 00 00 00 00	 call	 ??3@YAXPAXI@Z		; operator delete
  008bf	83 c4 08	 add	 esp, 8
; File C:\Program Files\Microsoft Visual Studio\2022\Community\VC\Tools\MSVC\14.44.35207\include\vector

; 2095 :             _Myfirst = nullptr;

  008c2	c7 85 30 ff ff
	ff 00 00 00 00	 mov	 DWORD PTR $T203[ebp], 0

; 2096 :             _Mylast  = nullptr;

  008cc	c7 85 34 ff ff
	ff 00 00 00 00	 mov	 DWORD PTR $T203[ebp+4], 0

; 2097 :             _Myend   = nullptr;

  008d6	c7 85 38 ff ff
	ff 00 00 00 00	 mov	 DWORD PTR $T203[ebp+8], 0
$LN632@dynamic:
; File C:\Anka2Project\Anka2Project\Source\Binary\source\UserInterface\PythonPlayerSettingsModule.h

; 618  : static const std::map<uint8_t, std::map<uint8_t, std::vector<uint8_t>>> skillIndexes{

  008e0	c6 45 fc 22	 mov	 BYTE PTR __$EHRec$[ebp+8], 34 ; 00000022H
; File C:\Program Files\Microsoft Visual Studio\2022\Community\VC\Tools\MSVC\14.44.35207\include\vector

; 2090 :         if (_Myfirst) { // destroy and deallocate old array

  008e4	8b 8d 24 ff ff
	ff		 mov	 ecx, DWORD PTR $T177[ebp]
  008ea	85 c9		 test	 ecx, ecx
  008ec	74 4e		 je	 SHORT $LN655@dynamic

; 2093 :             _Al.deallocate(_Myfirst, static_cast<size_type>(_Myend - _Myfirst));

  008ee	8b 95 2c ff ff
	ff		 mov	 edx, DWORD PTR $T177[ebp+8]
; File C:\Program Files\Microsoft Visual Studio\2022\Community\VC\Tools\MSVC\14.44.35207\include\xmemory

; 985  :         _STD _Deallocate<_New_alignof<_Ty>>(_Ptr, sizeof(_Ty) * _Count);

  008f4	8b c1		 mov	 eax, ecx
; File C:\Program Files\Microsoft Visual Studio\2022\Community\VC\Tools\MSVC\14.44.35207\include\vector

; 2093 :             _Al.deallocate(_Myfirst, static_cast<size_type>(_Myend - _Myfirst));

  008f6	2b d1		 sub	 edx, ecx
; File C:\Program Files\Microsoft Visual Studio\2022\Community\VC\Tools\MSVC\14.44.35207\include\xmemory

; 284  :         if (_Bytes >= _Big_allocation_threshold) {

  008f8	81 fa 00 10 00
	00		 cmp	 edx, 4096		; 00001000H
  008fe	72 14		 jb	 SHORT $LN669@dynamic

; 205  :     const uintptr_t _Ptr_container   = _Ptr_user[-1];

  00900	8b 48 fc	 mov	 ecx, DWORD PTR [eax-4]
  00903	83 c2 23	 add	 edx, 35			; 00000023H
  00906	2b c1		 sub	 eax, ecx

; 219  :     _STL_VERIFY(_Back_shift >= _Min_back_shift && _Back_shift <= _Non_user_size, "invalid argument");

  00908	83 c0 fc	 add	 eax, -4			; fffffffcH
  0090b	83 f8 1f	 cmp	 eax, 31			; 0000001fH
  0090e	0f 87 0e 03 00
	00		 ja	 $LN950@dynamic
$LN669@dynamic:

; 289  :         ::operator delete(_Ptr, _Bytes);

  00914	52		 push	 edx
  00915	51		 push	 ecx
  00916	e8 00 00 00 00	 call	 ??3@YAXPAXI@Z		; operator delete
  0091b	83 c4 08	 add	 esp, 8
; File C:\Program Files\Microsoft Visual Studio\2022\Community\VC\Tools\MSVC\14.44.35207\include\vector

; 2095 :             _Myfirst = nullptr;

  0091e	c7 85 24 ff ff
	ff 00 00 00 00	 mov	 DWORD PTR $T177[ebp], 0

; 2096 :             _Mylast  = nullptr;

  00928	c7 85 28 ff ff
	ff 00 00 00 00	 mov	 DWORD PTR $T177[ebp+4], 0

; 2097 :             _Myend   = nullptr;

  00932	c7 85 2c ff ff
	ff 00 00 00 00	 mov	 DWORD PTR $T177[ebp+8], 0
$LN655@dynamic:
; File C:\Program Files\Microsoft Visual Studio\2022\Community\VC\Tools\MSVC\14.44.35207\include\xtree

; 777  :         _Erase_tree(_Al, _Myhead->_Parent);

  0093c	8b 85 cc fe ff
	ff		 mov	 eax, DWORD PTR $T168[ebp]
  00942	ff 70 04	 push	 DWORD PTR [eax+4]
  00945	8d 85 cc fe ff
	ff		 lea	 eax, DWORD PTR $T168[ebp]
  0094b	50		 push	 eax
  0094c	8b c8		 mov	 ecx, eax
  0094e	e8 00 00 00 00	 call	 ??$_Erase_tree@V?$allocator@U?$_Tree_node@U?$pair@$$CBEV?$vector@EV?$allocator@E@std@@@std@@@std@@PAX@std@@@std@@@?$_Tree_val@U?$_Tree_simple_types@U?$pair@$$CBEV?$vector@EV?$allocator@E@std@@@std@@@std@@@std@@@std@@QAEXAAV?$allocator@U?$_Tree_node@U?$pair@$$CBEV?$vector@EV?$allocator@E@std@@@std@@@std@@PAX@std@@@1@PAU?$_Tree_node@U?$pair@$$CBEV?$vector@EV?$allocator@E@std@@@std@@@std@@PAX@1@@Z ; std::_Tree_val<std::_Tree_simple_types<std::pair<unsigned char const ,std::vector<unsigned char,std::allocator<unsigned char> > > > >::_Erase_tree<std::allocator<std::_Tree_node<std::pair<unsigned char const ,std::vector<unsigned char,std::allocator<unsigned char> > >,void *> > >
; File C:\Program Files\Microsoft Visual Studio\2022\Community\VC\Tools\MSVC\14.44.35207\include\xmemory

; 289  :         ::operator delete(_Ptr, _Bytes);

  00953	6a 20		 push	 32			; 00000020H
  00955	ff b5 cc fe ff
	ff		 push	 DWORD PTR $T168[ebp]
  0095b	e8 00 00 00 00	 call	 ??3@YAXPAXI@Z		; operator delete
  00960	83 c4 08	 add	 esp, 8
; File C:\Anka2Project\Anka2Project\Source\Binary\source\UserInterface\PythonPlayerSettingsModule.h

; 618  : static const std::map<uint8_t, std::map<uint8_t, std::vector<uint8_t>>> skillIndexes{

  00963	c6 45 fc 20	 mov	 BYTE PTR __$EHRec$[ebp+8], 32 ; 00000020H
  00967	8d 85 7c fe ff
	ff		 lea	 eax, DWORD PTR $T130[ebp]
  0096d	68 00 00 00 00	 push	 OFFSET ??1?$pair@$$CBEV?$vector@EV?$allocator@E@std@@@std@@@std@@QAE@XZ
  00972	6a 02		 push	 2
  00974	6a 10		 push	 16			; 00000010H
  00976	50		 push	 eax
  00977	e8 00 00 00 00	 call	 ??_M@YGXPAXIIP6EX0@Z@Z
  0097c	c6 45 fc 1f	 mov	 BYTE PTR __$EHRec$[ebp+8], 31 ; 0000001fH
; File C:\Program Files\Microsoft Visual Studio\2022\Community\VC\Tools\MSVC\14.44.35207\include\vector

; 2090 :         if (_Myfirst) { // destroy and deallocate old array

  00980	8b 95 18 ff ff
	ff		 mov	 edx, DWORD PTR $T147[ebp]
  00986	85 d2		 test	 edx, edx
  00988	74 4e		 je	 SHORT $LN726@dynamic

; 2093 :             _Al.deallocate(_Myfirst, static_cast<size_type>(_Myend - _Myfirst));

  0098a	8b 8d 20 ff ff
	ff		 mov	 ecx, DWORD PTR $T147[ebp+8]
; File C:\Program Files\Microsoft Visual Studio\2022\Community\VC\Tools\MSVC\14.44.35207\include\xmemory

; 985  :         _STD _Deallocate<_New_alignof<_Ty>>(_Ptr, sizeof(_Ty) * _Count);

  00990	8b c2		 mov	 eax, edx
; File C:\Program Files\Microsoft Visual Studio\2022\Community\VC\Tools\MSVC\14.44.35207\include\vector

; 2093 :             _Al.deallocate(_Myfirst, static_cast<size_type>(_Myend - _Myfirst));

  00992	2b ca		 sub	 ecx, edx
; File C:\Program Files\Microsoft Visual Studio\2022\Community\VC\Tools\MSVC\14.44.35207\include\xmemory

; 284  :         if (_Bytes >= _Big_allocation_threshold) {

  00994	81 f9 00 10 00
	00		 cmp	 ecx, 4096		; 00001000H
  0099a	72 14		 jb	 SHORT $LN740@dynamic

; 205  :     const uintptr_t _Ptr_container   = _Ptr_user[-1];

  0099c	8b 50 fc	 mov	 edx, DWORD PTR [eax-4]
  0099f	83 c1 23	 add	 ecx, 35			; 00000023H
  009a2	2b c2		 sub	 eax, edx

; 219  :     _STL_VERIFY(_Back_shift >= _Min_back_shift && _Back_shift <= _Non_user_size, "invalid argument");

  009a4	83 c0 fc	 add	 eax, -4			; fffffffcH
  009a7	83 f8 1f	 cmp	 eax, 31			; 0000001fH
  009aa	0f 87 72 02 00
	00		 ja	 $LN950@dynamic
$LN740@dynamic:

; 289  :         ::operator delete(_Ptr, _Bytes);

  009b0	51		 push	 ecx
  009b1	52		 push	 edx
  009b2	e8 00 00 00 00	 call	 ??3@YAXPAXI@Z		; operator delete
  009b7	83 c4 08	 add	 esp, 8
; File C:\Program Files\Microsoft Visual Studio\2022\Community\VC\Tools\MSVC\14.44.35207\include\vector

; 2095 :             _Myfirst = nullptr;

  009ba	c7 85 18 ff ff
	ff 00 00 00 00	 mov	 DWORD PTR $T147[ebp], 0

; 2096 :             _Mylast  = nullptr;

  009c4	c7 85 1c ff ff
	ff 00 00 00 00	 mov	 DWORD PTR $T147[ebp+4], 0

; 2097 :             _Myend   = nullptr;

  009ce	c7 85 20 ff ff
	ff 00 00 00 00	 mov	 DWORD PTR $T147[ebp+8], 0
$LN726@dynamic:
; File C:\Anka2Project\Anka2Project\Source\Binary\source\UserInterface\PythonPlayerSettingsModule.h

; 618  : static const std::map<uint8_t, std::map<uint8_t, std::vector<uint8_t>>> skillIndexes{

  009d8	c6 45 fc 1e	 mov	 BYTE PTR __$EHRec$[ebp+8], 30 ; 0000001eH
; File C:\Program Files\Microsoft Visual Studio\2022\Community\VC\Tools\MSVC\14.44.35207\include\vector

; 2090 :         if (_Myfirst) { // destroy and deallocate old array

  009dc	8b 8d 0c ff ff
	ff		 mov	 ecx, DWORD PTR $T121[ebp]
  009e2	85 c9		 test	 ecx, ecx
  009e4	74 4e		 je	 SHORT $LN749@dynamic

; 2093 :             _Al.deallocate(_Myfirst, static_cast<size_type>(_Myend - _Myfirst));

  009e6	8b 95 14 ff ff
	ff		 mov	 edx, DWORD PTR $T121[ebp+8]
; File C:\Program Files\Microsoft Visual Studio\2022\Community\VC\Tools\MSVC\14.44.35207\include\xmemory

; 985  :         _STD _Deallocate<_New_alignof<_Ty>>(_Ptr, sizeof(_Ty) * _Count);

  009ec	8b c1		 mov	 eax, ecx
; File C:\Program Files\Microsoft Visual Studio\2022\Community\VC\Tools\MSVC\14.44.35207\include\vector

; 2093 :             _Al.deallocate(_Myfirst, static_cast<size_type>(_Myend - _Myfirst));

  009ee	2b d1		 sub	 edx, ecx
; File C:\Program Files\Microsoft Visual Studio\2022\Community\VC\Tools\MSVC\14.44.35207\include\xmemory

; 284  :         if (_Bytes >= _Big_allocation_threshold) {

  009f0	81 fa 00 10 00
	00		 cmp	 edx, 4096		; 00001000H
  009f6	72 14		 jb	 SHORT $LN763@dynamic

; 205  :     const uintptr_t _Ptr_container   = _Ptr_user[-1];

  009f8	8b 48 fc	 mov	 ecx, DWORD PTR [eax-4]
  009fb	83 c2 23	 add	 edx, 35			; 00000023H
  009fe	2b c1		 sub	 eax, ecx

; 219  :     _STL_VERIFY(_Back_shift >= _Min_back_shift && _Back_shift <= _Non_user_size, "invalid argument");

  00a00	83 c0 fc	 add	 eax, -4			; fffffffcH
  00a03	83 f8 1f	 cmp	 eax, 31			; 0000001fH
  00a06	0f 87 16 02 00
	00		 ja	 $LN950@dynamic
$LN763@dynamic:

; 289  :         ::operator delete(_Ptr, _Bytes);

  00a0c	52		 push	 edx
  00a0d	51		 push	 ecx
  00a0e	e8 00 00 00 00	 call	 ??3@YAXPAXI@Z		; operator delete
  00a13	83 c4 08	 add	 esp, 8
; File C:\Program Files\Microsoft Visual Studio\2022\Community\VC\Tools\MSVC\14.44.35207\include\vector

; 2095 :             _Myfirst = nullptr;

  00a16	c7 85 0c ff ff
	ff 00 00 00 00	 mov	 DWORD PTR $T121[ebp], 0

; 2096 :             _Mylast  = nullptr;

  00a20	c7 85 10 ff ff
	ff 00 00 00 00	 mov	 DWORD PTR $T121[ebp+4], 0

; 2097 :             _Myend   = nullptr;

  00a2a	c7 85 14 ff ff
	ff 00 00 00 00	 mov	 DWORD PTR $T121[ebp+8], 0
$LN749@dynamic:
; File C:\Program Files\Microsoft Visual Studio\2022\Community\VC\Tools\MSVC\14.44.35207\include\xtree

; 777  :         _Erase_tree(_Al, _Myhead->_Parent);

  00a34	8b 85 c4 fe ff
	ff		 mov	 eax, DWORD PTR $T112[ebp]
  00a3a	ff 70 04	 push	 DWORD PTR [eax+4]
  00a3d	8d 85 c4 fe ff
	ff		 lea	 eax, DWORD PTR $T112[ebp]
  00a43	50		 push	 eax
  00a44	8b c8		 mov	 ecx, eax
  00a46	e8 00 00 00 00	 call	 ??$_Erase_tree@V?$allocator@U?$_Tree_node@U?$pair@$$CBEV?$vector@EV?$allocator@E@std@@@std@@@std@@PAX@std@@@std@@@?$_Tree_val@U?$_Tree_simple_types@U?$pair@$$CBEV?$vector@EV?$allocator@E@std@@@std@@@std@@@std@@@std@@QAEXAAV?$allocator@U?$_Tree_node@U?$pair@$$CBEV?$vector@EV?$allocator@E@std@@@std@@@std@@PAX@std@@@1@PAU?$_Tree_node@U?$pair@$$CBEV?$vector@EV?$allocator@E@std@@@std@@@std@@PAX@1@@Z ; std::_Tree_val<std::_Tree_simple_types<std::pair<unsigned char const ,std::vector<unsigned char,std::allocator<unsigned char> > > > >::_Erase_tree<std::allocator<std::_Tree_node<std::pair<unsigned char const ,std::vector<unsigned char,std::allocator<unsigned char> > >,void *> > >
; File C:\Program Files\Microsoft Visual Studio\2022\Community\VC\Tools\MSVC\14.44.35207\include\xmemory

; 289  :         ::operator delete(_Ptr, _Bytes);

  00a4b	6a 20		 push	 32			; 00000020H
  00a4d	ff b5 c4 fe ff
	ff		 push	 DWORD PTR $T112[ebp]
  00a53	e8 00 00 00 00	 call	 ??3@YAXPAXI@Z		; operator delete
  00a58	83 c4 08	 add	 esp, 8
; File C:\Anka2Project\Anka2Project\Source\Binary\source\UserInterface\PythonPlayerSettingsModule.h

; 618  : static const std::map<uint8_t, std::map<uint8_t, std::vector<uint8_t>>> skillIndexes{

  00a5b	c6 45 fc 1c	 mov	 BYTE PTR __$EHRec$[ebp+8], 28 ; 0000001cH
  00a5f	8d 85 5c fe ff
	ff		 lea	 eax, DWORD PTR $T74[ebp]
  00a65	68 00 00 00 00	 push	 OFFSET ??1?$pair@$$CBEV?$vector@EV?$allocator@E@std@@@std@@@std@@QAE@XZ
  00a6a	6a 02		 push	 2
  00a6c	6a 10		 push	 16			; 00000010H
  00a6e	50		 push	 eax
  00a6f	e8 00 00 00 00	 call	 ??_M@YGXPAXIIP6EX0@Z@Z
  00a74	c6 45 fc 1b	 mov	 BYTE PTR __$EHRec$[ebp+8], 27 ; 0000001bH
; File C:\Program Files\Microsoft Visual Studio\2022\Community\VC\Tools\MSVC\14.44.35207\include\vector

; 2090 :         if (_Myfirst) { // destroy and deallocate old array

  00a78	8b 95 00 ff ff
	ff		 mov	 edx, DWORD PTR $T91[ebp]
  00a7e	85 d2		 test	 edx, edx
  00a80	74 4e		 je	 SHORT $LN820@dynamic

; 2093 :             _Al.deallocate(_Myfirst, static_cast<size_type>(_Myend - _Myfirst));

  00a82	8b 8d 08 ff ff
	ff		 mov	 ecx, DWORD PTR $T91[ebp+8]
; File C:\Program Files\Microsoft Visual Studio\2022\Community\VC\Tools\MSVC\14.44.35207\include\xmemory

; 985  :         _STD _Deallocate<_New_alignof<_Ty>>(_Ptr, sizeof(_Ty) * _Count);

  00a88	8b c2		 mov	 eax, edx
; File C:\Program Files\Microsoft Visual Studio\2022\Community\VC\Tools\MSVC\14.44.35207\include\vector

; 2093 :             _Al.deallocate(_Myfirst, static_cast<size_type>(_Myend - _Myfirst));

  00a8a	2b ca		 sub	 ecx, edx
; File C:\Program Files\Microsoft Visual Studio\2022\Community\VC\Tools\MSVC\14.44.35207\include\xmemory

; 284  :         if (_Bytes >= _Big_allocation_threshold) {

  00a8c	81 f9 00 10 00
	00		 cmp	 ecx, 4096		; 00001000H
  00a92	72 14		 jb	 SHORT $LN834@dynamic

; 205  :     const uintptr_t _Ptr_container   = _Ptr_user[-1];

  00a94	8b 50 fc	 mov	 edx, DWORD PTR [eax-4]
  00a97	83 c1 23	 add	 ecx, 35			; 00000023H
  00a9a	2b c2		 sub	 eax, edx

; 219  :     _STL_VERIFY(_Back_shift >= _Min_back_shift && _Back_shift <= _Non_user_size, "invalid argument");

  00a9c	83 c0 fc	 add	 eax, -4			; fffffffcH
  00a9f	83 f8 1f	 cmp	 eax, 31			; 0000001fH
  00aa2	0f 87 7a 01 00
	00		 ja	 $LN950@dynamic
$LN834@dynamic:

; 289  :         ::operator delete(_Ptr, _Bytes);

  00aa8	51		 push	 ecx
  00aa9	52		 push	 edx
  00aaa	e8 00 00 00 00	 call	 ??3@YAXPAXI@Z		; operator delete
  00aaf	83 c4 08	 add	 esp, 8
; File C:\Program Files\Microsoft Visual Studio\2022\Community\VC\Tools\MSVC\14.44.35207\include\vector

; 2095 :             _Myfirst = nullptr;

  00ab2	c7 85 00 ff ff
	ff 00 00 00 00	 mov	 DWORD PTR $T91[ebp], 0

; 2096 :             _Mylast  = nullptr;

  00abc	c7 85 04 ff ff
	ff 00 00 00 00	 mov	 DWORD PTR $T91[ebp+4], 0

; 2097 :             _Myend   = nullptr;

  00ac6	c7 85 08 ff ff
	ff 00 00 00 00	 mov	 DWORD PTR $T91[ebp+8], 0
$LN820@dynamic:
; File C:\Anka2Project\Anka2Project\Source\Binary\source\UserInterface\PythonPlayerSettingsModule.h

; 618  : static const std::map<uint8_t, std::map<uint8_t, std::vector<uint8_t>>> skillIndexes{

  00ad0	c6 45 fc 05	 mov	 BYTE PTR __$EHRec$[ebp+8], 5
; File C:\Program Files\Microsoft Visual Studio\2022\Community\VC\Tools\MSVC\14.44.35207\include\vector

; 2090 :         if (_Myfirst) { // destroy and deallocate old array

  00ad4	8b 8d f4 fe ff
	ff		 mov	 ecx, DWORD PTR $T65[ebp]
  00ada	85 c9		 test	 ecx, ecx
  00adc	74 4e		 je	 SHORT $LN843@dynamic

; 2093 :             _Al.deallocate(_Myfirst, static_cast<size_type>(_Myend - _Myfirst));

  00ade	8b 95 fc fe ff
	ff		 mov	 edx, DWORD PTR $T65[ebp+8]
; File C:\Program Files\Microsoft Visual Studio\2022\Community\VC\Tools\MSVC\14.44.35207\include\xmemory

; 985  :         _STD _Deallocate<_New_alignof<_Ty>>(_Ptr, sizeof(_Ty) * _Count);

  00ae4	8b c1		 mov	 eax, ecx
; File C:\Program Files\Microsoft Visual Studio\2022\Community\VC\Tools\MSVC\14.44.35207\include\vector

; 2093 :             _Al.deallocate(_Myfirst, static_cast<size_type>(_Myend - _Myfirst));

  00ae6	2b d1		 sub	 edx, ecx
; File C:\Program Files\Microsoft Visual Studio\2022\Community\VC\Tools\MSVC\14.44.35207\include\xmemory

; 284  :         if (_Bytes >= _Big_allocation_threshold) {

  00ae8	81 fa 00 10 00
	00		 cmp	 edx, 4096		; 00001000H
  00aee	72 14		 jb	 SHORT $LN857@dynamic

; 205  :     const uintptr_t _Ptr_container   = _Ptr_user[-1];

  00af0	8b 48 fc	 mov	 ecx, DWORD PTR [eax-4]
  00af3	83 c2 23	 add	 edx, 35			; 00000023H
  00af6	2b c1		 sub	 eax, ecx

; 219  :     _STL_VERIFY(_Back_shift >= _Min_back_shift && _Back_shift <= _Non_user_size, "invalid argument");

  00af8	83 c0 fc	 add	 eax, -4			; fffffffcH
  00afb	83 f8 1f	 cmp	 eax, 31			; 0000001fH
  00afe	0f 87 1e 01 00
	00		 ja	 $LN950@dynamic
$LN857@dynamic:

; 289  :         ::operator delete(_Ptr, _Bytes);

  00b04	52		 push	 edx
  00b05	51		 push	 ecx
  00b06	e8 00 00 00 00	 call	 ??3@YAXPAXI@Z		; operator delete
  00b0b	83 c4 08	 add	 esp, 8
; File C:\Program Files\Microsoft Visual Studio\2022\Community\VC\Tools\MSVC\14.44.35207\include\vector

; 2095 :             _Myfirst = nullptr;

  00b0e	c7 85 f4 fe ff
	ff 00 00 00 00	 mov	 DWORD PTR $T65[ebp], 0

; 2096 :             _Mylast  = nullptr;

  00b18	c7 85 f8 fe ff
	ff 00 00 00 00	 mov	 DWORD PTR $T65[ebp+4], 0

; 2097 :             _Myend   = nullptr;

  00b22	c7 85 fc fe ff
	ff 00 00 00 00	 mov	 DWORD PTR $T65[ebp+8], 0
$LN843@dynamic:
; File C:\Program Files\Microsoft Visual Studio\2022\Community\VC\Tools\MSVC\14.44.35207\include\xtree

; 777  :         _Erase_tree(_Al, _Myhead->_Parent);

  00b2c	8b 85 bc fe ff
	ff		 mov	 eax, DWORD PTR $T55[ebp]
  00b32	ff 70 04	 push	 DWORD PTR [eax+4]
  00b35	8d 85 bc fe ff
	ff		 lea	 eax, DWORD PTR $T55[ebp]
  00b3b	50		 push	 eax
  00b3c	8b c8		 mov	 ecx, eax
  00b3e	e8 00 00 00 00	 call	 ??$_Erase_tree@V?$allocator@U?$_Tree_node@U?$pair@$$CBEV?$vector@EV?$allocator@E@std@@@std@@@std@@PAX@std@@@std@@@?$_Tree_val@U?$_Tree_simple_types@U?$pair@$$CBEV?$vector@EV?$allocator@E@std@@@std@@@std@@@std@@@std@@QAEXAAV?$allocator@U?$_Tree_node@U?$pair@$$CBEV?$vector@EV?$allocator@E@std@@@std@@@std@@PAX@std@@@1@PAU?$_Tree_node@U?$pair@$$CBEV?$vector@EV?$allocator@E@std@@@std@@@std@@PAX@1@@Z ; std::_Tree_val<std::_Tree_simple_types<std::pair<unsigned char const ,std::vector<unsigned char,std::allocator<unsigned char> > > > >::_Erase_tree<std::allocator<std::_Tree_node<std::pair<unsigned char const ,std::vector<unsigned char,std::allocator<unsigned char> > >,void *> > >
; File C:\Program Files\Microsoft Visual Studio\2022\Community\VC\Tools\MSVC\14.44.35207\include\xmemory

; 289  :         ::operator delete(_Ptr, _Bytes);

  00b43	6a 20		 push	 32			; 00000020H
  00b45	ff b5 bc fe ff
	ff		 push	 DWORD PTR $T55[ebp]
  00b4b	e8 00 00 00 00	 call	 ??3@YAXPAXI@Z		; operator delete
  00b50	83 c4 08	 add	 esp, 8
; File C:\Anka2Project\Anka2Project\Source\Binary\source\UserInterface\PythonPlayerSettingsModule.h

; 618  : static const std::map<uint8_t, std::map<uint8_t, std::vector<uint8_t>>> skillIndexes{

  00b53	c6 45 fc 03	 mov	 BYTE PTR __$EHRec$[ebp+8], 3
  00b57	8d 85 3c fe ff
	ff		 lea	 eax, DWORD PTR $T17[ebp]
  00b5d	68 00 00 00 00	 push	 OFFSET ??1?$pair@$$CBEV?$vector@EV?$allocator@E@std@@@std@@@std@@QAE@XZ
  00b62	6a 02		 push	 2
  00b64	6a 10		 push	 16			; 00000010H
  00b66	50		 push	 eax
  00b67	e8 00 00 00 00	 call	 ??_M@YGXPAXIIP6EX0@Z@Z
; File C:\Program Files\Microsoft Visual Studio\2022\Community\VC\Tools\MSVC\14.44.35207\include\vector

; 2090 :         if (_Myfirst) { // destroy and deallocate old array

  00b6c	8b 95 e8 fe ff
	ff		 mov	 edx, DWORD PTR $T34[ebp]
  00b72	85 d2		 test	 edx, edx
  00b74	74 4e		 je	 SHORT $LN914@dynamic

; 2093 :             _Al.deallocate(_Myfirst, static_cast<size_type>(_Myend - _Myfirst));

  00b76	8b 8d f0 fe ff
	ff		 mov	 ecx, DWORD PTR $T34[ebp+8]
; File C:\Program Files\Microsoft Visual Studio\2022\Community\VC\Tools\MSVC\14.44.35207\include\xmemory

; 985  :         _STD _Deallocate<_New_alignof<_Ty>>(_Ptr, sizeof(_Ty) * _Count);

  00b7c	8b c2		 mov	 eax, edx
; File C:\Program Files\Microsoft Visual Studio\2022\Community\VC\Tools\MSVC\14.44.35207\include\vector

; 2093 :             _Al.deallocate(_Myfirst, static_cast<size_type>(_Myend - _Myfirst));

  00b7e	2b ca		 sub	 ecx, edx
; File C:\Program Files\Microsoft Visual Studio\2022\Community\VC\Tools\MSVC\14.44.35207\include\xmemory

; 284  :         if (_Bytes >= _Big_allocation_threshold) {

  00b80	81 f9 00 10 00
	00		 cmp	 ecx, 4096		; 00001000H
  00b86	72 14		 jb	 SHORT $LN928@dynamic

; 205  :     const uintptr_t _Ptr_container   = _Ptr_user[-1];

  00b88	8b 50 fc	 mov	 edx, DWORD PTR [eax-4]
  00b8b	83 c1 23	 add	 ecx, 35			; 00000023H
  00b8e	2b c2		 sub	 eax, edx

; 219  :     _STL_VERIFY(_Back_shift >= _Min_back_shift && _Back_shift <= _Non_user_size, "invalid argument");

  00b90	83 c0 fc	 add	 eax, -4			; fffffffcH
  00b93	83 f8 1f	 cmp	 eax, 31			; 0000001fH
  00b96	0f 87 86 00 00
	00		 ja	 $LN950@dynamic
$LN928@dynamic:

; 289  :         ::operator delete(_Ptr, _Bytes);

  00b9c	51		 push	 ecx
  00b9d	52		 push	 edx
  00b9e	e8 00 00 00 00	 call	 ??3@YAXPAXI@Z		; operator delete
  00ba3	83 c4 08	 add	 esp, 8
; File C:\Program Files\Microsoft Visual Studio\2022\Community\VC\Tools\MSVC\14.44.35207\include\vector

; 2095 :             _Myfirst = nullptr;

  00ba6	c7 85 e8 fe ff
	ff 00 00 00 00	 mov	 DWORD PTR $T34[ebp], 0

; 2096 :             _Mylast  = nullptr;

  00bb0	c7 85 ec fe ff
	ff 00 00 00 00	 mov	 DWORD PTR $T34[ebp+4], 0

; 2097 :             _Myend   = nullptr;

  00bba	c7 85 f0 fe ff
	ff 00 00 00 00	 mov	 DWORD PTR $T34[ebp+8], 0
$LN914@dynamic:

; 2090 :         if (_Myfirst) { // destroy and deallocate old array

  00bc4	8b 8d dc fe ff
	ff		 mov	 ecx, DWORD PTR $T8[ebp]
  00bca	85 c9		 test	 ecx, ecx
  00bcc	74 2c		 je	 SHORT $LN943@dynamic

; 2093 :             _Al.deallocate(_Myfirst, static_cast<size_type>(_Myend - _Myfirst));

  00bce	8b 95 e4 fe ff
	ff		 mov	 edx, DWORD PTR $T8[ebp+8]
; File C:\Program Files\Microsoft Visual Studio\2022\Community\VC\Tools\MSVC\14.44.35207\include\xmemory

; 985  :         _STD _Deallocate<_New_alignof<_Ty>>(_Ptr, sizeof(_Ty) * _Count);

  00bd4	8b c1		 mov	 eax, ecx
; File C:\Program Files\Microsoft Visual Studio\2022\Community\VC\Tools\MSVC\14.44.35207\include\vector

; 2093 :             _Al.deallocate(_Myfirst, static_cast<size_type>(_Myend - _Myfirst));

  00bd6	2b d1		 sub	 edx, ecx
; File C:\Program Files\Microsoft Visual Studio\2022\Community\VC\Tools\MSVC\14.44.35207\include\xmemory

; 284  :         if (_Bytes >= _Big_allocation_threshold) {

  00bd8	81 fa 00 10 00
	00		 cmp	 edx, 4096		; 00001000H
  00bde	72 10		 jb	 SHORT $LN951@dynamic

; 205  :     const uintptr_t _Ptr_container   = _Ptr_user[-1];

  00be0	8b 48 fc	 mov	 ecx, DWORD PTR [eax-4]
  00be3	83 c2 23	 add	 edx, 35			; 00000023H
  00be6	2b c1		 sub	 eax, ecx

; 219  :     _STL_VERIFY(_Back_shift >= _Min_back_shift && _Back_shift <= _Non_user_size, "invalid argument");

  00be8	83 c0 fc	 add	 eax, -4			; fffffffcH
  00beb	83 f8 1f	 cmp	 eax, 31			; 0000001fH
  00bee	77 32		 ja	 SHORT $LN950@dynamic
$LN951@dynamic:

; 289  :         ::operator delete(_Ptr, _Bytes);

  00bf0	52		 push	 edx
  00bf1	51		 push	 ecx
  00bf2	e8 00 00 00 00	 call	 ??3@YAXPAXI@Z		; operator delete
  00bf7	83 c4 08	 add	 esp, 8
$LN943@dynamic:
; File C:\Anka2Project\Anka2Project\Source\Binary\source\UserInterface\PythonPlayerSettingsModule.h

; 618  : static const std::map<uint8_t, std::map<uint8_t, std::vector<uint8_t>>> skillIndexes{

  00bfa	68 00 00 00 00	 push	 OFFSET ??__FskillIndexes@@YAXXZ ; `dynamic atexit destructor for 'skillIndexes''
  00bff	e8 00 00 00 00	 call	 _atexit
  00c04	83 c4 04	 add	 esp, 4
  00c07	8b 4d f4	 mov	 ecx, DWORD PTR __$EHRec$[ebp]
  00c0a	64 89 0d 00 00
	00 00		 mov	 DWORD PTR fs:0, ecx
  00c11	59		 pop	 ecx
  00c12	5f		 pop	 edi
  00c13	5e		 pop	 esi
  00c14	8b 4d f0	 mov	 ecx, DWORD PTR __$ArrayPad$[ebp]
  00c17	33 cd		 xor	 ecx, ebp
  00c19	e8 00 00 00 00	 call	 @__security_check_cookie@4
  00c1e	8b e5		 mov	 esp, ebp
  00c20	5d		 pop	 ebp
  00c21	c3		 ret	 0
$LN950@dynamic:
; File C:\Program Files\Microsoft Visual Studio\2022\Community\VC\Tools\MSVC\14.44.35207\include\xmemory

; 219  :     _STL_VERIFY(_Back_shift >= _Min_back_shift && _Back_shift <= _Non_user_size, "invalid argument");

  00c22	6a 00		 push	 0
  00c24	6a 00		 push	 0
  00c26	6a 00		 push	 0
  00c28	6a 00		 push	 0
  00c2a	6a 00		 push	 0
  00c2c	e8 00 00 00 00	 call	 __invoke_watson
$LN1021@dynamic:
  00c31	cc		 int	 3
text$di	ENDS
;	COMDAT text$x
text$x	SEGMENT
__unwindfunclet$??__EskillIndexes@@YAXXZ$0:
  00000	8d 8d dc fe ff
	ff		 lea	 ecx, DWORD PTR $T8[ebp]
  00006	e9 00 00 00 00	 jmp	 ??1?$vector@EV?$allocator@E@std@@@std@@QAE@XZ ; std::vector<unsigned char,std::allocator<unsigned char> >::~vector<unsigned char,std::allocator<unsigned char> >
__unwindfunclet$??__EskillIndexes@@YAXXZ$1:
  0000b	8d 8d 3c fe ff
	ff		 lea	 ecx, DWORD PTR $T17[ebp]
  00011	e9 00 00 00 00	 jmp	 ??1?$pair@$$CBEV?$vector@EV?$allocator@E@std@@@std@@@std@@QAE@XZ
__unwindfunclet$??__EskillIndexes@@YAXXZ$2:
  00016	8d 8d e8 fe ff
	ff		 lea	 ecx, DWORD PTR $T34[ebp]
  0001c	e9 00 00 00 00	 jmp	 ??1?$vector@EV?$allocator@E@std@@@std@@QAE@XZ ; std::vector<unsigned char,std::allocator<unsigned char> >::~vector<unsigned char,std::allocator<unsigned char> >
__unwindfunclet$??__EskillIndexes@@YAXXZ$4:
  00021	68 00 00 00 00	 push	 OFFSET ??1?$pair@$$CBEV?$vector@EV?$allocator@E@std@@@std@@@std@@QAE@XZ
  00026	6a 02		 push	 2
  00028	6a 10		 push	 16			; 00000010H
  0002a	8d 85 3c fe ff
	ff		 lea	 eax, DWORD PTR $T17[ebp]
  00030	50		 push	 eax
  00031	e8 00 00 00 00	 call	 ??_M@YGXPAXIIP6EX0@Z@Z
  00036	c3		 ret	 0
__unwindfunclet$??__EskillIndexes@@YAXXZ$5:
  00037	8d 8d bc fe ff
	ff		 lea	 ecx, DWORD PTR $T55[ebp]
  0003d	e9 00 00 00 00	 jmp	 ??1?$map@EV?$vector@EV?$allocator@E@std@@@std@@U?$less@E@2@V?$allocator@U?$pair@$$CBEV?$vector@EV?$allocator@E@std@@@std@@@std@@@2@@std@@QAE@XZ
__unwindfunclet$??__EskillIndexes@@YAXXZ$6:
  00042	8d 8d 40 ff ff
	ff		 lea	 ecx, DWORD PTR $T56[ebp]
  00048	e9 00 00 00 00	 jmp	 ??1?$pair@$$CBEV?$map@EV?$vector@EV?$allocator@E@std@@@std@@U?$less@E@2@V?$allocator@U?$pair@$$CBEV?$vector@EV?$allocator@E@std@@@std@@@std@@@2@@std@@@std@@QAE@XZ
__unwindfunclet$??__EskillIndexes@@YAXXZ$7:
  0004d	8d 8d f4 fe ff
	ff		 lea	 ecx, DWORD PTR $T65[ebp]
  00053	e9 00 00 00 00	 jmp	 ??1?$vector@EV?$allocator@E@std@@@std@@QAE@XZ ; std::vector<unsigned char,std::allocator<unsigned char> >::~vector<unsigned char,std::allocator<unsigned char> >
__unwindfunclet$??__EskillIndexes@@YAXXZ$8:
  00058	8d 8d 5c fe ff
	ff		 lea	 ecx, DWORD PTR $T74[ebp]
  0005e	e9 00 00 00 00	 jmp	 ??1?$pair@$$CBEV?$vector@EV?$allocator@E@std@@@std@@@std@@QAE@XZ
__unwindfunclet$??__EskillIndexes@@YAXXZ$9:
  00063	8d 8d 00 ff ff
	ff		 lea	 ecx, DWORD PTR $T91[ebp]
  00069	e9 00 00 00 00	 jmp	 ??1?$vector@EV?$allocator@E@std@@@std@@QAE@XZ ; std::vector<unsigned char,std::allocator<unsigned char> >::~vector<unsigned char,std::allocator<unsigned char> >
__unwindfunclet$??__EskillIndexes@@YAXXZ$11:
  0006e	68 00 00 00 00	 push	 OFFSET ??1?$pair@$$CBEV?$vector@EV?$allocator@E@std@@@std@@@std@@QAE@XZ
  00073	6a 02		 push	 2
  00075	6a 10		 push	 16			; 00000010H
  00077	8d 85 5c fe ff
	ff		 lea	 eax, DWORD PTR $T74[ebp]
  0007d	50		 push	 eax
  0007e	e8 00 00 00 00	 call	 ??_M@YGXPAXIIP6EX0@Z@Z
  00083	c3		 ret	 0
__unwindfunclet$??__EskillIndexes@@YAXXZ$12:
  00084	8d 8d c4 fe ff
	ff		 lea	 ecx, DWORD PTR $T112[ebp]
  0008a	e9 00 00 00 00	 jmp	 ??1?$map@EV?$vector@EV?$allocator@E@std@@@std@@U?$less@E@2@V?$allocator@U?$pair@$$CBEV?$vector@EV?$allocator@E@std@@@std@@@std@@@2@@std@@QAE@XZ
__unwindfunclet$??__EskillIndexes@@YAXXZ$13:
  0008f	8d 8d 4c ff ff
	ff		 lea	 ecx, DWORD PTR $T56[ebp+12]
  00095	e9 00 00 00 00	 jmp	 ??1?$pair@$$CBEV?$map@EV?$vector@EV?$allocator@E@std@@@std@@U?$less@E@2@V?$allocator@U?$pair@$$CBEV?$vector@EV?$allocator@E@std@@@std@@@std@@@2@@std@@@std@@QAE@XZ
__unwindfunclet$??__EskillIndexes@@YAXXZ$14:
  0009a	8d 8d 0c ff ff
	ff		 lea	 ecx, DWORD PTR $T121[ebp]
  000a0	e9 00 00 00 00	 jmp	 ??1?$vector@EV?$allocator@E@std@@@std@@QAE@XZ ; std::vector<unsigned char,std::allocator<unsigned char> >::~vector<unsigned char,std::allocator<unsigned char> >
__unwindfunclet$??__EskillIndexes@@YAXXZ$15:
  000a5	8d 8d 7c fe ff
	ff		 lea	 ecx, DWORD PTR $T130[ebp]
  000ab	e9 00 00 00 00	 jmp	 ??1?$pair@$$CBEV?$vector@EV?$allocator@E@std@@@std@@@std@@QAE@XZ
__unwindfunclet$??__EskillIndexes@@YAXXZ$16:
  000b0	8d 8d 18 ff ff
	ff		 lea	 ecx, DWORD PTR $T147[ebp]
  000b6	e9 00 00 00 00	 jmp	 ??1?$vector@EV?$allocator@E@std@@@std@@QAE@XZ ; std::vector<unsigned char,std::allocator<unsigned char> >::~vector<unsigned char,std::allocator<unsigned char> >
__unwindfunclet$??__EskillIndexes@@YAXXZ$18:
  000bb	68 00 00 00 00	 push	 OFFSET ??1?$pair@$$CBEV?$vector@EV?$allocator@E@std@@@std@@@std@@QAE@XZ
  000c0	6a 02		 push	 2
  000c2	6a 10		 push	 16			; 00000010H
  000c4	8d 85 7c fe ff
	ff		 lea	 eax, DWORD PTR $T130[ebp]
  000ca	50		 push	 eax
  000cb	e8 00 00 00 00	 call	 ??_M@YGXPAXIIP6EX0@Z@Z
  000d0	c3		 ret	 0
__unwindfunclet$??__EskillIndexes@@YAXXZ$19:
  000d1	8d 8d cc fe ff
	ff		 lea	 ecx, DWORD PTR $T168[ebp]
  000d7	e9 00 00 00 00	 jmp	 ??1?$map@EV?$vector@EV?$allocator@E@std@@@std@@U?$less@E@2@V?$allocator@U?$pair@$$CBEV?$vector@EV?$allocator@E@std@@@std@@@std@@@2@@std@@QAE@XZ
__unwindfunclet$??__EskillIndexes@@YAXXZ$20:
  000dc	8d 8d 58 ff ff
	ff		 lea	 ecx, DWORD PTR $T56[ebp+24]
  000e2	e9 00 00 00 00	 jmp	 ??1?$pair@$$CBEV?$map@EV?$vector@EV?$allocator@E@std@@@std@@U?$less@E@2@V?$allocator@U?$pair@$$CBEV?$vector@EV?$allocator@E@std@@@std@@@std@@@2@@std@@@std@@QAE@XZ
__unwindfunclet$??__EskillIndexes@@YAXXZ$21:
  000e7	8d 8d 24 ff ff
	ff		 lea	 ecx, DWORD PTR $T177[ebp]
  000ed	e9 00 00 00 00	 jmp	 ??1?$vector@EV?$allocator@E@std@@@std@@QAE@XZ ; std::vector<unsigned char,std::allocator<unsigned char> >::~vector<unsigned char,std::allocator<unsigned char> >
__unwindfunclet$??__EskillIndexes@@YAXXZ$22:
  000f2	8d 8d 9c fe ff
	ff		 lea	 ecx, DWORD PTR $T186[ebp]
  000f8	e9 00 00 00 00	 jmp	 ??1?$pair@$$CBEV?$vector@EV?$allocator@E@std@@@std@@@std@@QAE@XZ
__unwindfunclet$??__EskillIndexes@@YAXXZ$23:
  000fd	8d 8d 30 ff ff
	ff		 lea	 ecx, DWORD PTR $T203[ebp]
  00103	e9 00 00 00 00	 jmp	 ??1?$vector@EV?$allocator@E@std@@@std@@QAE@XZ ; std::vector<unsigned char,std::allocator<unsigned char> >::~vector<unsigned char,std::allocator<unsigned char> >
__unwindfunclet$??__EskillIndexes@@YAXXZ$25:
  00108	68 00 00 00 00	 push	 OFFSET ??1?$pair@$$CBEV?$vector@EV?$allocator@E@std@@@std@@@std@@QAE@XZ
  0010d	6a 02		 push	 2
  0010f	6a 10		 push	 16			; 00000010H
  00111	8d 85 9c fe ff
	ff		 lea	 eax, DWORD PTR $T186[ebp]
  00117	50		 push	 eax
  00118	e8 00 00 00 00	 call	 ??_M@YGXPAXIIP6EX0@Z@Z
  0011d	c3		 ret	 0
__unwindfunclet$??__EskillIndexes@@YAXXZ$26:
  0011e	8d 8d d4 fe ff
	ff		 lea	 ecx, DWORD PTR $T224[ebp]
  00124	e9 00 00 00 00	 jmp	 ??1?$map@EV?$vector@EV?$allocator@E@std@@@std@@U?$less@E@2@V?$allocator@U?$pair@$$CBEV?$vector@EV?$allocator@E@std@@@std@@@std@@@2@@std@@QAE@XZ
__unwindfunclet$??__EskillIndexes@@YAXXZ$28:
  00129	68 00 00 00 00	 push	 OFFSET ??1?$pair@$$CBEV?$map@EV?$vector@EV?$allocator@E@std@@@std@@U?$less@E@2@V?$allocator@U?$pair@$$CBEV?$vector@EV?$allocator@E@std@@@std@@@std@@@2@@std@@@std@@QAE@XZ
  0012e	6a 04		 push	 4
  00130	6a 0c		 push	 12			; 0000000cH
  00132	8d 85 40 ff ff
	ff		 lea	 eax, DWORD PTR $T56[ebp]
  00138	50		 push	 eax
  00139	e8 00 00 00 00	 call	 ??_M@YGXPAXIIP6EX0@Z@Z
  0013e	c3		 ret	 0
  0013f	cc		 int	 3
  00140	cc		 int	 3
  00141	cc		 int	 3
  00142	cc		 int	 3
  00143	cc		 int	 3
__ehhandler$??__EskillIndexes@@YAXXZ:
  00144	90		 npad	 1
  00145	90		 npad	 1
  00146	8b 54 24 08	 mov	 edx, DWORD PTR [esp+8]
  0014a	8d 42 0c	 lea	 eax, DWORD PTR [edx+12]
  0014d	8b 8a 3c fe ff
	ff		 mov	 ecx, DWORD PTR [edx-452]
  00153	33 c8		 xor	 ecx, eax
  00155	e8 00 00 00 00	 call	 @__security_check_cookie@4
  0015a	8b 4a fc	 mov	 ecx, DWORD PTR [edx-4]
  0015d	33 c8		 xor	 ecx, eax
  0015f	e8 00 00 00 00	 call	 @__security_check_cookie@4
  00164	b8 00 00 00 00	 mov	 eax, OFFSET __ehfuncinfo$??__EskillIndexes@@YAXXZ
  00169	e9 00 00 00 00	 jmp	 ___CxxFrameHandler3
text$x	ENDS
??__EskillIndexes@@YAXXZ ENDP				; `dynamic initializer for 'skillIndexes''
; Function compile flags: /Ogtp
; File C:\Program Files\Microsoft Visual Studio\2022\Community\VC\Tools\MSVC\14.44.35207\include\xtree
; File C:\Program Files\Microsoft Visual Studio\2022\Community\VC\Tools\MSVC\14.44.35207\include\xmemory
;	COMDAT ??__FskillIndexes@@YAXXZ
text$yd	SEGMENT
??__FskillIndexes@@YAXXZ PROC				; `dynamic atexit destructor for 'skillIndexes'', COMDAT
; File C:\Program Files\Microsoft Visual Studio\2022\Community\VC\Tools\MSVC\14.44.35207\include\xtree

; 777  :         _Erase_tree(_Al, _Myhead->_Parent);

  00000	a1 00 00 00 00	 mov	 eax, DWORD PTR ?skillIndexes@@3V?$map@EV?$map@EV?$vector@EV?$allocator@E@std@@@std@@U?$less@E@2@V?$allocator@U?$pair@$$CBEV?$vector@EV?$allocator@E@std@@@std@@@std@@@2@@std@@U?$less@E@2@V?$allocator@U?$pair@$$CBEV?$map@EV?$vector@EV?$allocator@E@std@@@std@@U?$less@E@2@V?$allocator@U?$pair@$$CBEV?$vector@EV?$allocator@E@std@@@std@@@std@@@2@@std@@@std@@@2@@std@@B
  00005	b9 00 00 00 00	 mov	 ecx, OFFSET ?skillIndexes@@3V?$map@EV?$map@EV?$vector@EV?$allocator@E@std@@@std@@U?$less@E@2@V?$allocator@U?$pair@$$CBEV?$vector@EV?$allocator@E@std@@@std@@@std@@@2@@std@@U?$less@E@2@V?$allocator@U?$pair@$$CBEV?$map@EV?$vector@EV?$allocator@E@std@@@std@@U?$less@E@2@V?$allocator@U?$pair@$$CBEV?$vector@EV?$allocator@E@std@@@std@@@std@@@2@@std@@@std@@@2@@std@@B
  0000a	ff 70 04	 push	 DWORD PTR [eax+4]
  0000d	68 00 00 00 00	 push	 OFFSET ?skillIndexes@@3V?$map@EV?$map@EV?$vector@EV?$allocator@E@std@@@std@@U?$less@E@2@V?$allocator@U?$pair@$$CBEV?$vector@EV?$allocator@E@std@@@std@@@std@@@2@@std@@U?$less@E@2@V?$allocator@U?$pair@$$CBEV?$map@EV?$vector@EV?$allocator@E@std@@@std@@U?$less@E@2@V?$allocator@U?$pair@$$CBEV?$vector@EV?$allocator@E@std@@@std@@@std@@@2@@std@@@std@@@2@@std@@B
  00012	e8 00 00 00 00	 call	 ??$_Erase_tree@V?$allocator@U?$_Tree_node@U?$pair@$$CBEV?$map@EV?$vector@EV?$allocator@E@std@@@std@@U?$less@E@2@V?$allocator@U?$pair@$$CBEV?$vector@EV?$allocator@E@std@@@std@@@std@@@2@@std@@@std@@PAX@std@@@std@@@?$_Tree_val@U?$_Tree_simple_types@U?$pair@$$CBEV?$map@EV?$vector@EV?$allocator@E@std@@@std@@U?$less@E@2@V?$allocator@U?$pair@$$CBEV?$vector@EV?$allocator@E@std@@@std@@@std@@@2@@std@@@std@@@std@@@std@@QAEXAAV?$allocator@U?$_Tree_node@U?$pair@$$CBEV?$map@EV?$vector@EV?$allocator@E@std@@@std@@U?$less@E@2@V?$allocator@U?$pair@$$CBEV?$vector@EV?$allocator@E@std@@@std@@@std@@@2@@std@@@std@@PAX@std@@@1@PAU?$_Tree_node@U?$pair@$$CBEV?$map@EV?$vector@EV?$allocator@E@std@@@std@@U?$less@E@2@V?$allocator@U?$pair@$$CBEV?$vector@EV?$allocator@E@std@@@std@@@std@@@2@@std@@@std@@PAX@1@@Z ; std::_Tree_val<std::_Tree_simple_types<std::pair<unsigned char const ,std::map<unsigned char,std::vector<unsigned char,std::allocator<unsigned char> >,std::less<unsigned char>,std::allocator<std::pair<unsigned char const ,std::vector<unsigned char,std::allocator<unsigned char> > > > > > > >::_Erase_tree<std::allocator<std::_Tree_node<std::pair<unsigned char const ,std::map<unsigned char,std::vector<unsigned char,std::allocator<unsigned char> >,std::less<unsigned char>,std::allocator<std::pair<unsigned char const ,std::vector<unsigned char,std::allocator<unsigned char> > > > > >,void *> > >
; File C:\Program Files\Microsoft Visual Studio\2022\Community\VC\Tools\MSVC\14.44.35207\include\xmemory

; 289  :         ::operator delete(_Ptr, _Bytes);

  00017	6a 1c		 push	 28			; 0000001cH
  00019	ff 35 00 00 00
	00		 push	 DWORD PTR ?skillIndexes@@3V?$map@EV?$map@EV?$vector@EV?$allocator@E@std@@@std@@U?$less@E@2@V?$allocator@U?$pair@$$CBEV?$vector@EV?$allocator@E@std@@@std@@@std@@@2@@std@@U?$less@E@2@V?$allocator@U?$pair@$$CBEV?$map@EV?$vector@EV?$allocator@E@std@@@std@@U?$less@E@2@V?$allocator@U?$pair@$$CBEV?$vector@EV?$allocator@E@std@@@std@@@std@@@2@@std@@@std@@@2@@std@@B
  0001f	e8 00 00 00 00	 call	 ??3@YAXPAXI@Z		; operator delete
  00024	83 c4 08	 add	 esp, 8
  00027	c3		 ret	 0
??__FskillIndexes@@YAXXZ ENDP				; `dynamic atexit destructor for 'skillIndexes''
text$yd	ENDS
; Function compile flags: /Ogtp
; File C:\Anka2Project\Anka2Project\Source\Binary\source\UserInterface\PythonPlayerSettingsModule.h
; File C:\Program Files\Microsoft Visual Studio\2022\Community\VC\Tools\MSVC\14.44.35207\include\__msvc_string_view.hpp
; File C:\Program Files\Microsoft Visual Studio\2022\Community\VC\Tools\MSVC\14.44.35207\include\xstring
; File C:\Program Files\Microsoft Visual Studio\2022\Community\VC\Tools\MSVC\14.44.35207\include\__msvc_string_view.hpp
; File C:\Program Files\Microsoft Visual Studio\2022\Community\VC\Tools\MSVC\14.44.35207\include\xstring
; File C:\Program Files\Microsoft Visual Studio\2022\Community\VC\Tools\MSVC\14.44.35207\include\__msvc_string_view.hpp
; File C:\Program Files\Microsoft Visual Studio\2022\Community\VC\Tools\MSVC\14.44.35207\include\xstring
; File C:\Anka2Project\Anka2Project\Source\Binary\source\UserInterface\PythonPlayerSettingsModule.h
; File C:\Program Files\Microsoft Visual Studio\2022\Community\VC\Tools\MSVC\14.44.35207\include\initializer_list
; File C:\Anka2Project\Anka2Project\Source\Binary\source\UserInterface\PythonPlayerSettingsModule.h
; File C:\Program Files\Microsoft Visual Studio\2022\Community\VC\Tools\MSVC\14.44.35207\include\vector
; File C:\Program Files\Microsoft Visual Studio\2022\Community\VC\Tools\MSVC\14.44.35207\include\xmemory
; File C:\Program Files\Microsoft Visual Studio\2022\Community\VC\Tools\MSVC\14.44.35207\include\vector
; File C:\Program Files\Microsoft Visual Studio\2022\Community\VC\Tools\MSVC\14.44.35207\include\utility
; File C:\Anka2Project\Anka2Project\Source\Binary\source\UserInterface\PythonPlayerSettingsModule.h
; File C:\Program Files\Microsoft Visual Studio\2022\Community\VC\Tools\MSVC\14.44.35207\include\utility
; File C:\Program Files\Microsoft Visual Studio\2022\Community\VC\Tools\MSVC\14.44.35207\include\vector
; File C:\Program Files\Microsoft Visual Studio\2022\Community\VC\Tools\MSVC\14.44.35207\include\xmemory
; File C:\Program Files\Microsoft Visual Studio\2022\Community\VC\Tools\MSVC\14.44.35207\include\vector
; File C:\Program Files\Microsoft Visual Studio\2022\Community\VC\Tools\MSVC\14.44.35207\include\xmemory
; File C:\Program Files\Microsoft Visual Studio\2022\Community\VC\Tools\MSVC\14.44.35207\include\vector
; File C:\Program Files\Microsoft Visual Studio\2022\Community\VC\Tools\MSVC\14.44.35207\include\__msvc_string_view.hpp
; File C:\Program Files\Microsoft Visual Studio\2022\Community\VC\Tools\MSVC\14.44.35207\include\xstring
; File C:\Program Files\Microsoft Visual Studio\2022\Community\VC\Tools\MSVC\14.44.35207\include\__msvc_string_view.hpp
; File C:\Program Files\Microsoft Visual Studio\2022\Community\VC\Tools\MSVC\14.44.35207\include\xstring
; File C:\Program Files\Microsoft Visual Studio\2022\Community\VC\Tools\MSVC\14.44.35207\include\__msvc_string_view.hpp
; File C:\Program Files\Microsoft Visual Studio\2022\Community\VC\Tools\MSVC\14.44.35207\include\xstring
; File C:\Anka2Project\Anka2Project\Source\Binary\source\UserInterface\PythonPlayerSettingsModule.h
; File C:\Program Files\Microsoft Visual Studio\2022\Community\VC\Tools\MSVC\14.44.35207\include\initializer_list
; File C:\Anka2Project\Anka2Project\Source\Binary\source\UserInterface\PythonPlayerSettingsModule.h
; File C:\Program Files\Microsoft Visual Studio\2022\Community\VC\Tools\MSVC\14.44.35207\include\vector
; File C:\Program Files\Microsoft Visual Studio\2022\Community\VC\Tools\MSVC\14.44.35207\include\xmemory
; File C:\Program Files\Microsoft Visual Studio\2022\Community\VC\Tools\MSVC\14.44.35207\include\vector
; File C:\Program Files\Microsoft Visual Studio\2022\Community\VC\Tools\MSVC\14.44.35207\include\utility
; File C:\Anka2Project\Anka2Project\Source\Binary\source\UserInterface\PythonPlayerSettingsModule.h
; File C:\Program Files\Microsoft Visual Studio\2022\Community\VC\Tools\MSVC\14.44.35207\include\utility
; File C:\Program Files\Microsoft Visual Studio\2022\Community\VC\Tools\MSVC\14.44.35207\include\vector
; File C:\Program Files\Microsoft Visual Studio\2022\Community\VC\Tools\MSVC\14.44.35207\include\xmemory
; File C:\Program Files\Microsoft Visual Studio\2022\Community\VC\Tools\MSVC\14.44.35207\include\vector
; File C:\Program Files\Microsoft Visual Studio\2022\Community\VC\Tools\MSVC\14.44.35207\include\xmemory
; File C:\Program Files\Microsoft Visual Studio\2022\Community\VC\Tools\MSVC\14.44.35207\include\vector
; File C:\Program Files\Microsoft Visual Studio\2022\Community\VC\Tools\MSVC\14.44.35207\include\initializer_list
; File C:\Anka2Project\Anka2Project\Source\Binary\source\UserInterface\PythonPlayerSettingsModule.h
; File C:\Program Files\Microsoft Visual Studio\2022\Community\VC\Tools\MSVC\14.44.35207\include\initializer_list
; File C:\Anka2Project\Anka2Project\Source\Binary\source\UserInterface\PythonPlayerSettingsModule.h
; File C:\Program Files\Microsoft Visual Studio\2022\Community\VC\Tools\MSVC\14.44.35207\include\vector
; File C:\Program Files\Microsoft Visual Studio\2022\Community\VC\Tools\MSVC\14.44.35207\include\xmemory
; File C:\Program Files\Microsoft Visual Studio\2022\Community\VC\Tools\MSVC\14.44.35207\include\vector
; File C:\Program Files\Microsoft Visual Studio\2022\Community\VC\Tools\MSVC\14.44.35207\include\xmemory
; File C:\Program Files\Microsoft Visual Studio\2022\Community\VC\Tools\MSVC\14.44.35207\include\vector
; File C:\Program Files\Microsoft Visual Studio\2022\Community\VC\Tools\MSVC\14.44.35207\include\xstring
; File C:\Program Files\Microsoft Visual Studio\2022\Community\VC\Tools\MSVC\14.44.35207\include\xmemory
; File C:\Program Files\Microsoft Visual Studio\2022\Community\VC\Tools\MSVC\14.44.35207\include\xstring
; File C:\Program Files\Microsoft Visual Studio\2022\Community\VC\Tools\MSVC\14.44.35207\include\xmemory
; File C:\Program Files\Microsoft Visual Studio\2022\Community\VC\Tools\MSVC\14.44.35207\include\vector
; File C:\Program Files\Microsoft Visual Studio\2022\Community\VC\Tools\MSVC\14.44.35207\include\xstring
; File C:\Program Files\Microsoft Visual Studio\2022\Community\VC\Tools\MSVC\14.44.35207\include\vector
; File C:\Program Files\Microsoft Visual Studio\2022\Community\VC\Tools\MSVC\14.44.35207\include\xmemory
; File C:\Program Files\Microsoft Visual Studio\2022\Community\VC\Tools\MSVC\14.44.35207\include\vector
; File C:\Program Files\Microsoft Visual Studio\2022\Community\VC\Tools\MSVC\14.44.35207\include\xmemory
; File C:\Program Files\Microsoft Visual Studio\2022\Community\VC\Tools\MSVC\14.44.35207\include\vector
; File C:\Program Files\Microsoft Visual Studio\2022\Community\VC\Tools\MSVC\14.44.35207\include\xstring
; File C:\Program Files\Microsoft Visual Studio\2022\Community\VC\Tools\MSVC\14.44.35207\include\xmemory
; File C:\Program Files\Microsoft Visual Studio\2022\Community\VC\Tools\MSVC\14.44.35207\include\xstring
; File C:\Program Files\Microsoft Visual Studio\2022\Community\VC\Tools\MSVC\14.44.35207\include\xmemory
; File C:\Anka2Project\Anka2Project\Source\Binary\source\UserInterface\PythonPlayerSettingsModule.h
; File C:\Program Files\Microsoft Visual Studio\2022\Community\VC\Tools\MSVC\14.44.35207\include\xmemory
; File C:\Anka2Project\Anka2Project\Source\Binary\source\UserInterface\PythonPlayerSettingsModule.h
;	COMDAT ??__EguildSkills@@YAXXZ
text$di	SEGMENT
__Dest$1$ = -176					; size = 4
__Dest$1$ = -176					; size = 4
$T24 = -172						; size = 12
$T67 = -160						; size = 12
$T20 = -145						; size = 1
$T33 = -144						; size = 72
$T1 = -72						; size = 24
$T44 = -48						; size = 24
$T63 = -24						; size = 6
__$ArrayPad$ = -16					; size = 4
__$EHRec$ = -12						; size = 12
??__EguildSkills@@YAXXZ PROC				; `dynamic initializer for 'guildSkills'', COMDAT

; 647  : };

  00000	55		 push	 ebp
  00001	8b ec		 mov	 ebp, esp
  00003	6a ff		 push	 -1
  00005	68 00 00 00 00	 push	 __ehhandler$??__EguildSkills@@YAXXZ
  0000a	64 a1 00 00 00
	00		 mov	 eax, DWORD PTR fs:0
  00010	50		 push	 eax
  00011	81 ec a4 00 00
	00		 sub	 esp, 164		; 000000a4H
  00017	a1 00 00 00 00	 mov	 eax, DWORD PTR ___security_cookie
  0001c	33 c5		 xor	 eax, ebp
  0001e	89 45 f0	 mov	 DWORD PTR __$ArrayPad$[ebp], eax
  00021	56		 push	 esi
  00022	57		 push	 edi
  00023	50		 push	 eax
  00024	8d 45 f4	 lea	 eax, DWORD PTR __$EHRec$[ebp]
  00027	64 a3 00 00 00
	00		 mov	 DWORD PTR fs:0, eax
; File C:\Program Files\Microsoft Visual Studio\2022\Community\VC\Tools\MSVC\14.44.35207\include\__msvc_string_view.hpp

; 121  :         _CSTD memcpy(_First1, _First2, _Count * sizeof(_Elem));

  0002d	a1 00 00 00 00	 mov	 eax, DWORD PTR ??_C@_07NLANJMCK@PASSIVE@
  00032	0f 57 c0	 xorps	 xmm0, xmm0
; File C:\Program Files\Microsoft Visual Studio\2022\Community\VC\Tools\MSVC\14.44.35207\include\xstring

; 493  :         _CONSTEXPR20 _Bxty() noexcept : _Buf() {} // user-provided, for fancy pointers

  00035	0f 11 45 b8	 movups	 XMMWORD PTR $T1[ebp], xmm0
; File C:\Program Files\Microsoft Visual Studio\2022\Community\VC\Tools\MSVC\14.44.35207\include\__msvc_string_view.hpp

; 121  :         _CSTD memcpy(_First1, _First2, _Count * sizeof(_Elem));

  00039	89 45 b8	 mov	 DWORD PTR $T1[ebp], eax
  0003c	66 a1 04 00 00
	00		 mov	 ax, WORD PTR ??_C@_07NLANJMCK@PASSIVE@+4
  00042	66 89 45 bc	 mov	 WORD PTR $T1[ebp+4], ax
  00046	a0 06 00 00 00	 mov	 al, BYTE PTR ??_C@_07NLANJMCK@PASSIVE@+6
; File C:\Program Files\Microsoft Visual Studio\2022\Community\VC\Tools\MSVC\14.44.35207\include\xstring

; 890  :             _My_data._Mysize = _Count;

  0004b	c7 45 c8 07 00
	00 00		 mov	 DWORD PTR $T1[ebp+16], 7

; 891  :             _My_data._Myres  = _Small_string_capacity;

  00052	c7 45 cc 0f 00
	00 00		 mov	 DWORD PTR $T1[ebp+20], 15 ; 0000000fH
; File C:\Program Files\Microsoft Visual Studio\2022\Community\VC\Tools\MSVC\14.44.35207\include\__msvc_string_view.hpp

; 121  :         _CSTD memcpy(_First1, _First2, _Count * sizeof(_Elem));

  00059	88 45 be	 mov	 BYTE PTR $T1[ebp+6], al
; File C:\Program Files\Microsoft Visual Studio\2022\Community\VC\Tools\MSVC\14.44.35207\include\xstring

; 898  :                 _Traits::assign(_My_data._Bx._Buf[_Count], _Elem());

  0005c	c6 45 bf 00	 mov	 BYTE PTR $T1[ebp+7], 0
; File C:\Anka2Project\Anka2Project\Source\Binary\source\UserInterface\PythonPlayerSettingsModule.h

; 644  : {

  00060	c7 45 fc 00 00
	00 00		 mov	 DWORD PTR __$EHRec$[ebp+8], 0
; File C:\Program Files\Microsoft Visual Studio\2022\Community\VC\Tools\MSVC\14.44.35207\include\initializer_list

; 34   :         : _First(_First_arg), _Last(_Last_arg) {}

  00067	8d 85 6f ff ff
	ff		 lea	 eax, DWORD PTR $T20[ebp]
  0006d	8d bd 70 ff ff
	ff		 lea	 edi, DWORD PTR $T20[ebp+1]
; File C:\Anka2Project\Anka2Project\Source\Binary\source\UserInterface\PythonPlayerSettingsModule.h

; 644  : {

  00073	c6 85 6f ff ff
	ff 97		 mov	 BYTE PTR $T20[ebp], 151	; 00000097H
; File C:\Program Files\Microsoft Visual Studio\2022\Community\VC\Tools\MSVC\14.44.35207\include\vector

; 400  :     _CONSTEXPR20 _Vector_val() noexcept : _Myfirst(), _Mylast(), _Myend() {}

  0007a	c7 85 54 ff ff
	ff 00 00 00 00	 mov	 DWORD PTR $T24[ebp], 0
  00084	c7 85 58 ff ff
	ff 00 00 00 00	 mov	 DWORD PTR $T24[ebp+4], 0
  0008e	c7 85 5c ff ff
	ff 00 00 00 00	 mov	 DWORD PTR $T24[ebp+8], 0

; 721  :         _Construct_n(_Convert_size<size_type>(_Ilist.size()), _Ilist.begin(), _Ilist.end());

  00098	2b f8		 sub	 edi, eax

; 2111 :         if (_Count != 0) {

  0009a	74 32		 je	 SHORT $LN109@dynamic

; 2112 :             _Buy_nonzero(_Count);

  0009c	57		 push	 edi
  0009d	8d 8d 54 ff ff
	ff		 lea	 ecx, DWORD PTR $T24[ebp]
  000a3	e8 00 00 00 00	 call	 ?_Buy_nonzero@?$vector@EV?$allocator@E@std@@@std@@AAEXI@Z ; std::vector<unsigned char,std::allocator<unsigned char> >::_Buy_nonzero

; 2120 :                 _My_data._Mylast = _STD _Uninitialized_copy(_STD forward<_Valty>(_Val)..., _My_data._Myfirst, _Al);

  000a8	8b b5 54 ff ff
	ff		 mov	 esi, DWORD PTR $T24[ebp]
; File C:\Program Files\Microsoft Visual Studio\2022\Community\VC\Tools\MSVC\14.44.35207\include\xmemory

; 1889 :                 _STD _Copy_memmove(_STD _To_address(_UFirst), _STD _To_address(_ULast), _STD _Unfancy(_Dest));

  000ae	8d 85 70 ff ff
	ff		 lea	 eax, DWORD PTR $T20[ebp+1]
  000b4	56		 push	 esi
  000b5	50		 push	 eax
  000b6	8d 85 6f ff ff
	ff		 lea	 eax, DWORD PTR $T20[ebp]
  000bc	50		 push	 eax
  000bd	e8 00 00 00 00	 call	 ??$_Copy_memmove@PBEPAE@std@@YAPAEPBE0PAE@Z ; std::_Copy_memmove<unsigned char const *,unsigned char *>

; 1890 :                 _Dest += _ULast - _UFirst;

  000c2	8d 04 3e	 lea	 eax, DWORD PTR [esi+edi]
  000c5	83 c4 0c	 add	 esp, 12			; 0000000cH
; File C:\Program Files\Microsoft Visual Studio\2022\Community\VC\Tools\MSVC\14.44.35207\include\vector

; 2120 :                 _My_data._Mylast = _STD _Uninitialized_copy(_STD forward<_Valty>(_Val)..., _My_data._Myfirst, _Al);

  000c8	89 85 58 ff ff
	ff		 mov	 DWORD PTR $T24[ebp+4], eax
$LN109@dynamic:
; File C:\Program Files\Microsoft Visual Studio\2022\Community\VC\Tools\MSVC\14.44.35207\include\utility

; 263  :         : first(_Val1), second(_Val2) {}

  000ce	8d 45 b8	 lea	 eax, DWORD PTR $T1[ebp]
; File C:\Anka2Project\Anka2Project\Source\Binary\source\UserInterface\PythonPlayerSettingsModule.h

; 644  : {

  000d1	c6 45 fc 01	 mov	 BYTE PTR __$EHRec$[ebp+8], 1
; File C:\Program Files\Microsoft Visual Studio\2022\Community\VC\Tools\MSVC\14.44.35207\include\utility

; 263  :         : first(_Val1), second(_Val2) {}

  000d5	50		 push	 eax
  000d6	8d 8d 70 ff ff
	ff		 lea	 ecx, DWORD PTR $T33[ebp]
  000dc	e8 00 00 00 00	 call	 ??0?$basic_string@DU?$char_traits@D@std@@V?$allocator@D@2@@std@@QAE@ABV01@@Z ; std::basic_string<char,std::char_traits<char>,std::allocator<char> >::basic_string<char,std::char_traits<char>,std::allocator<char> >
  000e1	c6 45 fc 02	 mov	 BYTE PTR __$EHRec$[ebp+8], 2
; File C:\Program Files\Microsoft Visual Studio\2022\Community\VC\Tools\MSVC\14.44.35207\include\vector

; 748  :         const auto _Count       = static_cast<size_type>(_Right_data._Mylast - _Right_data._Myfirst);

  000e5	8b 85 58 ff ff
	ff		 mov	 eax, DWORD PTR $T24[ebp+4]

; 400  :     _CONSTEXPR20 _Vector_val() noexcept : _Myfirst(), _Mylast(), _Myend() {}

  000eb	c7 45 88 00 00
	00 00		 mov	 DWORD PTR $T33[ebp+24], 0
  000f2	c7 45 8c 00 00
	00 00		 mov	 DWORD PTR $T33[ebp+28], 0
  000f9	c7 45 90 00 00
	00 00		 mov	 DWORD PTR $T33[ebp+32], 0

; 748  :         const auto _Count       = static_cast<size_type>(_Right_data._Mylast - _Right_data._Myfirst);

  00100	2b 85 54 ff ff
	ff		 sub	 eax, DWORD PTR $T24[ebp]

; 2111 :         if (_Count != 0) {

  00106	74 36		 je	 SHORT $LN141@dynamic

; 2112 :             _Buy_nonzero(_Count);

  00108	50		 push	 eax
  00109	8d 4d 88	 lea	 ecx, DWORD PTR $T33[ebp+24]
  0010c	e8 00 00 00 00	 call	 ?_Buy_nonzero@?$vector@EV?$allocator@E@std@@@std@@AAEXI@Z ; std::vector<unsigned char,std::allocator<unsigned char> >::_Buy_nonzero

; 2120 :                 _My_data._Mylast = _STD _Uninitialized_copy(_STD forward<_Valty>(_Val)..., _My_data._Myfirst, _Al);

  00111	8b 45 88	 mov	 eax, DWORD PTR $T33[ebp+24]
; File C:\Program Files\Microsoft Visual Studio\2022\Community\VC\Tools\MSVC\14.44.35207\include\xmemory

; 1872 :     auto _ULast  = _RANGES _Unwrap_sent<_InIt>(_STD move(_Last));

  00114	8b b5 58 ff ff
	ff		 mov	 esi, DWORD PTR $T24[ebp+4]
  0011a	8b bd 54 ff ff
	ff		 mov	 edi, DWORD PTR $T24[ebp]

; 1889 :                 _STD _Copy_memmove(_STD _To_address(_UFirst), _STD _To_address(_ULast), _STD _Unfancy(_Dest));

  00120	50		 push	 eax
  00121	56		 push	 esi
  00122	57		 push	 edi
; File C:\Program Files\Microsoft Visual Studio\2022\Community\VC\Tools\MSVC\14.44.35207\include\vector

; 2120 :                 _My_data._Mylast = _STD _Uninitialized_copy(_STD forward<_Valty>(_Val)..., _My_data._Myfirst, _Al);

  00123	89 85 50 ff ff
	ff		 mov	 DWORD PTR __Dest$1$[ebp], eax
; File C:\Program Files\Microsoft Visual Studio\2022\Community\VC\Tools\MSVC\14.44.35207\include\xmemory

; 1889 :                 _STD _Copy_memmove(_STD _To_address(_UFirst), _STD _To_address(_ULast), _STD _Unfancy(_Dest));

  00129	e8 00 00 00 00	 call	 ??$_Copy_memmove@PAEPAE@std@@YAPAEPAE00@Z ; std::_Copy_memmove<unsigned char *,unsigned char *>

; 1890 :                 _Dest += _ULast - _UFirst;

  0012e	8b 85 50 ff ff
	ff		 mov	 eax, DWORD PTR __Dest$1$[ebp]
  00134	2b f7		 sub	 esi, edi
  00136	83 c4 0c	 add	 esp, 12			; 0000000cH
  00139	03 c6		 add	 eax, esi
; File C:\Program Files\Microsoft Visual Studio\2022\Community\VC\Tools\MSVC\14.44.35207\include\vector

; 2120 :                 _My_data._Mylast = _STD _Uninitialized_copy(_STD forward<_Valty>(_Val)..., _My_data._Myfirst, _Al);

  0013b	89 45 8c	 mov	 DWORD PTR $T33[ebp+28], eax
$LN141@dynamic:
; File C:\Program Files\Microsoft Visual Studio\2022\Community\VC\Tools\MSVC\14.44.35207\include\__msvc_string_view.hpp

; 121  :         _CSTD memcpy(_First1, _First2, _Count * sizeof(_Elem));

  0013e	a1 00 00 00 00	 mov	 eax, DWORD PTR ??_C@_06MHJDLBHA@ACTIVE@
  00143	0f 57 c0	 xorps	 xmm0, xmm0
; File C:\Program Files\Microsoft Visual Studio\2022\Community\VC\Tools\MSVC\14.44.35207\include\xstring

; 493  :         _CONSTEXPR20 _Bxty() noexcept : _Buf() {} // user-provided, for fancy pointers

  00146	0f 11 45 d0	 movups	 XMMWORD PTR $T44[ebp], xmm0
; File C:\Program Files\Microsoft Visual Studio\2022\Community\VC\Tools\MSVC\14.44.35207\include\__msvc_string_view.hpp

; 121  :         _CSTD memcpy(_First1, _First2, _Count * sizeof(_Elem));

  0014a	89 45 d0	 mov	 DWORD PTR $T44[ebp], eax
  0014d	66 a1 04 00 00
	00		 mov	 ax, WORD PTR ??_C@_06MHJDLBHA@ACTIVE@+4
; File C:\Program Files\Microsoft Visual Studio\2022\Community\VC\Tools\MSVC\14.44.35207\include\xstring

; 890  :             _My_data._Mysize = _Count;

  00153	c7 45 e0 06 00
	00 00		 mov	 DWORD PTR $T44[ebp+16], 6

; 891  :             _My_data._Myres  = _Small_string_capacity;

  0015a	c7 45 e4 0f 00
	00 00		 mov	 DWORD PTR $T44[ebp+20], 15 ; 0000000fH
; File C:\Program Files\Microsoft Visual Studio\2022\Community\VC\Tools\MSVC\14.44.35207\include\__msvc_string_view.hpp

; 121  :         _CSTD memcpy(_First1, _First2, _Count * sizeof(_Elem));

  00161	66 89 45 d4	 mov	 WORD PTR $T44[ebp+4], ax
; File C:\Program Files\Microsoft Visual Studio\2022\Community\VC\Tools\MSVC\14.44.35207\include\xstring

; 898  :                 _Traits::assign(_My_data._Bx._Buf[_Count], _Elem());

  00165	c6 45 d6 00	 mov	 BYTE PTR $T44[ebp+6], 0
; File C:\Anka2Project\Anka2Project\Source\Binary\source\UserInterface\PythonPlayerSettingsModule.h

; 644  : {

  00169	c6 45 fc 04	 mov	 BYTE PTR __$EHRec$[ebp+8], 4
; File C:\Program Files\Microsoft Visual Studio\2022\Community\VC\Tools\MSVC\14.44.35207\include\initializer_list

; 34   :         : _First(_First_arg), _Last(_Last_arg) {}

  0016d	8d 45 e8	 lea	 eax, DWORD PTR $T63[ebp]
  00170	8d 7d ee	 lea	 edi, DWORD PTR $T63[ebp+6]
; File C:\Anka2Project\Anka2Project\Source\Binary\source\UserInterface\PythonPlayerSettingsModule.h

; 644  : {

  00173	c7 45 e8 98 99
	9a 9b		 mov	 DWORD PTR $T63[ebp], -1684366952 ; 9b9a9998H
  0017a	66 c7 45 ec 9c
	9d		 mov	 WORD PTR $T63[ebp+4], 40348 ; 00009d9cH
; File C:\Program Files\Microsoft Visual Studio\2022\Community\VC\Tools\MSVC\14.44.35207\include\vector

; 400  :     _CONSTEXPR20 _Vector_val() noexcept : _Myfirst(), _Mylast(), _Myend() {}

  00180	c7 85 60 ff ff
	ff 00 00 00 00	 mov	 DWORD PTR $T67[ebp], 0
  0018a	c7 85 64 ff ff
	ff 00 00 00 00	 mov	 DWORD PTR $T67[ebp+4], 0
  00194	c7 85 68 ff ff
	ff 00 00 00 00	 mov	 DWORD PTR $T67[ebp+8], 0

; 721  :         _Construct_n(_Convert_size<size_type>(_Ilist.size()), _Ilist.begin(), _Ilist.end());

  0019e	2b f8		 sub	 edi, eax

; 2111 :         if (_Count != 0) {

  001a0	74 2c		 je	 SHORT $LN242@dynamic

; 2112 :             _Buy_nonzero(_Count);

  001a2	57		 push	 edi
  001a3	8d 8d 60 ff ff
	ff		 lea	 ecx, DWORD PTR $T67[ebp]
  001a9	e8 00 00 00 00	 call	 ?_Buy_nonzero@?$vector@EV?$allocator@E@std@@@std@@AAEXI@Z ; std::vector<unsigned char,std::allocator<unsigned char> >::_Buy_nonzero

; 2120 :                 _My_data._Mylast = _STD _Uninitialized_copy(_STD forward<_Valty>(_Val)..., _My_data._Myfirst, _Al);

  001ae	8b b5 60 ff ff
	ff		 mov	 esi, DWORD PTR $T67[ebp]
; File C:\Program Files\Microsoft Visual Studio\2022\Community\VC\Tools\MSVC\14.44.35207\include\xmemory

; 1889 :                 _STD _Copy_memmove(_STD _To_address(_UFirst), _STD _To_address(_ULast), _STD _Unfancy(_Dest));

  001b4	8d 45 ee	 lea	 eax, DWORD PTR $T63[ebp+6]
  001b7	56		 push	 esi
  001b8	50		 push	 eax
  001b9	8d 45 e8	 lea	 eax, DWORD PTR $T63[ebp]
  001bc	50		 push	 eax
  001bd	e8 00 00 00 00	 call	 ??$_Copy_memmove@PBEPAE@std@@YAPAEPBE0PAE@Z ; std::_Copy_memmove<unsigned char const *,unsigned char *>

; 1890 :                 _Dest += _ULast - _UFirst;

  001c2	8d 04 3e	 lea	 eax, DWORD PTR [esi+edi]
  001c5	83 c4 0c	 add	 esp, 12			; 0000000cH
; File C:\Program Files\Microsoft Visual Studio\2022\Community\VC\Tools\MSVC\14.44.35207\include\vector

; 2120 :                 _My_data._Mylast = _STD _Uninitialized_copy(_STD forward<_Valty>(_Val)..., _My_data._Myfirst, _Al);

  001c8	89 85 64 ff ff
	ff		 mov	 DWORD PTR $T67[ebp+4], eax
$LN242@dynamic:
; File C:\Program Files\Microsoft Visual Studio\2022\Community\VC\Tools\MSVC\14.44.35207\include\utility

; 263  :         : first(_Val1), second(_Val2) {}

  001ce	8d 45 d0	 lea	 eax, DWORD PTR $T44[ebp]
; File C:\Anka2Project\Anka2Project\Source\Binary\source\UserInterface\PythonPlayerSettingsModule.h

; 644  : {

  001d1	c6 45 fc 05	 mov	 BYTE PTR __$EHRec$[ebp+8], 5
; File C:\Program Files\Microsoft Visual Studio\2022\Community\VC\Tools\MSVC\14.44.35207\include\utility

; 263  :         : first(_Val1), second(_Val2) {}

  001d5	50		 push	 eax
  001d6	8d 4d 94	 lea	 ecx, DWORD PTR $T33[ebp+36]
  001d9	e8 00 00 00 00	 call	 ??0?$basic_string@DU?$char_traits@D@std@@V?$allocator@D@2@@std@@QAE@ABV01@@Z ; std::basic_string<char,std::char_traits<char>,std::allocator<char> >::basic_string<char,std::char_traits<char>,std::allocator<char> >
  001de	c6 45 fc 06	 mov	 BYTE PTR __$EHRec$[ebp+8], 6
; File C:\Program Files\Microsoft Visual Studio\2022\Community\VC\Tools\MSVC\14.44.35207\include\vector

; 748  :         const auto _Count       = static_cast<size_type>(_Right_data._Mylast - _Right_data._Myfirst);

  001e2	8b 85 64 ff ff
	ff		 mov	 eax, DWORD PTR $T67[ebp+4]

; 400  :     _CONSTEXPR20 _Vector_val() noexcept : _Myfirst(), _Mylast(), _Myend() {}

  001e8	c7 45 ac 00 00
	00 00		 mov	 DWORD PTR $T33[ebp+60], 0
  001ef	c7 45 b0 00 00
	00 00		 mov	 DWORD PTR $T33[ebp+64], 0
  001f6	c7 45 b4 00 00
	00 00		 mov	 DWORD PTR $T33[ebp+68], 0

; 748  :         const auto _Count       = static_cast<size_type>(_Right_data._Mylast - _Right_data._Myfirst);

  001fd	2b 85 60 ff ff
	ff		 sub	 eax, DWORD PTR $T67[ebp]

; 2111 :         if (_Count != 0) {

  00203	74 36		 je	 SHORT $LN274@dynamic

; 2112 :             _Buy_nonzero(_Count);

  00205	50		 push	 eax
  00206	8d 4d ac	 lea	 ecx, DWORD PTR $T33[ebp+60]
  00209	e8 00 00 00 00	 call	 ?_Buy_nonzero@?$vector@EV?$allocator@E@std@@@std@@AAEXI@Z ; std::vector<unsigned char,std::allocator<unsigned char> >::_Buy_nonzero

; 2120 :                 _My_data._Mylast = _STD _Uninitialized_copy(_STD forward<_Valty>(_Val)..., _My_data._Myfirst, _Al);

  0020e	8b 45 ac	 mov	 eax, DWORD PTR $T33[ebp+60]
; File C:\Program Files\Microsoft Visual Studio\2022\Community\VC\Tools\MSVC\14.44.35207\include\xmemory

; 1872 :     auto _ULast  = _RANGES _Unwrap_sent<_InIt>(_STD move(_Last));

  00211	8b b5 64 ff ff
	ff		 mov	 esi, DWORD PTR $T67[ebp+4]
  00217	8b bd 60 ff ff
	ff		 mov	 edi, DWORD PTR $T67[ebp]

; 1889 :                 _STD _Copy_memmove(_STD _To_address(_UFirst), _STD _To_address(_ULast), _STD _Unfancy(_Dest));

  0021d	50		 push	 eax
  0021e	56		 push	 esi
  0021f	57		 push	 edi
; File C:\Program Files\Microsoft Visual Studio\2022\Community\VC\Tools\MSVC\14.44.35207\include\vector

; 2120 :                 _My_data._Mylast = _STD _Uninitialized_copy(_STD forward<_Valty>(_Val)..., _My_data._Myfirst, _Al);

  00220	89 85 50 ff ff
	ff		 mov	 DWORD PTR __Dest$1$[ebp], eax
; File C:\Program Files\Microsoft Visual Studio\2022\Community\VC\Tools\MSVC\14.44.35207\include\xmemory

; 1889 :                 _STD _Copy_memmove(_STD _To_address(_UFirst), _STD _To_address(_ULast), _STD _Unfancy(_Dest));

  00226	e8 00 00 00 00	 call	 ??$_Copy_memmove@PAEPAE@std@@YAPAEPAE00@Z ; std::_Copy_memmove<unsigned char *,unsigned char *>

; 1890 :                 _Dest += _ULast - _UFirst;

  0022b	8b 85 50 ff ff
	ff		 mov	 eax, DWORD PTR __Dest$1$[ebp]
  00231	2b f7		 sub	 esi, edi
  00233	83 c4 0c	 add	 esp, 12			; 0000000cH
  00236	03 c6		 add	 eax, esi
; File C:\Program Files\Microsoft Visual Studio\2022\Community\VC\Tools\MSVC\14.44.35207\include\vector

; 2120 :                 _My_data._Mylast = _STD _Uninitialized_copy(_STD forward<_Valty>(_Val)..., _My_data._Myfirst, _Al);

  00238	89 45 b0	 mov	 DWORD PTR $T33[ebp+64], eax
$LN274@dynamic:
; File C:\Program Files\Microsoft Visual Studio\2022\Community\VC\Tools\MSVC\14.44.35207\include\initializer_list

; 34   :         : _First(_First_arg), _Last(_Last_arg) {}

  0023b	8d 45 b8	 lea	 eax, DWORD PTR $T33[ebp+72]
; File C:\Anka2Project\Anka2Project\Source\Binary\source\UserInterface\PythonPlayerSettingsModule.h

; 644  : {

  0023e	c6 45 fc 09	 mov	 BYTE PTR __$EHRec$[ebp+8], 9
; File C:\Program Files\Microsoft Visual Studio\2022\Community\VC\Tools\MSVC\14.44.35207\include\initializer_list

; 34   :         : _First(_First_arg), _Last(_Last_arg) {}

  00242	8d 8d 70 ff ff
	ff		 lea	 ecx, DWORD PTR $T33[ebp]
; File C:\Anka2Project\Anka2Project\Source\Binary\source\UserInterface\PythonPlayerSettingsModule.h

; 644  : {

  00248	50		 push	 eax
  00249	51		 push	 ecx
  0024a	b9 00 00 00 00	 mov	 ecx, OFFSET ?guildSkills@@3V?$map@V?$basic_string@DU?$char_traits@D@std@@V?$allocator@D@2@@std@@V?$vector@EV?$allocator@E@std@@@2@U?$less@V?$basic_string@DU?$char_traits@D@std@@V?$allocator@D@2@@std@@@2@V?$allocator@U?$pair@$$CBV?$basic_string@DU?$char_traits@D@std@@V?$allocator@D@2@@std@@V?$vector@EV?$allocator@E@std@@@2@@std@@@2@@std@@B
  0024f	e8 00 00 00 00	 call	 ??0?$map@V?$basic_string@DU?$char_traits@D@std@@V?$allocator@D@2@@std@@V?$vector@EV?$allocator@E@std@@@2@U?$less@V?$basic_string@DU?$char_traits@D@std@@V?$allocator@D@2@@std@@@2@V?$allocator@U?$pair@$$CBV?$basic_string@DU?$char_traits@D@std@@V?$allocator@D@2@@std@@V?$vector@EV?$allocator@E@std@@@2@@std@@@2@@std@@QAE@V?$initializer_list@U?$pair@$$CBV?$basic_string@DU?$char_traits@D@std@@V?$allocator@D@2@@std@@V?$vector@EV?$allocator@E@std@@@2@@std@@@1@@Z ; std::map<std::basic_string<char,std::char_traits<char>,std::allocator<char> >,std::vector<unsigned char,std::allocator<unsigned char> >,std::less<std::basic_string<char,std::char_traits<char>,std::allocator<char> > >,std::allocator<std::pair<std::basic_string<char,std::char_traits<char>,std::allocator<char> > const ,std::vector<unsigned char,std::allocator<unsigned char> > > > >::map<std::basic_string<char,std::char_traits<char>,std::allocator<char> >,std::vector<unsigned char,std::allocator<unsigned char> >,std::less<std::basic_string<char,std::char_traits<char>,std::allocator<char> > >,std::allocator<std::pair<std::basic_string<char,std::char_traits<char>,std::allocator<char> > const ,std::vector<unsigned char,std::allocator<unsigned char> > > > >
  00254	68 00 00 00 00	 push	 OFFSET ??1?$pair@$$CBV?$basic_string@DU?$char_traits@D@std@@V?$allocator@D@2@@std@@V?$vector@EV?$allocator@E@std@@@2@@std@@QAE@XZ
  00259	6a 02		 push	 2
  0025b	6a 24		 push	 36			; 00000024H
  0025d	8d 85 70 ff ff
	ff		 lea	 eax, DWORD PTR $T33[ebp]
  00263	c6 45 fc 08	 mov	 BYTE PTR __$EHRec$[ebp+8], 8
  00267	50		 push	 eax
  00268	e8 00 00 00 00	 call	 ??_M@YGXPAXIIP6EX0@Z@Z
; File C:\Program Files\Microsoft Visual Studio\2022\Community\VC\Tools\MSVC\14.44.35207\include\vector

; 2090 :         if (_Myfirst) { // destroy and deallocate old array

  0026d	8b 95 60 ff ff
	ff		 mov	 edx, DWORD PTR $T67[ebp]
  00273	85 d2		 test	 edx, edx
  00275	74 4e		 je	 SHORT $LN284@dynamic

; 2093 :             _Al.deallocate(_Myfirst, static_cast<size_type>(_Myend - _Myfirst));

  00277	8b 8d 68 ff ff
	ff		 mov	 ecx, DWORD PTR $T67[ebp+8]
; File C:\Program Files\Microsoft Visual Studio\2022\Community\VC\Tools\MSVC\14.44.35207\include\xmemory

; 985  :         _STD _Deallocate<_New_alignof<_Ty>>(_Ptr, sizeof(_Ty) * _Count);

  0027d	8b c2		 mov	 eax, edx
; File C:\Program Files\Microsoft Visual Studio\2022\Community\VC\Tools\MSVC\14.44.35207\include\vector

; 2093 :             _Al.deallocate(_Myfirst, static_cast<size_type>(_Myend - _Myfirst));

  0027f	2b ca		 sub	 ecx, edx
; File C:\Program Files\Microsoft Visual Studio\2022\Community\VC\Tools\MSVC\14.44.35207\include\xmemory

; 284  :         if (_Bytes >= _Big_allocation_threshold) {

  00281	81 f9 00 10 00
	00		 cmp	 ecx, 4096		; 00001000H
  00287	72 14		 jb	 SHORT $LN298@dynamic

; 205  :     const uintptr_t _Ptr_container   = _Ptr_user[-1];

  00289	8b 50 fc	 mov	 edx, DWORD PTR [eax-4]
  0028c	83 c1 23	 add	 ecx, 35			; 00000023H
  0028f	2b c2		 sub	 eax, edx

; 219  :     _STL_VERIFY(_Back_shift >= _Min_back_shift && _Back_shift <= _Non_user_size, "invalid argument");

  00291	83 c0 fc	 add	 eax, -4			; fffffffcH
  00294	83 f8 1f	 cmp	 eax, 31			; 0000001fH
  00297	0f 87 1e 01 00
	00		 ja	 $LN383@dynamic
$LN298@dynamic:

; 289  :         ::operator delete(_Ptr, _Bytes);

  0029d	51		 push	 ecx
  0029e	52		 push	 edx
  0029f	e8 00 00 00 00	 call	 ??3@YAXPAXI@Z		; operator delete
  002a4	83 c4 08	 add	 esp, 8
; File C:\Program Files\Microsoft Visual Studio\2022\Community\VC\Tools\MSVC\14.44.35207\include\vector

; 2095 :             _Myfirst = nullptr;

  002a7	c7 85 60 ff ff
	ff 00 00 00 00	 mov	 DWORD PTR $T67[ebp], 0

; 2096 :             _Mylast  = nullptr;

  002b1	c7 85 64 ff ff
	ff 00 00 00 00	 mov	 DWORD PTR $T67[ebp+4], 0

; 2097 :             _Myend   = nullptr;

  002bb	c7 85 68 ff ff
	ff 00 00 00 00	 mov	 DWORD PTR $T67[ebp+8], 0
$LN284@dynamic:
; File C:\Program Files\Microsoft Visual Studio\2022\Community\VC\Tools\MSVC\14.44.35207\include\xstring

; 453  :         return _Myres > _Small_string_capacity;

  002c5	8b 4d e4	 mov	 ecx, DWORD PTR $T44[ebp+20]
  002c8	83 f9 0f	 cmp	 ecx, 15			; 0000000fH

; 3083 :         if (_My_data._Large_mode_engaged()) {

  002cb	76 2c		 jbe	 SHORT $LN321@dynamic
; File C:\Program Files\Microsoft Visual Studio\2022\Community\VC\Tools\MSVC\14.44.35207\include\xmemory

; 985  :         _STD _Deallocate<_New_alignof<_Ty>>(_Ptr, sizeof(_Ty) * _Count);

  002cd	8b 55 d0	 mov	 edx, DWORD PTR $T44[ebp]
; File C:\Program Files\Microsoft Visual Studio\2022\Community\VC\Tools\MSVC\14.44.35207\include\xstring

; 852  :         _Al.deallocate(_Old_ptr, _Capacity + 1); // +1 for null terminator

  002d0	41		 inc	 ecx
; File C:\Program Files\Microsoft Visual Studio\2022\Community\VC\Tools\MSVC\14.44.35207\include\xmemory

; 985  :         _STD _Deallocate<_New_alignof<_Ty>>(_Ptr, sizeof(_Ty) * _Count);

  002d1	8b c2		 mov	 eax, edx

; 284  :         if (_Bytes >= _Big_allocation_threshold) {

  002d3	81 f9 00 10 00
	00		 cmp	 ecx, 4096		; 00001000H
  002d9	72 14		 jb	 SHORT $LN329@dynamic

; 205  :     const uintptr_t _Ptr_container   = _Ptr_user[-1];

  002db	8b 50 fc	 mov	 edx, DWORD PTR [eax-4]
  002de	83 c1 23	 add	 ecx, 35			; 00000023H
  002e1	2b c2		 sub	 eax, edx

; 219  :     _STL_VERIFY(_Back_shift >= _Min_back_shift && _Back_shift <= _Non_user_size, "invalid argument");

  002e3	83 c0 fc	 add	 eax, -4			; fffffffcH
  002e6	83 f8 1f	 cmp	 eax, 31			; 0000001fH
  002e9	0f 87 cc 00 00
	00		 ja	 $LN383@dynamic
$LN329@dynamic:

; 289  :         ::operator delete(_Ptr, _Bytes);

  002ef	51		 push	 ecx
  002f0	52		 push	 edx
  002f1	e8 00 00 00 00	 call	 ??3@YAXPAXI@Z		; operator delete
  002f6	83 c4 08	 add	 esp, 8
$LN321@dynamic:
; File C:\Program Files\Microsoft Visual Studio\2022\Community\VC\Tools\MSVC\14.44.35207\include\vector

; 2090 :         if (_Myfirst) { // destroy and deallocate old array

  002f9	8b 8d 54 ff ff
	ff		 mov	 ecx, DWORD PTR $T24[ebp]
; File C:\Program Files\Microsoft Visual Studio\2022\Community\VC\Tools\MSVC\14.44.35207\include\xstring

; 3090 :         _My_data._Mysize = 0;

  002ff	c7 45 e0 00 00
	00 00		 mov	 DWORD PTR $T44[ebp+16], 0

; 3091 :         _My_data._Myres  = _Small_string_capacity;

  00306	c7 45 e4 0f 00
	00 00		 mov	 DWORD PTR $T44[ebp+20], 15 ; 0000000fH

; 3092 :         // the _Traits::assign is last so the codegen doesn't think the char write can alias this
; 3093 :         _Traits::assign(_My_data._Bx._Buf[0], _Elem());

  0030d	c6 45 d0 00	 mov	 BYTE PTR $T44[ebp], 0
; File C:\Program Files\Microsoft Visual Studio\2022\Community\VC\Tools\MSVC\14.44.35207\include\vector

; 2090 :         if (_Myfirst) { // destroy and deallocate old array

  00311	85 c9		 test	 ecx, ecx
  00313	74 4e		 je	 SHORT $LN339@dynamic

; 2093 :             _Al.deallocate(_Myfirst, static_cast<size_type>(_Myend - _Myfirst));

  00315	8b 95 5c ff ff
	ff		 mov	 edx, DWORD PTR $T24[ebp+8]
; File C:\Program Files\Microsoft Visual Studio\2022\Community\VC\Tools\MSVC\14.44.35207\include\xmemory

; 985  :         _STD _Deallocate<_New_alignof<_Ty>>(_Ptr, sizeof(_Ty) * _Count);

  0031b	8b c1		 mov	 eax, ecx
; File C:\Program Files\Microsoft Visual Studio\2022\Community\VC\Tools\MSVC\14.44.35207\include\vector

; 2093 :             _Al.deallocate(_Myfirst, static_cast<size_type>(_Myend - _Myfirst));

  0031d	2b d1		 sub	 edx, ecx
; File C:\Program Files\Microsoft Visual Studio\2022\Community\VC\Tools\MSVC\14.44.35207\include\xmemory

; 284  :         if (_Bytes >= _Big_allocation_threshold) {

  0031f	81 fa 00 10 00
	00		 cmp	 edx, 4096		; 00001000H
  00325	72 14		 jb	 SHORT $LN353@dynamic

; 205  :     const uintptr_t _Ptr_container   = _Ptr_user[-1];

  00327	8b 48 fc	 mov	 ecx, DWORD PTR [eax-4]
  0032a	83 c2 23	 add	 edx, 35			; 00000023H
  0032d	2b c1		 sub	 eax, ecx

; 219  :     _STL_VERIFY(_Back_shift >= _Min_back_shift && _Back_shift <= _Non_user_size, "invalid argument");

  0032f	83 c0 fc	 add	 eax, -4			; fffffffcH
  00332	83 f8 1f	 cmp	 eax, 31			; 0000001fH
  00335	0f 87 80 00 00
	00		 ja	 $LN383@dynamic
$LN353@dynamic:

; 289  :         ::operator delete(_Ptr, _Bytes);

  0033b	52		 push	 edx
  0033c	51		 push	 ecx
  0033d	e8 00 00 00 00	 call	 ??3@YAXPAXI@Z		; operator delete
  00342	83 c4 08	 add	 esp, 8
; File C:\Program Files\Microsoft Visual Studio\2022\Community\VC\Tools\MSVC\14.44.35207\include\vector

; 2095 :             _Myfirst = nullptr;

  00345	c7 85 54 ff ff
	ff 00 00 00 00	 mov	 DWORD PTR $T24[ebp], 0

; 2096 :             _Mylast  = nullptr;

  0034f	c7 85 58 ff ff
	ff 00 00 00 00	 mov	 DWORD PTR $T24[ebp+4], 0

; 2097 :             _Myend   = nullptr;

  00359	c7 85 5c ff ff
	ff 00 00 00 00	 mov	 DWORD PTR $T24[ebp+8], 0
$LN339@dynamic:
; File C:\Program Files\Microsoft Visual Studio\2022\Community\VC\Tools\MSVC\14.44.35207\include\xstring

; 453  :         return _Myres > _Small_string_capacity;

  00363	8b 4d cc	 mov	 ecx, DWORD PTR $T1[ebp+20]
  00366	83 f9 0f	 cmp	 ecx, 15			; 0000000fH

; 3083 :         if (_My_data._Large_mode_engaged()) {

  00369	76 28		 jbe	 SHORT $LN376@dynamic
; File C:\Program Files\Microsoft Visual Studio\2022\Community\VC\Tools\MSVC\14.44.35207\include\xmemory

; 985  :         _STD _Deallocate<_New_alignof<_Ty>>(_Ptr, sizeof(_Ty) * _Count);

  0036b	8b 55 b8	 mov	 edx, DWORD PTR $T1[ebp]
; File C:\Program Files\Microsoft Visual Studio\2022\Community\VC\Tools\MSVC\14.44.35207\include\xstring

; 852  :         _Al.deallocate(_Old_ptr, _Capacity + 1); // +1 for null terminator

  0036e	41		 inc	 ecx
; File C:\Program Files\Microsoft Visual Studio\2022\Community\VC\Tools\MSVC\14.44.35207\include\xmemory

; 985  :         _STD _Deallocate<_New_alignof<_Ty>>(_Ptr, sizeof(_Ty) * _Count);

  0036f	8b c2		 mov	 eax, edx

; 284  :         if (_Bytes >= _Big_allocation_threshold) {

  00371	81 f9 00 10 00
	00		 cmp	 ecx, 4096		; 00001000H
  00377	72 10		 jb	 SHORT $LN384@dynamic

; 205  :     const uintptr_t _Ptr_container   = _Ptr_user[-1];

  00379	8b 50 fc	 mov	 edx, DWORD PTR [eax-4]
  0037c	83 c1 23	 add	 ecx, 35			; 00000023H
  0037f	2b c2		 sub	 eax, edx

; 219  :     _STL_VERIFY(_Back_shift >= _Min_back_shift && _Back_shift <= _Non_user_size, "invalid argument");

  00381	83 c0 fc	 add	 eax, -4			; fffffffcH
  00384	83 f8 1f	 cmp	 eax, 31			; 0000001fH
  00387	77 32		 ja	 SHORT $LN383@dynamic
$LN384@dynamic:

; 289  :         ::operator delete(_Ptr, _Bytes);

  00389	51		 push	 ecx
  0038a	52		 push	 edx
  0038b	e8 00 00 00 00	 call	 ??3@YAXPAXI@Z		; operator delete
  00390	83 c4 08	 add	 esp, 8
$LN376@dynamic:
; File C:\Anka2Project\Anka2Project\Source\Binary\source\UserInterface\PythonPlayerSettingsModule.h

; 643  : static const std::map < std::string, std::vector<uint8_t>> guildSkills

  00393	68 00 00 00 00	 push	 OFFSET ??__FguildSkills@@YAXXZ ; `dynamic atexit destructor for 'guildSkills''
  00398	e8 00 00 00 00	 call	 _atexit
  0039d	83 c4 04	 add	 esp, 4
  003a0	8b 4d f4	 mov	 ecx, DWORD PTR __$EHRec$[ebp]
  003a3	64 89 0d 00 00
	00 00		 mov	 DWORD PTR fs:0, ecx
  003aa	59		 pop	 ecx
  003ab	5f		 pop	 edi
  003ac	5e		 pop	 esi
  003ad	8b 4d f0	 mov	 ecx, DWORD PTR __$ArrayPad$[ebp]
  003b0	33 cd		 xor	 ecx, ebp
  003b2	e8 00 00 00 00	 call	 @__security_check_cookie@4
  003b7	8b e5		 mov	 esp, ebp
  003b9	5d		 pop	 ebp
  003ba	c3		 ret	 0
$LN383@dynamic:
; File C:\Program Files\Microsoft Visual Studio\2022\Community\VC\Tools\MSVC\14.44.35207\include\xmemory

; 219  :     _STL_VERIFY(_Back_shift >= _Min_back_shift && _Back_shift <= _Non_user_size, "invalid argument");

  003bb	6a 00		 push	 0
  003bd	6a 00		 push	 0
  003bf	6a 00		 push	 0
  003c1	6a 00		 push	 0
  003c3	6a 00		 push	 0
  003c5	e8 00 00 00 00	 call	 __invoke_watson
$LN433@dynamic:
  003ca	cc		 int	 3
text$di	ENDS
;	COMDAT text$x
text$x	SEGMENT
__unwindfunclet$??__EguildSkills@@YAXXZ$0:
  00000	8d 4d b8	 lea	 ecx, DWORD PTR $T1[ebp]
  00003	e9 00 00 00 00	 jmp	 ??1?$basic_string@DU?$char_traits@D@std@@V?$allocator@D@2@@std@@QAE@XZ ; std::basic_string<char,std::char_traits<char>,std::allocator<char> >::~basic_string<char,std::char_traits<char>,std::allocator<char> >
__unwindfunclet$??__EguildSkills@@YAXXZ$1:
  00008	8d 8d 54 ff ff
	ff		 lea	 ecx, DWORD PTR $T24[ebp]
  0000e	e9 00 00 00 00	 jmp	 ??1?$vector@EV?$allocator@E@std@@@std@@QAE@XZ ; std::vector<unsigned char,std::allocator<unsigned char> >::~vector<unsigned char,std::allocator<unsigned char> >
__unwindfunclet$??__EguildSkills@@YAXXZ$10:
  00013	8d 8d 70 ff ff
	ff		 lea	 ecx, DWORD PTR $T33[ebp]
  00019	e9 00 00 00 00	 jmp	 ??1?$basic_string@DU?$char_traits@D@std@@V?$allocator@D@2@@std@@QAE@XZ ; std::basic_string<char,std::char_traits<char>,std::allocator<char> >::~basic_string<char,std::char_traits<char>,std::allocator<char> >
__unwindfunclet$??__EguildSkills@@YAXXZ$2:
  0001e	8d 8d 70 ff ff
	ff		 lea	 ecx, DWORD PTR $T33[ebp]
  00024	e9 00 00 00 00	 jmp	 ??1?$pair@$$CBV?$basic_string@DU?$char_traits@D@std@@V?$allocator@D@2@@std@@V?$vector@EV?$allocator@E@std@@@2@@std@@QAE@XZ
__unwindfunclet$??__EguildSkills@@YAXXZ$3:
  00029	8d 4d d0	 lea	 ecx, DWORD PTR $T44[ebp]
  0002c	e9 00 00 00 00	 jmp	 ??1?$basic_string@DU?$char_traits@D@std@@V?$allocator@D@2@@std@@QAE@XZ ; std::basic_string<char,std::char_traits<char>,std::allocator<char> >::~basic_string<char,std::char_traits<char>,std::allocator<char> >
__unwindfunclet$??__EguildSkills@@YAXXZ$4:
  00031	8d 8d 60 ff ff
	ff		 lea	 ecx, DWORD PTR $T67[ebp]
  00037	e9 00 00 00 00	 jmp	 ??1?$vector@EV?$allocator@E@std@@@std@@QAE@XZ ; std::vector<unsigned char,std::allocator<unsigned char> >::~vector<unsigned char,std::allocator<unsigned char> >
__unwindfunclet$??__EguildSkills@@YAXXZ$16:
  0003c	8d 4d 94	 lea	 ecx, DWORD PTR $T33[ebp+36]
  0003f	e9 00 00 00 00	 jmp	 ??1?$basic_string@DU?$char_traits@D@std@@V?$allocator@D@2@@std@@QAE@XZ ; std::basic_string<char,std::char_traits<char>,std::allocator<char> >::~basic_string<char,std::char_traits<char>,std::allocator<char> >
__unwindfunclet$??__EguildSkills@@YAXXZ$6:
  00044	68 00 00 00 00	 push	 OFFSET ??1?$pair@$$CBV?$basic_string@DU?$char_traits@D@std@@V?$allocator@D@2@@std@@V?$vector@EV?$allocator@E@std@@@2@@std@@QAE@XZ
  00049	6a 02		 push	 2
  0004b	6a 24		 push	 36			; 00000024H
  0004d	8d 85 70 ff ff
	ff		 lea	 eax, DWORD PTR $T33[ebp]
  00053	50		 push	 eax
  00054	e8 00 00 00 00	 call	 ??_M@YGXPAXIIP6EX0@Z@Z
  00059	c3		 ret	 0
  0005a	cc		 int	 3
  0005b	cc		 int	 3
  0005c	cc		 int	 3
  0005d	cc		 int	 3
  0005e	cc		 int	 3
__ehhandler$??__EguildSkills@@YAXXZ:
  0005f	90		 npad	 1
  00060	90		 npad	 1
  00061	8b 54 24 08	 mov	 edx, DWORD PTR [esp+8]
  00065	8d 42 0c	 lea	 eax, DWORD PTR [edx+12]
  00068	8b 8a 50 ff ff
	ff		 mov	 ecx, DWORD PTR [edx-176]
  0006e	33 c8		 xor	 ecx, eax
  00070	e8 00 00 00 00	 call	 @__security_check_cookie@4
  00075	8b 4a fc	 mov	 ecx, DWORD PTR [edx-4]
  00078	33 c8		 xor	 ecx, eax
  0007a	e8 00 00 00 00	 call	 @__security_check_cookie@4
  0007f	b8 00 00 00 00	 mov	 eax, OFFSET __ehfuncinfo$??__EguildSkills@@YAXXZ
  00084	e9 00 00 00 00	 jmp	 ___CxxFrameHandler3
text$x	ENDS
??__EguildSkills@@YAXXZ ENDP				; `dynamic initializer for 'guildSkills''
; Function compile flags: /Ogtp
; File C:\Program Files\Microsoft Visual Studio\2022\Community\VC\Tools\MSVC\14.44.35207\include\xtree
; File C:\Program Files\Microsoft Visual Studio\2022\Community\VC\Tools\MSVC\14.44.35207\include\xmemory
;	COMDAT ??__FguildSkills@@YAXXZ
text$yd	SEGMENT
??__FguildSkills@@YAXXZ PROC				; `dynamic atexit destructor for 'guildSkills'', COMDAT
; File C:\Program Files\Microsoft Visual Studio\2022\Community\VC\Tools\MSVC\14.44.35207\include\xtree

; 777  :         _Erase_tree(_Al, _Myhead->_Parent);

  00000	a1 00 00 00 00	 mov	 eax, DWORD PTR ?guildSkills@@3V?$map@V?$basic_string@DU?$char_traits@D@std@@V?$allocator@D@2@@std@@V?$vector@EV?$allocator@E@std@@@2@U?$less@V?$basic_string@DU?$char_traits@D@std@@V?$allocator@D@2@@std@@@2@V?$allocator@U?$pair@$$CBV?$basic_string@DU?$char_traits@D@std@@V?$allocator@D@2@@std@@V?$vector@EV?$allocator@E@std@@@2@@std@@@2@@std@@B
  00005	b9 00 00 00 00	 mov	 ecx, OFFSET ?guildSkills@@3V?$map@V?$basic_string@DU?$char_traits@D@std@@V?$allocator@D@2@@std@@V?$vector@EV?$allocator@E@std@@@2@U?$less@V?$basic_string@DU?$char_traits@D@std@@V?$allocator@D@2@@std@@@2@V?$allocator@U?$pair@$$CBV?$basic_string@DU?$char_traits@D@std@@V?$allocator@D@2@@std@@V?$vector@EV?$allocator@E@std@@@2@@std@@@2@@std@@B
  0000a	ff 70 04	 push	 DWORD PTR [eax+4]
  0000d	68 00 00 00 00	 push	 OFFSET ?guildSkills@@3V?$map@V?$basic_string@DU?$char_traits@D@std@@V?$allocator@D@2@@std@@V?$vector@EV?$allocator@E@std@@@2@U?$less@V?$basic_string@DU?$char_traits@D@std@@V?$allocator@D@2@@std@@@2@V?$allocator@U?$pair@$$CBV?$basic_string@DU?$char_traits@D@std@@V?$allocator@D@2@@std@@V?$vector@EV?$allocator@E@std@@@2@@std@@@2@@std@@B
  00012	e8 00 00 00 00	 call	 ??$_Erase_tree@V?$allocator@U?$_Tree_node@U?$pair@$$CBV?$basic_string@DU?$char_traits@D@std@@V?$allocator@D@2@@std@@V?$vector@EV?$allocator@E@std@@@2@@std@@PAX@std@@@std@@@?$_Tree_val@U?$_Tree_simple_types@U?$pair@$$CBV?$basic_string@DU?$char_traits@D@std@@V?$allocator@D@2@@std@@V?$vector@EV?$allocator@E@std@@@2@@std@@@std@@@std@@QAEXAAV?$allocator@U?$_Tree_node@U?$pair@$$CBV?$basic_string@DU?$char_traits@D@std@@V?$allocator@D@2@@std@@V?$vector@EV?$allocator@E@std@@@2@@std@@PAX@std@@@1@PAU?$_Tree_node@U?$pair@$$CBV?$basic_string@DU?$char_traits@D@std@@V?$allocator@D@2@@std@@V?$vector@EV?$allocator@E@std@@@2@@std@@PAX@1@@Z ; std::_Tree_val<std::_Tree_simple_types<std::pair<std::basic_string<char,std::char_traits<char>,std::allocator<char> > const ,std::vector<unsigned char,std::allocator<unsigned char> > > > >::_Erase_tree<std::allocator<std::_Tree_node<std::pair<std::basic_string<char,std::char_traits<char>,std::allocator<char> > const ,std::vector<unsigned char,std::allocator<unsigned char> > >,void *> > >
; File C:\Program Files\Microsoft Visual Studio\2022\Community\VC\Tools\MSVC\14.44.35207\include\xmemory

; 289  :         ::operator delete(_Ptr, _Bytes);

  00017	6a 34		 push	 52			; 00000034H
  00019	ff 35 00 00 00
	00		 push	 DWORD PTR ?guildSkills@@3V?$map@V?$basic_string@DU?$char_traits@D@std@@V?$allocator@D@2@@std@@V?$vector@EV?$allocator@E@std@@@2@U?$less@V?$basic_string@DU?$char_traits@D@std@@V?$allocator@D@2@@std@@@2@V?$allocator@U?$pair@$$CBV?$basic_string@DU?$char_traits@D@std@@V?$allocator@D@2@@std@@V?$vector@EV?$allocator@E@std@@@2@@std@@@2@@std@@B
  0001f	e8 00 00 00 00	 call	 ??3@YAXPAXI@Z		; operator delete
  00024	83 c4 08	 add	 esp, 8
  00027	c3		 ret	 0
??__FguildSkills@@YAXXZ ENDP				; `dynamic atexit destructor for 'guildSkills''
text$yd	ENDS
; Function compile flags: /Ogtp
; File C:\Anka2Project\Anka2Project\Source\Binary\source\UserInterface\UserInterface.cpp
;	COMDAT ??__E_AVOID_FLOATING_POINT_LIBRARY_BUG@@YAXXZ
text$di	SEGMENT
??__E_AVOID_FLOATING_POINT_LIBRARY_BUG@@YAXXZ PROC	; `dynamic initializer for '_AVOID_FLOATING_POINT_LIBRARY_BUG'', COMDAT

; 32   : volatile int _AVOID_FLOATING_POINT_LIBRARY_BUG = _fltused;

  00000	a1 00 00 00 00	 mov	 eax, DWORD PTR __fltused
  00005	a3 00 00 00 00	 mov	 DWORD PTR __AVOID_FLOATING_POINT_LIBRARY_BUG, eax
  0000a	c3		 ret	 0
??__E_AVOID_FLOATING_POINT_LIBRARY_BUG@@YAXXZ ENDP	; `dynamic initializer for '_AVOID_FLOATING_POINT_LIBRARY_BUG''
text$di	ENDS
; Function compile flags: /Ogtp
; File C:\Anka2Project\Anka2Project\Source\Binary\source\UserInterface\UserInterface.cpp
;	COMDAT ??__E__iob_func@@YAXXZ
text$di	SEGMENT
??__E__iob_func@@YAXXZ PROC				; `dynamic initializer for '__iob_func'', COMDAT

; 35   : extern "C" { FILE __iob_func[3] = {*stdin,*stdout,*stderr }; }

  00000	6a 00		 push	 0
  00002	e8 00 00 00 00	 call	 ___acrt_iob_func
  00007	6a 01		 push	 1
  00009	e8 00 00 00 00	 call	 ___acrt_iob_func
  0000e	6a 02		 push	 2
  00010	e8 00 00 00 00	 call	 ___acrt_iob_func
  00015	83 c4 0c	 add	 esp, 12			; 0000000cH
  00018	c3		 ret	 0
??__E__iob_func@@YAXXZ ENDP				; `dynamic initializer for '__iob_func''
text$di	ENDS
; Function compile flags: /Ogtp
; File C:\Anka2Project\Anka2Project\Source\Binary\source\UserInterface\UserInterface.cpp
; File C:\Program Files\Microsoft Visual Studio\2022\Community\VC\Tools\MSVC\14.44.35207\include\xstring
; File C:\Program Files\Microsoft Visual Studio\2022\Community\VC\Tools\MSVC\14.44.35207\include\__msvc_string_view.hpp
; File C:\Program Files\Microsoft Visual Studio\2022\Community\VC\Tools\MSVC\14.44.35207\include\xstring
; File C:\Anka2Project\Anka2Project\Source\Binary\source\UserInterface\UserInterface.cpp
; File C:\Program Files\Microsoft Visual Studio\2022\Community\VC\Tools\MSVC\14.44.35207\include\xstring
; File C:\Anka2Project\Anka2Project\Source\Binary\source\UserInterface\UserInterface.cpp
; File C:\Program Files\Microsoft Visual Studio\2022\Community\VC\Tools\MSVC\14.44.35207\include\xstring
; File C:\Anka2Project\Anka2Project\Source\Binary\source\UserInterface\UserInterface.cpp
; File C:\Program Files\Microsoft Visual Studio\2022\Community\VC\Tools\MSVC\14.44.35207\include\xstring
; File C:\Anka2Project\Anka2Project\Source\Binary\source\UserInterface\UserInterface.cpp
; File C:\Program Files\Microsoft Visual Studio\2022\Community\VC\Tools\MSVC\14.44.35207\include\xstring
; File C:\Program Files\Microsoft Visual Studio\2022\Community\VC\Tools\MSVC\14.44.35207\include\xmemory
; File C:\Program Files\Microsoft Visual Studio\2022\Community\VC\Tools\MSVC\14.44.35207\include\xstring
; File C:\Program Files\Microsoft Visual Studio\2022\Community\VC\Tools\MSVC\14.44.35207\include\xmemory
; File C:\Anka2Project\Anka2Project\Source\Binary\source\UserInterface\UserInterface.cpp
; File C:\Program Files\Microsoft Visual Studio\2022\Community\VC\Tools\MSVC\14.44.35207\include\xstring
; File C:\Program Files\Microsoft Visual Studio\2022\Community\VC\Tools\MSVC\14.44.35207\include\xmemory
; File C:\Program Files\Microsoft Visual Studio\2022\Community\VC\Tools\MSVC\14.44.35207\include\xstring
; File C:\Program Files\Microsoft Visual Studio\2022\Community\VC\Tools\MSVC\14.44.35207\include\xmemory
; File C:\Anka2Project\Anka2Project\Source\Binary\source\UserInterface\UserInterface.cpp
; File C:\Program Files\Microsoft Visual Studio\2022\Community\VC\Tools\MSVC\14.44.35207\include\xmemory
; File C:\Anka2Project\Anka2Project\Source\Binary\source\UserInterface\UserInterface.cpp
;	COMDAT ?CheckPythonLibraryFilenames@@YA_NXZ
_TEXT	SEGMENT
_stFilename$33 = -44					; size = 24
__$ArrayPad$ = -20					; size = 4
__$EHRec$ = -12						; size = 12
?CheckPythonLibraryFilenames@@YA_NXZ PROC		; CheckPythonLibraryFilenames, COMDAT

; 95   : {

  00000	53		 push	 ebx
  00001	8b dc		 mov	 ebx, esp
  00003	83 ec 08	 sub	 esp, 8
  00006	83 e4 f8	 and	 esp, -8			; fffffff8H
  00009	83 c4 04	 add	 esp, 4
  0000c	55		 push	 ebp
  0000d	8b 6b 04	 mov	 ebp, DWORD PTR [ebx+4]
  00010	89 6c 24 04	 mov	 DWORD PTR [esp+4], ebp
  00014	8b ec		 mov	 ebp, esp
  00016	6a ff		 push	 -1
  00018	68 00 00 00 00	 push	 __ehhandler$?CheckPythonLibraryFilenames@@YA_NXZ
  0001d	64 a1 00 00 00
	00		 mov	 eax, DWORD PTR fs:0
  00023	50		 push	 eax
  00024	53		 push	 ebx
  00025	83 ec 20	 sub	 esp, 32			; 00000020H
  00028	a1 00 00 00 00	 mov	 eax, DWORD PTR ___security_cookie
  0002d	33 c5		 xor	 eax, ebp
  0002f	89 45 ec	 mov	 DWORD PTR __$ArrayPad$[ebp], eax
  00032	56		 push	 esi
  00033	57		 push	 edi
  00034	50		 push	 eax
  00035	8d 45 f4	 lea	 eax, DWORD PTR __$EHRec$[ebp]
  00038	64 a3 00 00 00
	00		 mov	 DWORD PTR fs:0, eax

; 96   : 	for (int i = 0;*sc_apszPythonLibraryFilenames[i] != '\n'; ++i)

  0003e	a1 00 00 00 00	 mov	 eax, DWORD PTR ?sc_apszPythonLibraryFilenames@@3PAPBDA
  00043	33 ff		 xor	 edi, edi
  00045	80 38 0a	 cmp	 BYTE PTR [eax], 10	; 0000000aH
  00048	0f 84 b2 00 00
	00		 je	 $LN3@CheckPytho
  0004e	66 90		 npad	 2
$LL4@CheckPytho:
  00050	0f 57 c0	 xorps	 xmm0, xmm0
; File C:\Program Files\Microsoft Visual Studio\2022\Community\VC\Tools\MSVC\14.44.35207\include\xstring

; 890  :             _My_data._Mysize = _Count;

  00053	c7 45 e4 04 00
	00 00		 mov	 DWORD PTR _stFilename$33[ebp+16], 4

; 493  :         _CONSTEXPR20 _Bxty() noexcept : _Buf() {} // user-provided, for fancy pointers

  0005a	0f 11 45 d4	 movups	 XMMWORD PTR _stFilename$33[ebp], xmm0

; 891  :             _My_data._Myres  = _Small_string_capacity;

  0005e	c7 45 e8 0f 00
	00 00		 mov	 DWORD PTR _stFilename$33[ebp+20], 15 ; 0000000fH
; File C:\Program Files\Microsoft Visual Studio\2022\Community\VC\Tools\MSVC\14.44.35207\include\__msvc_string_view.hpp

; 121  :         _CSTD memcpy(_First1, _First2, _Count * sizeof(_Elem));

  00065	c7 45 d4 6c 69
	62 5c		 mov	 DWORD PTR _stFilename$33[ebp], 1549953388 ; 5c62696cH
; File C:\Program Files\Microsoft Visual Studio\2022\Community\VC\Tools\MSVC\14.44.35207\include\xstring

; 898  :                 _Traits::assign(_My_data._Bx._Buf[_Count], _Elem());

  0006c	c6 45 d8 00	 mov	 BYTE PTR _stFilename$33[ebp+4], 0

; 1474 :         return append(_Ptr);

  00070	50		 push	 eax
  00071	8d 4d d4	 lea	 ecx, DWORD PTR _stFilename$33[ebp]
; File C:\Anka2Project\Anka2Project\Source\Binary\source\UserInterface\UserInterface.cpp

; 98   : 		std::string stFilename = "lib\\";

  00074	c7 45 fc 00 00
	00 00		 mov	 DWORD PTR __$EHRec$[ebp+8], 0
; File C:\Program Files\Microsoft Visual Studio\2022\Community\VC\Tools\MSVC\14.44.35207\include\xstring

; 1474 :         return append(_Ptr);

  0007b	e8 00 00 00 00	 call	 ?append@?$basic_string@DU?$char_traits@D@std@@V?$allocator@D@2@@std@@QAEAAV12@QBD@Z ; std::basic_string<char,std::char_traits<char>,std::allocator<char> >::append

; 453  :         return _Myres > _Small_string_capacity;

  00080	83 7d e8 0f	 cmp	 DWORD PTR _stFilename$33[ebp+20], 15 ; 0000000fH

; 444  :         const value_type* _Result = _Bx._Buf;

  00084	8d 45 d4	 lea	 eax, DWORD PTR _stFilename$33[ebp]
; File C:\Anka2Project\Anka2Project\Source\Binary\source\UserInterface\UserInterface.cpp

; 101  : 		if (_access(stFilename.c_str(), 0) != 0)

  00087	6a 00		 push	 0
; File C:\Program Files\Microsoft Visual Studio\2022\Community\VC\Tools\MSVC\14.44.35207\include\xstring

; 445  :         if (_Large_mode_engaged()) {

  00089	0f 47 45 d4	 cmova	 eax, DWORD PTR _stFilename$33[ebp]
; File C:\Anka2Project\Anka2Project\Source\Binary\source\UserInterface\UserInterface.cpp

; 101  : 		if (_access(stFilename.c_str(), 0) != 0)

  0008d	50		 push	 eax
  0008e	e8 00 00 00 00	 call	 __access
  00093	83 c4 08	 add	 esp, 8
  00096	85 c0		 test	 eax, eax
  00098	0f 85 82 00 00
	00		 jne	 $LN177@CheckPytho
; File C:\Program Files\Microsoft Visual Studio\2022\Community\VC\Tools\MSVC\14.44.35207\include\xstring

; 453  :         return _Myres > _Small_string_capacity;

  0009e	83 7d e8 0f	 cmp	 DWORD PTR _stFilename$33[ebp+20], 15 ; 0000000fH

; 444  :         const value_type* _Result = _Bx._Buf;

  000a2	8d 75 d4	 lea	 esi, DWORD PTR _stFilename$33[ebp]
  000a5	8d 4d d4	 lea	 ecx, DWORD PTR _stFilename$33[ebp]

; 445  :         if (_Large_mode_engaged()) {

  000a8	0f 47 75 d4	 cmova	 esi, DWORD PTR _stFilename$33[ebp]
  000ac	0f 47 4d d4	 cmova	 ecx, DWORD PTR _stFilename$33[ebp]
; File C:\Anka2Project\Anka2Project\Source\Binary\source\UserInterface\UserInterface.cpp

; 106  : 		MoveFile(stFilename.c_str(), stFilename.c_str());

  000b0	56		 push	 esi
  000b1	51		 push	 ecx
  000b2	ff 15 00 00 00
	00		 call	 DWORD PTR __imp__MoveFileA@8

; 107  : 	}

  000b8	c7 45 fc ff ff
	ff ff		 mov	 DWORD PTR __$EHRec$[ebp+8], -1
; File C:\Program Files\Microsoft Visual Studio\2022\Community\VC\Tools\MSVC\14.44.35207\include\xstring

; 453  :         return _Myres > _Small_string_capacity;

  000bf	8b 4d e8	 mov	 ecx, DWORD PTR _stFilename$33[ebp+20]
  000c2	83 f9 0f	 cmp	 ecx, 15			; 0000000fH

; 3083 :         if (_My_data._Large_mode_engaged()) {

  000c5	76 28		 jbe	 SHORT $LN158@CheckPytho
; File C:\Program Files\Microsoft Visual Studio\2022\Community\VC\Tools\MSVC\14.44.35207\include\xmemory

; 985  :         _STD _Deallocate<_New_alignof<_Ty>>(_Ptr, sizeof(_Ty) * _Count);

  000c7	8b 55 d4	 mov	 edx, DWORD PTR _stFilename$33[ebp]
; File C:\Program Files\Microsoft Visual Studio\2022\Community\VC\Tools\MSVC\14.44.35207\include\xstring

; 852  :         _Al.deallocate(_Old_ptr, _Capacity + 1); // +1 for null terminator

  000ca	41		 inc	 ecx
; File C:\Program Files\Microsoft Visual Studio\2022\Community\VC\Tools\MSVC\14.44.35207\include\xmemory

; 985  :         _STD _Deallocate<_New_alignof<_Ty>>(_Ptr, sizeof(_Ty) * _Count);

  000cb	8b c2		 mov	 eax, edx

; 284  :         if (_Bytes >= _Big_allocation_threshold) {

  000cd	81 f9 00 10 00
	00		 cmp	 ecx, 4096		; 00001000H
  000d3	72 10		 jb	 SHORT $LN166@CheckPytho

; 205  :     const uintptr_t _Ptr_container   = _Ptr_user[-1];

  000d5	8b 50 fc	 mov	 edx, DWORD PTR [eax-4]
  000d8	83 c1 23	 add	 ecx, 35			; 00000023H
  000db	2b c2		 sub	 eax, edx

; 219  :     _STL_VERIFY(_Back_shift >= _Min_back_shift && _Back_shift <= _Non_user_size, "invalid argument");

  000dd	83 c0 fc	 add	 eax, -4			; fffffffcH
  000e0	83 f8 1f	 cmp	 eax, 31			; 0000001fH
  000e3	77 6f		 ja	 SHORT $LN113@CheckPytho
$LN166@CheckPytho:

; 289  :         ::operator delete(_Ptr, _Bytes);

  000e5	51		 push	 ecx
  000e6	52		 push	 edx
  000e7	e8 00 00 00 00	 call	 ??3@YAXPAXI@Z		; operator delete
  000ec	83 c4 08	 add	 esp, 8
$LN158@CheckPytho:
; File C:\Anka2Project\Anka2Project\Source\Binary\source\UserInterface\UserInterface.cpp

; 96   : 	for (int i = 0;*sc_apszPythonLibraryFilenames[i] != '\n'; ++i)

  000ef	8b 04 bd 04 00
	00 00		 mov	 eax, DWORD PTR ?sc_apszPythonLibraryFilenames@@3PAPBDA[edi*4+4]
  000f6	47		 inc	 edi
  000f7	80 38 0a	 cmp	 BYTE PTR [eax], 10	; 0000000aH
  000fa	0f 85 50 ff ff
	ff		 jne	 $LL4@CheckPytho
$LN3@CheckPytho:

; 108  : 
; 109  : 	return true;

  00100	b0 01		 mov	 al, 1
$LN1@CheckPytho:

; 110  : }

  00102	8b 4d f4	 mov	 ecx, DWORD PTR __$EHRec$[ebp]
  00105	64 89 0d 00 00
	00 00		 mov	 DWORD PTR fs:0, ecx
  0010c	59		 pop	 ecx
  0010d	5f		 pop	 edi
  0010e	5e		 pop	 esi
  0010f	8b 4d ec	 mov	 ecx, DWORD PTR __$ArrayPad$[ebp]
  00112	33 cd		 xor	 ecx, ebp
  00114	e8 00 00 00 00	 call	 @__security_check_cookie@4
  00119	8b e5		 mov	 esp, ebp
  0011b	5d		 pop	 ebp
  0011c	8b e3		 mov	 esp, ebx
  0011e	5b		 pop	 ebx
  0011f	c3		 ret	 0
$LN177@CheckPytho:
; File C:\Program Files\Microsoft Visual Studio\2022\Community\VC\Tools\MSVC\14.44.35207\include\xstring

; 453  :         return _Myres > _Small_string_capacity;

  00120	8b 4d e8	 mov	 ecx, DWORD PTR _stFilename$33[ebp+20]
  00123	83 f9 0f	 cmp	 ecx, 15			; 0000000fH

; 3083 :         if (_My_data._Large_mode_engaged()) {

  00126	76 28		 jbe	 SHORT $LN106@CheckPytho
; File C:\Program Files\Microsoft Visual Studio\2022\Community\VC\Tools\MSVC\14.44.35207\include\xmemory

; 985  :         _STD _Deallocate<_New_alignof<_Ty>>(_Ptr, sizeof(_Ty) * _Count);

  00128	8b 55 d4	 mov	 edx, DWORD PTR _stFilename$33[ebp]
; File C:\Program Files\Microsoft Visual Studio\2022\Community\VC\Tools\MSVC\14.44.35207\include\xstring

; 852  :         _Al.deallocate(_Old_ptr, _Capacity + 1); // +1 for null terminator

  0012b	41		 inc	 ecx
; File C:\Program Files\Microsoft Visual Studio\2022\Community\VC\Tools\MSVC\14.44.35207\include\xmemory

; 985  :         _STD _Deallocate<_New_alignof<_Ty>>(_Ptr, sizeof(_Ty) * _Count);

  0012c	8b c2		 mov	 eax, edx

; 284  :         if (_Bytes >= _Big_allocation_threshold) {

  0012e	81 f9 00 10 00
	00		 cmp	 ecx, 4096		; 00001000H
  00134	72 10		 jb	 SHORT $LN114@CheckPytho

; 205  :     const uintptr_t _Ptr_container   = _Ptr_user[-1];

  00136	8b 50 fc	 mov	 edx, DWORD PTR [eax-4]
  00139	83 c1 23	 add	 ecx, 35			; 00000023H
  0013c	2b c2		 sub	 eax, edx

; 219  :     _STL_VERIFY(_Back_shift >= _Min_back_shift && _Back_shift <= _Non_user_size, "invalid argument");

  0013e	83 c0 fc	 add	 eax, -4			; fffffffcH
  00141	83 f8 1f	 cmp	 eax, 31			; 0000001fH
  00144	77 0e		 ja	 SHORT $LN113@CheckPytho
$LN114@CheckPytho:

; 289  :         ::operator delete(_Ptr, _Bytes);

  00146	51		 push	 ecx
  00147	52		 push	 edx
  00148	e8 00 00 00 00	 call	 ??3@YAXPAXI@Z		; operator delete
  0014d	83 c4 08	 add	 esp, 8
$LN106@CheckPytho:
; File C:\Anka2Project\Anka2Project\Source\Binary\source\UserInterface\UserInterface.cpp

; 103  : 			return false;

  00150	32 c0		 xor	 al, al
  00152	eb ae		 jmp	 SHORT $LN1@CheckPytho
$LN113@CheckPytho:
; File C:\Program Files\Microsoft Visual Studio\2022\Community\VC\Tools\MSVC\14.44.35207\include\xmemory

; 219  :     _STL_VERIFY(_Back_shift >= _Min_back_shift && _Back_shift <= _Non_user_size, "invalid argument");

  00154	6a 00		 push	 0
  00156	6a 00		 push	 0
  00158	6a 00		 push	 0
  0015a	6a 00		 push	 0
  0015c	6a 00		 push	 0
  0015e	e8 00 00 00 00	 call	 __invoke_watson
$LN194@CheckPytho:
  00163	cc		 int	 3
_TEXT	ENDS
;	COMDAT text$x
text$x	SEGMENT
__unwindfunclet$?CheckPythonLibraryFilenames@@YA_NXZ$0:
  00000	8d 4d d4	 lea	 ecx, DWORD PTR _stFilename$33[ebp]
  00003	e9 00 00 00 00	 jmp	 ??1?$basic_string@DU?$char_traits@D@std@@V?$allocator@D@2@@std@@QAE@XZ ; std::basic_string<char,std::char_traits<char>,std::allocator<char> >::~basic_string<char,std::char_traits<char>,std::allocator<char> >
  00008	cc		 int	 3
  00009	cc		 int	 3
  0000a	cc		 int	 3
  0000b	cc		 int	 3
  0000c	cc		 int	 3
__ehhandler$?CheckPythonLibraryFilenames@@YA_NXZ:
  0000d	90		 npad	 1
  0000e	90		 npad	 1
  0000f	8b 54 24 08	 mov	 edx, DWORD PTR [esp+8]
  00013	8d 42 0c	 lea	 eax, DWORD PTR [edx+12]
  00016	8b 4a d0	 mov	 ecx, DWORD PTR [edx-48]
  00019	33 c8		 xor	 ecx, eax
  0001b	e8 00 00 00 00	 call	 @__security_check_cookie@4
  00020	8b 4a f8	 mov	 ecx, DWORD PTR [edx-8]
  00023	33 c8		 xor	 ecx, eax
  00025	e8 00 00 00 00	 call	 @__security_check_cookie@4
  0002a	b8 00 00 00 00	 mov	 eax, OFFSET __ehfuncinfo$?CheckPythonLibraryFilenames@@YA_NXZ
  0002f	e9 00 00 00 00	 jmp	 ___CxxFrameHandler3
text$x	ENDS
?CheckPythonLibraryFilenames@@YA_NXZ ENDP		; CheckPythonLibraryFilenames
; Function compile flags: /Ogtp
; File C:\Anka2Project\Anka2Project\Source\Binary\source\UserInterface\UserInterface.cpp
; File C:\Program Files\Microsoft Visual Studio\2022\Community\VC\Tools\MSVC\14.44.35207\include\xstring
; File C:\Anka2Project\Anka2Project\Source\Binary\source\UserInterface\UserInterface.cpp
; File C:\Program Files\Microsoft Visual Studio\2022\Community\VC\Tools\MSVC\14.44.35207\include\xstring
; File C:\Anka2Project\Anka2Project\Source\Binary\source\UserInterface\UserInterface.cpp
; File C:\Program Files\Microsoft Visual Studio\2022\Community\VC\Tools\MSVC\14.44.35207\include\xstring
; File C:\Program Files\Microsoft Visual Studio\2022\Community\VC\Tools\MSVC\14.44.35207\include\vector
; File C:\Anka2Project\Anka2Project\Source\Binary\source\UserInterface\UserInterface.cpp
; File C:\Program Files\Microsoft Visual Studio\2022\Community\VC\Tools\MSVC\14.44.35207\include\vector
; File C:\Anka2Project\Anka2Project\Source\Binary\source\UserInterface\UserInterface.cpp
; File C:\Program Files\Microsoft Visual Studio\2022\Community\VC\Tools\MSVC\14.44.35207\include\vector
; File C:\Anka2Project\Anka2Project\Source\Binary\source\UserInterface\UserInterface.cpp
; File C:\Program Files\Microsoft Visual Studio\2022\Community\VC\Tools\MSVC\14.44.35207\include\xstring
; File C:\Anka2Project\Anka2Project\Source\Binary\source\UserInterface\UserInterface.cpp
; File C:\Program Files\Microsoft Visual Studio\2022\Community\VC\Tools\MSVC\14.44.35207\include\xstring
; File C:\Program Files\Microsoft Visual Studio\2022\Community\VC\Tools\MSVC\14.44.35207\include\vector
; File C:\Program Files\Microsoft Visual Studio\2022\Community\VC\Tools\MSVC\14.44.35207\include\xstring
; File C:\Anka2Project\Anka2Project\Source\Binary\source\UserInterface\UserInterface.cpp
; File C:\Program Files\Microsoft Visual Studio\2022\Community\VC\Tools\MSVC\14.44.35207\include\__msvc_string_view.hpp
; File C:\Anka2Project\Anka2Project\Source\Binary\source\UserInterface\UserInterface.cpp
; File C:\Program Files\Microsoft Visual Studio\2022\Community\VC\Tools\MSVC\14.44.35207\include\__msvc_string_view.hpp
; File C:\Program Files\Microsoft Visual Studio\2022\Community\VC\Tools\MSVC\14.44.35207\include\xstring
; File C:\Program Files\Microsoft Visual Studio\2022\Community\VC\Tools\MSVC\14.44.35207\include\vector
; File C:\Program Files\Microsoft Visual Studio\2022\Community\VC\Tools\MSVC\14.44.35207\include\xstring
; File C:\Program Files\Microsoft Visual Studio\2022\Community\VC\Tools\MSVC\14.44.35207\include\vector
; File C:\Program Files\Microsoft Visual Studio\2022\Community\VC\Tools\MSVC\14.44.35207\include\xstring
; File C:\Anka2Project\Anka2Project\Source\Binary\source\UserInterface\UserInterface.cpp
; File C:\Program Files\Microsoft Visual Studio\2022\Community\VC\Tools\MSVC\14.44.35207\include\xstring
; File C:\Anka2Project\Anka2Project\Source\Binary\source\UserInterface\UserInterface.cpp
; File C:\Program Files\Microsoft Visual Studio\2022\Community\VC\Tools\MSVC\14.44.35207\include\xstring
; File C:\Program Files\Microsoft Visual Studio\2022\Community\VC\Tools\MSVC\14.44.35207\include\__msvc_string_view.hpp
; File C:\Anka2Project\Anka2Project\Source\Binary\source\UserInterface\UserInterface.cpp
; File C:\Program Files\Microsoft Visual Studio\2022\Community\VC\Tools\MSVC\14.44.35207\include\xstring
; File C:\Program Files\Microsoft Visual Studio\2022\Community\VC\Tools\MSVC\14.44.35207\include\__msvc_string_view.hpp
; File C:\Program Files\Microsoft Visual Studio\2022\Community\VC\Tools\MSVC\14.44.35207\include\xstring
; File C:\Program Files\Microsoft Visual Studio\2022\Community\VC\Tools\MSVC\14.44.35207\include\xmemory
; File C:\Program Files\Microsoft Visual Studio\2022\Community\VC\Tools\MSVC\14.44.35207\include\xstring
; File C:\Program Files\Microsoft Visual Studio\2022\Community\VC\Tools\MSVC\14.44.35207\include\__msvc_string_view.hpp
; File C:\Program Files\Microsoft Visual Studio\2022\Community\VC\Tools\MSVC\14.44.35207\include\xstring
; File C:\Program Files\Microsoft Visual Studio\2022\Community\VC\Tools\MSVC\14.44.35207\include\__msvc_string_view.hpp
; File C:\Program Files\Microsoft Visual Studio\2022\Community\VC\Tools\MSVC\14.44.35207\include\xstring
; File C:\Program Files\Microsoft Visual Studio\2022\Community\VC\Tools\MSVC\14.44.35207\include\xmemory
; File C:\Program Files\Microsoft Visual Studio\2022\Community\VC\Tools\MSVC\14.44.35207\include\xstring
; File C:\Program Files\Microsoft Visual Studio\2022\Community\VC\Tools\MSVC\14.44.35207\include\__msvc_string_view.hpp
; File C:\Program Files\Microsoft Visual Studio\2022\Community\VC\Tools\MSVC\14.44.35207\include\xstring
; File C:\Program Files\Microsoft Visual Studio\2022\Community\VC\Tools\MSVC\14.44.35207\include\__msvc_string_view.hpp
; File C:\Program Files\Microsoft Visual Studio\2022\Community\VC\Tools\MSVC\14.44.35207\include\xstring
; File C:\Program Files\Microsoft Visual Studio\2022\Community\VC\Tools\MSVC\14.44.35207\include\xmemory
; File C:\Program Files\Microsoft Visual Studio\2022\Community\VC\Tools\MSVC\14.44.35207\include\xstring
; File C:\Program Files\Microsoft Visual Studio\2022\Community\VC\Tools\MSVC\14.44.35207\include\__msvc_string_view.hpp
; File C:\Program Files\Microsoft Visual Studio\2022\Community\VC\Tools\MSVC\14.44.35207\include\xstring
; File C:\Program Files\Microsoft Visual Studio\2022\Community\VC\Tools\MSVC\14.44.35207\include\__msvc_string_view.hpp
; File C:\Program Files\Microsoft Visual Studio\2022\Community\VC\Tools\MSVC\14.44.35207\include\xstring
; File C:\Program Files\Microsoft Visual Studio\2022\Community\VC\Tools\MSVC\14.44.35207\include\xmemory
; File C:\Program Files\Microsoft Visual Studio\2022\Community\VC\Tools\MSVC\14.44.35207\include\xstring
; File C:\Program Files\Microsoft Visual Studio\2022\Community\VC\Tools\MSVC\14.44.35207\include\__msvc_string_view.hpp
; File C:\Program Files\Microsoft Visual Studio\2022\Community\VC\Tools\MSVC\14.44.35207\include\xstring
; File C:\Anka2Project\Anka2Project\Source\Binary\source\UserInterface\UserInterface.cpp
; File C:\Program Files\Microsoft Visual Studio\2022\Community\VC\Tools\MSVC\14.44.35207\include\xstring
; File C:\Anka2Project\Anka2Project\Source\Binary\source\UserInterface\UserInterface.cpp
; File C:\Program Files\Microsoft Visual Studio\2022\Community\VC\Tools\MSVC\14.44.35207\include\vector
; File C:\Anka2Project\Anka2Project\Source\Binary\source\UserInterface\UserInterface.cpp
; File C:\Program Files\Microsoft Visual Studio\2022\Community\VC\Tools\MSVC\14.44.35207\include\vector
; File C:\Program Files\Microsoft Visual Studio\2022\Community\VC\Tools\MSVC\14.44.35207\include\xmemory
; File C:\Program Files\Microsoft Visual Studio\2022\Community\VC\Tools\MSVC\14.44.35207\include\xstring
; File C:\Program Files\Microsoft Visual Studio\2022\Community\VC\Tools\MSVC\14.44.35207\include\xmemory
; File C:\Program Files\Microsoft Visual Studio\2022\Community\VC\Tools\MSVC\14.44.35207\include\vector
; File C:\Program Files\Microsoft Visual Studio\2022\Community\VC\Tools\MSVC\14.44.35207\include\xmemory
; File C:\Program Files\Microsoft Visual Studio\2022\Community\VC\Tools\MSVC\14.44.35207\include\vector
; File C:\Program Files\Microsoft Visual Studio\2022\Community\VC\Tools\MSVC\14.44.35207\include\xstring
; File C:\Program Files\Microsoft Visual Studio\2022\Community\VC\Tools\MSVC\14.44.35207\include\xmemory
; File C:\Program Files\Microsoft Visual Studio\2022\Community\VC\Tools\MSVC\14.44.35207\include\xstring
; File C:\Program Files\Microsoft Visual Studio\2022\Community\VC\Tools\MSVC\14.44.35207\include\xmemory
; File C:\Program Files\Microsoft Visual Studio\2022\Community\VC\Tools\MSVC\14.44.35207\include\xstring
; File C:\Program Files\Microsoft Visual Studio\2022\Community\VC\Tools\MSVC\14.44.35207\include\xmemory
; File C:\Program Files\Microsoft Visual Studio\2022\Community\VC\Tools\MSVC\14.44.35207\include\xstring
; File C:\Program Files\Microsoft Visual Studio\2022\Community\VC\Tools\MSVC\14.44.35207\include\xmemory
; File C:\Program Files\Microsoft Visual Studio\2022\Community\VC\Tools\MSVC\14.44.35207\include\xstring
; File C:\Anka2Project\Anka2Project\Source\Binary\source\UserInterface\UserInterface.cpp
; File C:\Program Files\Microsoft Visual Studio\2022\Community\VC\Tools\MSVC\14.44.35207\include\vector
; File C:\Program Files\Microsoft Visual Studio\2022\Community\VC\Tools\MSVC\14.44.35207\include\xmemory
; File C:\Program Files\Microsoft Visual Studio\2022\Community\VC\Tools\MSVC\14.44.35207\include\xstring
; File C:\Program Files\Microsoft Visual Studio\2022\Community\VC\Tools\MSVC\14.44.35207\include\xmemory
; File C:\Program Files\Microsoft Visual Studio\2022\Community\VC\Tools\MSVC\14.44.35207\include\vector
; File C:\Program Files\Microsoft Visual Studio\2022\Community\VC\Tools\MSVC\14.44.35207\include\xmemory
; File C:\Program Files\Microsoft Visual Studio\2022\Community\VC\Tools\MSVC\14.44.35207\include\vector
; File C:\Anka2Project\Anka2Project\Source\Binary\source\UserInterface\UserInterface.cpp
; File C:\Program Files\Microsoft Visual Studio\2022\Community\VC\Tools\MSVC\14.44.35207\include\xstring
; File C:\Program Files\Microsoft Visual Studio\2022\Community\VC\Tools\MSVC\14.44.35207\include\xmemory
; File C:\Program Files\Microsoft Visual Studio\2022\Community\VC\Tools\MSVC\14.44.35207\include\xstring
; File C:\Program Files\Microsoft Visual Studio\2022\Community\VC\Tools\MSVC\14.44.35207\include\xmemory
; File C:\Anka2Project\Anka2Project\Source\Binary\source\UserInterface\UserInterface.cpp
; File C:\Program Files\Microsoft Visual Studio\2022\Community\VC\Tools\MSVC\14.44.35207\include\xstring
; File C:\Program Files\Microsoft Visual Studio\2022\Community\VC\Tools\MSVC\14.44.35207\include\xmemory
; File C:\Program Files\Microsoft Visual Studio\2022\Community\VC\Tools\MSVC\14.44.35207\include\xstring
; File C:\Program Files\Microsoft Visual Studio\2022\Community\VC\Tools\MSVC\14.44.35207\include\xmemory
; File C:\Program Files\Microsoft Visual Studio\2022\Community\VC\Tools\MSVC\14.44.35207\include\vector
; File C:\Anka2Project\Anka2Project\Source\Binary\source\UserInterface\UserInterface.cpp
; File C:\Program Files\Microsoft Visual Studio\2022\Community\VC\Tools\MSVC\14.44.35207\include\vector
; File C:\Anka2Project\Anka2Project\Source\Binary\source\UserInterface\UserInterface.cpp
; File C:\Program Files\Microsoft Visual Studio\2022\Community\VC\Tools\MSVC\14.44.35207\include\vector
; File C:\Anka2Project\Anka2Project\Source\Binary\source\UserInterface\UserInterface.cpp
; File C:\Program Files\Microsoft Visual Studio\2022\Community\VC\Tools\MSVC\14.44.35207\include\xstring
; File C:\Anka2Project\Anka2Project\Source\Binary\source\UserInterface\UserInterface.cpp
; File C:\Program Files\Microsoft Visual Studio\2022\Community\VC\Tools\MSVC\14.44.35207\include\vector
; File C:\Anka2Project\Anka2Project\Source\Binary\source\UserInterface\UserInterface.cpp
; File C:\Program Files\Microsoft Visual Studio\2022\Community\VC\Tools\MSVC\14.44.35207\include\vector
; File C:\Program Files\Microsoft Visual Studio\2022\Community\VC\Tools\MSVC\14.44.35207\include\xmemory
; File C:\Program Files\Microsoft Visual Studio\2022\Community\VC\Tools\MSVC\14.44.35207\include\xstring
; File C:\Program Files\Microsoft Visual Studio\2022\Community\VC\Tools\MSVC\14.44.35207\include\xmemory
; File C:\Program Files\Microsoft Visual Studio\2022\Community\VC\Tools\MSVC\14.44.35207\include\vector
; File C:\Program Files\Microsoft Visual Studio\2022\Community\VC\Tools\MSVC\14.44.35207\include\xmemory
; File C:\Anka2Project\Anka2Project\Source\Binary\source\UserInterface\UserInterface.cpp
; File C:\Program Files\Microsoft Visual Studio\2022\Community\VC\Tools\MSVC\14.44.35207\include\vector
; File C:\Program Files\Microsoft Visual Studio\2022\Community\VC\Tools\MSVC\14.44.35207\include\xmemory
; File C:\Program Files\Microsoft Visual Studio\2022\Community\VC\Tools\MSVC\14.44.35207\include\xstring
; File C:\Program Files\Microsoft Visual Studio\2022\Community\VC\Tools\MSVC\14.44.35207\include\xmemory
; File C:\Program Files\Microsoft Visual Studio\2022\Community\VC\Tools\MSVC\14.44.35207\include\vector
; File C:\Program Files\Microsoft Visual Studio\2022\Community\VC\Tools\MSVC\14.44.35207\include\xmemory
; File C:\Anka2Project\Anka2Project\Source\Binary\source\UserInterface\UserInterface.cpp
; File C:\Program Files\Microsoft Visual Studio\2022\Community\VC\Tools\MSVC\14.44.35207\include\xstring
; File C:\Program Files\Microsoft Visual Studio\2022\Community\VC\Tools\MSVC\14.44.35207\include\xmemory
; File C:\Anka2Project\Anka2Project\Source\Binary\source\UserInterface\UserInterface.cpp
;	COMDAT ?RunMainScript@@YA_NAAVCPythonLauncher@@PBD@Z
_TEXT	SEGMENT
_pyLauncher$GSCopy$1$ = -392				; size = 4
_lpCmdLine$GSCopy$1$ = -388				; size = 4
__Old_size$1$ = -384					; size = 4
__Old_capacity$1$ = -384				; size = 4
$T91 = -380						; size = 1
tv3174 = -380						; size = 4
tv3186 = -380						; size = 4
tv3204 = -380						; size = 4
__Old_capacity$1$ = -376				; size = 4
tv3168 = -376						; size = 4
__Old_size$1$ = -376					; size = 4
_stVec$138 = -372					; size = 12
_stVec$139 = -372					; size = 12
$T26 = -360						; size = 24
$T40 = -360						; size = 24
_stCmdLine$140 = -336					; size = 24
_stRegisterCmdLine$141 = -312				; size = 24
_buf$142 = -288						; size = 260
__$ArrayPad$ = -20					; size = 4
__$EHRec$ = -12						; size = 12
?RunMainScript@@YA_NAAVCPythonLauncher@@PBD@Z PROC	; RunMainScript, COMDAT
; _pyLauncher$ = ecx
; _lpCmdLine$ = edx

; 378  : {

  00000	53		 push	 ebx
  00001	8b dc		 mov	 ebx, esp
  00003	83 ec 08	 sub	 esp, 8
  00006	83 e4 f8	 and	 esp, -8			; fffffff8H
  00009	83 c4 04	 add	 esp, 4
  0000c	55		 push	 ebp
  0000d	8b 6b 04	 mov	 ebp, DWORD PTR [ebx+4]
  00010	89 6c 24 04	 mov	 DWORD PTR [esp+4], ebp
  00014	8b ec		 mov	 ebp, esp
  00016	6a ff		 push	 -1
  00018	68 00 00 00 00	 push	 __ehhandler$?RunMainScript@@YA_NAAVCPythonLauncher@@PBD@Z
  0001d	64 a1 00 00 00
	00		 mov	 eax, DWORD PTR fs:0
  00023	50		 push	 eax
  00024	53		 push	 ebx
  00025	81 ec 7c 01 00
	00		 sub	 esp, 380		; 0000017cH
  0002b	a1 00 00 00 00	 mov	 eax, DWORD PTR ___security_cookie
  00030	33 c5		 xor	 eax, ebp
  00032	89 45 ec	 mov	 DWORD PTR __$ArrayPad$[ebp], eax
  00035	56		 push	 esi
  00036	57		 push	 edi
  00037	50		 push	 eax
  00038	8d 45 f4	 lea	 eax, DWORD PTR __$EHRec$[ebp]
  0003b	64 a3 00 00 00
	00		 mov	 DWORD PTR fs:0, eax
  00041	89 95 7c fe ff
	ff		 mov	 DWORD PTR _lpCmdLine$GSCopy$1$[ebp], edx
  00047	89 8d 78 fe ff
	ff		 mov	 DWORD PTR _pyLauncher$GSCopy$1$[ebp], ecx

; 379  : #ifdef ENABLE_PYTHON_DYNAMIC_MODULE_NAME
; 380  : 	initPythonApi();

  0004d	e8 00 00 00 00	 call	 ?initPythonApi@@YAXXZ	; initPythonApi

; 381  : #endif
; 382  : 	initpack();

  00052	e8 00 00 00 00	 call	 ?initpack@@YAXXZ	; initpack

; 383  : 	initdbg();

  00057	e8 00 00 00 00	 call	 ?initdbg@@YAXXZ		; initdbg

; 384  : 	initime();

  0005c	e8 00 00 00 00	 call	 ?initime@@YAXXZ		; initime

; 385  : 	initgrp();

  00061	e8 00 00 00 00	 call	 ?initgrp@@YAXXZ		; initgrp

; 386  : 	initgrpImage();

  00066	e8 00 00 00 00	 call	 ?initgrpImage@@YAXXZ	; initgrpImage

; 387  : 	initgrpText();

  0006b	e8 00 00 00 00	 call	 ?initgrpText@@YAXXZ	; initgrpText

; 388  : 	initwndMgr();

  00070	e8 00 00 00 00	 call	 ?initwndMgr@@YAXXZ	; initwndMgr

; 389  : 	initudp();
; 390  : 	initapp();

  00075	e8 00 00 00 00	 call	 ?initapp@@YAXXZ		; initapp

; 391  : 	initsystem();

  0007a	e8 00 00 00 00	 call	 ?initsystem@@YAXXZ	; initsystem

; 392  : 	initchr();

  0007f	e8 00 00 00 00	 call	 ?initchr@@YAXXZ		; initchr

; 393  : 	initchrmgr();

  00084	e8 00 00 00 00	 call	 ?initchrmgr@@YAXXZ	; initchrmgr

; 394  : 	initPlayer();

  00089	e8 00 00 00 00	 call	 ?initPlayer@@YAXXZ	; initPlayer

; 395  : 	initItem();

  0008e	e8 00 00 00 00	 call	 ?initItem@@YAXXZ	; initItem

; 396  : 	initNonPlayer();

  00093	e8 00 00 00 00	 call	 ?initNonPlayer@@YAXXZ	; initNonPlayer

; 397  : 	initTrade();

  00098	e8 00 00 00 00	 call	 ?initTrade@@YAXXZ	; initTrade

; 398  : 	initChat();

  0009d	e8 00 00 00 00	 call	 ?initChat@@YAXXZ	; initChat

; 399  : 	initTextTail();

  000a2	e8 00 00 00 00	 call	 ?initTextTail@@YAXXZ	; initTextTail

; 400  : 	initnet();

  000a7	e8 00 00 00 00	 call	 ?initnet@@YAXXZ		; initnet

; 401  : 	initMiniMap();

  000ac	e8 00 00 00 00	 call	 ?initMiniMap@@YAXXZ	; initMiniMap

; 402  : 	initProfiler();

  000b1	e8 00 00 00 00	 call	 ?initProfiler@@YAXXZ	; initProfiler

; 403  : 	initEvent();

  000b6	e8 00 00 00 00	 call	 ?initEvent@@YAXXZ	; initEvent

; 404  : 	initeffect();

  000bb	e8 00 00 00 00	 call	 ?initeffect@@YAXXZ	; initeffect

; 405  : 	initfly();

  000c0	e8 00 00 00 00	 call	 ?initfly@@YAXXZ		; initfly

; 406  : 	initsnd();

  000c5	e8 00 00 00 00	 call	 ?initsnd@@YAXXZ		; initsnd

; 407  : 	initeventmgr();

  000ca	e8 00 00 00 00	 call	 ?initeventmgr@@YAXXZ	; initeventmgr

; 408  : 	initshop();

  000cf	e8 00 00 00 00	 call	 ?initshop@@YAXXZ	; initshop

; 409  : 	initskill();

  000d4	e8 00 00 00 00	 call	 ?initskill@@YAXXZ	; initskill

; 410  : 	initquest();

  000d9	e8 00 00 00 00	 call	 ?initquest@@YAXXZ	; initquest

; 411  : 	initBackground();

  000de	e8 00 00 00 00	 call	 ?initBackground@@YAXXZ	; initBackground

; 412  : 	initMessenger();

  000e3	e8 00 00 00 00	 call	 ?initMessenger@@YAXXZ	; initMessenger

; 413  : 	initsafebox();

  000e8	e8 00 00 00 00	 call	 ?initsafebox@@YAXXZ	; initsafebox

; 414  : 	initguild();

  000ed	e8 00 00 00 00	 call	 ?initguild@@YAXXZ	; initguild

; 415  : 	initServerStateChecker();

  000f2	e8 00 00 00 00	 call	 ?initServerStateChecker@@YAXXZ ; initServerStateChecker

; 416  : #ifdef ENABLE_GUILD_RANK_SYSTEM
; 417  : 	initguildranking();

  000f7	e8 00 00 00 00	 call	 ?initguildranking@@YAXXZ ; initguildranking

; 418  : #endif
; 419  : #ifdef ENABLE_CONFIG_MODULE
; 420  : 	initcfg();

  000fc	e8 00 00 00 00	 call	 ?initcfg@@YAXXZ		; initcfg

; 421  : #endif
; 422  : #ifdef ENABLE_RENEWAL_SWITCHBOT
; 423  : 	initSwitchbot();

  00101	e8 00 00 00 00	 call	 ?initSwitchbot@@YAXXZ	; initSwitchbot

; 424  : #endif
; 425  : #ifdef ENABLE_RENEWAL_CUBE
; 426  : 	intcuberenewal();

  00106	e8 00 00 00 00	 call	 ?intcuberenewal@@YAXXZ	; intcuberenewal

; 427  : #endif
; 428  : #ifdef ENABLE_ACCE_COSTUME_SYSTEM
; 429  : 	initAcce();

  0010b	e8 00 00 00 00	 call	 ?initAcce@@YAXXZ	; initAcce

; 430  : #endif
; 431  : #ifdef ENABLE_BIOLOG_SYSTEM
; 432  : 	initBiologManager();

  00110	e8 00 00 00 00	 call	 ?initBiologManager@@YAXXZ ; initBiologManager

; 433  : #endif
; 434  : #ifdef ENABLE_RENDER_TARGET
; 435  : 	initRenderTarget();

  00115	e8 00 00 00 00	 call	 ?initRenderTarget@@YAXXZ ; initRenderTarget

; 436  : #endif
; 437  : #ifdef ENABLE_INGAME_WIKI_SYSTEM
; 438  : 	initWiki();

  0011a	e8 00 00 00 00	 call	 ?initWiki@@YAXXZ	; initWiki

; 439  : #endif
; 440  : #ifdef ENABLE_OFFLINESHOP_SEARCH_SYSTEM
; 441  : 	initprivateShopSearch();

  0011f	e8 00 00 00 00	 call	 ?initprivateShopSearch@@YAXXZ ; initprivateShopSearch

; 442  : #endif
; 443  : #ifdef ENABLE_RIDING_EXTENDED
; 444  : 	initmountupgrade();

  00124	e8 00 00 00 00	 call	 ?initmountupgrade@@YAXXZ ; initmountupgrade

; 445  : #endif
; 446  : 
; 447  : 	NANOBEGIN

  00129	eb		 DB	 -21			; ffffffebH
  0012a	03		 DB	 3
  0012b	d6		 DB	 -42			; ffffffd6H
  0012c	d7		 DB	 -41			; ffffffd7H
  0012d	01		 DB	 1
  0012e	68 00 00 00 00	 push	 OFFSET ??_C@_0M@EILMOIBE@__builtin__@
  00133	ff 15 00 00 00
	00		 call	 DWORD PTR __imp__PyImport_ImportModule

; 448  : 
; 449  : 	PyObject *builtins = PyImport_ImportModule("__builtin__");
; 450  : #ifdef _DEBUG
; 451  : 	PyModule_AddIntConstant(builtins, "__DEBUG__", 1);
; 452  : #else
; 453  : 	PyModule_AddIntConstant(builtins, "__DEBUG__", 0);

  00139	8b 35 00 00 00
	00		 mov	 esi, DWORD PTR __imp__PyModule_AddIntConstant
  0013f	83 c4 04	 add	 esp, 4
  00142	8b f8		 mov	 edi, eax
  00144	6a 00		 push	 0
  00146	68 00 00 00 00	 push	 OFFSET ??_C@_09KMAGPBGM@__DEBUG__@
  0014b	57		 push	 edi
  0014c	ff d6		 call	 esi
  0014e	83 c4 0c	 add	 esp, 12			; 0000000cH

; 456  : 	PyModule_AddIntConstant(builtins, "__USE_DYNAMIC_MODULE__", 1);

  00151	6a 01		 push	 1
  00153	68 00 00 00 00	 push	 OFFSET ??_C@_0BH@NBEHHPDF@__USE_DYNAMIC_MODULE__@
  00158	57		 push	 edi
  00159	ff d6		 call	 esi
  0015b	0f 57 c0	 xorps	 xmm0, xmm0
; File C:\Program Files\Microsoft Visual Studio\2022\Community\VC\Tools\MSVC\14.44.35207\include\xstring

; 860  :         _My_data._Mysize = 0;

  0015e	c7 85 d8 fe ff
	ff 00 00 00 00	 mov	 DWORD PTR _stRegisterCmdLine$141[ebp+16], 0

; 493  :         _CONSTEXPR20 _Bxty() noexcept : _Buf() {} // user-provided, for fancy pointers

  00168	0f 11 85 c8 fe
	ff ff		 movups	 XMMWORD PTR _stRegisterCmdLine$141[ebp], xmm0
; File C:\Anka2Project\Anka2Project\Source\Binary\source\UserInterface\UserInterface.cpp

; 456  : 	PyModule_AddIntConstant(builtins, "__USE_DYNAMIC_MODULE__", 1);

  0016f	83 c4 0c	 add	 esp, 12			; 0000000cH
; File C:\Program Files\Microsoft Visual Studio\2022\Community\VC\Tools\MSVC\14.44.35207\include\xstring

; 861  :         _My_data._Myres  = _Small_string_capacity;

  00172	c7 85 dc fe ff
	ff 0f 00 00 00	 mov	 DWORD PTR _stRegisterCmdLine$141[ebp+20], 15 ; 0000000fH

; 862  :         _My_data._Activate_SSO_buffer();
; 863  : 
; 864  :         // the _Traits::assign is last so the codegen doesn't think the char write can alias this
; 865  :         _Traits::assign(_My_data._Bx._Buf[0], _Elem());

  0017c	c6 85 c8 fe ff
	ff 00		 mov	 BYTE PTR _stRegisterCmdLine$141[ebp], 0
; File C:\Anka2Project\Anka2Project\Source\Binary\source\UserInterface\UserInterface.cpp

; 462  : 		std::string stRegisterCmdLine;

  00183	c7 45 fc 00 00
	00 00		 mov	 DWORD PTR __$EHRec$[ebp+8], 0
; File C:\Program Files\Microsoft Visual Studio\2022\Community\VC\Tools\MSVC\14.44.35207\include\xstring

; 493  :         _CONSTEXPR20 _Bxty() noexcept : _Buf() {} // user-provided, for fancy pointers

  0018a	0f 11 85 b0 fe
	ff ff		 movups	 XMMWORD PTR _stCmdLine$140[ebp], xmm0

; 860  :         _My_data._Mysize = 0;

  00191	c7 85 c0 fe ff
	ff 00 00 00 00	 mov	 DWORD PTR _stCmdLine$140[ebp+16], 0

; 861  :         _My_data._Myres  = _Small_string_capacity;

  0019b	c7 85 c4 fe ff
	ff 0f 00 00 00	 mov	 DWORD PTR _stCmdLine$140[ebp+20], 15 ; 0000000fH

; 862  :         _My_data._Activate_SSO_buffer();
; 863  : 
; 864  :         // the _Traits::assign is last so the codegen doesn't think the char write can alias this
; 865  :         _Traits::assign(_My_data._Bx._Buf[0], _Elem());

  001a5	c6 85 b0 fe ff
	ff 00		 mov	 BYTE PTR _stCmdLine$140[ebp], 0
; File C:\Program Files\Microsoft Visual Studio\2022\Community\VC\Tools\MSVC\14.44.35207\include\vector

; 400  :     _CONSTEXPR20 _Vector_val() noexcept : _Myfirst(), _Mylast(), _Myend() {}

  001ac	c7 85 8c fe ff
	ff 00 00 00 00	 mov	 DWORD PTR _stVec$138[ebp], 0
  001b6	c7 85 90 fe ff
	ff 00 00 00 00	 mov	 DWORD PTR _stVec$138[ebp+4], 0
  001c0	c7 85 94 fe ff
	ff 00 00 00 00	 mov	 DWORD PTR _stVec$138[ebp+8], 0
; File C:\Anka2Project\Anka2Project\Source\Binary\source\UserInterface\UserInterface.cpp

; 471  : 		SplitLine(lpCmdLine,seperator,&stVec);

  001ca	8b bd 7c fe ff
	ff		 mov	 edi, DWORD PTR _lpCmdLine$GSCopy$1$[ebp]
  001d0	8d 85 8c fe ff
	ff		 lea	 eax, DWORD PTR _stVec$138[ebp]
  001d6	50		 push	 eax
  001d7	c6 45 fc 02	 mov	 BYTE PTR __$EHRec$[ebp+8], 2
  001db	68 00 00 00 00	 push	 OFFSET ??_C@_01CLKCMJKC@?5@
  001e0	57		 push	 edi
  001e1	e8 00 00 00 00	 call	 ?SplitLine@@YA_NPBD0PAV?$vector@V?$basic_string@DU?$char_traits@D@std@@V?$allocator@D@2@@std@@V?$allocator@V?$basic_string@DU?$char_traits@D@std@@V?$allocator@D@2@@std@@@2@@std@@@Z ; SplitLine
; File C:\Program Files\Microsoft Visual Studio\2022\Community\VC\Tools\MSVC\14.44.35207\include\vector

; 1915 :         return static_cast<size_type>(_My_data._Mylast - _My_data._Myfirst);

  001e6	8b 8d 90 fe ff
	ff		 mov	 ecx, DWORD PTR _stVec$138[ebp+4]
  001ec	b8 ab aa aa 2a	 mov	 eax, 715827883		; 2aaaaaabH
  001f1	8b b5 8c fe ff
	ff		 mov	 esi, DWORD PTR _stVec$138[ebp]
; File C:\Anka2Project\Anka2Project\Source\Binary\source\UserInterface\UserInterface.cpp

; 471  : 		SplitLine(lpCmdLine,seperator,&stVec);

  001f7	83 c4 0c	 add	 esp, 12			; 0000000cH
; File C:\Program Files\Microsoft Visual Studio\2022\Community\VC\Tools\MSVC\14.44.35207\include\vector

; 1915 :         return static_cast<size_type>(_My_data._Mylast - _My_data._Myfirst);

  001fa	2b ce		 sub	 ecx, esi
  001fc	f7 e9		 imul	 ecx
  001fe	c1 fa 02	 sar	 edx, 2
  00201	8b c2		 mov	 eax, edx
  00203	c1 e8 1f	 shr	 eax, 31			; 0000001fH
  00206	03 c2		 add	 eax, edx
  00208	89 85 88 fe ff
	ff		 mov	 DWORD PTR tv3168[ebp], eax
; File C:\Anka2Project\Anka2Project\Source\Binary\source\UserInterface\UserInterface.cpp

; 473  : 		if (CmdSize == stVec.size() && stVec[0]==loginMark)

  0020e	83 f8 03	 cmp	 eax, 3
  00211	0f 85 ad 00 00
	00		 jne	 $LN908@RunMainScr
; File C:\Program Files\Microsoft Visual Studio\2022\Community\VC\Tools\MSVC\14.44.35207\include\xstring

; 444  :         const value_type* _Result = _Bx._Buf;

  00217	8b c6		 mov	 eax, esi
  00219	8b f8		 mov	 edi, eax

; 453  :         return _Myres > _Small_string_capacity;

  0021b	83 7f 14 0f	 cmp	 DWORD PTR [edi+20], 15	; 0000000fH

; 445  :         if (_Large_mode_engaged()) {

  0021f	76 02		 jbe	 SHORT $LN900@RunMainScr

; 446  :             _Result = _Unfancy(_Bx._Ptr);

  00221	8b 06		 mov	 eax, DWORD PTR [esi]
$LN900@RunMainScr:

; 2854 :         return _Traits_equal<_Traits>(_Mypair._Myval2._Myptr(), _Mypair._Myval2._Mysize, _Ptr, _Traits::length(_Ptr));

  00223	6a 03		 push	 3
  00225	68 00 00 00 00	 push	 OFFSET ??_C@_03MCGAAIEM@?9cs@
  0022a	ff 76 10	 push	 DWORD PTR [esi+16]
  0022d	50		 push	 eax
  0022e	e8 00 00 00 00	 call	 ??$_Traits_equal@U?$char_traits@D@std@@@std@@YA_NQBDI0I@Z ; std::_Traits_equal<std::char_traits<char> >
  00233	83 c4 10	 add	 esp, 16			; 00000010H
; File C:\Anka2Project\Anka2Project\Source\Binary\source\UserInterface\UserInterface.cpp

; 473  : 		if (CmdSize == stVec.size() && stVec[0]==loginMark)

  00236	84 c0		 test	 al, al
  00238	74 7b		 je	 SHORT $LN905@RunMainScr
; File C:\Program Files\Microsoft Visual Studio\2022\Community\VC\Tools\MSVC\14.44.35207\include\xstring

; 453  :         return _Myres > _Small_string_capacity;

  0023a	83 7f 44 0f	 cmp	 DWORD PTR [edi+68], 15	; 0000000fH
; File C:\Program Files\Microsoft Visual Studio\2022\Community\VC\Tools\MSVC\14.44.35207\include\vector

; 1934 :         return _My_data._Myfirst[_Pos];

  0023e	8d 47 30	 lea	 eax, DWORD PTR [edi+48]
; File C:\Program Files\Microsoft Visual Studio\2022\Community\VC\Tools\MSVC\14.44.35207\include\xstring

; 445  :         if (_Large_mode_engaged()) {

  00241	76 02		 jbe	 SHORT $LN630@RunMainScr

; 446  :             _Result = _Unfancy(_Bx._Ptr);

  00243	8b 00		 mov	 eax, DWORD PTR [eax]
$LN630@RunMainScr:
; File C:\Anka2Project\Anka2Project\Source\Binary\source\UserInterface\UserInterface.cpp

; 476  : 			base64_decode(stVec[2].c_str(),buf);

  00245	8d 8d e0 fe ff
	ff		 lea	 ecx, DWORD PTR _buf$142[ebp]
  0024b	51		 push	 ecx
  0024c	50		 push	 eax
  0024d	e8 00 00 00 00	 call	 ?base64_decode@@YAXPBDPAD@Z ; base64_decode
; File C:\Program Files\Microsoft Visual Studio\2022\Community\VC\Tools\MSVC\14.44.35207\include\__msvc_string_view.hpp

; 456  :             return __builtin_strlen(_First);

  00252	8d 8d e0 fe ff
	ff		 lea	 ecx, DWORD PTR _buf$142[ebp]
; File C:\Anka2Project\Anka2Project\Source\Binary\source\UserInterface\UserInterface.cpp

; 476  : 			base64_decode(stVec[2].c_str(),buf);

  00258	83 c4 08	 add	 esp, 8
; File C:\Program Files\Microsoft Visual Studio\2022\Community\VC\Tools\MSVC\14.44.35207\include\__msvc_string_view.hpp

; 456  :             return __builtin_strlen(_First);

  0025b	8d 51 01	 lea	 edx, DWORD PTR [ecx+1]
  0025e	66 90		 npad	 2
$LL903@RunMainScr:
  00260	8a 01		 mov	 al, BYTE PTR [ecx]
  00262	41		 inc	 ecx
  00263	84 c0		 test	 al, al
  00265	75 f9		 jne	 SHORT $LL903@RunMainScr
  00267	2b ca		 sub	 ecx, edx
; File C:\Program Files\Microsoft Visual Studio\2022\Community\VC\Tools\MSVC\14.44.35207\include\xstring

; 1638 :         return assign(_Ptr, _Convert_size<size_type>(_Traits::length(_Ptr)));

  00269	8d 85 e0 fe ff
	ff		 lea	 eax, DWORD PTR _buf$142[ebp]
  0026f	51		 push	 ecx
; File C:\Program Files\Microsoft Visual Studio\2022\Community\VC\Tools\MSVC\14.44.35207\include\vector

; 1934 :         return _My_data._Myfirst[_Pos];

  00270	8b 8d 8c fe ff
	ff		 mov	 ecx, DWORD PTR _stVec$138[ebp]
; File C:\Program Files\Microsoft Visual Studio\2022\Community\VC\Tools\MSVC\14.44.35207\include\xstring

; 1638 :         return assign(_Ptr, _Convert_size<size_type>(_Traits::length(_Ptr)));

  00276	50		 push	 eax
; File C:\Program Files\Microsoft Visual Studio\2022\Community\VC\Tools\MSVC\14.44.35207\include\vector

; 1934 :         return _My_data._Myfirst[_Pos];

  00277	8d 49 30	 lea	 ecx, DWORD PTR [ecx+48]
; File C:\Program Files\Microsoft Visual Studio\2022\Community\VC\Tools\MSVC\14.44.35207\include\xstring

; 1638 :         return assign(_Ptr, _Convert_size<size_type>(_Traits::length(_Ptr)));

  0027a	e8 00 00 00 00	 call	 ?assign@?$basic_string@DU?$char_traits@D@std@@V?$allocator@D@2@@std@@QAEAAV12@QBDI@Z ; std::basic_string<char,std::char_traits<char>,std::allocator<char> >::assign

; 769  :         _Construct<_Construct_strategy::_From_ptr>(_Ptr, _Convert_size<size_type>(_Traits::length(_Ptr)));

  0027f	6a 01		 push	 1
  00281	0f 57 c0	 xorps	 xmm0, xmm0

; 517  :     size_type _Mysize = 0; // current length of string (size)

  00284	c7 85 a8 fe ff
	ff 00 00 00 00	 mov	 DWORD PTR $T26[ebp+16], 0

; 769  :         _Construct<_Construct_strategy::_From_ptr>(_Ptr, _Convert_size<size_type>(_Traits::length(_Ptr)));

  0028e	68 00 00 00 00	 push	 OFFSET ??_C@_01CLKCMJKC@?5@
  00293	8d 8d 98 fe ff
	ff		 lea	 ecx, DWORD PTR $T26[ebp]

; 518  :     size_type _Myres  = 0; // current storage reserved for string (capacity)

  00299	c7 85 ac fe ff
	ff 00 00 00 00	 mov	 DWORD PTR $T26[ebp+20], 0

; 493  :         _CONSTEXPR20 _Bxty() noexcept : _Buf() {} // user-provided, for fancy pointers

  002a3	0f 11 85 98 fe
	ff ff		 movups	 XMMWORD PTR $T26[ebp], xmm0

; 769  :         _Construct<_Construct_strategy::_From_ptr>(_Ptr, _Convert_size<size_type>(_Traits::length(_Ptr)));

  002aa	e8 00 00 00 00	 call	 ??$_Construct@$00PBD@?$basic_string@DU?$char_traits@D@std@@V?$allocator@D@2@@std@@AAEXQBDI@Z ; std::basic_string<char,std::char_traits<char>,std::allocator<char> >::_Construct<1,char const *>
; File C:\Anka2Project\Anka2Project\Source\Binary\source\UserInterface\UserInterface.cpp

; 478  : 			string_join(seperator,stVec,&stCmdLine);

  002af	c6 45 fc 03	 mov	 BYTE PTR __$EHRec$[ebp+8], 3

; 479  : 		}

  002b3	eb 6f		 jmp	 SHORT $LN909@RunMainScr
$LN905@RunMainScr:

; 473  : 		if (CmdSize == stVec.size() && stVec[0]==loginMark)

  002b5	8b 85 88 fe ff
	ff		 mov	 eax, DWORD PTR tv3168[ebp]

; 480  : 		else if (CmdSize <= stVec.size() && stVec[0]==loginMark_NonEncode)

  002bb	83 f8 03	 cmp	 eax, 3
  002be	8b bd 7c fe ff
	ff		 mov	 edi, DWORD PTR _lpCmdLine$GSCopy$1$[ebp]
$LN908@RunMainScr:
  002c4	0f 82 86 00 00
	00		 jb	 $LN4@RunMainScr
; File C:\Program Files\Microsoft Visual Studio\2022\Community\VC\Tools\MSVC\14.44.35207\include\xstring

; 444  :         const value_type* _Result = _Bx._Buf;

  002ca	8b c6		 mov	 eax, esi

; 453  :         return _Myres > _Small_string_capacity;

  002cc	83 78 14 0f	 cmp	 DWORD PTR [eax+20], 15	; 0000000fH

; 445  :         if (_Large_mode_engaged()) {

  002d0	76 02		 jbe	 SHORT $LN569@RunMainScr

; 446  :             _Result = _Unfancy(_Bx._Ptr);

  002d2	8b 06		 mov	 eax, DWORD PTR [esi]
$LN569@RunMainScr:

; 2854 :         return _Traits_equal<_Traits>(_Mypair._Myval2._Myptr(), _Mypair._Myval2._Mysize, _Ptr, _Traits::length(_Ptr));

  002d4	6a 04		 push	 4
  002d6	68 00 00 00 00	 push	 OFFSET ??_C@_04JFPGDMCL@?9ncs@
  002db	ff 76 10	 push	 DWORD PTR [esi+16]
  002de	50		 push	 eax
  002df	e8 00 00 00 00	 call	 ??$_Traits_equal@U?$char_traits@D@std@@@std@@YA_NQBDI0I@Z ; std::_Traits_equal<std::char_traits<char> >
  002e4	83 c4 10	 add	 esp, 16			; 00000010H
; File C:\Anka2Project\Anka2Project\Source\Binary\source\UserInterface\UserInterface.cpp

; 480  : 		else if (CmdSize <= stVec.size() && stVec[0]==loginMark_NonEncode)

  002e7	84 c0		 test	 al, al
  002e9	74 65		 je	 SHORT $LN4@RunMainScr
; File C:\Program Files\Microsoft Visual Studio\2022\Community\VC\Tools\MSVC\14.44.35207\include\xstring

; 1638 :         return assign(_Ptr, _Convert_size<size_type>(_Traits::length(_Ptr)));

  002eb	6a 03		 push	 3
  002ed	68 00 00 00 00	 push	 OFFSET ??_C@_03MCGAAIEM@?9cs@
  002f2	8b ce		 mov	 ecx, esi
  002f4	e8 00 00 00 00	 call	 ?assign@?$basic_string@DU?$char_traits@D@std@@V?$allocator@D@2@@std@@QAEAAV12@QBDI@Z ; std::basic_string<char,std::char_traits<char>,std::allocator<char> >::assign
  002f9	0f 57 c0	 xorps	 xmm0, xmm0

; 890  :             _My_data._Mysize = _Count;

  002fc	c7 85 a8 fe ff
	ff 01 00 00 00	 mov	 DWORD PTR $T40[ebp+16], 1

; 493  :         _CONSTEXPR20 _Bxty() noexcept : _Buf() {} // user-provided, for fancy pointers

  00306	0f 11 85 98 fe
	ff ff		 movups	 XMMWORD PTR $T40[ebp], xmm0

; 891  :             _My_data._Myres  = _Small_string_capacity;

  0030d	c7 85 ac fe ff
	ff 0f 00 00 00	 mov	 DWORD PTR $T40[ebp+20], 15 ; 0000000fH
; File C:\Program Files\Microsoft Visual Studio\2022\Community\VC\Tools\MSVC\14.44.35207\include\__msvc_string_view.hpp

; 121  :         _CSTD memcpy(_First1, _First2, _Count * sizeof(_Elem));

  00317	66 c7 85 98 fe
	ff ff 20 00	 mov	 WORD PTR $T40[ebp], 32	; 00000020H
; File C:\Anka2Project\Anka2Project\Source\Binary\source\UserInterface\UserInterface.cpp

; 483  : 			string_join(" ",stVec,&stCmdLine);

  00320	c6 45 fc 04	 mov	 BYTE PTR __$EHRec$[ebp+8], 4
$LN909@RunMainScr:
; File C:\Program Files\Microsoft Visual Studio\2022\Community\VC\Tools\MSVC\14.44.35207\include\xstring

; 1638 :         return assign(_Ptr, _Convert_size<size_type>(_Traits::length(_Ptr)));

  00324	8d 85 b0 fe ff
	ff		 lea	 eax, DWORD PTR _stCmdLine$140[ebp]
  0032a	50		 push	 eax
  0032b	8d 95 8c fe ff
	ff		 lea	 edx, DWORD PTR _stVec$138[ebp]
  00331	8d 8d 98 fe ff
	ff		 lea	 ecx, DWORD PTR $T40[ebp]
  00337	e8 00 00 00 00	 call	 ??$string_join@V?$vector@V?$basic_string@DU?$char_traits@D@std@@V?$allocator@D@2@@std@@V?$allocator@V?$basic_string@DU?$char_traits@D@std@@V?$allocator@D@2@@std@@@2@@std@@@@YAXABV?$basic_string@DU?$char_traits@D@std@@V?$allocator@D@2@@std@@ABV?$vector@V?$basic_string@DU?$char_traits@D@std@@V?$allocator@D@2@@std@@V?$allocator@V?$basic_string@DU?$char_traits@D@std@@V?$allocator@D@2@@std@@@2@@1@PAV01@@Z ; string_join<std::vector<std::basic_string<char,std::char_traits<char>,std::allocator<char> >,std::allocator<std::basic_string<char,std::char_traits<char>,std::allocator<char> > > > >
  0033c	83 c4 04	 add	 esp, 4
  0033f	c6 45 fc 02	 mov	 BYTE PTR __$EHRec$[ebp+8], 2
  00343	8d 8d 98 fe ff
	ff		 lea	 ecx, DWORD PTR $T40[ebp]
  00349	e8 00 00 00 00	 call	 ?_Tidy_deallocate@?$basic_string@DU?$char_traits@D@std@@V?$allocator@D@2@@std@@AAEXXZ ; std::basic_string<char,std::char_traits<char>,std::allocator<char> >::_Tidy_deallocate
  0034e	eb 1b		 jmp	 SHORT $LN5@RunMainScr
$LN4@RunMainScr:
; File C:\Program Files\Microsoft Visual Studio\2022\Community\VC\Tools\MSVC\14.44.35207\include\__msvc_string_view.hpp

; 456  :             return __builtin_strlen(_First);

  00350	8b cf		 mov	 ecx, edi
  00352	8d 51 01	 lea	 edx, DWORD PTR [ecx+1]
$LL904@RunMainScr:
  00355	8a 01		 mov	 al, BYTE PTR [ecx]
  00357	41		 inc	 ecx
  00358	84 c0		 test	 al, al
  0035a	75 f9		 jne	 SHORT $LL904@RunMainScr
  0035c	2b ca		 sub	 ecx, edx
; File C:\Program Files\Microsoft Visual Studio\2022\Community\VC\Tools\MSVC\14.44.35207\include\xstring

; 1638 :         return assign(_Ptr, _Convert_size<size_type>(_Traits::length(_Ptr)));

  0035e	51		 push	 ecx
  0035f	57		 push	 edi
  00360	8d 8d b0 fe ff
	ff		 lea	 ecx, DWORD PTR _stCmdLine$140[ebp]
  00366	e8 00 00 00 00	 call	 ?assign@?$basic_string@DU?$char_traits@D@std@@V?$allocator@D@2@@std@@QAEAAV12@QBDI@Z ; std::basic_string<char,std::char_traits<char>,std::allocator<char> >::assign
$LN5@RunMainScr:
  0036b	6a 13		 push	 19			; 00000013H
  0036d	68 00 00 00 00	 push	 OFFSET ??_C@_0BE@FPKDPBJI@__COMMAND_LINE__?5?$DN?5@
  00372	8d 8d c8 fe ff
	ff		 lea	 ecx, DWORD PTR _stRegisterCmdLine$141[ebp]
  00378	e8 00 00 00 00	 call	 ?assign@?$basic_string@DU?$char_traits@D@std@@V?$allocator@D@2@@std@@QAEAAV12@QBDI@Z ; std::basic_string<char,std::char_traits<char>,std::allocator<char> >::assign

; 2292 :         const size_type _Old_size = _Mypair._Myval2._Mysize;

  0037d	8b 8d d8 fe ff
	ff		 mov	 ecx, DWORD PTR _stRegisterCmdLine$141[ebp+16]
  00383	ba ff ff ff 7f	 mov	 edx, 2147483647		; 7fffffffH
  00388	8b b5 dc fe ff
	ff		 mov	 esi, DWORD PTR _stRegisterCmdLine$141[ebp+20]
  0038e	89 8d 80 fe ff
	ff		 mov	 DWORD PTR __Old_size$1$[ebp], ecx
  00394	89 b5 88 fe ff
	ff		 mov	 DWORD PTR __Old_capacity$1$[ebp], esi
  0039a	3b ce		 cmp	 ecx, esi

; 2293 :         if (_Old_size < _Mypair._Myval2._Myres) {

  0039c	73 2a		 jae	 SHORT $LN78@RunMainScr

; 2294 :             _ASAN_STRING_MODIFY(*this, _Old_size, _Old_size + 1);
; 2295 :             _Mypair._Myval2._Mysize = _Old_size + 1;

  0039e	8d 41 01	 lea	 eax, DWORD PTR [ecx+1]

; 453  :         return _Myres > _Small_string_capacity;

  003a1	83 fe 0f	 cmp	 esi, 15			; 0000000fH

; 2295 :             _Mypair._Myval2._Mysize = _Old_size + 1;

  003a4	89 85 d8 fe ff
	ff		 mov	 DWORD PTR _stRegisterCmdLine$141[ebp+16], eax

; 435  :         value_type* _Result = _Bx._Buf;

  003aa	8d 85 c8 fe ff
	ff		 lea	 eax, DWORD PTR _stRegisterCmdLine$141[ebp]

; 436  :         if (_Large_mode_engaged()) {

  003b0	0f 47 85 c8 fe
	ff ff		 cmova	 eax, DWORD PTR _stRegisterCmdLine$141[ebp]

; 2297 :             _Traits::assign(_Ptr[_Old_size], _Ch);

  003b7	66 c7 04 08 22
	00		 mov	 WORD PTR [eax+ecx], 34	; 00000022H

; 2298 :             _Traits::assign(_Ptr[_Old_size + 1], _Elem());
; 2299 :             return;

  003bd	8b b5 c8 fe ff
	ff		 mov	 esi, DWORD PTR _stRegisterCmdLine$141[ebp]
  003c3	e9 f5 00 00 00	 jmp	 $LN90@RunMainScr
$LN78@RunMainScr:

; 3028 :         const size_type _Old_size = _My_data._Mysize;

  003c8	8b c2		 mov	 eax, edx
  003ca	2b c1		 sub	 eax, ecx

; 3029 :         if (max_size() - _Old_size < _Size_increase) {

  003cc	83 f8 01	 cmp	 eax, 1
  003cf	0f 82 ce 06 00
	00		 jb	 $LN901@RunMainScr

; 3031 :         }
; 3032 : 
; 3033 :         const size_type _New_size     = _Old_size + _Size_increase;

  003d5	8d 79 01	 lea	 edi, DWORD PTR [ecx+1]

; 2978 :         const size_type _Masked = _Requested | _Alloc_mask;

  003d8	83 cf 0f	 or	 edi, 15			; 0000000fH
  003db	3b fa		 cmp	 edi, edx

; 2979 :         if (_Masked > _Max) { // the mask overflows, settle for max_size()

  003dd	76 04		 jbe	 SHORT $LN96@RunMainScr

; 2980 :             return _Max;

  003df	8b fa		 mov	 edi, edx
  003e1	eb 27		 jmp	 SHORT $LN95@RunMainScr
$LN96@RunMainScr:

; 2981 :         }
; 2982 : 
; 2983 :         if (_Old > _Max - _Old / 2) { // similarly, geometric overflows

  003e3	8b c6		 mov	 eax, esi
  003e5	d1 e8		 shr	 eax, 1
  003e7	89 85 84 fe ff
	ff		 mov	 DWORD PTR tv3204[ebp], eax
  003ed	8b c2		 mov	 eax, edx
  003ef	8b 95 84 fe ff
	ff		 mov	 edx, DWORD PTR tv3204[ebp]
  003f5	2b c2		 sub	 eax, edx
  003f7	3b f0		 cmp	 esi, eax
  003f9	76 07		 jbe	 SHORT $LN97@RunMainScr

; 2984 :             return _Max;

  003fb	bf ff ff ff 7f	 mov	 edi, 2147483647		; 7fffffffH
  00400	eb 08		 jmp	 SHORT $LN95@RunMainScr
$LN97@RunMainScr:

; 2985 :         }
; 2986 : 
; 2987 :         return (_STD max)(_Masked, _Old + _Old / 2);

  00402	8d 04 16	 lea	 eax, DWORD PTR [esi+edx]
  00405	3b f8		 cmp	 edi, eax
  00407	0f 42 f8	 cmovb	 edi, eax
$LN95@RunMainScr:

; 825  :         ++_Capacity; // Take null terminator into consideration

  0040a	8d 47 01	 lea	 eax, DWORD PTR [edi+1]
; File C:\Program Files\Microsoft Visual Studio\2022\Community\VC\Tools\MSVC\14.44.35207\include\xmemory

; 227  :     if (_Bytes == 0) {

  0040d	85 c0		 test	 eax, eax
  0040f	75 04		 jne	 SHORT $LN114@RunMainScr

; 228  :         return nullptr;

  00411	33 f6		 xor	 esi, esi
  00413	eb 1f		 jmp	 SHORT $LN113@RunMainScr
$LN114@RunMainScr:

; 229  :     }
; 230  : 
; 231  : #if _HAS_CXX20 // TRANSITION, GH-1532
; 232  :     if (_STD is_constant_evaluated()) {
; 233  :         return _Traits::_Allocate(_Bytes);
; 234  :     }
; 235  : #endif // _HAS_CXX20
; 236  : 
; 237  : #ifdef __cpp_aligned_new
; 238  :     if constexpr (_Align > __STDCPP_DEFAULT_NEW_ALIGNMENT__) {
; 239  :         size_t _Passed_align = _Align;
; 240  : #if defined(_M_IX86) || defined(_M_X64)
; 241  :         if (_Bytes >= _Big_allocation_threshold) {
; 242  :             // boost the alignment of big allocations to help autovectorization
; 243  :             _Passed_align = (_STD max)(_Align, _Big_allocation_alignment);
; 244  :         }
; 245  : #endif // defined(_M_IX86) || defined(_M_X64)
; 246  :         return _Traits::_Allocate_aligned(_Bytes, _Passed_align);
; 247  :     } else
; 248  : #endif // defined(__cpp_aligned_new)
; 249  :     {
; 250  : #if defined(_M_IX86) || defined(_M_X64)
; 251  :         if (_Bytes >= _Big_allocation_threshold) {

  00415	50		 push	 eax
  00416	3d 00 10 00 00	 cmp	 eax, 4096		; 00001000H
  0041b	72 07		 jb	 SHORT $LN116@RunMainScr

; 252  :             // boost the alignment of big allocations to help autovectorization
; 253  :             return _Allocate_manually_vector_aligned<_Traits>(_Bytes);

  0041d	e8 00 00 00 00	 call	 ??$_Allocate_manually_vector_aligned@U_Default_allocate_traits@std@@@std@@YAPAXI@Z ; std::_Allocate_manually_vector_aligned<std::_Default_allocate_traits>
  00422	eb 05		 jmp	 SHORT $LN910@RunMainScr
$LN116@RunMainScr:

; 136  :         return ::operator new(_Bytes);

  00424	e8 00 00 00 00	 call	 ??2@YAPAXI@Z		; operator new
$LN910@RunMainScr:
; File C:\Program Files\Microsoft Visual Studio\2022\Community\VC\Tools\MSVC\14.44.35207\include\xstring

; 3041 :         _My_data._Mysize      = _New_size;

  00429	8b 8d 80 fe ff
	ff		 mov	 ecx, DWORD PTR __Old_size$1$[ebp]
  0042f	8b f0		 mov	 esi, eax
  00431	83 c4 04	 add	 esp, 4
$LN113@RunMainScr:

; 3042 :         _My_data._Myres       = _New_capacity;
; 3043 :         _Elem* const _Raw_new = _Unfancy(_New_ptr);
; 3044 :         if (_Old_capacity > _Small_string_capacity) {

  00434	83 bd 88 fe ff
	ff 0f		 cmp	 DWORD PTR __Old_capacity$1$[ebp], 15 ; 0000000fH
  0043b	8d 41 01	 lea	 eax, DWORD PTR [ecx+1]
  0043e	89 bd dc fe ff
	ff		 mov	 DWORD PTR _stRegisterCmdLine$141[ebp+20], edi
  00444	8d 3c 31	 lea	 edi, DWORD PTR [ecx+esi]
  00447	89 85 d8 fe ff
	ff		 mov	 DWORD PTR _stRegisterCmdLine$141[ebp+16], eax
  0044d	89 bd 84 fe ff
	ff		 mov	 DWORD PTR tv3174[ebp], edi
  00453	51		 push	 ecx
  00454	76 4c		 jbe	 SHORT $LN89@RunMainScr

; 3045 :             const pointer _Old_ptr = _My_data._Bx._Ptr;

  00456	8b bd c8 fe ff
	ff		 mov	 edi, DWORD PTR _stRegisterCmdLine$141[ebp]
; File C:\Program Files\Microsoft Visual Studio\2022\Community\VC\Tools\MSVC\14.44.35207\include\__msvc_string_view.hpp

; 121  :         _CSTD memcpy(_First1, _First2, _Count * sizeof(_Elem));

  0045c	57		 push	 edi
  0045d	56		 push	 esi
  0045e	e8 00 00 00 00	 call	 _memcpy
; File C:\Program Files\Microsoft Visual Studio\2022\Community\VC\Tools\MSVC\14.44.35207\include\xstring

; 2307 :                     _Traits::assign(_New_ptr[_Old_size], _Ch);

  00463	8b 85 84 fe ff
	ff		 mov	 eax, DWORD PTR tv3174[ebp]
; File C:\Program Files\Microsoft Visual Studio\2022\Community\VC\Tools\MSVC\14.44.35207\include\__msvc_string_view.hpp

; 121  :         _CSTD memcpy(_First1, _First2, _Count * sizeof(_Elem));

  00469	83 c4 0c	 add	 esp, 12			; 0000000cH
; File C:\Program Files\Microsoft Visual Studio\2022\Community\VC\Tools\MSVC\14.44.35207\include\xstring

; 852  :         _Al.deallocate(_Old_ptr, _Capacity + 1); // +1 for null terminator

  0046c	8b 8d 88 fe ff
	ff		 mov	 ecx, DWORD PTR __Old_capacity$1$[ebp]
  00472	41		 inc	 ecx

; 2307 :                     _Traits::assign(_New_ptr[_Old_size], _Ch);

  00473	66 c7 00 22 00	 mov	 WORD PTR [eax], 34	; 00000022H
; File C:\Program Files\Microsoft Visual Studio\2022\Community\VC\Tools\MSVC\14.44.35207\include\xmemory

; 284  :         if (_Bytes >= _Big_allocation_threshold) {

  00478	81 f9 00 10 00
	00		 cmp	 ecx, 4096		; 00001000H
  0047e	72 16		 jb	 SHORT $LN148@RunMainScr

; 205  :     const uintptr_t _Ptr_container   = _Ptr_user[-1];

  00480	8b 57 fc	 mov	 edx, DWORD PTR [edi-4]
  00483	83 c1 23	 add	 ecx, 35			; 00000023H

; 206  : 
; 207  :     // If the following asserts, it likely means that we are performing
; 208  :     // an aligned delete on memory coming from an unaligned allocation.
; 209  :     _STL_ASSERT(_Ptr_user[-2] == _Big_allocation_sentinel, "invalid argument");
; 210  : 
; 211  :     // Extra paranoia on aligned allocation/deallocation; ensure _Ptr_container is
; 212  :     // in range [_Min_back_shift, _Non_user_size]
; 213  : #ifdef _DEBUG
; 214  :     constexpr uintptr_t _Min_back_shift = 2 * sizeof(void*);
; 215  : #else // ^^^ defined(_DEBUG) / !defined(_DEBUG) vvv
; 216  :     constexpr uintptr_t _Min_back_shift = sizeof(void*);
; 217  : #endif // ^^^ !defined(_DEBUG) ^^^
; 218  :     const uintptr_t _Back_shift = reinterpret_cast<uintptr_t>(_Ptr) - _Ptr_container;

  00486	2b fa		 sub	 edi, edx

; 219  :     _STL_VERIFY(_Back_shift >= _Min_back_shift && _Back_shift <= _Non_user_size, "invalid argument");

  00488	8d 47 fc	 lea	 eax, DWORD PTR [edi-4]
  0048b	83 f8 1f	 cmp	 eax, 31			; 0000001fH
  0048e	0f 87 14 06 00
	00		 ja	 $LN537@RunMainScr

; 220  :     _Ptr = reinterpret_cast<void*>(_Ptr_container);

  00494	8b fa		 mov	 edi, edx
$LN148@RunMainScr:

; 289  :         ::operator delete(_Ptr, _Bytes);

  00496	51		 push	 ecx
  00497	57		 push	 edi
  00498	e8 00 00 00 00	 call	 ??3@YAXPAXI@Z		; operator delete
  0049d	83 c4 08	 add	 esp, 8
; File C:\Program Files\Microsoft Visual Studio\2022\Community\VC\Tools\MSVC\14.44.35207\include\xstring

; 3049 :         } else {

  004a0	eb 15		 jmp	 SHORT $LN911@RunMainScr
$LN89@RunMainScr:
; File C:\Program Files\Microsoft Visual Studio\2022\Community\VC\Tools\MSVC\14.44.35207\include\__msvc_string_view.hpp

; 121  :         _CSTD memcpy(_First1, _First2, _Count * sizeof(_Elem));

  004a2	8d 85 c8 fe ff
	ff		 lea	 eax, DWORD PTR _stRegisterCmdLine$141[ebp]
  004a8	50		 push	 eax
  004a9	56		 push	 esi
  004aa	e8 00 00 00 00	 call	 _memcpy
  004af	83 c4 0c	 add	 esp, 12			; 0000000cH
; File C:\Program Files\Microsoft Visual Studio\2022\Community\VC\Tools\MSVC\14.44.35207\include\xstring

; 2307 :                     _Traits::assign(_New_ptr[_Old_size], _Ch);

  004b2	66 c7 07 22 00	 mov	 WORD PTR [edi], 34	; 00000022H
$LN911@RunMainScr:

; 1483 :         return append(_Right._Mypair._Myval2._Myptr(), _Right._Mypair._Myval2._Mysize);

  004b7	89 b5 c8 fe ff
	ff		 mov	 DWORD PTR _stRegisterCmdLine$141[ebp], esi
$LN90@RunMainScr:

; 453  :         return _Myres > _Small_string_capacity;

  004bd	83 bd c4 fe ff
	ff 0f		 cmp	 DWORD PTR _stCmdLine$140[ebp+20], 15 ; 0000000fH

; 444  :         const value_type* _Result = _Bx._Buf;

  004c4	8d 8d b0 fe ff
	ff		 lea	 ecx, DWORD PTR _stCmdLine$140[ebp]

; 1512 :         const size_type _Old_size = _Mypair._Myval2._Mysize;

  004ca	8b 85 dc fe ff
	ff		 mov	 eax, DWORD PTR _stRegisterCmdLine$141[ebp+20]

; 445  :         if (_Large_mode_engaged()) {

  004d0	0f 47 8d b0 fe
	ff ff		 cmova	 ecx, DWORD PTR _stCmdLine$140[ebp]

; 1483 :         return append(_Right._Mypair._Myval2._Myptr(), _Right._Mypair._Myval2._Mysize);

  004d7	8b bd c0 fe ff
	ff		 mov	 edi, DWORD PTR _stCmdLine$140[ebp+16]

; 1512 :         const size_type _Old_size = _Mypair._Myval2._Mysize;

  004dd	8b 95 d8 fe ff
	ff		 mov	 edx, DWORD PTR _stRegisterCmdLine$141[ebp+16]
  004e3	2b c2		 sub	 eax, edx

; 1513 :         if (_Count <= _Mypair._Myval2._Myres - _Old_size) {

  004e5	57		 push	 edi
  004e6	51		 push	 ecx
  004e7	3b f8		 cmp	 edi, eax
  004e9	77 2b		 ja	 SHORT $LN177@RunMainScr

; 453  :         return _Myres > _Small_string_capacity;

  004eb	83 bd dc fe ff
	ff 0f		 cmp	 DWORD PTR _stRegisterCmdLine$141[ebp+20], 15 ; 0000000fH

; 1515 :             _Mypair._Myval2._Mysize = _Old_size + _Count;

  004f2	8d 04 3a	 lea	 eax, DWORD PTR [edx+edi]
  004f5	89 85 d8 fe ff
	ff		 mov	 DWORD PTR _stRegisterCmdLine$141[ebp+16], eax

; 435  :         value_type* _Result = _Bx._Buf;

  004fb	8d 85 c8 fe ff
	ff		 lea	 eax, DWORD PTR _stRegisterCmdLine$141[ebp]

; 436  :         if (_Large_mode_engaged()) {

  00501	0f 47 c6	 cmova	 eax, esi

; 1517 :             _Traits::move(_Old_ptr + _Old_size, _Ptr, _Count);

  00504	8d 34 10	 lea	 esi, DWORD PTR [eax+edx]
; File C:\Program Files\Microsoft Visual Studio\2022\Community\VC\Tools\MSVC\14.44.35207\include\__msvc_string_view.hpp

; 174  :         _CSTD memmove(_First1, _First2, _Count * sizeof(_Elem));

  00507	56		 push	 esi
  00508	e8 00 00 00 00	 call	 _memmove
  0050d	83 c4 0c	 add	 esp, 12			; 0000000cH
; File C:\Program Files\Microsoft Visual Studio\2022\Community\VC\Tools\MSVC\14.44.35207\include\xstring

; 1518 :             _Traits::assign(_Old_ptr[_Old_size + _Count], _Elem());

  00510	c6 04 37 00	 mov	 BYTE PTR [edi+esi], 0

; 1519 :             return *this;

  00514	eb 12		 jmp	 SHORT $LN176@RunMainScr
$LN177@RunMainScr:

; 1520 :         }
; 1521 : 
; 1522 :         return _Reallocate_grow_by(

  00516	ff b5 84 fe ff
	ff		 push	 DWORD PTR $T91[ebp]
  0051c	8d 8d c8 fe ff
	ff		 lea	 ecx, DWORD PTR _stRegisterCmdLine$141[ebp]
  00522	57		 push	 edi
  00523	e8 00 00 00 00	 call	 ??$_Reallocate_grow_by@V<lambda_1>@?1??append@?$basic_string@DU?$char_traits@D@std@@V?$allocator@D@2@@std@@QAEAAV34@QBDI@Z@PBDI@?$basic_string@DU?$char_traits@D@std@@V?$allocator@D@2@@std@@AAEAAV01@IV<lambda_1>@?1??append@01@QAEAAV01@QBDI@Z@PBDI@Z ; std::basic_string<char,std::char_traits<char>,std::allocator<char> >::_Reallocate_grow_by<`std::basic_string<char,std::char_traits<char>,std::allocator<char> >::append'::`2'::<lambda_1>,char const *,unsigned int>
$LN176@RunMainScr:

; 2292 :         const size_type _Old_size = _Mypair._Myval2._Mysize;

  00528	8b 8d d8 fe ff
	ff		 mov	 ecx, DWORD PTR _stRegisterCmdLine$141[ebp+16]
  0052e	8b b5 dc fe ff
	ff		 mov	 esi, DWORD PTR _stRegisterCmdLine$141[ebp+20]
  00534	89 8d 88 fe ff
	ff		 mov	 DWORD PTR __Old_size$1$[ebp], ecx
  0053a	89 b5 80 fe ff
	ff		 mov	 DWORD PTR __Old_capacity$1$[ebp], esi
  00540	3b ce		 cmp	 ecx, esi

; 2293 :         if (_Old_size < _Mypair._Myval2._Myres) {

  00542	73 2a		 jae	 SHORT $LN205@RunMainScr

; 2294 :             _ASAN_STRING_MODIFY(*this, _Old_size, _Old_size + 1);
; 2295 :             _Mypair._Myval2._Mysize = _Old_size + 1;

  00544	8d 41 01	 lea	 eax, DWORD PTR [ecx+1]

; 453  :         return _Myres > _Small_string_capacity;

  00547	83 fe 0f	 cmp	 esi, 15			; 0000000fH

; 2295 :             _Mypair._Myval2._Mysize = _Old_size + 1;

  0054a	89 85 d8 fe ff
	ff		 mov	 DWORD PTR _stRegisterCmdLine$141[ebp+16], eax

; 435  :         value_type* _Result = _Bx._Buf;

  00550	8d 85 c8 fe ff
	ff		 lea	 eax, DWORD PTR _stRegisterCmdLine$141[ebp]

; 436  :         if (_Large_mode_engaged()) {

  00556	0f 47 85 c8 fe
	ff ff		 cmova	 eax, DWORD PTR _stRegisterCmdLine$141[ebp]

; 2297 :             _Traits::assign(_Ptr[_Old_size], _Ch);

  0055d	66 c7 04 08 22
	00		 mov	 WORD PTR [eax+ecx], 34	; 00000022H

; 2298 :             _Traits::assign(_Ptr[_Old_size + 1], _Elem());
; 2299 :             return;

  00563	8b b5 c8 fe ff
	ff		 mov	 esi, DWORD PTR _stRegisterCmdLine$141[ebp]
  00569	e9 eb 00 00 00	 jmp	 $LN217@RunMainScr
$LN205@RunMainScr:

; 3028 :         const size_type _Old_size = _My_data._Mysize;

  0056e	ba ff ff ff 7f	 mov	 edx, 2147483647		; 7fffffffH
  00573	8b c2		 mov	 eax, edx
  00575	2b c1		 sub	 eax, ecx

; 3029 :         if (max_size() - _Old_size < _Size_increase) {

  00577	83 f8 01	 cmp	 eax, 1
  0057a	0f 82 23 05 00
	00		 jb	 $LN901@RunMainScr

; 3031 :         }
; 3032 : 
; 3033 :         const size_type _New_size     = _Old_size + _Size_increase;

  00580	8d 79 01	 lea	 edi, DWORD PTR [ecx+1]

; 2978 :         const size_type _Masked = _Requested | _Alloc_mask;

  00583	83 cf 0f	 or	 edi, 15			; 0000000fH
  00586	3b fa		 cmp	 edi, edx

; 2979 :         if (_Masked > _Max) { // the mask overflows, settle for max_size()

  00588	76 04		 jbe	 SHORT $LN223@RunMainScr

; 2980 :             return _Max;

  0058a	8b fa		 mov	 edi, edx
  0058c	eb 18		 jmp	 SHORT $LN222@RunMainScr
$LN223@RunMainScr:

; 2981 :         }
; 2982 : 
; 2983 :         if (_Old > _Max - _Old / 2) { // similarly, geometric overflows

  0058e	8b c6		 mov	 eax, esi
  00590	d1 e8		 shr	 eax, 1
  00592	2b d0		 sub	 edx, eax
  00594	3b f2		 cmp	 esi, edx
  00596	76 07		 jbe	 SHORT $LN224@RunMainScr

; 2984 :             return _Max;

  00598	bf ff ff ff 7f	 mov	 edi, 2147483647		; 7fffffffH
  0059d	eb 07		 jmp	 SHORT $LN222@RunMainScr
$LN224@RunMainScr:

; 2985 :         }
; 2986 : 
; 2987 :         return (_STD max)(_Masked, _Old + _Old / 2);

  0059f	03 c6		 add	 eax, esi
  005a1	3b f8		 cmp	 edi, eax
  005a3	0f 42 f8	 cmovb	 edi, eax
$LN222@RunMainScr:

; 825  :         ++_Capacity; // Take null terminator into consideration

  005a6	8d 47 01	 lea	 eax, DWORD PTR [edi+1]
; File C:\Program Files\Microsoft Visual Studio\2022\Community\VC\Tools\MSVC\14.44.35207\include\xmemory

; 227  :     if (_Bytes == 0) {

  005a9	85 c0		 test	 eax, eax
  005ab	75 04		 jne	 SHORT $LN241@RunMainScr

; 228  :         return nullptr;

  005ad	33 f6		 xor	 esi, esi
  005af	eb 1f		 jmp	 SHORT $LN240@RunMainScr
$LN241@RunMainScr:

; 229  :     }
; 230  : 
; 231  : #if _HAS_CXX20 // TRANSITION, GH-1532
; 232  :     if (_STD is_constant_evaluated()) {
; 233  :         return _Traits::_Allocate(_Bytes);
; 234  :     }
; 235  : #endif // _HAS_CXX20
; 236  : 
; 237  : #ifdef __cpp_aligned_new
; 238  :     if constexpr (_Align > __STDCPP_DEFAULT_NEW_ALIGNMENT__) {
; 239  :         size_t _Passed_align = _Align;
; 240  : #if defined(_M_IX86) || defined(_M_X64)
; 241  :         if (_Bytes >= _Big_allocation_threshold) {
; 242  :             // boost the alignment of big allocations to help autovectorization
; 243  :             _Passed_align = (_STD max)(_Align, _Big_allocation_alignment);
; 244  :         }
; 245  : #endif // defined(_M_IX86) || defined(_M_X64)
; 246  :         return _Traits::_Allocate_aligned(_Bytes, _Passed_align);
; 247  :     } else
; 248  : #endif // defined(__cpp_aligned_new)
; 249  :     {
; 250  : #if defined(_M_IX86) || defined(_M_X64)
; 251  :         if (_Bytes >= _Big_allocation_threshold) {

  005b1	50		 push	 eax
  005b2	3d 00 10 00 00	 cmp	 eax, 4096		; 00001000H
  005b7	72 07		 jb	 SHORT $LN243@RunMainScr

; 252  :             // boost the alignment of big allocations to help autovectorization
; 253  :             return _Allocate_manually_vector_aligned<_Traits>(_Bytes);

  005b9	e8 00 00 00 00	 call	 ??$_Allocate_manually_vector_aligned@U_Default_allocate_traits@std@@@std@@YAPAXI@Z ; std::_Allocate_manually_vector_aligned<std::_Default_allocate_traits>
  005be	eb 05		 jmp	 SHORT $LN912@RunMainScr
$LN243@RunMainScr:

; 136  :         return ::operator new(_Bytes);

  005c0	e8 00 00 00 00	 call	 ??2@YAPAXI@Z		; operator new
$LN912@RunMainScr:
; File C:\Program Files\Microsoft Visual Studio\2022\Community\VC\Tools\MSVC\14.44.35207\include\xstring

; 3041 :         _My_data._Mysize      = _New_size;

  005c5	8b 8d 88 fe ff
	ff		 mov	 ecx, DWORD PTR __Old_size$1$[ebp]
  005cb	8b f0		 mov	 esi, eax
  005cd	83 c4 04	 add	 esp, 4
$LN240@RunMainScr:

; 3042 :         _My_data._Myres       = _New_capacity;
; 3043 :         _Elem* const _Raw_new = _Unfancy(_New_ptr);
; 3044 :         if (_Old_capacity > _Small_string_capacity) {

  005d0	83 bd 80 fe ff
	ff 0f		 cmp	 DWORD PTR __Old_capacity$1$[ebp], 15 ; 0000000fH
  005d7	8d 41 01	 lea	 eax, DWORD PTR [ecx+1]
  005da	89 bd dc fe ff
	ff		 mov	 DWORD PTR _stRegisterCmdLine$141[ebp+20], edi
  005e0	8d 3c 31	 lea	 edi, DWORD PTR [ecx+esi]
  005e3	89 85 d8 fe ff
	ff		 mov	 DWORD PTR _stRegisterCmdLine$141[ebp+16], eax
  005e9	89 bd 84 fe ff
	ff		 mov	 DWORD PTR tv3186[ebp], edi
  005ef	51		 push	 ecx
  005f0	76 4c		 jbe	 SHORT $LN216@RunMainScr

; 3045 :             const pointer _Old_ptr = _My_data._Bx._Ptr;

  005f2	8b bd c8 fe ff
	ff		 mov	 edi, DWORD PTR _stRegisterCmdLine$141[ebp]
; File C:\Program Files\Microsoft Visual Studio\2022\Community\VC\Tools\MSVC\14.44.35207\include\__msvc_string_view.hpp

; 121  :         _CSTD memcpy(_First1, _First2, _Count * sizeof(_Elem));

  005f8	57		 push	 edi
  005f9	56		 push	 esi
  005fa	e8 00 00 00 00	 call	 _memcpy
; File C:\Program Files\Microsoft Visual Studio\2022\Community\VC\Tools\MSVC\14.44.35207\include\xstring

; 2307 :                     _Traits::assign(_New_ptr[_Old_size], _Ch);

  005ff	8b 85 84 fe ff
	ff		 mov	 eax, DWORD PTR tv3186[ebp]
; File C:\Program Files\Microsoft Visual Studio\2022\Community\VC\Tools\MSVC\14.44.35207\include\__msvc_string_view.hpp

; 121  :         _CSTD memcpy(_First1, _First2, _Count * sizeof(_Elem));

  00605	83 c4 0c	 add	 esp, 12			; 0000000cH
; File C:\Program Files\Microsoft Visual Studio\2022\Community\VC\Tools\MSVC\14.44.35207\include\xstring

; 852  :         _Al.deallocate(_Old_ptr, _Capacity + 1); // +1 for null terminator

  00608	8b 8d 80 fe ff
	ff		 mov	 ecx, DWORD PTR __Old_capacity$1$[ebp]
  0060e	41		 inc	 ecx

; 2307 :                     _Traits::assign(_New_ptr[_Old_size], _Ch);

  0060f	66 c7 00 22 00	 mov	 WORD PTR [eax], 34	; 00000022H
; File C:\Program Files\Microsoft Visual Studio\2022\Community\VC\Tools\MSVC\14.44.35207\include\xmemory

; 284  :         if (_Bytes >= _Big_allocation_threshold) {

  00614	81 f9 00 10 00
	00		 cmp	 ecx, 4096		; 00001000H
  0061a	72 16		 jb	 SHORT $LN275@RunMainScr

; 205  :     const uintptr_t _Ptr_container   = _Ptr_user[-1];

  0061c	8b 57 fc	 mov	 edx, DWORD PTR [edi-4]
  0061f	83 c1 23	 add	 ecx, 35			; 00000023H

; 206  : 
; 207  :     // If the following asserts, it likely means that we are performing
; 208  :     // an aligned delete on memory coming from an unaligned allocation.
; 209  :     _STL_ASSERT(_Ptr_user[-2] == _Big_allocation_sentinel, "invalid argument");
; 210  : 
; 211  :     // Extra paranoia on aligned allocation/deallocation; ensure _Ptr_container is
; 212  :     // in range [_Min_back_shift, _Non_user_size]
; 213  : #ifdef _DEBUG
; 214  :     constexpr uintptr_t _Min_back_shift = 2 * sizeof(void*);
; 215  : #else // ^^^ defined(_DEBUG) / !defined(_DEBUG) vvv
; 216  :     constexpr uintptr_t _Min_back_shift = sizeof(void*);
; 217  : #endif // ^^^ !defined(_DEBUG) ^^^
; 218  :     const uintptr_t _Back_shift = reinterpret_cast<uintptr_t>(_Ptr) - _Ptr_container;

  00622	2b fa		 sub	 edi, edx

; 219  :     _STL_VERIFY(_Back_shift >= _Min_back_shift && _Back_shift <= _Non_user_size, "invalid argument");

  00624	8d 47 fc	 lea	 eax, DWORD PTR [edi-4]
  00627	83 f8 1f	 cmp	 eax, 31			; 0000001fH
  0062a	0f 87 78 04 00
	00		 ja	 $LN537@RunMainScr

; 220  :     _Ptr = reinterpret_cast<void*>(_Ptr_container);

  00630	8b fa		 mov	 edi, edx
$LN275@RunMainScr:

; 289  :         ::operator delete(_Ptr, _Bytes);

  00632	51		 push	 ecx
  00633	57		 push	 edi
  00634	e8 00 00 00 00	 call	 ??3@YAXPAXI@Z		; operator delete
  00639	83 c4 08	 add	 esp, 8
; File C:\Program Files\Microsoft Visual Studio\2022\Community\VC\Tools\MSVC\14.44.35207\include\xstring

; 3049 :         } else {

  0063c	eb 15		 jmp	 SHORT $LN913@RunMainScr
$LN216@RunMainScr:
; File C:\Program Files\Microsoft Visual Studio\2022\Community\VC\Tools\MSVC\14.44.35207\include\__msvc_string_view.hpp

; 121  :         _CSTD memcpy(_First1, _First2, _Count * sizeof(_Elem));

  0063e	8d 85 c8 fe ff
	ff		 lea	 eax, DWORD PTR _stRegisterCmdLine$141[ebp]
  00644	50		 push	 eax
  00645	56		 push	 esi
  00646	e8 00 00 00 00	 call	 _memcpy
  0064b	83 c4 0c	 add	 esp, 12			; 0000000cH
; File C:\Program Files\Microsoft Visual Studio\2022\Community\VC\Tools\MSVC\14.44.35207\include\xstring

; 2307 :                     _Traits::assign(_New_ptr[_Old_size], _Ch);

  0064e	66 c7 07 22 00	 mov	 WORD PTR [edi], 34	; 00000022H
$LN913@RunMainScr:

; 444  :         const value_type* _Result = _Bx._Buf;

  00653	89 b5 c8 fe ff
	ff		 mov	 DWORD PTR _stRegisterCmdLine$141[ebp], esi
$LN217@RunMainScr:

; 453  :         return _Myres > _Small_string_capacity;

  00659	83 bd dc fe ff
	ff 0f		 cmp	 DWORD PTR _stRegisterCmdLine$141[ebp+20], 15 ; 0000000fH

; 444  :         const value_type* _Result = _Bx._Buf;

  00660	8d 85 c8 fe ff
	ff		 lea	 eax, DWORD PTR _stRegisterCmdLine$141[ebp]
; File C:\Anka2Project\Anka2Project\Source\Binary\source\UserInterface\UserInterface.cpp

; 494  : 		if (!pyLauncher.RunLine(c_szRegisterCmdLine))

  00666	8b bd 78 fe ff
	ff		 mov	 edi, DWORD PTR _pyLauncher$GSCopy$1$[ebp]
  0066c	8b cf		 mov	 ecx, edi
; File C:\Program Files\Microsoft Visual Studio\2022\Community\VC\Tools\MSVC\14.44.35207\include\xstring

; 445  :         if (_Large_mode_engaged()) {

  0066e	0f 47 c6	 cmova	 eax, esi
; File C:\Anka2Project\Anka2Project\Source\Binary\source\UserInterface\UserInterface.cpp

; 494  : 		if (!pyLauncher.RunLine(c_szRegisterCmdLine))

  00671	50		 push	 eax
  00672	e8 00 00 00 00	 call	 ?RunLine@CPythonLauncher@@QAE_NPBD@Z ; CPythonLauncher::RunLine
  00677	84 c0		 test	 al, al
  00679	0f 85 2e 01 00
	00		 jne	 $LN6@RunMainScr

; 496  : 			TraceError("RegisterCommandLine Error");

  0067f	68 00 00 00 00	 push	 OFFSET ??_C@_0BK@DPMNHJLC@RegisterCommandLine?5Error@
  00684	e8 00 00 00 00	 call	 ?TraceError@@YAXPBDZZ	; TraceError
; File C:\Program Files\Microsoft Visual Studio\2022\Community\VC\Tools\MSVC\14.44.35207\include\vector

; 2090 :         if (_Myfirst) { // destroy and deallocate old array

  00689	8b b5 8c fe ff
	ff		 mov	 esi, DWORD PTR _stVec$138[ebp]
; File C:\Anka2Project\Anka2Project\Source\Binary\source\UserInterface\UserInterface.cpp

; 496  : 			TraceError("RegisterCommandLine Error");

  0068f	83 c4 04	 add	 esp, 4
; File C:\Program Files\Microsoft Visual Studio\2022\Community\VC\Tools\MSVC\14.44.35207\include\vector

; 2090 :         if (_Myfirst) { // destroy and deallocate old array

  00692	85 f6		 test	 esi, esi
  00694	0f 84 83 00 00
	00		 je	 $LN334@RunMainScr

; 2091 :             _STD _Destroy_range(_Myfirst, _Mylast, _Al);

  0069a	8b bd 90 fe ff
	ff		 mov	 edi, DWORD PTR _stVec$138[ebp+4]
  006a0	3b f7		 cmp	 esi, edi
; File C:\Program Files\Microsoft Visual Studio\2022\Community\VC\Tools\MSVC\14.44.35207\include\xmemory

; 1102 :         for (; _First != _Last; ++_First) {

  006a2	74 14		 je	 SHORT $LN339@RunMainScr
$LL340@RunMainScr:
; File C:\Program Files\Microsoft Visual Studio\2022\Community\VC\Tools\MSVC\14.44.35207\include\xstring

; 1383 :         _Tidy_deallocate();

  006a4	8b ce		 mov	 ecx, esi
  006a6	e8 00 00 00 00	 call	 ?_Tidy_deallocate@?$basic_string@DU?$char_traits@D@std@@V?$allocator@D@2@@std@@AAEXXZ ; std::basic_string<char,std::char_traits<char>,std::allocator<char> >::_Tidy_deallocate
; File C:\Program Files\Microsoft Visual Studio\2022\Community\VC\Tools\MSVC\14.44.35207\include\xmemory

; 1102 :         for (; _First != _Last; ++_First) {

  006ab	83 c6 18	 add	 esi, 24			; 00000018H
  006ae	3b f7		 cmp	 esi, edi
  006b0	75 f2		 jne	 SHORT $LL340@RunMainScr
  006b2	8b b5 8c fe ff
	ff		 mov	 esi, DWORD PTR _stVec$138[ebp]
$LN339@RunMainScr:
; File C:\Program Files\Microsoft Visual Studio\2022\Community\VC\Tools\MSVC\14.44.35207\include\vector

; 2093 :             _Al.deallocate(_Myfirst, static_cast<size_type>(_Myend - _Myfirst));

  006b8	8b 8d 94 fe ff
	ff		 mov	 ecx, DWORD PTR _stVec$138[ebp+8]
  006be	b8 ab aa aa 2a	 mov	 eax, 715827883		; 2aaaaaabH
  006c3	2b ce		 sub	 ecx, esi
  006c5	f7 e9		 imul	 ecx
  006c7	c1 fa 02	 sar	 edx, 2
  006ca	8b c2		 mov	 eax, edx
  006cc	c1 e8 1f	 shr	 eax, 31			; 0000001fH
  006cf	03 c2		 add	 eax, edx
; File C:\Program Files\Microsoft Visual Studio\2022\Community\VC\Tools\MSVC\14.44.35207\include\xmemory

; 985  :         _STD _Deallocate<_New_alignof<_Ty>>(_Ptr, sizeof(_Ty) * _Count);

  006d1	8d 0c 40	 lea	 ecx, DWORD PTR [eax+eax*2]
  006d4	8b c6		 mov	 eax, esi
  006d6	c1 e1 03	 shl	 ecx, 3

; 284  :         if (_Bytes >= _Big_allocation_threshold) {

  006d9	81 f9 00 10 00
	00		 cmp	 ecx, 4096		; 00001000H
  006df	72 14		 jb	 SHORT $LN368@RunMainScr

; 205  :     const uintptr_t _Ptr_container   = _Ptr_user[-1];

  006e1	8b 70 fc	 mov	 esi, DWORD PTR [eax-4]
  006e4	83 c1 23	 add	 ecx, 35			; 00000023H
  006e7	2b c6		 sub	 eax, esi

; 219  :     _STL_VERIFY(_Back_shift >= _Min_back_shift && _Back_shift <= _Non_user_size, "invalid argument");

  006e9	83 c0 fc	 add	 eax, -4			; fffffffcH
  006ec	83 f8 1f	 cmp	 eax, 31			; 0000001fH
  006ef	0f 87 b3 03 00
	00		 ja	 $LN537@RunMainScr
$LN368@RunMainScr:

; 289  :         ::operator delete(_Ptr, _Bytes);

  006f5	51		 push	 ecx
  006f6	56		 push	 esi
  006f7	e8 00 00 00 00	 call	 ??3@YAXPAXI@Z		; operator delete
  006fc	83 c4 08	 add	 esp, 8
; File C:\Program Files\Microsoft Visual Studio\2022\Community\VC\Tools\MSVC\14.44.35207\include\vector

; 2095 :             _Myfirst = nullptr;

  006ff	c7 85 8c fe ff
	ff 00 00 00 00	 mov	 DWORD PTR _stVec$138[ebp], 0

; 2096 :             _Mylast  = nullptr;

  00709	c7 85 90 fe ff
	ff 00 00 00 00	 mov	 DWORD PTR _stVec$138[ebp+4], 0

; 2097 :             _Myend   = nullptr;

  00713	c7 85 94 fe ff
	ff 00 00 00 00	 mov	 DWORD PTR _stVec$138[ebp+8], 0
$LN334@RunMainScr:
; File C:\Program Files\Microsoft Visual Studio\2022\Community\VC\Tools\MSVC\14.44.35207\include\xstring

; 453  :         return _Myres > _Small_string_capacity;

  0071d	8b 8d c4 fe ff
	ff		 mov	 ecx, DWORD PTR _stCmdLine$140[ebp+20]
  00723	83 f9 0f	 cmp	 ecx, 15			; 0000000fH

; 3083 :         if (_My_data._Large_mode_engaged()) {

  00726	76 2f		 jbe	 SHORT $LN391@RunMainScr
; File C:\Program Files\Microsoft Visual Studio\2022\Community\VC\Tools\MSVC\14.44.35207\include\xmemory

; 985  :         _STD _Deallocate<_New_alignof<_Ty>>(_Ptr, sizeof(_Ty) * _Count);

  00728	8b 95 b0 fe ff
	ff		 mov	 edx, DWORD PTR _stCmdLine$140[ebp]
; File C:\Program Files\Microsoft Visual Studio\2022\Community\VC\Tools\MSVC\14.44.35207\include\xstring

; 852  :         _Al.deallocate(_Old_ptr, _Capacity + 1); // +1 for null terminator

  0072e	41		 inc	 ecx
; File C:\Program Files\Microsoft Visual Studio\2022\Community\VC\Tools\MSVC\14.44.35207\include\xmemory

; 985  :         _STD _Deallocate<_New_alignof<_Ty>>(_Ptr, sizeof(_Ty) * _Count);

  0072f	8b c2		 mov	 eax, edx

; 284  :         if (_Bytes >= _Big_allocation_threshold) {

  00731	81 f9 00 10 00
	00		 cmp	 ecx, 4096		; 00001000H
  00737	72 14		 jb	 SHORT $LN399@RunMainScr

; 205  :     const uintptr_t _Ptr_container   = _Ptr_user[-1];

  00739	8b 50 fc	 mov	 edx, DWORD PTR [eax-4]
  0073c	83 c1 23	 add	 ecx, 35			; 00000023H
  0073f	2b c2		 sub	 eax, edx

; 219  :     _STL_VERIFY(_Back_shift >= _Min_back_shift && _Back_shift <= _Non_user_size, "invalid argument");

  00741	83 c0 fc	 add	 eax, -4			; fffffffcH
  00744	83 f8 1f	 cmp	 eax, 31			; 0000001fH
  00747	0f 87 5b 03 00
	00		 ja	 $LN537@RunMainScr
$LN399@RunMainScr:

; 289  :         ::operator delete(_Ptr, _Bytes);

  0074d	51		 push	 ecx
  0074e	52		 push	 edx
  0074f	e8 00 00 00 00	 call	 ??3@YAXPAXI@Z		; operator delete
  00754	83 c4 08	 add	 esp, 8
$LN391@RunMainScr:
; File C:\Program Files\Microsoft Visual Studio\2022\Community\VC\Tools\MSVC\14.44.35207\include\xstring

; 453  :         return _Myres > _Small_string_capacity;

  00757	8b 8d dc fe ff
	ff		 mov	 ecx, DWORD PTR _stRegisterCmdLine$141[ebp+20]

; 3090 :         _My_data._Mysize = 0;

  0075d	c7 85 c0 fe ff
	ff 00 00 00 00	 mov	 DWORD PTR _stCmdLine$140[ebp+16], 0

; 3091 :         _My_data._Myres  = _Small_string_capacity;

  00767	c7 85 c4 fe ff
	ff 0f 00 00 00	 mov	 DWORD PTR _stCmdLine$140[ebp+20], 15 ; 0000000fH

; 3092 :         // the _Traits::assign is last so the codegen doesn't think the char write can alias this
; 3093 :         _Traits::assign(_My_data._Bx._Buf[0], _Elem());

  00771	c6 85 b0 fe ff
	ff 00		 mov	 BYTE PTR _stCmdLine$140[ebp], 0

; 453  :         return _Myres > _Small_string_capacity;

  00778	83 f9 0f	 cmp	 ecx, 15			; 0000000fH

; 3083 :         if (_My_data._Large_mode_engaged()) {

  0077b	0f 86 8a 02 00
	00		 jbe	 $LN713@RunMainScr
; File C:\Program Files\Microsoft Visual Studio\2022\Community\VC\Tools\MSVC\14.44.35207\include\xmemory

; 985  :         _STD _Deallocate<_New_alignof<_Ty>>(_Ptr, sizeof(_Ty) * _Count);

  00781	8b 95 c8 fe ff
	ff		 mov	 edx, DWORD PTR _stRegisterCmdLine$141[ebp]
; File C:\Program Files\Microsoft Visual Studio\2022\Community\VC\Tools\MSVC\14.44.35207\include\xstring

; 852  :         _Al.deallocate(_Old_ptr, _Capacity + 1); // +1 for null terminator

  00787	41		 inc	 ecx
; File C:\Program Files\Microsoft Visual Studio\2022\Community\VC\Tools\MSVC\14.44.35207\include\xmemory

; 985  :         _STD _Deallocate<_New_alignof<_Ty>>(_Ptr, sizeof(_Ty) * _Count);

  00788	8b c2		 mov	 eax, edx

; 284  :         if (_Bytes >= _Big_allocation_threshold) {

  0078a	81 f9 00 10 00
	00		 cmp	 ecx, 4096		; 00001000H
  00790	72 14		 jb	 SHORT $LN431@RunMainScr

; 205  :     const uintptr_t _Ptr_container   = _Ptr_user[-1];

  00792	8b 50 fc	 mov	 edx, DWORD PTR [eax-4]
  00795	83 c1 23	 add	 ecx, 35			; 00000023H
  00798	2b c2		 sub	 eax, edx

; 219  :     _STL_VERIFY(_Back_shift >= _Min_back_shift && _Back_shift <= _Non_user_size, "invalid argument");

  0079a	83 c0 fc	 add	 eax, -4			; fffffffcH
  0079d	83 f8 1f	 cmp	 eax, 31			; 0000001fH
  007a0	0f 87 02 03 00
	00		 ja	 $LN537@RunMainScr
$LN431@RunMainScr:

; 289  :         ::operator delete(_Ptr, _Bytes);

  007a6	51		 push	 ecx
  007a7	52		 push	 edx
; File C:\Program Files\Microsoft Visual Studio\2022\Community\VC\Tools\MSVC\14.44.35207\include\xstring

; 446  :             _Result = _Unfancy(_Bx._Ptr);

  007a8	e9 56 02 00 00	 jmp	 $LN914@RunMainScr
$LN6@RunMainScr:
; File C:\Anka2Project\Anka2Project\Source\Binary\source\UserInterface\UserInterface.cpp

; 499  : 	}

  007ad	c6 45 fc 01	 mov	 BYTE PTR __$EHRec$[ebp+8], 1
; File C:\Program Files\Microsoft Visual Studio\2022\Community\VC\Tools\MSVC\14.44.35207\include\vector

; 2090 :         if (_Myfirst) { // destroy and deallocate old array

  007b1	8b b5 8c fe ff
	ff		 mov	 esi, DWORD PTR _stVec$138[ebp]
  007b7	85 f6		 test	 esi, esi
  007b9	0f 84 90 00 00
	00		 je	 $LN441@RunMainScr

; 2091 :             _STD _Destroy_range(_Myfirst, _Mylast, _Al);

  007bf	8b bd 90 fe ff
	ff		 mov	 edi, DWORD PTR _stVec$138[ebp+4]
  007c5	3b f7		 cmp	 esi, edi
; File C:\Program Files\Microsoft Visual Studio\2022\Community\VC\Tools\MSVC\14.44.35207\include\xmemory

; 1102 :         for (; _First != _Last; ++_First) {

  007c7	74 1b		 je	 SHORT $LN446@RunMainScr
  007c9	0f 1f 80 00 00
	00 00		 npad	 7
$LL447@RunMainScr:
; File C:\Program Files\Microsoft Visual Studio\2022\Community\VC\Tools\MSVC\14.44.35207\include\xstring

; 1383 :         _Tidy_deallocate();

  007d0	8b ce		 mov	 ecx, esi
  007d2	e8 00 00 00 00	 call	 ?_Tidy_deallocate@?$basic_string@DU?$char_traits@D@std@@V?$allocator@D@2@@std@@AAEXXZ ; std::basic_string<char,std::char_traits<char>,std::allocator<char> >::_Tidy_deallocate
; File C:\Program Files\Microsoft Visual Studio\2022\Community\VC\Tools\MSVC\14.44.35207\include\xmemory

; 1102 :         for (; _First != _Last; ++_First) {

  007d7	83 c6 18	 add	 esi, 24			; 00000018H
  007da	3b f7		 cmp	 esi, edi
  007dc	75 f2		 jne	 SHORT $LL447@RunMainScr
  007de	8b b5 8c fe ff
	ff		 mov	 esi, DWORD PTR _stVec$138[ebp]
$LN446@RunMainScr:
; File C:\Program Files\Microsoft Visual Studio\2022\Community\VC\Tools\MSVC\14.44.35207\include\vector

; 2093 :             _Al.deallocate(_Myfirst, static_cast<size_type>(_Myend - _Myfirst));

  007e4	8b 8d 94 fe ff
	ff		 mov	 ecx, DWORD PTR _stVec$138[ebp+8]
  007ea	b8 ab aa aa 2a	 mov	 eax, 715827883		; 2aaaaaabH
  007ef	2b ce		 sub	 ecx, esi
  007f1	f7 e9		 imul	 ecx
  007f3	c1 fa 02	 sar	 edx, 2
  007f6	8b c2		 mov	 eax, edx
  007f8	c1 e8 1f	 shr	 eax, 31			; 0000001fH
  007fb	03 c2		 add	 eax, edx
; File C:\Program Files\Microsoft Visual Studio\2022\Community\VC\Tools\MSVC\14.44.35207\include\xmemory

; 985  :         _STD _Deallocate<_New_alignof<_Ty>>(_Ptr, sizeof(_Ty) * _Count);

  007fd	8d 0c 40	 lea	 ecx, DWORD PTR [eax+eax*2]
  00800	8b c6		 mov	 eax, esi
  00802	c1 e1 03	 shl	 ecx, 3

; 284  :         if (_Bytes >= _Big_allocation_threshold) {

  00805	81 f9 00 10 00
	00		 cmp	 ecx, 4096		; 00001000H
  0080b	72 14		 jb	 SHORT $LN475@RunMainScr

; 205  :     const uintptr_t _Ptr_container   = _Ptr_user[-1];

  0080d	8b 70 fc	 mov	 esi, DWORD PTR [eax-4]
  00810	83 c1 23	 add	 ecx, 35			; 00000023H
  00813	2b c6		 sub	 eax, esi

; 219  :     _STL_VERIFY(_Back_shift >= _Min_back_shift && _Back_shift <= _Non_user_size, "invalid argument");

  00815	83 c0 fc	 add	 eax, -4			; fffffffcH
  00818	83 f8 1f	 cmp	 eax, 31			; 0000001fH
  0081b	0f 87 87 02 00
	00		 ja	 $LN537@RunMainScr
$LN475@RunMainScr:

; 289  :         ::operator delete(_Ptr, _Bytes);

  00821	51		 push	 ecx
  00822	56		 push	 esi
  00823	e8 00 00 00 00	 call	 ??3@YAXPAXI@Z		; operator delete
  00828	8b bd 78 fe ff
	ff		 mov	 edi, DWORD PTR _pyLauncher$GSCopy$1$[ebp]
  0082e	83 c4 08	 add	 esp, 8
; File C:\Program Files\Microsoft Visual Studio\2022\Community\VC\Tools\MSVC\14.44.35207\include\vector

; 2095 :             _Myfirst = nullptr;

  00831	c7 85 8c fe ff
	ff 00 00 00 00	 mov	 DWORD PTR _stVec$138[ebp], 0

; 2096 :             _Mylast  = nullptr;

  0083b	c7 85 90 fe ff
	ff 00 00 00 00	 mov	 DWORD PTR _stVec$138[ebp+4], 0

; 2097 :             _Myend   = nullptr;

  00845	c7 85 94 fe ff
	ff 00 00 00 00	 mov	 DWORD PTR _stVec$138[ebp+8], 0
$LN441@RunMainScr:
; File C:\Anka2Project\Anka2Project\Source\Binary\source\UserInterface\UserInterface.cpp

; 499  : 	}

  0084f	c6 45 fc 00	 mov	 BYTE PTR __$EHRec$[ebp+8], 0
; File C:\Program Files\Microsoft Visual Studio\2022\Community\VC\Tools\MSVC\14.44.35207\include\xstring

; 453  :         return _Myres > _Small_string_capacity;

  00853	8b 8d c4 fe ff
	ff		 mov	 ecx, DWORD PTR _stCmdLine$140[ebp+20]
  00859	83 f9 0f	 cmp	 ecx, 15			; 0000000fH

; 3083 :         if (_My_data._Large_mode_engaged()) {

  0085c	76 2f		 jbe	 SHORT $LN498@RunMainScr
; File C:\Program Files\Microsoft Visual Studio\2022\Community\VC\Tools\MSVC\14.44.35207\include\xmemory

; 985  :         _STD _Deallocate<_New_alignof<_Ty>>(_Ptr, sizeof(_Ty) * _Count);

  0085e	8b 95 b0 fe ff
	ff		 mov	 edx, DWORD PTR _stCmdLine$140[ebp]
; File C:\Program Files\Microsoft Visual Studio\2022\Community\VC\Tools\MSVC\14.44.35207\include\xstring

; 852  :         _Al.deallocate(_Old_ptr, _Capacity + 1); // +1 for null terminator

  00864	41		 inc	 ecx
; File C:\Program Files\Microsoft Visual Studio\2022\Community\VC\Tools\MSVC\14.44.35207\include\xmemory

; 985  :         _STD _Deallocate<_New_alignof<_Ty>>(_Ptr, sizeof(_Ty) * _Count);

  00865	8b c2		 mov	 eax, edx

; 284  :         if (_Bytes >= _Big_allocation_threshold) {

  00867	81 f9 00 10 00
	00		 cmp	 ecx, 4096		; 00001000H
  0086d	72 14		 jb	 SHORT $LN506@RunMainScr

; 205  :     const uintptr_t _Ptr_container   = _Ptr_user[-1];

  0086f	8b 50 fc	 mov	 edx, DWORD PTR [eax-4]
  00872	83 c1 23	 add	 ecx, 35			; 00000023H
  00875	2b c2		 sub	 eax, edx

; 219  :     _STL_VERIFY(_Back_shift >= _Min_back_shift && _Back_shift <= _Non_user_size, "invalid argument");

  00877	83 c0 fc	 add	 eax, -4			; fffffffcH
  0087a	83 f8 1f	 cmp	 eax, 31			; 0000001fH
  0087d	0f 87 25 02 00
	00		 ja	 $LN537@RunMainScr
$LN506@RunMainScr:

; 289  :         ::operator delete(_Ptr, _Bytes);

  00883	51		 push	 ecx
  00884	52		 push	 edx
  00885	e8 00 00 00 00	 call	 ??3@YAXPAXI@Z		; operator delete
  0088a	83 c4 08	 add	 esp, 8
$LN498@RunMainScr:
; File C:\Anka2Project\Anka2Project\Source\Binary\source\UserInterface\UserInterface.cpp

; 499  : 	}

  0088d	c7 45 fc ff ff
	ff ff		 mov	 DWORD PTR __$EHRec$[ebp+8], -1
; File C:\Program Files\Microsoft Visual Studio\2022\Community\VC\Tools\MSVC\14.44.35207\include\xstring

; 453  :         return _Myres > _Small_string_capacity;

  00894	8b 8d dc fe ff
	ff		 mov	 ecx, DWORD PTR _stRegisterCmdLine$141[ebp+20]

; 3090 :         _My_data._Mysize = 0;

  0089a	c7 85 c0 fe ff
	ff 00 00 00 00	 mov	 DWORD PTR _stCmdLine$140[ebp+16], 0

; 3091 :         _My_data._Myres  = _Small_string_capacity;

  008a4	c7 85 c4 fe ff
	ff 0f 00 00 00	 mov	 DWORD PTR _stCmdLine$140[ebp+20], 15 ; 0000000fH

; 3092 :         // the _Traits::assign is last so the codegen doesn't think the char write can alias this
; 3093 :         _Traits::assign(_My_data._Bx._Buf[0], _Elem());

  008ae	c6 85 b0 fe ff
	ff 00		 mov	 BYTE PTR _stCmdLine$140[ebp], 0

; 453  :         return _Myres > _Small_string_capacity;

  008b5	83 f9 0f	 cmp	 ecx, 15			; 0000000fH

; 3083 :         if (_My_data._Large_mode_engaged()) {

  008b8	76 2f		 jbe	 SHORT $LN530@RunMainScr
; File C:\Program Files\Microsoft Visual Studio\2022\Community\VC\Tools\MSVC\14.44.35207\include\xmemory

; 985  :         _STD _Deallocate<_New_alignof<_Ty>>(_Ptr, sizeof(_Ty) * _Count);

  008ba	8b 95 c8 fe ff
	ff		 mov	 edx, DWORD PTR _stRegisterCmdLine$141[ebp]
; File C:\Program Files\Microsoft Visual Studio\2022\Community\VC\Tools\MSVC\14.44.35207\include\xstring

; 852  :         _Al.deallocate(_Old_ptr, _Capacity + 1); // +1 for null terminator

  008c0	41		 inc	 ecx
; File C:\Program Files\Microsoft Visual Studio\2022\Community\VC\Tools\MSVC\14.44.35207\include\xmemory

; 985  :         _STD _Deallocate<_New_alignof<_Ty>>(_Ptr, sizeof(_Ty) * _Count);

  008c1	8b c2		 mov	 eax, edx

; 284  :         if (_Bytes >= _Big_allocation_threshold) {

  008c3	81 f9 00 10 00
	00		 cmp	 ecx, 4096		; 00001000H
  008c9	72 14		 jb	 SHORT $LN538@RunMainScr

; 205  :     const uintptr_t _Ptr_container   = _Ptr_user[-1];

  008cb	8b 50 fc	 mov	 edx, DWORD PTR [eax-4]
  008ce	83 c1 23	 add	 ecx, 35			; 00000023H
  008d1	2b c2		 sub	 eax, edx

; 219  :     _STL_VERIFY(_Back_shift >= _Min_back_shift && _Back_shift <= _Non_user_size, "invalid argument");

  008d3	83 c0 fc	 add	 eax, -4			; fffffffcH
  008d6	83 f8 1f	 cmp	 eax, 31			; 0000001fH
  008d9	0f 87 c9 01 00
	00		 ja	 $LN537@RunMainScr
$LN538@RunMainScr:

; 289  :         ::operator delete(_Ptr, _Bytes);

  008df	51		 push	 ecx
  008e0	52		 push	 edx
  008e1	e8 00 00 00 00	 call	 ??3@YAXPAXI@Z		; operator delete
  008e6	83 c4 08	 add	 esp, 8
$LN530@RunMainScr:
; File C:\Program Files\Microsoft Visual Studio\2022\Community\VC\Tools\MSVC\14.44.35207\include\vector

; 400  :     _CONSTEXPR20 _Vector_val() noexcept : _Myfirst(), _Mylast(), _Myend() {}

  008e9	c7 85 8c fe ff
	ff 00 00 00 00	 mov	 DWORD PTR _stVec$139[ebp], 0
  008f3	c7 85 90 fe ff
	ff 00 00 00 00	 mov	 DWORD PTR _stVec$139[ebp+4], 0
  008fd	c7 85 94 fe ff
	ff 00 00 00 00	 mov	 DWORD PTR _stVec$139[ebp+8], 0
; File C:\Anka2Project\Anka2Project\Source\Binary\source\UserInterface\UserInterface.cpp

; 502  : 		SplitLine(lpCmdLine," " ,&stVec);

  00907	8b 95 7c fe ff
	ff		 mov	 edx, DWORD PTR _lpCmdLine$GSCopy$1$[ebp]
  0090d	8d 85 8c fe ff
	ff		 lea	 eax, DWORD PTR _stVec$139[ebp]
  00913	50		 push	 eax
  00914	68 00 00 00 00	 push	 OFFSET ??_C@_01CLKCMJKC@?5@
  00919	52		 push	 edx
  0091a	c7 45 fc 05 00
	00 00		 mov	 DWORD PTR __$EHRec$[ebp+8], 5
  00921	e8 00 00 00 00	 call	 ?SplitLine@@YA_NPBD0PAV?$vector@V?$basic_string@DU?$char_traits@D@std@@V?$allocator@D@2@@std@@V?$allocator@V?$basic_string@DU?$char_traits@D@std@@V?$allocator@D@2@@std@@@2@@std@@@Z ; SplitLine
; File C:\Program Files\Microsoft Visual Studio\2022\Community\VC\Tools\MSVC\14.44.35207\include\vector

; 1915 :         return static_cast<size_type>(_My_data._Mylast - _My_data._Myfirst);

  00926	8b 8d 90 fe ff
	ff		 mov	 ecx, DWORD PTR _stVec$139[ebp+4]
  0092c	b8 ab aa aa 2a	 mov	 eax, 715827883		; 2aaaaaabH
  00931	8b b5 8c fe ff
	ff		 mov	 esi, DWORD PTR _stVec$139[ebp]
; File C:\Anka2Project\Anka2Project\Source\Binary\source\UserInterface\UserInterface.cpp

; 502  : 		SplitLine(lpCmdLine," " ,&stVec);

  00937	83 c4 0c	 add	 esp, 12			; 0000000cH
; File C:\Program Files\Microsoft Visual Studio\2022\Community\VC\Tools\MSVC\14.44.35207\include\vector

; 1915 :         return static_cast<size_type>(_My_data._Mylast - _My_data._Myfirst);

  0093a	2b ce		 sub	 ecx, esi
  0093c	f7 e9		 imul	 ecx
  0093e	c1 fa 02	 sar	 edx, 2
  00941	8b c2		 mov	 eax, edx
  00943	c1 e8 1f	 shr	 eax, 31			; 0000001fH
  00946	03 c2		 add	 eax, edx
; File C:\Anka2Project\Anka2Project\Source\Binary\source\UserInterface\UserInterface.cpp

; 504  : 		if (stVec.size() != 0 && "--pause-before-create-window" == stVec[0])

  00948	74 2d		 je	 SHORT $LN7@RunMainScr
; File C:\Program Files\Microsoft Visual Studio\2022\Community\VC\Tools\MSVC\14.44.35207\include\xstring

; 453  :         return _Myres > _Small_string_capacity;

  0094a	83 7e 14 0f	 cmp	 DWORD PTR [esi+20], 15	; 0000000fH

; 2854 :         return _Traits_equal<_Traits>(_Mypair._Myval2._Myptr(), _Mypair._Myval2._Mysize, _Ptr, _Traits::length(_Ptr));

  0094e	8b 46 10	 mov	 eax, DWORD PTR [esi+16]

; 445  :         if (_Large_mode_engaged()) {

  00951	76 02		 jbe	 SHORT $LN677@RunMainScr

; 446  :             _Result = _Unfancy(_Bx._Ptr);

  00953	8b 36		 mov	 esi, DWORD PTR [esi]
$LN677@RunMainScr:

; 2854 :         return _Traits_equal<_Traits>(_Mypair._Myval2._Myptr(), _Mypair._Myval2._Mysize, _Ptr, _Traits::length(_Ptr));

  00955	6a 1c		 push	 28			; 0000001cH
  00957	68 00 00 00 00	 push	 OFFSET ??_C@_0BN@KIGJPBEF@?9?9pause?9before?9create?9window@
  0095c	50		 push	 eax
  0095d	56		 push	 esi
  0095e	e8 00 00 00 00	 call	 ??$_Traits_equal@U?$char_traits@D@std@@@std@@YA_NQBDI0I@Z ; std::_Traits_equal<std::char_traits<char> >
  00963	83 c4 10	 add	 esp, 16			; 00000010H
; File C:\Anka2Project\Anka2Project\Source\Binary\source\UserInterface\UserInterface.cpp

; 504  : 		if (stVec.size() != 0 && "--pause-before-create-window" == stVec[0])

  00966	84 c0		 test	 al, al
  00968	74 0d		 je	 SHORT $LN7@RunMainScr

; 505  : 		{
; 506  : 			system("pause");

  0096a	68 00 00 00 00	 push	 OFFSET ??_C@_05PDJBBECF@pause@
  0096f	e8 00 00 00 00	 call	 _system
  00974	83 c4 04	 add	 esp, 4
$LN7@RunMainScr:

; 507  : 		}
; 508  : 		if (!pyLauncher.RunFile("system.py"))

  00977	68 00 00 00 00	 push	 OFFSET ??_C@_09LEIJOBCA@system?4py@
  0097c	8b cf		 mov	 ecx, edi
  0097e	e8 00 00 00 00	 call	 ?RunFile@CPythonLauncher@@QAE_NPBD@Z ; CPythonLauncher::RunFile
  00983	84 c0		 test	 al, al
  00985	0f 85 a0 00 00
	00		 jne	 $LN8@RunMainScr

; 510  : 			TraceError("RunMain Error");

  0098b	68 00 00 00 00	 push	 OFFSET ??_C@_0O@BEEPKJML@RunMain?5Error@
  00990	e8 00 00 00 00	 call	 ?TraceError@@YAXPBDZZ	; TraceError
; File C:\Program Files\Microsoft Visual Studio\2022\Community\VC\Tools\MSVC\14.44.35207\include\vector

; 2090 :         if (_Myfirst) { // destroy and deallocate old array

  00995	8b b5 8c fe ff
	ff		 mov	 esi, DWORD PTR _stVec$139[ebp]
; File C:\Anka2Project\Anka2Project\Source\Binary\source\UserInterface\UserInterface.cpp

; 510  : 			TraceError("RunMain Error");

  0099b	83 c4 04	 add	 esp, 4
; File C:\Program Files\Microsoft Visual Studio\2022\Community\VC\Tools\MSVC\14.44.35207\include\vector

; 2090 :         if (_Myfirst) { // destroy and deallocate old array

  0099e	85 f6		 test	 esi, esi
  009a0	74 69		 je	 SHORT $LN713@RunMainScr

; 2091 :             _STD _Destroy_range(_Myfirst, _Mylast, _Al);

  009a2	8b bd 90 fe ff
	ff		 mov	 edi, DWORD PTR _stVec$139[ebp+4]
  009a8	3b f7		 cmp	 esi, edi
; File C:\Program Files\Microsoft Visual Studio\2022\Community\VC\Tools\MSVC\14.44.35207\include\xmemory

; 1102 :         for (; _First != _Last; ++_First) {

  009aa	74 18		 je	 SHORT $LN692@RunMainScr
  009ac	0f 1f 40 00	 npad	 4
$LL693@RunMainScr:
; File C:\Program Files\Microsoft Visual Studio\2022\Community\VC\Tools\MSVC\14.44.35207\include\xstring

; 1383 :         _Tidy_deallocate();

  009b0	8b ce		 mov	 ecx, esi
  009b2	e8 00 00 00 00	 call	 ?_Tidy_deallocate@?$basic_string@DU?$char_traits@D@std@@V?$allocator@D@2@@std@@AAEXXZ ; std::basic_string<char,std::char_traits<char>,std::allocator<char> >::_Tidy_deallocate
; File C:\Program Files\Microsoft Visual Studio\2022\Community\VC\Tools\MSVC\14.44.35207\include\xmemory

; 1102 :         for (; _First != _Last; ++_First) {

  009b7	83 c6 18	 add	 esi, 24			; 00000018H
  009ba	3b f7		 cmp	 esi, edi
  009bc	75 f2		 jne	 SHORT $LL693@RunMainScr
  009be	8b b5 8c fe ff
	ff		 mov	 esi, DWORD PTR _stVec$139[ebp]
$LN692@RunMainScr:
; File C:\Program Files\Microsoft Visual Studio\2022\Community\VC\Tools\MSVC\14.44.35207\include\vector

; 2093 :             _Al.deallocate(_Myfirst, static_cast<size_type>(_Myend - _Myfirst));

  009c4	8b 8d 94 fe ff
	ff		 mov	 ecx, DWORD PTR _stVec$139[ebp+8]
  009ca	b8 ab aa aa 2a	 mov	 eax, 715827883		; 2aaaaaabH
  009cf	2b ce		 sub	 ecx, esi
  009d1	f7 e9		 imul	 ecx
  009d3	c1 fa 02	 sar	 edx, 2
  009d6	8b c2		 mov	 eax, edx
  009d8	c1 e8 1f	 shr	 eax, 31			; 0000001fH
  009db	03 c2		 add	 eax, edx
; File C:\Program Files\Microsoft Visual Studio\2022\Community\VC\Tools\MSVC\14.44.35207\include\xmemory

; 985  :         _STD _Deallocate<_New_alignof<_Ty>>(_Ptr, sizeof(_Ty) * _Count);

  009dd	8d 0c 40	 lea	 ecx, DWORD PTR [eax+eax*2]
  009e0	8b c6		 mov	 eax, esi
  009e2	c1 e1 03	 shl	 ecx, 3

; 284  :         if (_Bytes >= _Big_allocation_threshold) {

  009e5	81 f9 00 10 00
	00		 cmp	 ecx, 4096		; 00001000H
  009eb	72 14		 jb	 SHORT $LN721@RunMainScr

; 205  :     const uintptr_t _Ptr_container   = _Ptr_user[-1];

  009ed	8b 70 fc	 mov	 esi, DWORD PTR [eax-4]
  009f0	83 c1 23	 add	 ecx, 35			; 00000023H
  009f3	2b c6		 sub	 eax, esi

; 219  :     _STL_VERIFY(_Back_shift >= _Min_back_shift && _Back_shift <= _Non_user_size, "invalid argument");

  009f5	83 c0 fc	 add	 eax, -4			; fffffffcH
  009f8	83 f8 1f	 cmp	 eax, 31			; 0000001fH
  009fb	0f 87 b6 00 00
	00		 ja	 $LN617@RunMainScr
$LN721@RunMainScr:

; 289  :         ::operator delete(_Ptr, _Bytes);

  00a01	51		 push	 ecx
  00a02	56		 push	 esi
$LN914@RunMainScr:
; File C:\Anka2Project\Anka2Project\Source\Binary\source\UserInterface\UserInterface.cpp

; 511  : 			return false;

  00a03	e8 00 00 00 00	 call	 ??3@YAXPAXI@Z		; operator delete
  00a08	83 c4 08	 add	 esp, 8
$LN713@RunMainScr:
  00a0b	32 c0		 xor	 al, al
$LN1@RunMainScr:

; 517  : }

  00a0d	8b 4d f4	 mov	 ecx, DWORD PTR __$EHRec$[ebp]
  00a10	64 89 0d 00 00
	00 00		 mov	 DWORD PTR fs:0, ecx
  00a17	59		 pop	 ecx
  00a18	5f		 pop	 edi
  00a19	5e		 pop	 esi
  00a1a	8b 4d ec	 mov	 ecx, DWORD PTR __$ArrayPad$[ebp]
  00a1d	33 cd		 xor	 ecx, ebp
  00a1f	e8 00 00 00 00	 call	 @__security_check_cookie@4
  00a24	8b e5		 mov	 esp, ebp
  00a26	5d		 pop	 ebp
  00a27	8b e3		 mov	 esp, ebx
  00a29	5b		 pop	 ebx
  00a2a	c3		 ret	 0
$LN8@RunMainScr:
; File C:\Program Files\Microsoft Visual Studio\2022\Community\VC\Tools\MSVC\14.44.35207\include\vector

; 2090 :         if (_Myfirst) { // destroy and deallocate old array

  00a2b	8b b5 8c fe ff
	ff		 mov	 esi, DWORD PTR _stVec$139[ebp]
  00a31	85 f6		 test	 esi, esi
  00a33	74 62		 je	 SHORT $LN610@RunMainScr

; 2091 :             _STD _Destroy_range(_Myfirst, _Mylast, _Al);

  00a35	8b bd 90 fe ff
	ff		 mov	 edi, DWORD PTR _stVec$139[ebp+4]
  00a3b	3b f7		 cmp	 esi, edi
; File C:\Program Files\Microsoft Visual Studio\2022\Community\VC\Tools\MSVC\14.44.35207\include\xmemory

; 1102 :         for (; _First != _Last; ++_First) {

  00a3d	74 15		 je	 SHORT $LN589@RunMainScr
  00a3f	90		 npad	 1
$LL590@RunMainScr:
; File C:\Program Files\Microsoft Visual Studio\2022\Community\VC\Tools\MSVC\14.44.35207\include\xstring

; 1383 :         _Tidy_deallocate();

  00a40	8b ce		 mov	 ecx, esi
  00a42	e8 00 00 00 00	 call	 ?_Tidy_deallocate@?$basic_string@DU?$char_traits@D@std@@V?$allocator@D@2@@std@@AAEXXZ ; std::basic_string<char,std::char_traits<char>,std::allocator<char> >::_Tidy_deallocate
; File C:\Program Files\Microsoft Visual Studio\2022\Community\VC\Tools\MSVC\14.44.35207\include\xmemory

; 1102 :         for (; _First != _Last; ++_First) {

  00a47	83 c6 18	 add	 esi, 24			; 00000018H
  00a4a	3b f7		 cmp	 esi, edi
  00a4c	75 f2		 jne	 SHORT $LL590@RunMainScr
  00a4e	8b b5 8c fe ff
	ff		 mov	 esi, DWORD PTR _stVec$139[ebp]
$LN589@RunMainScr:
; File C:\Program Files\Microsoft Visual Studio\2022\Community\VC\Tools\MSVC\14.44.35207\include\vector

; 2093 :             _Al.deallocate(_Myfirst, static_cast<size_type>(_Myend - _Myfirst));

  00a54	8b 8d 94 fe ff
	ff		 mov	 ecx, DWORD PTR _stVec$139[ebp+8]
  00a5a	b8 ab aa aa 2a	 mov	 eax, 715827883		; 2aaaaaabH
  00a5f	2b ce		 sub	 ecx, esi
  00a61	f7 e9		 imul	 ecx
  00a63	c1 fa 02	 sar	 edx, 2
  00a66	8b c2		 mov	 eax, edx
  00a68	c1 e8 1f	 shr	 eax, 31			; 0000001fH
  00a6b	03 c2		 add	 eax, edx
; File C:\Program Files\Microsoft Visual Studio\2022\Community\VC\Tools\MSVC\14.44.35207\include\xmemory

; 985  :         _STD _Deallocate<_New_alignof<_Ty>>(_Ptr, sizeof(_Ty) * _Count);

  00a6d	8d 0c 40	 lea	 ecx, DWORD PTR [eax+eax*2]
  00a70	8b c6		 mov	 eax, esi
  00a72	c1 e1 03	 shl	 ecx, 3

; 284  :         if (_Bytes >= _Big_allocation_threshold) {

  00a75	81 f9 00 10 00
	00		 cmp	 ecx, 4096		; 00001000H
  00a7b	72 10		 jb	 SHORT $LN618@RunMainScr

; 205  :     const uintptr_t _Ptr_container   = _Ptr_user[-1];

  00a7d	8b 70 fc	 mov	 esi, DWORD PTR [eax-4]
  00a80	83 c1 23	 add	 ecx, 35			; 00000023H
  00a83	2b c6		 sub	 eax, esi

; 219  :     _STL_VERIFY(_Back_shift >= _Min_back_shift && _Back_shift <= _Non_user_size, "invalid argument");

  00a85	83 c0 fc	 add	 eax, -4			; fffffffcH
  00a88	83 f8 1f	 cmp	 eax, 31			; 0000001fH
  00a8b	77 2a		 ja	 SHORT $LN617@RunMainScr
$LN618@RunMainScr:

; 289  :         ::operator delete(_Ptr, _Bytes);

  00a8d	51		 push	 ecx
  00a8e	56		 push	 esi
  00a8f	e8 00 00 00 00	 call	 ??3@YAXPAXI@Z		; operator delete
  00a94	83 c4 08	 add	 esp, 8
$LN610@RunMainScr:
; File C:\Anka2Project\Anka2Project\Source\Binary\source\UserInterface\UserInterface.cpp

; 515  : 	NANOEND

  00a97	eb		 DB	 -21			; ffffffebH
  00a98	03		 DB	 3
  00a99	d6		 DB	 -42			; ffffffd6H
  00a9a	d7		 DB	 -41			; ffffffd7H
  00a9b	00		 DB	 0
  00a9c	b0 01		 mov	 al, 1
  00a9e	e9 6a ff ff ff	 jmp	 $LN1@RunMainScr
$LN901@RunMainScr:
; File C:\Program Files\Microsoft Visual Studio\2022\Community\VC\Tools\MSVC\14.44.35207\include\xstring

; 3030 :             _Xlen_string(); // result too long

  00aa3	e8 00 00 00 00	 call	 ?_Xlen_string@std@@YAXXZ ; std::_Xlen_string
$LN537@RunMainScr:
; File C:\Program Files\Microsoft Visual Studio\2022\Community\VC\Tools\MSVC\14.44.35207\include\xmemory

; 219  :     _STL_VERIFY(_Back_shift >= _Min_back_shift && _Back_shift <= _Non_user_size, "invalid argument");

  00aa8	6a 00		 push	 0
  00aaa	6a 00		 push	 0
  00aac	6a 00		 push	 0
  00aae	6a 00		 push	 0
  00ab0	6a 00		 push	 0
  00ab2	e8 00 00 00 00	 call	 __invoke_watson
$LN617@RunMainScr:
  00ab7	6a 00		 push	 0
  00ab9	6a 00		 push	 0
  00abb	6a 00		 push	 0
  00abd	6a 00		 push	 0
  00abf	6a 00		 push	 0
  00ac1	e8 00 00 00 00	 call	 __invoke_watson
$LN907@RunMainScr:
  00ac6	cc		 int	 3
_TEXT	ENDS
;	COMDAT text$x
text$x	SEGMENT
__unwindfunclet$?RunMainScript@@YA_NAAVCPythonLauncher@@PBD@Z$0:
  00000	8d 8d c8 fe ff
	ff		 lea	 ecx, DWORD PTR _stRegisterCmdLine$141[ebp]
  00006	e9 00 00 00 00	 jmp	 ??1?$basic_string@DU?$char_traits@D@std@@V?$allocator@D@2@@std@@QAE@XZ ; std::basic_string<char,std::char_traits<char>,std::allocator<char> >::~basic_string<char,std::char_traits<char>,std::allocator<char> >
__unwindfunclet$?RunMainScript@@YA_NAAVCPythonLauncher@@PBD@Z$1:
  0000b	8d 8d b0 fe ff
	ff		 lea	 ecx, DWORD PTR _stCmdLine$140[ebp]
  00011	e9 00 00 00 00	 jmp	 ??1?$basic_string@DU?$char_traits@D@std@@V?$allocator@D@2@@std@@QAE@XZ ; std::basic_string<char,std::char_traits<char>,std::allocator<char> >::~basic_string<char,std::char_traits<char>,std::allocator<char> >
__unwindfunclet$?RunMainScript@@YA_NAAVCPythonLauncher@@PBD@Z$2:
  00016	8d 8d 8c fe ff
	ff		 lea	 ecx, DWORD PTR _stVec$138[ebp]
  0001c	e9 00 00 00 00	 jmp	 ??1?$vector@V?$basic_string@DU?$char_traits@D@std@@V?$allocator@D@2@@std@@V?$allocator@V?$basic_string@DU?$char_traits@D@std@@V?$allocator@D@2@@std@@@2@@std@@QAE@XZ ; std::vector<std::basic_string<char,std::char_traits<char>,std::allocator<char> >,std::allocator<std::basic_string<char,std::char_traits<char>,std::allocator<char> > > >::~vector<std::basic_string<char,std::char_traits<char>,std::allocator<char> >,std::allocator<std::basic_string<char,std::char_traits<char>,std::allocator<char> > > >
__unwindfunclet$?RunMainScript@@YA_NAAVCPythonLauncher@@PBD@Z$3:
  00021	8d 8d 98 fe ff
	ff		 lea	 ecx, DWORD PTR $T26[ebp]
  00027	e9 00 00 00 00	 jmp	 ??1?$basic_string@DU?$char_traits@D@std@@V?$allocator@D@2@@std@@QAE@XZ ; std::basic_string<char,std::char_traits<char>,std::allocator<char> >::~basic_string<char,std::char_traits<char>,std::allocator<char> >
__unwindfunclet$?RunMainScript@@YA_NAAVCPythonLauncher@@PBD@Z$4:
  0002c	8d 8d 98 fe ff
	ff		 lea	 ecx, DWORD PTR $T40[ebp]
  00032	e9 00 00 00 00	 jmp	 ??1?$basic_string@DU?$char_traits@D@std@@V?$allocator@D@2@@std@@QAE@XZ ; std::basic_string<char,std::char_traits<char>,std::allocator<char> >::~basic_string<char,std::char_traits<char>,std::allocator<char> >
__unwindfunclet$?RunMainScript@@YA_NAAVCPythonLauncher@@PBD@Z$5:
  00037	8d 8d 8c fe ff
	ff		 lea	 ecx, DWORD PTR _stVec$139[ebp]
  0003d	e9 00 00 00 00	 jmp	 ??1?$vector@V?$basic_string@DU?$char_traits@D@std@@V?$allocator@D@2@@std@@V?$allocator@V?$basic_string@DU?$char_traits@D@std@@V?$allocator@D@2@@std@@@2@@std@@QAE@XZ ; std::vector<std::basic_string<char,std::char_traits<char>,std::allocator<char> >,std::allocator<std::basic_string<char,std::char_traits<char>,std::allocator<char> > > >::~vector<std::basic_string<char,std::char_traits<char>,std::allocator<char> >,std::allocator<std::basic_string<char,std::char_traits<char>,std::allocator<char> > > >
  00042	cc		 int	 3
  00043	cc		 int	 3
  00044	cc		 int	 3
  00045	cc		 int	 3
  00046	cc		 int	 3
__ehhandler$?RunMainScript@@YA_NAAVCPythonLauncher@@PBD@Z:
  00047	90		 npad	 1
  00048	90		 npad	 1
  00049	8b 54 24 08	 mov	 edx, DWORD PTR [esp+8]
  0004d	8d 42 0c	 lea	 eax, DWORD PTR [edx+12]
  00050	8b 8a 74 fe ff
	ff		 mov	 ecx, DWORD PTR [edx-396]
  00056	33 c8		 xor	 ecx, eax
  00058	e8 00 00 00 00	 call	 @__security_check_cookie@4
  0005d	8b 4a f8	 mov	 ecx, DWORD PTR [edx-8]
  00060	33 c8		 xor	 ecx, eax
  00062	e8 00 00 00 00	 call	 @__security_check_cookie@4
  00067	b8 00 00 00 00	 mov	 eax, OFFSET __ehfuncinfo$?RunMainScript@@YA_NAAVCPythonLauncher@@PBD@Z
  0006c	e9 00 00 00 00	 jmp	 ___CxxFrameHandler3
text$x	ENDS
?RunMainScript@@YA_NAAVCPythonLauncher@@PBD@Z ENDP	; RunMainScript
; Function compile flags: /Ogtp
; File C:\Anka2Project\Anka2Project\Source\Binary\source\UserInterface\UserInterface.cpp
; File C:\Program Files (x86)\Windows Kits\10\Include\10.0.26100.0\ucrt\time.h
; File C:\Anka2Project\Anka2Project\Source\Binary\source\UserInterface\UserInterface.cpp
; File C:\Program Files\Microsoft Visual Studio\2022\Community\VC\Tools\MSVC\14.44.35207\include\__msvc_string_view.hpp
; File C:\Program Files\Microsoft Visual Studio\2022\Community\VC\Tools\MSVC\14.44.35207\include\xstring
; File C:\Program Files\Microsoft Visual Studio\2022\Community\VC\Tools\MSVC\14.44.35207\include\__msvc_string_view.hpp
; File C:\Program Files\Microsoft Visual Studio\2022\Community\VC\Tools\MSVC\14.44.35207\include\xstring
; File C:\Program Files\Microsoft Visual Studio\2022\Community\VC\Tools\MSVC\14.44.35207\include\__msvc_string_view.hpp
; File C:\Program Files\Microsoft Visual Studio\2022\Community\VC\Tools\MSVC\14.44.35207\include\xstring
; File C:\Anka2Project\Anka2Project\Source\Binary\source\UserInterface\UserInterface.cpp
; File C:\Program Files\Microsoft Visual Studio\2022\Community\VC\Tools\MSVC\14.44.35207\include\xstring
; File C:\Program Files\Microsoft Visual Studio\2022\Community\VC\Tools\MSVC\14.44.35207\include\xmemory
; File C:\Program Files\Microsoft Visual Studio\2022\Community\VC\Tools\MSVC\14.44.35207\include\xstring
; File C:\Program Files\Microsoft Visual Studio\2022\Community\VC\Tools\MSVC\14.44.35207\include\xmemory
; File C:\Anka2Project\Anka2Project\Source\Binary\source\UserInterface\UserInterface.cpp
; File C:\Program Files\Microsoft Visual Studio\2022\Community\VC\Tools\MSVC\14.44.35207\include\xmemory
; File C:\Anka2Project\Anka2Project\Source\Binary\source\UserInterface\UserInterface.cpp
;	COMDAT ?Main@@YA_NPAUHINSTANCE__@@PAD@Z
_TEXT	SEGMENT
$T22 = -92						; size = 4
_hInstance$GSCopy$1$ = -88				; size = 4
_ret$1$ = -81						; size = 1
_pyExceptionSender$26 = -80				; size = 36
$T2 = -44						; size = 24
_pyLauncher$27 = -32					; size = 12
__$ArrayPad$ = -20					; size = 4
__$EHRec$ = -12						; size = 12
?Main@@YA_NPAUHINSTANCE__@@PAD@Z PROC			; Main, COMDAT
; _hInstance$ = ecx
; _lpCmdLine$ = edx

; 520  : {

  00000	53		 push	 ebx
  00001	8b dc		 mov	 ebx, esp
  00003	83 ec 08	 sub	 esp, 8
  00006	83 e4 f8	 and	 esp, -8			; fffffff8H
  00009	83 c4 04	 add	 esp, 4
  0000c	55		 push	 ebp
  0000d	8b 6b 04	 mov	 ebp, DWORD PTR [ebx+4]
  00010	89 6c 24 04	 mov	 DWORD PTR [esp+4], ebp
  00014	8b ec		 mov	 ebp, esp
  00016	6a ff		 push	 -1
  00018	68 00 00 00 00	 push	 __ehhandler$?Main@@YA_NPAUHINSTANCE__@@PAD@Z
  0001d	64 a1 00 00 00
	00		 mov	 eax, DWORD PTR fs:0
  00023	50		 push	 eax
  00024	53		 push	 ebx
  00025	83 ec 50	 sub	 esp, 80			; 00000050H
  00028	a1 00 00 00 00	 mov	 eax, DWORD PTR ___security_cookie
  0002d	33 c5		 xor	 eax, ebp
  0002f	89 45 ec	 mov	 DWORD PTR __$ArrayPad$[ebp], eax
  00032	56		 push	 esi
  00033	57		 push	 edi
  00034	50		 push	 eax
  00035	8d 45 f4	 lea	 eax, DWORD PTR __$EHRec$[ebp]
  00038	64 a3 00 00 00
	00		 mov	 DWORD PTR fs:0, eax
  0003e	8b fa		 mov	 edi, edx
  00040	89 4d a8	 mov	 DWORD PTR _hInstance$GSCopy$1$[ebp], ecx
; File C:\Program Files (x86)\Windows Kits\10\Include\10.0.26100.0\ucrt\time.h

; 428  :             return _time32(_Time);

  00043	6a 00		 push	 0
  00045	e8 00 00 00 00	 call	 __time32
  0004a	83 c4 04	 add	 esp, 4
  0004d	8b f0		 mov	 esi, eax
; File C:\Anka2Project\Anka2Project\Source\Binary\source\UserInterface\UserInterface.cpp

; 521  : 	DWORD dwRandSeed = time(nullptr)+DWORD(GetCurrentProcess());

  0004f	ff 15 00 00 00
	00		 call	 DWORD PTR __imp__GetCurrentProcess@0
  00055	03 c6		 add	 eax, esi

; 522  : 	srandom(dwRandSeed);

  00057	50		 push	 eax
  00058	e8 00 00 00 00	 call	 ?srandom@@YAXK@Z	; srandom
  0005d	83 c4 04	 add	 esp, 4

; 523  : 	srand(random());

  00060	e8 00 00 00 00	 call	 ?random@@YAKXZ		; random
  00065	50		 push	 eax
  00066	e8 00 00 00 00	 call	 _srand
  0006b	83 c4 04	 add	 esp, 4

; 524  : 	SetLogLevel(1);

  0006e	6a 01		 push	 1
  00070	e8 00 00 00 00	 call	 ?SetLogLevel@@YAXI@Z	; SetLogLevel
  00075	83 c4 04	 add	 esp, 4

; 525  : 
; 526  : 	ilInit();

  00078	ff 15 00 00 00
	00		 call	 DWORD PTR __imp__ilInit@0

; 527  : 
; 528  : 	if (!Setup(lpCmdLine))

  0007e	e8 00 00 00 00	 call	 ?Setup@@YAHPAD@Z	; Setup
  00083	85 c0		 test	 eax, eax
  00085	0f 84 eb 01 00
	00		 je	 $LN142@Main

; 529  : 		return false;
; 530  : 
; 531  : #ifdef _DEBUG
; 532  : 	OpenConsoleWindow();
; 533  : 	OpenLogFile(true);
; 534  : #else
; 535  : 	OpenLogFile(false);

  0008b	6a 00		 push	 0
  0008d	e8 00 00 00 00	 call	 ?OpenLogFile@@YAX_N@Z	; OpenLogFile

; 536  : #endif
; 537  : 
; 538  : 	static CLZO lzo;

  00092	64 a1 00 00 00
	00		 mov	 eax, DWORD PTR fs:__tls_array
  00098	83 c4 04	 add	 esp, 4
  0009b	8b 08		 mov	 ecx, DWORD PTR [eax]
  0009d	a1 00 00 00 00	 mov	 eax, DWORD PTR ?$TSS0@?1??Main@@YA_NPAUHINSTANCE__@@PAD@Z@4HA
  000a2	3b 81 00 00 00
	00		 cmp	 eax, DWORD PTR __Init_thread_epoch[ecx]
  000a8	7e 41		 jle	 SHORT $LN137@Main
  000aa	68 00 00 00 00	 push	 OFFSET ?$TSS0@?1??Main@@YA_NPAUHINSTANCE__@@PAD@Z@4HA
  000af	e8 00 00 00 00	 call	 __Init_thread_header
  000b4	83 c4 04	 add	 esp, 4
  000b7	83 3d 00 00 00
	00 ff		 cmp	 DWORD PTR ?$TSS0@?1??Main@@YA_NPAUHINSTANCE__@@PAD@Z@4HA, -1
  000be	75 2b		 jne	 SHORT $LN137@Main
  000c0	b9 00 00 00 00	 mov	 ecx, OFFSET ?lzo@?1??Main@@YA_NPAUHINSTANCE__@@PAD@Z@4VCLZO@@A
  000c5	c7 45 fc 00 00
	00 00		 mov	 DWORD PTR __$EHRec$[ebp+8], 0
  000cc	e8 00 00 00 00	 call	 ??0CLZO@@QAE@XZ		; CLZO::CLZO
  000d1	68 00 00 00 00	 push	 OFFSET ??__Flzo@?1??Main@@YA_NPAUHINSTANCE__@@PAD@Z@YAXXZ ; `Main'::`2'::`dynamic atexit destructor for 'lzo''
  000d6	e8 00 00 00 00	 call	 _atexit
  000db	83 c4 04	 add	 esp, 4
  000de	68 00 00 00 00	 push	 OFFSET ?$TSS0@?1??Main@@YA_NPAUHINSTANCE__@@PAD@Z@4HA
  000e3	e8 00 00 00 00	 call	 __Init_thread_footer
  000e8	83 c4 04	 add	 esp, 4
$LN137@Main:

; 539  : 	static CEterPackManager EterPackManager;

  000eb	64 a1 00 00 00
	00		 mov	 eax, DWORD PTR fs:__tls_array
  000f1	8b 08		 mov	 ecx, DWORD PTR [eax]
  000f3	a1 00 00 00 00	 mov	 eax, DWORD PTR ?$TSS1@?1??Main@@YA_NPAUHINSTANCE__@@PAD@Z@4HA
  000f8	3b 81 00 00 00
	00		 cmp	 eax, DWORD PTR __Init_thread_epoch[ecx]
  000fe	7e 41		 jle	 SHORT $LN138@Main
  00100	68 00 00 00 00	 push	 OFFSET ?$TSS1@?1??Main@@YA_NPAUHINSTANCE__@@PAD@Z@4HA
  00105	e8 00 00 00 00	 call	 __Init_thread_header
  0010a	83 c4 04	 add	 esp, 4
  0010d	83 3d 00 00 00
	00 ff		 cmp	 DWORD PTR ?$TSS1@?1??Main@@YA_NPAUHINSTANCE__@@PAD@Z@4HA, -1
  00114	75 2b		 jne	 SHORT $LN138@Main
  00116	b9 00 00 00 00	 mov	 ecx, OFFSET ?EterPackManager@?1??Main@@YA_NPAUHINSTANCE__@@PAD@Z@4VCEterPackManager@@A
  0011b	c7 45 fc 01 00
	00 00		 mov	 DWORD PTR __$EHRec$[ebp+8], 1
  00122	e8 00 00 00 00	 call	 ??0CEterPackManager@@QAE@XZ ; CEterPackManager::CEterPackManager
  00127	68 00 00 00 00	 push	 OFFSET ??__FEterPackManager@?1??Main@@YA_NPAUHINSTANCE__@@PAD@Z@YAXXZ ; `Main'::`2'::`dynamic atexit destructor for 'EterPackManager''
  0012c	e8 00 00 00 00	 call	 _atexit
  00131	83 c4 04	 add	 esp, 4
  00134	68 00 00 00 00	 push	 OFFSET ?$TSS1@?1??Main@@YA_NPAUHINSTANCE__@@PAD@Z@4HA
  00139	e8 00 00 00 00	 call	 __Init_thread_footer
  0013e	83 c4 04	 add	 esp, 4
$LN138@Main:

; 540  : #ifdef ENABLE_CLIENT_PERFORMANCE
; 541  : 	static CPythonPlayerSettingsModule PlayerSettings;

  00141	64 a1 00 00 00
	00		 mov	 eax, DWORD PTR fs:__tls_array
  00147	8b 08		 mov	 ecx, DWORD PTR [eax]
  00149	a1 00 00 00 00	 mov	 eax, DWORD PTR ?$TSS2@?1??Main@@YA_NPAUHINSTANCE__@@PAD@Z@4HA
  0014e	3b 81 00 00 00
	00		 cmp	 eax, DWORD PTR __Init_thread_epoch[ecx]
  00154	7e 3c		 jle	 SHORT $LN139@Main
  00156	68 00 00 00 00	 push	 OFFSET ?$TSS2@?1??Main@@YA_NPAUHINSTANCE__@@PAD@Z@4HA
  0015b	e8 00 00 00 00	 call	 __Init_thread_header
  00160	83 c4 04	 add	 esp, 4
  00163	83 3d 00 00 00
	00 ff		 cmp	 DWORD PTR ?$TSS2@?1??Main@@YA_NPAUHINSTANCE__@@PAD@Z@4HA, -1
  0016a	75 26		 jne	 SHORT $LN139@Main
  0016c	c7 45 fc 02 00
	00 00		 mov	 DWORD PTR __$EHRec$[ebp+8], 2
  00173	e8 00 00 00 00	 call	 ??0CPythonPlayerSettingsModule@@QAE@XZ ; CPythonPlayerSettingsModule::CPythonPlayerSettingsModule
  00178	68 00 00 00 00	 push	 OFFSET ??__FPlayerSettings@?1??Main@@YA_NPAUHINSTANCE__@@PAD@Z@YAXXZ ; `Main'::`2'::`dynamic atexit destructor for 'PlayerSettings''
  0017d	e8 00 00 00 00	 call	 _atexit
  00182	83 c4 04	 add	 esp, 4
  00185	68 00 00 00 00	 push	 OFFSET ?$TSS2@?1??Main@@YA_NPAUHINSTANCE__@@PAD@Z@4HA
  0018a	e8 00 00 00 00	 call	 __Init_thread_footer
  0018f	83 c4 04	 add	 esp, 4
$LN139@Main:

; 542  : #endif
; 543  : 
; 544  : #ifdef ENABLE_CONFIG_MODULE
; 545  : 	static CPythonConfig m_pyConfig;

  00192	64 a1 00 00 00
	00		 mov	 eax, DWORD PTR fs:__tls_array
  00198	8b 08		 mov	 ecx, DWORD PTR [eax]
  0019a	a1 00 00 00 00	 mov	 eax, DWORD PTR ?$TSS3@?1??Main@@YA_NPAUHINSTANCE__@@PAD@Z@4HA
  0019f	3b 81 00 00 00
	00		 cmp	 eax, DWORD PTR __Init_thread_epoch[ecx]
  001a5	7e 35		 jle	 SHORT $LN5@Main
  001a7	68 00 00 00 00	 push	 OFFSET ?$TSS3@?1??Main@@YA_NPAUHINSTANCE__@@PAD@Z@4HA
  001ac	e8 00 00 00 00	 call	 __Init_thread_header
  001b1	83 c4 04	 add	 esp, 4
  001b4	83 3d 00 00 00
	00 ff		 cmp	 DWORD PTR ?$TSS3@?1??Main@@YA_NPAUHINSTANCE__@@PAD@Z@4HA, -1
  001bb	75 1f		 jne	 SHORT $LN5@Main
  001bd	e8 00 00 00 00	 call	 ??0CPythonConfig@@QAE@XZ ; CPythonConfig::CPythonConfig
  001c2	68 00 00 00 00	 push	 OFFSET ??__Fm_pyConfig@?1??Main@@YA_NPAUHINSTANCE__@@PAD@Z@YAXXZ ; `Main'::`2'::`dynamic atexit destructor for 'm_pyConfig''
  001c7	e8 00 00 00 00	 call	 _atexit
  001cc	83 c4 04	 add	 esp, 4
  001cf	68 00 00 00 00	 push	 OFFSET ?$TSS3@?1??Main@@YA_NPAUHINSTANCE__@@PAD@Z@4HA
  001d4	e8 00 00 00 00	 call	 __Init_thread_footer
  001d9	83 c4 04	 add	 esp, 4
$LN5@Main:
; File C:\Program Files\Microsoft Visual Studio\2022\Community\VC\Tools\MSVC\14.44.35207\include\__msvc_string_view.hpp

; 121  :         _CSTD memcpy(_First1, _First2, _Count * sizeof(_Elem));

  001dc	66 a1 08 00 00
	00		 mov	 ax, WORD PTR ??_C@_0L@MFNMKHHD@config?4cfg@+8
  001e2	0f 57 c0	 xorps	 xmm0, xmm0
; File C:\Program Files\Microsoft Visual Studio\2022\Community\VC\Tools\MSVC\14.44.35207\include\xstring

; 493  :         _CONSTEXPR20 _Bxty() noexcept : _Buf() {} // user-provided, for fancy pointers

  001e5	0f 11 45 d4	 movups	 XMMWORD PTR $T2[ebp], xmm0

; 890  :             _My_data._Mysize = _Count;

  001e9	c7 45 e4 0a 00
	00 00		 mov	 DWORD PTR $T2[ebp+16], 10 ; 0000000aH
; File C:\Program Files\Microsoft Visual Studio\2022\Community\VC\Tools\MSVC\14.44.35207\include\__msvc_string_view.hpp

; 121  :         _CSTD memcpy(_First1, _First2, _Count * sizeof(_Elem));

  001f0	f3 0f 7e 05 00
	00 00 00	 movq	 xmm0, QWORD PTR ??_C@_0L@MFNMKHHD@config?4cfg@
; File C:\Program Files\Microsoft Visual Studio\2022\Community\VC\Tools\MSVC\14.44.35207\include\xstring

; 891  :             _My_data._Myres  = _Small_string_capacity;

  001f8	c7 45 e8 0f 00
	00 00		 mov	 DWORD PTR $T2[ebp+20], 15 ; 0000000fH
; File C:\Program Files\Microsoft Visual Studio\2022\Community\VC\Tools\MSVC\14.44.35207\include\__msvc_string_view.hpp

; 121  :         _CSTD memcpy(_First1, _First2, _Count * sizeof(_Elem));

  001ff	66 0f d6 45 d4	 movq	 QWORD PTR $T2[ebp], xmm0
  00204	66 89 45 dc	 mov	 WORD PTR $T2[ebp+8], ax
; File C:\Program Files\Microsoft Visual Studio\2022\Community\VC\Tools\MSVC\14.44.35207\include\xstring

; 898  :                 _Traits::assign(_My_data._Bx._Buf[_Count], _Elem());

  00208	c6 45 de 00	 mov	 BYTE PTR $T2[ebp+10], 0
; File C:\Anka2Project\Anka2Project\Source\Binary\source\UserInterface\UserInterface.cpp

; 546  : 	m_pyConfig.Initialize("config.cfg");

  0020c	8d 45 d4	 lea	 eax, DWORD PTR $T2[ebp]
  0020f	c7 45 fc 03 00
	00 00		 mov	 DWORD PTR __$EHRec$[ebp+8], 3
  00216	50		 push	 eax
  00217	b9 00 00 00 00	 mov	 ecx, OFFSET ?m_pyConfig@?1??Main@@YA_NPAUHINSTANCE__@@PAD@Z@4VCPythonConfig@@A
  0021c	e8 00 00 00 00	 call	 ?Initialize@CPythonConfig@@QAEXABV?$basic_string@DU?$char_traits@D@std@@V?$allocator@D@2@@std@@@Z ; CPythonConfig::Initialize
  00221	c7 45 fc ff ff
	ff ff		 mov	 DWORD PTR __$EHRec$[ebp+8], -1
; File C:\Program Files\Microsoft Visual Studio\2022\Community\VC\Tools\MSVC\14.44.35207\include\xstring

; 453  :         return _Myres > _Small_string_capacity;

  00228	8b 4d e8	 mov	 ecx, DWORD PTR $T2[ebp+20]
  0022b	83 f9 0f	 cmp	 ecx, 15			; 0000000fH

; 3083 :         if (_My_data._Large_mode_engaged()) {

  0022e	76 2c		 jbe	 SHORT $LN110@Main
; File C:\Program Files\Microsoft Visual Studio\2022\Community\VC\Tools\MSVC\14.44.35207\include\xmemory

; 985  :         _STD _Deallocate<_New_alignof<_Ty>>(_Ptr, sizeof(_Ty) * _Count);

  00230	8b 55 d4	 mov	 edx, DWORD PTR $T2[ebp]
; File C:\Program Files\Microsoft Visual Studio\2022\Community\VC\Tools\MSVC\14.44.35207\include\xstring

; 852  :         _Al.deallocate(_Old_ptr, _Capacity + 1); // +1 for null terminator

  00233	41		 inc	 ecx
; File C:\Program Files\Microsoft Visual Studio\2022\Community\VC\Tools\MSVC\14.44.35207\include\xmemory

; 985  :         _STD _Deallocate<_New_alignof<_Ty>>(_Ptr, sizeof(_Ty) * _Count);

  00234	8b c2		 mov	 eax, edx

; 284  :         if (_Bytes >= _Big_allocation_threshold) {

  00236	81 f9 00 10 00
	00		 cmp	 ecx, 4096		; 00001000H
  0023c	72 14		 jb	 SHORT $LN118@Main

; 205  :     const uintptr_t _Ptr_container   = _Ptr_user[-1];

  0023e	8b 50 fc	 mov	 edx, DWORD PTR [eax-4]
  00241	83 c1 23	 add	 ecx, 35			; 00000023H
  00244	2b c2		 sub	 eax, edx

; 219  :     _STL_VERIFY(_Back_shift >= _Min_back_shift && _Back_shift <= _Non_user_size, "invalid argument");

  00246	83 c0 fc	 add	 eax, -4			; fffffffcH
  00249	83 f8 1f	 cmp	 eax, 31			; 0000001fH
  0024c	0f 87 07 01 00
	00		 ja	 $LN144@Main
$LN118@Main:

; 289  :         ::operator delete(_Ptr, _Bytes);

  00252	51		 push	 ecx
  00253	52		 push	 edx
  00254	e8 00 00 00 00	 call	 ??3@YAXPAXI@Z		; operator delete
  00259	83 c4 08	 add	 esp, 8
$LN110@Main:
; File C:\Anka2Project\Anka2Project\Source\Binary\source\UserInterface\UserInterface.cpp

; 549  : 	if (!PackInitialize("pack"))

  0025c	e8 00 00 00 00	 call	 ?PackInitialize@@YA_NPBD@Z ; PackInitialize
  00261	84 c0		 test	 al, al
  00263	75 18		 jne	 SHORT $LN7@Main

; 550  : 	{
; 551  : 		LogBox("Pack Initialization failed. Check log.txt file..");

  00265	6a 00		 push	 0
  00267	6a 00		 push	 0
  00269	68 00 00 00 00	 push	 OFFSET ??_C@_0DB@BGMLOPGB@Pack?5Initialization?5failed?4?5Che@
  0026e	e8 00 00 00 00	 call	 ?LogBox@@YAXPBD0PAUHWND__@@@Z ; LogBox
  00273	83 c4 0c	 add	 esp, 12			; 0000000cH
$LN142@Main:

; 580  : }

  00276	32 c0		 xor	 al, al
  00278	e9 be 00 00 00	 jmp	 $LN1@Main
$LN7@Main:

; 552  : 		return false;
; 553  : 	}
; 554  : 
; 555  : 	CPythonApplication* app = new CPythonApplication;

  0027d	68 10 d8 03 00	 push	 251920			; 0003d810H
  00282	e8 00 00 00 00	 call	 ??2@YAPAXI@Z		; operator new
  00287	83 c4 04	 add	 esp, 4
  0028a	89 45 a4	 mov	 DWORD PTR $T22[ebp], eax
  0028d	8b c8		 mov	 ecx, eax
  0028f	c7 45 fc 04 00
	00 00		 mov	 DWORD PTR __$EHRec$[ebp+8], 4
  00296	e8 00 00 00 00	 call	 ??0CPythonApplication@@QAE@XZ ; CPythonApplication::CPythonApplication

; 556  : 
; 557  : 	app->Initialize(hInstance);

  0029b	ff 75 a8	 push	 DWORD PTR _hInstance$GSCopy$1$[ebp]
  0029e	8b f0		 mov	 esi, eax
  002a0	c7 45 fc ff ff
	ff ff		 mov	 DWORD PTR __$EHRec$[ebp+8], -1
  002a7	8b ce		 mov	 ecx, esi
  002a9	e8 00 00 00 00	 call	 ?Initialize@CMSApplication@@QAEXPAUHINSTANCE__@@@Z ; CMSApplication::Initialize

; 558  : 
; 559  : 	bool ret=false;
; 560  : 	{
; 561  : 		CPythonLauncher pyLauncher;

  002ae	8d 4d e0	 lea	 ecx, DWORD PTR _pyLauncher$27[ebp]
  002b1	c6 45 af 00	 mov	 BYTE PTR _ret$1$[ebp], 0
  002b5	e8 00 00 00 00	 call	 ??0CPythonLauncher@@QAE@XZ ; CPythonLauncher::CPythonLauncher

; 562  : 		CPythonExceptionSender pyExceptionSender;

  002ba	8d 4d b0	 lea	 ecx, DWORD PTR _pyExceptionSender$26[ebp]
  002bd	c7 45 fc 05 00
	00 00		 mov	 DWORD PTR __$EHRec$[ebp+8], 5
  002c4	e8 00 00 00 00	 call	 ??0CPythonExceptionSender@@QAE@XZ ; CPythonExceptionSender::CPythonExceptionSender

; 563  : 		SetExceptionSender(&pyExceptionSender);

  002c9	8d 45 b0	 lea	 eax, DWORD PTR _pyExceptionSender$26[ebp]
  002cc	c6 45 fc 06	 mov	 BYTE PTR __$EHRec$[ebp+8], 6
  002d0	50		 push	 eax
  002d1	e8 00 00 00 00	 call	 ?SetExceptionSender@@YAXPAVIPythonExceptionSender@@@Z ; SetExceptionSender
  002d6	83 c4 04	 add	 esp, 4

; 564  : 
; 565  : 		if (pyLauncher.Create())

  002d9	8d 4d e0	 lea	 ecx, DWORD PTR _pyLauncher$27[ebp]
  002dc	68 00 00 00 00	 push	 OFFSET ??_C@_0M@PFDHIIAP@eter?4python@
  002e1	e8 00 00 00 00	 call	 ?Create@CPythonLauncher@@QAE_NPBD@Z ; CPythonLauncher::Create
  002e6	84 c0		 test	 al, al
  002e8	74 0d		 je	 SHORT $LN8@Main

; 566  : 		{
; 567  : 			ret=RunMainScript(pyLauncher, lpCmdLine);

  002ea	8b d7		 mov	 edx, edi
  002ec	8d 4d e0	 lea	 ecx, DWORD PTR _pyLauncher$27[ebp]
  002ef	e8 00 00 00 00	 call	 ?RunMainScript@@YA_NAAVCPythonLauncher@@PBD@Z ; RunMainScript
  002f4	88 45 af	 mov	 BYTE PTR _ret$1$[ebp], al
$LN8@Main:

; 568  : 		}
; 569  : 
; 570  : 		app->Clear();

  002f7	8b ce		 mov	 ecx, esi
  002f9	e8 00 00 00 00	 call	 ?Clear@CPythonApplication@@QAEXXZ ; CPythonApplication::Clear

; 571  : 
; 572  : 		timeEndPeriod(1);

  002fe	6a 01		 push	 1
  00300	ff 15 00 00 00
	00		 call	 DWORD PTR __imp__timeEndPeriod@4

; 573  : 		pyLauncher.Clear();

  00306	8d 4d e0	 lea	 ecx, DWORD PTR _pyLauncher$27[ebp]
  00309	e8 00 00 00 00	 call	 ?Clear@CPythonLauncher@@QAEXXZ ; CPythonLauncher::Clear

; 574  : 	}

  0030e	8d 4d b0	 lea	 ecx, DWORD PTR _pyExceptionSender$26[ebp]
  00311	e8 00 00 00 00	 call	 ??1CPythonExceptionSender@@UAE@XZ ; CPythonExceptionSender::~CPythonExceptionSender
  00316	8d 4d e0	 lea	 ecx, DWORD PTR _pyLauncher$27[ebp]
  00319	c7 45 fc ff ff
	ff ff		 mov	 DWORD PTR __$EHRec$[ebp+8], -1
  00320	e8 00 00 00 00	 call	 ??1CPythonLauncher@@UAE@XZ ; CPythonLauncher::~CPythonLauncher

; 575  : 
; 576  : 	app->Destroy();

  00325	8b ce		 mov	 ecx, esi
  00327	e8 00 00 00 00	 call	 ?Destroy@CPythonApplication@@QAEXXZ ; CPythonApplication::Destroy

; 577  : 	delete app;

  0032c	85 f6		 test	 esi, esi
  0032e	74 08		 je	 SHORT $LN12@Main
  00330	8b 06		 mov	 eax, DWORD PTR [esi]
  00332	8b ce		 mov	 ecx, esi
  00334	6a 01		 push	 1
  00336	ff 10		 call	 DWORD PTR [eax]
$LN12@Main:

; 578  : 	
; 579  : 	return ret;

  00338	8a 45 af	 mov	 al, BYTE PTR _ret$1$[ebp]
$LN1@Main:

; 580  : }

  0033b	8b 4d f4	 mov	 ecx, DWORD PTR __$EHRec$[ebp]
  0033e	64 89 0d 00 00
	00 00		 mov	 DWORD PTR fs:0, ecx
  00345	59		 pop	 ecx
  00346	5f		 pop	 edi
  00347	5e		 pop	 esi
  00348	8b 4d ec	 mov	 ecx, DWORD PTR __$ArrayPad$[ebp]
  0034b	33 cd		 xor	 ecx, ebp
  0034d	e8 00 00 00 00	 call	 @__security_check_cookie@4
  00352	8b e5		 mov	 esp, ebp
  00354	5d		 pop	 ebp
  00355	8b e3		 mov	 esp, ebx
  00357	5b		 pop	 ebx
  00358	c3		 ret	 0
$LN144@Main:
; File C:\Program Files\Microsoft Visual Studio\2022\Community\VC\Tools\MSVC\14.44.35207\include\xmemory

; 219  :     _STL_VERIFY(_Back_shift >= _Min_back_shift && _Back_shift <= _Non_user_size, "invalid argument");

  00359	6a 00		 push	 0
  0035b	6a 00		 push	 0
  0035d	6a 00		 push	 0
  0035f	6a 00		 push	 0
  00361	6a 00		 push	 0
  00363	e8 00 00 00 00	 call	 __invoke_watson
$LN141@Main:
  00368	cc		 int	 3
_TEXT	ENDS
;	COMDAT text$x
text$x	SEGMENT
__unwindfunclet$?Main@@YA_NPAUHINSTANCE__@@PAD@Z$0:
  00000	68 00 00 00 00	 push	 OFFSET ?$TSS0@?1??Main@@YA_NPAUHINSTANCE__@@PAD@Z@4HA
  00005	e8 00 00 00 00	 call	 __Init_thread_abort
  0000a	59		 pop	 ecx
  0000b	c3		 ret	 0
__unwindfunclet$?Main@@YA_NPAUHINSTANCE__@@PAD@Z$1:
  0000c	68 00 00 00 00	 push	 OFFSET ?$TSS1@?1??Main@@YA_NPAUHINSTANCE__@@PAD@Z@4HA
  00011	e8 00 00 00 00	 call	 __Init_thread_abort
  00016	59		 pop	 ecx
  00017	c3		 ret	 0
__unwindfunclet$?Main@@YA_NPAUHINSTANCE__@@PAD@Z$2:
  00018	68 00 00 00 00	 push	 OFFSET ?$TSS2@?1??Main@@YA_NPAUHINSTANCE__@@PAD@Z@4HA
  0001d	e8 00 00 00 00	 call	 __Init_thread_abort
  00022	59		 pop	 ecx
  00023	c3		 ret	 0
__unwindfunclet$?Main@@YA_NPAUHINSTANCE__@@PAD@Z$4:
  00024	8d 4d d4	 lea	 ecx, DWORD PTR $T2[ebp]
  00027	e9 00 00 00 00	 jmp	 ??1?$basic_string@DU?$char_traits@D@std@@V?$allocator@D@2@@std@@QAE@XZ ; std::basic_string<char,std::char_traits<char>,std::allocator<char> >::~basic_string<char,std::char_traits<char>,std::allocator<char> >
__unwindfunclet$?Main@@YA_NPAUHINSTANCE__@@PAD@Z$5:
  0002c	68 10 d8 03 00	 push	 251920			; 0003d810H
  00031	8b 45 a4	 mov	 eax, DWORD PTR $T22[ebp]
  00034	50		 push	 eax
  00035	e8 00 00 00 00	 call	 ??3@YAXPAXI@Z		; operator delete
  0003a	83 c4 08	 add	 esp, 8
  0003d	c3		 ret	 0
__unwindfunclet$?Main@@YA_NPAUHINSTANCE__@@PAD@Z$6:
  0003e	8d 4d e0	 lea	 ecx, DWORD PTR _pyLauncher$27[ebp]
  00041	e9 00 00 00 00	 jmp	 ??1CPythonLauncher@@UAE@XZ ; CPythonLauncher::~CPythonLauncher
__unwindfunclet$?Main@@YA_NPAUHINSTANCE__@@PAD@Z$7:
  00046	8d 4d b0	 lea	 ecx, DWORD PTR _pyExceptionSender$26[ebp]
  00049	e9 00 00 00 00	 jmp	 ??1CPythonExceptionSender@@UAE@XZ ; CPythonExceptionSender::~CPythonExceptionSender
  0004e	cc		 int	 3
  0004f	cc		 int	 3
  00050	cc		 int	 3
  00051	cc		 int	 3
  00052	cc		 int	 3
__ehhandler$?Main@@YA_NPAUHINSTANCE__@@PAD@Z:
  00053	90		 npad	 1
  00054	90		 npad	 1
  00055	8b 54 24 08	 mov	 edx, DWORD PTR [esp+8]
  00059	8d 42 0c	 lea	 eax, DWORD PTR [edx+12]
  0005c	8b 4a a0	 mov	 ecx, DWORD PTR [edx-96]
  0005f	33 c8		 xor	 ecx, eax
  00061	e8 00 00 00 00	 call	 @__security_check_cookie@4
  00066	8b 4a f8	 mov	 ecx, DWORD PTR [edx-8]
  00069	33 c8		 xor	 ecx, eax
  0006b	e8 00 00 00 00	 call	 @__security_check_cookie@4
  00070	b8 00 00 00 00	 mov	 eax, OFFSET __ehfuncinfo$?Main@@YA_NPAUHINSTANCE__@@PAD@Z
  00075	e9 00 00 00 00	 jmp	 ___CxxFrameHandler3
text$x	ENDS
?Main@@YA_NPAUHINSTANCE__@@PAD@Z ENDP			; Main
; Function compile flags: /Ogtp
;	COMDAT ??__Fm_pyConfig@?1??Main@@YA_NPAUHINSTANCE__@@PAD@Z@YAXXZ
text$yd	SEGMENT
??__Fm_pyConfig@?1??Main@@YA_NPAUHINSTANCE__@@PAD@Z@YAXXZ PROC ; `Main'::`2'::`dynamic atexit destructor for 'm_pyConfig'', COMDAT
  00000	b9 00 00 00 00	 mov	 ecx, OFFSET ?m_pyConfig@?1??Main@@YA_NPAUHINSTANCE__@@PAD@Z@4VCPythonConfig@@A
  00005	e9 00 00 00 00	 jmp	 ??1CPythonConfig@@UAE@XZ ; CPythonConfig::~CPythonConfig
??__Fm_pyConfig@?1??Main@@YA_NPAUHINSTANCE__@@PAD@Z@YAXXZ ENDP ; `Main'::`2'::`dynamic atexit destructor for 'm_pyConfig''
text$yd	ENDS
; Function compile flags: /Ogtp
; File C:\Program Files\Microsoft Visual Studio\2022\Community\VC\Tools\MSVC\14.44.35207\include\thread
; File C:\Anka2Project\Anka2Project\Source\Binary\source\eterBase\Singleton.h
;	COMDAT ??__FPlayerSettings@?1??Main@@YA_NPAUHINSTANCE__@@PAD@Z@YAXXZ
text$yd	SEGMENT
??__FPlayerSettings@?1??Main@@YA_NPAUHINSTANCE__@@PAD@Z@YAXXZ PROC ; `Main'::`2'::`dynamic atexit destructor for 'PlayerSettings'', COMDAT
; File C:\Program Files\Microsoft Visual Studio\2022\Community\VC\Tools\MSVC\14.44.35207\include\thread

; 121  :         return _Thr._Id != 0;

  00000	83 3d 14 00 00
	00 00		 cmp	 DWORD PTR ?PlayerSettings@?1??Main@@YA_NPAUHINSTANCE__@@PAD@Z@4VCPythonPlayerSettingsModule@@A+20, 0

; 97   :         if (joinable()) {

  00007	0f 85 00 00 00
	00		 jne	 _terminate
  0000d	b9 08 00 00 00	 mov	 ecx, OFFSET ?PlayerSettings@?1??Main@@YA_NPAUHINSTANCE__@@PAD@Z@4VCPythonPlayerSettingsModule@@A+8
  00012	e8 00 00 00 00	 call	 ??1?$_Tree@V?$_Tmap_traits@V?$basic_string_view@DU?$char_traits@D@std@@@std@@V?$basic_string@DU?$char_traits@D@std@@V?$allocator@D@2@@2@U?$less@V?$basic_string_view@DU?$char_traits@D@std@@@std@@@2@V?$allocator@U?$pair@$$CBV?$basic_string_view@DU?$char_traits@D@std@@@std@@V?$basic_string@DU?$char_traits@D@std@@V?$allocator@D@2@@2@@std@@@2@$0A@@std@@@std@@QAE@XZ ; std::_Tree<std::_Tmap_traits<std::basic_string_view<char,std::char_traits<char> >,std::basic_string<char,std::char_traits<char>,std::allocator<char> >,std::less<std::basic_string_view<char,std::char_traits<char> > >,std::allocator<std::pair<std::basic_string_view<char,std::char_traits<char> > const ,std::basic_string<char,std::char_traits<char>,std::allocator<char> > > >,0> >::~_Tree<std::_Tmap_traits<std::basic_string_view<char,std::char_traits<char> >,std::basic_string<char,std::char_traits<char>,std::allocator<char> >,std::less<std::basic_string_view<char,std::char_traits<char> > >,std::allocator<std::pair<std::basic_string_view<char,std::char_traits<char> > const ,std::basic_string<char,std::char_traits<char>,std::allocator<char> > > >,0> >
; File C:\Anka2Project\Anka2Project\Source\Binary\source\eterBase\Singleton.h

; 20   : 		assert(ms_singleton);

  00017	83 3d 00 00 00
	00 00		 cmp	 DWORD PTR ?ms_singleton@?$CSingleton@VCPythonPlayerSettingsModule@@@@0PAVCPythonPlayerSettingsModule@@A, 0 ; CSingleton<CPythonPlayerSettingsModule>::ms_singleton
  0001e	c7 05 00 00 00
	00 00 00 00 00	 mov	 DWORD PTR ?PlayerSettings@?1??Main@@YA_NPAUHINSTANCE__@@PAD@Z@4VCPythonPlayerSettingsModule@@A, OFFSET ??_7?$CSingleton@VCPythonPlayerSettingsModule@@@@6B@
  00028	75 14		 jne	 SHORT $LN23@dynamic
  0002a	6a 14		 push	 20			; 00000014H
  0002c	68 00 00 00 00	 push	 OFFSET ??_C@_1IO@CAJLEEOI@?$AAC?$AA?3?$AA?2?$AAA?$AAn?$AAk?$AAa?$AA2?$AAP?$AAr?$AAo?$AAj?$AAe?$AAc?$AAt@
  00031	68 00 00 00 00	 push	 OFFSET ??_C@_1BK@FMEHPMFE@?$AAm?$AAs?$AA_?$AAs?$AAi?$AAn?$AAg?$AAl?$AAe?$AAt?$AAo?$AAn@
  00036	e8 00 00 00 00	 call	 __wassert
  0003b	83 c4 0c	 add	 esp, 12			; 0000000cH
$LN23@dynamic:

; 21   : 		ms_singleton = 0;

  0003e	c7 05 00 00 00
	00 00 00 00 00	 mov	 DWORD PTR ?ms_singleton@?$CSingleton@VCPythonPlayerSettingsModule@@@@0PAVCPythonPlayerSettingsModule@@A, 0 ; CSingleton<CPythonPlayerSettingsModule>::ms_singleton
  00048	c3		 ret	 0
??__FPlayerSettings@?1??Main@@YA_NPAUHINSTANCE__@@PAD@Z@YAXXZ ENDP ; `Main'::`2'::`dynamic atexit destructor for 'PlayerSettings''
text$yd	ENDS
; Function compile flags: /Ogtp
;	COMDAT ??__FEterPackManager@?1??Main@@YA_NPAUHINSTANCE__@@PAD@Z@YAXXZ
text$yd	SEGMENT
??__FEterPackManager@?1??Main@@YA_NPAUHINSTANCE__@@PAD@Z@YAXXZ PROC ; `Main'::`2'::`dynamic atexit destructor for 'EterPackManager'', COMDAT
  00000	b9 00 00 00 00	 mov	 ecx, OFFSET ?EterPackManager@?1??Main@@YA_NPAUHINSTANCE__@@PAD@Z@4VCEterPackManager@@A
  00005	e9 00 00 00 00	 jmp	 ??1CEterPackManager@@UAE@XZ ; CEterPackManager::~CEterPackManager
??__FEterPackManager@?1??Main@@YA_NPAUHINSTANCE__@@PAD@Z@YAXXZ ENDP ; `Main'::`2'::`dynamic atexit destructor for 'EterPackManager''
text$yd	ENDS
; Function compile flags: /Ogtp
;	COMDAT ??__Flzo@?1??Main@@YA_NPAUHINSTANCE__@@PAD@Z@YAXXZ
text$yd	SEGMENT
??__Flzo@?1??Main@@YA_NPAUHINSTANCE__@@PAD@Z@YAXXZ PROC	; `Main'::`2'::`dynamic atexit destructor for 'lzo'', COMDAT
  00000	b9 00 00 00 00	 mov	 ecx, OFFSET ?lzo@?1??Main@@YA_NPAUHINSTANCE__@@PAD@Z@4VCLZO@@A
  00005	e9 00 00 00 00	 jmp	 ??1CLZO@@UAE@XZ		; CLZO::~CLZO
??__Flzo@?1??Main@@YA_NPAUHINSTANCE__@@PAD@Z@YAXXZ ENDP	; `Main'::`2'::`dynamic atexit destructor for 'lzo''
text$yd	ENDS
; Function compile flags: /Ogtp
; File C:\Anka2Project\Anka2Project\Source\Binary\source\UserInterface\UserInterface.cpp
;	COMDAT _WinMain@16
_TEXT	SEGMENT
_nArgc$ = -4						; size = 4
_hInstance$ = 8						; size = 4
_hPrevInstance$ = 12					; size = 4
_lpCmdLine$ = 16					; size = 4
_nCmdShow$ = 20						; size = 4
_WinMain@16 PROC					; COMDAT

; 633  : {

  00000	55		 push	 ebp
  00001	8b ec		 mov	 ebp, esp
  00003	83 e4 f8	 and	 esp, -8			; fffffff8H
  00006	51		 push	 ecx
  00007	56		 push	 esi

; 634  : 	LoadConfig ("locale.cfg");

  00008	e8 00 00 00 00	 call	 ?LoadConfig@@YAXPBD@Z	; LoadConfig

; 635  : 	SetDefaultCodePage(GetCodePage());

  0000d	e8 00 00 00 00	 call	 ?GetCodePage@@YAIXZ	; GetCodePage
  00012	50		 push	 eax
  00013	e8 00 00 00 00	 call	 ?SetDefaultCodePage@@YA_NK@Z ; SetDefaultCodePage
  00018	83 c4 04	 add	 esp, 4

; 636  : 
; 637  : 	int nArgc = 0;

  0001b	c7 44 24 04 00
	00 00 00	 mov	 DWORD PTR _nArgc$[esp+8], 0

; 638  : 	PCHAR* szArgv = CommandLineToArgv( lpCmdLine, &nArgc );

  00023	8d 44 24 04	 lea	 eax, DWORD PTR _nArgc$[esp+8]
  00027	50		 push	 eax
  00028	ff 75 10	 push	 DWORD PTR _lpCmdLine$[ebp]
  0002b	e8 00 00 00 00	 call	 ?CommandLineToArgv@@YAPAPADPADPAH@Z ; CommandLineToArgv

; 639  : 	WebBrowser_Startup(hInstance);

  00030	ff 75 08	 push	 DWORD PTR _hInstance$[ebp]
  00033	8b f0		 mov	 esi, eax
  00035	e8 00 00 00 00	 call	 _WebBrowser_Startup
  0003a	83 c4 0c	 add	 esp, 12			; 0000000cH

; 640  : 
; 641  : 	if (!CheckPythonLibraryFilenames())

  0003d	e8 00 00 00 00	 call	 ?CheckPythonLibraryFilenames@@YA_NXZ ; CheckPythonLibraryFilenames
  00042	84 c0		 test	 al, al
  00044	75 07		 jne	 SHORT $LN2@WinMain

; 642  : 	{
; 643  : 		__ErrorPythonLibraryIsNotExist();

  00046	e8 00 00 00 00	 call	 ?__ErrorPythonLibraryIsNotExist@@YAXXZ ; __ErrorPythonLibraryIsNotExist

; 644  : 		goto Clean;

  0004b	eb 16		 jmp	 SHORT $Clean$8
$LN2@WinMain:

; 645  : 	}
; 646  : 
; 647  : 	Main(hInstance, lpCmdLine);

  0004d	8b 55 10	 mov	 edx, DWORD PTR _lpCmdLine$[ebp]
  00050	8b 4d 08	 mov	 ecx, DWORD PTR _hInstance$[ebp]
  00053	e8 00 00 00 00	 call	 ?Main@@YA_NPAUHINSTANCE__@@PAD@Z ; Main

; 648  : 	WebBrowser_Cleanup();

  00058	e8 00 00 00 00	 call	 _WebBrowser_Cleanup

; 649  : 	::CoUninitialize();

  0005d	ff 15 00 00 00
	00		 call	 DWORD PTR __imp__CoUninitialize@0
$Clean$8:

; 650  : 
; 651  : Clean:
; 652  : 	SAFE_FREE_GLOBAL(szArgv);

  00063	85 f6		 test	 esi, esi
  00065	74 07		 je	 SHORT $LN6@WinMain
  00067	56		 push	 esi
  00068	ff 15 00 00 00
	00		 call	 DWORD PTR __imp__GlobalFree@4
$LN6@WinMain:

; 653  : 	return 0;
; 654  : }

  0006e	33 c0		 xor	 eax, eax
  00070	5e		 pop	 esi
  00071	8b e5		 mov	 esp, ebp
  00073	5d		 pop	 ebp
  00074	c2 10 00	 ret	 16			; 00000010H
_WinMain@16 ENDP
_TEXT	ENDS
; Function compile flags: /Ogtp
; File C:\Anka2Project\Anka2Project\Source\Binary\source\UserInterface\UserInterface.cpp
;	COMDAT ?Setup@@YAHPAD@Z
_TEXT	SEGMENT
_Callback$ = -16					; size = 8
_tc$ = -8						; size = 8
?Setup@@YAHPAD@Z PROC					; Setup, COMDAT
; _lpCmdLine$dead$ = ecx

; 662  : {

  00000	55		 push	 ebp
  00001	8b ec		 mov	 ebp, esp
  00003	83 ec 10	 sub	 esp, 16			; 00000010H

; 663  : 	TIMECAPS tc;
; 664  : 	UINT wTimerRes;
; 665  : 
; 666  : 	if (timeGetDevCaps(&tc, sizeof(TIMECAPS)) != TIMERR_NOERROR)

  00006	8d 45 f8	 lea	 eax, DWORD PTR _tc$[ebp]
  00009	6a 08		 push	 8
  0000b	50		 push	 eax
  0000c	ff 15 00 00 00
	00		 call	 DWORD PTR __imp__timeGetDevCaps@8
  00012	85 c0		 test	 eax, eax
  00014	74 06		 je	 SHORT $LN2@Setup

; 667  : 		return 0;

  00016	33 c0		 xor	 eax, eax

; 677  : }

  00018	8b e5		 mov	 esp, ebp
  0001a	5d		 pop	 ebp
  0001b	c3		 ret	 0
$LN2@Setup:

; 668  : 
; 669  : 	wTimerRes = MINMAX(tc.wPeriodMin, 1, tc.wPeriodMax);

  0001c	ff 75 fc	 push	 DWORD PTR _tc$[ebp+4]
  0001f	6a 01		 push	 1
  00021	ff 75 f8	 push	 DWORD PTR _tc$[ebp]
  00024	e8 00 00 00 00	 call	 ?MINMAX@@YAHHHH@Z	; MINMAX
  00029	83 c4 0c	 add	 esp, 12			; 0000000cH

; 670  : 	timeBeginPeriod(wTimerRes); 

  0002c	50		 push	 eax
  0002d	ff 15 00 00 00
	00		 call	 DWORD PTR __imp__timeBeginPeriod@4

; 671  : 
; 672  : 	granny_log_callback Callback;
; 673  : 	Callback.Function = nullptr;
; 674  : 	Callback.UserData = 0;
; 675  : 	GrannySetLogCallback(&Callback);

  00033	8d 45 f0	 lea	 eax, DWORD PTR _Callback$[ebp]
  00036	c7 45 f0 00 00
	00 00		 mov	 DWORD PTR _Callback$[ebp], 0
  0003d	50		 push	 eax
  0003e	c7 45 f4 00 00
	00 00		 mov	 DWORD PTR _Callback$[ebp+4], 0
  00045	ff 15 00 00 00
	00		 call	 DWORD PTR __imp__GrannySetLogCallback@4

; 676  : 	return 1;

  0004b	b8 01 00 00 00	 mov	 eax, 1

; 677  : }

  00050	8b e5		 mov	 esp, ebp
  00052	5d		 pop	 ebp
  00053	c3		 ret	 0
?Setup@@YAHPAD@Z ENDP					; Setup
_TEXT	ENDS
END
